; ModuleID = '3jjm8wofbipagokr'
source_filename = "3jjm8wofbipagokr"
target datalayout = "e-m:e-p270:32:32-p271:32:32-p272:64:64-i64:64-f80:128-n8:16:32:64-S128"
target triple = "x86_64-unknown-linux-gnu"

%"core::ptr::metadata::PtrComponents<[u8]>" = type { ptr, i64 }
%"core::ptr::metadata::PtrRepr<[u8]>" = type { [2 x i64] }
%"core::slice::iter::Iter<'_, u8>" = type { ptr, ptr, %"core::marker::PhantomData<&u8>" }
%"core::marker::PhantomData<&u8>" = type {}
%"alloc::vec::Vec<u8>" = type { %"alloc::raw_vec::RawVec<u8>", i64 }
%"alloc::raw_vec::RawVec<u8>" = type { i64, ptr, %"alloc::alloc::Global" }
%"alloc::alloc::Global" = type {}
%"std::io::error::ErrorData<alloc::boxed::Box<std::io::error::Custom>>" = type { i8, [15 x i8] }
%"{closure@<std::io::error::repr_bitpacked::Repr as core::ops::drop::Drop>::drop::{closure#0}}" = type {}
%"core::ptr::metadata::PtrComponents<()>" = type { ptr, {} }
%"core::ptr::metadata::PtrRepr<()>" = type { [1 x i64] }
%"core::fmt::rt::UnsafeArg" = type { {} }
%"core::fmt::rt::Count" = type { i64, [1 x i64] }
%"std::io::error::ErrorData<alloc::boxed::Box<std::io::error::Custom>>::Os" = type { [1 x i32], i32 }
%"std::io::error::ErrorData<alloc::boxed::Box<std::io::error::Custom>>::SimpleMessage" = type { [1 x i64], ptr }
%"std::io::error::ErrorData<alloc::boxed::Box<std::io::error::Custom>>::Simple" = type { [1 x i8], i8 }
%"std::io::error::ErrorData<alloc::boxed::Box<std::io::error::Custom>>::Custom" = type { [1 x i64], ptr }
%"core::fmt::Arguments<'_>" = type { { ptr, i64 }, { ptr, i64 }, %"core::option::Option<&[core::fmt::rt::Placeholder]>" }
%"core::option::Option<&[core::fmt::rt::Placeholder]>" = type { ptr, [1 x i64] }
%"core::result::Result<usize, std::io::error::Error>::Err" = type { [1 x i64], ptr }
%"core::alloc::layout::Layout" = type { i64, i64 }
%"core::result::Result<core::alloc::layout::Layout, core::alloc::layout::LayoutError>" = type { i64, [1 x i64] }
%"core::result::Result<core::alloc::layout::Layout, alloc::collections::TryReserveErrorKind>" = type { i64, [2 x i64] }
%"core::alloc::layout::LayoutError" = type {}
%"{closure@alloc::raw_vec::finish_grow<alloc::alloc::Global>::{closure#0}}" = type {}
%"core::result::Result<core::alloc::layout::Layout, alloc::collections::TryReserveErrorKind>::Ok" = type { [1 x i64], %"core::alloc::layout::Layout" }
%"core::result::Result<core::alloc::layout::Layout, alloc::collections::TryReserveErrorKind>::Err" = type { [1 x i64], %"alloc::collections::TryReserveErrorKind" }
%"alloc::collections::TryReserveErrorKind" = type { i64, [1 x i64] }
%"core::result::Result<core::ptr::non_null::NonNull<[u8]>, alloc::collections::TryReserveError>" = type { i64, [2 x i64] }
%"core::ptr::non_null::NonNull<[u8]>" = type { { ptr, i64 } }
%"core::alloc::AllocError" = type {}
%"core::result::Result<core::ptr::non_null::NonNull<[u8]>, core::alloc::AllocError>" = type { ptr, [1 x i64] }
%"core::result::Result<core::ptr::non_null::NonNull<[u8]>, alloc::collections::TryReserveError>::Ok" = type { [1 x i64], %"core::ptr::non_null::NonNull<[u8]>" }
%"core::result::Result<core::ptr::non_null::NonNull<[u8]>, alloc::collections::TryReserveError>::Err" = type { [1 x i64], %"alloc::collections::TryReserveError" }
%"alloc::collections::TryReserveError" = type { %"alloc::collections::TryReserveErrorKind" }
%"{closure@alloc::raw_vec::handle_reserve::{closure#0}}" = type {}
%"core::result::Result<(), alloc::collections::TryReserveErrorKind>" = type { i64, [1 x i64] }
%"core::result::Result<(), alloc::collections::TryReserveError>" = type { i64, [1 x i64] }
%"alloc::string::String" = type { %"alloc::vec::Vec<u8>" }
%"core::result::Result<core::convert::Infallible, core::alloc::AllocError>::Err" = type { %"core::alloc::AllocError" }
%"core::ops::control_flow::ControlFlow<core::result::Result<core::convert::Infallible, core::alloc::AllocError>, core::ptr::non_null::NonNull<[u8]>>" = type { ptr, [1 x i64] }
%"core::result::Result<core::convert::Infallible, alloc::collections::TryReserveErrorKind>::Err" = type { %"alloc::collections::TryReserveErrorKind" }
%"core::result::Result<core::convert::Infallible, alloc::collections::TryReserveError>::Err" = type { %"alloc::collections::TryReserveError" }
%"core::ops::control_flow::ControlFlow<core::result::Result<core::convert::Infallible, alloc::collections::TryReserveError>>" = type { i64, [1 x i64] }
%"core::ops::control_flow::ControlFlow<core::result::Result<core::convert::Infallible, alloc::collections::TryReserveErrorKind>, core::alloc::layout::Layout>" = type { i64, [2 x i64] }
%"core::ops::control_flow::ControlFlow<core::result::Result<core::convert::Infallible, alloc::collections::TryReserveErrorKind>, core::alloc::layout::Layout>::Continue" = type { [1 x i64], %"core::alloc::layout::Layout" }
%"core::ops::control_flow::ControlFlow<core::result::Result<core::convert::Infallible, alloc::collections::TryReserveErrorKind>, core::alloc::layout::Layout>::Break" = type { [1 x i64], %"core::result::Result<core::convert::Infallible, alloc::collections::TryReserveErrorKind>::Err" }
%"core::option::Option<(core::ptr::non_null::NonNull<u8>, core::alloc::layout::Layout)>" = type { [1 x i64], i64, [1 x i64] }
%"core::ops::control_flow::ControlFlow<core::result::Result<core::convert::Infallible, alloc::collections::TryReserveError>, core::ptr::non_null::NonNull<[u8]>>" = type { i64, [2 x i64] }
%"core::option::Option<usize>" = type { i64, [1 x i64] }
%"core::result::Result<usize, alloc::collections::TryReserveErrorKind>" = type { i64, [1 x i64] }
%"core::ops::control_flow::ControlFlow<core::result::Result<core::convert::Infallible, alloc::collections::TryReserveErrorKind>, usize>" = type { i64, [1 x i64] }
%"core::result::Result<usize, alloc::collections::TryReserveErrorKind>::Ok" = type { [1 x i64], i64 }
%"core::ops::control_flow::ControlFlow<core::result::Result<core::convert::Infallible, alloc::collections::TryReserveErrorKind>, usize>::Continue" = type { [1 x i64], i64 }
%"core::ops::control_flow::ControlFlow<core::result::Result<core::convert::Infallible, alloc::collections::TryReserveError>, core::ptr::non_null::NonNull<[u8]>>::Continue" = type { [1 x i64], %"core::ptr::non_null::NonNull<[u8]>" }
%"core::ops::control_flow::ControlFlow<core::result::Result<core::convert::Infallible, alloc::collections::TryReserveError>, core::ptr::non_null::NonNull<[u8]>>::Break" = type { [1 x i64], %"core::result::Result<core::convert::Infallible, alloc::collections::TryReserveError>::Err" }
%"core::ptr::non_null::NonNull<dyn core::error::Error + core::marker::Send + core::marker::Sync>" = type { { ptr, ptr } }
%"core::result::Result<usize, std::io::error::Error>" = type { i64, [1 x i64] }
%"core::fmt::rt::Argument<'_>" = type { ptr, ptr }

@0 = private unnamed_addr constant <{ [8 x i8], [8 x i8] }> <{ [8 x i8] c"\02\00\00\00\00\00\00\00", [8 x i8] undef }>, align 8
@1 = private unnamed_addr constant <{ [16 x i8] }> <{ [16 x i8] c"\00\00\00\00\00\00\00\00\12\00\00\00\00\00\00\00" }>, align 8
@alloc_a500d906b91607583596fa15e63c2ada = private unnamed_addr constant <{ [40 x i8] }> <{ [40 x i8] c"internal error: entered unreachable code" }>, align 1
@alloc_4dc3c9a7f2fb38379b849190ec5adafd = private unnamed_addr constant <{ [90 x i8] }> <{ [90 x i8] c"/rustc/aedd173a2c086e558c2b66d3743b344f977621a7/library/std/src/io/error/repr_bitpacked.rs" }>, align 1
@alloc_5f9ca26e4863825896f7978e113f791b = private unnamed_addr constant <{ ptr, [16 x i8] }> <{ ptr @alloc_4dc3c9a7f2fb38379b849190ec5adafd, [16 x i8] c"Z\00\00\00\00\00\00\00\17\01\00\00\0D\00\00\00" }>, align 8
@vtable.0 = private constant <{ ptr, [16 x i8], ptr, ptr, ptr }> <{ ptr @"_ZN4core3ptr85drop_in_place$LT$std..rt..lang_start$LT$$LP$$RP$$GT$..$u7b$$u7b$closure$u7d$$u7d$$GT$17h82d6233144d8f609E", [16 x i8] c"\08\00\00\00\00\00\00\00\08\00\00\00\00\00\00\00", ptr @"_ZN4core3ops8function6FnOnce40call_once$u7b$$u7b$vtable.shim$u7d$$u7d$17h77bd9b1f717fc294E", ptr @"_ZN3std2rt10lang_start28_$u7b$$u7b$closure$u7d$$u7d$17hd743159882194208E", ptr @"_ZN3std2rt10lang_start28_$u7b$$u7b$closure$u7d$$u7d$17hd743159882194208E" }>, align 8, !dbg !0
@2 = private unnamed_addr constant <{ [8 x i8], [8 x i8] }> <{ [8 x i8] zeroinitializer, [8 x i8] undef }>, align 8
@alloc_91c7fa63c3cfeaa3c795652d5cf060e4 = private unnamed_addr constant <{ [12 x i8] }> <{ [12 x i8] c"invalid args" }>, align 1
@alloc_af99043bc04c419363a7f04d23183506 = private unnamed_addr constant <{ ptr, [8 x i8] }> <{ ptr @alloc_91c7fa63c3cfeaa3c795652d5cf060e4, [8 x i8] c"\0C\00\00\00\00\00\00\00" }>, align 8
@alloc_513570631223a12912d85da2bec3b15a = private unnamed_addr constant <{}> zeroinitializer, align 8
@alloc_6de2818331109612dbb09d5e2073dc73 = private unnamed_addr constant <{ [75 x i8] }> <{ [75 x i8] c"/rustc/aedd173a2c086e558c2b66d3743b344f977621a7/library/core/src/fmt/mod.rs" }>, align 1
@alloc_b96933a8148f906cfb135db9ebeba42b = private unnamed_addr constant <{ ptr, [16 x i8] }> <{ ptr @alloc_6de2818331109612dbb09d5e2073dc73, [16 x i8] c"K\00\00\00\00\00\00\00M\01\00\00\0D\00\00\00" }>, align 8
@alloc_b1c9b46fd6543b9e0f93a51d745efa2a = private unnamed_addr constant <{ ptr, [16 x i8] }> <{ ptr @alloc_6de2818331109612dbb09d5e2073dc73, [16 x i8] c"K\00\00\00\00\00\00\00C\01\00\00\0D\00\00\00" }>, align 8
@alloc_4713d75e44433589dc609fdbfa49699b = private unnamed_addr constant <{ [80 x i8] }> <{ [80 x i8] c"/rustc/aedd173a2c086e558c2b66d3743b344f977621a7/library/core/src/alloc/layout.rs" }>, align 1
@alloc_37f08cc86d215bcabda8bef18acdfc7b = private unnamed_addr constant <{ ptr, [16 x i8] }> <{ ptr @alloc_4713d75e44433589dc609fdbfa49699b, [16 x i8] c"P\00\00\00\00\00\00\00\C1\01\00\00)\00\00\00" }>, align 8
@str.1 = internal unnamed_addr constant [25 x i8] c"attempt to divide by zero"
@alloc_ec595fc0e82ef92fc59bd74f68296eae = private unnamed_addr constant <{ [73 x i8] }> <{ [73 x i8] c"assertion failed: 0 < pointee_size && pointee_size <= isize::MAX as usize" }>, align 1
@alloc_4932f39bd283994f8d3e764cc620ee52 = private unnamed_addr constant <{ [81 x i8] }> <{ [81 x i8] c"/rustc/aedd173a2c086e558c2b66d3743b344f977621a7/library/core/src/ptr/const_ptr.rs" }>, align 1
@alloc_768f4da2d83915fa9ce0d03164202475 = private unnamed_addr constant <{ ptr, [16 x i8] }> <{ ptr @alloc_4932f39bd283994f8d3e764cc620ee52, [16 x i8] c"Q\00\00\00\00\00\00\004\03\00\00\09\00\00\00" }>, align 8
@__rust_no_alloc_shim_is_unstable = external global i8
@3 = private unnamed_addr constant <{ [8 x i8], [8 x i8] }> <{ [8 x i8] c"\01\00\00\00\00\00\00\80", [8 x i8] undef }>, align 8
@alloc_49a1e817e911805af64bbc7efb390101 = private unnamed_addr constant <{ [1 x i8] }> <{ [1 x i8] c"\0A" }>, align 1
@alloc_3cf8a28b1a0b9f6efeedeb779c4e30d8 = private unnamed_addr constant <{ ptr, [8 x i8], ptr, [8 x i8] }> <{ ptr @alloc_513570631223a12912d85da2bec3b15a, [8 x i8] zeroinitializer, ptr @alloc_49a1e817e911805af64bbc7efb390101, [8 x i8] c"\01\00\00\00\00\00\00\00" }>, align 8
@alloc_6868cb9ef145ce565b9d4b1648d1d863 = private unnamed_addr constant <{ [18 x i8] }> <{ [18 x i8] c"From Rust Callee: " }>, align 1
@__rustc_debug_gdb_scripts_section__ = linkonce_odr unnamed_addr constant [34 x i8] c"\01gdb_load_rust_pretty_printers.py\00", section ".debug_gdb_scripts", align 1

; <alloc::vec::Vec<T,A> as alloc::vec::spec_extend::SpecExtend<&T,core::slice::iter::Iter<T>>>::spec_extend
; Function Attrs: nonlazybind uwtable
define internal void @"_ZN132_$LT$alloc..vec..Vec$LT$T$C$A$GT$$u20$as$u20$alloc..vec..spec_extend..SpecExtend$LT$$RF$T$C$core..slice..iter..Iter$LT$T$GT$$GT$$GT$11spec_extend17h5e3339c501d8de86E"(ptr align 8 %self, ptr %0, ptr %1) unnamed_addr #0 !dbg !177 {
start:
  %data_pointer.dbg.spill.i = alloca ptr, align 8
  %pointee_size.dbg.spill.i = alloca i64, align 8
  %self.dbg.spill5.i = alloca ptr, align 8
  %end.dbg.spill.i = alloca ptr, align 8
  %self.dbg.spill4.i = alloca ptr, align 8
  %data.dbg.spill.i = alloca ptr, align 8
  %origin.dbg.spill.i = alloca ptr, align 8
  %self.dbg.spill2.i = alloca ptr, align 8
  %self.dbg.spill.i = alloca ptr, align 8
  %_24.i = alloca %"core::ptr::metadata::PtrComponents<[u8]>", align 8
  %_23.i = alloca %"core::ptr::metadata::PtrRepr<[u8]>", align 8
  %len.i = alloca i64, align 8
  %dst.dbg.spill = alloca ptr, align 8
  %self.dbg.spill5 = alloca ptr, align 8
  %self.dbg.spill4 = alloca ptr, align 8
  %self.dbg.spill2 = alloca ptr, align 8
  %src.dbg.spill = alloca ptr, align 8
  %len.dbg.spill = alloca i64, align 8
  %count.dbg.spill = alloca i64, align 8
  %slice.dbg.spill = alloca { ptr, i64 }, align 8
  %self.dbg.spill1 = alloca ptr, align 8
  %self.dbg.spill = alloca ptr, align 8
  %iterator = alloca %"core::slice::iter::Iter<'_, u8>", align 8
  store ptr %0, ptr %iterator, align 8
  %2 = getelementptr inbounds i8, ptr %iterator, i64 8
  store ptr %1, ptr %2, align 8
  store ptr %self, ptr %self.dbg.spill, align 8
  call void @llvm.dbg.declare(metadata ptr %self.dbg.spill, metadata !227, metadata !DIExpression()), !dbg !236
  call void @llvm.dbg.declare(metadata ptr %self.dbg.spill, metadata !237, metadata !DIExpression()), !dbg !254
  call void @llvm.dbg.declare(metadata ptr %self.dbg.spill, metadata !256, metadata !DIExpression()), !dbg !264
  call void @llvm.dbg.declare(metadata ptr %self.dbg.spill, metadata !266, metadata !DIExpression()), !dbg !274
  call void @llvm.dbg.declare(metadata ptr %iterator, metadata !228, metadata !DIExpression()), !dbg !276
  store ptr %iterator, ptr %self.dbg.spill1, align 8, !dbg !277
  call void @llvm.dbg.declare(metadata ptr %self.dbg.spill1, metadata !278, metadata !DIExpression()), !dbg !287
  store ptr %iterator, ptr %self.dbg.spill.i, align 8
  call void @llvm.dbg.declare(metadata ptr %self.dbg.spill.i, metadata !289, metadata !DIExpression()), !dbg !298
  call void @llvm.dbg.declare(metadata ptr %len.i, metadata !300, metadata !DIExpression()), !dbg !309
  call void @llvm.dbg.declare(metadata ptr %len.i, metadata !311, metadata !DIExpression()), !dbg !319
  call void @llvm.dbg.declare(metadata ptr %len.i, metadata !321, metadata !DIExpression()), !dbg !330
  %self1.i = load ptr, ptr %iterator, align 8, !dbg !332, !nonnull !23, !noundef !23
  store ptr %self1.i, ptr %self.dbg.spill2.i, align 8, !dbg !332
  call void @llvm.dbg.declare(metadata ptr %self.dbg.spill2.i, metadata !333, metadata !DIExpression()), !dbg !341
  call void @llvm.dbg.declare(metadata ptr %self.dbg.spill2.i, metadata !343, metadata !DIExpression()), !dbg !351
  store ptr %self1.i, ptr %origin.dbg.spill.i, align 8, !dbg !353
  call void @llvm.dbg.declare(metadata ptr %origin.dbg.spill.i, metadata !354, metadata !DIExpression()), !dbg !368
  store ptr %self1.i, ptr %data.dbg.spill.i, align 8, !dbg !332
  call void @llvm.dbg.declare(metadata ptr %data.dbg.spill.i, metadata !308, metadata !DIExpression()), !dbg !370
  call void @llvm.dbg.declare(metadata ptr %data.dbg.spill.i, metadata !318, metadata !DIExpression()), !dbg !371
  call void @llvm.dbg.declare(metadata ptr %data.dbg.spill.i, metadata !372, metadata !DIExpression()), !dbg !382
  %self3.i = getelementptr inbounds i8, ptr %iterator, i64 8, !dbg !384
  store ptr %self3.i, ptr %self.dbg.spill4.i, align 8, !dbg !384
  call void @llvm.dbg.declare(metadata ptr %self.dbg.spill4.i, metadata !385, metadata !DIExpression()), !dbg !396
  %end.i = load ptr, ptr %self3.i, align 8, !dbg !384, !nonnull !23, !noundef !23
  store ptr %end.i, ptr %end.dbg.spill.i, align 8, !dbg !384
  call void @llvm.dbg.declare(metadata ptr %end.dbg.spill.i, metadata !296, metadata !DIExpression()), !dbg !398
  call void @llvm.dbg.declare(metadata ptr %end.dbg.spill.i, metadata !350, metadata !DIExpression()), !dbg !399
  store ptr %end.i, ptr %self.dbg.spill5.i, align 8, !dbg !400
  call void @llvm.dbg.declare(metadata ptr %self.dbg.spill5.i, metadata !363, metadata !DIExpression()), !dbg !401
  call void @llvm.dbg.declare(metadata ptr %self.dbg.spill5.i, metadata !364, metadata !DIExpression()), !dbg !402
  store i64 1, ptr %pointee_size.dbg.spill.i, align 8, !dbg !403
  call void @llvm.dbg.declare(metadata ptr %pointee_size.dbg.spill.i, metadata !366, metadata !DIExpression()), !dbg !411
  %3 = ptrtoint ptr %end.i to i64, !dbg !412
  %4 = ptrtoint ptr %self1.i to i64, !dbg !412
  %5 = sub nuw i64 %3, %4, !dbg !412
  store i64 %5, ptr %len.i, align 8, !dbg !412
  store ptr %self1.i, ptr %data_pointer.dbg.spill.i, align 8, !dbg !413
  call void @llvm.dbg.declare(metadata ptr %data_pointer.dbg.spill.i, metadata !329, metadata !DIExpression()), !dbg !414
  store ptr %self1.i, ptr %_24.i, align 8, !dbg !415
  %6 = load i64, ptr %len.i, align 8, !dbg !415, !noundef !23
  %7 = getelementptr inbounds i8, ptr %_24.i, i64 8, !dbg !415
  store i64 %6, ptr %7, align 8, !dbg !415
  %8 = load ptr, ptr %_24.i, align 8, !dbg !416, !noundef !23
  %9 = getelementptr inbounds i8, ptr %_24.i, i64 8, !dbg !416
  %10 = load i64, ptr %9, align 8, !dbg !416, !noundef !23
  store ptr %8, ptr %_23.i, align 8, !dbg !416
  %11 = getelementptr inbounds i8, ptr %_23.i, i64 8, !dbg !416
  store i64 %10, ptr %11, align 8, !dbg !416
  %_21.0.i = load ptr, ptr %_23.i, align 8, !dbg !416, !noundef !23
  %12 = getelementptr inbounds i8, ptr %_23.i, i64 8, !dbg !416
  %_21.1.i = load i64, ptr %12, align 8, !dbg !416, !noundef !23
  %13 = insertvalue { ptr, i64 } poison, ptr %_21.0.i, 0, !dbg !417
  %14 = insertvalue { ptr, i64 } %13, i64 %_21.1.i, 1, !dbg !417
  %slice.0 = extractvalue { ptr, i64 } %14, 0, !dbg !418
  %slice.1 = extractvalue { ptr, i64 } %14, 1, !dbg !418
  store ptr %slice.0, ptr %slice.dbg.spill, align 8, !dbg !418
  %15 = getelementptr inbounds i8, ptr %slice.dbg.spill, i64 8, !dbg !418
  store i64 %slice.1, ptr %15, align 8, !dbg !418
  call void @llvm.dbg.declare(metadata ptr %slice.dbg.spill, metadata !229, metadata !DIExpression()), !dbg !419
  call void @llvm.dbg.declare(metadata ptr %slice.dbg.spill, metadata !249, metadata !DIExpression()), !dbg !420
  store i64 %slice.1, ptr %count.dbg.spill, align 8, !dbg !421
  call void @llvm.dbg.declare(metadata ptr %count.dbg.spill, metadata !250, metadata !DIExpression()), !dbg !422
  call void @llvm.dbg.declare(metadata ptr %count.dbg.spill, metadata !423, metadata !DIExpression()), !dbg !433
; call alloc::vec::Vec<T,A>::reserve
  call void @"_ZN5alloc3vec16Vec$LT$T$C$A$GT$7reserve17hc1e4165acaee4a76E"(ptr align 8 %self, i64 %slice.1), !dbg !435
  %16 = getelementptr inbounds %"alloc::vec::Vec<u8>", ptr %self, i32 0, i32 1, !dbg !436
  %len = load i64, ptr %16, align 8, !dbg !436, !noundef !23
  store i64 %len, ptr %len.dbg.spill, align 8, !dbg !436
  call void @llvm.dbg.declare(metadata ptr %len.dbg.spill, metadata !252, metadata !DIExpression()), !dbg !437
  call void @llvm.dbg.declare(metadata ptr %len.dbg.spill, metadata !438, metadata !DIExpression()), !dbg !448
  store ptr %slice.0, ptr %src.dbg.spill, align 8, !dbg !450
  call void @llvm.dbg.declare(metadata ptr %src.dbg.spill, metadata !431, metadata !DIExpression()), !dbg !451
  store ptr %self, ptr %self.dbg.spill2, align 8, !dbg !452
  call void @llvm.dbg.declare(metadata ptr %self.dbg.spill2, metadata !453, metadata !DIExpression()), !dbg !462
  %17 = getelementptr inbounds i8, ptr %self, i64 8, !dbg !464
  %self3 = load ptr, ptr %17, align 8, !dbg !464, !nonnull !23, !noundef !23
  store ptr %self3, ptr %self.dbg.spill4, align 8, !dbg !464
  call void @llvm.dbg.declare(metadata ptr %self.dbg.spill4, metadata !465, metadata !DIExpression()), !dbg !473
  call void @llvm.dbg.declare(metadata ptr %self.dbg.spill4, metadata !475, metadata !DIExpression()), !dbg !479
  store ptr %self3, ptr %self.dbg.spill5, align 8, !dbg !481
  call void @llvm.dbg.declare(metadata ptr %self.dbg.spill5, metadata !447, metadata !DIExpression()), !dbg !482
  %dst = getelementptr inbounds i8, ptr %self3, i64 %len, !dbg !483
  store ptr %dst, ptr %dst.dbg.spill, align 8, !dbg !483
  call void @llvm.dbg.declare(metadata ptr %dst.dbg.spill, metadata !432, metadata !DIExpression()), !dbg !484
  %18 = mul i64 %slice.1, 1, !dbg !485
  call void @llvm.memcpy.p0.p0.i64(ptr align 1 %dst, ptr align 1 %slice.0, i64 %18, i1 false), !dbg !485
  %19 = getelementptr inbounds %"alloc::vec::Vec<u8>", ptr %self, i32 0, i32 1, !dbg !486
  %20 = getelementptr inbounds %"alloc::vec::Vec<u8>", ptr %self, i32 0, i32 1, !dbg !486
  %21 = load i64, ptr %20, align 8, !dbg !486, !noundef !23
  %22 = add i64 %21, %slice.1, !dbg !486
  store i64 %22, ptr %19, align 8, !dbg !486
  ret void, !dbg !487
}

; std::sys_common::backtrace::__rust_begin_short_backtrace
; Function Attrs: noinline nonlazybind uwtable
define internal void @_ZN3std10sys_common9backtrace28__rust_begin_short_backtrace17h6dbc066bb84760cbE(ptr %f) unnamed_addr #1 !dbg !488 {
start:
  %f.dbg.spill = alloca ptr, align 8
  %result.dbg.spill = alloca {}, align 1
  %dummy.dbg.spill = alloca {}, align 1
  call void @llvm.dbg.declare(metadata ptr %dummy.dbg.spill, metadata !501, metadata !DIExpression()), !dbg !510
  call void @llvm.dbg.declare(metadata ptr %result.dbg.spill, metadata !496, metadata !DIExpression()), !dbg !512
  store ptr %f, ptr %f.dbg.spill, align 8, !dbg !510
  call void @llvm.dbg.declare(metadata ptr %f.dbg.spill, metadata !495, metadata !DIExpression()), !dbg !513
; call core::ops::function::FnOnce::call_once
  call void @_ZN4core3ops8function6FnOnce9call_once17h2f9dc9404fe5c3b5E(ptr %f), !dbg !514
  call void asm sideeffect "", "~{memory}"(), !dbg !515, !srcloc !516
  ret void, !dbg !517
}

; std::io::error::repr_bitpacked::decode_repr
; Function Attrs: inlinehint nonlazybind uwtable
define internal void @_ZN3std2io5error14repr_bitpacked11decode_repr17hd36007ad91c32591E(ptr sret(%"std::io::error::ErrorData<alloc::boxed::Box<std::io::error::Custom>>") align 8 %_0, ptr %ptr) unnamed_addr #2 personality ptr @rust_eh_personality !dbg !518 {
start:
  %custom.dbg.spill = alloca ptr, align 8
  %self.dbg.spill10 = alloca ptr, align 8
  %data_pointer.dbg.spill = alloca ptr, align 8
  %meta.dbg.spill = alloca ptr, align 8
  %self.dbg.spill8 = alloca ptr, align 8
  %0 = alloca ptr, align 8
  %self.dbg.spill7 = alloca ptr, align 8
  %ptr.dbg.spill6 = alloca ptr, align 8
  %kind.dbg.spill = alloca i8, align 1
  %f.dbg.spill = alloca ptr, align 8
  %1 = alloca { ptr, i32, [1 x i32] }, align 8
  %kind_bits.dbg.spill = alloca i32, align 4
  %code.dbg.spill = alloca i32, align 4
  %self.dbg.spill5 = alloca ptr, align 8
  %make_custom.dbg.spill = alloca %"{closure@<std::io::error::repr_bitpacked::Repr as core::ops::drop::Drop>::drop::{closure#0}}", align 1
  %ptr.dbg.spill = alloca ptr, align 8
  %_45 = alloca %"core::ptr::metadata::PtrComponents<()>", align 8
  %_44 = alloca %"core::ptr::metadata::PtrRepr<()>", align 8
  %_25 = alloca i8, align 1
  %_23 = alloca ptr, align 8
  %self4 = alloca ptr, align 8
  %self = alloca i8, align 1
  %bits = alloca i64, align 8
  %metadata.dbg.spill = alloca {}, align 1
  %count.dbg.spill3 = alloca i64, align 8
  %rhs.dbg.spill = alloca i64, align 8
  %self.dbg.spill2 = alloca i64, align 8
  %self.dbg.spill = alloca i64, align 8
  %count.dbg.spill1 = alloca i64, align 8
  %count.dbg.spill = alloca i64, align 8
  %_unsafe_arg.dbg.spill = alloca %"core::fmt::rt::UnsafeArg", align 1
  %width.dbg.spill = alloca %"core::fmt::rt::Count", align 8
  %precision.dbg.spill = alloca %"core::fmt::rt::Count", align 8
  %flags.dbg.spill = alloca i32, align 4
  %align.dbg.spill = alloca i8, align 1
  %fill.dbg.spill = alloca i32, align 4
  %position.dbg.spill = alloca i64, align 8
  store i64 0, ptr %position.dbg.spill, align 8, !dbg !594
  call void @llvm.dbg.declare(metadata ptr %position.dbg.spill, metadata !626, metadata !DIExpression()), !dbg !594
  store i32 32, ptr %fill.dbg.spill, align 4, !dbg !683
  call void @llvm.dbg.declare(metadata ptr %fill.dbg.spill, metadata !627, metadata !DIExpression()), !dbg !683
  store i8 3, ptr %align.dbg.spill, align 1, !dbg !684
  call void @llvm.dbg.declare(metadata ptr %align.dbg.spill, metadata !628, metadata !DIExpression()), !dbg !684
  store i32 12, ptr %flags.dbg.spill, align 4, !dbg !685
  call void @llvm.dbg.declare(metadata ptr %flags.dbg.spill, metadata !629, metadata !DIExpression()), !dbg !685
  %2 = load i64, ptr @0, align 8, !dbg !685, !range !686, !noundef !23
  %3 = load i64, ptr getelementptr inbounds (i8, ptr @0, i64 8), align 8, !dbg !685
  store i64 %2, ptr %precision.dbg.spill, align 8, !dbg !687
  %4 = getelementptr inbounds i8, ptr %precision.dbg.spill, i64 8, !dbg !687
  store i64 %3, ptr %4, align 8, !dbg !687
  call void @llvm.dbg.declare(metadata ptr %precision.dbg.spill, metadata !630, metadata !DIExpression()), !dbg !687
  %5 = load i64, ptr @1, align 8, !dbg !687, !range !686, !noundef !23
  %6 = load i64, ptr getelementptr inbounds (i8, ptr @1, i64 8), align 8, !dbg !687
  store i64 %5, ptr %width.dbg.spill, align 8, !dbg !688
  %7 = getelementptr inbounds i8, ptr %width.dbg.spill, i64 8, !dbg !688
  store i64 %6, ptr %7, align 8, !dbg !688
  call void @llvm.dbg.declare(metadata ptr %width.dbg.spill, metadata !631, metadata !DIExpression()), !dbg !688
  call void @llvm.dbg.declare(metadata ptr %_unsafe_arg.dbg.spill, metadata !689, metadata !DIExpression()), !dbg !791
  store i64 1, ptr %count.dbg.spill, align 8, !dbg !792
  call void @llvm.dbg.declare(metadata ptr %count.dbg.spill, metadata !800, metadata !DIExpression()), !dbg !792
  store i64 1, ptr %count.dbg.spill1, align 8, !dbg !802
  call void @llvm.dbg.declare(metadata ptr %count.dbg.spill1, metadata !807, metadata !DIExpression()), !dbg !802
  store i64 1, ptr %self.dbg.spill, align 8, !dbg !809
  call void @llvm.dbg.declare(metadata ptr %self.dbg.spill, metadata !821, metadata !DIExpression()), !dbg !809
  store i64 0, ptr %self.dbg.spill2, align 8, !dbg !823
  call void @llvm.dbg.declare(metadata ptr %self.dbg.spill2, metadata !830, metadata !DIExpression()), !dbg !823
  store i64 1, ptr %rhs.dbg.spill, align 8, !dbg !823
  call void @llvm.dbg.declare(metadata ptr %rhs.dbg.spill, metadata !831, metadata !DIExpression()), !dbg !823
  store i64 -1, ptr %count.dbg.spill3, align 8, !dbg !833
  call void @llvm.dbg.declare(metadata ptr %count.dbg.spill3, metadata !840, metadata !DIExpression()), !dbg !833
  call void @llvm.dbg.declare(metadata ptr %metadata.dbg.spill, metadata !842, metadata !DIExpression()), !dbg !849
  store ptr %ptr, ptr %ptr.dbg.spill, align 8, !dbg !849
  call void @llvm.dbg.declare(metadata ptr %ptr.dbg.spill, metadata !578, metadata !DIExpression()), !dbg !859
  call void @llvm.dbg.declare(metadata ptr %ptr.dbg.spill, metadata !860, metadata !DIExpression()), !dbg !871
  call void @llvm.dbg.declare(metadata ptr %ptr.dbg.spill, metadata !873, metadata !DIExpression()), !dbg !888
  call void @llvm.dbg.declare(metadata ptr %ptr.dbg.spill, metadata !867, metadata !DIExpression()), !dbg !890
  call void @llvm.dbg.declare(metadata ptr %ptr.dbg.spill, metadata !869, metadata !DIExpression()), !dbg !892
  call void @llvm.dbg.declare(metadata ptr %make_custom.dbg.spill, metadata !579, metadata !DIExpression()), !dbg !894
  call void @llvm.dbg.declare(metadata ptr %bits, metadata !580, metadata !DIExpression()), !dbg !895
  call void @llvm.dbg.declare(metadata ptr %self, metadata !678, metadata !DIExpression()), !dbg !896
  call void @llvm.dbg.declare(metadata ptr %self4, metadata !897, metadata !DIExpression()), !dbg !905
  store i8 1, ptr %_25, align 1, !dbg !907
  store ptr %ptr, ptr %self.dbg.spill5, align 8, !dbg !908
  call void @llvm.dbg.declare(metadata ptr %self.dbg.spill5, metadata !909, metadata !DIExpression()), !dbg !915
  call void @llvm.dbg.declare(metadata ptr %self.dbg.spill5, metadata !917, metadata !DIExpression()), !dbg !924
  call void @llvm.dbg.declare(metadata ptr %self.dbg.spill5, metadata !799, metadata !DIExpression()), !dbg !926
  call void @llvm.dbg.declare(metadata ptr %self.dbg.spill5, metadata !927, metadata !DIExpression()), !dbg !935
  %8 = ptrtoint ptr %ptr to i64, !dbg !937
  store i64 %8, ptr %bits, align 8, !dbg !937
  %_6 = load i64, ptr %bits, align 8, !dbg !938, !noundef !23
  %_5 = and i64 %_6, 3, !dbg !938
  switch i64 %_5, label %bb1 [
    i64 2, label %bb2
    i64 3, label %bb3
    i64 0, label %bb5
    i64 1, label %bb6
  ], !dbg !939

bb1:                                              ; preds = %start
; invoke core::panicking::panic
  invoke void @_ZN4core9panicking5panic17h59297120e85ea178E(ptr align 1 @alloc_a500d906b91607583596fa15e63c2ada, i64 40, ptr align 8 @alloc_5f9ca26e4863825896f7978e113f791b) #18
          to label %unreachable unwind label %cleanup, !dbg !940

bb2:                                              ; preds = %start
  %_10 = load i64, ptr %bits, align 8, !dbg !941, !noundef !23
  %_8 = ashr i64 %_10, 32, !dbg !942
  %code = trunc i64 %_8 to i32, !dbg !942
  store i32 %code, ptr %code.dbg.spill, align 4, !dbg !942
  call void @llvm.dbg.declare(metadata ptr %code.dbg.spill, metadata !582, metadata !DIExpression()), !dbg !943
  %9 = getelementptr inbounds %"std::io::error::ErrorData<alloc::boxed::Box<std::io::error::Custom>>::Os", ptr %_0, i32 0, i32 1, !dbg !944
  store i32 %code, ptr %9, align 4, !dbg !944
  store i8 0, ptr %_0, align 8, !dbg !944
  br label %bb8, !dbg !945

bb3:                                              ; preds = %start
  %_13 = load i64, ptr %bits, align 8, !dbg !946, !noundef !23
  %_12 = lshr i64 %_13, 32, !dbg !947
  %kind_bits = trunc i64 %_12 to i32, !dbg !947
  store i32 %kind_bits, ptr %kind_bits.dbg.spill, align 4, !dbg !947
  call void @llvm.dbg.declare(metadata ptr %kind_bits.dbg.spill, metadata !584, metadata !DIExpression()), !dbg !948
; invoke std::io::error::repr_bitpacked::kind_from_prim
  %10 = invoke i8 @_ZN3std2io5error14repr_bitpacked14kind_from_prim17h6e8bdc6211ed8204E(i32 %kind_bits)
          to label %bb4 unwind label %cleanup, !dbg !949, !range !950

bb5:                                              ; preds = %start
  store ptr %ptr, ptr %ptr.dbg.spill6, align 8, !dbg !951
  call void @llvm.dbg.declare(metadata ptr %ptr.dbg.spill6, metadata !952, metadata !DIExpression()), !dbg !959
  store ptr %ptr, ptr %self4, align 8, !dbg !961
  %11 = getelementptr inbounds %"std::io::error::ErrorData<alloc::boxed::Box<std::io::error::Custom>>::SimpleMessage", ptr %_0, i32 0, i32 1, !dbg !962
  store ptr %ptr, ptr %11, align 8, !dbg !962
  store i8 2, ptr %_0, align 8, !dbg !962
  br label %bb8, !dbg !963

bb6:                                              ; preds = %start
  store ptr %ptr, ptr %self.dbg.spill7, align 8, !dbg !964
  call void @llvm.dbg.declare(metadata ptr %self.dbg.spill7, metadata !806, metadata !DIExpression()), !dbg !965
  call void @llvm.dbg.declare(metadata ptr %self.dbg.spill7, metadata !839, metadata !DIExpression()), !dbg !966
  %12 = getelementptr i8, ptr %ptr, i64 -1, !dbg !967
  store ptr %12, ptr %0, align 8, !dbg !967
  %_41 = load ptr, ptr %0, align 8, !dbg !967, !noundef !23
  store ptr %_41, ptr %self.dbg.spill8, align 8, !dbg !967
  call void @llvm.dbg.declare(metadata ptr %self.dbg.spill8, metadata !856, metadata !DIExpression()), !dbg !968
  store ptr %ptr, ptr %meta.dbg.spill, align 8, !dbg !969
  call void @llvm.dbg.declare(metadata ptr %meta.dbg.spill, metadata !857, metadata !DIExpression()), !dbg !970
  call void @llvm.dbg.declare(metadata ptr %meta.dbg.spill, metadata !971, metadata !DIExpression()), !dbg !977
  store ptr %_41, ptr %data_pointer.dbg.spill, align 8, !dbg !979
  call void @llvm.dbg.declare(metadata ptr %data_pointer.dbg.spill, metadata !848, metadata !DIExpression()), !dbg !980
  store ptr %_41, ptr %_45, align 8, !dbg !981
  call void @llvm.memcpy.p0.p0.i64(ptr align 8 %_44, ptr align 8 %_45, i64 8, i1 false), !dbg !982
  %self9 = load ptr, ptr %_44, align 8, !dbg !982, !noundef !23
  store ptr %self9, ptr %self.dbg.spill10, align 8, !dbg !982
  call void @llvm.dbg.declare(metadata ptr %self.dbg.spill10, metadata !983, metadata !DIExpression()), !dbg !991
  store ptr %self9, ptr %custom.dbg.spill, align 8, !dbg !993
  call void @llvm.dbg.declare(metadata ptr %custom.dbg.spill, metadata !589, metadata !DIExpression()), !dbg !994
  store i8 0, ptr %_25, align 1, !dbg !995
  store ptr %self9, ptr %_23, align 8, !dbg !995
  %13 = load ptr, ptr %_23, align 8, !dbg !995, !noundef !23
; invoke <std::io::error::repr_bitpacked::Repr as core::ops::drop::Drop>::drop::{{closure}}
  %_21 = invoke align 8 ptr @"_ZN78_$LT$std..io..error..repr_bitpacked..Repr$u20$as$u20$core..ops..drop..Drop$GT$4drop28_$u7b$$u7b$closure$u7d$$u7d$17h94e69bf49fcbcdedE"(ptr %13)
          to label %bb7 unwind label %cleanup, !dbg !995

bb8:                                              ; preds = %bb7, %bb5, %bb4, %bb2
  %14 = load i8, ptr %_25, align 1, !dbg !996, !range !997, !noundef !23
  %15 = trunc i8 %14 to i1, !dbg !996
  br i1 %15, label %bb11, label %bb9, !dbg !996

bb13:                                             ; preds = %cleanup
  %16 = load i8, ptr %_25, align 1, !dbg !996, !range !997, !noundef !23
  %17 = trunc i8 %16 to i1, !dbg !996
  br i1 %17, label %bb12, label %bb10, !dbg !996

cleanup:                                          ; preds = %bb1, %bb6, %bb3
  %18 = landingpad { ptr, i32 }
          cleanup
  %19 = extractvalue { ptr, i32 } %18, 0
  %20 = extractvalue { ptr, i32 } %18, 1
  store ptr %19, ptr %1, align 8
  %21 = getelementptr inbounds i8, ptr %1, i64 8
  store i32 %20, ptr %21, align 8
  br label %bb13

bb4:                                              ; preds = %bb3
  store i8 %10, ptr %self, align 1, !dbg !949
  store ptr %bits, ptr %f.dbg.spill, align 8, !dbg !998
  call void @llvm.dbg.declare(metadata ptr %f.dbg.spill, metadata !679, metadata !DIExpression()), !dbg !999
  %22 = load i8, ptr %self, align 1, !dbg !1000, !range !950, !noundef !23
  %23 = icmp eq i8 %22, 41, !dbg !1000
  %_27 = select i1 %23, i64 0, i64 1, !dbg !1000
  %_47 = icmp eq i64 %_27, 1, !dbg !1001
  call void @llvm.assume(i1 %_47), !dbg !1001
  %kind = load i8, ptr %self, align 1, !dbg !1002, !range !1003, !noundef !23
  store i8 %kind, ptr %kind.dbg.spill, align 1, !dbg !1002
  call void @llvm.dbg.declare(metadata ptr %kind.dbg.spill, metadata !587, metadata !DIExpression()), !dbg !1004
  call void @llvm.dbg.declare(metadata ptr %kind.dbg.spill, metadata !680, metadata !DIExpression()), !dbg !1005
  %24 = getelementptr inbounds %"std::io::error::ErrorData<alloc::boxed::Box<std::io::error::Custom>>::Simple", ptr %_0, i32 0, i32 1, !dbg !1006
  store i8 %kind, ptr %24, align 1, !dbg !1006
  store i8 1, ptr %_0, align 8, !dbg !1006
  br label %bb8, !dbg !1007

bb7:                                              ; preds = %bb6
  %25 = getelementptr inbounds %"std::io::error::ErrorData<alloc::boxed::Box<std::io::error::Custom>>::Custom", ptr %_0, i32 0, i32 1, !dbg !1008
  store ptr %_21, ptr %25, align 8, !dbg !1008
  store i8 3, ptr %_0, align 8, !dbg !1008
  br label %bb8, !dbg !1009

bb9:                                              ; preds = %bb11, %bb8
  ret void, !dbg !1010

bb11:                                             ; preds = %bb8
  br label %bb9, !dbg !996

unreachable:                                      ; preds = %bb1
  unreachable

bb10:                                             ; preds = %bb12, %bb13
  %26 = load ptr, ptr %1, align 8, !dbg !1011, !noundef !23
  %27 = getelementptr inbounds i8, ptr %1, i64 8, !dbg !1011
  %28 = load i32, ptr %27, align 8, !dbg !1011, !noundef !23
  %29 = insertvalue { ptr, i32 } poison, ptr %26, 0, !dbg !1011
  %30 = insertvalue { ptr, i32 } %29, i32 %28, 1, !dbg !1011
  resume { ptr, i32 } %30, !dbg !1011

bb12:                                             ; preds = %bb13
  br label %bb10, !dbg !996
}

; std::io::error::repr_bitpacked::kind_from_prim
; Function Attrs: inlinehint nonlazybind uwtable
define internal i8 @_ZN3std2io5error14repr_bitpacked14kind_from_prim17h6e8bdc6211ed8204E(i32 %0) unnamed_addr #2 !dbg !1012 {
start:
  %v.dbg.spill121 = alloca i32, align 4
  %v.dbg.spill119 = alloca ptr, align 8
  %v.dbg.spill118 = alloca i32, align 4
  %v.dbg.spill116 = alloca ptr, align 8
  %v.dbg.spill115 = alloca i32, align 4
  %v.dbg.spill113 = alloca ptr, align 8
  %v.dbg.spill112 = alloca i32, align 4
  %v.dbg.spill110 = alloca ptr, align 8
  %v.dbg.spill109 = alloca i32, align 4
  %v.dbg.spill107 = alloca ptr, align 8
  %v.dbg.spill106 = alloca i32, align 4
  %v.dbg.spill104 = alloca ptr, align 8
  %v.dbg.spill103 = alloca i32, align 4
  %v.dbg.spill101 = alloca ptr, align 8
  %v.dbg.spill100 = alloca i32, align 4
  %v.dbg.spill98 = alloca ptr, align 8
  %v.dbg.spill97 = alloca i32, align 4
  %v.dbg.spill95 = alloca ptr, align 8
  %v.dbg.spill94 = alloca i32, align 4
  %v.dbg.spill92 = alloca ptr, align 8
  %v.dbg.spill91 = alloca i32, align 4
  %v.dbg.spill89 = alloca ptr, align 8
  %v.dbg.spill88 = alloca i32, align 4
  %v.dbg.spill86 = alloca ptr, align 8
  %v.dbg.spill85 = alloca i32, align 4
  %v.dbg.spill83 = alloca ptr, align 8
  %v.dbg.spill82 = alloca i32, align 4
  %v.dbg.spill80 = alloca ptr, align 8
  %v.dbg.spill79 = alloca i32, align 4
  %v.dbg.spill77 = alloca ptr, align 8
  %v.dbg.spill76 = alloca i32, align 4
  %v.dbg.spill74 = alloca ptr, align 8
  %v.dbg.spill73 = alloca i32, align 4
  %v.dbg.spill71 = alloca ptr, align 8
  %v.dbg.spill70 = alloca i32, align 4
  %v.dbg.spill68 = alloca ptr, align 8
  %v.dbg.spill67 = alloca i32, align 4
  %v.dbg.spill65 = alloca ptr, align 8
  %v.dbg.spill64 = alloca i32, align 4
  %v.dbg.spill62 = alloca ptr, align 8
  %v.dbg.spill61 = alloca i32, align 4
  %v.dbg.spill59 = alloca ptr, align 8
  %v.dbg.spill58 = alloca i32, align 4
  %v.dbg.spill56 = alloca ptr, align 8
  %v.dbg.spill55 = alloca i32, align 4
  %v.dbg.spill53 = alloca ptr, align 8
  %v.dbg.spill52 = alloca i32, align 4
  %v.dbg.spill50 = alloca ptr, align 8
  %v.dbg.spill49 = alloca i32, align 4
  %v.dbg.spill47 = alloca ptr, align 8
  %v.dbg.spill46 = alloca i32, align 4
  %v.dbg.spill44 = alloca ptr, align 8
  %v.dbg.spill43 = alloca i32, align 4
  %v.dbg.spill41 = alloca ptr, align 8
  %v.dbg.spill40 = alloca i32, align 4
  %v.dbg.spill38 = alloca ptr, align 8
  %v.dbg.spill37 = alloca i32, align 4
  %v.dbg.spill35 = alloca ptr, align 8
  %v.dbg.spill34 = alloca i32, align 4
  %v.dbg.spill32 = alloca ptr, align 8
  %v.dbg.spill31 = alloca i32, align 4
  %v.dbg.spill29 = alloca ptr, align 8
  %v.dbg.spill28 = alloca i32, align 4
  %v.dbg.spill26 = alloca ptr, align 8
  %v.dbg.spill25 = alloca i32, align 4
  %v.dbg.spill23 = alloca ptr, align 8
  %v.dbg.spill22 = alloca i32, align 4
  %v.dbg.spill20 = alloca ptr, align 8
  %v.dbg.spill19 = alloca i32, align 4
  %v.dbg.spill17 = alloca ptr, align 8
  %v.dbg.spill16 = alloca i32, align 4
  %v.dbg.spill14 = alloca ptr, align 8
  %v.dbg.spill13 = alloca i32, align 4
  %v.dbg.spill11 = alloca ptr, align 8
  %v.dbg.spill10 = alloca i32, align 4
  %v.dbg.spill8 = alloca ptr, align 8
  %v.dbg.spill7 = alloca i32, align 4
  %v.dbg.spill5 = alloca ptr, align 8
  %v.dbg.spill4 = alloca i32, align 4
  %v.dbg.spill2 = alloca ptr, align 8
  %v.dbg.spill1 = alloca i32, align 4
  %v.dbg.spill = alloca ptr, align 8
  %_0 = alloca i8, align 1
  %ek = alloca i32, align 4
  store i32 %0, ptr %ek, align 4
  call void @llvm.dbg.declare(metadata ptr %ek, metadata !1016, metadata !DIExpression()), !dbg !1141
  store ptr %ek, ptr %v.dbg.spill, align 8, !dbg !1142
  call void @llvm.dbg.declare(metadata ptr %v.dbg.spill, metadata !1019, metadata !DIExpression()), !dbg !1143
  %_4 = load i32, ptr %ek, align 4, !dbg !1142, !noundef !23
  %1 = icmp eq i32 %_4, 0, !dbg !1142
  br i1 %1, label %bb1, label %bb2, !dbg !1142

bb1:                                              ; preds = %start
  %v = load i32, ptr %ek, align 4, !dbg !1142, !noundef !23
  store i32 %v, ptr %v.dbg.spill1, align 4, !dbg !1142
  call void @llvm.dbg.declare(metadata ptr %v.dbg.spill1, metadata !1017, metadata !DIExpression()), !dbg !1143
  store i8 0, ptr %_0, align 1, !dbg !1143
  br label %bb83, !dbg !1142

bb2:                                              ; preds = %start
  store ptr %ek, ptr %v.dbg.spill2, align 8, !dbg !1142
  call void @llvm.dbg.declare(metadata ptr %v.dbg.spill2, metadata !1023, metadata !DIExpression()), !dbg !1144
  %_7 = load i32, ptr %ek, align 4, !dbg !1142, !noundef !23
  %2 = icmp eq i32 %_7, 1, !dbg !1142
  br i1 %2, label %bb3, label %bb4, !dbg !1142

bb83:                                             ; preds = %bb82, %bb81, %bb79, %bb77, %bb75, %bb73, %bb71, %bb69, %bb67, %bb65, %bb63, %bb61, %bb59, %bb57, %bb55, %bb53, %bb51, %bb49, %bb47, %bb45, %bb43, %bb41, %bb39, %bb37, %bb35, %bb33, %bb31, %bb29, %bb27, %bb25, %bb23, %bb21, %bb19, %bb17, %bb15, %bb13, %bb11, %bb9, %bb7, %bb5, %bb3, %bb1
  %3 = load i8, ptr %_0, align 1, !dbg !1145, !range !950, !noundef !23
  ret i8 %3, !dbg !1145

bb3:                                              ; preds = %bb2
  %v3 = load i32, ptr %ek, align 4, !dbg !1142, !noundef !23
  store i32 %v3, ptr %v.dbg.spill4, align 4, !dbg !1142
  call void @llvm.dbg.declare(metadata ptr %v.dbg.spill4, metadata !1021, metadata !DIExpression()), !dbg !1144
  store i8 1, ptr %_0, align 1, !dbg !1144
  br label %bb83, !dbg !1142

bb4:                                              ; preds = %bb2
  store ptr %ek, ptr %v.dbg.spill5, align 8, !dbg !1142
  call void @llvm.dbg.declare(metadata ptr %v.dbg.spill5, metadata !1026, metadata !DIExpression()), !dbg !1146
  %_10 = load i32, ptr %ek, align 4, !dbg !1142, !noundef !23
  %4 = icmp eq i32 %_10, 2, !dbg !1142
  br i1 %4, label %bb5, label %bb6, !dbg !1142

bb5:                                              ; preds = %bb4
  %v6 = load i32, ptr %ek, align 4, !dbg !1142, !noundef !23
  store i32 %v6, ptr %v.dbg.spill7, align 4, !dbg !1142
  call void @llvm.dbg.declare(metadata ptr %v.dbg.spill7, metadata !1024, metadata !DIExpression()), !dbg !1146
  store i8 2, ptr %_0, align 1, !dbg !1146
  br label %bb83, !dbg !1142

bb6:                                              ; preds = %bb4
  store ptr %ek, ptr %v.dbg.spill8, align 8, !dbg !1142
  call void @llvm.dbg.declare(metadata ptr %v.dbg.spill8, metadata !1029, metadata !DIExpression()), !dbg !1147
  %_13 = load i32, ptr %ek, align 4, !dbg !1142, !noundef !23
  %5 = icmp eq i32 %_13, 3, !dbg !1142
  br i1 %5, label %bb7, label %bb8, !dbg !1142

bb7:                                              ; preds = %bb6
  %v9 = load i32, ptr %ek, align 4, !dbg !1142, !noundef !23
  store i32 %v9, ptr %v.dbg.spill10, align 4, !dbg !1142
  call void @llvm.dbg.declare(metadata ptr %v.dbg.spill10, metadata !1027, metadata !DIExpression()), !dbg !1147
  store i8 3, ptr %_0, align 1, !dbg !1147
  br label %bb83, !dbg !1142

bb8:                                              ; preds = %bb6
  store ptr %ek, ptr %v.dbg.spill11, align 8, !dbg !1142
  call void @llvm.dbg.declare(metadata ptr %v.dbg.spill11, metadata !1032, metadata !DIExpression()), !dbg !1148
  %_16 = load i32, ptr %ek, align 4, !dbg !1142, !noundef !23
  %6 = icmp eq i32 %_16, 4, !dbg !1142
  br i1 %6, label %bb9, label %bb10, !dbg !1142

bb9:                                              ; preds = %bb8
  %v12 = load i32, ptr %ek, align 4, !dbg !1142, !noundef !23
  store i32 %v12, ptr %v.dbg.spill13, align 4, !dbg !1142
  call void @llvm.dbg.declare(metadata ptr %v.dbg.spill13, metadata !1030, metadata !DIExpression()), !dbg !1148
  store i8 4, ptr %_0, align 1, !dbg !1148
  br label %bb83, !dbg !1142

bb10:                                             ; preds = %bb8
  store ptr %ek, ptr %v.dbg.spill14, align 8, !dbg !1142
  call void @llvm.dbg.declare(metadata ptr %v.dbg.spill14, metadata !1035, metadata !DIExpression()), !dbg !1149
  %_19 = load i32, ptr %ek, align 4, !dbg !1142, !noundef !23
  %7 = icmp eq i32 %_19, 5, !dbg !1142
  br i1 %7, label %bb11, label %bb12, !dbg !1142

bb11:                                             ; preds = %bb10
  %v15 = load i32, ptr %ek, align 4, !dbg !1142, !noundef !23
  store i32 %v15, ptr %v.dbg.spill16, align 4, !dbg !1142
  call void @llvm.dbg.declare(metadata ptr %v.dbg.spill16, metadata !1033, metadata !DIExpression()), !dbg !1149
  store i8 5, ptr %_0, align 1, !dbg !1149
  br label %bb83, !dbg !1142

bb12:                                             ; preds = %bb10
  store ptr %ek, ptr %v.dbg.spill17, align 8, !dbg !1142
  call void @llvm.dbg.declare(metadata ptr %v.dbg.spill17, metadata !1038, metadata !DIExpression()), !dbg !1150
  %_22 = load i32, ptr %ek, align 4, !dbg !1142, !noundef !23
  %8 = icmp eq i32 %_22, 6, !dbg !1142
  br i1 %8, label %bb13, label %bb14, !dbg !1142

bb13:                                             ; preds = %bb12
  %v18 = load i32, ptr %ek, align 4, !dbg !1142, !noundef !23
  store i32 %v18, ptr %v.dbg.spill19, align 4, !dbg !1142
  call void @llvm.dbg.declare(metadata ptr %v.dbg.spill19, metadata !1036, metadata !DIExpression()), !dbg !1150
  store i8 6, ptr %_0, align 1, !dbg !1150
  br label %bb83, !dbg !1142

bb14:                                             ; preds = %bb12
  store ptr %ek, ptr %v.dbg.spill20, align 8, !dbg !1142
  call void @llvm.dbg.declare(metadata ptr %v.dbg.spill20, metadata !1041, metadata !DIExpression()), !dbg !1151
  %_25 = load i32, ptr %ek, align 4, !dbg !1142, !noundef !23
  %9 = icmp eq i32 %_25, 7, !dbg !1142
  br i1 %9, label %bb15, label %bb16, !dbg !1142

bb15:                                             ; preds = %bb14
  %v21 = load i32, ptr %ek, align 4, !dbg !1142, !noundef !23
  store i32 %v21, ptr %v.dbg.spill22, align 4, !dbg !1142
  call void @llvm.dbg.declare(metadata ptr %v.dbg.spill22, metadata !1039, metadata !DIExpression()), !dbg !1151
  store i8 7, ptr %_0, align 1, !dbg !1151
  br label %bb83, !dbg !1142

bb16:                                             ; preds = %bb14
  store ptr %ek, ptr %v.dbg.spill23, align 8, !dbg !1142
  call void @llvm.dbg.declare(metadata ptr %v.dbg.spill23, metadata !1044, metadata !DIExpression()), !dbg !1152
  %_28 = load i32, ptr %ek, align 4, !dbg !1142, !noundef !23
  %10 = icmp eq i32 %_28, 8, !dbg !1142
  br i1 %10, label %bb17, label %bb18, !dbg !1142

bb17:                                             ; preds = %bb16
  %v24 = load i32, ptr %ek, align 4, !dbg !1142, !noundef !23
  store i32 %v24, ptr %v.dbg.spill25, align 4, !dbg !1142
  call void @llvm.dbg.declare(metadata ptr %v.dbg.spill25, metadata !1042, metadata !DIExpression()), !dbg !1152
  store i8 8, ptr %_0, align 1, !dbg !1152
  br label %bb83, !dbg !1142

bb18:                                             ; preds = %bb16
  store ptr %ek, ptr %v.dbg.spill26, align 8, !dbg !1142
  call void @llvm.dbg.declare(metadata ptr %v.dbg.spill26, metadata !1047, metadata !DIExpression()), !dbg !1153
  %_31 = load i32, ptr %ek, align 4, !dbg !1142, !noundef !23
  %11 = icmp eq i32 %_31, 9, !dbg !1142
  br i1 %11, label %bb19, label %bb20, !dbg !1142

bb19:                                             ; preds = %bb18
  %v27 = load i32, ptr %ek, align 4, !dbg !1142, !noundef !23
  store i32 %v27, ptr %v.dbg.spill28, align 4, !dbg !1142
  call void @llvm.dbg.declare(metadata ptr %v.dbg.spill28, metadata !1045, metadata !DIExpression()), !dbg !1153
  store i8 9, ptr %_0, align 1, !dbg !1153
  br label %bb83, !dbg !1142

bb20:                                             ; preds = %bb18
  store ptr %ek, ptr %v.dbg.spill29, align 8, !dbg !1142
  call void @llvm.dbg.declare(metadata ptr %v.dbg.spill29, metadata !1050, metadata !DIExpression()), !dbg !1154
  %_34 = load i32, ptr %ek, align 4, !dbg !1142, !noundef !23
  %12 = icmp eq i32 %_34, 10, !dbg !1142
  br i1 %12, label %bb21, label %bb22, !dbg !1142

bb21:                                             ; preds = %bb20
  %v30 = load i32, ptr %ek, align 4, !dbg !1142, !noundef !23
  store i32 %v30, ptr %v.dbg.spill31, align 4, !dbg !1142
  call void @llvm.dbg.declare(metadata ptr %v.dbg.spill31, metadata !1048, metadata !DIExpression()), !dbg !1154
  store i8 10, ptr %_0, align 1, !dbg !1154
  br label %bb83, !dbg !1142

bb22:                                             ; preds = %bb20
  store ptr %ek, ptr %v.dbg.spill32, align 8, !dbg !1142
  call void @llvm.dbg.declare(metadata ptr %v.dbg.spill32, metadata !1053, metadata !DIExpression()), !dbg !1155
  %_37 = load i32, ptr %ek, align 4, !dbg !1142, !noundef !23
  %13 = icmp eq i32 %_37, 11, !dbg !1142
  br i1 %13, label %bb23, label %bb24, !dbg !1142

bb23:                                             ; preds = %bb22
  %v33 = load i32, ptr %ek, align 4, !dbg !1142, !noundef !23
  store i32 %v33, ptr %v.dbg.spill34, align 4, !dbg !1142
  call void @llvm.dbg.declare(metadata ptr %v.dbg.spill34, metadata !1051, metadata !DIExpression()), !dbg !1155
  store i8 11, ptr %_0, align 1, !dbg !1155
  br label %bb83, !dbg !1142

bb24:                                             ; preds = %bb22
  store ptr %ek, ptr %v.dbg.spill35, align 8, !dbg !1142
  call void @llvm.dbg.declare(metadata ptr %v.dbg.spill35, metadata !1056, metadata !DIExpression()), !dbg !1156
  %_40 = load i32, ptr %ek, align 4, !dbg !1142, !noundef !23
  %14 = icmp eq i32 %_40, 12, !dbg !1142
  br i1 %14, label %bb25, label %bb26, !dbg !1142

bb25:                                             ; preds = %bb24
  %v36 = load i32, ptr %ek, align 4, !dbg !1142, !noundef !23
  store i32 %v36, ptr %v.dbg.spill37, align 4, !dbg !1142
  call void @llvm.dbg.declare(metadata ptr %v.dbg.spill37, metadata !1054, metadata !DIExpression()), !dbg !1156
  store i8 12, ptr %_0, align 1, !dbg !1156
  br label %bb83, !dbg !1142

bb26:                                             ; preds = %bb24
  store ptr %ek, ptr %v.dbg.spill38, align 8, !dbg !1142
  call void @llvm.dbg.declare(metadata ptr %v.dbg.spill38, metadata !1059, metadata !DIExpression()), !dbg !1157
  %_43 = load i32, ptr %ek, align 4, !dbg !1142, !noundef !23
  %15 = icmp eq i32 %_43, 13, !dbg !1142
  br i1 %15, label %bb27, label %bb28, !dbg !1142

bb27:                                             ; preds = %bb26
  %v39 = load i32, ptr %ek, align 4, !dbg !1142, !noundef !23
  store i32 %v39, ptr %v.dbg.spill40, align 4, !dbg !1142
  call void @llvm.dbg.declare(metadata ptr %v.dbg.spill40, metadata !1057, metadata !DIExpression()), !dbg !1157
  store i8 13, ptr %_0, align 1, !dbg !1157
  br label %bb83, !dbg !1142

bb28:                                             ; preds = %bb26
  store ptr %ek, ptr %v.dbg.spill41, align 8, !dbg !1142
  call void @llvm.dbg.declare(metadata ptr %v.dbg.spill41, metadata !1062, metadata !DIExpression()), !dbg !1158
  %_46 = load i32, ptr %ek, align 4, !dbg !1142, !noundef !23
  %16 = icmp eq i32 %_46, 14, !dbg !1142
  br i1 %16, label %bb29, label %bb30, !dbg !1142

bb29:                                             ; preds = %bb28
  %v42 = load i32, ptr %ek, align 4, !dbg !1142, !noundef !23
  store i32 %v42, ptr %v.dbg.spill43, align 4, !dbg !1142
  call void @llvm.dbg.declare(metadata ptr %v.dbg.spill43, metadata !1060, metadata !DIExpression()), !dbg !1158
  store i8 14, ptr %_0, align 1, !dbg !1158
  br label %bb83, !dbg !1142

bb30:                                             ; preds = %bb28
  store ptr %ek, ptr %v.dbg.spill44, align 8, !dbg !1142
  call void @llvm.dbg.declare(metadata ptr %v.dbg.spill44, metadata !1065, metadata !DIExpression()), !dbg !1159
  %_49 = load i32, ptr %ek, align 4, !dbg !1142, !noundef !23
  %17 = icmp eq i32 %_49, 15, !dbg !1142
  br i1 %17, label %bb31, label %bb32, !dbg !1142

bb31:                                             ; preds = %bb30
  %v45 = load i32, ptr %ek, align 4, !dbg !1142, !noundef !23
  store i32 %v45, ptr %v.dbg.spill46, align 4, !dbg !1142
  call void @llvm.dbg.declare(metadata ptr %v.dbg.spill46, metadata !1063, metadata !DIExpression()), !dbg !1159
  store i8 15, ptr %_0, align 1, !dbg !1159
  br label %bb83, !dbg !1142

bb32:                                             ; preds = %bb30
  store ptr %ek, ptr %v.dbg.spill47, align 8, !dbg !1142
  call void @llvm.dbg.declare(metadata ptr %v.dbg.spill47, metadata !1068, metadata !DIExpression()), !dbg !1160
  %_52 = load i32, ptr %ek, align 4, !dbg !1142, !noundef !23
  %18 = icmp eq i32 %_52, 16, !dbg !1142
  br i1 %18, label %bb33, label %bb34, !dbg !1142

bb33:                                             ; preds = %bb32
  %v48 = load i32, ptr %ek, align 4, !dbg !1142, !noundef !23
  store i32 %v48, ptr %v.dbg.spill49, align 4, !dbg !1142
  call void @llvm.dbg.declare(metadata ptr %v.dbg.spill49, metadata !1066, metadata !DIExpression()), !dbg !1160
  store i8 16, ptr %_0, align 1, !dbg !1160
  br label %bb83, !dbg !1142

bb34:                                             ; preds = %bb32
  store ptr %ek, ptr %v.dbg.spill50, align 8, !dbg !1142
  call void @llvm.dbg.declare(metadata ptr %v.dbg.spill50, metadata !1071, metadata !DIExpression()), !dbg !1161
  %_55 = load i32, ptr %ek, align 4, !dbg !1142, !noundef !23
  %19 = icmp eq i32 %_55, 17, !dbg !1142
  br i1 %19, label %bb35, label %bb36, !dbg !1142

bb35:                                             ; preds = %bb34
  %v51 = load i32, ptr %ek, align 4, !dbg !1142, !noundef !23
  store i32 %v51, ptr %v.dbg.spill52, align 4, !dbg !1142
  call void @llvm.dbg.declare(metadata ptr %v.dbg.spill52, metadata !1069, metadata !DIExpression()), !dbg !1161
  store i8 17, ptr %_0, align 1, !dbg !1161
  br label %bb83, !dbg !1142

bb36:                                             ; preds = %bb34
  store ptr %ek, ptr %v.dbg.spill53, align 8, !dbg !1142
  call void @llvm.dbg.declare(metadata ptr %v.dbg.spill53, metadata !1074, metadata !DIExpression()), !dbg !1162
  %_58 = load i32, ptr %ek, align 4, !dbg !1142, !noundef !23
  %20 = icmp eq i32 %_58, 18, !dbg !1142
  br i1 %20, label %bb37, label %bb38, !dbg !1142

bb37:                                             ; preds = %bb36
  %v54 = load i32, ptr %ek, align 4, !dbg !1142, !noundef !23
  store i32 %v54, ptr %v.dbg.spill55, align 4, !dbg !1142
  call void @llvm.dbg.declare(metadata ptr %v.dbg.spill55, metadata !1072, metadata !DIExpression()), !dbg !1162
  store i8 18, ptr %_0, align 1, !dbg !1162
  br label %bb83, !dbg !1142

bb38:                                             ; preds = %bb36
  store ptr %ek, ptr %v.dbg.spill56, align 8, !dbg !1142
  call void @llvm.dbg.declare(metadata ptr %v.dbg.spill56, metadata !1077, metadata !DIExpression()), !dbg !1163
  %_61 = load i32, ptr %ek, align 4, !dbg !1142, !noundef !23
  %21 = icmp eq i32 %_61, 19, !dbg !1142
  br i1 %21, label %bb39, label %bb40, !dbg !1142

bb39:                                             ; preds = %bb38
  %v57 = load i32, ptr %ek, align 4, !dbg !1142, !noundef !23
  store i32 %v57, ptr %v.dbg.spill58, align 4, !dbg !1142
  call void @llvm.dbg.declare(metadata ptr %v.dbg.spill58, metadata !1075, metadata !DIExpression()), !dbg !1163
  store i8 19, ptr %_0, align 1, !dbg !1163
  br label %bb83, !dbg !1142

bb40:                                             ; preds = %bb38
  store ptr %ek, ptr %v.dbg.spill59, align 8, !dbg !1142
  call void @llvm.dbg.declare(metadata ptr %v.dbg.spill59, metadata !1080, metadata !DIExpression()), !dbg !1164
  %_64 = load i32, ptr %ek, align 4, !dbg !1142, !noundef !23
  %22 = icmp eq i32 %_64, 20, !dbg !1142
  br i1 %22, label %bb41, label %bb42, !dbg !1142

bb41:                                             ; preds = %bb40
  %v60 = load i32, ptr %ek, align 4, !dbg !1142, !noundef !23
  store i32 %v60, ptr %v.dbg.spill61, align 4, !dbg !1142
  call void @llvm.dbg.declare(metadata ptr %v.dbg.spill61, metadata !1078, metadata !DIExpression()), !dbg !1164
  store i8 20, ptr %_0, align 1, !dbg !1164
  br label %bb83, !dbg !1142

bb42:                                             ; preds = %bb40
  store ptr %ek, ptr %v.dbg.spill62, align 8, !dbg !1142
  call void @llvm.dbg.declare(metadata ptr %v.dbg.spill62, metadata !1083, metadata !DIExpression()), !dbg !1165
  %_67 = load i32, ptr %ek, align 4, !dbg !1142, !noundef !23
  %23 = icmp eq i32 %_67, 21, !dbg !1142
  br i1 %23, label %bb43, label %bb44, !dbg !1142

bb43:                                             ; preds = %bb42
  %v63 = load i32, ptr %ek, align 4, !dbg !1142, !noundef !23
  store i32 %v63, ptr %v.dbg.spill64, align 4, !dbg !1142
  call void @llvm.dbg.declare(metadata ptr %v.dbg.spill64, metadata !1081, metadata !DIExpression()), !dbg !1165
  store i8 21, ptr %_0, align 1, !dbg !1165
  br label %bb83, !dbg !1142

bb44:                                             ; preds = %bb42
  store ptr %ek, ptr %v.dbg.spill65, align 8, !dbg !1142
  call void @llvm.dbg.declare(metadata ptr %v.dbg.spill65, metadata !1086, metadata !DIExpression()), !dbg !1166
  %_70 = load i32, ptr %ek, align 4, !dbg !1142, !noundef !23
  %24 = icmp eq i32 %_70, 22, !dbg !1142
  br i1 %24, label %bb45, label %bb46, !dbg !1142

bb45:                                             ; preds = %bb44
  %v66 = load i32, ptr %ek, align 4, !dbg !1142, !noundef !23
  store i32 %v66, ptr %v.dbg.spill67, align 4, !dbg !1142
  call void @llvm.dbg.declare(metadata ptr %v.dbg.spill67, metadata !1084, metadata !DIExpression()), !dbg !1166
  store i8 22, ptr %_0, align 1, !dbg !1166
  br label %bb83, !dbg !1142

bb46:                                             ; preds = %bb44
  store ptr %ek, ptr %v.dbg.spill68, align 8, !dbg !1142
  call void @llvm.dbg.declare(metadata ptr %v.dbg.spill68, metadata !1089, metadata !DIExpression()), !dbg !1167
  %_73 = load i32, ptr %ek, align 4, !dbg !1142, !noundef !23
  %25 = icmp eq i32 %_73, 23, !dbg !1142
  br i1 %25, label %bb47, label %bb48, !dbg !1142

bb47:                                             ; preds = %bb46
  %v69 = load i32, ptr %ek, align 4, !dbg !1142, !noundef !23
  store i32 %v69, ptr %v.dbg.spill70, align 4, !dbg !1142
  call void @llvm.dbg.declare(metadata ptr %v.dbg.spill70, metadata !1087, metadata !DIExpression()), !dbg !1167
  store i8 23, ptr %_0, align 1, !dbg !1167
  br label %bb83, !dbg !1142

bb48:                                             ; preds = %bb46
  store ptr %ek, ptr %v.dbg.spill71, align 8, !dbg !1142
  call void @llvm.dbg.declare(metadata ptr %v.dbg.spill71, metadata !1092, metadata !DIExpression()), !dbg !1168
  %_76 = load i32, ptr %ek, align 4, !dbg !1142, !noundef !23
  %26 = icmp eq i32 %_76, 24, !dbg !1142
  br i1 %26, label %bb49, label %bb50, !dbg !1142

bb49:                                             ; preds = %bb48
  %v72 = load i32, ptr %ek, align 4, !dbg !1142, !noundef !23
  store i32 %v72, ptr %v.dbg.spill73, align 4, !dbg !1142
  call void @llvm.dbg.declare(metadata ptr %v.dbg.spill73, metadata !1090, metadata !DIExpression()), !dbg !1168
  store i8 24, ptr %_0, align 1, !dbg !1168
  br label %bb83, !dbg !1142

bb50:                                             ; preds = %bb48
  store ptr %ek, ptr %v.dbg.spill74, align 8, !dbg !1142
  call void @llvm.dbg.declare(metadata ptr %v.dbg.spill74, metadata !1095, metadata !DIExpression()), !dbg !1169
  %_79 = load i32, ptr %ek, align 4, !dbg !1142, !noundef !23
  %27 = icmp eq i32 %_79, 25, !dbg !1142
  br i1 %27, label %bb51, label %bb52, !dbg !1142

bb51:                                             ; preds = %bb50
  %v75 = load i32, ptr %ek, align 4, !dbg !1142, !noundef !23
  store i32 %v75, ptr %v.dbg.spill76, align 4, !dbg !1142
  call void @llvm.dbg.declare(metadata ptr %v.dbg.spill76, metadata !1093, metadata !DIExpression()), !dbg !1169
  store i8 25, ptr %_0, align 1, !dbg !1169
  br label %bb83, !dbg !1142

bb52:                                             ; preds = %bb50
  store ptr %ek, ptr %v.dbg.spill77, align 8, !dbg !1142
  call void @llvm.dbg.declare(metadata ptr %v.dbg.spill77, metadata !1098, metadata !DIExpression()), !dbg !1170
  %_82 = load i32, ptr %ek, align 4, !dbg !1142, !noundef !23
  %28 = icmp eq i32 %_82, 26, !dbg !1142
  br i1 %28, label %bb53, label %bb54, !dbg !1142

bb53:                                             ; preds = %bb52
  %v78 = load i32, ptr %ek, align 4, !dbg !1142, !noundef !23
  store i32 %v78, ptr %v.dbg.spill79, align 4, !dbg !1142
  call void @llvm.dbg.declare(metadata ptr %v.dbg.spill79, metadata !1096, metadata !DIExpression()), !dbg !1170
  store i8 26, ptr %_0, align 1, !dbg !1170
  br label %bb83, !dbg !1142

bb54:                                             ; preds = %bb52
  store ptr %ek, ptr %v.dbg.spill80, align 8, !dbg !1142
  call void @llvm.dbg.declare(metadata ptr %v.dbg.spill80, metadata !1101, metadata !DIExpression()), !dbg !1171
  %_85 = load i32, ptr %ek, align 4, !dbg !1142, !noundef !23
  %29 = icmp eq i32 %_85, 27, !dbg !1142
  br i1 %29, label %bb55, label %bb56, !dbg !1142

bb55:                                             ; preds = %bb54
  %v81 = load i32, ptr %ek, align 4, !dbg !1142, !noundef !23
  store i32 %v81, ptr %v.dbg.spill82, align 4, !dbg !1142
  call void @llvm.dbg.declare(metadata ptr %v.dbg.spill82, metadata !1099, metadata !DIExpression()), !dbg !1171
  store i8 27, ptr %_0, align 1, !dbg !1171
  br label %bb83, !dbg !1142

bb56:                                             ; preds = %bb54
  store ptr %ek, ptr %v.dbg.spill83, align 8, !dbg !1142
  call void @llvm.dbg.declare(metadata ptr %v.dbg.spill83, metadata !1104, metadata !DIExpression()), !dbg !1172
  %_88 = load i32, ptr %ek, align 4, !dbg !1142, !noundef !23
  %30 = icmp eq i32 %_88, 28, !dbg !1142
  br i1 %30, label %bb57, label %bb58, !dbg !1142

bb57:                                             ; preds = %bb56
  %v84 = load i32, ptr %ek, align 4, !dbg !1142, !noundef !23
  store i32 %v84, ptr %v.dbg.spill85, align 4, !dbg !1142
  call void @llvm.dbg.declare(metadata ptr %v.dbg.spill85, metadata !1102, metadata !DIExpression()), !dbg !1172
  store i8 28, ptr %_0, align 1, !dbg !1172
  br label %bb83, !dbg !1142

bb58:                                             ; preds = %bb56
  store ptr %ek, ptr %v.dbg.spill86, align 8, !dbg !1142
  call void @llvm.dbg.declare(metadata ptr %v.dbg.spill86, metadata !1107, metadata !DIExpression()), !dbg !1173
  %_91 = load i32, ptr %ek, align 4, !dbg !1142, !noundef !23
  %31 = icmp eq i32 %_91, 29, !dbg !1142
  br i1 %31, label %bb59, label %bb60, !dbg !1142

bb59:                                             ; preds = %bb58
  %v87 = load i32, ptr %ek, align 4, !dbg !1142, !noundef !23
  store i32 %v87, ptr %v.dbg.spill88, align 4, !dbg !1142
  call void @llvm.dbg.declare(metadata ptr %v.dbg.spill88, metadata !1105, metadata !DIExpression()), !dbg !1173
  store i8 29, ptr %_0, align 1, !dbg !1173
  br label %bb83, !dbg !1142

bb60:                                             ; preds = %bb58
  store ptr %ek, ptr %v.dbg.spill89, align 8, !dbg !1142
  call void @llvm.dbg.declare(metadata ptr %v.dbg.spill89, metadata !1110, metadata !DIExpression()), !dbg !1174
  %_94 = load i32, ptr %ek, align 4, !dbg !1142, !noundef !23
  %32 = icmp eq i32 %_94, 30, !dbg !1142
  br i1 %32, label %bb61, label %bb62, !dbg !1142

bb61:                                             ; preds = %bb60
  %v90 = load i32, ptr %ek, align 4, !dbg !1142, !noundef !23
  store i32 %v90, ptr %v.dbg.spill91, align 4, !dbg !1142
  call void @llvm.dbg.declare(metadata ptr %v.dbg.spill91, metadata !1108, metadata !DIExpression()), !dbg !1174
  store i8 30, ptr %_0, align 1, !dbg !1174
  br label %bb83, !dbg !1142

bb62:                                             ; preds = %bb60
  store ptr %ek, ptr %v.dbg.spill92, align 8, !dbg !1142
  call void @llvm.dbg.declare(metadata ptr %v.dbg.spill92, metadata !1113, metadata !DIExpression()), !dbg !1175
  %_97 = load i32, ptr %ek, align 4, !dbg !1142, !noundef !23
  %33 = icmp eq i32 %_97, 31, !dbg !1142
  br i1 %33, label %bb63, label %bb64, !dbg !1142

bb63:                                             ; preds = %bb62
  %v93 = load i32, ptr %ek, align 4, !dbg !1142, !noundef !23
  store i32 %v93, ptr %v.dbg.spill94, align 4, !dbg !1142
  call void @llvm.dbg.declare(metadata ptr %v.dbg.spill94, metadata !1111, metadata !DIExpression()), !dbg !1175
  store i8 31, ptr %_0, align 1, !dbg !1175
  br label %bb83, !dbg !1142

bb64:                                             ; preds = %bb62
  store ptr %ek, ptr %v.dbg.spill95, align 8, !dbg !1142
  call void @llvm.dbg.declare(metadata ptr %v.dbg.spill95, metadata !1116, metadata !DIExpression()), !dbg !1176
  %_100 = load i32, ptr %ek, align 4, !dbg !1142, !noundef !23
  %34 = icmp eq i32 %_100, 32, !dbg !1142
  br i1 %34, label %bb65, label %bb66, !dbg !1142

bb65:                                             ; preds = %bb64
  %v96 = load i32, ptr %ek, align 4, !dbg !1142, !noundef !23
  store i32 %v96, ptr %v.dbg.spill97, align 4, !dbg !1142
  call void @llvm.dbg.declare(metadata ptr %v.dbg.spill97, metadata !1114, metadata !DIExpression()), !dbg !1176
  store i8 32, ptr %_0, align 1, !dbg !1176
  br label %bb83, !dbg !1142

bb66:                                             ; preds = %bb64
  store ptr %ek, ptr %v.dbg.spill98, align 8, !dbg !1142
  call void @llvm.dbg.declare(metadata ptr %v.dbg.spill98, metadata !1119, metadata !DIExpression()), !dbg !1177
  %_103 = load i32, ptr %ek, align 4, !dbg !1142, !noundef !23
  %35 = icmp eq i32 %_103, 33, !dbg !1142
  br i1 %35, label %bb67, label %bb68, !dbg !1142

bb67:                                             ; preds = %bb66
  %v99 = load i32, ptr %ek, align 4, !dbg !1142, !noundef !23
  store i32 %v99, ptr %v.dbg.spill100, align 4, !dbg !1142
  call void @llvm.dbg.declare(metadata ptr %v.dbg.spill100, metadata !1117, metadata !DIExpression()), !dbg !1177
  store i8 33, ptr %_0, align 1, !dbg !1177
  br label %bb83, !dbg !1142

bb68:                                             ; preds = %bb66
  store ptr %ek, ptr %v.dbg.spill101, align 8, !dbg !1142
  call void @llvm.dbg.declare(metadata ptr %v.dbg.spill101, metadata !1122, metadata !DIExpression()), !dbg !1178
  %_106 = load i32, ptr %ek, align 4, !dbg !1142, !noundef !23
  %36 = icmp eq i32 %_106, 34, !dbg !1142
  br i1 %36, label %bb69, label %bb70, !dbg !1142

bb69:                                             ; preds = %bb68
  %v102 = load i32, ptr %ek, align 4, !dbg !1142, !noundef !23
  store i32 %v102, ptr %v.dbg.spill103, align 4, !dbg !1142
  call void @llvm.dbg.declare(metadata ptr %v.dbg.spill103, metadata !1120, metadata !DIExpression()), !dbg !1178
  store i8 34, ptr %_0, align 1, !dbg !1178
  br label %bb83, !dbg !1142

bb70:                                             ; preds = %bb68
  store ptr %ek, ptr %v.dbg.spill104, align 8, !dbg !1142
  call void @llvm.dbg.declare(metadata ptr %v.dbg.spill104, metadata !1125, metadata !DIExpression()), !dbg !1179
  %_109 = load i32, ptr %ek, align 4, !dbg !1142, !noundef !23
  %37 = icmp eq i32 %_109, 35, !dbg !1142
  br i1 %37, label %bb71, label %bb72, !dbg !1142

bb71:                                             ; preds = %bb70
  %v105 = load i32, ptr %ek, align 4, !dbg !1142, !noundef !23
  store i32 %v105, ptr %v.dbg.spill106, align 4, !dbg !1142
  call void @llvm.dbg.declare(metadata ptr %v.dbg.spill106, metadata !1123, metadata !DIExpression()), !dbg !1179
  store i8 35, ptr %_0, align 1, !dbg !1179
  br label %bb83, !dbg !1142

bb72:                                             ; preds = %bb70
  store ptr %ek, ptr %v.dbg.spill107, align 8, !dbg !1142
  call void @llvm.dbg.declare(metadata ptr %v.dbg.spill107, metadata !1128, metadata !DIExpression()), !dbg !1180
  %_112 = load i32, ptr %ek, align 4, !dbg !1142, !noundef !23
  %38 = icmp eq i32 %_112, 39, !dbg !1142
  br i1 %38, label %bb73, label %bb74, !dbg !1142

bb73:                                             ; preds = %bb72
  %v108 = load i32, ptr %ek, align 4, !dbg !1142, !noundef !23
  store i32 %v108, ptr %v.dbg.spill109, align 4, !dbg !1142
  call void @llvm.dbg.declare(metadata ptr %v.dbg.spill109, metadata !1126, metadata !DIExpression()), !dbg !1180
  store i8 39, ptr %_0, align 1, !dbg !1180
  br label %bb83, !dbg !1142

bb74:                                             ; preds = %bb72
  store ptr %ek, ptr %v.dbg.spill110, align 8, !dbg !1142
  call void @llvm.dbg.declare(metadata ptr %v.dbg.spill110, metadata !1131, metadata !DIExpression()), !dbg !1181
  %_115 = load i32, ptr %ek, align 4, !dbg !1142, !noundef !23
  %39 = icmp eq i32 %_115, 37, !dbg !1142
  br i1 %39, label %bb75, label %bb76, !dbg !1142

bb75:                                             ; preds = %bb74
  %v111 = load i32, ptr %ek, align 4, !dbg !1142, !noundef !23
  store i32 %v111, ptr %v.dbg.spill112, align 4, !dbg !1142
  call void @llvm.dbg.declare(metadata ptr %v.dbg.spill112, metadata !1129, metadata !DIExpression()), !dbg !1181
  store i8 37, ptr %_0, align 1, !dbg !1181
  br label %bb83, !dbg !1142

bb76:                                             ; preds = %bb74
  store ptr %ek, ptr %v.dbg.spill113, align 8, !dbg !1142
  call void @llvm.dbg.declare(metadata ptr %v.dbg.spill113, metadata !1134, metadata !DIExpression()), !dbg !1182
  %_118 = load i32, ptr %ek, align 4, !dbg !1142, !noundef !23
  %40 = icmp eq i32 %_118, 36, !dbg !1142
  br i1 %40, label %bb77, label %bb78, !dbg !1142

bb77:                                             ; preds = %bb76
  %v114 = load i32, ptr %ek, align 4, !dbg !1142, !noundef !23
  store i32 %v114, ptr %v.dbg.spill115, align 4, !dbg !1142
  call void @llvm.dbg.declare(metadata ptr %v.dbg.spill115, metadata !1132, metadata !DIExpression()), !dbg !1182
  store i8 36, ptr %_0, align 1, !dbg !1182
  br label %bb83, !dbg !1142

bb78:                                             ; preds = %bb76
  store ptr %ek, ptr %v.dbg.spill116, align 8, !dbg !1142
  call void @llvm.dbg.declare(metadata ptr %v.dbg.spill116, metadata !1137, metadata !DIExpression()), !dbg !1183
  %_121 = load i32, ptr %ek, align 4, !dbg !1142, !noundef !23
  %41 = icmp eq i32 %_121, 38, !dbg !1142
  br i1 %41, label %bb79, label %bb80, !dbg !1142

bb79:                                             ; preds = %bb78
  %v117 = load i32, ptr %ek, align 4, !dbg !1142, !noundef !23
  store i32 %v117, ptr %v.dbg.spill118, align 4, !dbg !1142
  call void @llvm.dbg.declare(metadata ptr %v.dbg.spill118, metadata !1135, metadata !DIExpression()), !dbg !1183
  store i8 38, ptr %_0, align 1, !dbg !1183
  br label %bb83, !dbg !1142

bb80:                                             ; preds = %bb78
  store ptr %ek, ptr %v.dbg.spill119, align 8, !dbg !1142
  call void @llvm.dbg.declare(metadata ptr %v.dbg.spill119, metadata !1140, metadata !DIExpression()), !dbg !1184
  %_124 = load i32, ptr %ek, align 4, !dbg !1142, !noundef !23
  %42 = icmp eq i32 %_124, 40, !dbg !1142
  br i1 %42, label %bb81, label %bb82, !dbg !1142

bb81:                                             ; preds = %bb80
  %v120 = load i32, ptr %ek, align 4, !dbg !1142, !noundef !23
  store i32 %v120, ptr %v.dbg.spill121, align 4, !dbg !1142
  call void @llvm.dbg.declare(metadata ptr %v.dbg.spill121, metadata !1138, metadata !DIExpression()), !dbg !1184
  store i8 40, ptr %_0, align 1, !dbg !1184
  br label %bb83, !dbg !1142

bb82:                                             ; preds = %bb80
  store i8 41, ptr %_0, align 1, !dbg !1142
  br label %bb83, !dbg !1142
}

; std::rt::lang_start
; Function Attrs: nonlazybind uwtable
define hidden i64 @_ZN3std2rt10lang_start17h3039573b3cb9f466E(ptr %main, i64 %argc, ptr %argv, i8 %sigpipe) unnamed_addr #0 !dbg !1185 {
start:
  %v.dbg.spill = alloca i64, align 8
  %sigpipe.dbg.spill = alloca i8, align 1
  %argv.dbg.spill = alloca ptr, align 8
  %argc.dbg.spill = alloca i64, align 8
  %main.dbg.spill = alloca ptr, align 8
  %_8 = alloca ptr, align 8
  %_5 = alloca i64, align 8
  store ptr %main, ptr %main.dbg.spill, align 8
  call void @llvm.dbg.declare(metadata ptr %main.dbg.spill, metadata !1190, metadata !DIExpression()), !dbg !1196
  store i64 %argc, ptr %argc.dbg.spill, align 8
  call void @llvm.dbg.declare(metadata ptr %argc.dbg.spill, metadata !1191, metadata !DIExpression()), !dbg !1197
  store ptr %argv, ptr %argv.dbg.spill, align 8
  call void @llvm.dbg.declare(metadata ptr %argv.dbg.spill, metadata !1192, metadata !DIExpression()), !dbg !1198
  store i8 %sigpipe, ptr %sigpipe.dbg.spill, align 1
  call void @llvm.dbg.declare(metadata ptr %sigpipe.dbg.spill, metadata !1193, metadata !DIExpression()), !dbg !1199
  store ptr %main, ptr %_8, align 8, !dbg !1200
; call std::rt::lang_start_internal
  %0 = call i64 @_ZN3std2rt19lang_start_internal17hc3f700406209db2cE(ptr align 1 %_8, ptr align 8 @vtable.0, i64 %argc, ptr %argv, i8 %sigpipe), !dbg !1201
  store i64 %0, ptr %_5, align 8, !dbg !1201
  %v = load i64, ptr %_5, align 8, !dbg !1202, !noundef !23
  store i64 %v, ptr %v.dbg.spill, align 8, !dbg !1202
  call void @llvm.dbg.declare(metadata ptr %v.dbg.spill, metadata !1194, metadata !DIExpression()), !dbg !1203
  ret i64 %v, !dbg !1204
}

; std::rt::lang_start::{{closure}}
; Function Attrs: inlinehint nonlazybind uwtable
define internal i32 @"_ZN3std2rt10lang_start28_$u7b$$u7b$closure$u7d$$u7d$17hd743159882194208E"(ptr align 8 %_1) unnamed_addr #2 !dbg !1205 {
start:
  %self.dbg.spill = alloca ptr, align 8
  %_1.dbg.spill = alloca ptr, align 8
  %self = alloca i8, align 1
  store ptr %_1, ptr %_1.dbg.spill, align 8
  call void @llvm.dbg.declare(metadata ptr %_1.dbg.spill, metadata !1210, metadata !DIExpression(DW_OP_deref)), !dbg !1211
  call void @llvm.dbg.declare(metadata ptr %self, metadata !1212, metadata !DIExpression()), !dbg !1232
  %_4 = load ptr, ptr %_1, align 8, !dbg !1234, !nonnull !23, !noundef !23
; call std::sys_common::backtrace::__rust_begin_short_backtrace
  call void @_ZN3std10sys_common9backtrace28__rust_begin_short_backtrace17h6dbc066bb84760cbE(ptr %_4), !dbg !1235
; call <() as std::process::Termination>::report
  %0 = call i8 @"_ZN54_$LT$$LP$$RP$$u20$as$u20$std..process..Termination$GT$6report17hf108e1079e9a247dE"(), !dbg !1235
  store i8 %0, ptr %self, align 1, !dbg !1235
  store ptr %self, ptr %self.dbg.spill, align 8, !dbg !1236
  call void @llvm.dbg.declare(metadata ptr %self.dbg.spill, metadata !1237, metadata !DIExpression()), !dbg !1246
  %_6 = load i8, ptr %self, align 1, !dbg !1248, !noundef !23
  %_0 = zext i8 %_6 to i32, !dbg !1248
  ret i32 %_0, !dbg !1249
}

; core::cmp::impls::<impl core::cmp::Ord for usize>::cmp
; Function Attrs: inlinehint nonlazybind uwtable
define internal i8 @"_ZN4core3cmp5impls50_$LT$impl$u20$core..cmp..Ord$u20$for$u20$usize$GT$3cmp17ha70f76c86db305d7E"(ptr align 8 %self, ptr align 8 %other) unnamed_addr #2 !dbg !1250 {
start:
  %other.dbg.spill = alloca ptr, align 8
  %self.dbg.spill = alloca ptr, align 8
  %_0 = alloca i8, align 1
  store ptr %self, ptr %self.dbg.spill, align 8
  call void @llvm.dbg.declare(metadata ptr %self.dbg.spill, metadata !1257, metadata !DIExpression()), !dbg !1259
  store ptr %other, ptr %other.dbg.spill, align 8
  call void @llvm.dbg.declare(metadata ptr %other.dbg.spill, metadata !1258, metadata !DIExpression()), !dbg !1260
  %_4 = load i64, ptr %self, align 8, !dbg !1261, !noundef !23
  %_5 = load i64, ptr %other, align 8, !dbg !1262, !noundef !23
  %_3 = icmp ult i64 %_4, %_5, !dbg !1261
  br i1 %_3, label %bb1, label %bb2, !dbg !1261

bb2:                                              ; preds = %start
  %_6 = icmp eq i64 %_4, %_5, !dbg !1263
  br i1 %_6, label %bb3, label %bb4, !dbg !1263

bb1:                                              ; preds = %start
  store i8 -1, ptr %_0, align 1, !dbg !1264
  br label %bb6, !dbg !1265

bb4:                                              ; preds = %bb2
  store i8 1, ptr %_0, align 1, !dbg !1266
  br label %bb5, !dbg !1267

bb3:                                              ; preds = %bb2
  store i8 0, ptr %_0, align 1, !dbg !1268
  br label %bb5, !dbg !1267

bb5:                                              ; preds = %bb3, %bb4
  br label %bb6, !dbg !1265

bb6:                                              ; preds = %bb1, %bb5
  %0 = load i8, ptr %_0, align 1, !dbg !1269, !range !1270, !noundef !23
  ret i8 %0, !dbg !1269
}

; core::cmp::max_by
; Function Attrs: inlinehint nonlazybind uwtable
define internal i64 @_ZN4core3cmp6max_by17h3d6dd866c2d68970E(i64 %0, i64 %1) unnamed_addr #2 personality ptr @rust_eh_personality !dbg !1271 {
start:
  %2 = alloca { ptr, i32, [1 x i32] }, align 8
  %compare.dbg.spill = alloca {}, align 1
  %_10 = alloca i8, align 1
  %_9 = alloca i8, align 1
  %_5 = alloca { ptr, ptr }, align 8
  %_4 = alloca i8, align 1
  %_0 = alloca i64, align 8
  %v2 = alloca i64, align 8
  %v1 = alloca i64, align 8
  store i64 %0, ptr %v1, align 8
  store i64 %1, ptr %v2, align 8
  call void @llvm.dbg.declare(metadata ptr %v1, metadata !1276, metadata !DIExpression()), !dbg !1281
  call void @llvm.dbg.declare(metadata ptr %v2, metadata !1277, metadata !DIExpression()), !dbg !1282
  call void @llvm.dbg.declare(metadata ptr %compare.dbg.spill, metadata !1278, metadata !DIExpression()), !dbg !1283
  store i8 1, ptr %_10, align 1, !dbg !1284
  store i8 1, ptr %_9, align 1, !dbg !1284
  store ptr %v1, ptr %_5, align 8, !dbg !1284
  %3 = getelementptr inbounds i8, ptr %_5, i64 8, !dbg !1284
  store ptr %v2, ptr %3, align 8, !dbg !1284
  %4 = load ptr, ptr %_5, align 8, !dbg !1284, !nonnull !23, !align !1285, !noundef !23
  %5 = getelementptr inbounds i8, ptr %_5, i64 8, !dbg !1284
  %6 = load ptr, ptr %5, align 8, !dbg !1284, !nonnull !23, !align !1285, !noundef !23
; invoke core::ops::function::FnOnce::call_once
  %7 = invoke i8 @_ZN4core3ops8function6FnOnce9call_once17hc3c3bf9e943f83eaE(ptr align 8 %4, ptr align 8 %6)
          to label %bb1 unwind label %cleanup, !dbg !1284, !range !1270

bb7:                                              ; preds = %cleanup
  br label %bb12, !dbg !1286

cleanup:                                          ; preds = %start
  %8 = landingpad { ptr, i32 }
          cleanup
  %9 = extractvalue { ptr, i32 } %8, 0
  %10 = extractvalue { ptr, i32 } %8, 1
  store ptr %9, ptr %2, align 8
  %11 = getelementptr inbounds i8, ptr %2, i64 8
  store i32 %10, ptr %11, align 8
  br label %bb7

bb1:                                              ; preds = %start
  store i8 %7, ptr %_4, align 1, !dbg !1284
  %_8 = load i8, ptr %_4, align 1, !dbg !1284, !range !1270, !noundef !23
  switch i8 %_8, label %bb13 [
    i8 -1, label %bb3
    i8 0, label %bb3
    i8 1, label %bb2
  ], !dbg !1287

bb13:                                             ; preds = %bb1
  unreachable, !dbg !1287

bb3:                                              ; preds = %bb1, %bb1
  store i8 0, ptr %_9, align 1, !dbg !1288
  %12 = load i64, ptr %v2, align 8, !dbg !1288, !noundef !23
  store i64 %12, ptr %_0, align 8, !dbg !1288
  br label %bb4, !dbg !1288

bb2:                                              ; preds = %bb1
  store i8 0, ptr %_10, align 1, !dbg !1289
  %13 = load i64, ptr %v1, align 8, !dbg !1289, !noundef !23
  store i64 %13, ptr %_0, align 8, !dbg !1289
  br label %bb4, !dbg !1289

bb4:                                              ; preds = %bb2, %bb3
  %14 = load i8, ptr %_9, align 1, !dbg !1286, !range !997, !noundef !23
  %15 = trunc i8 %14 to i1, !dbg !1286
  br i1 %15, label %bb9, label %bb5, !dbg !1286

bb5:                                              ; preds = %bb9, %bb4
  %16 = load i8, ptr %_10, align 1, !dbg !1286, !range !997, !noundef !23
  %17 = trunc i8 %16 to i1, !dbg !1286
  br i1 %17, label %bb10, label %bb6, !dbg !1286

bb9:                                              ; preds = %bb4
  br label %bb5, !dbg !1286

bb6:                                              ; preds = %bb10, %bb5
  %18 = load i64, ptr %_0, align 8, !dbg !1290, !noundef !23
  ret i64 %18, !dbg !1290

bb10:                                             ; preds = %bb5
  br label %bb6, !dbg !1286

bb12:                                             ; preds = %bb7
  %19 = load i8, ptr %_10, align 1, !dbg !1286, !range !997, !noundef !23
  %20 = trunc i8 %19 to i1, !dbg !1286
  br i1 %20, label %bb11, label %bb8, !dbg !1286

bb8:                                              ; preds = %bb11, %bb12
  %21 = load ptr, ptr %2, align 8, !dbg !1291, !noundef !23
  %22 = getelementptr inbounds i8, ptr %2, i64 8, !dbg !1291
  %23 = load i32, ptr %22, align 8, !dbg !1291, !noundef !23
  %24 = insertvalue { ptr, i32 } poison, ptr %21, 0, !dbg !1291
  %25 = insertvalue { ptr, i32 } %24, i32 %23, 1, !dbg !1291
  resume { ptr, i32 } %25, !dbg !1291

bb11:                                             ; preds = %bb12
  br label %bb8, !dbg !1286
}

; core::fmt::Arguments::new_v1
; Function Attrs: inlinehint nonlazybind uwtable
define internal void @_ZN4core3fmt9Arguments6new_v117h1b4fb40e9bab0585E(ptr sret(%"core::fmt::Arguments<'_>") align 8 %_0, ptr align 8 %pieces.0, i64 %pieces.1, ptr align 8 %args.0, i64 %args.1) unnamed_addr #2 !dbg !1292 {
start:
  %pieces.dbg.spill1 = alloca { ptr, i64 }, align 8
  %args.dbg.spill = alloca { ptr, i64 }, align 8
  %pieces.dbg.spill = alloca { ptr, i64 }, align 8
  %_14 = alloca %"core::fmt::Arguments<'_>", align 8
  %_9 = alloca %"core::fmt::Arguments<'_>", align 8
  store ptr %pieces.0, ptr %pieces.dbg.spill, align 8
  %0 = getelementptr inbounds i8, ptr %pieces.dbg.spill, i64 8
  store i64 %pieces.1, ptr %0, align 8
  call void @llvm.dbg.declare(metadata ptr %pieces.dbg.spill, metadata !1297, metadata !DIExpression()), !dbg !1299
  store ptr %args.0, ptr %args.dbg.spill, align 8
  %1 = getelementptr inbounds i8, ptr %args.dbg.spill, i64 8
  store i64 %args.1, ptr %1, align 8
  call void @llvm.dbg.declare(metadata ptr %args.dbg.spill, metadata !1298, metadata !DIExpression()), !dbg !1300
  %_3 = icmp ult i64 %pieces.1, %args.1, !dbg !1301
  br i1 %_3, label %bb2, label %bb1, !dbg !1301

bb1:                                              ; preds = %start
  %_7 = add i64 %args.1, 1, !dbg !1302
  %_6 = icmp ugt i64 %pieces.1, %_7, !dbg !1303
  br i1 %_6, label %bb2, label %bb3, !dbg !1303

bb2:                                              ; preds = %bb1, %start
  store ptr @alloc_af99043bc04c419363a7f04d23183506, ptr %pieces.dbg.spill1, align 8, !dbg !1304
  %2 = getelementptr inbounds i8, ptr %pieces.dbg.spill1, i64 8, !dbg !1304
  store i64 1, ptr %2, align 8, !dbg !1304
  call void @llvm.dbg.declare(metadata ptr %pieces.dbg.spill1, metadata !1305, metadata !DIExpression()), !dbg !1312
  br i1 false, label %bb4, label %bb6, !dbg !1315

bb3:                                              ; preds = %bb1
  store ptr %pieces.0, ptr %_0, align 8, !dbg !1316
  %3 = getelementptr inbounds i8, ptr %_0, i64 8, !dbg !1316
  store i64 %pieces.1, ptr %3, align 8, !dbg !1316
  %4 = load ptr, ptr @2, align 8, !dbg !1316, !align !1285, !noundef !23
  %5 = load i64, ptr getelementptr inbounds (i8, ptr @2, i64 8), align 8, !dbg !1316
  %6 = getelementptr inbounds %"core::fmt::Arguments<'_>", ptr %_0, i32 0, i32 2, !dbg !1316
  store ptr %4, ptr %6, align 8, !dbg !1316
  %7 = getelementptr inbounds i8, ptr %6, i64 8, !dbg !1316
  store i64 %5, ptr %7, align 8, !dbg !1316
  %8 = getelementptr inbounds %"core::fmt::Arguments<'_>", ptr %_0, i32 0, i32 1, !dbg !1316
  store ptr %args.0, ptr %8, align 8, !dbg !1316
  %9 = getelementptr inbounds i8, ptr %8, i64 8, !dbg !1316
  store i64 %args.1, ptr %9, align 8, !dbg !1316
  ret void, !dbg !1317

bb6:                                              ; preds = %bb2
  store ptr @alloc_af99043bc04c419363a7f04d23183506, ptr %_9, align 8, !dbg !1318
  %10 = getelementptr inbounds i8, ptr %_9, i64 8, !dbg !1318
  store i64 1, ptr %10, align 8, !dbg !1318
  %11 = load ptr, ptr @2, align 8, !dbg !1318, !align !1285, !noundef !23
  %12 = load i64, ptr getelementptr inbounds (i8, ptr @2, i64 8), align 8, !dbg !1318
  %13 = getelementptr inbounds %"core::fmt::Arguments<'_>", ptr %_9, i32 0, i32 2, !dbg !1318
  store ptr %11, ptr %13, align 8, !dbg !1318
  %14 = getelementptr inbounds i8, ptr %13, i64 8, !dbg !1318
  store i64 %12, ptr %14, align 8, !dbg !1318
  %15 = getelementptr inbounds %"core::fmt::Arguments<'_>", ptr %_9, i32 0, i32 1, !dbg !1318
  store ptr @alloc_513570631223a12912d85da2bec3b15a, ptr %15, align 8, !dbg !1318
  %16 = getelementptr inbounds i8, ptr %15, i64 8, !dbg !1318
  store i64 0, ptr %16, align 8, !dbg !1318
; call core::panicking::panic_fmt
  call void @_ZN4core9panicking9panic_fmt17h0d3f1893e38be419E(ptr align 8 %_9, ptr align 8 @alloc_b96933a8148f906cfb135db9ebeba42b) #18, !dbg !1319
  unreachable, !dbg !1319

bb4:                                              ; preds = %bb2
; call core::fmt::Arguments::new_const
  call void @_ZN4core3fmt9Arguments9new_const17he6e00c5dd79388cbE(ptr sret(%"core::fmt::Arguments<'_>") align 8 %_14, ptr align 8 @alloc_af99043bc04c419363a7f04d23183506, i64 1), !dbg !1320
; call core::panicking::panic_fmt
  call void @_ZN4core9panicking9panic_fmt17h0d3f1893e38be419E(ptr align 8 %_14, ptr align 8 @alloc_b1c9b46fd6543b9e0f93a51d745efa2a) #18, !dbg !1320
  unreachable, !dbg !1320
}

; core::fmt::Arguments::new_const
; Function Attrs: inlinehint nonlazybind uwtable
define internal void @_ZN4core3fmt9Arguments9new_const17he6e00c5dd79388cbE(ptr sret(%"core::fmt::Arguments<'_>") align 8 %_0, ptr align 8 %pieces.0, i64 %pieces.1) unnamed_addr #2 !dbg !1321 {
start:
  %pieces.dbg.spill = alloca { ptr, i64 }, align 8
  %_5 = alloca %"core::fmt::Arguments<'_>", align 8
  store ptr %pieces.0, ptr %pieces.dbg.spill, align 8
  %0 = getelementptr inbounds i8, ptr %pieces.dbg.spill, i64 8
  store i64 %pieces.1, ptr %0, align 8
  call void @llvm.dbg.declare(metadata ptr %pieces.dbg.spill, metadata !1323, metadata !DIExpression()), !dbg !1324
  %_2 = icmp ugt i64 %pieces.1, 1, !dbg !1325
  br i1 %_2, label %bb1, label %bb3, !dbg !1325

bb3:                                              ; preds = %start
  store ptr %pieces.0, ptr %_0, align 8, !dbg !1326
  %1 = getelementptr inbounds i8, ptr %_0, i64 8, !dbg !1326
  store i64 %pieces.1, ptr %1, align 8, !dbg !1326
  %2 = load ptr, ptr @2, align 8, !dbg !1326, !align !1285, !noundef !23
  %3 = load i64, ptr getelementptr inbounds (i8, ptr @2, i64 8), align 8, !dbg !1326
  %4 = getelementptr inbounds %"core::fmt::Arguments<'_>", ptr %_0, i32 0, i32 2, !dbg !1326
  store ptr %2, ptr %4, align 8, !dbg !1326
  %5 = getelementptr inbounds i8, ptr %4, i64 8, !dbg !1326
  store i64 %3, ptr %5, align 8, !dbg !1326
  %6 = getelementptr inbounds %"core::fmt::Arguments<'_>", ptr %_0, i32 0, i32 1, !dbg !1326
  store ptr @alloc_513570631223a12912d85da2bec3b15a, ptr %6, align 8, !dbg !1326
  %7 = getelementptr inbounds i8, ptr %6, i64 8, !dbg !1326
  store i64 0, ptr %7, align 8, !dbg !1326
  ret void, !dbg !1327

bb1:                                              ; preds = %start
; call core::fmt::Arguments::new_const
  call void @_ZN4core3fmt9Arguments9new_const17he6e00c5dd79388cbE(ptr sret(%"core::fmt::Arguments<'_>") align 8 %_5, ptr align 8 @alloc_af99043bc04c419363a7f04d23183506, i64 1), !dbg !1328
; call core::panicking::panic_fmt
  call void @_ZN4core9panicking9panic_fmt17h0d3f1893e38be419E(ptr align 8 %_5, ptr align 8 @alloc_b1c9b46fd6543b9e0f93a51d745efa2a) #18, !dbg !1328
  unreachable, !dbg !1328
}

; core::ops::function::FnOnce::call_once{{vtable.shim}}
; Function Attrs: inlinehint nonlazybind uwtable
define internal i32 @"_ZN4core3ops8function6FnOnce40call_once$u7b$$u7b$vtable.shim$u7d$$u7d$17h77bd9b1f717fc294E"(ptr %_1) unnamed_addr #2 !dbg !1329 {
start:
  %_1.dbg.spill = alloca ptr, align 8
  %_2 = alloca {}, align 1
  store ptr %_1, ptr %_1.dbg.spill, align 8
  call void @llvm.dbg.declare(metadata ptr %_1.dbg.spill, metadata !1338, metadata !DIExpression()), !dbg !1343
  call void @llvm.dbg.declare(metadata ptr %_2, metadata !1339, metadata !DIExpression()), !dbg !1343
  %0 = load ptr, ptr %_1, align 8, !dbg !1343, !nonnull !23, !noundef !23
; call core::ops::function::FnOnce::call_once
  %_0 = call i32 @_ZN4core3ops8function6FnOnce9call_once17h06e1ddd9f50b8e8fE(ptr %0), !dbg !1343
  ret i32 %_0, !dbg !1343
}

; core::ops::function::FnOnce::call_once
; Function Attrs: inlinehint nonlazybind uwtable
define internal i32 @_ZN4core3ops8function6FnOnce9call_once17h06e1ddd9f50b8e8fE(ptr %0) unnamed_addr #2 personality ptr @rust_eh_personality !dbg !1344 {
start:
  %1 = alloca { ptr, i32, [1 x i32] }, align 8
  %_2 = alloca {}, align 1
  %_1 = alloca ptr, align 8
  store ptr %0, ptr %_1, align 8
  call void @llvm.dbg.declare(metadata ptr %_1, metadata !1348, metadata !DIExpression()), !dbg !1350
  call void @llvm.dbg.declare(metadata ptr %_2, metadata !1349, metadata !DIExpression()), !dbg !1350
; invoke std::rt::lang_start::{{closure}}
  %_0 = invoke i32 @"_ZN3std2rt10lang_start28_$u7b$$u7b$closure$u7d$$u7d$17hd743159882194208E"(ptr align 8 %_1)
          to label %bb1 unwind label %cleanup, !dbg !1350

bb3:                                              ; preds = %cleanup
  %2 = load ptr, ptr %1, align 8, !dbg !1350, !noundef !23
  %3 = getelementptr inbounds i8, ptr %1, i64 8, !dbg !1350
  %4 = load i32, ptr %3, align 8, !dbg !1350, !noundef !23
  %5 = insertvalue { ptr, i32 } poison, ptr %2, 0, !dbg !1350
  %6 = insertvalue { ptr, i32 } %5, i32 %4, 1, !dbg !1350
  resume { ptr, i32 } %6, !dbg !1350

cleanup:                                          ; preds = %start
  %7 = landingpad { ptr, i32 }
          cleanup
  %8 = extractvalue { ptr, i32 } %7, 0
  %9 = extractvalue { ptr, i32 } %7, 1
  store ptr %8, ptr %1, align 8
  %10 = getelementptr inbounds i8, ptr %1, i64 8
  store i32 %9, ptr %10, align 8
  br label %bb3

bb1:                                              ; preds = %start
  ret i32 %_0, !dbg !1350
}

; core::ops::function::FnOnce::call_once
; Function Attrs: inlinehint nonlazybind uwtable
define internal void @_ZN4core3ops8function6FnOnce9call_once17h2f9dc9404fe5c3b5E(ptr %_1) unnamed_addr #2 !dbg !1351 {
start:
  %_1.dbg.spill = alloca ptr, align 8
  %_2 = alloca {}, align 1
  store ptr %_1, ptr %_1.dbg.spill, align 8
  call void @llvm.dbg.declare(metadata ptr %_1.dbg.spill, metadata !1353, metadata !DIExpression()), !dbg !1357
  call void @llvm.dbg.declare(metadata ptr %_2, metadata !1354, metadata !DIExpression()), !dbg !1357
  call void %_1(), !dbg !1357
  ret void, !dbg !1357
}

; core::ops::function::FnOnce::call_once
; Function Attrs: inlinehint nonlazybind uwtable
define internal i8 @_ZN4core3ops8function6FnOnce9call_once17hc3c3bf9e943f83eaE(ptr align 8 %0, ptr align 8 %1) unnamed_addr #2 !dbg !1358 {
start:
  %_1.dbg.spill = alloca {}, align 1
  %_2 = alloca { ptr, ptr }, align 8
  store ptr %0, ptr %_2, align 8
  %2 = getelementptr inbounds i8, ptr %_2, i64 8
  store ptr %1, ptr %2, align 8
  call void @llvm.dbg.declare(metadata ptr %_1.dbg.spill, metadata !1362, metadata !DIExpression()), !dbg !1371
  call void @llvm.dbg.declare(metadata ptr %_2, metadata !1363, metadata !DIExpression()), !dbg !1371
  %3 = load ptr, ptr %_2, align 8, !dbg !1371, !nonnull !23, !align !1285, !noundef !23
  %4 = getelementptr inbounds i8, ptr %_2, i64 8, !dbg !1371
  %5 = load ptr, ptr %4, align 8, !dbg !1371, !nonnull !23, !align !1285, !noundef !23
; call core::cmp::impls::<impl core::cmp::Ord for usize>::cmp
  %_0 = call i8 @"_ZN4core3cmp5impls50_$LT$impl$u20$core..cmp..Ord$u20$for$u20$usize$GT$3cmp17ha70f76c86db305d7E"(ptr align 8 %3, ptr align 8 %5), !dbg !1371, !range !1270
  ret i8 %_0, !dbg !1371
}

; core::ptr::drop_in_place<std::io::error::ErrorData<alloc::boxed::Box<std::io::error::Custom>>>
; Function Attrs: nonlazybind uwtable
define internal void @"_ZN4core3ptr101drop_in_place$LT$std..io..error..ErrorData$LT$alloc..boxed..Box$LT$std..io..error..Custom$GT$$GT$$GT$17h7fa774eaa4f64019E"(ptr align 8 %_1) unnamed_addr #0 !dbg !1372 {
start:
  %_1.dbg.spill = alloca ptr, align 8
  store ptr %_1, ptr %_1.dbg.spill, align 8
  call void @llvm.dbg.declare(metadata ptr %_1.dbg.spill, metadata !1377, metadata !DIExpression()), !dbg !1380
  %0 = load i8, ptr %_1, align 8, !dbg !1380, !range !1381, !noundef !23
  %_2 = zext i8 %0 to i64, !dbg !1380
  switch i64 %_2, label %bb2 [
    i64 0, label %bb1
    i64 1, label %bb1
    i64 2, label %bb1
  ], !dbg !1380

bb2:                                              ; preds = %start
  %1 = getelementptr inbounds %"std::io::error::ErrorData<alloc::boxed::Box<std::io::error::Custom>>::Custom", ptr %_1, i32 0, i32 1, !dbg !1380
; call core::ptr::drop_in_place<alloc::boxed::Box<std::io::error::Custom>>
  call void @"_ZN4core3ptr68drop_in_place$LT$alloc..boxed..Box$LT$std..io..error..Custom$GT$$GT$17hc9f1210f416e7f4eE"(ptr align 8 %1), !dbg !1380
  br label %bb1, !dbg !1380

bb1:                                              ; preds = %bb2, %start, %start, %start
  ret void, !dbg !1380
}

; core::ptr::drop_in_place<alloc::boxed::Box<dyn core::error::Error+core::marker::Send+core::marker::Sync>>
; Function Attrs: nonlazybind uwtable
define internal void @"_ZN4core3ptr118drop_in_place$LT$alloc..boxed..Box$LT$dyn$u20$core..error..Error$u2b$core..marker..Send$u2b$core..marker..Sync$GT$$GT$17h0016fd9f0247e25eE"(ptr align 8 %_1) unnamed_addr #0 personality ptr @rust_eh_personality !dbg !1382 {
start:
  %0 = alloca { ptr, i32, [1 x i32] }, align 8
  %_1.dbg.spill = alloca ptr, align 8
  store ptr %_1, ptr %_1.dbg.spill, align 8
  call void @llvm.dbg.declare(metadata ptr %_1.dbg.spill, metadata !1387, metadata !DIExpression()), !dbg !1390
  %_6.0 = load ptr, ptr %_1, align 8, !dbg !1390, !noundef !23
  %1 = getelementptr inbounds i8, ptr %_1, i64 8, !dbg !1390
  %_6.1 = load ptr, ptr %1, align 8, !dbg !1390, !nonnull !23, !align !1285, !noundef !23
  %2 = getelementptr inbounds ptr, ptr %_6.1, i64 0, !dbg !1390
  %3 = load ptr, ptr %2, align 8, !dbg !1390, !invariant.load !23, !nonnull !23
  invoke void %3(ptr align 1 %_6.0)
          to label %bb3 unwind label %cleanup, !dbg !1390

bb4:                                              ; preds = %cleanup
; invoke <alloc::boxed::Box<T,A> as core::ops::drop::Drop>::drop
  invoke void @"_ZN72_$LT$alloc..boxed..Box$LT$T$C$A$GT$$u20$as$u20$core..ops..drop..Drop$GT$4drop17h59c8b9f8822a593eE"(ptr align 8 %_1) #19
          to label %bb1 unwind label %terminate, !dbg !1390

cleanup:                                          ; preds = %start
  %4 = landingpad { ptr, i32 }
          cleanup
  %5 = extractvalue { ptr, i32 } %4, 0
  %6 = extractvalue { ptr, i32 } %4, 1
  store ptr %5, ptr %0, align 8
  %7 = getelementptr inbounds i8, ptr %0, i64 8
  store i32 %6, ptr %7, align 8
  br label %bb4

bb3:                                              ; preds = %start
; call <alloc::boxed::Box<T,A> as core::ops::drop::Drop>::drop
  call void @"_ZN72_$LT$alloc..boxed..Box$LT$T$C$A$GT$$u20$as$u20$core..ops..drop..Drop$GT$4drop17h59c8b9f8822a593eE"(ptr align 8 %_1), !dbg !1390
  ret void, !dbg !1390

terminate:                                        ; preds = %bb4
  %8 = landingpad { ptr, i32 }
          filter [0 x ptr] zeroinitializer
  %9 = extractvalue { ptr, i32 } %8, 0
  %10 = extractvalue { ptr, i32 } %8, 1
; call core::panicking::panic_in_cleanup
  call void @_ZN4core9panicking16panic_in_cleanup17h803841cec7522372E() #20, !dbg !1390
  unreachable, !dbg !1390

bb1:                                              ; preds = %bb4
  %11 = load ptr, ptr %0, align 8, !dbg !1390, !noundef !23
  %12 = getelementptr inbounds i8, ptr %0, i64 8, !dbg !1390
  %13 = load i32, ptr %12, align 8, !dbg !1390, !noundef !23
  %14 = insertvalue { ptr, i32 } poison, ptr %11, 0, !dbg !1390
  %15 = insertvalue { ptr, i32 } %14, i32 %13, 1, !dbg !1390
  resume { ptr, i32 } %15, !dbg !1390
}

; core::ptr::drop_in_place<alloc::string::String>
; Function Attrs: nonlazybind uwtable
define internal void @"_ZN4core3ptr42drop_in_place$LT$alloc..string..String$GT$17h70dfd4470343863aE"(ptr align 8 %_1) unnamed_addr #0 !dbg !1391 {
start:
  %_1.dbg.spill = alloca ptr, align 8
  store ptr %_1, ptr %_1.dbg.spill, align 8
  call void @llvm.dbg.declare(metadata ptr %_1.dbg.spill, metadata !1400, metadata !DIExpression()), !dbg !1403
; call core::ptr::drop_in_place<alloc::vec::Vec<u8>>
  call void @"_ZN4core3ptr46drop_in_place$LT$alloc..vec..Vec$LT$u8$GT$$GT$17h72586190c2646296E"(ptr align 8 %_1), !dbg !1403
  ret void, !dbg !1403
}

; core::ptr::drop_in_place<std::io::error::Error>
; Function Attrs: nonlazybind uwtable
define internal void @"_ZN4core3ptr42drop_in_place$LT$std..io..error..Error$GT$17ha4cfa9cba394758cE"(ptr align 8 %_1) unnamed_addr #0 !dbg !1404 {
start:
  %_1.dbg.spill = alloca ptr, align 8
  store ptr %_1, ptr %_1.dbg.spill, align 8
  call void @llvm.dbg.declare(metadata ptr %_1.dbg.spill, metadata !1417, metadata !DIExpression()), !dbg !1420
; call core::ptr::drop_in_place<std::io::error::repr_bitpacked::Repr>
  call void @"_ZN4core3ptr57drop_in_place$LT$std..io..error..repr_bitpacked..Repr$GT$17hb8adc04978d2e549E"(ptr align 8 %_1), !dbg !1420
  ret void, !dbg !1420
}

; core::ptr::drop_in_place<std::io::error::Custom>
; Function Attrs: nonlazybind uwtable
define internal void @"_ZN4core3ptr43drop_in_place$LT$std..io..error..Custom$GT$17hf75f0a5001c2583bE"(ptr align 8 %_1) unnamed_addr #0 !dbg !1421 {
start:
  %_1.dbg.spill = alloca ptr, align 8
  store ptr %_1, ptr %_1.dbg.spill, align 8
  call void @llvm.dbg.declare(metadata ptr %_1.dbg.spill, metadata !1425, metadata !DIExpression()), !dbg !1428
; call core::ptr::drop_in_place<alloc::boxed::Box<dyn core::error::Error+core::marker::Send+core::marker::Sync>>
  call void @"_ZN4core3ptr118drop_in_place$LT$alloc..boxed..Box$LT$dyn$u20$core..error..Error$u2b$core..marker..Send$u2b$core..marker..Sync$GT$$GT$17h0016fd9f0247e25eE"(ptr align 8 %_1), !dbg !1428
  ret void, !dbg !1428
}

; core::ptr::drop_in_place<alloc::vec::Vec<u8>>
; Function Attrs: nonlazybind uwtable
define internal void @"_ZN4core3ptr46drop_in_place$LT$alloc..vec..Vec$LT$u8$GT$$GT$17h72586190c2646296E"(ptr align 8 %_1) unnamed_addr #0 personality ptr @rust_eh_personality !dbg !1429 {
start:
  %0 = alloca { ptr, i32, [1 x i32] }, align 8
  %_1.dbg.spill = alloca ptr, align 8
  store ptr %_1, ptr %_1.dbg.spill, align 8
  call void @llvm.dbg.declare(metadata ptr %_1.dbg.spill, metadata !1434, metadata !DIExpression()), !dbg !1437
; invoke <alloc::vec::Vec<T,A> as core::ops::drop::Drop>::drop
  invoke void @"_ZN70_$LT$alloc..vec..Vec$LT$T$C$A$GT$$u20$as$u20$core..ops..drop..Drop$GT$4drop17hfb366eb45bf62355E"(ptr align 8 %_1)
          to label %bb4 unwind label %cleanup, !dbg !1437

bb3:                                              ; preds = %cleanup
; invoke core::ptr::drop_in_place<alloc::raw_vec::RawVec<u8>>
  invoke void @"_ZN4core3ptr53drop_in_place$LT$alloc..raw_vec..RawVec$LT$u8$GT$$GT$17h98ee0c24412d3d3aE"(ptr align 8 %_1) #19
          to label %bb1 unwind label %terminate, !dbg !1437

cleanup:                                          ; preds = %start
  %1 = landingpad { ptr, i32 }
          cleanup
  %2 = extractvalue { ptr, i32 } %1, 0
  %3 = extractvalue { ptr, i32 } %1, 1
  store ptr %2, ptr %0, align 8
  %4 = getelementptr inbounds i8, ptr %0, i64 8
  store i32 %3, ptr %4, align 8
  br label %bb3

bb4:                                              ; preds = %start
; call core::ptr::drop_in_place<alloc::raw_vec::RawVec<u8>>
  call void @"_ZN4core3ptr53drop_in_place$LT$alloc..raw_vec..RawVec$LT$u8$GT$$GT$17h98ee0c24412d3d3aE"(ptr align 8 %_1), !dbg !1437
  ret void, !dbg !1437

terminate:                                        ; preds = %bb3
  %5 = landingpad { ptr, i32 }
          filter [0 x ptr] zeroinitializer
  %6 = extractvalue { ptr, i32 } %5, 0
  %7 = extractvalue { ptr, i32 } %5, 1
; call core::panicking::panic_in_cleanup
  call void @_ZN4core9panicking16panic_in_cleanup17h803841cec7522372E() #20, !dbg !1437
  unreachable, !dbg !1437

bb1:                                              ; preds = %bb3
  %8 = load ptr, ptr %0, align 8, !dbg !1437, !noundef !23
  %9 = getelementptr inbounds i8, ptr %0, i64 8, !dbg !1437
  %10 = load i32, ptr %9, align 8, !dbg !1437, !noundef !23
  %11 = insertvalue { ptr, i32 } poison, ptr %8, 0, !dbg !1437
  %12 = insertvalue { ptr, i32 } %11, i32 %10, 1, !dbg !1437
  resume { ptr, i32 } %12, !dbg !1437
}

; core::ptr::drop_in_place<alloc::raw_vec::RawVec<u8>>
; Function Attrs: nonlazybind uwtable
define internal void @"_ZN4core3ptr53drop_in_place$LT$alloc..raw_vec..RawVec$LT$u8$GT$$GT$17h98ee0c24412d3d3aE"(ptr align 8 %_1) unnamed_addr #0 !dbg !1438 {
start:
  %_1.dbg.spill = alloca ptr, align 8
  store ptr %_1, ptr %_1.dbg.spill, align 8
  call void @llvm.dbg.declare(metadata ptr %_1.dbg.spill, metadata !1443, metadata !DIExpression()), !dbg !1446
; call <alloc::raw_vec::RawVec<T,A> as core::ops::drop::Drop>::drop
  call void @"_ZN77_$LT$alloc..raw_vec..RawVec$LT$T$C$A$GT$$u20$as$u20$core..ops..drop..Drop$GT$4drop17h68cc5d80ff834b70E"(ptr align 8 %_1), !dbg !1446
  ret void, !dbg !1446
}

; core::ptr::drop_in_place<std::io::error::repr_bitpacked::Repr>
; Function Attrs: nonlazybind uwtable
define internal void @"_ZN4core3ptr57drop_in_place$LT$std..io..error..repr_bitpacked..Repr$GT$17hb8adc04978d2e549E"(ptr align 8 %_1) unnamed_addr #0 !dbg !1447 {
start:
  %_1.dbg.spill = alloca ptr, align 8
  store ptr %_1, ptr %_1.dbg.spill, align 8
  call void @llvm.dbg.declare(metadata ptr %_1.dbg.spill, metadata !1452, metadata !DIExpression()), !dbg !1455
; call <std::io::error::repr_bitpacked::Repr as core::ops::drop::Drop>::drop
  call void @"_ZN78_$LT$std..io..error..repr_bitpacked..Repr$u20$as$u20$core..ops..drop..Drop$GT$4drop17h48dd38551d212feaE"(ptr align 8 %_1), !dbg !1455
  ret void, !dbg !1455
}

; core::ptr::drop_in_place<alloc::boxed::Box<std::io::error::Custom>>
; Function Attrs: nonlazybind uwtable
define internal void @"_ZN4core3ptr68drop_in_place$LT$alloc..boxed..Box$LT$std..io..error..Custom$GT$$GT$17hc9f1210f416e7f4eE"(ptr align 8 %_1) unnamed_addr #0 personality ptr @rust_eh_personality !dbg !1456 {
start:
  %0 = alloca { ptr, i32, [1 x i32] }, align 8
  %_1.dbg.spill = alloca ptr, align 8
  store ptr %_1, ptr %_1.dbg.spill, align 8
  call void @llvm.dbg.declare(metadata ptr %_1.dbg.spill, metadata !1461, metadata !DIExpression()), !dbg !1464
  %_6 = load ptr, ptr %_1, align 8, !dbg !1464, !noundef !23
; invoke core::ptr::drop_in_place<std::io::error::Custom>
  invoke void @"_ZN4core3ptr43drop_in_place$LT$std..io..error..Custom$GT$17hf75f0a5001c2583bE"(ptr align 8 %_6)
          to label %bb3 unwind label %cleanup, !dbg !1464

bb4:                                              ; preds = %cleanup
; invoke <alloc::boxed::Box<T,A> as core::ops::drop::Drop>::drop
  invoke void @"_ZN72_$LT$alloc..boxed..Box$LT$T$C$A$GT$$u20$as$u20$core..ops..drop..Drop$GT$4drop17h56ce406937c2b87fE"(ptr align 8 %_1) #19
          to label %bb1 unwind label %terminate, !dbg !1464

cleanup:                                          ; preds = %start
  %1 = landingpad { ptr, i32 }
          cleanup
  %2 = extractvalue { ptr, i32 } %1, 0
  %3 = extractvalue { ptr, i32 } %1, 1
  store ptr %2, ptr %0, align 8
  %4 = getelementptr inbounds i8, ptr %0, i64 8
  store i32 %3, ptr %4, align 8
  br label %bb4

bb3:                                              ; preds = %start
; call <alloc::boxed::Box<T,A> as core::ops::drop::Drop>::drop
  call void @"_ZN72_$LT$alloc..boxed..Box$LT$T$C$A$GT$$u20$as$u20$core..ops..drop..Drop$GT$4drop17h56ce406937c2b87fE"(ptr align 8 %_1), !dbg !1464
  ret void, !dbg !1464

terminate:                                        ; preds = %bb4
  %5 = landingpad { ptr, i32 }
          filter [0 x ptr] zeroinitializer
  %6 = extractvalue { ptr, i32 } %5, 0
  %7 = extractvalue { ptr, i32 } %5, 1
; call core::panicking::panic_in_cleanup
  call void @_ZN4core9panicking16panic_in_cleanup17h803841cec7522372E() #20, !dbg !1464
  unreachable, !dbg !1464

bb1:                                              ; preds = %bb4
  %8 = load ptr, ptr %0, align 8, !dbg !1464, !noundef !23
  %9 = getelementptr inbounds i8, ptr %0, i64 8, !dbg !1464
  %10 = load i32, ptr %9, align 8, !dbg !1464, !noundef !23
  %11 = insertvalue { ptr, i32 } poison, ptr %8, 0, !dbg !1464
  %12 = insertvalue { ptr, i32 } %11, i32 %10, 1, !dbg !1464
  resume { ptr, i32 } %12, !dbg !1464
}

; core::ptr::drop_in_place<core::result::Result<usize,std::io::error::Error>>
; Function Attrs: nonlazybind uwtable
define internal void @"_ZN4core3ptr78drop_in_place$LT$core..result..Result$LT$usize$C$std..io..error..Error$GT$$GT$17h05a086a0600f171fE"(ptr align 8 %_1) unnamed_addr #0 !dbg !1465 {
start:
  %_1.dbg.spill = alloca ptr, align 8
  store ptr %_1, ptr %_1.dbg.spill, align 8
  call void @llvm.dbg.declare(metadata ptr %_1.dbg.spill, metadata !1485, metadata !DIExpression()), !dbg !1488
  %_2 = load i64, ptr %_1, align 8, !dbg !1488, !range !1489, !noundef !23
  %0 = icmp eq i64 %_2, 0, !dbg !1488
  br i1 %0, label %bb1, label %bb2, !dbg !1488

bb1:                                              ; preds = %bb2, %start
  ret void, !dbg !1488

bb2:                                              ; preds = %start
  %1 = getelementptr inbounds %"core::result::Result<usize, std::io::error::Error>::Err", ptr %_1, i32 0, i32 1, !dbg !1488
; call core::ptr::drop_in_place<std::io::error::Error>
  call void @"_ZN4core3ptr42drop_in_place$LT$std..io..error..Error$GT$17ha4cfa9cba394758cE"(ptr align 8 %1), !dbg !1488
  br label %bb1, !dbg !1488
}

; core::ptr::drop_in_place<std::rt::lang_start<()>::{{closure}}>
; Function Attrs: inlinehint nonlazybind uwtable
define internal void @"_ZN4core3ptr85drop_in_place$LT$std..rt..lang_start$LT$$LP$$RP$$GT$..$u7b$$u7b$closure$u7d$$u7d$$GT$17h82d6233144d8f609E"(ptr align 8 %_1) unnamed_addr #2 !dbg !1490 {
start:
  %_1.dbg.spill = alloca ptr, align 8
  store ptr %_1, ptr %_1.dbg.spill, align 8
  call void @llvm.dbg.declare(metadata ptr %_1.dbg.spill, metadata !1494, metadata !DIExpression()), !dbg !1497
  ret void, !dbg !1497
}

; core::ptr::drop_in_place<dyn core::error::Error+core::marker::Send+core::marker::Sync>
; Function Attrs: nonlazybind uwtable
define internal void @"_ZN4core3ptr93drop_in_place$LT$dyn$u20$core..error..Error$u2b$core..marker..Send$u2b$core..marker..Sync$GT$17hb40e6bedcdba4b4dE"(ptr align 1 %_1.0, ptr align 8 %_1.1) unnamed_addr #0 !dbg !1498 {
start:
  %_1.dbg.spill = alloca { ptr, ptr }, align 8
  store ptr %_1.0, ptr %_1.dbg.spill, align 8
  %0 = getelementptr inbounds i8, ptr %_1.dbg.spill, i64 8
  store ptr %_1.1, ptr %0, align 8
  call void @llvm.dbg.declare(metadata ptr %_1.dbg.spill, metadata !1506, metadata !DIExpression()), !dbg !1509
  %1 = getelementptr inbounds ptr, ptr %_1.1, i64 0, !dbg !1509
  %2 = load ptr, ptr %1, align 8, !dbg !1509, !invariant.load !23, !nonnull !23
  call void %2(ptr align 1 %_1.0), !dbg !1509
  ret void, !dbg !1509
}

; core::alloc::layout::Layout::array::inner
; Function Attrs: inlinehint nonlazybind uwtable
define internal { i64, i64 } @_ZN4core5alloc6layout6Layout5array5inner17h99dd24d1fa276847E(i64 %element_size, i64 %align, i64 %n) unnamed_addr #2 !dbg !1510 {
start:
  %align.dbg.spill1 = alloca i64, align 8
  %array_size.dbg.spill = alloca i64, align 8
  %n.dbg.spill = alloca i64, align 8
  %align.dbg.spill = alloca i64, align 8
  %element_size.dbg.spill = alloca i64, align 8
  %_18 = alloca i64, align 8
  %_13 = alloca i64, align 8
  %_9 = alloca %"core::alloc::layout::Layout", align 8
  %_0 = alloca %"core::result::Result<core::alloc::layout::Layout, core::alloc::layout::LayoutError>", align 8
  store i64 %element_size, ptr %element_size.dbg.spill, align 8
  call void @llvm.dbg.declare(metadata ptr %element_size.dbg.spill, metadata !1543, metadata !DIExpression()), !dbg !1548
  call void @llvm.dbg.declare(metadata ptr %element_size.dbg.spill, metadata !1549, metadata !DIExpression()), !dbg !1559
  store i64 %align, ptr %align.dbg.spill, align 8
  call void @llvm.dbg.declare(metadata ptr %align.dbg.spill, metadata !1544, metadata !DIExpression()), !dbg !1561
  call void @llvm.dbg.declare(metadata ptr %align.dbg.spill, metadata !1562, metadata !DIExpression()), !dbg !1569
  call void @llvm.dbg.declare(metadata ptr %align.dbg.spill, metadata !1571, metadata !DIExpression()), !dbg !1579
  call void @llvm.dbg.declare(metadata ptr %align.dbg.spill, metadata !1577, metadata !DIExpression()), !dbg !1581
  store i64 %n, ptr %n.dbg.spill, align 8
  call void @llvm.dbg.declare(metadata ptr %n.dbg.spill, metadata !1545, metadata !DIExpression()), !dbg !1583
  call void @llvm.dbg.declare(metadata ptr %n.dbg.spill, metadata !1558, metadata !DIExpression()), !dbg !1559
  %0 = icmp eq i64 %element_size, 0, !dbg !1584
  br i1 %0, label %bb5, label %bb1, !dbg !1584

bb5:                                              ; preds = %bb4, %start
  %array_size = mul nuw i64 %element_size, %n, !dbg !1559
  store i64 %array_size, ptr %array_size.dbg.spill, align 8, !dbg !1559
  call void @llvm.dbg.declare(metadata ptr %array_size.dbg.spill, metadata !1546, metadata !DIExpression()), !dbg !1585
  call void @llvm.dbg.declare(metadata ptr %array_size.dbg.spill, metadata !1586, metadata !DIExpression()), !dbg !1594
  store i64 %align, ptr %_18, align 8, !dbg !1596
  %_19 = load i64, ptr %_18, align 8, !dbg !1596, !range !1597, !noundef !23
  %_20 = icmp uge i64 %_19, 1, !dbg !1596
  %_21 = icmp ule i64 %_19, -9223372036854775808, !dbg !1596
  %_22 = and i1 %_20, %_21, !dbg !1596
  call void @llvm.assume(i1 %_22), !dbg !1596
  store i64 %_19, ptr %align.dbg.spill1, align 8, !dbg !1596
  call void @llvm.dbg.declare(metadata ptr %align.dbg.spill1, metadata !1593, metadata !DIExpression()), !dbg !1598
  call void @llvm.dbg.declare(metadata ptr %align.dbg.spill1, metadata !1599, metadata !DIExpression()), !dbg !1606
  %1 = getelementptr inbounds i8, ptr %_9, i64 8, !dbg !1608
  store i64 %array_size, ptr %1, align 8, !dbg !1608
  store i64 %_19, ptr %_9, align 8, !dbg !1608
  %2 = load i64, ptr %_9, align 8, !dbg !1609, !range !1597, !noundef !23
  %3 = getelementptr inbounds i8, ptr %_9, i64 8, !dbg !1609
  %4 = load i64, ptr %3, align 8, !dbg !1609, !noundef !23
  store i64 %2, ptr %_0, align 8, !dbg !1609
  %5 = getelementptr inbounds i8, ptr %_0, i64 8, !dbg !1609
  store i64 %4, ptr %5, align 8, !dbg !1609
  br label %bb6, !dbg !1610

bb1:                                              ; preds = %start
  store i64 %align, ptr %_13, align 8, !dbg !1611
  %_14 = load i64, ptr %_13, align 8, !dbg !1611, !range !1597, !noundef !23
  %_15 = icmp uge i64 %_14, 1, !dbg !1611
  %_16 = icmp ule i64 %_14, -9223372036854775808, !dbg !1611
  %_17 = and i1 %_15, %_16, !dbg !1611
  call void @llvm.assume(i1 %_17), !dbg !1611
  %_11 = sub i64 %_14, 1, !dbg !1612
  %_6 = sub i64 9223372036854775807, %_11, !dbg !1613
  %_7 = icmp eq i64 %element_size, 0, !dbg !1570
  %6 = call i1 @llvm.expect.i1(i1 %_7, i1 false), !dbg !1570
  br i1 %6, label %panic, label %bb2, !dbg !1570

bb2:                                              ; preds = %bb1
  %_5 = udiv i64 %_6, %element_size, !dbg !1570
  %_4 = icmp ugt i64 %n, %_5, !dbg !1614
  br i1 %_4, label %bb3, label %bb4, !dbg !1614

panic:                                            ; preds = %bb1
; call core::panicking::panic
  call void @_ZN4core9panicking5panic17h59297120e85ea178E(ptr align 1 @str.1, i64 25, ptr align 8 @alloc_37f08cc86d215bcabda8bef18acdfc7b) #18, !dbg !1570
  unreachable, !dbg !1570

bb4:                                              ; preds = %bb2
  br label %bb5, !dbg !1615

bb3:                                              ; preds = %bb2
  %7 = load i64, ptr @2, align 8, !dbg !1618, !range !1619, !noundef !23
  %8 = load i64, ptr getelementptr inbounds (i8, ptr @2, i64 8), align 8, !dbg !1618
  store i64 %7, ptr %_0, align 8, !dbg !1618
  %9 = getelementptr inbounds i8, ptr %_0, i64 8, !dbg !1618
  store i64 %8, ptr %9, align 8, !dbg !1618
  br label %bb6, !dbg !1610

bb6:                                              ; preds = %bb3, %bb5
  %10 = load i64, ptr %_0, align 8, !dbg !1610, !range !1619, !noundef !23
  %11 = getelementptr inbounds i8, ptr %_0, i64 8, !dbg !1610
  %12 = load i64, ptr %11, align 8, !dbg !1610
  %13 = insertvalue { i64, i64 } poison, i64 %10, 0, !dbg !1610
  %14 = insertvalue { i64, i64 } %13, i64 %12, 1, !dbg !1610
  ret { i64, i64 } %14, !dbg !1610
}

; core::result::Result<T,E>::map_err
; Function Attrs: inlinehint nonlazybind uwtable
define internal void @"_ZN4core6result19Result$LT$T$C$E$GT$7map_err17h19504f3f078b75deE"(ptr sret(%"core::result::Result<core::alloc::layout::Layout, alloc::collections::TryReserveErrorKind>") align 8 %_0, i64 %0, i64 %1) unnamed_addr #2 !dbg !1620 {
start:
  %t.dbg.spill = alloca %"core::alloc::layout::Layout", align 8
  %e.dbg.spill = alloca %"core::alloc::layout::LayoutError", align 1
  %op.dbg.spill = alloca %"{closure@alloc::raw_vec::finish_grow<alloc::alloc::Global>::{closure#0}}", align 1
  %_9 = alloca i8, align 1
  %self = alloca %"core::result::Result<core::alloc::layout::Layout, core::alloc::layout::LayoutError>", align 8
  store i64 %0, ptr %self, align 8
  %2 = getelementptr inbounds i8, ptr %self, i64 8
  store i64 %1, ptr %2, align 8
  call void @llvm.dbg.declare(metadata ptr %self, metadata !1659, metadata !DIExpression()), !dbg !1665
  call void @llvm.dbg.declare(metadata ptr %op.dbg.spill, metadata !1660, metadata !DIExpression()), !dbg !1666
  call void @llvm.dbg.declare(metadata ptr %e.dbg.spill, metadata !1663, metadata !DIExpression()), !dbg !1667
  store i8 1, ptr %_9, align 1, !dbg !1668
  %3 = load i64, ptr %self, align 8, !dbg !1668, !range !1619, !noundef !23
  %4 = icmp eq i64 %3, 0, !dbg !1668
  %_3 = select i1 %4, i64 1, i64 0, !dbg !1668
  %5 = icmp eq i64 %_3, 0, !dbg !1669
  br i1 %5, label %bb3, label %bb1, !dbg !1669

bb3:                                              ; preds = %start
  %t.0 = load i64, ptr %self, align 8, !dbg !1670, !range !1597, !noundef !23
  %6 = getelementptr inbounds i8, ptr %self, i64 8, !dbg !1670
  %t.1 = load i64, ptr %6, align 8, !dbg !1670, !noundef !23
  store i64 %t.0, ptr %t.dbg.spill, align 8, !dbg !1670
  %7 = getelementptr inbounds i8, ptr %t.dbg.spill, i64 8, !dbg !1670
  store i64 %t.1, ptr %7, align 8, !dbg !1670
  call void @llvm.dbg.declare(metadata ptr %t.dbg.spill, metadata !1661, metadata !DIExpression()), !dbg !1671
  %8 = getelementptr inbounds %"core::result::Result<core::alloc::layout::Layout, alloc::collections::TryReserveErrorKind>::Ok", ptr %_0, i32 0, i32 1, !dbg !1672
  store i64 %t.0, ptr %8, align 8, !dbg !1672
  %9 = getelementptr inbounds i8, ptr %8, i64 8, !dbg !1672
  store i64 %t.1, ptr %9, align 8, !dbg !1672
  store i64 0, ptr %_0, align 8, !dbg !1672
  br label %bb7, !dbg !1673

bb1:                                              ; preds = %start
  store i8 0, ptr %_9, align 1, !dbg !1674
; call alloc::raw_vec::finish_grow::{{closure}}
  %10 = call { i64, i64 } @"_ZN5alloc7raw_vec11finish_grow28_$u7b$$u7b$closure$u7d$$u7d$17h7bbc647a1d959284E"(), !dbg !1674
  %_6.0 = extractvalue { i64, i64 } %10, 0, !dbg !1674
  %_6.1 = extractvalue { i64, i64 } %10, 1, !dbg !1674
  %11 = getelementptr inbounds %"core::result::Result<core::alloc::layout::Layout, alloc::collections::TryReserveErrorKind>::Err", ptr %_0, i32 0, i32 1, !dbg !1675
  store i64 %_6.0, ptr %11, align 8, !dbg !1675
  %12 = getelementptr inbounds i8, ptr %11, i64 8, !dbg !1675
  store i64 %_6.1, ptr %12, align 8, !dbg !1675
  store i64 1, ptr %_0, align 8, !dbg !1675
  br label %bb7, !dbg !1676

bb7:                                              ; preds = %bb1, %bb3
  %13 = load i8, ptr %_9, align 1, !dbg !1677, !range !997, !noundef !23
  %14 = trunc i8 %13 to i1, !dbg !1677
  br i1 %14, label %bb6, label %bb5, !dbg !1677

bb5:                                              ; preds = %bb6, %bb7
  ret void, !dbg !1678

bb6:                                              ; preds = %bb7
  br label %bb5, !dbg !1677

bb2:                                              ; No predecessors!
  unreachable, !dbg !1668
}

; core::result::Result<T,E>::map_err
; Function Attrs: inlinehint nonlazybind uwtable
define internal void @"_ZN4core6result19Result$LT$T$C$E$GT$7map_err17h8547d214656065b3E"(ptr sret(%"core::result::Result<core::ptr::non_null::NonNull<[u8]>, alloc::collections::TryReserveError>") align 8 %_0, ptr %0, i64 %1, ptr align 8 %op) unnamed_addr #2 !dbg !1679 {
start:
  %t.dbg.spill = alloca %"core::ptr::non_null::NonNull<[u8]>", align 8
  %e.dbg.spill = alloca %"core::alloc::AllocError", align 1
  %op.dbg.spill = alloca ptr, align 8
  %_9 = alloca i8, align 1
  %self = alloca %"core::result::Result<core::ptr::non_null::NonNull<[u8]>, core::alloc::AllocError>", align 8
  store ptr %0, ptr %self, align 8
  %2 = getelementptr inbounds i8, ptr %self, i64 8
  store i64 %1, ptr %2, align 8
  call void @llvm.dbg.declare(metadata ptr %self, metadata !1729, metadata !DIExpression()), !dbg !1735
  store ptr %op, ptr %op.dbg.spill, align 8
  call void @llvm.dbg.declare(metadata ptr %op.dbg.spill, metadata !1730, metadata !DIExpression()), !dbg !1736
  call void @llvm.dbg.declare(metadata ptr %e.dbg.spill, metadata !1733, metadata !DIExpression()), !dbg !1737
  store i8 1, ptr %_9, align 1, !dbg !1738
  %3 = load ptr, ptr %self, align 8, !dbg !1738, !noundef !23
  %4 = ptrtoint ptr %3 to i64, !dbg !1738
  %5 = icmp eq i64 %4, 0, !dbg !1738
  %_3 = select i1 %5, i64 1, i64 0, !dbg !1738
  %6 = icmp eq i64 %_3, 0, !dbg !1739
  br i1 %6, label %bb3, label %bb1, !dbg !1739

bb3:                                              ; preds = %start
  %t.0 = load ptr, ptr %self, align 8, !dbg !1740, !nonnull !23, !noundef !23
  %7 = getelementptr inbounds i8, ptr %self, i64 8, !dbg !1740
  %t.1 = load i64, ptr %7, align 8, !dbg !1740, !noundef !23
  store ptr %t.0, ptr %t.dbg.spill, align 8, !dbg !1740
  %8 = getelementptr inbounds i8, ptr %t.dbg.spill, i64 8, !dbg !1740
  store i64 %t.1, ptr %8, align 8, !dbg !1740
  call void @llvm.dbg.declare(metadata ptr %t.dbg.spill, metadata !1731, metadata !DIExpression()), !dbg !1741
  %9 = getelementptr inbounds %"core::result::Result<core::ptr::non_null::NonNull<[u8]>, alloc::collections::TryReserveError>::Ok", ptr %_0, i32 0, i32 1, !dbg !1742
  store ptr %t.0, ptr %9, align 8, !dbg !1742
  %10 = getelementptr inbounds i8, ptr %9, i64 8, !dbg !1742
  store i64 %t.1, ptr %10, align 8, !dbg !1742
  store i64 0, ptr %_0, align 8, !dbg !1742
  br label %bb7, !dbg !1743

bb1:                                              ; preds = %start
  store i8 0, ptr %_9, align 1, !dbg !1744
; call alloc::raw_vec::finish_grow::{{closure}}
  %11 = call { i64, i64 } @"_ZN5alloc7raw_vec11finish_grow28_$u7b$$u7b$closure$u7d$$u7d$17h31ea093d51572a52E"(ptr align 8 %op), !dbg !1744
  %_6.0 = extractvalue { i64, i64 } %11, 0, !dbg !1744
  %_6.1 = extractvalue { i64, i64 } %11, 1, !dbg !1744
  %12 = getelementptr inbounds %"core::result::Result<core::ptr::non_null::NonNull<[u8]>, alloc::collections::TryReserveError>::Err", ptr %_0, i32 0, i32 1, !dbg !1745
  store i64 %_6.0, ptr %12, align 8, !dbg !1745
  %13 = getelementptr inbounds i8, ptr %12, i64 8, !dbg !1745
  store i64 %_6.1, ptr %13, align 8, !dbg !1745
  store i64 1, ptr %_0, align 8, !dbg !1745
  br label %bb7, !dbg !1746

bb7:                                              ; preds = %bb1, %bb3
  %14 = load i8, ptr %_9, align 1, !dbg !1747, !range !997, !noundef !23
  %15 = trunc i8 %14 to i1, !dbg !1747
  br i1 %15, label %bb6, label %bb5, !dbg !1747

bb5:                                              ; preds = %bb6, %bb7
  ret void, !dbg !1748

bb6:                                              ; preds = %bb7
  br label %bb5, !dbg !1747

bb2:                                              ; No predecessors!
  unreachable, !dbg !1738
}

; core::result::Result<T,E>::map_err
; Function Attrs: inlinehint nonlazybind uwtable
define internal { i64, i64 } @"_ZN4core6result19Result$LT$T$C$E$GT$7map_err17hc090a3a48f6bee32E"(i64 %0, i64 %1) unnamed_addr #2 !dbg !1749 {
start:
  %e.dbg.spill = alloca %"alloc::collections::TryReserveError", align 8
  %t.dbg.spill = alloca {}, align 1
  %op.dbg.spill = alloca %"{closure@alloc::raw_vec::handle_reserve::{closure#0}}", align 1
  %_9 = alloca i8, align 1
  %_8 = alloca { %"alloc::collections::TryReserveError" }, align 8
  %_0 = alloca %"core::result::Result<(), alloc::collections::TryReserveErrorKind>", align 8
  %self = alloca %"core::result::Result<(), alloc::collections::TryReserveError>", align 8
  store i64 %0, ptr %self, align 8
  %2 = getelementptr inbounds i8, ptr %self, i64 8
  store i64 %1, ptr %2, align 8
  call void @llvm.dbg.declare(metadata ptr %self, metadata !1786, metadata !DIExpression()), !dbg !1792
  call void @llvm.dbg.declare(metadata ptr %op.dbg.spill, metadata !1787, metadata !DIExpression()), !dbg !1793
  call void @llvm.dbg.declare(metadata ptr %t.dbg.spill, metadata !1788, metadata !DIExpression()), !dbg !1794
  store i8 1, ptr %_9, align 1, !dbg !1795
  %3 = load i64, ptr %self, align 8, !dbg !1795, !range !1796, !noundef !23
  %4 = icmp eq i64 %3, -9223372036854775807, !dbg !1795
  %_3 = select i1 %4, i64 0, i64 1, !dbg !1795
  %5 = icmp eq i64 %_3, 0, !dbg !1797
  br i1 %5, label %bb3, label %bb1, !dbg !1797

bb3:                                              ; preds = %start
  store i64 -9223372036854775807, ptr %_0, align 8, !dbg !1798
  br label %bb7, !dbg !1799

bb1:                                              ; preds = %start
  %e.0 = load i64, ptr %self, align 8, !dbg !1800, !range !1619, !noundef !23
  %6 = getelementptr inbounds i8, ptr %self, i64 8, !dbg !1800
  %e.1 = load i64, ptr %6, align 8, !dbg !1800
  store i64 %e.0, ptr %e.dbg.spill, align 8, !dbg !1800
  %7 = getelementptr inbounds i8, ptr %e.dbg.spill, i64 8, !dbg !1800
  store i64 %e.1, ptr %7, align 8, !dbg !1800
  call void @llvm.dbg.declare(metadata ptr %e.dbg.spill, metadata !1790, metadata !DIExpression()), !dbg !1801
  store i8 0, ptr %_9, align 1, !dbg !1802
  store i64 %e.0, ptr %_8, align 8, !dbg !1802
  %8 = getelementptr inbounds i8, ptr %_8, i64 8, !dbg !1802
  store i64 %e.1, ptr %8, align 8, !dbg !1802
  %9 = load i64, ptr %_8, align 8, !dbg !1802, !range !1619, !noundef !23
  %10 = getelementptr inbounds i8, ptr %_8, i64 8, !dbg !1802
  %11 = load i64, ptr %10, align 8, !dbg !1802
; call alloc::raw_vec::handle_reserve::{{closure}}
  %12 = call { i64, i64 } @"_ZN5alloc7raw_vec14handle_reserve28_$u7b$$u7b$closure$u7d$$u7d$17he65b39bc72fde40eE"(i64 %9, i64 %11), !dbg !1802
  %_6.0 = extractvalue { i64, i64 } %12, 0, !dbg !1802
  %_6.1 = extractvalue { i64, i64 } %12, 1, !dbg !1802
  store i64 %_6.0, ptr %_0, align 8, !dbg !1803
  %13 = getelementptr inbounds i8, ptr %_0, i64 8, !dbg !1803
  store i64 %_6.1, ptr %13, align 8, !dbg !1803
  br label %bb7, !dbg !1804

bb7:                                              ; preds = %bb1, %bb3
  %14 = load i8, ptr %_9, align 1, !dbg !1805, !range !997, !noundef !23
  %15 = trunc i8 %14 to i1, !dbg !1805
  br i1 %15, label %bb6, label %bb5, !dbg !1805

bb5:                                              ; preds = %bb6, %bb7
  %16 = load i64, ptr %_0, align 8, !dbg !1806, !range !1796, !noundef !23
  %17 = getelementptr inbounds i8, ptr %_0, i64 8, !dbg !1806
  %18 = load i64, ptr %17, align 8, !dbg !1806
  %19 = insertvalue { i64, i64 } poison, i64 %16, 0, !dbg !1806
  %20 = insertvalue { i64, i64 } %19, i64 %18, 1, !dbg !1806
  ret { i64, i64 } %20, !dbg !1806

bb6:                                              ; preds = %bb7
  br label %bb5, !dbg !1805

bb2:                                              ; No predecessors!
  unreachable, !dbg !1795
}

; <() as std::process::Termination>::report
; Function Attrs: inlinehint nonlazybind uwtable
define internal i8 @"_ZN54_$LT$$LP$$RP$$u20$as$u20$std..process..Termination$GT$6report17hf108e1079e9a247dE"() unnamed_addr #2 !dbg !1807 {
start:
  %_1.dbg.spill = alloca {}, align 1
  %self.dbg.spill = alloca {}, align 1
  call void @llvm.dbg.declare(metadata ptr %self.dbg.spill, metadata !1812, metadata !DIExpression()), !dbg !1814
  call void @llvm.dbg.declare(metadata ptr %_1.dbg.spill, metadata !1813, metadata !DIExpression()), !dbg !1814
  ret i8 0, !dbg !1815
}

; alloc::str::<impl alloc::borrow::ToOwned for str>::to_owned
; Function Attrs: inlinehint nonlazybind uwtable
define internal void @"_ZN5alloc3str56_$LT$impl$u20$alloc..borrow..ToOwned$u20$for$u20$str$GT$8to_owned17hc511639c3bb9b4c8E"(ptr sret(%"alloc::string::String") align 8 %_0, ptr align 1 %self.0, i64 %self.1) unnamed_addr #2 !dbg !1816 {
start:
  %self.dbg.spill10 = alloca ptr, align 8
  %dest.dbg.spill = alloca ptr, align 8
  %self.dbg.spill9 = alloca ptr, align 8
  %self.dbg.spill8 = alloca ptr, align 8
  %self.dbg.spill7 = alloca ptr, align 8
  %self.dbg.spill6 = alloca ptr, align 8
  %capacity.dbg.spill = alloca i64, align 8
  %self.dbg.spill5 = alloca { ptr, i64 }, align 8
  %self.dbg.spill = alloca { ptr, i64 }, align 8
  %v = alloca %"alloc::vec::Vec<u8>", align 8
  %bytes = alloca %"alloc::vec::Vec<u8>", align 8
  %alloc.dbg.spill4 = alloca %"alloc::alloc::Global", align 1
  %alloc.dbg.spill3 = alloca %"alloc::alloc::Global", align 1
  %alloc.dbg.spill2 = alloca %"alloc::alloc::Global", align 1
  %alloc.dbg.spill1 = alloca %"alloc::alloc::Global", align 1
  %alloc.dbg.spill = alloca %"alloc::alloc::Global", align 1
  call void @llvm.dbg.declare(metadata ptr %alloc.dbg.spill, metadata !1824, metadata !DIExpression()), !dbg !1834
  call void @llvm.dbg.declare(metadata ptr %alloc.dbg.spill1, metadata !1849, metadata !DIExpression()), !dbg !1855
  call void @llvm.dbg.declare(metadata ptr %alloc.dbg.spill2, metadata !1857, metadata !DIExpression()), !dbg !1865
  call void @llvm.dbg.declare(metadata ptr %alloc.dbg.spill3, metadata !1867, metadata !DIExpression()), !dbg !1875
  call void @llvm.dbg.declare(metadata ptr %alloc.dbg.spill4, metadata !1877, metadata !DIExpression()), !dbg !1885
  store ptr %self.0, ptr %self.dbg.spill, align 8, !dbg !1885
  %0 = getelementptr inbounds i8, ptr %self.dbg.spill, i64 8, !dbg !1885
  store i64 %self.1, ptr %0, align 8, !dbg !1885
  call void @llvm.dbg.declare(metadata ptr %self.dbg.spill, metadata !1823, metadata !DIExpression()), !dbg !1887
  call void @llvm.dbg.declare(metadata ptr %self.dbg.spill, metadata !1888, metadata !DIExpression()), !dbg !1897
  call void @llvm.dbg.declare(metadata ptr %bytes, metadata !1899, metadata !DIExpression()), !dbg !1907
  call void @llvm.dbg.declare(metadata ptr %v, metadata !1863, metadata !DIExpression()), !dbg !1909
  store ptr %self.0, ptr %self.dbg.spill5, align 8, !dbg !1910
  %1 = getelementptr inbounds i8, ptr %self.dbg.spill5, i64 8, !dbg !1910
  store i64 %self.1, ptr %1, align 8, !dbg !1910
  call void @llvm.dbg.declare(metadata ptr %self.dbg.spill5, metadata !1847, metadata !DIExpression()), !dbg !1911
  call void @llvm.dbg.declare(metadata ptr %self.dbg.spill5, metadata !1841, metadata !DIExpression()), !dbg !1912
  call void @llvm.dbg.declare(metadata ptr %self.dbg.spill5, metadata !1833, metadata !DIExpression()), !dbg !1913
  call void @llvm.dbg.declare(metadata ptr %self.dbg.spill5, metadata !1854, metadata !DIExpression()), !dbg !1914
  call void @llvm.dbg.declare(metadata ptr %self.dbg.spill5, metadata !1862, metadata !DIExpression()), !dbg !1915
  call void @llvm.dbg.declare(metadata ptr %self.dbg.spill5, metadata !1916, metadata !DIExpression()), !dbg !1924
  store i64 %self.1, ptr %capacity.dbg.spill, align 8, !dbg !1926
  call void @llvm.dbg.declare(metadata ptr %capacity.dbg.spill, metadata !1874, metadata !DIExpression()), !dbg !1927
  call void @llvm.dbg.declare(metadata ptr %capacity.dbg.spill, metadata !1884, metadata !DIExpression()), !dbg !1928
  call void @llvm.dbg.declare(metadata ptr %capacity.dbg.spill, metadata !1929, metadata !DIExpression()), !dbg !1935
  call void @llvm.dbg.declare(metadata ptr %capacity.dbg.spill, metadata !1937, metadata !DIExpression()), !dbg !1943
  call void @llvm.dbg.declare(metadata ptr %capacity.dbg.spill, metadata !1945, metadata !DIExpression()), !dbg !1953
; call alloc::raw_vec::RawVec<T,A>::allocate_in
  %2 = call { i64, ptr } @"_ZN5alloc7raw_vec19RawVec$LT$T$C$A$GT$11allocate_in17h28be76b99c1b3e3aE"(i64 %self.1, i1 zeroext false), !dbg !1955
  %_10.0 = extractvalue { i64, ptr } %2, 0, !dbg !1955
  %_10.1 = extractvalue { i64, ptr } %2, 1, !dbg !1955
  store i64 %_10.0, ptr %v, align 8, !dbg !1956
  %3 = getelementptr inbounds i8, ptr %v, i64 8, !dbg !1956
  store ptr %_10.1, ptr %3, align 8, !dbg !1956
  %4 = getelementptr inbounds %"alloc::vec::Vec<u8>", ptr %v, i32 0, i32 1, !dbg !1956
  store i64 0, ptr %4, align 8, !dbg !1956
  store ptr %self.0, ptr %self.dbg.spill6, align 8, !dbg !1957
  call void @llvm.dbg.declare(metadata ptr %self.dbg.spill6, metadata !1933, metadata !DIExpression()), !dbg !1958
  call void @llvm.dbg.declare(metadata ptr %self.dbg.spill6, metadata !1941, metadata !DIExpression()), !dbg !1959
  store ptr %v, ptr %self.dbg.spill7, align 8, !dbg !1960
  call void @llvm.dbg.declare(metadata ptr %self.dbg.spill7, metadata !1961, metadata !DIExpression()), !dbg !1965
  store ptr %v, ptr %self.dbg.spill8, align 8, !dbg !1967
  call void @llvm.dbg.declare(metadata ptr %self.dbg.spill8, metadata !1968, metadata !DIExpression()), !dbg !1972
  %5 = getelementptr inbounds i8, ptr %v, i64 8, !dbg !1974
  %self = load ptr, ptr %5, align 8, !dbg !1974, !nonnull !23, !noundef !23
  store ptr %self, ptr %self.dbg.spill9, align 8, !dbg !1974
  call void @llvm.dbg.declare(metadata ptr %self.dbg.spill9, metadata !1975, metadata !DIExpression()), !dbg !1979
  call void @llvm.dbg.declare(metadata ptr %self.dbg.spill9, metadata !1981, metadata !DIExpression()), !dbg !1985
  store ptr %self, ptr %dest.dbg.spill, align 8, !dbg !1987
  call void @llvm.dbg.declare(metadata ptr %dest.dbg.spill, metadata !1934, metadata !DIExpression()), !dbg !1988
  call void @llvm.dbg.declare(metadata ptr %dest.dbg.spill, metadata !1942, metadata !DIExpression()), !dbg !1989
  %6 = mul i64 %self.1, 1, !dbg !1990
  call void @llvm.memcpy.p0.p0.i64(ptr align 1 %self, ptr align 1 %self.0, i64 %6, i1 false), !dbg !1990
  store ptr %v, ptr %self.dbg.spill10, align 8, !dbg !1991
  call void @llvm.dbg.declare(metadata ptr %self.dbg.spill10, metadata !1952, metadata !DIExpression()), !dbg !1992
  call void @llvm.dbg.declare(metadata ptr %self.dbg.spill10, metadata !1993, metadata !DIExpression()), !dbg !1998
  %7 = getelementptr inbounds %"alloc::vec::Vec<u8>", ptr %v, i32 0, i32 1, !dbg !2000
  store i64 %self.1, ptr %7, align 8, !dbg !2000
  call void @llvm.memcpy.p0.p0.i64(ptr align 8 %bytes, ptr align 8 %v, i64 24, i1 false), !dbg !2001
  call void @llvm.memcpy.p0.p0.i64(ptr align 8 %_0, ptr align 8 %bytes, i64 24, i1 false), !dbg !2002
  ret void, !dbg !2003
}

; alloc::vec::Vec<T,A>::extend_from_slice
; Function Attrs: nonlazybind uwtable
define internal void @"_ZN5alloc3vec16Vec$LT$T$C$A$GT$17extend_from_slice17hc43825e3a272cdc2E"(ptr align 8 %self, ptr align 1 %other.0, i64 %other.1) unnamed_addr #0 !dbg !2004 {
start:
  %ptr.dbg.spill1 = alloca ptr, align 8
  %addr.dbg.spill = alloca i64, align 8
  %count.dbg.spill = alloca i64, align 8
  %ptr.dbg.spill = alloca ptr, align 8
  %other.dbg.spill = alloca { ptr, i64 }, align 8
  %self.dbg.spill = alloca ptr, align 8
  %_9 = alloca ptr, align 8
  %end_or_len = alloca ptr, align 8
  %_3 = alloca %"core::slice::iter::Iter<'_, u8>", align 8
  store ptr %self, ptr %self.dbg.spill, align 8
  call void @llvm.dbg.declare(metadata ptr %self.dbg.spill, metadata !2009, metadata !DIExpression()), !dbg !2011
  store ptr %other.0, ptr %other.dbg.spill, align 8
  %0 = getelementptr inbounds i8, ptr %other.dbg.spill, i64 8
  store i64 %other.1, ptr %0, align 8
  call void @llvm.dbg.declare(metadata ptr %other.dbg.spill, metadata !2010, metadata !DIExpression()), !dbg !2012
  call void @llvm.dbg.declare(metadata ptr %other.dbg.spill, metadata !2013, metadata !DIExpression()), !dbg !2019
  call void @llvm.dbg.declare(metadata ptr %other.dbg.spill, metadata !2021, metadata !DIExpression()), !dbg !2030
  call void @llvm.dbg.declare(metadata ptr %other.dbg.spill, metadata !2032, metadata !DIExpression()), !dbg !2036
  call void @llvm.dbg.declare(metadata ptr %end_or_len, metadata !2028, metadata !DIExpression()), !dbg !2038
  store ptr %other.0, ptr %ptr.dbg.spill, align 8, !dbg !2039
  call void @llvm.dbg.declare(metadata ptr %ptr.dbg.spill, metadata !2026, metadata !DIExpression()), !dbg !2040
  call void @llvm.dbg.declare(metadata ptr %ptr.dbg.spill, metadata !2041, metadata !DIExpression()), !dbg !2048
  br i1 false, label %bb2, label %bb3, !dbg !2050

bb3:                                              ; preds = %start
  store i64 %other.1, ptr %count.dbg.spill, align 8, !dbg !2051
  call void @llvm.dbg.declare(metadata ptr %count.dbg.spill, metadata !2047, metadata !DIExpression()), !dbg !2052
  %1 = getelementptr inbounds i8, ptr %other.0, i64 %other.1, !dbg !2053
  store ptr %1, ptr %end_or_len, align 8, !dbg !2053
  br label %bb4, !dbg !2054

bb2:                                              ; preds = %start
  store i64 %other.1, ptr %addr.dbg.spill, align 8, !dbg !2055
  call void @llvm.dbg.declare(metadata ptr %addr.dbg.spill, metadata !2056, metadata !DIExpression()), !dbg !2062
  %2 = inttoptr i64 %other.1 to ptr, !dbg !2064
  store ptr %2, ptr %end_or_len, align 8, !dbg !2064
  br label %bb4, !dbg !2054

bb4:                                              ; preds = %bb2, %bb3
  store ptr %other.0, ptr %ptr.dbg.spill1, align 8, !dbg !2065
  call void @llvm.dbg.declare(metadata ptr %ptr.dbg.spill1, metadata !2066, metadata !DIExpression()), !dbg !2073
  store ptr %other.0, ptr %_9, align 8, !dbg !2075
  %_11 = load ptr, ptr %end_or_len, align 8, !dbg !2076, !noundef !23
  %3 = load ptr, ptr %_9, align 8, !dbg !2077, !nonnull !23, !noundef !23
  store ptr %3, ptr %_3, align 8, !dbg !2077
  %4 = getelementptr inbounds i8, ptr %_3, i64 8, !dbg !2077
  store ptr %_11, ptr %4, align 8, !dbg !2077
  %5 = load ptr, ptr %_3, align 8, !dbg !2078, !nonnull !23, !noundef !23
  %6 = getelementptr inbounds i8, ptr %_3, i64 8, !dbg !2078
  %7 = load ptr, ptr %6, align 8, !dbg !2078, !noundef !23
; call <alloc::vec::Vec<T,A> as alloc::vec::spec_extend::SpecExtend<&T,core::slice::iter::Iter<T>>>::spec_extend
  call void @"_ZN132_$LT$alloc..vec..Vec$LT$T$C$A$GT$$u20$as$u20$alloc..vec..spec_extend..SpecExtend$LT$$RF$T$C$core..slice..iter..Iter$LT$T$GT$$GT$$GT$11spec_extend17h5e3339c501d8de86E"(ptr align 8 %self, ptr %5, ptr %7), !dbg !2078
  ret void, !dbg !2079
}

; alloc::vec::Vec<T,A>::reserve
; Function Attrs: nonlazybind uwtable
define internal void @"_ZN5alloc3vec16Vec$LT$T$C$A$GT$7reserve17hc1e4165acaee4a76E"(ptr align 8 %self, i64 %additional) unnamed_addr #0 !dbg !2080 {
start:
  %len.dbg.spill = alloca i64, align 8
  %self.dbg.spill2 = alloca ptr, align 8
  %additional.dbg.spill = alloca i64, align 8
  %self.dbg.spill = alloca ptr, align 8
  %self1 = alloca i64, align 8
  store ptr %self, ptr %self.dbg.spill, align 8
  call void @llvm.dbg.declare(metadata ptr %self.dbg.spill, metadata !2083, metadata !DIExpression()), !dbg !2085
  store i64 %additional, ptr %additional.dbg.spill, align 8
  call void @llvm.dbg.declare(metadata ptr %additional.dbg.spill, metadata !2084, metadata !DIExpression()), !dbg !2086
  call void @llvm.dbg.declare(metadata ptr %additional.dbg.spill, metadata !2087, metadata !DIExpression()), !dbg !2097
  call void @llvm.dbg.declare(metadata ptr %additional.dbg.spill, metadata !2099, metadata !DIExpression()), !dbg !2109
  call void @llvm.dbg.declare(metadata ptr %self1, metadata !2111, metadata !DIExpression()), !dbg !2117
  store ptr %self, ptr %self.dbg.spill2, align 8, !dbg !2119
  call void @llvm.dbg.declare(metadata ptr %self.dbg.spill2, metadata !2095, metadata !DIExpression()), !dbg !2120
  call void @llvm.dbg.declare(metadata ptr %self.dbg.spill2, metadata !2107, metadata !DIExpression()), !dbg !2121
  call void @llvm.dbg.declare(metadata ptr %self.dbg.spill2, metadata !2122, metadata !DIExpression()), !dbg !2129
  %0 = getelementptr inbounds %"alloc::vec::Vec<u8>", ptr %self, i32 0, i32 1, !dbg !2131
  %len = load i64, ptr %0, align 8, !dbg !2131, !noundef !23
  store i64 %len, ptr %len.dbg.spill, align 8, !dbg !2131
  call void @llvm.dbg.declare(metadata ptr %len.dbg.spill, metadata !2096, metadata !DIExpression()), !dbg !2132
  call void @llvm.dbg.declare(metadata ptr %len.dbg.spill, metadata !2108, metadata !DIExpression()), !dbg !2133
  call void @llvm.dbg.declare(metadata ptr %len.dbg.spill, metadata !2116, metadata !DIExpression()), !dbg !2117
  br i1 false, label %bb3, label %bb4, !dbg !2134

bb4:                                              ; preds = %start
  %1 = load i64, ptr %self, align 8, !dbg !2135, !noundef !23
  store i64 %1, ptr %self1, align 8, !dbg !2135
  br label %bb5, !dbg !2136

bb3:                                              ; preds = %start
  store i64 -1, ptr %self1, align 8, !dbg !2137
  br label %bb5, !dbg !2136

bb5:                                              ; preds = %bb3, %bb4
  %2 = load i64, ptr %self1, align 8, !dbg !2117, !noundef !23
  %_7 = sub i64 %2, %len, !dbg !2117
  %_5 = icmp ugt i64 %additional, %_7, !dbg !2138
  br i1 %_5, label %bb1, label %bb2, !dbg !2139

bb2:                                              ; preds = %bb1, %bb5
  ret void, !dbg !2140

bb1:                                              ; preds = %bb5
; call alloc::raw_vec::RawVec<T,A>::reserve::do_reserve_and_handle
  call void @"_ZN5alloc7raw_vec19RawVec$LT$T$C$A$GT$7reserve21do_reserve_and_handle17hd7ab124207ab78ecE"(ptr align 8 %self, i64 %len, i64 %additional), !dbg !2141
  br label %bb2, !dbg !2141
}

; alloc::alloc::Global::alloc_impl
; Function Attrs: inlinehint nonlazybind uwtable
define internal { ptr, i64 } @_ZN5alloc5alloc6Global10alloc_impl17h30bfd4cc0da0b515E(ptr align 1 %self, i64 %0, i64 %1, i1 zeroext %zeroed) unnamed_addr #2 !dbg !2142 {
start:
  %ptr.dbg.spill31 = alloca { ptr, i64 }, align 8
  %data_pointer.dbg.spill28 = alloca ptr, align 8
  %data.dbg.spill27 = alloca ptr, align 8
  %ptr.dbg.spill26 = alloca ptr, align 8
  %v.dbg.spill24 = alloca ptr, align 8
  %v.dbg.spill = alloca ptr, align 8
  %ptr.dbg.spill22 = alloca ptr, align 8
  %self.dbg.spill20 = alloca i64, align 8
  %self.dbg.spill18 = alloca ptr, align 8
  %self.dbg.spill17 = alloca ptr, align 8
  %self.dbg.spill16 = alloca i64, align 8
  %self.dbg.spill14 = alloca ptr, align 8
  %self.dbg.spill13 = alloca ptr, align 8
  %2 = alloca i8, align 1
  %ptr.dbg.spill12 = alloca { ptr, i64 }, align 8
  %data_pointer.dbg.spill = alloca ptr, align 8
  %data.dbg.spill = alloca ptr, align 8
  %ptr.dbg.spill = alloca ptr, align 8
  %addr.dbg.spill = alloca i64, align 8
  %self.dbg.spill11 = alloca i64, align 8
  %self.dbg.spill9 = alloca ptr, align 8
  %size.dbg.spill = alloca i64, align 8
  %self.dbg.spill8 = alloca ptr, align 8
  %zeroed.dbg.spill = alloca i8, align 1
  %self.dbg.spill = alloca ptr, align 8
  %_79 = alloca %"core::ptr::metadata::PtrComponents<[u8]>", align 8
  %_78 = alloca %"core::ptr::metadata::PtrRepr<[u8]>", align 8
  %_64 = alloca ptr, align 8
  %_59 = alloca i64, align 8
  %_44 = alloca i64, align 8
  %_34 = alloca %"core::ptr::metadata::PtrComponents<[u8]>", align 8
  %_33 = alloca %"core::ptr::metadata::PtrRepr<[u8]>", align 8
  %_22 = alloca i64, align 8
  %_18 = alloca %"core::ptr::non_null::NonNull<[u8]>", align 8
  %self7 = alloca ptr, align 8
  %self6 = alloca ptr, align 8
  %_12 = alloca ptr, align 8
  %layout5 = alloca %"core::alloc::layout::Layout", align 8
  %layout4 = alloca %"core::alloc::layout::Layout", align 8
  %raw_ptr = alloca ptr, align 8
  %data = alloca ptr, align 8
  %_6 = alloca %"core::ptr::non_null::NonNull<[u8]>", align 8
  %_0 = alloca %"core::result::Result<core::ptr::non_null::NonNull<[u8]>, core::alloc::AllocError>", align 8
  %layout = alloca %"core::alloc::layout::Layout", align 8
  %t.dbg.spill = alloca %"core::alloc::AllocError", align 1
  %e.dbg.spill3 = alloca %"core::alloc::AllocError", align 1
  %residual.dbg.spill2 = alloca %"core::result::Result<core::convert::Infallible, core::alloc::AllocError>::Err", align 1
  %e.dbg.spill = alloca %"core::alloc::AllocError", align 1
  %err.dbg.spill = alloca %"core::alloc::AllocError", align 1
  %src.dbg.spill = alloca ptr, align 8
  %metadata.dbg.spill = alloca i64, align 8
  %len.dbg.spill1 = alloca i64, align 8
  %len.dbg.spill = alloca i64, align 8
  %residual.dbg.spill = alloca %"core::result::Result<core::convert::Infallible, core::alloc::AllocError>::Err", align 1
  call void @llvm.dbg.declare(metadata ptr %residual.dbg.spill, metadata !2158, metadata !DIExpression()), !dbg !2180
  store i64 0, ptr %len.dbg.spill, align 8, !dbg !2181
  call void @llvm.dbg.declare(metadata ptr %len.dbg.spill, metadata !2189, metadata !DIExpression()), !dbg !2181
  store i64 0, ptr %len.dbg.spill1, align 8, !dbg !2194
  call void @llvm.dbg.declare(metadata ptr %len.dbg.spill1, metadata !2205, metadata !DIExpression()), !dbg !2194
  store i64 0, ptr %metadata.dbg.spill, align 8, !dbg !2210
  call void @llvm.dbg.declare(metadata ptr %metadata.dbg.spill, metadata !2217, metadata !DIExpression()), !dbg !2210
  store ptr @__rust_no_alloc_shim_is_unstable, ptr %src.dbg.spill, align 8, !dbg !2222
  call void @llvm.dbg.declare(metadata ptr %src.dbg.spill, metadata !2228, metadata !DIExpression()), !dbg !2222
  call void @llvm.dbg.declare(metadata ptr %err.dbg.spill, metadata !2237, metadata !DIExpression()), !dbg !2274
  call void @llvm.dbg.declare(metadata ptr %e.dbg.spill, metadata !2276, metadata !DIExpression()), !dbg !2304
  call void @llvm.dbg.declare(metadata ptr %residual.dbg.spill2, metadata !2306, metadata !DIExpression()), !dbg !2317
  call void @llvm.dbg.declare(metadata ptr %e.dbg.spill3, metadata !2313, metadata !DIExpression()), !dbg !2319
  call void @llvm.dbg.declare(metadata ptr %t.dbg.spill, metadata !2320, metadata !DIExpression()), !dbg !2330
  store i64 %0, ptr %layout, align 8, !dbg !2330
  %3 = getelementptr inbounds i8, ptr %layout, i64 8, !dbg !2330
  store i64 %1, ptr %3, align 8, !dbg !2330
  store ptr %self, ptr %self.dbg.spill, align 8, !dbg !2330
  call void @llvm.dbg.declare(metadata ptr %self.dbg.spill, metadata !2149, metadata !DIExpression()), !dbg !2332
  call void @llvm.dbg.declare(metadata ptr %layout, metadata !2150, metadata !DIExpression()), !dbg !2333
  %4 = zext i1 %zeroed to i8, !dbg !2330
  store i8 %4, ptr %zeroed.dbg.spill, align 1, !dbg !2330
  call void @llvm.dbg.declare(metadata ptr %zeroed.dbg.spill, metadata !2151, metadata !DIExpression()), !dbg !2334
  call void @llvm.dbg.declare(metadata ptr %data, metadata !2188, metadata !DIExpression()), !dbg !2335
  call void @llvm.dbg.declare(metadata ptr %data, metadata !2336, metadata !DIExpression()), !dbg !2342
  call void @llvm.dbg.declare(metadata ptr %raw_ptr, metadata !2154, metadata !DIExpression()), !dbg !2344
  call void @llvm.dbg.declare(metadata ptr %layout4, metadata !2345, metadata !DIExpression()), !dbg !2349
  call void @llvm.dbg.declare(metadata ptr %layout5, metadata !2235, metadata !DIExpression()), !dbg !2351
  call void @llvm.dbg.declare(metadata ptr %self6, metadata !2301, metadata !DIExpression()), !dbg !2352
  call void @llvm.dbg.declare(metadata ptr %self7, metadata !2271, metadata !DIExpression()), !dbg !2353
  store ptr %layout, ptr %self.dbg.spill8, align 8, !dbg !2354
  call void @llvm.dbg.declare(metadata ptr %self.dbg.spill8, metadata !2355, metadata !DIExpression()), !dbg !2366
  %5 = getelementptr inbounds i8, ptr %layout, i64 8, !dbg !2368
  %size = load i64, ptr %5, align 8, !dbg !2368, !noundef !23
  store i64 %size, ptr %size.dbg.spill, align 8, !dbg !2368
  call void @llvm.dbg.declare(metadata ptr %size.dbg.spill, metadata !2152, metadata !DIExpression()), !dbg !2369
  call void @llvm.dbg.declare(metadata ptr %size.dbg.spill, metadata !2192, metadata !DIExpression()), !dbg !2370
  call void @llvm.dbg.declare(metadata ptr %size.dbg.spill, metadata !2208, metadata !DIExpression()), !dbg !2372
  call void @llvm.dbg.declare(metadata ptr %size.dbg.spill, metadata !2220, metadata !DIExpression()), !dbg !2374
  %6 = icmp eq i64 %size, 0, !dbg !2376
  br i1 %6, label %bb2, label %bb1, !dbg !2376

bb2:                                              ; preds = %start
  store ptr %layout, ptr %self.dbg.spill9, align 8, !dbg !2377
  call void @llvm.dbg.declare(metadata ptr %self.dbg.spill9, metadata !2378, metadata !DIExpression()), !dbg !2385
  call void @llvm.dbg.declare(metadata ptr %self.dbg.spill9, metadata !2387, metadata !DIExpression()), !dbg !2396
  %self10 = load i64, ptr %layout, align 8, !dbg !2398, !range !1597, !noundef !23
  store i64 %self10, ptr %self.dbg.spill11, align 8, !dbg !2398
  call void @llvm.dbg.declare(metadata ptr %self.dbg.spill11, metadata !2399, metadata !DIExpression()), !dbg !2407
  store i64 %self10, ptr %_22, align 8, !dbg !2409
  %_23 = load i64, ptr %_22, align 8, !dbg !2409, !range !1597, !noundef !23
  %_24 = icmp uge i64 %_23, 1, !dbg !2409
  %_25 = icmp ule i64 %_23, -9223372036854775808, !dbg !2409
  %_26 = and i1 %_24, %_25, !dbg !2409
  call void @llvm.assume(i1 %_26), !dbg !2409
  store i64 %_23, ptr %addr.dbg.spill, align 8, !dbg !2409
  call void @llvm.dbg.declare(metadata ptr %addr.dbg.spill, metadata !2410, metadata !DIExpression()), !dbg !2416
  %ptr = inttoptr i64 %_23 to ptr, !dbg !2418
  store ptr %ptr, ptr %ptr.dbg.spill, align 8, !dbg !2418
  call void @llvm.dbg.declare(metadata ptr %ptr.dbg.spill, metadata !2419, metadata !DIExpression()), !dbg !2425
  store ptr %ptr, ptr %data, align 8, !dbg !2427
  store ptr %ptr, ptr %data.dbg.spill, align 8, !dbg !2428
  call void @llvm.dbg.declare(metadata ptr %data.dbg.spill, metadata !2204, metadata !DIExpression()), !dbg !2429
  call void @llvm.dbg.declare(metadata ptr %data.dbg.spill, metadata !2430, metadata !DIExpression()), !dbg !2448
  store ptr %ptr, ptr %data_pointer.dbg.spill, align 8, !dbg !2450
  call void @llvm.dbg.declare(metadata ptr %data_pointer.dbg.spill, metadata !2216, metadata !DIExpression()), !dbg !2451
  store ptr %ptr, ptr %_34, align 8, !dbg !2452
  %7 = getelementptr inbounds i8, ptr %_34, i64 8, !dbg !2452
  store i64 0, ptr %7, align 8, !dbg !2452
  %8 = load ptr, ptr %_34, align 8, !dbg !2453, !noundef !23
  %9 = getelementptr inbounds i8, ptr %_34, i64 8, !dbg !2453
  %10 = load i64, ptr %9, align 8, !dbg !2453, !noundef !23
  store ptr %8, ptr %_33, align 8, !dbg !2453
  %11 = getelementptr inbounds i8, ptr %_33, i64 8, !dbg !2453
  store i64 %10, ptr %11, align 8, !dbg !2453
  %ptr.0 = load ptr, ptr %_33, align 8, !dbg !2453, !noundef !23
  %12 = getelementptr inbounds i8, ptr %_33, i64 8, !dbg !2453
  %ptr.1 = load i64, ptr %12, align 8, !dbg !2453, !noundef !23
  store ptr %ptr.0, ptr %ptr.dbg.spill12, align 8, !dbg !2453
  %13 = getelementptr inbounds i8, ptr %ptr.dbg.spill12, i64 8, !dbg !2453
  store i64 %ptr.1, ptr %13, align 8, !dbg !2453
  call void @llvm.dbg.declare(metadata ptr %ptr.dbg.spill12, metadata !2454, metadata !DIExpression()), !dbg !2463
  store ptr %ptr.0, ptr %_6, align 8, !dbg !2465
  %14 = getelementptr inbounds i8, ptr %_6, i64 8, !dbg !2465
  store i64 %ptr.1, ptr %14, align 8, !dbg !2465
  %15 = load ptr, ptr %_6, align 8, !dbg !2466, !nonnull !23, !noundef !23
  %16 = getelementptr inbounds i8, ptr %_6, i64 8, !dbg !2466
  %17 = load i64, ptr %16, align 8, !dbg !2466, !noundef !23
  store ptr %15, ptr %_0, align 8, !dbg !2466
  %18 = getelementptr inbounds i8, ptr %_0, i64 8, !dbg !2466
  store i64 %17, ptr %18, align 8, !dbg !2466
  br label %bb8, !dbg !2467

bb1:                                              ; preds = %start
  br i1 %zeroed, label %bb3, label %bb4, !dbg !2468

bb8:                                              ; preds = %bb7, %bb6, %bb2
  %19 = load ptr, ptr %_0, align 8, !dbg !2469, !noundef !23
  %20 = getelementptr inbounds i8, ptr %_0, i64 8, !dbg !2469
  %21 = load i64, ptr %20, align 8, !dbg !2469
  %22 = insertvalue { ptr, i64 } poison, ptr %19, 0, !dbg !2469
  %23 = insertvalue { ptr, i64 } %22, i64 %21, 1, !dbg !2469
  ret { ptr, i64 } %23, !dbg !2469

bb4:                                              ; preds = %bb1
  %24 = load i64, ptr %layout, align 8, !dbg !2470, !range !1597, !noundef !23
  %25 = getelementptr inbounds i8, ptr %layout, i64 8, !dbg !2470
  %26 = load i64, ptr %25, align 8, !dbg !2470, !noundef !23
  store i64 %24, ptr %layout5, align 8, !dbg !2470
  %27 = getelementptr inbounds i8, ptr %layout5, i64 8, !dbg !2470
  store i64 %26, ptr %27, align 8, !dbg !2470
  %28 = load volatile i8, ptr @__rust_no_alloc_shim_is_unstable, align 1, !dbg !2471
  store i8 %28, ptr %2, align 1, !dbg !2471
  %_49 = load i8, ptr %2, align 1, !dbg !2471, !noundef !23
  store ptr %layout5, ptr %self.dbg.spill13, align 8, !dbg !2472
  call void @llvm.dbg.declare(metadata ptr %self.dbg.spill13, metadata !2364, metadata !DIExpression()), !dbg !2473
  %29 = getelementptr inbounds i8, ptr %layout5, i64 8, !dbg !2475
  %_52 = load i64, ptr %29, align 8, !dbg !2475, !noundef !23
  store ptr %layout5, ptr %self.dbg.spill14, align 8, !dbg !2476
  call void @llvm.dbg.declare(metadata ptr %self.dbg.spill14, metadata !2394, metadata !DIExpression()), !dbg !2477
  %self15 = load i64, ptr %layout5, align 8, !dbg !2479, !range !1597, !noundef !23
  store i64 %self15, ptr %self.dbg.spill16, align 8, !dbg !2479
  call void @llvm.dbg.declare(metadata ptr %self.dbg.spill16, metadata !2405, metadata !DIExpression()), !dbg !2480
  store i64 %self15, ptr %_59, align 8, !dbg !2482
  %_60 = load i64, ptr %_59, align 8, !dbg !2482, !range !1597, !noundef !23
  %_61 = icmp uge i64 %_60, 1, !dbg !2482
  %_62 = icmp ule i64 %_60, -9223372036854775808, !dbg !2482
  %_63 = and i1 %_61, %_62, !dbg !2482
  call void @llvm.assume(i1 %_63), !dbg !2482
  %30 = call ptr @__rust_alloc(i64 %_52, i64 %_60) #21, !dbg !2483
  store ptr %30, ptr %raw_ptr, align 8, !dbg !2483
  br label %bb5, !dbg !2484

bb3:                                              ; preds = %bb1
  %31 = load i64, ptr %layout, align 8, !dbg !2485, !range !1597, !noundef !23
  %32 = getelementptr inbounds i8, ptr %layout, i64 8, !dbg !2485
  %33 = load i64, ptr %32, align 8, !dbg !2485, !noundef !23
  store i64 %31, ptr %layout4, align 8, !dbg !2485
  %34 = getelementptr inbounds i8, ptr %layout4, i64 8, !dbg !2485
  store i64 %33, ptr %34, align 8, !dbg !2485
  store ptr %layout4, ptr %self.dbg.spill17, align 8, !dbg !2486
  call void @llvm.dbg.declare(metadata ptr %self.dbg.spill17, metadata !2362, metadata !DIExpression()), !dbg !2487
  %35 = getelementptr inbounds i8, ptr %layout4, i64 8, !dbg !2489
  %_39 = load i64, ptr %35, align 8, !dbg !2489, !noundef !23
  store ptr %layout4, ptr %self.dbg.spill18, align 8, !dbg !2490
  call void @llvm.dbg.declare(metadata ptr %self.dbg.spill18, metadata !2392, metadata !DIExpression()), !dbg !2491
  %self19 = load i64, ptr %layout4, align 8, !dbg !2493, !range !1597, !noundef !23
  store i64 %self19, ptr %self.dbg.spill20, align 8, !dbg !2493
  call void @llvm.dbg.declare(metadata ptr %self.dbg.spill20, metadata !2403, metadata !DIExpression()), !dbg !2494
  store i64 %self19, ptr %_44, align 8, !dbg !2496
  %_45 = load i64, ptr %_44, align 8, !dbg !2496, !range !1597, !noundef !23
  %_46 = icmp uge i64 %_45, 1, !dbg !2496
  %_47 = icmp ule i64 %_45, -9223372036854775808, !dbg !2496
  %_48 = and i1 %_46, %_47, !dbg !2496
  call void @llvm.assume(i1 %_48), !dbg !2496
  %36 = call ptr @__rust_alloc_zeroed(i64 %_39, i64 %_45) #21, !dbg !2497
  store ptr %36, ptr %raw_ptr, align 8, !dbg !2497
  br label %bb5, !dbg !2484

bb5:                                              ; preds = %bb3, %bb4
  %ptr21 = load ptr, ptr %raw_ptr, align 8, !dbg !2498, !noundef !23
  store ptr %ptr21, ptr %ptr.dbg.spill22, align 8, !dbg !2498
  call void @llvm.dbg.declare(metadata ptr %ptr.dbg.spill22, metadata !2499, metadata !DIExpression()), !dbg !2506
  call void @llvm.dbg.declare(metadata ptr %ptr.dbg.spill22, metadata !2507, metadata !DIExpression()), !dbg !2517
  call void @llvm.dbg.declare(metadata ptr %ptr.dbg.spill22, metadata !2519, metadata !DIExpression()), !dbg !2532
  call void @llvm.dbg.declare(metadata ptr %ptr.dbg.spill22, metadata !2534, metadata !DIExpression()), !dbg !2548
  call void @llvm.dbg.declare(metadata ptr %ptr.dbg.spill22, metadata !2440, metadata !DIExpression()), !dbg !2550
  call void @llvm.dbg.declare(metadata ptr %ptr.dbg.spill22, metadata !2423, metadata !DIExpression()), !dbg !2552
  %_65 = ptrtoint ptr %ptr21 to i64, !dbg !2554
  %37 = icmp eq i64 %_65, 0, !dbg !2555
  br i1 %37, label %bb13, label %bb14, !dbg !2555

bb13:                                             ; preds = %bb5
  store ptr null, ptr %self7, align 8, !dbg !2556
  br label %bb12, !dbg !2557

bb14:                                             ; preds = %bb5
  store ptr %ptr21, ptr %_64, align 8, !dbg !2558
  %38 = load ptr, ptr %_64, align 8, !dbg !2559, !nonnull !23, !noundef !23
  store ptr %38, ptr %self7, align 8, !dbg !2559
  br label %bb12, !dbg !2557

bb12:                                             ; preds = %bb14, %bb13
  %39 = load ptr, ptr %self7, align 8, !dbg !2560, !noundef !23
  %40 = ptrtoint ptr %39 to i64, !dbg !2560
  %41 = icmp eq i64 %40, 0, !dbg !2560
  %_70 = select i1 %41, i64 0, i64 1, !dbg !2560
  %42 = icmp eq i64 %_70, 0, !dbg !2561
  br i1 %42, label %bb15, label %bb16, !dbg !2561

bb15:                                             ; preds = %bb12
  store ptr null, ptr %self6, align 8, !dbg !2562
  br label %bb17, !dbg !2563

bb16:                                             ; preds = %bb12
  %v = load ptr, ptr %self7, align 8, !dbg !2564, !nonnull !23, !noundef !23
  store ptr %v, ptr %v.dbg.spill, align 8, !dbg !2564
  call void @llvm.dbg.declare(metadata ptr %v.dbg.spill, metadata !2272, metadata !DIExpression()), !dbg !2565
  store ptr %v, ptr %self6, align 8, !dbg !2566
  br label %bb17, !dbg !2567

bb17:                                             ; preds = %bb16, %bb15
  %43 = load ptr, ptr %self6, align 8, !dbg !2568, !noundef !23
  %44 = ptrtoint ptr %43 to i64, !dbg !2568
  %45 = icmp eq i64 %44, 0, !dbg !2568
  %_72 = select i1 %45, i64 1, i64 0, !dbg !2568
  %46 = icmp eq i64 %_72, 0, !dbg !2569
  br i1 %46, label %bb20, label %bb19, !dbg !2569

bb20:                                             ; preds = %bb17
  %v23 = load ptr, ptr %self6, align 8, !dbg !2570, !nonnull !23, !noundef !23
  store ptr %v23, ptr %v.dbg.spill24, align 8, !dbg !2570
  call void @llvm.dbg.declare(metadata ptr %v.dbg.spill24, metadata !2302, metadata !DIExpression()), !dbg !2571
  store ptr %v23, ptr %_12, align 8, !dbg !2572
  br label %bb18, !dbg !2573

bb19:                                             ; preds = %bb17
  store ptr null, ptr %_12, align 8, !dbg !2574
  br label %bb18, !dbg !2575

bb18:                                             ; preds = %bb19, %bb20
  %47 = load ptr, ptr %_12, align 8, !dbg !2305, !noundef !23
  %48 = ptrtoint ptr %47 to i64, !dbg !2305
  %49 = icmp eq i64 %48, 0, !dbg !2305
  %_16 = select i1 %49, i64 1, i64 0, !dbg !2305
  %50 = icmp eq i64 %_16, 0, !dbg !2305
  br i1 %50, label %bb6, label %bb7, !dbg !2305

bb6:                                              ; preds = %bb18
  %ptr25 = load ptr, ptr %_12, align 8, !dbg !2305, !nonnull !23, !noundef !23
  store ptr %ptr25, ptr %ptr.dbg.spill26, align 8, !dbg !2305
  call void @llvm.dbg.declare(metadata ptr %ptr.dbg.spill26, metadata !2156, metadata !DIExpression()), !dbg !2576
  call void @llvm.dbg.declare(metadata ptr %ptr.dbg.spill26, metadata !2178, metadata !DIExpression()), !dbg !2577
  call void @llvm.dbg.declare(metadata ptr %ptr.dbg.spill26, metadata !2190, metadata !DIExpression()), !dbg !2578
  call void @llvm.dbg.declare(metadata ptr %ptr.dbg.spill26, metadata !2340, metadata !DIExpression()), !dbg !2579
  store ptr %ptr25, ptr %data.dbg.spill27, align 8, !dbg !2581
  call void @llvm.dbg.declare(metadata ptr %data.dbg.spill27, metadata !2206, metadata !DIExpression()), !dbg !2582
  call void @llvm.dbg.declare(metadata ptr %data.dbg.spill27, metadata !2444, metadata !DIExpression()), !dbg !2583
  store ptr %ptr25, ptr %data_pointer.dbg.spill28, align 8, !dbg !2585
  call void @llvm.dbg.declare(metadata ptr %data_pointer.dbg.spill28, metadata !2218, metadata !DIExpression()), !dbg !2586
  store ptr %ptr25, ptr %_79, align 8, !dbg !2587
  %51 = getelementptr inbounds i8, ptr %_79, i64 8, !dbg !2587
  store i64 %size, ptr %51, align 8, !dbg !2587
  %52 = load ptr, ptr %_79, align 8, !dbg !2588, !noundef !23
  %53 = getelementptr inbounds i8, ptr %_79, i64 8, !dbg !2588
  %54 = load i64, ptr %53, align 8, !dbg !2588, !noundef !23
  store ptr %52, ptr %_78, align 8, !dbg !2588
  %55 = getelementptr inbounds i8, ptr %_78, i64 8, !dbg !2588
  store i64 %54, ptr %55, align 8, !dbg !2588
  %ptr.029 = load ptr, ptr %_78, align 8, !dbg !2588, !noundef !23
  %56 = getelementptr inbounds i8, ptr %_78, i64 8, !dbg !2588
  %ptr.130 = load i64, ptr %56, align 8, !dbg !2588, !noundef !23
  store ptr %ptr.029, ptr %ptr.dbg.spill31, align 8, !dbg !2588
  %57 = getelementptr inbounds i8, ptr %ptr.dbg.spill31, i64 8, !dbg !2588
  store i64 %ptr.130, ptr %57, align 8, !dbg !2588
  call void @llvm.dbg.declare(metadata ptr %ptr.dbg.spill31, metadata !2461, metadata !DIExpression()), !dbg !2589
  store ptr %ptr.029, ptr %_18, align 8, !dbg !2591
  %58 = getelementptr inbounds i8, ptr %_18, i64 8, !dbg !2591
  store i64 %ptr.130, ptr %58, align 8, !dbg !2591
  %59 = load ptr, ptr %_18, align 8, !dbg !2592, !nonnull !23, !noundef !23
  %60 = getelementptr inbounds i8, ptr %_18, i64 8, !dbg !2592
  %61 = load i64, ptr %60, align 8, !dbg !2592, !noundef !23
  store ptr %59, ptr %_0, align 8, !dbg !2592
  %62 = getelementptr inbounds i8, ptr %_0, i64 8, !dbg !2592
  store i64 %61, ptr %62, align 8, !dbg !2592
  br label %bb8, !dbg !2593

bb7:                                              ; preds = %bb18
  %63 = load ptr, ptr @2, align 8, !dbg !2594, !noundef !23
  %64 = load i64, ptr getelementptr inbounds (i8, ptr @2, i64 8), align 8, !dbg !2594
  store ptr %63, ptr %_0, align 8, !dbg !2594
  %65 = getelementptr inbounds i8, ptr %_0, i64 8, !dbg !2594
  store i64 %64, ptr %65, align 8, !dbg !2594
  br label %bb8, !dbg !2469

bb21:                                             ; No predecessors!
  unreachable, !dbg !2561
}

; alloc::alloc::Global::grow_impl
; Function Attrs: inlinehint nonlazybind uwtable
define internal { ptr, i64 } @_ZN5alloc5alloc6Global9grow_impl17h8105bad99eb77931E(ptr align 1 %self, ptr %ptr, i64 %0, i64 %1, i64 %2, i64 %3, i1 zeroext %zeroed) unnamed_addr #2 !dbg !2595 {
start:
  %ptr.dbg.spill39 = alloca { ptr, i64 }, align 8
  %data_pointer.dbg.spill = alloca ptr, align 8
  %data.dbg.spill = alloca ptr, align 8
  %count.dbg.spill = alloca i64, align 8
  %self.dbg.spill38 = alloca ptr, align 8
  %ptr.dbg.spill36 = alloca ptr, align 8
  %v.dbg.spill34 = alloca ptr, align 8
  %v.dbg.spill32 = alloca ptr, align 8
  %raw_ptr.dbg.spill = alloca ptr, align 8
  %self.dbg.spill31 = alloca i64, align 8
  %self.dbg.spill29 = alloca ptr, align 8
  %self.dbg.spill28 = alloca ptr, align 8
  %ptr.dbg.spill27 = alloca ptr, align 8
  %cond.dbg.spill = alloca i8, align 1
  %self.dbg.spill26 = alloca ptr, align 8
  %new_size.dbg.spill = alloca i64, align 8
  %self.dbg.spill25 = alloca ptr, align 8
  %old_size.dbg.spill24 = alloca i64, align 8
  %dst.dbg.spill = alloca ptr, align 8
  %ptr.dbg.spill22 = alloca ptr, align 8
  %self.dbg.spill21 = alloca { ptr, i64 }, align 8
  %src.dbg.spill = alloca ptr, align 8
  %new_ptr.dbg.spill = alloca %"core::ptr::non_null::NonNull<[u8]>", align 8
  %v.dbg.spill = alloca %"core::ptr::non_null::NonNull<[u8]>", align 8
  %old_size.dbg.spill20 = alloca i64, align 8
  %self.dbg.spill19 = alloca i64, align 8
  %self.dbg.spill17 = alloca ptr, align 8
  %self.dbg.spill16 = alloca i64, align 8
  %self.dbg.spill14 = alloca ptr, align 8
  %old_size.dbg.spill = alloca ptr, align 8
  %self.dbg.spill13 = alloca ptr, align 8
  %zeroed.dbg.spill = alloca i8, align 1
  %ptr.dbg.spill = alloca ptr, align 8
  %self.dbg.spill = alloca ptr, align 8
  %self12 = alloca ptr, align 8
  %_86 = alloca %"core::ptr::metadata::PtrComponents<[u8]>", align 8
  %_85 = alloca %"core::ptr::metadata::PtrRepr<[u8]>", align 8
  %_71 = alloca ptr, align 8
  %_66 = alloca i64, align 8
  %_54 = alloca i64, align 8
  %_48 = alloca i64, align 8
  %self11 = alloca %"core::result::Result<core::ptr::non_null::NonNull<[u8]>, core::alloc::AllocError>", align 8
  %_37 = alloca %"core::ops::control_flow::ControlFlow<core::result::Result<core::convert::Infallible, core::alloc::AllocError>, core::ptr::non_null::NonNull<[u8]>>", align 8
  %_35 = alloca %"core::ptr::non_null::NonNull<[u8]>", align 8
  %self10 = alloca ptr, align 8
  %self9 = alloca ptr, align 8
  %_27 = alloca ptr, align 8
  %layout = alloca %"core::alloc::layout::Layout", align 8
  %_9 = alloca i64, align 8
  %_0 = alloca %"core::result::Result<core::ptr::non_null::NonNull<[u8]>, core::alloc::AllocError>", align 8
  %new_layout = alloca %"core::alloc::layout::Layout", align 8
  %old_layout = alloca %"core::alloc::layout::Layout", align 8
  %t.dbg.spill8 = alloca %"core::alloc::AllocError", align 1
  %e.dbg.spill7 = alloca %"core::alloc::AllocError", align 1
  %residual.dbg.spill6 = alloca %"core::result::Result<core::convert::Infallible, core::alloc::AllocError>::Err", align 1
  %e.dbg.spill5 = alloca %"core::alloc::AllocError", align 1
  %val.dbg.spill4 = alloca i8, align 1
  %val.dbg.spill = alloca i8, align 1
  %t.dbg.spill = alloca %"core::alloc::AllocError", align 1
  %e.dbg.spill3 = alloca %"core::alloc::AllocError", align 1
  %residual.dbg.spill2 = alloca %"core::result::Result<core::convert::Infallible, core::alloc::AllocError>::Err", align 1
  %e.dbg.spill = alloca %"core::alloc::AllocError", align 1
  %err.dbg.spill = alloca %"core::alloc::AllocError", align 1
  %residual.dbg.spill1 = alloca %"core::result::Result<core::convert::Infallible, core::alloc::AllocError>::Err", align 1
  %residual.dbg.spill = alloca %"core::result::Result<core::convert::Infallible, core::alloc::AllocError>::Err", align 1
  call void @llvm.dbg.declare(metadata ptr %residual.dbg.spill, metadata !2614, metadata !DIExpression()), !dbg !2626
  call void @llvm.dbg.declare(metadata ptr %residual.dbg.spill1, metadata !2622, metadata !DIExpression()), !dbg !2627
  call void @llvm.dbg.declare(metadata ptr %err.dbg.spill, metadata !2628, metadata !DIExpression()), !dbg !2635
  call void @llvm.dbg.declare(metadata ptr %e.dbg.spill, metadata !2637, metadata !DIExpression()), !dbg !2645
  call void @llvm.dbg.declare(metadata ptr %residual.dbg.spill2, metadata !2647, metadata !DIExpression()), !dbg !2657
  call void @llvm.dbg.declare(metadata ptr %e.dbg.spill3, metadata !2651, metadata !DIExpression()), !dbg !2659
  call void @llvm.dbg.declare(metadata ptr %t.dbg.spill, metadata !2660, metadata !DIExpression()), !dbg !2666
  store i8 0, ptr %val.dbg.spill, align 1, !dbg !2668
  call void @llvm.dbg.declare(metadata ptr %val.dbg.spill, metadata !2675, metadata !DIExpression()), !dbg !2668
  store i8 0, ptr %val.dbg.spill4, align 1, !dbg !2678
  call void @llvm.dbg.declare(metadata ptr %val.dbg.spill4, metadata !2683, metadata !DIExpression()), !dbg !2678
  call void @llvm.dbg.declare(metadata ptr %e.dbg.spill5, metadata !2686, metadata !DIExpression()), !dbg !2711
  call void @llvm.dbg.declare(metadata ptr %residual.dbg.spill6, metadata !2653, metadata !DIExpression()), !dbg !2713
  call void @llvm.dbg.declare(metadata ptr %e.dbg.spill7, metadata !2655, metadata !DIExpression()), !dbg !2715
  call void @llvm.dbg.declare(metadata ptr %t.dbg.spill8, metadata !2664, metadata !DIExpression()), !dbg !2716
  store i64 %0, ptr %old_layout, align 8, !dbg !2716
  %4 = getelementptr inbounds i8, ptr %old_layout, i64 8, !dbg !2716
  store i64 %1, ptr %4, align 8, !dbg !2716
  store i64 %2, ptr %new_layout, align 8, !dbg !2716
  %5 = getelementptr inbounds i8, ptr %new_layout, i64 8, !dbg !2716
  store i64 %3, ptr %5, align 8, !dbg !2716
  store ptr %self, ptr %self.dbg.spill, align 8, !dbg !2716
  call void @llvm.dbg.declare(metadata ptr %self.dbg.spill, metadata !2600, metadata !DIExpression()), !dbg !2718
  store ptr %ptr, ptr %ptr.dbg.spill, align 8, !dbg !2716
  call void @llvm.dbg.declare(metadata ptr %ptr.dbg.spill, metadata !2601, metadata !DIExpression()), !dbg !2719
  call void @llvm.dbg.declare(metadata ptr %ptr.dbg.spill, metadata !2720, metadata !DIExpression()), !dbg !2730
  call void @llvm.dbg.declare(metadata ptr %ptr.dbg.spill, metadata !2726, metadata !DIExpression()), !dbg !2732
  call void @llvm.dbg.declare(metadata ptr %old_layout, metadata !2602, metadata !DIExpression()), !dbg !2734
  call void @llvm.dbg.declare(metadata ptr %new_layout, metadata !2603, metadata !DIExpression()), !dbg !2735
  %6 = zext i1 %zeroed to i8, !dbg !2716
  store i8 %6, ptr %zeroed.dbg.spill, align 1, !dbg !2716
  call void @llvm.dbg.declare(metadata ptr %zeroed.dbg.spill, metadata !2604, metadata !DIExpression()), !dbg !2736
  call void @llvm.dbg.declare(metadata ptr %layout, metadata !2737, metadata !DIExpression()), !dbg !2745
  call void @llvm.dbg.declare(metadata ptr %self9, metadata !2642, metadata !DIExpression()), !dbg !2747
  call void @llvm.dbg.declare(metadata ptr %self10, metadata !2632, metadata !DIExpression()), !dbg !2748
  call void @llvm.dbg.declare(metadata ptr %self11, metadata !2708, metadata !DIExpression()), !dbg !2749
  call void @llvm.dbg.declare(metadata ptr %self12, metadata !2728, metadata !DIExpression()), !dbg !2750
  store ptr %old_layout, ptr %self.dbg.spill13, align 8, !dbg !2760
  call void @llvm.dbg.declare(metadata ptr %self.dbg.spill13, metadata !2761, metadata !DIExpression()), !dbg !2775
  %7 = getelementptr inbounds i8, ptr %old_layout, i64 8, !dbg !2777
  %8 = load i64, ptr %7, align 8, !dbg !2777, !noundef !23
  store i64 %8, ptr %_9, align 8, !dbg !2777
  %9 = load i64, ptr %_9, align 8, !dbg !2778, !noundef !23
  %10 = icmp eq i64 %9, 0, !dbg !2778
  br i1 %10, label %bb1, label %bb3, !dbg !2778

bb1:                                              ; preds = %start
  %_11.0 = load i64, ptr %new_layout, align 8, !dbg !2779, !range !1597, !noundef !23
  %11 = getelementptr inbounds i8, ptr %new_layout, i64 8, !dbg !2779
  %_11.1 = load i64, ptr %11, align 8, !dbg !2779, !noundef !23
; call alloc::alloc::Global::alloc_impl
  %12 = call { ptr, i64 } @_ZN5alloc5alloc6Global10alloc_impl17h30bfd4cc0da0b515E(ptr align 1 %self, i64 %_11.0, i64 %_11.1, i1 zeroext %zeroed), !dbg !2780
  %13 = extractvalue { ptr, i64 } %12, 0, !dbg !2780
  %14 = extractvalue { ptr, i64 } %12, 1, !dbg !2780
  store ptr %13, ptr %_0, align 8, !dbg !2780
  %15 = getelementptr inbounds i8, ptr %_0, i64 8, !dbg !2780
  store i64 %14, ptr %15, align 8, !dbg !2780
  br label %bb14, !dbg !2781

bb3:                                              ; preds = %start
  store ptr %_9, ptr %old_size.dbg.spill, align 8, !dbg !2782
  call void @llvm.dbg.declare(metadata ptr %old_size.dbg.spill, metadata !2607, metadata !DIExpression()), !dbg !2783
  store ptr %old_layout, ptr %self.dbg.spill14, align 8, !dbg !2784
  call void @llvm.dbg.declare(metadata ptr %self.dbg.spill14, metadata !2785, metadata !DIExpression()), !dbg !2793
  %self15 = load i64, ptr %old_layout, align 8, !dbg !2795, !range !1597, !noundef !23
  store i64 %self15, ptr %self.dbg.spill16, align 8, !dbg !2795
  call void @llvm.dbg.declare(metadata ptr %self.dbg.spill16, metadata !2796, metadata !DIExpression()), !dbg !2804
  store i64 %self15, ptr %_48, align 8, !dbg !2806
  %_49 = load i64, ptr %_48, align 8, !dbg !2806, !range !1597, !noundef !23
  %_50 = icmp uge i64 %_49, 1, !dbg !2806
  %_51 = icmp ule i64 %_49, -9223372036854775808, !dbg !2806
  %_52 = and i1 %_50, %_51, !dbg !2806
  call void @llvm.assume(i1 %_52), !dbg !2806
  store ptr %new_layout, ptr %self.dbg.spill17, align 8, !dbg !2807
  call void @llvm.dbg.declare(metadata ptr %self.dbg.spill17, metadata !2789, metadata !DIExpression()), !dbg !2808
  %self18 = load i64, ptr %new_layout, align 8, !dbg !2810, !range !1597, !noundef !23
  store i64 %self18, ptr %self.dbg.spill19, align 8, !dbg !2810
  call void @llvm.dbg.declare(metadata ptr %self.dbg.spill19, metadata !2800, metadata !DIExpression()), !dbg !2811
  store i64 %self18, ptr %_54, align 8, !dbg !2813
  %_55 = load i64, ptr %_54, align 8, !dbg !2813, !range !1597, !noundef !23
  %_56 = icmp uge i64 %_55, 1, !dbg !2813
  %_57 = icmp ule i64 %_55, -9223372036854775808, !dbg !2813
  %_58 = and i1 %_56, %_57, !dbg !2813
  call void @llvm.assume(i1 %_58), !dbg !2813
  %_14 = icmp eq i64 %_49, %_55, !dbg !2784
  br i1 %_14, label %bb4, label %bb5, !dbg !2784

bb14:                                             ; preds = %bb9, %bb11, %bb1
  br label %bb16, !dbg !2814

bb5:                                              ; preds = %bb3
  %old_size = load i64, ptr %_9, align 8, !dbg !2815, !noundef !23
  store i64 %old_size, ptr %old_size.dbg.spill20, align 8, !dbg !2815
  call void @llvm.dbg.declare(metadata ptr %old_size.dbg.spill20, metadata !2618, metadata !DIExpression()), !dbg !2816
  call void @llvm.dbg.declare(metadata ptr %old_size.dbg.spill20, metadata !2817, metadata !DIExpression()), !dbg !2823
  %_39.0 = load i64, ptr %new_layout, align 8, !dbg !2825, !range !1597, !noundef !23
  %16 = getelementptr inbounds i8, ptr %new_layout, i64 8, !dbg !2825
  %_39.1 = load i64, ptr %16, align 8, !dbg !2825, !noundef !23
; call alloc::alloc::Global::alloc_impl
  %17 = call { ptr, i64 } @_ZN5alloc5alloc6Global10alloc_impl17h30bfd4cc0da0b515E(ptr align 1 %self, i64 %_39.0, i64 %_39.1, i1 zeroext %zeroed), !dbg !2712
  %18 = extractvalue { ptr, i64 } %17, 0, !dbg !2712
  %19 = extractvalue { ptr, i64 } %17, 1, !dbg !2712
  store ptr %18, ptr %self11, align 8, !dbg !2712
  %20 = getelementptr inbounds i8, ptr %self11, i64 8, !dbg !2712
  store i64 %19, ptr %20, align 8, !dbg !2712
  %21 = load ptr, ptr %self11, align 8, !dbg !2826, !noundef !23
  %22 = ptrtoint ptr %21 to i64, !dbg !2826
  %23 = icmp eq i64 %22, 0, !dbg !2826
  %_91 = select i1 %23, i64 1, i64 0, !dbg !2826
  %24 = icmp eq i64 %_91, 0, !dbg !2827
  br i1 %24, label %bb30, label %bb29, !dbg !2827

bb4:                                              ; preds = %bb3
  %old_size23 = load i64, ptr %_9, align 8, !dbg !2782, !noundef !23
  store i64 %old_size23, ptr %old_size.dbg.spill24, align 8, !dbg !2782
  call void @llvm.dbg.declare(metadata ptr %old_size.dbg.spill24, metadata !2605, metadata !DIExpression()), !dbg !2783
  call void @llvm.dbg.declare(metadata ptr %old_size.dbg.spill24, metadata !2828, metadata !DIExpression()), !dbg !2833
  store ptr %new_layout, ptr %self.dbg.spill25, align 8, !dbg !2835
  call void @llvm.dbg.declare(metadata ptr %self.dbg.spill25, metadata !2769, metadata !DIExpression()), !dbg !2836
  %25 = getelementptr inbounds i8, ptr %new_layout, i64 8, !dbg !2838
  %new_size = load i64, ptr %25, align 8, !dbg !2838, !noundef !23
  store i64 %new_size, ptr %new_size.dbg.spill, align 8, !dbg !2838
  call void @llvm.dbg.declare(metadata ptr %new_size.dbg.spill, metadata !2608, metadata !DIExpression()), !dbg !2839
  call void @llvm.dbg.declare(metadata ptr %new_size.dbg.spill, metadata !2744, metadata !DIExpression()), !dbg !2840
  call void @llvm.dbg.declare(metadata ptr %new_size.dbg.spill, metadata !2841, metadata !DIExpression()), !dbg !2846
  call void @llvm.dbg.declare(metadata ptr %new_size.dbg.spill, metadata !2848, metadata !DIExpression()), !dbg !2853
  call void @llvm.dbg.declare(metadata ptr %new_size.dbg.spill, metadata !2855, metadata !DIExpression()), !dbg !2860
  store ptr %old_layout, ptr %self.dbg.spill26, align 8, !dbg !2862
  call void @llvm.dbg.declare(metadata ptr %self.dbg.spill26, metadata !2771, metadata !DIExpression()), !dbg !2863
  %26 = getelementptr inbounds i8, ptr %old_layout, i64 8, !dbg !2865
  %_22 = load i64, ptr %26, align 8, !dbg !2865, !noundef !23
  %cond = icmp uge i64 %new_size, %_22, !dbg !2866
  %27 = zext i1 %cond to i8, !dbg !2866
  store i8 %27, ptr %cond.dbg.spill, align 1, !dbg !2866
  call void @llvm.dbg.declare(metadata ptr %cond.dbg.spill, metadata !2867, metadata !DIExpression()), !dbg !2873
  call void @llvm.assume(i1 %cond), !dbg !2875
  store ptr %ptr, ptr %ptr.dbg.spill27, align 8, !dbg !2876
  call void @llvm.dbg.declare(metadata ptr %ptr.dbg.spill27, metadata !2743, metadata !DIExpression()), !dbg !2877
  %28 = load i64, ptr %old_layout, align 8, !dbg !2878, !range !1597, !noundef !23
  %29 = getelementptr inbounds i8, ptr %old_layout, i64 8, !dbg !2878
  %30 = load i64, ptr %29, align 8, !dbg !2878, !noundef !23
  store i64 %28, ptr %layout, align 8, !dbg !2878
  %31 = getelementptr inbounds i8, ptr %layout, i64 8, !dbg !2878
  store i64 %30, ptr %31, align 8, !dbg !2878
  store ptr %layout, ptr %self.dbg.spill28, align 8, !dbg !2879
  call void @llvm.dbg.declare(metadata ptr %self.dbg.spill28, metadata !2773, metadata !DIExpression()), !dbg !2880
  %32 = getelementptr inbounds i8, ptr %layout, i64 8, !dbg !2882
  %_61 = load i64, ptr %32, align 8, !dbg !2882, !noundef !23
  store ptr %layout, ptr %self.dbg.spill29, align 8, !dbg !2883
  call void @llvm.dbg.declare(metadata ptr %self.dbg.spill29, metadata !2791, metadata !DIExpression()), !dbg !2884
  %self30 = load i64, ptr %layout, align 8, !dbg !2886, !range !1597, !noundef !23
  store i64 %self30, ptr %self.dbg.spill31, align 8, !dbg !2886
  call void @llvm.dbg.declare(metadata ptr %self.dbg.spill31, metadata !2802, metadata !DIExpression()), !dbg !2887
  store i64 %self30, ptr %_66, align 8, !dbg !2889
  %_67 = load i64, ptr %_66, align 8, !dbg !2889, !range !1597, !noundef !23
  %_68 = icmp uge i64 %_67, 1, !dbg !2889
  %_69 = icmp ule i64 %_67, -9223372036854775808, !dbg !2889
  %_70 = and i1 %_68, %_69, !dbg !2889
  call void @llvm.assume(i1 %_70), !dbg !2889
  %raw_ptr = call ptr @__rust_realloc(ptr %ptr, i64 %_61, i64 %_67, i64 %new_size) #21, !dbg !2890
  store ptr %raw_ptr, ptr %raw_ptr.dbg.spill, align 8, !dbg !2890
  call void @llvm.dbg.declare(metadata ptr %raw_ptr.dbg.spill, metadata !2610, metadata !DIExpression()), !dbg !2891
  call void @llvm.dbg.declare(metadata ptr %raw_ptr.dbg.spill, metadata !2892, metadata !DIExpression()), !dbg !2896
  call void @llvm.dbg.declare(metadata ptr %raw_ptr.dbg.spill, metadata !2897, metadata !DIExpression()), !dbg !2905
  call void @llvm.dbg.declare(metadata ptr %raw_ptr.dbg.spill, metadata !2907, metadata !DIExpression()), !dbg !2917
  call void @llvm.dbg.declare(metadata ptr %raw_ptr.dbg.spill, metadata !2919, metadata !DIExpression()), !dbg !2929
  call void @llvm.dbg.declare(metadata ptr %raw_ptr.dbg.spill, metadata !2931, metadata !DIExpression()), !dbg !2943
  call void @llvm.dbg.declare(metadata ptr %raw_ptr.dbg.spill, metadata !2945, metadata !DIExpression()), !dbg !2951
  call void @llvm.dbg.declare(metadata ptr %raw_ptr.dbg.spill, metadata !2832, metadata !DIExpression()), !dbg !2953
  %_72 = ptrtoint ptr %raw_ptr to i64, !dbg !2954
  %33 = icmp eq i64 %_72, 0, !dbg !2955
  br i1 %33, label %bb19, label %bb20, !dbg !2955

bb30:                                             ; preds = %bb5
  %v.0 = load ptr, ptr %self11, align 8, !dbg !2956, !nonnull !23, !noundef !23
  %34 = getelementptr inbounds i8, ptr %self11, i64 8, !dbg !2956
  %v.1 = load i64, ptr %34, align 8, !dbg !2956, !noundef !23
  store ptr %v.0, ptr %v.dbg.spill, align 8, !dbg !2956
  %35 = getelementptr inbounds i8, ptr %v.dbg.spill, i64 8, !dbg !2956
  store i64 %v.1, ptr %35, align 8, !dbg !2956
  call void @llvm.dbg.declare(metadata ptr %v.dbg.spill, metadata !2709, metadata !DIExpression()), !dbg !2957
  store ptr %v.0, ptr %_37, align 8, !dbg !2958
  %36 = getelementptr inbounds i8, ptr %_37, i64 8, !dbg !2958
  store i64 %v.1, ptr %36, align 8, !dbg !2958
  br label %bb28, !dbg !2959

bb29:                                             ; preds = %bb5
  %37 = load ptr, ptr @2, align 8, !dbg !2960, !noundef !23
  %38 = load i64, ptr getelementptr inbounds (i8, ptr @2, i64 8), align 8, !dbg !2960
  store ptr %37, ptr %_37, align 8, !dbg !2960
  %39 = getelementptr inbounds i8, ptr %_37, i64 8, !dbg !2960
  store i64 %38, ptr %39, align 8, !dbg !2960
  br label %bb28, !dbg !2961

bb28:                                             ; preds = %bb29, %bb30
  %40 = load ptr, ptr %_37, align 8, !dbg !2712, !noundef !23
  %41 = ptrtoint ptr %40 to i64, !dbg !2712
  %42 = icmp eq i64 %41, 0, !dbg !2712
  %_40 = select i1 %42, i64 1, i64 0, !dbg !2712
  %43 = icmp eq i64 %_40, 0, !dbg !2712
  br i1 %43, label %bb11, label %bb12, !dbg !2712

bb11:                                             ; preds = %bb28
  %new_ptr.0 = load ptr, ptr %_37, align 8, !dbg !2712, !nonnull !23, !noundef !23
  %44 = getelementptr inbounds i8, ptr %_37, i64 8, !dbg !2712
  %new_ptr.1 = load i64, ptr %44, align 8, !dbg !2712, !noundef !23
  store ptr %new_ptr.0, ptr %new_ptr.dbg.spill, align 8, !dbg !2712
  %45 = getelementptr inbounds i8, ptr %new_ptr.dbg.spill, i64 8, !dbg !2712
  store i64 %new_ptr.1, ptr %45, align 8, !dbg !2712
  call void @llvm.dbg.declare(metadata ptr %new_ptr.dbg.spill, metadata !2620, metadata !DIExpression()), !dbg !2962
  call void @llvm.dbg.declare(metadata ptr %new_ptr.dbg.spill, metadata !2624, metadata !DIExpression()), !dbg !2963
  call void @llvm.dbg.declare(metadata ptr %new_ptr.dbg.spill, metadata !2758, metadata !DIExpression()), !dbg !2964
  call void @llvm.dbg.declare(metadata ptr %new_ptr.dbg.spill, metadata !2965, metadata !DIExpression()), !dbg !2972
  call void @llvm.dbg.declare(metadata ptr %new_ptr.dbg.spill, metadata !2974, metadata !DIExpression()), !dbg !2981
  store ptr %ptr, ptr %src.dbg.spill, align 8, !dbg !2983
  call void @llvm.dbg.declare(metadata ptr %src.dbg.spill, metadata !2821, metadata !DIExpression()), !dbg !2984
  store ptr %new_ptr.0, ptr %self.dbg.spill21, align 8, !dbg !2985
  %46 = getelementptr inbounds i8, ptr %self.dbg.spill21, i64 8, !dbg !2985
  store i64 %new_ptr.1, ptr %46, align 8, !dbg !2985
  call void @llvm.dbg.declare(metadata ptr %self.dbg.spill21, metadata !2986, metadata !DIExpression()), !dbg !2993
  store ptr %new_ptr.0, ptr %ptr.dbg.spill22, align 8, !dbg !2995
  call void @llvm.dbg.declare(metadata ptr %ptr.dbg.spill22, metadata !2949, metadata !DIExpression()), !dbg !2996
  store ptr %new_ptr.0, ptr %self12, align 8, !dbg !2998
  store ptr %new_ptr.0, ptr %dst.dbg.spill, align 8, !dbg !2999
  call void @llvm.dbg.declare(metadata ptr %dst.dbg.spill, metadata !2822, metadata !DIExpression()), !dbg !3000
  %47 = mul i64 %old_size, 1, !dbg !3001
  call void @llvm.memcpy.p0.p0.i64(ptr align 1 %new_ptr.0, ptr align 1 %ptr, i64 %47, i1 false), !dbg !3001
  %_46.0 = load i64, ptr %old_layout, align 8, !dbg !3002, !range !1597, !noundef !23
  %48 = getelementptr inbounds i8, ptr %old_layout, i64 8, !dbg !3002
  %_46.1 = load i64, ptr %48, align 8, !dbg !3002, !noundef !23
; call <alloc::alloc::Global as core::alloc::Allocator>::deallocate
  call void @"_ZN63_$LT$alloc..alloc..Global$u20$as$u20$core..alloc..Allocator$GT$10deallocate17hc5c46c48cb522725E"(ptr align 1 %self, ptr %ptr, i64 %_46.0, i64 %_46.1), !dbg !3003
  store ptr %new_ptr.0, ptr %_0, align 8, !dbg !3004
  %49 = getelementptr inbounds i8, ptr %_0, i64 8, !dbg !3004
  store i64 %new_ptr.1, ptr %49, align 8, !dbg !3004
  br label %bb14, !dbg !3005

bb12:                                             ; preds = %bb28
  %50 = load ptr, ptr @2, align 8, !dbg !3006, !noundef !23
  %51 = load i64, ptr getelementptr inbounds (i8, ptr @2, i64 8), align 8, !dbg !3006
  store ptr %50, ptr %_0, align 8, !dbg !3006
  %52 = getelementptr inbounds i8, ptr %_0, i64 8, !dbg !3006
  store i64 %51, ptr %52, align 8, !dbg !3006
  br label %bb15, !dbg !3007

bb15:                                             ; preds = %bb7, %bb12
  br label %bb16, !dbg !2814

bb19:                                             ; preds = %bb4
  store ptr null, ptr %self10, align 8, !dbg !3009
  br label %bb18, !dbg !3010

bb20:                                             ; preds = %bb4
  store ptr %raw_ptr, ptr %_71, align 8, !dbg !3011
  %53 = load ptr, ptr %_71, align 8, !dbg !3012, !nonnull !23, !noundef !23
  store ptr %53, ptr %self10, align 8, !dbg !3012
  br label %bb18, !dbg !3010

bb18:                                             ; preds = %bb20, %bb19
  %54 = load ptr, ptr %self10, align 8, !dbg !3013, !noundef !23
  %55 = ptrtoint ptr %54 to i64, !dbg !3013
  %56 = icmp eq i64 %55, 0, !dbg !3013
  %_77 = select i1 %56, i64 0, i64 1, !dbg !3013
  %57 = icmp eq i64 %_77, 0, !dbg !3014
  br i1 %57, label %bb21, label %bb22, !dbg !3014

bb21:                                             ; preds = %bb18
  store ptr null, ptr %self9, align 8, !dbg !3015
  br label %bb23, !dbg !3016

bb22:                                             ; preds = %bb18
  %v = load ptr, ptr %self10, align 8, !dbg !3017, !nonnull !23, !noundef !23
  store ptr %v, ptr %v.dbg.spill32, align 8, !dbg !3017
  call void @llvm.dbg.declare(metadata ptr %v.dbg.spill32, metadata !2633, metadata !DIExpression()), !dbg !3018
  store ptr %v, ptr %self9, align 8, !dbg !3019
  br label %bb23, !dbg !3020

bb23:                                             ; preds = %bb22, %bb21
  %58 = load ptr, ptr %self9, align 8, !dbg !3021, !noundef !23
  %59 = ptrtoint ptr %58 to i64, !dbg !3021
  %60 = icmp eq i64 %59, 0, !dbg !3021
  %_79 = select i1 %60, i64 1, i64 0, !dbg !3021
  %61 = icmp eq i64 %_79, 0, !dbg !3022
  br i1 %61, label %bb26, label %bb25, !dbg !3022

bb26:                                             ; preds = %bb23
  %v33 = load ptr, ptr %self9, align 8, !dbg !3023, !nonnull !23, !noundef !23
  store ptr %v33, ptr %v.dbg.spill34, align 8, !dbg !3023
  call void @llvm.dbg.declare(metadata ptr %v.dbg.spill34, metadata !2643, metadata !DIExpression()), !dbg !3024
  store ptr %v33, ptr %_27, align 8, !dbg !3025
  br label %bb24, !dbg !3026

bb25:                                             ; preds = %bb23
  store ptr null, ptr %_27, align 8, !dbg !3027
  br label %bb24, !dbg !3028

bb24:                                             ; preds = %bb25, %bb26
  %62 = load ptr, ptr %_27, align 8, !dbg !2646, !noundef !23
  %63 = ptrtoint ptr %62 to i64, !dbg !2646
  %64 = icmp eq i64 %63, 0, !dbg !2646
  %_30 = select i1 %64, i64 1, i64 0, !dbg !2646
  %65 = icmp eq i64 %_30, 0, !dbg !2646
  br i1 %65, label %bb6, label %bb7, !dbg !2646

bb6:                                              ; preds = %bb24
  %ptr35 = load ptr, ptr %_27, align 8, !dbg !2646, !nonnull !23, !noundef !23
  store ptr %ptr35, ptr %ptr.dbg.spill36, align 8, !dbg !2646
  call void @llvm.dbg.declare(metadata ptr %ptr.dbg.spill36, metadata !2612, metadata !DIExpression()), !dbg !3029
  call void @llvm.dbg.declare(metadata ptr %ptr.dbg.spill36, metadata !2616, metadata !DIExpression()), !dbg !3030
  call void @llvm.dbg.declare(metadata ptr %ptr.dbg.spill36, metadata !2845, metadata !DIExpression()), !dbg !3031
  call void @llvm.dbg.declare(metadata ptr %ptr.dbg.spill36, metadata !2724, metadata !DIExpression()), !dbg !3032
  br i1 %zeroed, label %bb8, label %bb9, !dbg !3034

bb7:                                              ; preds = %bb24
  %66 = load ptr, ptr @2, align 8, !dbg !3035, !noundef !23
  %67 = load i64, ptr getelementptr inbounds (i8, ptr @2, i64 8), align 8, !dbg !3035
  store ptr %66, ptr %_0, align 8, !dbg !3035
  %68 = getelementptr inbounds i8, ptr %_0, i64 8, !dbg !3035
  store i64 %67, ptr %68, align 8, !dbg !3035
  br label %bb15, !dbg !3007

bb9:                                              ; preds = %bb8, %bb6
  store ptr %ptr35, ptr %data.dbg.spill, align 8, !dbg !3036
  call void @llvm.dbg.declare(metadata ptr %data.dbg.spill, metadata !2852, metadata !DIExpression()), !dbg !3037
  call void @llvm.dbg.declare(metadata ptr %data.dbg.spill, metadata !2937, metadata !DIExpression()), !dbg !3038
  store ptr %ptr35, ptr %data_pointer.dbg.spill, align 8, !dbg !3040
  call void @llvm.dbg.declare(metadata ptr %data_pointer.dbg.spill, metadata !2859, metadata !DIExpression()), !dbg !3041
  store ptr %ptr35, ptr %_86, align 8, !dbg !3042
  %69 = getelementptr inbounds i8, ptr %_86, i64 8, !dbg !3042
  store i64 %new_size, ptr %69, align 8, !dbg !3042
  %70 = load ptr, ptr %_86, align 8, !dbg !3043, !noundef !23
  %71 = getelementptr inbounds i8, ptr %_86, i64 8, !dbg !3043
  %72 = load i64, ptr %71, align 8, !dbg !3043, !noundef !23
  store ptr %70, ptr %_85, align 8, !dbg !3043
  %73 = getelementptr inbounds i8, ptr %_85, i64 8, !dbg !3043
  store i64 %72, ptr %73, align 8, !dbg !3043
  %ptr.0 = load ptr, ptr %_85, align 8, !dbg !3043, !noundef !23
  %74 = getelementptr inbounds i8, ptr %_85, i64 8, !dbg !3043
  %ptr.1 = load i64, ptr %74, align 8, !dbg !3043, !noundef !23
  store ptr %ptr.0, ptr %ptr.dbg.spill39, align 8, !dbg !3043
  %75 = getelementptr inbounds i8, ptr %ptr.dbg.spill39, i64 8, !dbg !3043
  store i64 %ptr.1, ptr %75, align 8, !dbg !3043
  call void @llvm.dbg.declare(metadata ptr %ptr.dbg.spill39, metadata !3044, metadata !DIExpression()), !dbg !3048
  store ptr %ptr.0, ptr %_35, align 8, !dbg !3050
  %76 = getelementptr inbounds i8, ptr %_35, i64 8, !dbg !3050
  store i64 %ptr.1, ptr %76, align 8, !dbg !3050
  %77 = load ptr, ptr %_35, align 8, !dbg !3051, !nonnull !23, !noundef !23
  %78 = getelementptr inbounds i8, ptr %_35, i64 8, !dbg !3051
  %79 = load i64, ptr %78, align 8, !dbg !3051, !noundef !23
  store ptr %77, ptr %_0, align 8, !dbg !3051
  %80 = getelementptr inbounds i8, ptr %_0, i64 8, !dbg !3051
  store i64 %79, ptr %80, align 8, !dbg !3051
  br label %bb14, !dbg !3052

bb8:                                              ; preds = %bb6
  %self37 = getelementptr inbounds i8, ptr %raw_ptr, i64 %old_size23, !dbg !3053
  store ptr %self37, ptr %self.dbg.spill38, align 8, !dbg !3053
  call void @llvm.dbg.declare(metadata ptr %self.dbg.spill38, metadata !2674, metadata !DIExpression()), !dbg !3054
  call void @llvm.dbg.declare(metadata ptr %self.dbg.spill38, metadata !2682, metadata !DIExpression()), !dbg !3055
  %count = sub i64 %new_size, %old_size23, !dbg !3056
  store i64 %count, ptr %count.dbg.spill, align 8, !dbg !3056
  call void @llvm.dbg.declare(metadata ptr %count.dbg.spill, metadata !2676, metadata !DIExpression()), !dbg !3057
  call void @llvm.dbg.declare(metadata ptr %count.dbg.spill, metadata !2684, metadata !DIExpression()), !dbg !3058
  %81 = mul i64 1, %count, !dbg !3059
  call void @llvm.memset.p0.i64(ptr align 1 %self37, i8 0, i64 %81, i1 false), !dbg !3059
  br label %bb9, !dbg !3060

bb16:                                             ; preds = %bb15, %bb14
  %82 = load ptr, ptr %_0, align 8, !dbg !2814, !noundef !23
  %83 = getelementptr inbounds i8, ptr %_0, i64 8, !dbg !2814
  %84 = load i64, ptr %83, align 8, !dbg !2814
  %85 = insertvalue { ptr, i64 } poison, ptr %82, 0, !dbg !2814
  %86 = insertvalue { ptr, i64 } %85, i64 %84, 1, !dbg !2814
  ret { ptr, i64 } %86, !dbg !2814

bb31:                                             ; No predecessors!
  unreachable, !dbg !2827
}

; alloc::string::String::new
; Function Attrs: inlinehint nonlazybind uwtable
define internal void @_ZN5alloc6string6String3new17hec7f9872bdd280d7E(ptr sret(%"alloc::string::String") align 8 %_0) unnamed_addr #2 !dbg !3061 {
start:
  %_1 = alloca %"alloc::vec::Vec<u8>", align 8
  store i64 0, ptr %_1, align 8, !dbg !3065
  %0 = getelementptr inbounds i8, ptr %_1, i64 8, !dbg !3065
  store ptr inttoptr (i64 1 to ptr), ptr %0, align 8, !dbg !3065
  %1 = getelementptr inbounds %"alloc::vec::Vec<u8>", ptr %_1, i32 0, i32 1, !dbg !3065
  store i64 0, ptr %1, align 8, !dbg !3065
  call void @llvm.memcpy.p0.p0.i64(ptr align 8 %_0, ptr align 8 %_1, i64 24, i1 false), !dbg !3072
  ret void, !dbg !3073
}

; alloc::string::String::push_str
; Function Attrs: inlinehint nonlazybind uwtable
define internal void @_ZN5alloc6string6String8push_str17h8e71b330a4bf7b4fE(ptr align 8 %self, ptr align 1 %string.0, i64 %string.1) unnamed_addr #2 !dbg !3074 {
start:
  %string.dbg.spill = alloca { ptr, i64 }, align 8
  %self.dbg.spill = alloca ptr, align 8
  store ptr %self, ptr %self.dbg.spill, align 8
  call void @llvm.dbg.declare(metadata ptr %self.dbg.spill, metadata !3080, metadata !DIExpression()), !dbg !3082
  store ptr %string.0, ptr %string.dbg.spill, align 8
  %0 = getelementptr inbounds i8, ptr %string.dbg.spill, i64 8
  store i64 %string.1, ptr %0, align 8
  call void @llvm.dbg.declare(metadata ptr %string.dbg.spill, metadata !3081, metadata !DIExpression()), !dbg !3083
  call void @llvm.dbg.declare(metadata ptr %string.dbg.spill, metadata !3084, metadata !DIExpression()), !dbg !3088
; call alloc::vec::Vec<T,A>::extend_from_slice
  call void @"_ZN5alloc3vec16Vec$LT$T$C$A$GT$17extend_from_slice17hc43825e3a272cdc2E"(ptr align 8 %self, ptr align 1 %string.0, i64 %string.1), !dbg !3090
  ret void, !dbg !3091
}

; alloc::raw_vec::finish_grow
; Function Attrs: noinline nonlazybind uwtable
define internal void @_ZN5alloc7raw_vec11finish_grow17hf7417b2e2ceb73f6E(ptr sret(%"core::result::Result<core::ptr::non_null::NonNull<[u8]>, alloc::collections::TryReserveError>") align 8 %_0, i64 %new_layout.0, i64 %new_layout.1, ptr align 8 %current_memory, ptr align 1 %alloc) unnamed_addr #1 !dbg !3092 {
start:
  %e.dbg.spill19 = alloca %"alloc::collections::TryReserveErrorKind", align 8
  %e.dbg.spill16 = alloca %"alloc::collections::TryReserveError", align 8
  %cond.dbg.spill = alloca i8, align 1
  %self.dbg.spill13 = alloca i64, align 8
  %self.dbg.spill11 = alloca ptr, align 8
  %self.dbg.spill10 = alloca i64, align 8
  %self.dbg.spill8 = alloca ptr, align 8
  %ptr.dbg.spill = alloca ptr, align 8
  %alloc_size.dbg.spill = alloca i64, align 8
  %self.dbg.spill7 = alloca ptr, align 8
  %val.dbg.spill6 = alloca %"core::alloc::layout::Layout", align 8
  %e.dbg.spill5 = alloca %"alloc::collections::TryReserveErrorKind", align 8
  %v.dbg.spill4 = alloca %"core::alloc::layout::Layout", align 8
  %alloc.dbg.spill = alloca ptr, align 8
  %new_layout.dbg.spill = alloca %"core::result::Result<core::alloc::layout::Layout, core::alloc::layout::LayoutError>", align 8
  %_52 = alloca i64, align 8
  %_46 = alloca i64, align 8
  %_41 = alloca %"alloc::collections::TryReserveError", align 8
  %_39 = alloca %"core::result::Result<core::convert::Infallible, alloc::collections::TryReserveErrorKind>::Err", align 8
  %_34 = alloca ptr, align 8
  %old_layout = alloca %"core::alloc::layout::Layout", align 8
  %memory = alloca %"core::result::Result<core::ptr::non_null::NonNull<[u8]>, core::alloc::AllocError>", align 8
  %residual3 = alloca %"core::result::Result<core::convert::Infallible, alloc::collections::TryReserveError>::Err", align 8
  %_10 = alloca %"core::ops::control_flow::ControlFlow<core::result::Result<core::convert::Infallible, alloc::collections::TryReserveError>>", align 8
  %residual = alloca %"core::result::Result<core::convert::Infallible, alloc::collections::TryReserveErrorKind>::Err", align 8
  %self = alloca %"core::result::Result<core::alloc::layout::Layout, alloc::collections::TryReserveErrorKind>", align 8
  %_5 = alloca %"core::ops::control_flow::ControlFlow<core::result::Result<core::convert::Infallible, alloc::collections::TryReserveErrorKind>, core::alloc::layout::Layout>", align 8
  %new_layout = alloca %"core::alloc::layout::Layout", align 8
  %e.dbg.spill = alloca %"alloc::collections::TryReserveError", align 8
  %v.dbg.spill = alloca {}, align 1
  %self.dbg.spill2 = alloca %"core::result::Result<(), alloc::collections::TryReserveError>", align 8
  %kind.dbg.spill1 = alloca %"alloc::collections::TryReserveErrorKind", align 8
  %self.dbg.spill = alloca %"alloc::collections::TryReserveErrorKind", align 8
  %kind.dbg.spill = alloca i8, align 1
  %val.dbg.spill = alloca {}, align 1
  call void @llvm.dbg.declare(metadata ptr %val.dbg.spill, metadata !3151, metadata !DIExpression()), !dbg !3167
  store i8 0, ptr %kind.dbg.spill, align 1, !dbg !3168
  call void @llvm.dbg.declare(metadata ptr %kind.dbg.spill, metadata !3163, metadata !DIExpression()), !dbg !3168
  %0 = load i64, ptr @2, align 8, !dbg !3168, !range !1619, !noundef !23
  %1 = load i64, ptr getelementptr inbounds (i8, ptr @2, i64 8), align 8, !dbg !3168
  store i64 %0, ptr %self.dbg.spill, align 8, !dbg !3169
  %2 = getelementptr inbounds i8, ptr %self.dbg.spill, i64 8, !dbg !3169
  store i64 %1, ptr %2, align 8, !dbg !3169
  call void @llvm.dbg.declare(metadata ptr %self.dbg.spill, metadata !3176, metadata !DIExpression()), !dbg !3169
  %3 = load i64, ptr @2, align 8, !dbg !3169, !range !1619, !noundef !23
  %4 = load i64, ptr getelementptr inbounds (i8, ptr @2, i64 8), align 8, !dbg !3169
  store i64 %3, ptr %kind.dbg.spill1, align 8, !dbg !3188
  %5 = getelementptr inbounds i8, ptr %kind.dbg.spill1, i64 8, !dbg !3188
  store i64 %4, ptr %5, align 8, !dbg !3188
  call void @llvm.dbg.declare(metadata ptr %kind.dbg.spill1, metadata !3198, metadata !DIExpression()), !dbg !3188
  %6 = load i64, ptr @3, align 8, !dbg !3188, !range !1796, !noundef !23
  %7 = load i64, ptr getelementptr inbounds (i8, ptr @3, i64 8), align 8, !dbg !3188
  store i64 %6, ptr %self.dbg.spill2, align 8, !dbg !3200
  %8 = getelementptr inbounds i8, ptr %self.dbg.spill2, i64 8, !dbg !3200
  store i64 %7, ptr %8, align 8, !dbg !3200
  call void @llvm.dbg.declare(metadata ptr %self.dbg.spill2, metadata !3222, metadata !DIExpression()), !dbg !3200
  call void @llvm.dbg.declare(metadata ptr %v.dbg.spill, metadata !3223, metadata !DIExpression()), !dbg !3227
  %9 = load i64, ptr @3, align 8, !dbg !3227, !range !1619, !noundef !23
  %10 = load i64, ptr getelementptr inbounds (i8, ptr @3, i64 8), align 8, !dbg !3227
  store i64 %9, ptr %e.dbg.spill, align 8, !dbg !3228
  %11 = getelementptr inbounds i8, ptr %e.dbg.spill, i64 8, !dbg !3228
  store i64 %10, ptr %11, align 8, !dbg !3228
  call void @llvm.dbg.declare(metadata ptr %e.dbg.spill, metadata !3225, metadata !DIExpression()), !dbg !3228
  store i64 %new_layout.0, ptr %new_layout.dbg.spill, align 8, !dbg !3228
  %12 = getelementptr inbounds i8, ptr %new_layout.dbg.spill, i64 8, !dbg !3228
  store i64 %new_layout.1, ptr %12, align 8, !dbg !3228
  call void @llvm.dbg.declare(metadata ptr %new_layout.dbg.spill, metadata !3114, metadata !DIExpression()), !dbg !3229
  call void @llvm.dbg.declare(metadata ptr %current_memory, metadata !3115, metadata !DIExpression()), !dbg !3230
  store ptr %alloc, ptr %alloc.dbg.spill, align 8, !dbg !3228
  call void @llvm.dbg.declare(metadata ptr %alloc.dbg.spill, metadata !3116, metadata !DIExpression()), !dbg !3231
  call void @llvm.dbg.declare(metadata ptr %new_layout, metadata !3117, metadata !DIExpression()), !dbg !3232
  call void @llvm.dbg.declare(metadata ptr %self, metadata !3233, metadata !DIExpression()), !dbg !3259
  call void @llvm.dbg.declare(metadata ptr %residual, metadata !3119, metadata !DIExpression()), !dbg !3261
  call void @llvm.dbg.declare(metadata ptr %residual, metadata !3262, metadata !DIExpression()), !dbg !3271
  call void @llvm.dbg.declare(metadata ptr %residual3, metadata !3136, metadata !DIExpression()), !dbg !3273
  call void @llvm.dbg.declare(metadata ptr %residual3, metadata !3274, metadata !DIExpression()), !dbg !3283
  call void @llvm.dbg.declare(metadata ptr %memory, metadata !3153, metadata !DIExpression()), !dbg !3285
  call void @llvm.dbg.declare(metadata ptr %old_layout, metadata !3157, metadata !DIExpression()), !dbg !3286
; call core::result::Result<T,E>::map_err
  call void @"_ZN4core6result19Result$LT$T$C$E$GT$7map_err17h19504f3f078b75deE"(ptr sret(%"core::result::Result<core::alloc::layout::Layout, alloc::collections::TryReserveErrorKind>") align 8 %self, i64 %new_layout.0, i64 %new_layout.1), !dbg !3260
  %_36 = load i64, ptr %self, align 8, !dbg !3287, !range !1489, !noundef !23
  %13 = icmp eq i64 %_36, 0, !dbg !3288
  br i1 %13, label %bb16, label %bb15, !dbg !3288

bb16:                                             ; preds = %start
  %14 = getelementptr inbounds %"core::result::Result<core::alloc::layout::Layout, alloc::collections::TryReserveErrorKind>::Ok", ptr %self, i32 0, i32 1, !dbg !3289
  %v.0 = load i64, ptr %14, align 8, !dbg !3289, !range !1597, !noundef !23
  %15 = getelementptr inbounds i8, ptr %14, i64 8, !dbg !3289
  %v.1 = load i64, ptr %15, align 8, !dbg !3289, !noundef !23
  store i64 %v.0, ptr %v.dbg.spill4, align 8, !dbg !3289
  %16 = getelementptr inbounds i8, ptr %v.dbg.spill4, i64 8, !dbg !3289
  store i64 %v.1, ptr %16, align 8, !dbg !3289
  call void @llvm.dbg.declare(metadata ptr %v.dbg.spill4, metadata !3255, metadata !DIExpression()), !dbg !3290
  %17 = getelementptr inbounds %"core::ops::control_flow::ControlFlow<core::result::Result<core::convert::Infallible, alloc::collections::TryReserveErrorKind>, core::alloc::layout::Layout>::Continue", ptr %_5, i32 0, i32 1, !dbg !3291
  store i64 %v.0, ptr %17, align 8, !dbg !3291
  %18 = getelementptr inbounds i8, ptr %17, i64 8, !dbg !3291
  store i64 %v.1, ptr %18, align 8, !dbg !3291
  store i64 0, ptr %_5, align 8, !dbg !3291
  br label %bb14, !dbg !3292

bb15:                                             ; preds = %start
  %19 = getelementptr inbounds %"core::result::Result<core::alloc::layout::Layout, alloc::collections::TryReserveErrorKind>::Err", ptr %self, i32 0, i32 1, !dbg !3293
  %e.0 = load i64, ptr %19, align 8, !dbg !3293, !range !1619, !noundef !23
  %20 = getelementptr inbounds i8, ptr %19, i64 8, !dbg !3293
  %e.1 = load i64, ptr %20, align 8, !dbg !3293
  store i64 %e.0, ptr %e.dbg.spill5, align 8, !dbg !3293
  %21 = getelementptr inbounds i8, ptr %e.dbg.spill5, i64 8, !dbg !3293
  store i64 %e.1, ptr %21, align 8, !dbg !3293
  call void @llvm.dbg.declare(metadata ptr %e.dbg.spill5, metadata !3257, metadata !DIExpression()), !dbg !3294
  store i64 %e.0, ptr %_39, align 8, !dbg !3295
  %22 = getelementptr inbounds i8, ptr %_39, i64 8, !dbg !3295
  store i64 %e.1, ptr %22, align 8, !dbg !3295
  %23 = load i64, ptr %_39, align 8, !dbg !3296, !range !1619, !noundef !23
  %24 = getelementptr inbounds i8, ptr %_39, i64 8, !dbg !3296
  %25 = load i64, ptr %24, align 8, !dbg !3296
  %26 = getelementptr inbounds %"core::ops::control_flow::ControlFlow<core::result::Result<core::convert::Infallible, alloc::collections::TryReserveErrorKind>, core::alloc::layout::Layout>::Break", ptr %_5, i32 0, i32 1, !dbg !3296
  store i64 %23, ptr %26, align 8, !dbg !3296
  %27 = getelementptr inbounds i8, ptr %26, i64 8, !dbg !3296
  store i64 %25, ptr %27, align 8, !dbg !3296
  store i64 1, ptr %_5, align 8, !dbg !3296
  br label %bb14, !dbg !3297

bb14:                                             ; preds = %bb15, %bb16
  %_7 = load i64, ptr %_5, align 8, !dbg !3260, !range !1489, !noundef !23
  %28 = icmp eq i64 %_7, 0, !dbg !3260
  br i1 %28, label %bb2, label %bb3, !dbg !3260

bb2:                                              ; preds = %bb14
  %29 = getelementptr inbounds %"core::ops::control_flow::ControlFlow<core::result::Result<core::convert::Infallible, alloc::collections::TryReserveErrorKind>, core::alloc::layout::Layout>::Continue", ptr %_5, i32 0, i32 1, !dbg !3260
  %val.0 = load i64, ptr %29, align 8, !dbg !3260, !range !1597, !noundef !23
  %30 = getelementptr inbounds i8, ptr %29, i64 8, !dbg !3260
  %val.1 = load i64, ptr %30, align 8, !dbg !3260, !noundef !23
  store i64 %val.0, ptr %val.dbg.spill6, align 8, !dbg !3260
  %31 = getelementptr inbounds i8, ptr %val.dbg.spill6, i64 8, !dbg !3260
  store i64 %val.1, ptr %31, align 8, !dbg !3260
  call void @llvm.dbg.declare(metadata ptr %val.dbg.spill6, metadata !3134, metadata !DIExpression()), !dbg !3298
  store i64 %val.0, ptr %new_layout, align 8, !dbg !3298
  %32 = getelementptr inbounds i8, ptr %new_layout, i64 8, !dbg !3298
  store i64 %val.1, ptr %32, align 8, !dbg !3298
  store ptr %new_layout, ptr %self.dbg.spill7, align 8, !dbg !3299
  call void @llvm.dbg.declare(metadata ptr %self.dbg.spill7, metadata !3300, metadata !DIExpression()), !dbg !3304
  %33 = getelementptr inbounds i8, ptr %new_layout, i64 8, !dbg !3306
  %alloc_size = load i64, ptr %33, align 8, !dbg !3306, !noundef !23
  store i64 %alloc_size, ptr %alloc_size.dbg.spill, align 8, !dbg !3306
  call void @llvm.dbg.declare(metadata ptr %alloc_size.dbg.spill, metadata !3186, metadata !DIExpression()), !dbg !3307
  %34 = load i64, ptr @3, align 8, !dbg !3308, !range !1796, !noundef !23
  %35 = load i64, ptr getelementptr inbounds (i8, ptr @3, i64 8), align 8, !dbg !3308
  store i64 %34, ptr %_10, align 8, !dbg !3308
  %36 = getelementptr inbounds i8, ptr %_10, i64 8, !dbg !3308
  store i64 %35, ptr %36, align 8, !dbg !3308
  %37 = load i64, ptr %_10, align 8, !dbg !3187, !range !1796, !noundef !23
  %38 = icmp eq i64 %37, -9223372036854775807, !dbg !3187
  %_13 = select i1 %38, i64 0, i64 1, !dbg !3187
  %39 = icmp eq i64 %_13, 0, !dbg !3187
  br i1 %39, label %bb4, label %bb5, !dbg !3187

bb3:                                              ; preds = %bb14
  %40 = getelementptr inbounds %"core::ops::control_flow::ControlFlow<core::result::Result<core::convert::Infallible, alloc::collections::TryReserveErrorKind>, core::alloc::layout::Layout>::Break", ptr %_5, i32 0, i32 1, !dbg !3309
  %41 = load i64, ptr %40, align 8, !dbg !3309, !range !1619, !noundef !23
  %42 = getelementptr inbounds i8, ptr %40, i64 8, !dbg !3309
  %43 = load i64, ptr %42, align 8, !dbg !3309
  store i64 %41, ptr %residual, align 8, !dbg !3309
  %44 = getelementptr inbounds i8, ptr %residual, i64 8, !dbg !3309
  store i64 %43, ptr %44, align 8, !dbg !3309
  %e.017 = load i64, ptr %residual, align 8, !dbg !3310, !range !1619, !noundef !23
  %45 = getelementptr inbounds i8, ptr %residual, i64 8, !dbg !3310
  %e.118 = load i64, ptr %45, align 8, !dbg !3310
  store i64 %e.017, ptr %e.dbg.spill19, align 8, !dbg !3310
  %46 = getelementptr inbounds i8, ptr %e.dbg.spill19, i64 8, !dbg !3310
  store i64 %e.118, ptr %46, align 8, !dbg !3310
  call void @llvm.dbg.declare(metadata ptr %e.dbg.spill19, metadata !3268, metadata !DIExpression()), !dbg !3311
  call void @llvm.dbg.declare(metadata ptr %e.dbg.spill19, metadata !3196, metadata !DIExpression()), !dbg !3312
  store i64 %e.017, ptr %_41, align 8, !dbg !3314
  %47 = getelementptr inbounds i8, ptr %_41, i64 8, !dbg !3314
  store i64 %e.118, ptr %47, align 8, !dbg !3314
  %48 = load i64, ptr %_41, align 8, !dbg !3315, !range !1619, !noundef !23
  %49 = getelementptr inbounds i8, ptr %_41, i64 8, !dbg !3315
  %50 = load i64, ptr %49, align 8, !dbg !3315
  %51 = getelementptr inbounds %"core::result::Result<core::ptr::non_null::NonNull<[u8]>, alloc::collections::TryReserveError>::Err", ptr %_0, i32 0, i32 1, !dbg !3315
  store i64 %48, ptr %51, align 8, !dbg !3315
  %52 = getelementptr inbounds i8, ptr %51, i64 8, !dbg !3315
  store i64 %50, ptr %52, align 8, !dbg !3315
  store i64 1, ptr %_0, align 8, !dbg !3315
  br label %bb12, !dbg !3316

bb4:                                              ; preds = %bb2
  %53 = getelementptr inbounds %"core::option::Option<(core::ptr::non_null::NonNull<u8>, core::alloc::layout::Layout)>", ptr %current_memory, i32 0, i32 1, !dbg !3318
  %54 = load i64, ptr %53, align 8, !dbg !3318, !range !1619, !noundef !23
  %55 = icmp eq i64 %54, 0, !dbg !3318
  %_16 = select i1 %55, i64 0, i64 1, !dbg !3318
  %56 = icmp eq i64 %_16, 1, !dbg !3318
  br i1 %56, label %bb7, label %bb6, !dbg !3318

bb5:                                              ; preds = %bb2
  %57 = load i64, ptr %_10, align 8, !dbg !3319, !range !1619, !noundef !23
  %58 = getelementptr inbounds i8, ptr %_10, i64 8, !dbg !3319
  %59 = load i64, ptr %58, align 8, !dbg !3319
  store i64 %57, ptr %residual3, align 8, !dbg !3319
  %60 = getelementptr inbounds i8, ptr %residual3, i64 8, !dbg !3319
  store i64 %59, ptr %60, align 8, !dbg !3319
  %e.014 = load i64, ptr %residual3, align 8, !dbg !3320, !range !1619, !noundef !23
  %61 = getelementptr inbounds i8, ptr %residual3, i64 8, !dbg !3320
  %e.115 = load i64, ptr %61, align 8, !dbg !3320
  store i64 %e.014, ptr %e.dbg.spill16, align 8, !dbg !3320
  %62 = getelementptr inbounds i8, ptr %e.dbg.spill16, i64 8, !dbg !3320
  store i64 %e.115, ptr %62, align 8, !dbg !3320
  call void @llvm.dbg.declare(metadata ptr %e.dbg.spill16, metadata !3280, metadata !DIExpression()), !dbg !3321
  call void @llvm.dbg.declare(metadata ptr %e.dbg.spill16, metadata !3322, metadata !DIExpression()), !dbg !3330
  %63 = getelementptr inbounds %"core::result::Result<core::ptr::non_null::NonNull<[u8]>, alloc::collections::TryReserveError>::Err", ptr %_0, i32 0, i32 1, !dbg !3332
  store i64 %e.014, ptr %63, align 8, !dbg !3332
  %64 = getelementptr inbounds i8, ptr %63, i64 8, !dbg !3332
  store i64 %e.115, ptr %64, align 8, !dbg !3332
  store i64 1, ptr %_0, align 8, !dbg !3332
  br label %bb12, !dbg !3333

bb7:                                              ; preds = %bb4
  %ptr = load ptr, ptr %current_memory, align 8, !dbg !3335, !nonnull !23, !noundef !23
  store ptr %ptr, ptr %ptr.dbg.spill, align 8, !dbg !3335
  call void @llvm.dbg.declare(metadata ptr %ptr.dbg.spill, metadata !3155, metadata !DIExpression()), !dbg !3335
  %65 = getelementptr inbounds { ptr, %"core::alloc::layout::Layout" }, ptr %current_memory, i32 0, i32 1, !dbg !3286
  %66 = load i64, ptr %65, align 8, !dbg !3286, !range !1597, !noundef !23
  %67 = getelementptr inbounds i8, ptr %65, i64 8, !dbg !3286
  %68 = load i64, ptr %67, align 8, !dbg !3286, !noundef !23
  store i64 %66, ptr %old_layout, align 8, !dbg !3286
  %69 = getelementptr inbounds i8, ptr %old_layout, i64 8, !dbg !3286
  store i64 %68, ptr %69, align 8, !dbg !3286
  store ptr %old_layout, ptr %self.dbg.spill8, align 8, !dbg !3336
  call void @llvm.dbg.declare(metadata ptr %self.dbg.spill8, metadata !3337, metadata !DIExpression()), !dbg !3347
  %self9 = load i64, ptr %old_layout, align 8, !dbg !3349, !range !1597, !noundef !23
  store i64 %self9, ptr %self.dbg.spill10, align 8, !dbg !3349
  call void @llvm.dbg.declare(metadata ptr %self.dbg.spill10, metadata !3350, metadata !DIExpression()), !dbg !3360
  store i64 %self9, ptr %_46, align 8, !dbg !3362
  %_47 = load i64, ptr %_46, align 8, !dbg !3362, !range !1597, !noundef !23
  %_48 = icmp uge i64 %_47, 1, !dbg !3362
  %_49 = icmp ule i64 %_47, -9223372036854775808, !dbg !3362
  %_50 = and i1 %_48, %_49, !dbg !3362
  call void @llvm.assume(i1 %_50), !dbg !3362
  store ptr %new_layout, ptr %self.dbg.spill11, align 8, !dbg !3363
  call void @llvm.dbg.declare(metadata ptr %self.dbg.spill11, metadata !3345, metadata !DIExpression()), !dbg !3364
  %self12 = load i64, ptr %new_layout, align 8, !dbg !3366, !range !1597, !noundef !23
  store i64 %self12, ptr %self.dbg.spill13, align 8, !dbg !3366
  call void @llvm.dbg.declare(metadata ptr %self.dbg.spill13, metadata !3358, metadata !DIExpression()), !dbg !3367
  store i64 %self12, ptr %_52, align 8, !dbg !3369
  %_53 = load i64, ptr %_52, align 8, !dbg !3369, !range !1597, !noundef !23
  %_54 = icmp uge i64 %_53, 1, !dbg !3369
  %_55 = icmp ule i64 %_53, -9223372036854775808, !dbg !3369
  %_56 = and i1 %_54, %_55, !dbg !3369
  call void @llvm.assume(i1 %_56), !dbg !3369
  %cond = icmp eq i64 %_47, %_53, !dbg !3336
  %70 = zext i1 %cond to i8, !dbg !3336
  store i8 %70, ptr %cond.dbg.spill, align 1, !dbg !3336
  call void @llvm.dbg.declare(metadata ptr %cond.dbg.spill, metadata !3370, metadata !DIExpression()), !dbg !3374
  call void @llvm.assume(i1 %cond), !dbg !3376
  %_29.0 = load i64, ptr %old_layout, align 8, !dbg !3377, !range !1597, !noundef !23
  %71 = getelementptr inbounds i8, ptr %old_layout, i64 8, !dbg !3377
  %_29.1 = load i64, ptr %71, align 8, !dbg !3377, !noundef !23
  %_30.0 = load i64, ptr %new_layout, align 8, !dbg !3378, !range !1597, !noundef !23
  %72 = getelementptr inbounds i8, ptr %new_layout, i64 8, !dbg !3378
  %_30.1 = load i64, ptr %72, align 8, !dbg !3378, !noundef !23
; call <alloc::alloc::Global as core::alloc::Allocator>::grow
  %73 = call { ptr, i64 } @"_ZN63_$LT$alloc..alloc..Global$u20$as$u20$core..alloc..Allocator$GT$4grow17he40f0067a773c099E"(ptr align 1 %alloc, ptr %ptr, i64 %_29.0, i64 %_29.1, i64 %_30.0, i64 %_30.1), !dbg !3379
  %74 = extractvalue { ptr, i64 } %73, 0, !dbg !3379
  %75 = extractvalue { ptr, i64 } %73, 1, !dbg !3379
  store ptr %74, ptr %memory, align 8, !dbg !3379
  %76 = getelementptr inbounds i8, ptr %memory, i64 8, !dbg !3379
  store i64 %75, ptr %76, align 8, !dbg !3379
  br label %bb10, !dbg !3380

bb6:                                              ; preds = %bb4
  %_32.0 = load i64, ptr %new_layout, align 8, !dbg !3381, !range !1597, !noundef !23
  %77 = getelementptr inbounds i8, ptr %new_layout, i64 8, !dbg !3381
  %_32.1 = load i64, ptr %77, align 8, !dbg !3381, !noundef !23
; call <alloc::alloc::Global as core::alloc::Allocator>::allocate
  %78 = call { ptr, i64 } @"_ZN63_$LT$alloc..alloc..Global$u20$as$u20$core..alloc..Allocator$GT$8allocate17h8ea346515f5f285bE"(ptr align 1 %alloc, i64 %_32.0, i64 %_32.1), !dbg !3382
  %79 = extractvalue { ptr, i64 } %78, 0, !dbg !3382
  %80 = extractvalue { ptr, i64 } %78, 1, !dbg !3382
  store ptr %79, ptr %memory, align 8, !dbg !3382
  %81 = getelementptr inbounds i8, ptr %memory, i64 8, !dbg !3382
  store i64 %80, ptr %81, align 8, !dbg !3382
  br label %bb10, !dbg !3380

bb10:                                             ; preds = %bb6, %bb7
  %_33.0 = load ptr, ptr %memory, align 8, !dbg !3383, !noundef !23
  %82 = getelementptr inbounds i8, ptr %memory, i64 8, !dbg !3383
  %_33.1 = load i64, ptr %82, align 8, !dbg !3383
  store ptr %new_layout, ptr %_34, align 8, !dbg !3384
  %83 = load ptr, ptr %_34, align 8, !dbg !3383, !nonnull !23, !align !1285, !noundef !23
; call core::result::Result<T,E>::map_err
  call void @"_ZN4core6result19Result$LT$T$C$E$GT$7map_err17h8547d214656065b3E"(ptr sret(%"core::result::Result<core::ptr::non_null::NonNull<[u8]>, alloc::collections::TryReserveError>") align 8 %_0, ptr %_33.0, i64 %_33.1, ptr align 8 %83), !dbg !3383
  br label %bb13, !dbg !3385

bb13:                                             ; preds = %bb12, %bb10
  ret void, !dbg !3385

bb12:                                             ; preds = %bb3, %bb5
  br label %bb13, !dbg !3385

bb17:                                             ; No predecessors!
  unreachable, !dbg !3288
}

; alloc::raw_vec::finish_grow::{{closure}}
; Function Attrs: inlinehint nonlazybind uwtable
define internal { i64, i64 } @"_ZN5alloc7raw_vec11finish_grow28_$u7b$$u7b$closure$u7d$$u7d$17h31ea093d51572a52E"(ptr align 8 %_1) unnamed_addr #2 !dbg !3386 {
start:
  %_2.dbg.spill = alloca %"core::alloc::AllocError", align 1
  %_1.dbg.spill = alloca ptr, align 8
  %self = alloca %"alloc::collections::TryReserveErrorKind", align 8
  %_0 = alloca %"alloc::collections::TryReserveError", align 8
  store ptr %_1, ptr %_1.dbg.spill, align 8
  call void @llvm.dbg.declare(metadata ptr %_1.dbg.spill, metadata !3390, metadata !DIExpression(DW_OP_deref)), !dbg !3392
  call void @llvm.dbg.declare(metadata ptr %_2.dbg.spill, metadata !3391, metadata !DIExpression()), !dbg !3393
  call void @llvm.dbg.declare(metadata ptr %self, metadata !3394, metadata !DIExpression()), !dbg !3398
  call void @llvm.dbg.declare(metadata ptr %self, metadata !3400, metadata !DIExpression()), !dbg !3404
  %_4.0 = load i64, ptr %_1, align 8, !dbg !3406, !range !1597, !noundef !23
  %0 = getelementptr inbounds i8, ptr %_1, i64 8, !dbg !3406
  %_4.1 = load i64, ptr %0, align 8, !dbg !3406, !noundef !23
  store i64 %_4.0, ptr %self, align 8, !dbg !3407
  %1 = getelementptr inbounds i8, ptr %self, i64 8, !dbg !3407
  store i64 %_4.1, ptr %1, align 8, !dbg !3407
  %2 = load i64, ptr %self, align 8, !dbg !3408, !range !1619, !noundef !23
  %3 = getelementptr inbounds i8, ptr %self, i64 8, !dbg !3408
  %4 = load i64, ptr %3, align 8, !dbg !3408
  store i64 %2, ptr %_0, align 8, !dbg !3408
  %5 = getelementptr inbounds i8, ptr %_0, i64 8, !dbg !3408
  store i64 %4, ptr %5, align 8, !dbg !3408
  %6 = load i64, ptr %_0, align 8, !dbg !3409, !range !1619, !noundef !23
  %7 = getelementptr inbounds i8, ptr %_0, i64 8, !dbg !3409
  %8 = load i64, ptr %7, align 8, !dbg !3409
  %9 = insertvalue { i64, i64 } poison, i64 %6, 0, !dbg !3409
  %10 = insertvalue { i64, i64 } %9, i64 %8, 1, !dbg !3409
  ret { i64, i64 } %10, !dbg !3409
}

; alloc::raw_vec::finish_grow::{{closure}}
; Function Attrs: inlinehint nonlazybind uwtable
define internal { i64, i64 } @"_ZN5alloc7raw_vec11finish_grow28_$u7b$$u7b$closure$u7d$$u7d$17h7bbc647a1d959284E"() unnamed_addr #2 !dbg !3410 {
start:
  %_2.dbg.spill = alloca %"core::alloc::layout::LayoutError", align 1
  %_1.dbg.spill = alloca %"{closure@alloc::raw_vec::finish_grow<alloc::alloc::Global>::{closure#0}}", align 1
  call void @llvm.dbg.declare(metadata ptr %_1.dbg.spill, metadata !3414, metadata !DIExpression()), !dbg !3416
  call void @llvm.dbg.declare(metadata ptr %_2.dbg.spill, metadata !3415, metadata !DIExpression()), !dbg !3417
  %_0.0 = load i64, ptr @2, align 8, !dbg !3418, !range !1619, !noundef !23
  %_0.1 = load i64, ptr getelementptr inbounds (i8, ptr @2, i64 8), align 8, !dbg !3418
  %0 = insertvalue { i64, i64 } poison, i64 %_0.0, 0, !dbg !3419
  %1 = insertvalue { i64, i64 } %0, i64 %_0.1, 1, !dbg !3419
  ret { i64, i64 } %1, !dbg !3419
}

; alloc::raw_vec::handle_reserve
; Function Attrs: inlinehint nonlazybind uwtable
define internal void @_ZN5alloc7raw_vec14handle_reserve17h397501b4fa801dccE(i64 %result.0, i64 %result.1) unnamed_addr #2 !dbg !3420 {
start:
  %layout.dbg.spill = alloca %"core::alloc::layout::Layout", align 8
  %result.dbg.spill = alloca %"core::result::Result<(), alloc::collections::TryReserveError>", align 8
  %_2 = alloca %"core::result::Result<(), alloc::collections::TryReserveErrorKind>", align 8
  store i64 %result.0, ptr %result.dbg.spill, align 8
  %0 = getelementptr inbounds i8, ptr %result.dbg.spill, i64 8
  store i64 %result.1, ptr %0, align 8
  call void @llvm.dbg.declare(metadata ptr %result.dbg.spill, metadata !3424, metadata !DIExpression()), !dbg !3427
; call core::result::Result<T,E>::map_err
  %1 = call { i64, i64 } @"_ZN4core6result19Result$LT$T$C$E$GT$7map_err17hc090a3a48f6bee32E"(i64 %result.0, i64 %result.1), !dbg !3428
  %2 = extractvalue { i64, i64 } %1, 0, !dbg !3428
  %3 = extractvalue { i64, i64 } %1, 1, !dbg !3428
  store i64 %2, ptr %_2, align 8, !dbg !3428
  %4 = getelementptr inbounds i8, ptr %_2, i64 8, !dbg !3428
  store i64 %3, ptr %4, align 8, !dbg !3428
  %5 = load i64, ptr %_2, align 8, !dbg !3428, !range !1796, !noundef !23
  %6 = icmp eq i64 %5, -9223372036854775807, !dbg !3428
  %_4 = select i1 %6, i64 0, i64 1, !dbg !3428
  %7 = icmp eq i64 %_4, 0, !dbg !3429
  br i1 %7, label %bb2, label %bb3, !dbg !3429

bb2:                                              ; preds = %start
  ret void, !dbg !3430

bb3:                                              ; preds = %start
  %8 = load i64, ptr %_2, align 8, !dbg !3428, !range !1619, !noundef !23
  %9 = icmp eq i64 %8, 0, !dbg !3428
  %_3 = select i1 %9, i64 0, i64 1, !dbg !3428
  %10 = icmp eq i64 %_3, 0, !dbg !3429
  br i1 %10, label %bb4, label %bb5, !dbg !3429

bb4:                                              ; preds = %bb3
; call alloc::raw_vec::capacity_overflow
  call void @_ZN5alloc7raw_vec17capacity_overflow17hdebe4d61eabe5c80E() #18, !dbg !3431
  unreachable, !dbg !3431

bb5:                                              ; preds = %bb3
  %layout.0 = load i64, ptr %_2, align 8, !dbg !3432, !range !1597, !noundef !23
  %11 = getelementptr inbounds i8, ptr %_2, i64 8, !dbg !3432
  %layout.1 = load i64, ptr %11, align 8, !dbg !3432, !noundef !23
  store i64 %layout.0, ptr %layout.dbg.spill, align 8, !dbg !3432
  %12 = getelementptr inbounds i8, ptr %layout.dbg.spill, i64 8, !dbg !3432
  store i64 %layout.1, ptr %12, align 8, !dbg !3432
  call void @llvm.dbg.declare(metadata ptr %layout.dbg.spill, metadata !3425, metadata !DIExpression()), !dbg !3433
; call alloc::alloc::handle_alloc_error
  call void @_ZN5alloc5alloc18handle_alloc_error17h48039cdfd0d60c1cE(i64 %layout.0, i64 %layout.1) #18, !dbg !3434
  unreachable, !dbg !3434

bb6:                                              ; No predecessors!
  unreachable, !dbg !3429
}

; alloc::raw_vec::handle_reserve::{{closure}}
; Function Attrs: inlinehint nonlazybind uwtable
define internal { i64, i64 } @"_ZN5alloc7raw_vec14handle_reserve28_$u7b$$u7b$closure$u7d$$u7d$17he65b39bc72fde40eE"(i64 %0, i64 %1) unnamed_addr #2 !dbg !3435 {
start:
  %self.dbg.spill2 = alloca ptr, align 8
  %__self_1.dbg.spill = alloca ptr, align 8
  %__self_0.dbg.spill = alloca ptr, align 8
  %self.dbg.spill1 = alloca ptr, align 8
  %self.dbg.spill = alloca ptr, align 8
  %_1.dbg.spill = alloca %"{closure@alloc::raw_vec::handle_reserve::{closure#0}}", align 1
  %_0 = alloca %"alloc::collections::TryReserveErrorKind", align 8
  %e = alloca %"alloc::collections::TryReserveError", align 8
  store i64 %0, ptr %e, align 8
  %2 = getelementptr inbounds i8, ptr %e, i64 8
  store i64 %1, ptr %2, align 8
  call void @llvm.dbg.declare(metadata ptr %_1.dbg.spill, metadata !3440, metadata !DIExpression()), !dbg !3441
  call void @llvm.dbg.declare(metadata ptr %e, metadata !3439, metadata !DIExpression()), !dbg !3442
  store ptr %e, ptr %self.dbg.spill, align 8, !dbg !3443
  call void @llvm.dbg.declare(metadata ptr %self.dbg.spill, metadata !3444, metadata !DIExpression()), !dbg !3452
  store ptr %e, ptr %self.dbg.spill1, align 8, !dbg !3454
  call void @llvm.dbg.declare(metadata ptr %self.dbg.spill1, metadata !3455, metadata !DIExpression()), !dbg !3467
  %3 = load i64, ptr %e, align 8, !dbg !3467, !range !1619, !noundef !23
  %4 = icmp eq i64 %3, 0, !dbg !3467
  %_5 = select i1 %4, i64 0, i64 1, !dbg !3467
  %5 = icmp eq i64 %_5, 0, !dbg !3467
  br i1 %5, label %bb3, label %bb2, !dbg !3467

bb3:                                              ; preds = %start
  %6 = load i64, ptr @2, align 8, !dbg !3467, !range !1619, !noundef !23
  %7 = load i64, ptr getelementptr inbounds (i8, ptr @2, i64 8), align 8, !dbg !3467
  store i64 %6, ptr %_0, align 8, !dbg !3467
  %8 = getelementptr inbounds i8, ptr %_0, i64 8, !dbg !3467
  store i64 %7, ptr %8, align 8, !dbg !3467
  br label %bb1, !dbg !3467

bb2:                                              ; preds = %start
  store ptr %e, ptr %__self_0.dbg.spill, align 8, !dbg !3467
  call void @llvm.dbg.declare(metadata ptr %__self_0.dbg.spill, metadata !3463, metadata !DIExpression()), !dbg !3469
  %__self_1 = getelementptr inbounds i8, ptr %e, i64 16, !dbg !3467
  store ptr %__self_1, ptr %__self_1.dbg.spill, align 8, !dbg !3467
  call void @llvm.dbg.declare(metadata ptr %__self_1.dbg.spill, metadata !3465, metadata !DIExpression()), !dbg !3469
  store ptr %e, ptr %self.dbg.spill2, align 8, !dbg !3469
  call void @llvm.dbg.declare(metadata ptr %self.dbg.spill2, metadata !3470, metadata !DIExpression()), !dbg !3477
  %_8.0 = load i64, ptr %e, align 8, !dbg !3477, !range !1597, !noundef !23
  %9 = getelementptr inbounds i8, ptr %e, i64 8, !dbg !3477
  %_8.1 = load i64, ptr %9, align 8, !dbg !3477, !noundef !23
  store i64 %_8.0, ptr %_0, align 8, !dbg !3469
  %10 = getelementptr inbounds i8, ptr %_0, i64 8, !dbg !3469
  store i64 %_8.1, ptr %10, align 8, !dbg !3469
  br label %bb1, !dbg !3467

bb1:                                              ; preds = %bb2, %bb3
  %11 = load i64, ptr %_0, align 8, !dbg !3479, !range !1619, !noundef !23
  %12 = getelementptr inbounds i8, ptr %_0, i64 8, !dbg !3479
  %13 = load i64, ptr %12, align 8, !dbg !3479
  %14 = insertvalue { i64, i64 } poison, i64 %11, 0, !dbg !3479
  %15 = insertvalue { i64, i64 } %14, i64 %13, 1, !dbg !3479
  ret { i64, i64 } %15, !dbg !3479

bb4:                                              ; No predecessors!
  unreachable, !dbg !3467
}

; alloc::raw_vec::RawVec<T,A>::allocate_in
; Function Attrs: nonlazybind uwtable
define internal { i64, ptr } @"_ZN5alloc7raw_vec19RawVec$LT$T$C$A$GT$11allocate_in17h28be76b99c1b3e3aE"(i64 %capacity, i1 zeroext %0) unnamed_addr #0 personality ptr @rust_eh_personality !dbg !3480 {
start:
  %ptr.dbg.spill4 = alloca ptr, align 8
  %addr.dbg.spill = alloca i64, align 8
  %ptr.dbg.spill3 = alloca ptr, align 8
  %ptr.dbg.spill2 = alloca ptr, align 8
  %ptr.dbg.spill = alloca %"core::ptr::non_null::NonNull<[u8]>", align 8
  %alloc_size.dbg.spill = alloca i64, align 8
  %self.dbg.spill1 = alloca ptr, align 8
  %layout.dbg.spill = alloca %"core::alloc::layout::Layout", align 8
  %1 = alloca { ptr, i32, [1 x i32] }, align 8
  %align.dbg.spill = alloca i64, align 8
  %alloc.dbg.spill = alloca %"alloc::alloc::Global", align 1
  %capacity.dbg.spill = alloca i64, align 8
  %_46 = alloca ptr, align 8
  %_29 = alloca ptr, align 8
  %_28 = alloca ptr, align 8
  %_26 = alloca i64, align 8
  %self = alloca ptr, align 8
  %_23 = alloca ptr, align 8
  %result = alloca %"core::result::Result<core::ptr::non_null::NonNull<[u8]>, core::alloc::AllocError>", align 8
  %_7 = alloca %"core::result::Result<core::alloc::layout::Layout, core::alloc::layout::LayoutError>", align 8
  %layout = alloca %"core::alloc::layout::Layout", align 8
  %_0 = alloca %"alloc::raw_vec::RawVec<u8>", align 8
  %alloc = alloca %"alloc::alloc::Global", align 1
  %init = alloca i8, align 1
  %kind.dbg.spill = alloca %"alloc::collections::TryReserveErrorKind", align 8
  %self.dbg.spill = alloca %"alloc::collections::TryReserveErrorKind", align 8
  %2 = load i64, ptr @2, align 8, !range !1619, !noundef !23
  %3 = load i64, ptr getelementptr inbounds (i8, ptr @2, i64 8), align 8
  store i64 %2, ptr %self.dbg.spill, align 8, !dbg !3498
  %4 = getelementptr inbounds i8, ptr %self.dbg.spill, i64 8, !dbg !3498
  store i64 %3, ptr %4, align 8, !dbg !3498
  call void @llvm.dbg.declare(metadata ptr %self.dbg.spill, metadata !3502, metadata !DIExpression()), !dbg !3498
  %5 = load i64, ptr @2, align 8, !dbg !3498, !range !1619, !noundef !23
  %6 = load i64, ptr getelementptr inbounds (i8, ptr @2, i64 8), align 8, !dbg !3498
  store i64 %5, ptr %kind.dbg.spill, align 8, !dbg !3509
  %7 = getelementptr inbounds i8, ptr %kind.dbg.spill, i64 8, !dbg !3509
  store i64 %6, ptr %7, align 8, !dbg !3509
  call void @llvm.dbg.declare(metadata ptr %kind.dbg.spill, metadata !3513, metadata !DIExpression()), !dbg !3509
  %8 = zext i1 %0 to i8, !dbg !3509
  store i8 %8, ptr %init, align 1, !dbg !3509
  store i64 %capacity, ptr %capacity.dbg.spill, align 8, !dbg !3509
  call void @llvm.dbg.declare(metadata ptr %capacity.dbg.spill, metadata !3485, metadata !DIExpression()), !dbg !3515
  call void @llvm.dbg.declare(metadata ptr %capacity.dbg.spill, metadata !3516, metadata !DIExpression()), !dbg !3523
  call void @llvm.dbg.declare(metadata ptr %init, metadata !3486, metadata !DIExpression()), !dbg !3525
  call void @llvm.dbg.declare(metadata ptr %alloc, metadata !3487, metadata !DIExpression()), !dbg !3526
  call void @llvm.dbg.declare(metadata ptr %alloc.dbg.spill, metadata !3527, metadata !DIExpression()), !dbg !3534
  call void @llvm.dbg.declare(metadata ptr %layout, metadata !3488, metadata !DIExpression()), !dbg !3536
  call void @llvm.dbg.declare(metadata ptr %result, metadata !3492, metadata !DIExpression()), !dbg !3537
  call void @llvm.dbg.declare(metadata ptr %self, metadata !3538, metadata !DIExpression()), !dbg !3542
  br i1 false, label %bb2, label %bb1, !dbg !3544

bb1:                                              ; preds = %start
  %9 = icmp eq i64 %capacity, 0, !dbg !3545
  br i1 %9, label %bb2, label %bb3, !dbg !3545

bb2:                                              ; preds = %bb1, %start
  store i64 1, ptr %addr.dbg.spill, align 8, !dbg !3546
  call void @llvm.dbg.declare(metadata ptr %addr.dbg.spill, metadata !3565, metadata !DIExpression()), !dbg !3569
  store ptr inttoptr (i64 1 to ptr), ptr %ptr.dbg.spill4, align 8, !dbg !3571
  call void @llvm.dbg.declare(metadata ptr %ptr.dbg.spill4, metadata !3556, metadata !DIExpression()), !dbg !3572
  call void @llvm.dbg.declare(metadata ptr %ptr.dbg.spill4, metadata !3573, metadata !DIExpression()), !dbg !3581
  store ptr inttoptr (i64 1 to ptr), ptr %_29, align 8, !dbg !3583
  %10 = load ptr, ptr %_29, align 8, !dbg !3584, !nonnull !23, !noundef !23
  store ptr %10, ptr %_28, align 8, !dbg !3584
  %11 = load ptr, ptr %_28, align 8, !dbg !3585, !nonnull !23, !noundef !23
  %12 = getelementptr inbounds i8, ptr %_0, i64 8, !dbg !3585
  store ptr %11, ptr %12, align 8, !dbg !3585
  store i64 0, ptr %_0, align 8, !dbg !3585
  br label %bb13, !dbg !3586

bb3:                                              ; preds = %bb1
  store i64 1, ptr %align.dbg.spill, align 8, !dbg !3587
  call void @llvm.dbg.declare(metadata ptr %align.dbg.spill, metadata !3596, metadata !DIExpression()), !dbg !3600
; invoke core::alloc::layout::Layout::array::inner
  %13 = invoke { i64, i64 } @_ZN4core5alloc6layout6Layout5array5inner17h99dd24d1fa276847E(i64 1, i64 1, i64 %capacity)
          to label %bb16 unwind label %cleanup, !dbg !3602

bb15:                                             ; preds = %cleanup
  %14 = load ptr, ptr %1, align 8, !dbg !3603, !noundef !23
  %15 = getelementptr inbounds i8, ptr %1, i64 8, !dbg !3603
  %16 = load i32, ptr %15, align 8, !dbg !3603, !noundef !23
  %17 = insertvalue { ptr, i32 } poison, ptr %14, 0, !dbg !3603
  %18 = insertvalue { ptr, i32 } %17, i32 %16, 1, !dbg !3603
  resume { ptr, i32 } %18, !dbg !3603

cleanup:                                          ; preds = %bb4, %bb11, %bb6, %bb7, %bb3
  %19 = landingpad { ptr, i32 }
          cleanup
  %20 = extractvalue { ptr, i32 } %19, 0
  %21 = extractvalue { ptr, i32 } %19, 1
  store ptr %20, ptr %1, align 8
  %22 = getelementptr inbounds i8, ptr %1, i64 8
  store i32 %21, ptr %22, align 8
  br label %bb15

bb16:                                             ; preds = %bb3
  %23 = extractvalue { i64, i64 } %13, 0, !dbg !3602
  %24 = extractvalue { i64, i64 } %13, 1, !dbg !3602
  store i64 %23, ptr %_7, align 8, !dbg !3602
  %25 = getelementptr inbounds i8, ptr %_7, i64 8, !dbg !3602
  store i64 %24, ptr %25, align 8, !dbg !3602
  %26 = load i64, ptr %_7, align 8, !dbg !3524, !range !1619, !noundef !23
  %27 = icmp eq i64 %26, 0, !dbg !3524
  %_8 = select i1 %27, i64 1, i64 0, !dbg !3524
  %28 = icmp eq i64 %_8, 0, !dbg !3604
  br i1 %28, label %bb5, label %bb4, !dbg !3604

bb5:                                              ; preds = %bb16
  %layout.0 = load i64, ptr %_7, align 8, !dbg !3605, !range !1597, !noundef !23
  %29 = getelementptr inbounds i8, ptr %_7, i64 8, !dbg !3605
  %layout.1 = load i64, ptr %29, align 8, !dbg !3605, !noundef !23
  store i64 %layout.0, ptr %layout.dbg.spill, align 8, !dbg !3605
  %30 = getelementptr inbounds i8, ptr %layout.dbg.spill, i64 8, !dbg !3605
  store i64 %layout.1, ptr %30, align 8, !dbg !3605
  call void @llvm.dbg.declare(metadata ptr %layout.dbg.spill, metadata !3490, metadata !DIExpression()), !dbg !3606
  store i64 %layout.0, ptr %layout, align 8, !dbg !3607
  %31 = getelementptr inbounds i8, ptr %layout, i64 8, !dbg !3607
  store i64 %layout.1, ptr %31, align 8, !dbg !3607
  store ptr %layout, ptr %self.dbg.spill1, align 8, !dbg !3608
  call void @llvm.dbg.declare(metadata ptr %self.dbg.spill1, metadata !3609, metadata !DIExpression()), !dbg !3613
  %32 = getelementptr inbounds i8, ptr %layout, i64 8, !dbg !3615
  %alloc_size = load i64, ptr %32, align 8, !dbg !3615, !noundef !23
  store i64 %alloc_size, ptr %alloc_size.dbg.spill, align 8, !dbg !3615
  call void @llvm.dbg.declare(metadata ptr %alloc_size.dbg.spill, metadata !3507, metadata !DIExpression()), !dbg !3616
  %33 = load i8, ptr %init, align 1, !dbg !3617, !range !997, !noundef !23
  %34 = trunc i8 %33 to i1, !dbg !3617
  %_14 = zext i1 %34 to i64, !dbg !3617
  %35 = icmp eq i64 %_14, 0, !dbg !3618
  br i1 %35, label %bb7, label %bb6, !dbg !3618

bb4:                                              ; preds = %bb16
; invoke alloc::raw_vec::capacity_overflow
  invoke void @_ZN5alloc7raw_vec17capacity_overflow17hdebe4d61eabe5c80E() #18
          to label %unreachable unwind label %cleanup, !dbg !3619

bb7:                                              ; preds = %bb5
  %_16.0 = load i64, ptr %layout, align 8, !dbg !3620, !range !1597, !noundef !23
  %36 = getelementptr inbounds i8, ptr %layout, i64 8, !dbg !3620
  %_16.1 = load i64, ptr %36, align 8, !dbg !3620, !noundef !23
; invoke <alloc::alloc::Global as core::alloc::Allocator>::allocate
  %37 = invoke { ptr, i64 } @"_ZN63_$LT$alloc..alloc..Global$u20$as$u20$core..alloc..Allocator$GT$8allocate17h8ea346515f5f285bE"(ptr align 1 %alloc, i64 %_16.0, i64 %_16.1)
          to label %bb8 unwind label %cleanup, !dbg !3621

bb6:                                              ; preds = %bb5
  %_18.0 = load i64, ptr %layout, align 8, !dbg !3622, !range !1597, !noundef !23
  %38 = getelementptr inbounds i8, ptr %layout, i64 8, !dbg !3622
  %_18.1 = load i64, ptr %38, align 8, !dbg !3622, !noundef !23
; invoke <alloc::alloc::Global as core::alloc::Allocator>::allocate_zeroed
  %39 = invoke { ptr, i64 } @"_ZN63_$LT$alloc..alloc..Global$u20$as$u20$core..alloc..Allocator$GT$15allocate_zeroed17hd5a62a74b00ae918E"(ptr align 1 %alloc, i64 %_18.0, i64 %_18.1)
          to label %bb9 unwind label %cleanup, !dbg !3623

bb8:                                              ; preds = %bb7
  %40 = extractvalue { ptr, i64 } %37, 0, !dbg !3621
  %41 = extractvalue { ptr, i64 } %37, 1, !dbg !3621
  store ptr %40, ptr %result, align 8, !dbg !3621
  %42 = getelementptr inbounds i8, ptr %result, i64 8, !dbg !3621
  store i64 %41, ptr %42, align 8, !dbg !3621
  br label %bb10, !dbg !3624

bb10:                                             ; preds = %bb9, %bb8
  %43 = load ptr, ptr %result, align 8, !dbg !3625, !noundef !23
  %44 = ptrtoint ptr %43 to i64, !dbg !3625
  %45 = icmp eq i64 %44, 0, !dbg !3625
  %_19 = select i1 %45, i64 1, i64 0, !dbg !3625
  %46 = icmp eq i64 %_19, 0, !dbg !3626
  br i1 %46, label %bb12, label %bb11, !dbg !3626

bb9:                                              ; preds = %bb6
  %47 = extractvalue { ptr, i64 } %39, 0, !dbg !3623
  %48 = extractvalue { ptr, i64 } %39, 1, !dbg !3623
  store ptr %47, ptr %result, align 8, !dbg !3623
  %49 = getelementptr inbounds i8, ptr %result, i64 8, !dbg !3623
  store i64 %48, ptr %49, align 8, !dbg !3623
  br label %bb10, !dbg !3627

bb12:                                             ; preds = %bb10
  %ptr.0 = load ptr, ptr %result, align 8, !dbg !3628, !nonnull !23, !noundef !23
  %50 = getelementptr inbounds i8, ptr %result, i64 8, !dbg !3628
  %ptr.1 = load i64, ptr %50, align 8, !dbg !3628, !noundef !23
  store ptr %ptr.0, ptr %ptr.dbg.spill, align 8, !dbg !3628
  %51 = getelementptr inbounds i8, ptr %ptr.dbg.spill, i64 8, !dbg !3628
  store i64 %ptr.1, ptr %51, align 8, !dbg !3628
  call void @llvm.dbg.declare(metadata ptr %ptr.dbg.spill, metadata !3494, metadata !DIExpression()), !dbg !3629
  call void @llvm.dbg.declare(metadata ptr %ptr.dbg.spill, metadata !3496, metadata !DIExpression()), !dbg !3630
  call void @llvm.dbg.declare(metadata ptr %ptr.dbg.spill, metadata !3631, metadata !DIExpression()), !dbg !3637
  call void @llvm.dbg.declare(metadata ptr %ptr.dbg.spill, metadata !3639, metadata !DIExpression()), !dbg !3643
  store ptr %ptr.0, ptr %ptr.dbg.spill2, align 8, !dbg !3645
  call void @llvm.dbg.declare(metadata ptr %ptr.dbg.spill2, metadata !3577, metadata !DIExpression()), !dbg !3646
  store ptr %ptr.0, ptr %self, align 8, !dbg !3648
  store ptr %ptr.0, ptr %ptr.dbg.spill3, align 8, !dbg !3649
  call void @llvm.dbg.declare(metadata ptr %ptr.dbg.spill3, metadata !3650, metadata !DIExpression()), !dbg !3657
  call void @llvm.dbg.declare(metadata ptr %ptr.dbg.spill3, metadata !3579, metadata !DIExpression()), !dbg !3659
  store ptr %ptr.0, ptr %_46, align 8, !dbg !3661
  %52 = load ptr, ptr %_46, align 8, !dbg !3662, !nonnull !23, !noundef !23
  store ptr %52, ptr %_23, align 8, !dbg !3662
  store i64 %capacity, ptr %_26, align 8, !dbg !3663
  %53 = load ptr, ptr %_23, align 8, !dbg !3664, !nonnull !23, !noundef !23
  %54 = getelementptr inbounds i8, ptr %_0, i64 8, !dbg !3664
  store ptr %53, ptr %54, align 8, !dbg !3664
  %55 = load i64, ptr %_26, align 8, !dbg !3664, !range !3665, !noundef !23
  store i64 %55, ptr %_0, align 8, !dbg !3664
  br label %bb13, !dbg !3586

bb11:                                             ; preds = %bb10
  %_22.0 = load i64, ptr %layout, align 8, !dbg !3666, !range !1597, !noundef !23
  %56 = getelementptr inbounds i8, ptr %layout, i64 8, !dbg !3666
  %_22.1 = load i64, ptr %56, align 8, !dbg !3666, !noundef !23
; invoke alloc::alloc::handle_alloc_error
  invoke void @_ZN5alloc5alloc18handle_alloc_error17h48039cdfd0d60c1cE(i64 %_22.0, i64 %_22.1) #18
          to label %unreachable unwind label %cleanup, !dbg !3667

bb13:                                             ; preds = %bb2, %bb12
  %57 = load i64, ptr %_0, align 8, !dbg !3668, !range !3665, !noundef !23
  %58 = getelementptr inbounds i8, ptr %_0, i64 8, !dbg !3668
  %59 = load ptr, ptr %58, align 8, !dbg !3668, !nonnull !23, !noundef !23
  %60 = insertvalue { i64, ptr } poison, i64 %57, 0, !dbg !3668
  %61 = insertvalue { i64, ptr } %60, ptr %59, 1, !dbg !3668
  ret { i64, ptr } %61, !dbg !3668

unreachable:                                      ; preds = %bb4, %bb11
  unreachable

bb17:                                             ; No predecessors!
  unreachable, !dbg !3669
}

; alloc::raw_vec::RawVec<T,A>::current_memory
; Function Attrs: nonlazybind uwtable
define internal void @"_ZN5alloc7raw_vec19RawVec$LT$T$C$A$GT$14current_memory17h6c6535c0e5115c81E"(ptr sret(%"core::option::Option<(core::ptr::non_null::NonNull<u8>, core::alloc::layout::Layout)>") align 8 %_0, ptr align 8 %self) unnamed_addr #0 !dbg !3670 {
start:
  %ptr.dbg.spill7 = alloca ptr, align 8
  %ptr.dbg.spill6 = alloca ptr, align 8
  %ptr.dbg.spill = alloca ptr, align 8
  %self.dbg.spill5 = alloca ptr, align 8
  %size.dbg.spill = alloca i64, align 8
  %rhs.dbg.spill = alloca i64, align 8
  %self.dbg.spill3 = alloca i64, align 8
  %align.dbg.spill = alloca i64, align 8
  %self.dbg.spill = alloca ptr, align 8
  %self2 = alloca ptr, align 8
  %self1 = alloca ptr, align 8
  %_10 = alloca ptr, align 8
  %_9 = alloca { ptr, %"core::alloc::layout::Layout" }, align 8
  %layout = alloca %"core::alloc::layout::Layout", align 8
  store ptr %self, ptr %self.dbg.spill, align 8
  call void @llvm.dbg.declare(metadata ptr %self.dbg.spill, metadata !3675, metadata !DIExpression()), !dbg !3682
  call void @llvm.dbg.declare(metadata ptr %layout, metadata !3680, metadata !DIExpression()), !dbg !3683
  call void @llvm.dbg.declare(metadata ptr %self1, metadata !3684, metadata !DIExpression()), !dbg !3692
  call void @llvm.dbg.declare(metadata ptr %self2, metadata !3702, metadata !DIExpression()), !dbg !3710
  call void @llvm.dbg.declare(metadata ptr %self2, metadata !3712, metadata !DIExpression()), !dbg !3719
  call void @llvm.dbg.declare(metadata ptr %self2, metadata !3721, metadata !DIExpression()), !dbg !3725
  call void @llvm.dbg.declare(metadata ptr %self2, metadata !3690, metadata !DIExpression()), !dbg !3727
  br i1 false, label %bb2, label %bb1, !dbg !3729

bb1:                                              ; preds = %start
  %_3 = load i64, ptr %self, align 8, !dbg !3730, !noundef !23
  %0 = icmp eq i64 %_3, 0, !dbg !3730
  br i1 %0, label %bb2, label %bb3, !dbg !3730

bb2:                                              ; preds = %bb1, %start
  %1 = getelementptr inbounds %"core::option::Option<(core::ptr::non_null::NonNull<u8>, core::alloc::layout::Layout)>", ptr %_0, i32 0, i32 1, !dbg !3731
  store i64 0, ptr %1, align 8, !dbg !3731
  br label %bb4, !dbg !3732

bb3:                                              ; preds = %bb1
  store i64 1, ptr %align.dbg.spill, align 8, !dbg !3733
  call void @llvm.dbg.declare(metadata ptr %align.dbg.spill, metadata !3676, metadata !DIExpression()), !dbg !3737
  call void @llvm.dbg.declare(metadata ptr %align.dbg.spill, metadata !3738, metadata !DIExpression()), !dbg !3743
  call void @llvm.dbg.declare(metadata ptr %align.dbg.spill, metadata !3745, metadata !DIExpression()), !dbg !3749
  store i64 1, ptr %self.dbg.spill3, align 8, !dbg !3751
  call void @llvm.dbg.declare(metadata ptr %self.dbg.spill3, metadata !3755, metadata !DIExpression()), !dbg !3761
  %rhs = load i64, ptr %self, align 8, !dbg !3763, !noundef !23
  store i64 %rhs, ptr %rhs.dbg.spill, align 8, !dbg !3763
  call void @llvm.dbg.declare(metadata ptr %rhs.dbg.spill, metadata !3760, metadata !DIExpression()), !dbg !3761
  %size = mul nuw i64 1, %rhs, !dbg !3761
  store i64 %size, ptr %size.dbg.spill, align 8, !dbg !3761
  call void @llvm.dbg.declare(metadata ptr %size.dbg.spill, metadata !3678, metadata !DIExpression()), !dbg !3764
  call void @llvm.dbg.declare(metadata ptr %size.dbg.spill, metadata !3742, metadata !DIExpression()), !dbg !3765
  %2 = getelementptr inbounds i8, ptr %layout, i64 8, !dbg !3766
  store i64 %size, ptr %2, align 8, !dbg !3766
  store i64 1, ptr %layout, align 8, !dbg !3766
  %3 = getelementptr inbounds i8, ptr %self, i64 8, !dbg !3767
  %self4 = load ptr, ptr %3, align 8, !dbg !3767, !nonnull !23, !noundef !23
  store ptr %self4, ptr %self.dbg.spill5, align 8, !dbg !3767
  call void @llvm.dbg.declare(metadata ptr %self.dbg.spill5, metadata !3700, metadata !DIExpression()), !dbg !3768
  call void @llvm.dbg.declare(metadata ptr %self.dbg.spill5, metadata !3769, metadata !DIExpression()), !dbg !3776
  call void @llvm.dbg.declare(metadata ptr %self.dbg.spill5, metadata !3688, metadata !DIExpression()), !dbg !3778
  store ptr %self4, ptr %ptr.dbg.spill, align 8, !dbg !3780
  call void @llvm.dbg.declare(metadata ptr %ptr.dbg.spill, metadata !3781, metadata !DIExpression()), !dbg !3789
  store ptr %self4, ptr %self1, align 8, !dbg !3791
  store ptr %self4, ptr %ptr.dbg.spill6, align 8, !dbg !3792
  call void @llvm.dbg.declare(metadata ptr %ptr.dbg.spill6, metadata !3793, metadata !DIExpression()), !dbg !3797
  call void @llvm.dbg.declare(metadata ptr %ptr.dbg.spill6, metadata !3785, metadata !DIExpression()), !dbg !3799
  store ptr %self4, ptr %self2, align 8, !dbg !3801
  store ptr %self4, ptr %ptr.dbg.spill7, align 8, !dbg !3802
  call void @llvm.dbg.declare(metadata ptr %ptr.dbg.spill7, metadata !3787, metadata !DIExpression()), !dbg !3803
  store ptr %self4, ptr %_10, align 8, !dbg !3805
  %4 = load ptr, ptr %_10, align 8, !dbg !3806, !nonnull !23, !noundef !23
  store ptr %4, ptr %_9, align 8, !dbg !3806
  %5 = load i64, ptr %layout, align 8, !dbg !3806, !range !1597, !noundef !23
  %6 = getelementptr inbounds i8, ptr %layout, i64 8, !dbg !3806
  %7 = load i64, ptr %6, align 8, !dbg !3806, !noundef !23
  %8 = getelementptr inbounds { ptr, %"core::alloc::layout::Layout" }, ptr %_9, i32 0, i32 1, !dbg !3806
  store i64 %5, ptr %8, align 8, !dbg !3806
  %9 = getelementptr inbounds i8, ptr %8, i64 8, !dbg !3806
  store i64 %7, ptr %9, align 8, !dbg !3806
  call void @llvm.memcpy.p0.p0.i64(ptr align 8 %_0, ptr align 8 %_9, i64 24, i1 false), !dbg !3807
  br label %bb4, !dbg !3732

bb4:                                              ; preds = %bb2, %bb3
  ret void, !dbg !3808
}

; alloc::raw_vec::RawVec<T,A>::grow_amortized
; Function Attrs: nonlazybind uwtable
define internal { i64, i64 } @"_ZN5alloc7raw_vec19RawVec$LT$T$C$A$GT$14grow_amortized17h62fb4f6abda6a2fdE"(ptr align 8 %self, i64 %len, i64 %additional) unnamed_addr #0 !dbg !3809 {
start:
  %e.dbg.spill25 = alloca %"alloc::collections::TryReserveErrorKind", align 8
  %e.dbg.spill22 = alloca %"alloc::collections::TryReserveError", align 8
  %ptr.dbg.spill19 = alloca ptr, align 8
  %ptr.dbg.spill18 = alloca ptr, align 8
  %ptr.dbg.spill = alloca %"core::ptr::non_null::NonNull<[u8]>", align 8
  %e.dbg.spill17 = alloca %"alloc::collections::TryReserveError", align 8
  %v.dbg.spill14 = alloca %"core::ptr::non_null::NonNull<[u8]>", align 8
  %new_layout.dbg.spill = alloca %"core::result::Result<core::alloc::layout::Layout, core::alloc::layout::LayoutError>", align 8
  %align.dbg.spill = alloca i64, align 8
  %cap.dbg.spill13 = alloca i64, align 8
  %cap.dbg.spill = alloca i64, align 8
  %v1.dbg.spill11 = alloca i64, align 8
  %required_cap.dbg.spill = alloca i64, align 8
  %e.dbg.spill = alloca %"alloc::collections::TryReserveErrorKind", align 8
  %v.dbg.spill10 = alloca i64, align 8
  %v.dbg.spill = alloca i64, align 8
  %0 = alloca i8, align 1
  %a.dbg.spill8 = alloca i64, align 8
  %b.dbg.spill = alloca i8, align 1
  %a.dbg.spill = alloca i64, align 8
  %additional.dbg.spill = alloca i64, align 8
  %len.dbg.spill = alloca i64, align 8
  %self.dbg.spill2 = alloca ptr, align 8
  %_59 = alloca ptr, align 8
  %_52 = alloca i64, align 8
  %self7 = alloca ptr, align 8
  %_49 = alloca ptr, align 8
  %_48 = alloca %"core::result::Result<core::convert::Infallible, alloc::collections::TryReserveError>::Err", align 8
  %_38 = alloca %"alloc::collections::TryReserveError", align 8
  %_36 = alloca %"core::result::Result<core::convert::Infallible, alloc::collections::TryReserveErrorKind>::Err", align 8
  %residual6 = alloca %"core::result::Result<core::convert::Infallible, alloc::collections::TryReserveError>::Err", align 8
  %_18 = alloca %"core::option::Option<(core::ptr::non_null::NonNull<u8>, core::alloc::layout::Layout)>", align 8
  %self5 = alloca %"core::result::Result<core::ptr::non_null::NonNull<[u8]>, alloc::collections::TryReserveError>", align 8
  %_16 = alloca %"core::ops::control_flow::ControlFlow<core::result::Result<core::convert::Infallible, alloc::collections::TryReserveError>, core::ptr::non_null::NonNull<[u8]>>", align 8
  %residual = alloca %"core::result::Result<core::convert::Infallible, alloc::collections::TryReserveErrorKind>::Err", align 8
  %self4 = alloca %"core::option::Option<usize>", align 8
  %self3 = alloca %"core::result::Result<usize, alloc::collections::TryReserveErrorKind>", align 8
  %_5 = alloca %"core::ops::control_flow::ControlFlow<core::result::Result<core::convert::Infallible, alloc::collections::TryReserveErrorKind>, usize>", align 8
  %_0 = alloca %"core::result::Result<(), alloc::collections::TryReserveError>", align 8
  %self.dbg.spill1 = alloca i64, align 8
  %v1.dbg.spill = alloca i64, align 8
  %err.dbg.spill = alloca %"alloc::collections::TryReserveErrorKind", align 8
  %kind.dbg.spill = alloca %"alloc::collections::TryReserveErrorKind", align 8
  %self.dbg.spill = alloca %"alloc::collections::TryReserveErrorKind", align 8
  %1 = load i64, ptr @2, align 8, !range !1619, !noundef !23
  %2 = load i64, ptr getelementptr inbounds (i8, ptr @2, i64 8), align 8
  store i64 %1, ptr %self.dbg.spill, align 8, !dbg !3835
  %3 = getelementptr inbounds i8, ptr %self.dbg.spill, i64 8, !dbg !3835
  store i64 %2, ptr %3, align 8, !dbg !3835
  call void @llvm.dbg.declare(metadata ptr %self.dbg.spill, metadata !3839, metadata !DIExpression()), !dbg !3835
  %4 = load i64, ptr @2, align 8, !dbg !3835, !range !1619, !noundef !23
  %5 = load i64, ptr getelementptr inbounds (i8, ptr @2, i64 8), align 8, !dbg !3835
  store i64 %4, ptr %kind.dbg.spill, align 8, !dbg !3841
  %6 = getelementptr inbounds i8, ptr %kind.dbg.spill, i64 8, !dbg !3841
  store i64 %5, ptr %6, align 8, !dbg !3841
  call void @llvm.dbg.declare(metadata ptr %kind.dbg.spill, metadata !3845, metadata !DIExpression()), !dbg !3841
  %7 = load i64, ptr @2, align 8, !dbg !3841, !range !1619, !noundef !23
  %8 = load i64, ptr getelementptr inbounds (i8, ptr @2, i64 8), align 8, !dbg !3841
  store i64 %7, ptr %err.dbg.spill, align 8, !dbg !3849
  %9 = getelementptr inbounds i8, ptr %err.dbg.spill, i64 8, !dbg !3849
  store i64 %8, ptr %9, align 8, !dbg !3849
  call void @llvm.dbg.declare(metadata ptr %err.dbg.spill, metadata !3871, metadata !DIExpression()), !dbg !3849
  store i64 8, ptr %v1.dbg.spill, align 8, !dbg !3875
  call void @llvm.dbg.declare(metadata ptr %v1.dbg.spill, metadata !3882, metadata !DIExpression()), !dbg !3875
  store i64 8, ptr %self.dbg.spill1, align 8, !dbg !3885
  call void @llvm.dbg.declare(metadata ptr %self.dbg.spill1, metadata !3893, metadata !DIExpression()), !dbg !3885
  store ptr %self, ptr %self.dbg.spill2, align 8, !dbg !3885
  call void @llvm.dbg.declare(metadata ptr %self.dbg.spill2, metadata !3814, metadata !DIExpression()), !dbg !3898
  call void @llvm.dbg.declare(metadata ptr %self.dbg.spill2, metadata !3899, metadata !DIExpression()), !dbg !3908
  store i64 %len, ptr %len.dbg.spill, align 8, !dbg !3885
  call void @llvm.dbg.declare(metadata ptr %len.dbg.spill, metadata !3815, metadata !DIExpression()), !dbg !3910
  call void @llvm.dbg.declare(metadata ptr %len.dbg.spill, metadata !3911, metadata !DIExpression()), !dbg !3923
  call void @llvm.dbg.declare(metadata ptr %len.dbg.spill, metadata !3925, metadata !DIExpression()), !dbg !3941
  store i64 %additional, ptr %additional.dbg.spill, align 8, !dbg !3885
  call void @llvm.dbg.declare(metadata ptr %additional.dbg.spill, metadata !3816, metadata !DIExpression()), !dbg !3943
  call void @llvm.dbg.declare(metadata ptr %additional.dbg.spill, metadata !3918, metadata !DIExpression()), !dbg !3923
  call void @llvm.dbg.declare(metadata ptr %additional.dbg.spill, metadata !3936, metadata !DIExpression()), !dbg !3941
  call void @llvm.dbg.declare(metadata ptr %self3, metadata !3944, metadata !DIExpression()), !dbg !3969
  call void @llvm.dbg.declare(metadata ptr %self4, metadata !3870, metadata !DIExpression()), !dbg !3971
  call void @llvm.dbg.declare(metadata ptr %residual, metadata !3819, metadata !DIExpression()), !dbg !3972
  call void @llvm.dbg.declare(metadata ptr %residual, metadata !3973, metadata !DIExpression()), !dbg !3982
  call void @llvm.dbg.declare(metadata ptr %self5, metadata !3984, metadata !DIExpression()), !dbg !4008
  call void @llvm.dbg.declare(metadata ptr %residual6, metadata !3831, metadata !DIExpression()), !dbg !4010
  call void @llvm.dbg.declare(metadata ptr %residual6, metadata !4011, metadata !DIExpression()), !dbg !4020
  call void @llvm.dbg.declare(metadata ptr %self7, metadata !4022, metadata !DIExpression()), !dbg !4026
  br i1 false, label %bb1, label %bb2, !dbg !4028

bb2:                                              ; preds = %start
  %10 = call { i64, i1 } @llvm.uadd.with.overflow.i64(i64 %len, i64 %additional), !dbg !3941
  %_27.0 = extractvalue { i64, i1 } %10, 0, !dbg !3941
  %_27.1 = extractvalue { i64, i1 } %10, 1, !dbg !3941
  store i64 %_27.0, ptr %a.dbg.spill, align 8, !dbg !3941
  call void @llvm.dbg.declare(metadata ptr %a.dbg.spill, metadata !3937, metadata !DIExpression()), !dbg !4029
  %11 = zext i1 %_27.1 to i8, !dbg !3941
  store i8 %11, ptr %b.dbg.spill, align 1, !dbg !3941
  call void @llvm.dbg.declare(metadata ptr %b.dbg.spill, metadata !3922, metadata !DIExpression()), !dbg !4030
  call void @llvm.dbg.declare(metadata ptr %b.dbg.spill, metadata !3940, metadata !DIExpression()), !dbg !4029
  store i64 %_27.0, ptr %a.dbg.spill8, align 8, !dbg !4029
  call void @llvm.dbg.declare(metadata ptr %a.dbg.spill8, metadata !3919, metadata !DIExpression()), !dbg !4030
  %12 = call i1 @llvm.expect.i1(i1 %_27.1, i1 false), !dbg !4030
  %13 = zext i1 %12 to i8, !dbg !4030
  store i8 %13, ptr %0, align 1, !dbg !4030
  %14 = load i8, ptr %0, align 1, !dbg !4030, !range !997, !noundef !23
  %_24 = trunc i8 %14 to i1, !dbg !4030
  br i1 %_24, label %bb12, label %bb13, !dbg !4030

bb1:                                              ; preds = %start
  %15 = load i64, ptr @2, align 8, !dbg !4031, !range !1796, !noundef !23
  %16 = load i64, ptr getelementptr inbounds (i8, ptr @2, i64 8), align 8, !dbg !4031
  store i64 %15, ptr %_0, align 8, !dbg !4031
  %17 = getelementptr inbounds i8, ptr %_0, i64 8, !dbg !4031
  store i64 %16, ptr %17, align 8, !dbg !4031
  br label %bb10, !dbg !4032

bb13:                                             ; preds = %bb2
  %18 = getelementptr inbounds i8, ptr %self4, i64 8, !dbg !4030
  store i64 %_27.0, ptr %18, align 8, !dbg !4030
  store i64 1, ptr %self4, align 8, !dbg !4030
  br label %bb14, !dbg !4030

bb12:                                             ; preds = %bb2
  %19 = load i64, ptr @2, align 8, !dbg !4030, !range !1489, !noundef !23
  %20 = load i64, ptr getelementptr inbounds (i8, ptr @2, i64 8), align 8, !dbg !4030
  store i64 %19, ptr %self4, align 8, !dbg !4030
  %21 = getelementptr inbounds i8, ptr %self4, i64 8, !dbg !4030
  store i64 %20, ptr %21, align 8, !dbg !4030
  br label %bb14, !dbg !4030

bb14:                                             ; preds = %bb12, %bb13
  %_31 = load i64, ptr %self4, align 8, !dbg !4034, !range !1489, !noundef !23
  %22 = icmp eq i64 %_31, 0, !dbg !4035
  br i1 %22, label %bb15, label %bb16, !dbg !4035

bb15:                                             ; preds = %bb14
  %23 = load i64, ptr @2, align 8, !dbg !4036, !range !1619, !noundef !23
  %24 = load i64, ptr getelementptr inbounds (i8, ptr @2, i64 8), align 8, !dbg !4036
  store i64 %23, ptr %self3, align 8, !dbg !4036
  %25 = getelementptr inbounds i8, ptr %self3, i64 8, !dbg !4036
  store i64 %24, ptr %25, align 8, !dbg !4036
  br label %bb17, !dbg !4037

bb16:                                             ; preds = %bb14
  %26 = getelementptr inbounds i8, ptr %self4, i64 8, !dbg !4038
  %v = load i64, ptr %26, align 8, !dbg !4038, !noundef !23
  store i64 %v, ptr %v.dbg.spill, align 8, !dbg !4038
  call void @llvm.dbg.declare(metadata ptr %v.dbg.spill, metadata !3872, metadata !DIExpression()), !dbg !4039
  %27 = getelementptr inbounds %"core::result::Result<usize, alloc::collections::TryReserveErrorKind>::Ok", ptr %self3, i32 0, i32 1, !dbg !4040
  store i64 %v, ptr %27, align 8, !dbg !4040
  store i64 -9223372036854775807, ptr %self3, align 8, !dbg !4040
