; ModuleID = '/proj/zyuxuanssf-PG0/nightcore-test/socialnetwork_softbound/DeathStarBench/socialNetwork/gen-cpp/ComposePostService.cpp'
source_filename = "/proj/zyuxuanssf-PG0/nightcore-test/socialnetwork_softbound/DeathStarBench/socialNetwork/gen-cpp/ComposePostService.cpp"
target datalayout = "e-m:e-p270:32:32-p271:32:32-p272:64:64-i64:64-f80:128-n8:16:32:64-S128"
target triple = "x86_64-unknown-linux-gnu"

%"struct.std::piecewise_construct_t" = type { i8 }
%"class.apache::thrift::TOutput" = type { void (i8*)* }
%"class.social_network::ComposePostService_UploadText_args" = type <{ i32 (...)**, i64, %"class.std::__cxx11::basic_string", %"class.std::map", %"struct.social_network::_ComposePostService_UploadText_args__isset", [7 x i8] }>
%"class.std::__cxx11::basic_string" = type { %"struct.std::__cxx11::basic_string<char, std::char_traits<char>, std::allocator<char> >::_Alloc_hider", i64, %union.anon }
%"struct.std::__cxx11::basic_string<char, std::char_traits<char>, std::allocator<char> >::_Alloc_hider" = type { i8* }
%union.anon = type { i64, [8 x i8] }
%"class.std::map" = type { %"class.std::_Rb_tree" }
%"class.std::_Rb_tree" = type { %"struct.std::_Rb_tree<std::__cxx11::basic_string<char>, std::pair<const std::__cxx11::basic_string<char>, std::__cxx11::basic_string<char> >, std::_Select1st<std::pair<const std::__cxx11::basic_string<char>, std::__cxx11::basic_string<char> > >, std::less<std::__cxx11::basic_string<char> >, std::allocator<std::pair<const std::__cxx11::basic_string<char>, std::__cxx11::basic_string<char> > > >::_Rb_tree_impl" }
%"struct.std::_Rb_tree<std::__cxx11::basic_string<char>, std::pair<const std::__cxx11::basic_string<char>, std::__cxx11::basic_string<char> >, std::_Select1st<std::pair<const std::__cxx11::basic_string<char>, std::__cxx11::basic_string<char> > >, std::less<std::__cxx11::basic_string<char> >, std::allocator<std::pair<const std::__cxx11::basic_string<char>, std::__cxx11::basic_string<char> > > >::_Rb_tree_impl" = type { %"struct.std::_Rb_tree_key_compare", %"struct.std::_Rb_tree_header" }
%"struct.std::_Rb_tree_key_compare" = type { %"struct.std::less" }
%"struct.std::less" = type { i8 }
%"struct.std::_Rb_tree_header" = type { %"struct.std::_Rb_tree_node_base", i64 }
%"struct.std::_Rb_tree_node_base" = type { i32, %"struct.std::_Rb_tree_node_base"*, %"struct.std::_Rb_tree_node_base"*, %"struct.std::_Rb_tree_node_base"* }
%"struct.social_network::_ComposePostService_UploadText_args__isset" = type { i8 }
%"class.social_network::ComposePostService_UploadText_pargs" = type { i32 (...)**, i64*, %"class.std::__cxx11::basic_string"*, %"class.std::map"* }
%"class.social_network::ComposePostService_UploadText_result" = type <{ i32 (...)**, %"class.social_network::ServiceException", %"struct.social_network::_ComposePostService_UploadText_result__isset", [7 x i8] }>
%"class.social_network::ServiceException" = type { %"class.apache::thrift::TException", i32, %"class.std::__cxx11::basic_string", %"struct.social_network::_ServiceException__isset", %"class.std::__cxx11::basic_string" }
%"class.apache::thrift::TException" = type { %"class.std::exception", %"class.std::__cxx11::basic_string" }
%"class.std::exception" = type { i32 (...)** }
%"struct.social_network::_ServiceException__isset" = type { i8 }
%"struct.social_network::_ComposePostService_UploadText_result__isset" = type { i8 }
%"class.social_network::ComposePostService_UploadText_presult" = type <{ i32 (...)**, %"class.social_network::ServiceException", %"struct.social_network::_ComposePostService_UploadText_presult__isset", [7 x i8] }>
%"struct.social_network::_ComposePostService_UploadText_presult__isset" = type { i8 }
%"class.social_network::ComposePostService_UploadMedia_args" = type <{ i32 (...)**, i64, %"class.std::vector", %"class.std::map", %"struct.social_network::_ComposePostService_UploadMedia_args__isset", [7 x i8] }>
%"class.std::vector" = type { %"struct.std::_Vector_base" }
%"struct.std::_Vector_base" = type { %"struct.std::_Vector_base<social_network::Media, std::allocator<social_network::Media> >::_Vector_impl" }
%"struct.std::_Vector_base<social_network::Media, std::allocator<social_network::Media> >::_Vector_impl" = type { %"struct.std::_Vector_base<social_network::Media, std::allocator<social_network::Media> >::_Vector_impl_data" }
%"struct.std::_Vector_base<social_network::Media, std::allocator<social_network::Media> >::_Vector_impl_data" = type { %"class.social_network::Media"*, %"class.social_network::Media"*, %"class.social_network::Media"* }
%"class.social_network::Media" = type <{ %"class.apache::thrift::TBase", i64, %"class.std::__cxx11::basic_string", %"struct.social_network::_Media__isset", [7 x i8] }>
%"class.apache::thrift::TBase" = type { i32 (...)** }
%"struct.social_network::_Media__isset" = type { i8 }
%"struct.social_network::_ComposePostService_UploadMedia_args__isset" = type { i8 }
%"class.social_network::ComposePostService_UploadMedia_pargs" = type { i32 (...)**, i64*, %"class.std::vector"*, %"class.std::map"* }
%"class.social_network::ComposePostService_UploadMedia_result" = type <{ i32 (...)**, %"class.social_network::ServiceException", %"struct.social_network::_ComposePostService_UploadMedia_result__isset", [7 x i8] }>
%"struct.social_network::_ComposePostService_UploadMedia_result__isset" = type { i8 }
%"class.social_network::ComposePostService_UploadMedia_presult" = type <{ i32 (...)**, %"class.social_network::ServiceException", %"struct.social_network::_ComposePostService_UploadMedia_presult__isset", [7 x i8] }>
%"struct.social_network::_ComposePostService_UploadMedia_presult__isset" = type { i8 }
%"class.social_network::ComposePostService_UploadUniqueId_args" = type <{ i32 (...)**, i64, i64, i32, [4 x i8], %"class.std::map", %"struct.social_network::_ComposePostService_UploadUniqueId_args__isset", [7 x i8] }>
%"struct.social_network::_ComposePostService_UploadUniqueId_args__isset" = type { i8 }
%"class.social_network::ComposePostService_UploadUniqueId_pargs" = type { i32 (...)**, i64*, i64*, i32*, %"class.std::map"* }
%"class.social_network::ComposePostService_UploadUniqueId_result" = type <{ i32 (...)**, %"class.social_network::ServiceException", %"struct.social_network::_ComposePostService_UploadUniqueId_result__isset", [7 x i8] }>
%"struct.social_network::_ComposePostService_UploadUniqueId_result__isset" = type { i8 }
%"class.social_network::ComposePostService_UploadUniqueId_presult" = type <{ i32 (...)**, %"class.social_network::ServiceException", %"struct.social_network::_ComposePostService_UploadUniqueId_presult__isset", [7 x i8] }>
%"struct.social_network::_ComposePostService_UploadUniqueId_presult__isset" = type { i8 }
%"class.social_network::ComposePostService_UploadCreator_args" = type <{ i32 (...)**, i64, %"class.social_network::Creator", %"class.std::map", %"struct.social_network::_ComposePostService_UploadCreator_args__isset", [7 x i8] }>
%"class.social_network::Creator" = type <{ %"class.apache::thrift::TBase", i64, %"class.std::__cxx11::basic_string", %"struct.social_network::_Creator__isset", [7 x i8] }>
%"struct.social_network::_Creator__isset" = type { i8 }
%"struct.social_network::_ComposePostService_UploadCreator_args__isset" = type { i8 }
%"class.social_network::ComposePostService_UploadCreator_pargs" = type { i32 (...)**, i64*, %"class.social_network::Creator"*, %"class.std::map"* }
%"class.social_network::ComposePostService_UploadCreator_result" = type <{ i32 (...)**, %"class.social_network::ServiceException", %"struct.social_network::_ComposePostService_UploadCreator_result__isset", [7 x i8] }>
%"struct.social_network::_ComposePostService_UploadCreator_result__isset" = type { i8 }
%"class.social_network::ComposePostService_UploadCreator_presult" = type <{ i32 (...)**, %"class.social_network::ServiceException", %"struct.social_network::_ComposePostService_UploadCreator_presult__isset", [7 x i8] }>
%"struct.social_network::_ComposePostService_UploadCreator_presult__isset" = type { i8 }
%"class.social_network::ComposePostService_UploadUrls_args" = type <{ i32 (...)**, i64, %"class.std::vector.6", %"class.std::map", %"struct.social_network::_ComposePostService_UploadUrls_args__isset", [7 x i8] }>
%"class.std::vector.6" = type { %"struct.std::_Vector_base.7" }
%"struct.std::_Vector_base.7" = type { %"struct.std::_Vector_base<social_network::Url, std::allocator<social_network::Url> >::_Vector_impl" }
%"struct.std::_Vector_base<social_network::Url, std::allocator<social_network::Url> >::_Vector_impl" = type { %"struct.std::_Vector_base<social_network::Url, std::allocator<social_network::Url> >::_Vector_impl_data" }
%"struct.std::_Vector_base<social_network::Url, std::allocator<social_network::Url> >::_Vector_impl_data" = type { %"class.social_network::Url"*, %"class.social_network::Url"*, %"class.social_network::Url"* }
%"class.social_network::Url" = type <{ %"class.apache::thrift::TBase", %"class.std::__cxx11::basic_string", %"class.std::__cxx11::basic_string", %"struct.social_network::_Url__isset", [7 x i8] }>
%"struct.social_network::_Url__isset" = type { i8 }
%"struct.social_network::_ComposePostService_UploadUrls_args__isset" = type { i8 }
%"class.social_network::ComposePostService_UploadUrls_pargs" = type { i32 (...)**, i64*, %"class.std::vector.6"*, %"class.std::map"* }
%"class.social_network::ComposePostService_UploadUrls_result" = type <{ i32 (...)**, %"class.social_network::ServiceException", %"struct.social_network::_ComposePostService_UploadUrls_result__isset", [7 x i8] }>
%"struct.social_network::_ComposePostService_UploadUrls_result__isset" = type { i8 }
%"class.social_network::ComposePostService_UploadUrls_presult" = type <{ i32 (...)**, %"class.social_network::ServiceException", %"struct.social_network::_ComposePostService_UploadUrls_presult__isset", [7 x i8] }>
%"struct.social_network::_ComposePostService_UploadUrls_presult__isset" = type { i8 }
%"class.social_network::ComposePostService_UploadUserMentions_args" = type <{ i32 (...)**, i64, %"class.std::vector.12", %"class.std::map", %"struct.social_network::_ComposePostService_UploadUserMentions_args__isset", [7 x i8] }>
%"class.std::vector.12" = type { %"struct.std::_Vector_base.13" }
%"struct.std::_Vector_base.13" = type { %"struct.std::_Vector_base<social_network::UserMention, std::allocator<social_network::UserMention> >::_Vector_impl" }
%"struct.std::_Vector_base<social_network::UserMention, std::allocator<social_network::UserMention> >::_Vector_impl" = type { %"struct.std::_Vector_base<social_network::UserMention, std::allocator<social_network::UserMention> >::_Vector_impl_data" }
%"struct.std::_Vector_base<social_network::UserMention, std::allocator<social_network::UserMention> >::_Vector_impl_data" = type { %"class.social_network::UserMention"*, %"class.social_network::UserMention"*, %"class.social_network::UserMention"* }
%"class.social_network::UserMention" = type <{ %"class.apache::thrift::TBase", i64, %"class.std::__cxx11::basic_string", %"struct.social_network::_UserMention__isset", [7 x i8] }>
%"struct.social_network::_UserMention__isset" = type { i8 }
%"struct.social_network::_ComposePostService_UploadUserMentions_args__isset" = type { i8 }
%"class.social_network::ComposePostService_UploadUserMentions_pargs" = type { i32 (...)**, i64*, %"class.std::vector.12"*, %"class.std::map"* }
%"class.social_network::ComposePostService_UploadUserMentions_result" = type <{ i32 (...)**, %"class.social_network::ServiceException", %"struct.social_network::_ComposePostService_UploadUserMentions_result__isset", [7 x i8] }>
%"struct.social_network::_ComposePostService_UploadUserMentions_result__isset" = type { i8 }
%"class.social_network::ComposePostService_UploadUserMentions_presult" = type <{ i32 (...)**, %"class.social_network::ServiceException", %"struct.social_network::_ComposePostService_UploadUserMentions_presult__isset", [7 x i8] }>
%"struct.social_network::_ComposePostService_UploadUserMentions_presult__isset" = type { i8 }
%"class.apache::thrift::protocol::TProtocol" = type <{ i32 (...)**, %"class.std::shared_ptr", i32, i32, i32, [4 x i8] }>
%"class.std::shared_ptr" = type { %"class.std::__shared_ptr" }
%"class.std::__shared_ptr" = type { %"class.apache::thrift::transport::TTransport"*, %"class.std::__shared_count" }
%"class.apache::thrift::transport::TTransport" = type { i32 (...)** }
%"class.std::__shared_count" = type { %"class.std::_Sp_counted_base"* }
%"class.std::_Sp_counted_base" = type { i32 (...)**, i32, i32 }
%"struct.apache::thrift::protocol::TInputRecursionTracker" = type { %"class.apache::thrift::protocol::TProtocol"* }
%"struct.std::_Rb_tree_iterator.73" = type { %"struct.std::_Rb_tree_node_base"* }
%"struct.std::_Rb_tree_const_iterator" = type { %"struct.std::_Rb_tree_node_base"* }
%"class.std::tuple.74" = type { %"struct.std::_Tuple_impl.75" }
%"struct.std::_Tuple_impl.75" = type { %"struct.std::_Head_base.76" }
%"struct.std::_Head_base.76" = type { %"class.std::__cxx11::basic_string"* }
%"class.std::tuple.61" = type { i8 }
%"struct.std::pair" = type { %"class.std::__cxx11::basic_string", %"class.std::__cxx11::basic_string" }
%"struct.apache::thrift::protocol::TOutputRecursionTracker" = type { %"class.apache::thrift::protocol::TProtocol"* }
%"struct.std::_Rb_tree_node" = type { %"struct.std::_Rb_tree_node_base", %"struct.__gnu_cxx::__aligned_membuf" }
%"struct.__gnu_cxx::__aligned_membuf" = type { [64 x i8] }
%"class.std::allocator.3" = type { i8 }
%"class.__gnu_cxx::__normal_iterator" = type { %"class.social_network::Media"* }
%"class.std::allocator.8" = type { i8 }
%"class.__gnu_cxx::__normal_iterator.11" = type { %"class.social_network::Url"* }
%"class.std::allocator.14" = type { i8 }
%"class.__gnu_cxx::__normal_iterator.17" = type { %"class.social_network::UserMention"* }
%"class.social_network::ComposePostServiceClient" = type { %"class.social_network::ComposePostServiceIf", %"class.std::shared_ptr.18", %"class.std::shared_ptr.18", %"class.apache::thrift::protocol::TProtocol"*, %"class.apache::thrift::protocol::TProtocol"* }
%"class.social_network::ComposePostServiceIf" = type { i32 (...)** }
%"class.std::shared_ptr.18" = type { %"class.std::__shared_ptr.19" }
%"class.std::__shared_ptr.19" = type { %"class.apache::thrift::protocol::TProtocol"*, %"class.std::__shared_count" }
%"class.std::allocator" = type { i8 }
%"class.std::__shared_ptr_access" = type { i8 }
%"class.apache::thrift::TApplicationException" = type <{ %"class.apache::thrift::TException", i32, [4 x i8] }>
%"class.social_network::ComposePostServiceProcessor" = type { %"class.apache::thrift::TDispatchProcessor", %"class.std::shared_ptr.24", %"class.std::map.27" }
%"class.apache::thrift::TDispatchProcessor" = type { %"class.apache::thrift::TProcessor" }
%"class.apache::thrift::TProcessor" = type { i32 (...)**, %"class.std::shared_ptr.21" }
%"class.std::shared_ptr.21" = type { %"class.std::__shared_ptr.22" }
%"class.std::__shared_ptr.22" = type { %"class.apache::thrift::TProcessorEventHandler"*, %"class.std::__shared_count" }
%"class.apache::thrift::TProcessorEventHandler" = type { i32 (...)** }
%"class.std::shared_ptr.24" = type { %"class.std::__shared_ptr.25" }
%"class.std::__shared_ptr.25" = type { %"class.social_network::ComposePostServiceIf"*, %"class.std::__shared_count" }
%"class.std::map.27" = type { %"class.std::_Rb_tree.28" }
%"class.std::_Rb_tree.28" = type { %"struct.std::_Rb_tree<std::__cxx11::basic_string<char>, std::pair<const std::__cxx11::basic_string<char>, void (social_network::ComposePostServiceProcessor::*)(int, apache::thrift::protocol::TProtocol *, apache::thrift::protocol::TProtocol *, void *)>, std::_Select1st<std::pair<const std::__cxx11::basic_string<char>, void (social_network::ComposePostServiceProcessor::*)(int, apache::thrift::protocol::TProtocol *, apache::thrift::protocol::TProtocol *, void *)> >, std::less<std::__cxx11::basic_string<char> >, std::allocator<std::pair<const std::__cxx11::basic_string<char>, void (social_network::ComposePostServiceProcessor::*)(int, apache::thrift::protocol::TProtocol *, apache::thrift::protocol::TProtocol *, void *)> > >::_Rb_tree_impl" }
%"struct.std::_Rb_tree<std::__cxx11::basic_string<char>, std::pair<const std::__cxx11::basic_string<char>, void (social_network::ComposePostServiceProcessor::*)(int, apache::thrift::protocol::TProtocol *, apache::thrift::protocol::TProtocol *, void *)>, std::_Select1st<std::pair<const std::__cxx11::basic_string<char>, void (social_network::ComposePostServiceProcessor::*)(int, apache::thrift::protocol::TProtocol *, apache::thrift::protocol::TProtocol *, void *)> >, std::less<std::__cxx11::basic_string<char> >, std::allocator<std::pair<const std::__cxx11::basic_string<char>, void (social_network::ComposePostServiceProcessor::*)(int, apache::thrift::protocol::TProtocol *, apache::thrift::protocol::TProtocol *, void *)> > >::_Rb_tree_impl" = type { %"struct.std::_Rb_tree_key_compare", %"struct.std::_Rb_tree_header" }
%"struct.std::_Rb_tree_iterator" = type { %"struct.std::_Rb_tree_node_base"* }
%"struct.std::pair.32" = type { %"class.std::__cxx11::basic_string", { i64, i64 } }
%"struct.std::_Rb_tree_node.62" = type { %"struct.std::_Rb_tree_node_base", %"struct.__gnu_cxx::__aligned_membuf.63" }
%"struct.__gnu_cxx::__aligned_membuf.63" = type { [48 x i8] }
%"class.apache::thrift::TProcessorContextFreer" = type { %"class.apache::thrift::TProcessorEventHandler"*, i8*, i8* }
%"class.std::__shared_ptr_access.23" = type { i8 }
%"class.std::__shared_ptr_access.26" = type { i8 }
%"class.std::shared_ptr.38" = type { %"class.std::__shared_ptr.39" }
%"class.std::__shared_ptr.39" = type { %"class.apache::thrift::TProcessor"*, %"class.std::__shared_count" }
%"class.social_network::ComposePostServiceProcessorFactory" = type { %"class.apache::thrift::TProcessorFactory", %"class.std::shared_ptr.35" }
%"class.apache::thrift::TProcessorFactory" = type { i32 (...)** }
%"class.std::shared_ptr.35" = type { %"class.std::__shared_ptr.36" }
%"class.std::__shared_ptr.36" = type { %"class.social_network::ComposePostServiceIfFactory"*, %"class.std::__shared_count" }
%"class.social_network::ComposePostServiceIfFactory" = type { i32 (...)** }
%"struct.apache::thrift::TConnectionInfo" = type { %"class.std::shared_ptr.18", %"class.std::shared_ptr.18", %"class.std::shared_ptr" }
%"class.apache::thrift::ReleaseHandler" = type { %"class.std::shared_ptr.35" }
%"class.std::__shared_ptr_access.37" = type { i8 }
%"class.social_network::ComposePostServiceConcurrentClient" = type { %"class.social_network::ComposePostServiceIf", %"class.std::shared_ptr.18", %"class.std::shared_ptr.18", %"class.apache::thrift::protocol::TProtocol"*, %"class.apache::thrift::protocol::TProtocol"*, %"class.apache::thrift::async::TConcurrentClientSyncInfo" }
%"class.apache::thrift::async::TConcurrentClientSyncInfo" = type <{ i8, [7 x i8], %"class.apache::thrift::concurrency::Mutex", i32, [4 x i8], %"class.std::map.44", %"class.std::vector.52", %"class.apache::thrift::concurrency::Mutex", %"class.apache::thrift::concurrency::Mutex", i8, i8, [2 x i8], i32, %"class.std::__cxx11::basic_string", i32, [4 x i8] }>
%"class.std::map.44" = type { %"class.std::_Rb_tree.45" }
%"class.std::_Rb_tree.45" = type { %"struct.std::_Rb_tree<int, std::pair<const int, std::shared_ptr<apache::thrift::concurrency::Monitor> >, std::_Select1st<std::pair<const int, std::shared_ptr<apache::thrift::concurrency::Monitor> > >, std::less<int>, std::allocator<std::pair<const int, std::shared_ptr<apache::thrift::concurrency::Monitor> > > >::_Rb_tree_impl" }
%"struct.std::_Rb_tree<int, std::pair<const int, std::shared_ptr<apache::thrift::concurrency::Monitor> >, std::_Select1st<std::pair<const int, std::shared_ptr<apache::thrift::concurrency::Monitor> > >, std::less<int>, std::allocator<std::pair<const int, std::shared_ptr<apache::thrift::concurrency::Monitor> > > >::_Rb_tree_impl" = type { %"struct.std::_Rb_tree_key_compare.49", %"struct.std::_Rb_tree_header" }
%"struct.std::_Rb_tree_key_compare.49" = type { %"struct.std::less.50" }
%"struct.std::less.50" = type { i8 }
%"class.std::vector.52" = type { %"struct.std::_Vector_base.53" }
%"struct.std::_Vector_base.53" = type { %"struct.std::_Vector_base<std::shared_ptr<apache::thrift::concurrency::Monitor>, std::allocator<std::shared_ptr<apache::thrift::concurrency::Monitor> > >::_Vector_impl" }
%"struct.std::_Vector_base<std::shared_ptr<apache::thrift::concurrency::Monitor>, std::allocator<std::shared_ptr<apache::thrift::concurrency::Monitor> > >::_Vector_impl" = type { %"struct.std::_Vector_base<std::shared_ptr<apache::thrift::concurrency::Monitor>, std::allocator<std::shared_ptr<apache::thrift::concurrency::Monitor> > >::_Vector_impl_data" }
%"struct.std::_Vector_base<std::shared_ptr<apache::thrift::concurrency::Monitor>, std::allocator<std::shared_ptr<apache::thrift::concurrency::Monitor> > >::_Vector_impl_data" = type { %"class.std::shared_ptr.57"*, %"class.std::shared_ptr.57"*, %"class.std::shared_ptr.57"* }
%"class.std::shared_ptr.57" = type { %"class.std::__shared_ptr.58" }
%"class.std::__shared_ptr.58" = type { %"class.apache::thrift::concurrency::Monitor"*, %"class.std::__shared_count" }
%"class.apache::thrift::concurrency::Monitor" = type { i32 (...)**, %"class.apache::thrift::concurrency::Monitor::Impl"* }
%"class.apache::thrift::concurrency::Monitor::Impl" = type opaque
%"class.apache::thrift::concurrency::Mutex" = type { i32 (...)**, %"class.std::shared_ptr.41" }
%"class.std::shared_ptr.41" = type { %"class.std::__shared_ptr.42" }
%"class.std::__shared_ptr.42" = type { %"class.apache::thrift::concurrency::Mutex::impl"*, %"class.std::__shared_count" }
%"class.apache::thrift::concurrency::Mutex::impl" = type opaque
%"class.apache::thrift::async::TConcurrentSendSentry" = type <{ %"class.apache::thrift::async::TConcurrentClientSyncInfo"*, i8, [7 x i8] }>
%"class.apache::thrift::async::TConcurrentRecvSentry" = type <{ %"class.apache::thrift::async::TConcurrentClientSyncInfo"*, i32, i8, [3 x i8] }>
%"class.apache::thrift::protocol::TProtocolException" = type <{ %"class.apache::thrift::TException", i32, [4 x i8] }>
%"class.std::__shared_ptr_access.20" = type { i8 }
%"class.std::allocator.0" = type { i8 }
%"class.__gnu_cxx::new_allocator.1" = type { i8 }
%"class.__gnu_cxx::new_allocator.4" = type { i8 }
%"class.__gnu_cxx::new_allocator.9" = type { i8 }
%"class.__gnu_cxx::new_allocator.15" = type { i8 }
%"struct.std::_Rb_tree_const_iterator.60" = type { %"struct.std::_Rb_tree_node_base"* }
%"class.std::tuple" = type { %"struct.std::_Tuple_impl" }
%"struct.std::_Tuple_impl" = type { %"struct.std::_Head_base" }
%"struct.std::_Head_base" = type { %"class.std::__cxx11::basic_string"* }
%"class.std::allocator.29" = type { i8 }
%"class.__gnu_cxx::new_allocator.30" = type { i8 }
%"struct.std::pair.64" = type { %"struct.std::_Rb_tree_node_base"*, %"struct.std::_Rb_tree_node_base"* }
%"struct.std::_Select1st" = type { i8 }
%"struct.std::_Index_tuple" = type { i8 }
%"struct.std::_Index_tuple.67" = type { i8 }
%"class.std::__pair_base.33" = type { i8 }
%"class.std::__pair_base.65" = type { i8 }
%"class.std::allocator.54" = type { i8 }
%"class.__gnu_cxx::new_allocator.55" = type { i8 }
%"struct.std::_Rb_tree_node.68" = type { %"struct.std::_Rb_tree_node_base", %"struct.__gnu_cxx::__aligned_membuf.69" }
%"struct.__gnu_cxx::__aligned_membuf.69" = type { [24 x i8] }
%"class.std::allocator.46" = type { i8 }
%"struct.std::pair.70" = type { i32, %"class.std::shared_ptr.57" }
%"class.__gnu_cxx::new_allocator.47" = type { i8 }
%"struct.std::_Select1st.77" = type { i8 }
%"class.std::__pair_base" = type { i8 }
%"class.std::allocator.79" = type { i8 }
%"class.std::allocator.80" = type { i8 }
%"struct.std::__allocated_ptr" = type { %"class.std::allocator.80"*, %"class.std::_Sp_counted_deleter"* }
%"class.std::_Sp_counted_deleter" = type { %"class.std::_Sp_counted_base", %"class.std::_Sp_counted_deleter<social_network::ComposePostServiceIf *, apache::thrift::ReleaseHandler<social_network::ComposePostServiceIfFactory>, std::allocator<void>, __gnu_cxx::_S_atomic>::_Impl" }
%"class.std::_Sp_counted_deleter<social_network::ComposePostServiceIf *, apache::thrift::ReleaseHandler<social_network::ComposePostServiceIfFactory>, std::allocator<void>, __gnu_cxx::_S_atomic>::_Impl" = type { %"struct.std::_Sp_ebo_helper", %"class.social_network::ComposePostServiceIf"* }
%"struct.std::_Sp_ebo_helper" = type { %"class.apache::thrift::ReleaseHandler" }
%"class.__gnu_cxx::new_allocator.81" = type { i8 }
%"class.std::_Mutex_base" = type { i8 }
%"struct.std::_Sp_ebo_helper.83" = type { i8 }
%"class.std::type_info" = type { i32 (...)**, i8* }
%"struct.std::integral_constant" = type { i8 }
%"class.std::__shared_ptr_access.40" = type { i8 }
%"class.std::_Sp_counted_ptr" = type { %"class.std::_Sp_counted_base", %"class.social_network::ComposePostServiceProcessor"* }

$_ZNSt3mapINSt7__cxx1112basic_stringIcSt11char_traitsIcESaIcEEES5_St4lessIS5_ESaISt4pairIKS5_S5_EEED2Ev = comdat any

$_ZN6apache6thrift8protocol22TInputRecursionTrackerC2ERNS1_9TProtocolE = comdat any

$_ZN6apache6thrift8protocol9TProtocol15readStructBeginERNSt7__cxx1112basic_stringIcSt11char_traitsIcESaIcEEE = comdat any

$_ZN6apache6thrift8protocol9TProtocol14readFieldBeginERNSt7__cxx1112basic_stringIcSt11char_traitsIcESaIcEEERNS1_5TTypeERs = comdat any

$_ZN6apache6thrift8protocol9TProtocol7readI64ERl = comdat any

$_ZN6apache6thrift8protocol9TProtocol4skipENS1_5TTypeE = comdat any

$_ZN6apache6thrift8protocol9TProtocol10readStringERNSt7__cxx1112basic_stringIcSt11char_traitsIcESaIcEEE = comdat any

$_ZNSt3mapINSt7__cxx1112basic_stringIcSt11char_traitsIcESaIcEEES5_St4lessIS5_ESaISt4pairIKS5_S5_EEE5clearEv = comdat any

$_ZN6apache6thrift8protocol9TProtocol12readMapBeginERNS1_5TTypeES4_Rj = comdat any

$_ZNSt3mapINSt7__cxx1112basic_stringIcSt11char_traitsIcESaIcEEES5_St4lessIS5_ESaISt4pairIKS5_S5_EEEixERS9_ = comdat any

$_ZN6apache6thrift8protocol9TProtocol10readMapEndEv = comdat any

$_ZN6apache6thrift8protocol9TProtocol12readFieldEndEv = comdat any

$_ZN6apache6thrift8protocol9TProtocol13readStructEndEv = comdat any

$_ZN6apache6thrift8protocol22TInputRecursionTrackerD2Ev = comdat any

$_ZN6apache6thrift8protocol23TOutputRecursionTrackerC2ERNS1_9TProtocolE = comdat any

$_ZN6apache6thrift8protocol9TProtocol16writeStructBeginEPKc = comdat any

$_ZN6apache6thrift8protocol9TProtocol15writeFieldBeginEPKcNS1_5TTypeEs = comdat any

$_ZN6apache6thrift8protocol9TProtocol8writeI64El = comdat any

$_ZN6apache6thrift8protocol9TProtocol13writeFieldEndEv = comdat any

$_ZN6apache6thrift8protocol9TProtocol11writeStringERKNSt7__cxx1112basic_stringIcSt11char_traitsIcESaIcEEE = comdat any

$_ZN6apache6thrift8protocol9TProtocol13writeMapBeginENS1_5TTypeES3_j = comdat any

$_ZNKSt3mapINSt7__cxx1112basic_stringIcSt11char_traitsIcESaIcEEES5_St4lessIS5_ESaISt4pairIKS5_S5_EEE4sizeEv = comdat any

$_ZNSt23_Rb_tree_const_iteratorISt4pairIKNSt7__cxx1112basic_stringIcSt11char_traitsIcESaIcEEES6_EEC2Ev = comdat any

$_ZNKSt3mapINSt7__cxx1112basic_stringIcSt11char_traitsIcESaIcEEES5_St4lessIS5_ESaISt4pairIKS5_S5_EEE5beginEv = comdat any

$_ZStneRKSt23_Rb_tree_const_iteratorISt4pairIKNSt7__cxx1112basic_stringIcSt11char_traitsIcESaIcEEES6_EESB_ = comdat any

$_ZNKSt3mapINSt7__cxx1112basic_stringIcSt11char_traitsIcESaIcEEES5_St4lessIS5_ESaISt4pairIKS5_S5_EEE3endEv = comdat any

$_ZNKSt23_Rb_tree_const_iteratorISt4pairIKNSt7__cxx1112basic_stringIcSt11char_traitsIcESaIcEEES6_EEptEv = comdat any

$_ZNSt23_Rb_tree_const_iteratorISt4pairIKNSt7__cxx1112basic_stringIcSt11char_traitsIcESaIcEEES6_EEppEv = comdat any

$_ZN6apache6thrift8protocol9TProtocol11writeMapEndEv = comdat any

$_ZN6apache6thrift8protocol9TProtocol14writeFieldStopEv = comdat any

$_ZN6apache6thrift8protocol9TProtocol14writeStructEndEv = comdat any

$_ZN6apache6thrift8protocol23TOutputRecursionTrackerD2Ev = comdat any

$_ZNSt6vectorIN14social_network5MediaESaIS1_EED2Ev = comdat any

$_ZNSt6vectorIN14social_network5MediaESaIS1_EE5clearEv = comdat any

$_ZN6apache6thrift8protocol9TProtocol13readListBeginERNS1_5TTypeERj = comdat any

$_ZNSt6vectorIN14social_network5MediaESaIS1_EE6resizeEm = comdat any

$_ZNSt6vectorIN14social_network5MediaESaIS1_EEixEm = comdat any

$_ZN6apache6thrift8protocol9TProtocol11readListEndEv = comdat any

$_ZN6apache6thrift8protocol9TProtocol14writeListBeginENS1_5TTypeEj = comdat any

$_ZNKSt6vectorIN14social_network5MediaESaIS1_EE4sizeEv = comdat any

$_ZN9__gnu_cxx17__normal_iteratorIPKN14social_network5MediaESt6vectorIS2_SaIS2_EEEC2Ev = comdat any

$_ZNKSt6vectorIN14social_network5MediaESaIS1_EE5beginEv = comdat any

$_ZN9__gnu_cxxneIPKN14social_network5MediaESt6vectorIS2_SaIS2_EEEEbRKNS_17__normal_iteratorIT_T0_EESD_ = comdat any

$_ZNKSt6vectorIN14social_network5MediaESaIS1_EE3endEv = comdat any

$_ZNK9__gnu_cxx17__normal_iteratorIPKN14social_network5MediaESt6vectorIS2_SaIS2_EEEdeEv = comdat any

$_ZN9__gnu_cxx17__normal_iteratorIPKN14social_network5MediaESt6vectorIS2_SaIS2_EEEppEv = comdat any

$_ZN6apache6thrift8protocol9TProtocol12writeListEndEv = comdat any

$_ZN6apache6thrift8protocol9TProtocol7readI32ERi = comdat any

$_ZN6apache6thrift8protocol9TProtocol8writeI32Ei = comdat any

$_ZNSt6vectorIN14social_network3UrlESaIS1_EED2Ev = comdat any

$_ZNSt6vectorIN14social_network3UrlESaIS1_EE5clearEv = comdat any

$_ZNSt6vectorIN14social_network3UrlESaIS1_EE6resizeEm = comdat any

$_ZNSt6vectorIN14social_network3UrlESaIS1_EEixEm = comdat any

$_ZNKSt6vectorIN14social_network3UrlESaIS1_EE4sizeEv = comdat any

$_ZN9__gnu_cxx17__normal_iteratorIPKN14social_network3UrlESt6vectorIS2_SaIS2_EEEC2Ev = comdat any

$_ZNKSt6vectorIN14social_network3UrlESaIS1_EE5beginEv = comdat any

$_ZN9__gnu_cxxneIPKN14social_network3UrlESt6vectorIS2_SaIS2_EEEEbRKNS_17__normal_iteratorIT_T0_EESD_ = comdat any

$_ZNKSt6vectorIN14social_network3UrlESaIS1_EE3endEv = comdat any

$_ZNK9__gnu_cxx17__normal_iteratorIPKN14social_network3UrlESt6vectorIS2_SaIS2_EEEdeEv = comdat any

$_ZN9__gnu_cxx17__normal_iteratorIPKN14social_network3UrlESt6vectorIS2_SaIS2_EEEppEv = comdat any

$_ZNSt6vectorIN14social_network11UserMentionESaIS1_EED2Ev = comdat any

$_ZNSt6vectorIN14social_network11UserMentionESaIS1_EE5clearEv = comdat any

$_ZNSt6vectorIN14social_network11UserMentionESaIS1_EE6resizeEm = comdat any

$_ZNSt6vectorIN14social_network11UserMentionESaIS1_EEixEm = comdat any

$_ZNKSt6vectorIN14social_network11UserMentionESaIS1_EE4sizeEv = comdat any

$_ZN9__gnu_cxx17__normal_iteratorIPKN14social_network11UserMentionESt6vectorIS2_SaIS2_EEEC2Ev = comdat any

$_ZNKSt6vectorIN14social_network11UserMentionESaIS1_EE5beginEv = comdat any

$_ZN9__gnu_cxxneIPKN14social_network11UserMentionESt6vectorIS2_SaIS2_EEEEbRKNS_17__normal_iteratorIT_T0_EESD_ = comdat any

$_ZNKSt6vectorIN14social_network11UserMentionESaIS1_EE3endEv = comdat any

$_ZNK9__gnu_cxx17__normal_iteratorIPKN14social_network11UserMentionESt6vectorIS2_SaIS2_EEEdeEv = comdat any

$_ZN9__gnu_cxx17__normal_iteratorIPKN14social_network11UserMentionESt6vectorIS2_SaIS2_EEEppEv = comdat any

$_ZN6apache6thrift8protocol9TProtocol17writeMessageBeginERKNSt7__cxx1112basic_stringIcSt11char_traitsIcESaIcEEENS1_12TMessageTypeEi = comdat any

$_ZN14social_network35ComposePostService_UploadText_pargsC2Ev = comdat any

$_ZN6apache6thrift8protocol9TProtocol15writeMessageEndEv = comdat any

$_ZN6apache6thrift8protocol9TProtocol12getTransportEv = comdat any

$_ZNKSt19__shared_ptr_accessIN6apache6thrift9transport10TTransportELN9__gnu_cxx12_Lock_policyE2ELb0ELb0EEptEv = comdat any

$_ZNSt10shared_ptrIN6apache6thrift9transport10TTransportEED2Ev = comdat any

$_ZN6apache6thrift8protocol9TProtocol16readMessageBeginERNSt7__cxx1112basic_stringIcSt11char_traitsIcESaIcEEERNS1_12TMessageTypeERi = comdat any

$_ZN6apache6thrift21TApplicationExceptionC2Ev = comdat any

$_ZN6apache6thrift8protocol9TProtocol14readMessageEndEv = comdat any

$_ZN6apache6thrift21TApplicationExceptionC2ERKS1_ = comdat any

$_ZN6apache6thrift21TApplicationExceptionD2Ev = comdat any

$_ZN14social_network37ComposePostService_UploadText_presultC2Ev = comdat any

$_ZN14social_network36ComposePostService_UploadMedia_pargsC2Ev = comdat any

$_ZN14social_network38ComposePostService_UploadMedia_presultC2Ev = comdat any

$_ZN14social_network39ComposePostService_UploadUniqueId_pargsC2Ev = comdat any

$_ZN14social_network41ComposePostService_UploadUniqueId_presultC2Ev = comdat any

$_ZN14social_network38ComposePostService_UploadCreator_pargsC2Ev = comdat any

$_ZN14social_network40ComposePostService_UploadCreator_presultC2Ev = comdat any

$_ZN14social_network35ComposePostService_UploadUrls_pargsC2Ev = comdat any

$_ZN14social_network37ComposePostService_UploadUrls_presultC2Ev = comdat any

$_ZN14social_network43ComposePostService_UploadUserMentions_pargsC2Ev = comdat any

$_ZN14social_network45ComposePostService_UploadUserMentions_presultC2Ev = comdat any

$_ZNSt17_Rb_tree_iteratorISt4pairIKNSt7__cxx1112basic_stringIcSt11char_traitsIcESaIcEEEMN14social_network27ComposePostServiceProcessorEFviPN6apache6thrift8protocol9TProtocolESE_PvEEEC2Ev = comdat any

$_ZNSt3mapINSt7__cxx1112basic_stringIcSt11char_traitsIcESaIcEEEMN14social_network27ComposePostServiceProcessorEFviPN6apache6thrift8protocol9TProtocolESC_PvESt4lessIS5_ESaISt4pairIKS5_SF_EEE4findERSJ_ = comdat any

$_ZSteqRKSt17_Rb_tree_iteratorISt4pairIKNSt7__cxx1112basic_stringIcSt11char_traitsIcESaIcEEEMN14social_network27ComposePostServiceProcessorEFviPN6apache6thrift8protocol9TProtocolESE_PvEEESL_ = comdat any

$_ZNSt3mapINSt7__cxx1112basic_stringIcSt11char_traitsIcESaIcEEEMN14social_network27ComposePostServiceProcessorEFviPN6apache6thrift8protocol9TProtocolESC_PvESt4lessIS5_ESaISt4pairIKS5_SF_EEE3endEv = comdat any

$_ZStplIcSt11char_traitsIcESaIcEENSt7__cxx1112basic_stringIT_T0_T1_EEOS8_PKS5_ = comdat any

$_ZStplIcSt11char_traitsIcESaIcEENSt7__cxx1112basic_stringIT_T0_T1_EEPKS5_RKS8_ = comdat any

$_ZN6apache6thrift21TApplicationExceptionC2ENS1_25TApplicationExceptionTypeERKNSt7__cxx1112basic_stringIcSt11char_traitsIcESaIcEEE = comdat any

$_ZNKSt17_Rb_tree_iteratorISt4pairIKNSt7__cxx1112basic_stringIcSt11char_traitsIcESaIcEEEMN14social_network27ComposePostServiceProcessorEFviPN6apache6thrift8protocol9TProtocolESE_PvEEEptEv = comdat any

$_ZNKSt12__shared_ptrIN6apache6thrift22TProcessorEventHandlerELN9__gnu_cxx12_Lock_policyE2EE3getEv = comdat any

$_ZNKSt19__shared_ptr_accessIN6apache6thrift22TProcessorEventHandlerELN9__gnu_cxx12_Lock_policyE2ELb0ELb0EEptEv = comdat any

$_ZN6apache6thrift22TProcessorContextFreerC2EPNS0_22TProcessorEventHandlerEPvPKc = comdat any

$_ZN14social_network34ComposePostService_UploadText_argsC2Ev = comdat any

$_ZN14social_network36ComposePostService_UploadText_resultC2Ev = comdat any

$_ZNKSt19__shared_ptr_accessIN14social_network20ComposePostServiceIfELN9__gnu_cxx12_Lock_policyE2ELb0ELb0EEptEv = comdat any

$_ZN6apache6thrift21TApplicationExceptionC2ERKNSt7__cxx1112basic_stringIcSt11char_traitsIcESaIcEEE = comdat any

$__clang_call_terminate = comdat any

$_ZN6apache6thrift22TProcessorContextFreerD2Ev = comdat any

$_ZN14social_network35ComposePostService_UploadMedia_argsC2Ev = comdat any

$_ZN14social_network37ComposePostService_UploadMedia_resultC2Ev = comdat any

$_ZN14social_network38ComposePostService_UploadUniqueId_argsC2Ev = comdat any

$_ZN14social_network40ComposePostService_UploadUniqueId_resultC2Ev = comdat any

$_ZN14social_network37ComposePostService_UploadCreator_argsC2Ev = comdat any

$_ZN14social_network39ComposePostService_UploadCreator_resultC2Ev = comdat any

$_ZN14social_network34ComposePostService_UploadUrls_argsC2Ev = comdat any

$_ZN14social_network36ComposePostService_UploadUrls_resultC2Ev = comdat any

$_ZN14social_network42ComposePostService_UploadUserMentions_argsC2Ev = comdat any

$_ZN14social_network44ComposePostService_UploadUserMentions_resultC2Ev = comdat any

$_ZN6apache6thrift14ReleaseHandlerIN14social_network27ComposePostServiceIfFactoryEEC2ERKSt10shared_ptrIS3_E = comdat any

$_ZNKSt19__shared_ptr_accessIN14social_network27ComposePostServiceIfFactoryELN9__gnu_cxx12_Lock_policyE2ELb0ELb0EEptEv = comdat any

$_ZN6apache6thrift14ReleaseHandlerIN14social_network27ComposePostServiceIfFactoryEEC2ERKS4_ = comdat any

$_ZNSt10shared_ptrIN14social_network20ComposePostServiceIfEEC2IS1_N6apache6thrift14ReleaseHandlerINS0_27ComposePostServiceIfFactoryEEEvEEPT_T0_ = comdat any

$_ZN6apache6thrift14ReleaseHandlerIN14social_network27ComposePostServiceIfFactoryEED2Ev = comdat any

$_ZNSt10shared_ptrIN14social_network20ComposePostServiceIfEEC2ERKS2_ = comdat any

$_ZN14social_network27ComposePostServiceProcessorC2ESt10shared_ptrINS_20ComposePostServiceIfEE = comdat any

$_ZNSt10shared_ptrIN6apache6thrift10TProcessorEEC2IN14social_network27ComposePostServiceProcessorEvEEPT_ = comdat any

$_ZNSt10shared_ptrIN14social_network20ComposePostServiceIfEED2Ev = comdat any

$_ZNSt10shared_ptrIN6apache6thrift10TProcessorEED2Ev = comdat any

$_ZN6apache6thrift8protocol18TProtocolExceptionC2ENS2_22TProtocolExceptionTypeE = comdat any

$_ZN6apache6thrift8protocol18TProtocolExceptionD2Ev = comdat any

$_ZN14social_network24ComposePostServiceClientD1Ev = comdat any

$_ZN14social_network24ComposePostServiceClientD0Ev = comdat any

$_ZN14social_network27ComposePostServiceProcessorD2Ev = comdat any

$_ZN14social_network27ComposePostServiceProcessorD0Ev = comdat any

$_ZN6apache6thrift18TDispatchProcessor7processESt10shared_ptrINS0_8protocol9TProtocolEES5_Pv = comdat any

$_ZN14social_network34ComposePostServiceProcessorFactoryD2Ev = comdat any

$_ZN14social_network34ComposePostServiceProcessorFactoryD0Ev = comdat any

$_ZN14social_network34ComposePostServiceConcurrentClientD1Ev = comdat any

$_ZN14social_network34ComposePostServiceConcurrentClientD0Ev = comdat any

$_ZNSt8_Rb_treeINSt7__cxx1112basic_stringIcSt11char_traitsIcESaIcEEESt4pairIKS5_S5_ESt10_Select1stIS8_ESt4lessIS5_ESaIS8_EED2Ev = comdat any

$_ZNSt8_Rb_treeINSt7__cxx1112basic_stringIcSt11char_traitsIcESaIcEEESt4pairIKS5_S5_ESt10_Select1stIS8_ESt4lessIS5_ESaIS8_EE8_M_eraseEPSt13_Rb_tree_nodeIS8_E = comdat any

$_ZNSt8_Rb_treeINSt7__cxx1112basic_stringIcSt11char_traitsIcESaIcEEESt4pairIKS5_S5_ESt10_Select1stIS8_ESt4lessIS5_ESaIS8_EE8_M_beginEv = comdat any

$_ZNSt8_Rb_treeINSt7__cxx1112basic_stringIcSt11char_traitsIcESaIcEEESt4pairIKS5_S5_ESt10_Select1stIS8_ESt4lessIS5_ESaIS8_EE13_Rb_tree_implISC_Lb1EED2Ev = comdat any

$_ZNSt8_Rb_treeINSt7__cxx1112basic_stringIcSt11char_traitsIcESaIcEEESt4pairIKS5_S5_ESt10_Select1stIS8_ESt4lessIS5_ESaIS8_EE8_S_rightEPSt18_Rb_tree_node_base = comdat any

$_ZNSt8_Rb_treeINSt7__cxx1112basic_stringIcSt11char_traitsIcESaIcEEESt4pairIKS5_S5_ESt10_Select1stIS8_ESt4lessIS5_ESaIS8_EE7_S_leftEPSt18_Rb_tree_node_base = comdat any

$_ZNSt8_Rb_treeINSt7__cxx1112basic_stringIcSt11char_traitsIcESaIcEEESt4pairIKS5_S5_ESt10_Select1stIS8_ESt4lessIS5_ESaIS8_EE12_M_drop_nodeEPSt13_Rb_tree_nodeIS8_E = comdat any

$_ZNSt8_Rb_treeINSt7__cxx1112basic_stringIcSt11char_traitsIcESaIcEEESt4pairIKS5_S5_ESt10_Select1stIS8_ESt4lessIS5_ESaIS8_EE15_M_destroy_nodeEPSt13_Rb_tree_nodeIS8_E = comdat any

$_ZNSt8_Rb_treeINSt7__cxx1112basic_stringIcSt11char_traitsIcESaIcEEESt4pairIKS5_S5_ESt10_Select1stIS8_ESt4lessIS5_ESaIS8_EE11_M_put_nodeEPSt13_Rb_tree_nodeIS8_E = comdat any

$_ZNSt16allocator_traitsISaISt13_Rb_tree_nodeISt4pairIKNSt7__cxx1112basic_stringIcSt11char_traitsIcESaIcEEES7_EEEE7destroyIS9_EEvRSB_PT_ = comdat any

$_ZNSt8_Rb_treeINSt7__cxx1112basic_stringIcSt11char_traitsIcESaIcEEESt4pairIKS5_S5_ESt10_Select1stIS8_ESt4lessIS5_ESaIS8_EE21_M_get_Node_allocatorEv = comdat any

$_ZNSt13_Rb_tree_nodeISt4pairIKNSt7__cxx1112basic_stringIcSt11char_traitsIcESaIcEEES6_EE9_M_valptrEv = comdat any

$_ZN9__gnu_cxx13new_allocatorISt13_Rb_tree_nodeISt4pairIKNSt7__cxx1112basic_stringIcSt11char_traitsIcESaIcEEES8_EEE7destroyISA_EEvPT_ = comdat any

$_ZNSt4pairIKNSt7__cxx1112basic_stringIcSt11char_traitsIcESaIcEEES5_ED2Ev = comdat any

$_ZN9__gnu_cxx16__aligned_membufISt4pairIKNSt7__cxx1112basic_stringIcSt11char_traitsIcESaIcEEES7_EE6_M_ptrEv = comdat any

$_ZN9__gnu_cxx16__aligned_membufISt4pairIKNSt7__cxx1112basic_stringIcSt11char_traitsIcESaIcEEES7_EE7_M_addrEv = comdat any

$_ZNSt16allocator_traitsISaISt13_Rb_tree_nodeISt4pairIKNSt7__cxx1112basic_stringIcSt11char_traitsIcESaIcEEES7_EEEE10deallocateERSB_PSA_m = comdat any

$_ZN9__gnu_cxx13new_allocatorISt13_Rb_tree_nodeISt4pairIKNSt7__cxx1112basic_stringIcSt11char_traitsIcESaIcEEES8_EEE10deallocateEPSB_m = comdat any

$_ZNSaISt13_Rb_tree_nodeISt4pairIKNSt7__cxx1112basic_stringIcSt11char_traitsIcESaIcEEES6_EEED2Ev = comdat any

$_ZN9__gnu_cxx13new_allocatorISt13_Rb_tree_nodeISt4pairIKNSt7__cxx1112basic_stringIcSt11char_traitsIcESaIcEEES8_EEED2Ev = comdat any

$_ZN6apache6thrift8protocol9TProtocol28incrementInputRecursionDepthEv = comdat any

$_ZN6apache6thrift8protocol9TProtocol28decrementInputRecursionDepthEv = comdat any

$_ZN6apache6thrift8protocol9TProtocol29incrementOutputRecursionDepthEv = comdat any

$_ZN6apache6thrift8protocol9TProtocol29decrementOutputRecursionDepthEv = comdat any

$_ZNSt10shared_ptrIN6apache6thrift9transport10TTransportEEC2ERKS4_ = comdat any

$_ZNSt12__shared_ptrIN6apache6thrift9transport10TTransportELN9__gnu_cxx12_Lock_policyE2EEC2ERKS6_ = comdat any

$_ZNSt14__shared_countILN9__gnu_cxx12_Lock_policyE2EEC2ERKS2_ = comdat any

$_ZNSt16_Sp_counted_baseILN9__gnu_cxx12_Lock_policyE2EE15_M_add_ref_copyEv = comdat any

$_ZNSt12__shared_ptrIN6apache6thrift9transport10TTransportELN9__gnu_cxx12_Lock_policyE2EED2Ev = comdat any

$_ZNSt14__shared_countILN9__gnu_cxx12_Lock_policyE2EED2Ev = comdat any

$_ZNSt16_Sp_counted_baseILN9__gnu_cxx12_Lock_policyE2EE10_M_releaseEv = comdat any

$_ZN6apache6thrift10TExceptionC2Ev = comdat any

$_ZN6apache6thrift21TApplicationExceptionD0Ev = comdat any

$_ZNK6apache6thrift21TApplicationException4whatEv = comdat any

$_ZNSt9exceptionC2Ev = comdat any

$_ZN6apache6thrift10TExceptionD2Ev = comdat any

$_ZN6apache6thrift10TExceptionD0Ev = comdat any

$_ZNK6apache6thrift10TException4whatEv = comdat any

$_ZN6apache6thrift10TExceptionC2ERKS1_ = comdat any

$_ZNSt9exceptionC2ERKS_ = comdat any

$_ZN14social_network16ServiceExceptionC2Ev = comdat any

$_ZN14social_network45_ComposePostService_UploadText_presult__issetC2Ev = comdat any

$_ZN14social_network24_ServiceException__issetC2Ev = comdat any

$_ZN14social_network46_ComposePostService_UploadMedia_presult__issetC2Ev = comdat any

$_ZN14social_network49_ComposePostService_UploadUniqueId_presult__issetC2Ev = comdat any

$_ZN14social_network48_ComposePostService_UploadCreator_presult__issetC2Ev = comdat any

$_ZN14social_network45_ComposePostService_UploadUrls_presult__issetC2Ev = comdat any

$_ZN14social_network53_ComposePostService_UploadUserMentions_presult__issetC2Ev = comdat any

$_ZN6apache6thrift10TExceptionC2ERKNSt7__cxx1112basic_stringIcSt11char_traitsIcESaIcEEE = comdat any

$_ZNSt3mapINSt7__cxx1112basic_stringIcSt11char_traitsIcESaIcEEES5_St4lessIS5_ESaISt4pairIKS5_S5_EEEC2Ev = comdat any

$_ZN14social_network42_ComposePostService_UploadText_args__issetC2Ev = comdat any

$_ZNSt8_Rb_treeINSt7__cxx1112basic_stringIcSt11char_traitsIcESaIcEEESt4pairIKS5_S5_ESt10_Select1stIS8_ESt4lessIS5_ESaIS8_EEC2Ev = comdat any

$_ZNSt8_Rb_treeINSt7__cxx1112basic_stringIcSt11char_traitsIcESaIcEEESt4pairIKS5_S5_ESt10_Select1stIS8_ESt4lessIS5_ESaIS8_EE13_Rb_tree_implISC_Lb1EEC2Ev = comdat any

$_ZNSaISt13_Rb_tree_nodeISt4pairIKNSt7__cxx1112basic_stringIcSt11char_traitsIcESaIcEEES6_EEEC2Ev = comdat any

$_ZNSt20_Rb_tree_key_compareISt4lessINSt7__cxx1112basic_stringIcSt11char_traitsIcESaIcEEEEEC2Ev = comdat any

$_ZNSt15_Rb_tree_headerC2Ev = comdat any

$_ZN9__gnu_cxx13new_allocatorISt13_Rb_tree_nodeISt4pairIKNSt7__cxx1112basic_stringIcSt11char_traitsIcESaIcEEES8_EEEC2Ev = comdat any

$_ZNSt15_Rb_tree_header8_M_resetEv = comdat any

$_ZN14social_network44_ComposePostService_UploadText_result__issetC2Ev = comdat any

$_ZNSt6vectorIN14social_network5MediaESaIS1_EEC2Ev = comdat any

$_ZN14social_network43_ComposePostService_UploadMedia_args__issetC2Ev = comdat any

$_ZNSt12_Vector_baseIN14social_network5MediaESaIS1_EEC2Ev = comdat any

$_ZNSt12_Vector_baseIN14social_network5MediaESaIS1_EE12_Vector_implC2Ev = comdat any

$_ZNSaIN14social_network5MediaEEC2Ev = comdat any

$_ZNSt12_Vector_baseIN14social_network5MediaESaIS1_EE17_Vector_impl_dataC2Ev = comdat any

$_ZN9__gnu_cxx13new_allocatorIN14social_network5MediaEEC2Ev = comdat any

$_ZN14social_network45_ComposePostService_UploadMedia_result__issetC2Ev = comdat any

$_ZN14social_network46_ComposePostService_UploadUniqueId_args__issetC2Ev = comdat any

$_ZN14social_network48_ComposePostService_UploadUniqueId_result__issetC2Ev = comdat any

$_ZN14social_network7CreatorC1Ev = comdat any

$_ZN14social_network45_ComposePostService_UploadCreator_args__issetC2Ev = comdat any

$_ZN6apache6thrift5TBaseC2Ev = comdat any

$_ZN14social_network15_Creator__issetC2Ev = comdat any

$_ZN6apache6thrift5TBaseD2Ev = comdat any

$_ZN6apache6thrift5TBaseD0Ev = comdat any

$_ZN14social_network47_ComposePostService_UploadCreator_result__issetC2Ev = comdat any

$_ZNSt6vectorIN14social_network3UrlESaIS1_EEC2Ev = comdat any

$_ZN14social_network42_ComposePostService_UploadUrls_args__issetC2Ev = comdat any

$_ZNSt12_Vector_baseIN14social_network3UrlESaIS1_EEC2Ev = comdat any

$_ZNSt12_Vector_baseIN14social_network3UrlESaIS1_EE12_Vector_implC2Ev = comdat any

$_ZNSaIN14social_network3UrlEEC2Ev = comdat any

$_ZNSt12_Vector_baseIN14social_network3UrlESaIS1_EE17_Vector_impl_dataC2Ev = comdat any

$_ZN9__gnu_cxx13new_allocatorIN14social_network3UrlEEC2Ev = comdat any

$_ZN14social_network44_ComposePostService_UploadUrls_result__issetC2Ev = comdat any

$_ZNSt6vectorIN14social_network11UserMentionESaIS1_EEC2Ev = comdat any

$_ZN14social_network50_ComposePostService_UploadUserMentions_args__issetC2Ev = comdat any

$_ZNSt12_Vector_baseIN14social_network11UserMentionESaIS1_EEC2Ev = comdat any

$_ZNSt12_Vector_baseIN14social_network11UserMentionESaIS1_EE12_Vector_implC2Ev = comdat any

$_ZNSaIN14social_network11UserMentionEEC2Ev = comdat any

$_ZNSt12_Vector_baseIN14social_network11UserMentionESaIS1_EE17_Vector_impl_dataC2Ev = comdat any

$_ZN9__gnu_cxx13new_allocatorIN14social_network11UserMentionEEC2Ev = comdat any

$_ZN14social_network52_ComposePostService_UploadUserMentions_result__issetC2Ev = comdat any

$_ZNSt10shared_ptrIN14social_network27ComposePostServiceIfFactoryEEC2ERKS2_ = comdat any

$_ZNSt12__shared_ptrIN14social_network27ComposePostServiceIfFactoryELN9__gnu_cxx12_Lock_policyE2EEC2ERKS4_ = comdat any

$_ZNSt10shared_ptrIN14social_network27ComposePostServiceIfFactoryEED2Ev = comdat any

$_ZNSt12__shared_ptrIN14social_network27ComposePostServiceIfFactoryELN9__gnu_cxx12_Lock_policyE2EED2Ev = comdat any

$_ZNSt12__shared_ptrIN14social_network20ComposePostServiceIfELN9__gnu_cxx12_Lock_policyE2EEC2ERKS4_ = comdat any

$_ZN6apache6thrift18TDispatchProcessorC2Ev = comdat any

$_ZNSt3mapINSt7__cxx1112basic_stringIcSt11char_traitsIcESaIcEEEMN14social_network27ComposePostServiceProcessorEFviPN6apache6thrift8protocol9TProtocolESC_PvESt4lessIS5_ESaISt4pairIKS5_SF_EEEC2Ev = comdat any

$_ZNSt3mapINSt7__cxx1112basic_stringIcSt11char_traitsIcESaIcEEEMN14social_network27ComposePostServiceProcessorEFviPN6apache6thrift8protocol9TProtocolESC_PvESt4lessIS5_ESaISt4pairIKS5_SF_EEEixEOS5_ = comdat any

$_ZNSt3mapINSt7__cxx1112basic_stringIcSt11char_traitsIcESaIcEEEMN14social_network27ComposePostServiceProcessorEFviPN6apache6thrift8protocol9TProtocolESC_PvESt4lessIS5_ESaISt4pairIKS5_SF_EEED2Ev = comdat any

$_ZN6apache6thrift10TProcessorC2Ev = comdat any

$_ZN6apache6thrift18TDispatchProcessorD2Ev = comdat any

$_ZN6apache6thrift18TDispatchProcessorD0Ev = comdat any

$_ZNSt10shared_ptrIN6apache6thrift22TProcessorEventHandlerEEC2Ev = comdat any

$_ZN6apache6thrift10TProcessorD2Ev = comdat any

$_ZN6apache6thrift10TProcessorD0Ev = comdat any

$_ZNSt12__shared_ptrIN6apache6thrift22TProcessorEventHandlerELN9__gnu_cxx12_Lock_policyE2EEC2Ev = comdat any

$_ZNSt14__shared_countILN9__gnu_cxx12_Lock_policyE2EEC2Ev = comdat any

$_ZNSt10shared_ptrIN6apache6thrift22TProcessorEventHandlerEED2Ev = comdat any

$_ZNSt12__shared_ptrIN6apache6thrift22TProcessorEventHandlerELN9__gnu_cxx12_Lock_policyE2EED2Ev = comdat any

$_ZNSt8_Rb_treeINSt7__cxx1112basic_stringIcSt11char_traitsIcESaIcEEESt4pairIKS5_MN14social_network27ComposePostServiceProcessorEFviPN6apache6thrift8protocol9TProtocolESE_PvEESt10_Select1stISI_ESt4lessIS5_ESaISI_EEC2Ev = comdat any

$_ZNSt8_Rb_treeINSt7__cxx1112basic_stringIcSt11char_traitsIcESaIcEEESt4pairIKS5_MN14social_network27ComposePostServiceProcessorEFviPN6apache6thrift8protocol9TProtocolESE_PvEESt10_Select1stISI_ESt4lessIS5_ESaISI_EE13_Rb_tree_implISM_Lb1EEC2Ev = comdat any

$_ZNSaISt13_Rb_tree_nodeISt4pairIKNSt7__cxx1112basic_stringIcSt11char_traitsIcESaIcEEEMN14social_network27ComposePostServiceProcessorEFviPN6apache6thrift8protocol9TProtocolESE_PvEEEEC2Ev = comdat any

$_ZN9__gnu_cxx13new_allocatorISt13_Rb_tree_nodeISt4pairIKNSt7__cxx1112basic_stringIcSt11char_traitsIcESaIcEEEMN14social_network27ComposePostServiceProcessorEFviPN6apache6thrift8protocol9TProtocolESG_PvEEEEC2Ev = comdat any

$_ZNSt3mapINSt7__cxx1112basic_stringIcSt11char_traitsIcESaIcEEEMN14social_network27ComposePostServiceProcessorEFviPN6apache6thrift8protocol9TProtocolESC_PvESt4lessIS5_ESaISt4pairIKS5_SF_EEE11lower_boundERSJ_ = comdat any

$_ZNKSt3mapINSt7__cxx1112basic_stringIcSt11char_traitsIcESaIcEEEMN14social_network27ComposePostServiceProcessorEFviPN6apache6thrift8protocol9TProtocolESC_PvESt4lessIS5_ESaISt4pairIKS5_SF_EEE8key_compEv = comdat any

$_ZNKSt4lessINSt7__cxx1112basic_stringIcSt11char_traitsIcESaIcEEEEclERKS5_S8_ = comdat any

$_ZNKSt17_Rb_tree_iteratorISt4pairIKNSt7__cxx1112basic_stringIcSt11char_traitsIcESaIcEEEMN14social_network27ComposePostServiceProcessorEFviPN6apache6thrift8protocol9TProtocolESE_PvEEEdeEv = comdat any

$_ZNSt8_Rb_treeINSt7__cxx1112basic_stringIcSt11char_traitsIcESaIcEEESt4pairIKS5_MN14social_network27ComposePostServiceProcessorEFviPN6apache6thrift8protocol9TProtocolESE_PvEESt10_Select1stISI_ESt4lessIS5_ESaISI_EE22_M_emplace_hint_uniqueIJRKSt21piecewise_construct_tSt5tupleIJOS5_EEST_IJEEEEESt17_Rb_tree_iteratorISI_ESt23_Rb_tree_const_iteratorISI_EDpOT_ = comdat any

$_ZNSt23_Rb_tree_const_iteratorISt4pairIKNSt7__cxx1112basic_stringIcSt11char_traitsIcESaIcEEEMN14social_network27ComposePostServiceProcessorEFviPN6apache6thrift8protocol9TProtocolESE_PvEEEC2ERKSt17_Rb_tree_iteratorISI_E = comdat any

$_ZSt16forward_as_tupleIJNSt7__cxx1112basic_stringIcSt11char_traitsIcESaIcEEEEESt5tupleIJDpOT_EES9_ = comdat any

$_ZSt4moveIRNSt7__cxx1112basic_stringIcSt11char_traitsIcESaIcEEEEONSt16remove_referenceIT_E4typeEOS8_ = comdat any

$_ZNSt8_Rb_treeINSt7__cxx1112basic_stringIcSt11char_traitsIcESaIcEEESt4pairIKS5_MN14social_network27ComposePostServiceProcessorEFviPN6apache6thrift8protocol9TProtocolESE_PvEESt10_Select1stISI_ESt4lessIS5_ESaISI_EE11lower_boundERS7_ = comdat any

$_ZNSt8_Rb_treeINSt7__cxx1112basic_stringIcSt11char_traitsIcESaIcEEESt4pairIKS5_MN14social_network27ComposePostServiceProcessorEFviPN6apache6thrift8protocol9TProtocolESE_PvEESt10_Select1stISI_ESt4lessIS5_ESaISI_EE14_M_lower_boundEPSt13_Rb_tree_nodeISI_EPSt18_Rb_tree_node_baseRS7_ = comdat any

$_ZNSt8_Rb_treeINSt7__cxx1112basic_stringIcSt11char_traitsIcESaIcEEESt4pairIKS5_MN14social_network27ComposePostServiceProcessorEFviPN6apache6thrift8protocol9TProtocolESE_PvEESt10_Select1stISI_ESt4lessIS5_ESaISI_EE8_M_beginEv = comdat any

$_ZNSt8_Rb_treeINSt7__cxx1112basic_stringIcSt11char_traitsIcESaIcEEESt4pairIKS5_MN14social_network27ComposePostServiceProcessorEFviPN6apache6thrift8protocol9TProtocolESE_PvEESt10_Select1stISI_ESt4lessIS5_ESaISI_EE6_M_endEv = comdat any

$_ZNSt8_Rb_treeINSt7__cxx1112basic_stringIcSt11char_traitsIcESaIcEEESt4pairIKS5_MN14social_network27ComposePostServiceProcessorEFviPN6apache6thrift8protocol9TProtocolESE_PvEESt10_Select1stISI_ESt4lessIS5_ESaISI_EE6_S_keyEPKSt13_Rb_tree_nodeISI_E = comdat any

$_ZNSt8_Rb_treeINSt7__cxx1112basic_stringIcSt11char_traitsIcESaIcEEESt4pairIKS5_MN14social_network27ComposePostServiceProcessorEFviPN6apache6thrift8protocol9TProtocolESE_PvEESt10_Select1stISI_ESt4lessIS5_ESaISI_EE7_S_leftEPSt18_Rb_tree_node_base = comdat any

$_ZNSt8_Rb_treeINSt7__cxx1112basic_stringIcSt11char_traitsIcESaIcEEESt4pairIKS5_MN14social_network27ComposePostServiceProcessorEFviPN6apache6thrift8protocol9TProtocolESE_PvEESt10_Select1stISI_ESt4lessIS5_ESaISI_EE8_S_rightEPSt18_Rb_tree_node_base = comdat any

$_ZNSt17_Rb_tree_iteratorISt4pairIKNSt7__cxx1112basic_stringIcSt11char_traitsIcESaIcEEEMN14social_network27ComposePostServiceProcessorEFviPN6apache6thrift8protocol9TProtocolESE_PvEEEC2EPSt18_Rb_tree_node_base = comdat any

$_ZNKSt10_Select1stISt4pairIKNSt7__cxx1112basic_stringIcSt11char_traitsIcESaIcEEEMN14social_network27ComposePostServiceProcessorEFviPN6apache6thrift8protocol9TProtocolESE_PvEEEclERKSI_ = comdat any

$_ZNKSt13_Rb_tree_nodeISt4pairIKNSt7__cxx1112basic_stringIcSt11char_traitsIcESaIcEEEMN14social_network27ComposePostServiceProcessorEFviPN6apache6thrift8protocol9TProtocolESE_PvEEE9_M_valptrEv = comdat any

$_ZNK9__gnu_cxx16__aligned_membufISt4pairIKNSt7__cxx1112basic_stringIcSt11char_traitsIcESaIcEEEMN14social_network27ComposePostServiceProcessorEFviPN6apache6thrift8protocol9TProtocolESF_PvEEE6_M_ptrEv = comdat any

$_ZNK9__gnu_cxx16__aligned_membufISt4pairIKNSt7__cxx1112basic_stringIcSt11char_traitsIcESaIcEEEMN14social_network27ComposePostServiceProcessorEFviPN6apache6thrift8protocol9TProtocolESF_PvEEE7_M_addrEv = comdat any

$_ZNKSt8_Rb_treeINSt7__cxx1112basic_stringIcSt11char_traitsIcESaIcEEESt4pairIKS5_MN14social_network27ComposePostServiceProcessorEFviPN6apache6thrift8protocol9TProtocolESE_PvEESt10_Select1stISI_ESt4lessIS5_ESaISI_EE8key_compEv = comdat any

$_ZStltIcSt11char_traitsIcESaIcEEbRKNSt7__cxx1112basic_stringIT_T0_T1_EESA_ = comdat any

$_ZNSt13_Rb_tree_nodeISt4pairIKNSt7__cxx1112basic_stringIcSt11char_traitsIcESaIcEEEMN14social_network27ComposePostServiceProcessorEFviPN6apache6thrift8protocol9TProtocolESE_PvEEE9_M_valptrEv = comdat any

$_ZN9__gnu_cxx16__aligned_membufISt4pairIKNSt7__cxx1112basic_stringIcSt11char_traitsIcESaIcEEEMN14social_network27ComposePostServiceProcessorEFviPN6apache6thrift8protocol9TProtocolESF_PvEEE6_M_ptrEv = comdat any

$_ZN9__gnu_cxx16__aligned_membufISt4pairIKNSt7__cxx1112basic_stringIcSt11char_traitsIcESaIcEEEMN14social_network27ComposePostServiceProcessorEFviPN6apache6thrift8protocol9TProtocolESF_PvEEE7_M_addrEv = comdat any

$_ZNSt8_Rb_treeINSt7__cxx1112basic_stringIcSt11char_traitsIcESaIcEEESt4pairIKS5_MN14social_network27ComposePostServiceProcessorEFviPN6apache6thrift8protocol9TProtocolESE_PvEESt10_Select1stISI_ESt4lessIS5_ESaISI_EE14_M_create_nodeIJRKSt21piecewise_construct_tSt5tupleIJOS5_EEST_IJEEEEEPSt13_Rb_tree_nodeISI_EDpOT_ = comdat any

$_ZSt7forwardIRKSt21piecewise_construct_tEOT_RNSt16remove_referenceIS3_E4typeE = comdat any

$_ZSt7forwardISt5tupleIJONSt7__cxx1112basic_stringIcSt11char_traitsIcESaIcEEEEEEOT_RNSt16remove_referenceIS9_E4typeE = comdat any

$_ZSt7forwardISt5tupleIJEEEOT_RNSt16remove_referenceIS2_E4typeE = comdat any

$_ZNSt8_Rb_treeINSt7__cxx1112basic_stringIcSt11char_traitsIcESaIcEEESt4pairIKS5_MN14social_network27ComposePostServiceProcessorEFviPN6apache6thrift8protocol9TProtocolESE_PvEESt10_Select1stISI_ESt4lessIS5_ESaISI_EE29_M_get_insert_hint_unique_posESt23_Rb_tree_const_iteratorISI_ERS7_ = comdat any

$_ZNSt8_Rb_treeINSt7__cxx1112basic_stringIcSt11char_traitsIcESaIcEEESt4pairIKS5_MN14social_network27ComposePostServiceProcessorEFviPN6apache6thrift8protocol9TProtocolESE_PvEESt10_Select1stISI_ESt4lessIS5_ESaISI_EE14_M_insert_nodeEPSt18_Rb_tree_node_baseSQ_PSt13_Rb_tree_nodeISI_E = comdat any

$_ZNSt8_Rb_treeINSt7__cxx1112basic_stringIcSt11char_traitsIcESaIcEEESt4pairIKS5_MN14social_network27ComposePostServiceProcessorEFviPN6apache6thrift8protocol9TProtocolESE_PvEESt10_Select1stISI_ESt4lessIS5_ESaISI_EE12_M_drop_nodeEPSt13_Rb_tree_nodeISI_E = comdat any

$_ZNSt8_Rb_treeINSt7__cxx1112basic_stringIcSt11char_traitsIcESaIcEEESt4pairIKS5_MN14social_network27ComposePostServiceProcessorEFviPN6apache6thrift8protocol9TProtocolESE_PvEESt10_Select1stISI_ESt4lessIS5_ESaISI_EE11_M_get_nodeEv = comdat any

$_ZNSt8_Rb_treeINSt7__cxx1112basic_stringIcSt11char_traitsIcESaIcEEESt4pairIKS5_MN14social_network27ComposePostServiceProcessorEFviPN6apache6thrift8protocol9TProtocolESE_PvEESt10_Select1stISI_ESt4lessIS5_ESaISI_EE17_M_construct_nodeIJRKSt21piecewise_construct_tSt5tupleIJOS5_EEST_IJEEEEEvPSt13_Rb_tree_nodeISI_EDpOT_ = comdat any

$_ZNSt16allocator_traitsISaISt13_Rb_tree_nodeISt4pairIKNSt7__cxx1112basic_stringIcSt11char_traitsIcESaIcEEEMN14social_network27ComposePostServiceProcessorEFviPN6apache6thrift8protocol9TProtocolESF_PvEEEEE8allocateERSL_m = comdat any

$_ZNSt8_Rb_treeINSt7__cxx1112basic_stringIcSt11char_traitsIcESaIcEEESt4pairIKS5_MN14social_network27ComposePostServiceProcessorEFviPN6apache6thrift8protocol9TProtocolESE_PvEESt10_Select1stISI_ESt4lessIS5_ESaISI_EE21_M_get_Node_allocatorEv = comdat any

$_ZN9__gnu_cxx13new_allocatorISt13_Rb_tree_nodeISt4pairIKNSt7__cxx1112basic_stringIcSt11char_traitsIcESaIcEEEMN14social_network27ComposePostServiceProcessorEFviPN6apache6thrift8protocol9TProtocolESG_PvEEEE8allocateEmPKv = comdat any

$_ZNK9__gnu_cxx13new_allocatorISt13_Rb_tree_nodeISt4pairIKNSt7__cxx1112basic_stringIcSt11char_traitsIcESaIcEEEMN14social_network27ComposePostServiceProcessorEFviPN6apache6thrift8protocol9TProtocolESG_PvEEEE8max_sizeEv = comdat any

$_ZNSt16allocator_traitsISaISt13_Rb_tree_nodeISt4pairIKNSt7__cxx1112basic_stringIcSt11char_traitsIcESaIcEEEMN14social_network27ComposePostServiceProcessorEFviPN6apache6thrift8protocol9TProtocolESF_PvEEEEE9constructISJ_JRKSt21piecewise_construct_tSt5tupleIJOS7_EESR_IJEEEEEvRSL_PT_DpOT0_ = comdat any

$_ZNSt8_Rb_treeINSt7__cxx1112basic_stringIcSt11char_traitsIcESaIcEEESt4pairIKS5_MN14social_network27ComposePostServiceProcessorEFviPN6apache6thrift8protocol9TProtocolESE_PvEESt10_Select1stISI_ESt4lessIS5_ESaISI_EE11_M_put_nodeEPSt13_Rb_tree_nodeISI_E = comdat any

$_ZN9__gnu_cxx13new_allocatorISt13_Rb_tree_nodeISt4pairIKNSt7__cxx1112basic_stringIcSt11char_traitsIcESaIcEEEMN14social_network27ComposePostServiceProcessorEFviPN6apache6thrift8protocol9TProtocolESG_PvEEEE9constructISK_JRKSt21piecewise_construct_tSt5tupleIJOS8_EESR_IJEEEEEvPT_DpOT0_ = comdat any

$_ZNSt5tupleIJONSt7__cxx1112basic_stringIcSt11char_traitsIcESaIcEEEEEC2EOS7_ = comdat any

$_ZNSt4pairIKNSt7__cxx1112basic_stringIcSt11char_traitsIcESaIcEEEMN14social_network27ComposePostServiceProcessorEFviPN6apache6thrift8protocol9TProtocolESD_PvEEC2IJOS5_EJEEESt21piecewise_construct_tSt5tupleIJDpT_EESL_IJDpT0_EE = comdat any

$_ZNSt11_Tuple_implILm0EJONSt7__cxx1112basic_stringIcSt11char_traitsIcESaIcEEEEEC2EOS7_ = comdat any

$_ZSt7forwardIONSt7__cxx1112basic_stringIcSt11char_traitsIcESaIcEEEEOT_RNSt16remove_referenceIS7_E4typeE = comdat any

$_ZNSt11_Tuple_implILm0EJONSt7__cxx1112basic_stringIcSt11char_traitsIcESaIcEEEEE7_M_headERS7_ = comdat any

$_ZNSt10_Head_baseILm0EONSt7__cxx1112basic_stringIcSt11char_traitsIcESaIcEEELb0EEC2IS5_EEOT_ = comdat any

$_ZNSt10_Head_baseILm0EONSt7__cxx1112basic_stringIcSt11char_traitsIcESaIcEEELb0EE7_M_headERS7_ = comdat any

$_ZSt7forwardINSt7__cxx1112basic_stringIcSt11char_traitsIcESaIcEEEEOT_RNSt16remove_referenceIS6_E4typeE = comdat any

$_ZNSt4pairIKNSt7__cxx1112basic_stringIcSt11char_traitsIcESaIcEEEMN14social_network27ComposePostServiceProcessorEFviPN6apache6thrift8protocol9TProtocolESD_PvEEC2IJOS5_EJLm0EEJEJEEERSt5tupleIJDpT_EERSK_IJDpT1_EESt12_Index_tupleIJXspT0_EEEST_IJXspT2_EEE = comdat any

$_ZSt3getILm0EJONSt7__cxx1112basic_stringIcSt11char_traitsIcESaIcEEEEERNSt13tuple_elementIXT_ESt5tupleIJDpT0_EEE4typeERSB_ = comdat any

$_ZSt12__get_helperILm0EONSt7__cxx1112basic_stringIcSt11char_traitsIcESaIcEEEJEERT0_RSt11_Tuple_implIXT_EJS7_DpT1_EE = comdat any

$_ZNSt16allocator_traitsISaISt13_Rb_tree_nodeISt4pairIKNSt7__cxx1112basic_stringIcSt11char_traitsIcESaIcEEEMN14social_network27ComposePostServiceProcessorEFviPN6apache6thrift8protocol9TProtocolESF_PvEEEEE10deallocateERSL_PSK_m = comdat any

$_ZN9__gnu_cxx13new_allocatorISt13_Rb_tree_nodeISt4pairIKNSt7__cxx1112basic_stringIcSt11char_traitsIcESaIcEEEMN14social_network27ComposePostServiceProcessorEFviPN6apache6thrift8protocol9TProtocolESG_PvEEEE10deallocateEPSL_m = comdat any

$_ZNKSt23_Rb_tree_const_iteratorISt4pairIKNSt7__cxx1112basic_stringIcSt11char_traitsIcESaIcEEEMN14social_network27ComposePostServiceProcessorEFviPN6apache6thrift8protocol9TProtocolESE_PvEEE13_M_const_castEv = comdat any

$_ZNKSt8_Rb_treeINSt7__cxx1112basic_stringIcSt11char_traitsIcESaIcEEESt4pairIKS5_MN14social_network27ComposePostServiceProcessorEFviPN6apache6thrift8protocol9TProtocolESE_PvEESt10_Select1stISI_ESt4lessIS5_ESaISI_EE4sizeEv = comdat any

$_ZNSt8_Rb_treeINSt7__cxx1112basic_stringIcSt11char_traitsIcESaIcEEESt4pairIKS5_MN14social_network27ComposePostServiceProcessorEFviPN6apache6thrift8protocol9TProtocolESE_PvEESt10_Select1stISI_ESt4lessIS5_ESaISI_EE6_S_keyEPKSt18_Rb_tree_node_base = comdat any

$_ZNSt8_Rb_treeINSt7__cxx1112basic_stringIcSt11char_traitsIcESaIcEEESt4pairIKS5_MN14social_network27ComposePostServiceProcessorEFviPN6apache6thrift8protocol9TProtocolESE_PvEESt10_Select1stISI_ESt4lessIS5_ESaISI_EE12_M_rightmostEv = comdat any

$_ZNSt4pairIPSt18_Rb_tree_node_baseS1_EC2IRS1_Lb1EEERKS1_OT_ = comdat any

$_ZNSt8_Rb_treeINSt7__cxx1112basic_stringIcSt11char_traitsIcESaIcEEESt4pairIKS5_MN14social_network27ComposePostServiceProcessorEFviPN6apache6thrift8protocol9TProtocolESE_PvEESt10_Select1stISI_ESt4lessIS5_ESaISI_EE24_M_get_insert_unique_posERS7_ = comdat any

$_ZNSt8_Rb_treeINSt7__cxx1112basic_stringIcSt11char_traitsIcESaIcEEESt4pairIKS5_MN14social_network27ComposePostServiceProcessorEFviPN6apache6thrift8protocol9TProtocolESE_PvEESt10_Select1stISI_ESt4lessIS5_ESaISI_EE11_M_leftmostEv = comdat any

$_ZNSt4pairIPSt18_Rb_tree_node_baseS1_EC2IRS1_S4_Lb1EEEOT_OT0_ = comdat any

$_ZNSt17_Rb_tree_iteratorISt4pairIKNSt7__cxx1112basic_stringIcSt11char_traitsIcESaIcEEEMN14social_network27ComposePostServiceProcessorEFviPN6apache6thrift8protocol9TProtocolESE_PvEEEmmEv = comdat any

$_ZNSt17_Rb_tree_iteratorISt4pairIKNSt7__cxx1112basic_stringIcSt11char_traitsIcESaIcEEEMN14social_network27ComposePostServiceProcessorEFviPN6apache6thrift8protocol9TProtocolESE_PvEEEppEv = comdat any

$_ZNSt4pairIPSt18_Rb_tree_node_baseS1_EC2IRS1_Lb1EEEOT_RKS1_ = comdat any

$_ZSt7forwardIRPSt18_Rb_tree_node_baseEOT_RNSt16remove_referenceIS3_E4typeE = comdat any

$_ZNSt8_Rb_treeINSt7__cxx1112basic_stringIcSt11char_traitsIcESaIcEEESt4pairIKS5_MN14social_network27ComposePostServiceProcessorEFviPN6apache6thrift8protocol9TProtocolESE_PvEESt10_Select1stISI_ESt4lessIS5_ESaISI_EE5beginEv = comdat any

$_ZNSt4pairIPSt18_Rb_tree_node_baseS1_EC2IRPSt13_Rb_tree_nodeIS_IKNSt7__cxx1112basic_stringIcSt11char_traitsIcESaIcEEEMN14social_network27ComposePostServiceProcessorEFviPN6apache6thrift8protocol9TProtocolESI_PvEEERS1_Lb1EEEOT_OT0_ = comdat any

$_ZSt7forwardIRPSt13_Rb_tree_nodeISt4pairIKNSt7__cxx1112basic_stringIcSt11char_traitsIcESaIcEEEMN14social_network27ComposePostServiceProcessorEFviPN6apache6thrift8protocol9TProtocolESF_PvEEEEOT_RNSt16remove_referenceISN_E4typeE = comdat any

$_ZNSt8_Rb_treeINSt7__cxx1112basic_stringIcSt11char_traitsIcESaIcEEESt4pairIKS5_MN14social_network27ComposePostServiceProcessorEFviPN6apache6thrift8protocol9TProtocolESE_PvEESt10_Select1stISI_ESt4lessIS5_ESaISI_EE15_M_destroy_nodeEPSt13_Rb_tree_nodeISI_E = comdat any

$_ZNSt16allocator_traitsISaISt13_Rb_tree_nodeISt4pairIKNSt7__cxx1112basic_stringIcSt11char_traitsIcESaIcEEEMN14social_network27ComposePostServiceProcessorEFviPN6apache6thrift8protocol9TProtocolESF_PvEEEEE7destroyISJ_EEvRSL_PT_ = comdat any

$_ZN9__gnu_cxx13new_allocatorISt13_Rb_tree_nodeISt4pairIKNSt7__cxx1112basic_stringIcSt11char_traitsIcESaIcEEEMN14social_network27ComposePostServiceProcessorEFviPN6apache6thrift8protocol9TProtocolESG_PvEEEE7destroyISK_EEvPT_ = comdat any

$_ZNSt4pairIKNSt7__cxx1112basic_stringIcSt11char_traitsIcESaIcEEEMN14social_network27ComposePostServiceProcessorEFviPN6apache6thrift8protocol9TProtocolESD_PvEED2Ev = comdat any

$_ZNSt5tupleIJONSt7__cxx1112basic_stringIcSt11char_traitsIcESaIcEEEEEC2IJS5_ELb1EEEDpOT_ = comdat any

$_ZNSt11_Tuple_implILm0EJONSt7__cxx1112basic_stringIcSt11char_traitsIcESaIcEEEEEC2IS5_EEOT_ = comdat any

$_ZNSt8_Rb_treeINSt7__cxx1112basic_stringIcSt11char_traitsIcESaIcEEESt4pairIKS5_MN14social_network27ComposePostServiceProcessorEFviPN6apache6thrift8protocol9TProtocolESE_PvEESt10_Select1stISI_ESt4lessIS5_ESaISI_EED2Ev = comdat any

$_ZNSt8_Rb_treeINSt7__cxx1112basic_stringIcSt11char_traitsIcESaIcEEESt4pairIKS5_MN14social_network27ComposePostServiceProcessorEFviPN6apache6thrift8protocol9TProtocolESE_PvEESt10_Select1stISI_ESt4lessIS5_ESaISI_EE8_M_eraseEPSt13_Rb_tree_nodeISI_E = comdat any

$_ZNSt8_Rb_treeINSt7__cxx1112basic_stringIcSt11char_traitsIcESaIcEEESt4pairIKS5_MN14social_network27ComposePostServiceProcessorEFviPN6apache6thrift8protocol9TProtocolESE_PvEESt10_Select1stISI_ESt4lessIS5_ESaISI_EE13_Rb_tree_implISM_Lb1EED2Ev = comdat any

$_ZNSaISt13_Rb_tree_nodeISt4pairIKNSt7__cxx1112basic_stringIcSt11char_traitsIcESaIcEEEMN14social_network27ComposePostServiceProcessorEFviPN6apache6thrift8protocol9TProtocolESE_PvEEEED2Ev = comdat any

$_ZN9__gnu_cxx13new_allocatorISt13_Rb_tree_nodeISt4pairIKNSt7__cxx1112basic_stringIcSt11char_traitsIcESaIcEEEMN14social_network27ComposePostServiceProcessorEFviPN6apache6thrift8protocol9TProtocolESG_PvEEEED2Ev = comdat any

$_ZNSt12__shared_ptrIN14social_network20ComposePostServiceIfELN9__gnu_cxx12_Lock_policyE2EED2Ev = comdat any

$_ZNSt12__shared_ptrIN6apache6thrift10TProcessorELN9__gnu_cxx12_Lock_policyE2EED2Ev = comdat any

$_ZN6apache6thrift8protocol18TProtocolExceptionD0Ev = comdat any

$_ZNK6apache6thrift8protocol18TProtocolException4whatEv = comdat any

$_ZN14social_network24ComposePostServiceClientD2Ev = comdat any

$_ZN14social_network20ComposePostServiceIfD2Ev = comdat any

$_ZTv0_n24_N14social_network24ComposePostServiceClientD1Ev = comdat any

$_ZNSt10shared_ptrIN6apache6thrift8protocol9TProtocolEED2Ev = comdat any

$_ZNSt12__shared_ptrIN6apache6thrift8protocol9TProtocolELN9__gnu_cxx12_Lock_policyE2EED2Ev = comdat any

$_ZTv0_n24_N14social_network24ComposePostServiceClientD0Ev = comdat any

$_ZNKSt19__shared_ptr_accessIN6apache6thrift8protocol9TProtocolELN9__gnu_cxx12_Lock_policyE2ELb0ELb0EEptEv = comdat any

$_ZNKSt12__shared_ptrIN6apache6thrift8protocol9TProtocolELN9__gnu_cxx12_Lock_policyE2EE3getEv = comdat any

$_ZNKSt19__shared_ptr_accessIN6apache6thrift8protocol9TProtocolELN9__gnu_cxx12_Lock_policyE2ELb0ELb0EE6_M_getEv = comdat any

$_ZN6apache6thrift17TProcessorFactoryD2Ev = comdat any

$_ZN14social_network34ComposePostServiceConcurrentClientD2Ev = comdat any

$_ZTv0_n24_N14social_network34ComposePostServiceConcurrentClientD1Ev = comdat any

$_ZN6apache6thrift5async25TConcurrentClientSyncInfoD2Ev = comdat any

$_ZN6apache6thrift11concurrency5MutexD2Ev = comdat any

$_ZNSt6vectorISt10shared_ptrIN6apache6thrift11concurrency7MonitorEESaIS5_EED2Ev = comdat any

$_ZNSt3mapIiSt10shared_ptrIN6apache6thrift11concurrency7MonitorEESt4lessIiESaISt4pairIKiS5_EEED2Ev = comdat any

$_ZNSt10shared_ptrIN6apache6thrift11concurrency5Mutex4implEED2Ev = comdat any

$_ZNSt12__shared_ptrIN6apache6thrift11concurrency5Mutex4implELN9__gnu_cxx12_Lock_policyE2EED2Ev = comdat any

$_ZSt8_DestroyIPSt10shared_ptrIN6apache6thrift11concurrency7MonitorEES5_EvT_S7_RSaIT0_E = comdat any

$_ZNSt12_Vector_baseISt10shared_ptrIN6apache6thrift11concurrency7MonitorEESaIS5_EE19_M_get_Tp_allocatorEv = comdat any

$_ZNSt12_Vector_baseISt10shared_ptrIN6apache6thrift11concurrency7MonitorEESaIS5_EED2Ev = comdat any

$_ZSt8_DestroyIPSt10shared_ptrIN6apache6thrift11concurrency7MonitorEEEvT_S7_ = comdat any

$_ZNSt12_Destroy_auxILb0EE9__destroyIPSt10shared_ptrIN6apache6thrift11concurrency7MonitorEEEEvT_S9_ = comdat any

$_ZSt8_DestroyISt10shared_ptrIN6apache6thrift11concurrency7MonitorEEEvPT_ = comdat any

$_ZSt11__addressofISt10shared_ptrIN6apache6thrift11concurrency7MonitorEEEPT_RS6_ = comdat any

$_ZNSt10shared_ptrIN6apache6thrift11concurrency7MonitorEED2Ev = comdat any

$_ZNSt12__shared_ptrIN6apache6thrift11concurrency7MonitorELN9__gnu_cxx12_Lock_policyE2EED2Ev = comdat any

$_ZNSt12_Vector_baseISt10shared_ptrIN6apache6thrift11concurrency7MonitorEESaIS5_EE13_M_deallocateEPS5_m = comdat any

$_ZNSt12_Vector_baseISt10shared_ptrIN6apache6thrift11concurrency7MonitorEESaIS5_EE12_Vector_implD2Ev = comdat any

$_ZNSt16allocator_traitsISaISt10shared_ptrIN6apache6thrift11concurrency7MonitorEEEE10deallocateERS6_PS5_m = comdat any

$_ZN9__gnu_cxx13new_allocatorISt10shared_ptrIN6apache6thrift11concurrency7MonitorEEE10deallocateEPS6_m = comdat any

$_ZNSaISt10shared_ptrIN6apache6thrift11concurrency7MonitorEEED2Ev = comdat any

$_ZN9__gnu_cxx13new_allocatorISt10shared_ptrIN6apache6thrift11concurrency7MonitorEEED2Ev = comdat any

$_ZNSt8_Rb_treeIiSt4pairIKiSt10shared_ptrIN6apache6thrift11concurrency7MonitorEEESt10_Select1stIS8_ESt4lessIiESaIS8_EED2Ev = comdat any

$_ZNSt8_Rb_treeIiSt4pairIKiSt10shared_ptrIN6apache6thrift11concurrency7MonitorEEESt10_Select1stIS8_ESt4lessIiESaIS8_EE8_M_eraseEPSt13_Rb_tree_nodeIS8_E = comdat any

$_ZNSt8_Rb_treeIiSt4pairIKiSt10shared_ptrIN6apache6thrift11concurrency7MonitorEEESt10_Select1stIS8_ESt4lessIiESaIS8_EE8_M_beginEv = comdat any

$_ZNSt8_Rb_treeIiSt4pairIKiSt10shared_ptrIN6apache6thrift11concurrency7MonitorEEESt10_Select1stIS8_ESt4lessIiESaIS8_EE13_Rb_tree_implISC_Lb1EED2Ev = comdat any

$_ZNSt8_Rb_treeIiSt4pairIKiSt10shared_ptrIN6apache6thrift11concurrency7MonitorEEESt10_Select1stIS8_ESt4lessIiESaIS8_EE8_S_rightEPSt18_Rb_tree_node_base = comdat any

$_ZNSt8_Rb_treeIiSt4pairIKiSt10shared_ptrIN6apache6thrift11concurrency7MonitorEEESt10_Select1stIS8_ESt4lessIiESaIS8_EE7_S_leftEPSt18_Rb_tree_node_base = comdat any

$_ZNSt8_Rb_treeIiSt4pairIKiSt10shared_ptrIN6apache6thrift11concurrency7MonitorEEESt10_Select1stIS8_ESt4lessIiESaIS8_EE12_M_drop_nodeEPSt13_Rb_tree_nodeIS8_E = comdat any

$_ZNSt8_Rb_treeIiSt4pairIKiSt10shared_ptrIN6apache6thrift11concurrency7MonitorEEESt10_Select1stIS8_ESt4lessIiESaIS8_EE15_M_destroy_nodeEPSt13_Rb_tree_nodeIS8_E = comdat any

$_ZNSt8_Rb_treeIiSt4pairIKiSt10shared_ptrIN6apache6thrift11concurrency7MonitorEEESt10_Select1stIS8_ESt4lessIiESaIS8_EE11_M_put_nodeEPSt13_Rb_tree_nodeIS8_E = comdat any

$_ZNSt16allocator_traitsISaISt13_Rb_tree_nodeISt4pairIKiSt10shared_ptrIN6apache6thrift11concurrency7MonitorEEEEEE7destroyIS9_EEvRSB_PT_ = comdat any

$_ZNSt8_Rb_treeIiSt4pairIKiSt10shared_ptrIN6apache6thrift11concurrency7MonitorEEESt10_Select1stIS8_ESt4lessIiESaIS8_EE21_M_get_Node_allocatorEv = comdat any

$_ZNSt13_Rb_tree_nodeISt4pairIKiSt10shared_ptrIN6apache6thrift11concurrency7MonitorEEEE9_M_valptrEv = comdat any

$_ZN9__gnu_cxx13new_allocatorISt13_Rb_tree_nodeISt4pairIKiSt10shared_ptrIN6apache6thrift11concurrency7MonitorEEEEE7destroyISA_EEvPT_ = comdat any

$_ZNSt4pairIKiSt10shared_ptrIN6apache6thrift11concurrency7MonitorEEED2Ev = comdat any

$_ZN9__gnu_cxx16__aligned_membufISt4pairIKiSt10shared_ptrIN6apache6thrift11concurrency7MonitorEEEE6_M_ptrEv = comdat any

$_ZN9__gnu_cxx16__aligned_membufISt4pairIKiSt10shared_ptrIN6apache6thrift11concurrency7MonitorEEEE7_M_addrEv = comdat any

$_ZNSt16allocator_traitsISaISt13_Rb_tree_nodeISt4pairIKiSt10shared_ptrIN6apache6thrift11concurrency7MonitorEEEEEE10deallocateERSB_PSA_m = comdat any

$_ZN9__gnu_cxx13new_allocatorISt13_Rb_tree_nodeISt4pairIKiSt10shared_ptrIN6apache6thrift11concurrency7MonitorEEEEE10deallocateEPSB_m = comdat any

$_ZNSaISt13_Rb_tree_nodeISt4pairIKiSt10shared_ptrIN6apache6thrift11concurrency7MonitorEEEEED2Ev = comdat any

$_ZN9__gnu_cxx13new_allocatorISt13_Rb_tree_nodeISt4pairIKiSt10shared_ptrIN6apache6thrift11concurrency7MonitorEEEEED2Ev = comdat any

$_ZTv0_n24_N14social_network34ComposePostServiceConcurrentClientD0Ev = comdat any

$_ZSt8_DestroyIPN14social_network11UserMentionES1_EvT_S3_RSaIT0_E = comdat any

$_ZNSt12_Vector_baseIN14social_network11UserMentionESaIS1_EE19_M_get_Tp_allocatorEv = comdat any

$_ZNSt12_Vector_baseIN14social_network11UserMentionESaIS1_EED2Ev = comdat any

$_ZSt8_DestroyIPN14social_network11UserMentionEEvT_S3_ = comdat any

$_ZNSt12_Destroy_auxILb0EE9__destroyIPN14social_network11UserMentionEEEvT_S5_ = comdat any

$_ZSt8_DestroyIN14social_network11UserMentionEEvPT_ = comdat any

$_ZSt11__addressofIN14social_network11UserMentionEEPT_RS2_ = comdat any

$_ZNSt12_Vector_baseIN14social_network11UserMentionESaIS1_EE13_M_deallocateEPS1_m = comdat any

$_ZNSt12_Vector_baseIN14social_network11UserMentionESaIS1_EE12_Vector_implD2Ev = comdat any

$_ZNSt16allocator_traitsISaIN14social_network11UserMentionEEE10deallocateERS2_PS1_m = comdat any

$_ZN9__gnu_cxx13new_allocatorIN14social_network11UserMentionEE10deallocateEPS2_m = comdat any

$_ZNSaIN14social_network11UserMentionEED2Ev = comdat any

$_ZN9__gnu_cxx13new_allocatorIN14social_network11UserMentionEED2Ev = comdat any

$_ZSt8_DestroyIPN14social_network5MediaES1_EvT_S3_RSaIT0_E = comdat any

$_ZNSt12_Vector_baseIN14social_network5MediaESaIS1_EE19_M_get_Tp_allocatorEv = comdat any

$_ZNSt12_Vector_baseIN14social_network5MediaESaIS1_EED2Ev = comdat any

$_ZSt8_DestroyIPN14social_network5MediaEEvT_S3_ = comdat any

$_ZNSt12_Destroy_auxILb0EE9__destroyIPN14social_network5MediaEEEvT_S5_ = comdat any

$_ZSt8_DestroyIN14social_network5MediaEEvPT_ = comdat any

$_ZSt11__addressofIN14social_network5MediaEEPT_RS2_ = comdat any

$_ZNSt12_Vector_baseIN14social_network5MediaESaIS1_EE13_M_deallocateEPS1_m = comdat any

$_ZNSt12_Vector_baseIN14social_network5MediaESaIS1_EE12_Vector_implD2Ev = comdat any

$_ZNSt16allocator_traitsISaIN14social_network5MediaEEE10deallocateERS2_PS1_m = comdat any

$_ZN9__gnu_cxx13new_allocatorIN14social_network5MediaEE10deallocateEPS2_m = comdat any

$_ZNSaIN14social_network5MediaEED2Ev = comdat any

$_ZN9__gnu_cxx13new_allocatorIN14social_network5MediaEED2Ev = comdat any

$_ZSt8_DestroyIPN14social_network3UrlES1_EvT_S3_RSaIT0_E = comdat any

$_ZNSt12_Vector_baseIN14social_network3UrlESaIS1_EE19_M_get_Tp_allocatorEv = comdat any

$_ZNSt12_Vector_baseIN14social_network3UrlESaIS1_EED2Ev = comdat any

$_ZSt8_DestroyIPN14social_network3UrlEEvT_S3_ = comdat any

$_ZNSt12_Destroy_auxILb0EE9__destroyIPN14social_network3UrlEEEvT_S5_ = comdat any

$_ZSt8_DestroyIN14social_network3UrlEEvPT_ = comdat any

$_ZSt11__addressofIN14social_network3UrlEEPT_RS2_ = comdat any

$_ZNSt12_Vector_baseIN14social_network3UrlESaIS1_EE13_M_deallocateEPS1_m = comdat any

$_ZNSt12_Vector_baseIN14social_network3UrlESaIS1_EE12_Vector_implD2Ev = comdat any

$_ZNSt16allocator_traitsISaIN14social_network3UrlEEE10deallocateERS2_PS1_m = comdat any

$_ZN9__gnu_cxx13new_allocatorIN14social_network3UrlEE10deallocateEPS2_m = comdat any

$_ZNSaIN14social_network3UrlEED2Ev = comdat any

$_ZN9__gnu_cxx13new_allocatorIN14social_network3UrlEED2Ev = comdat any

$_ZNKSt19__shared_ptr_accessIN14social_network20ComposePostServiceIfELN9__gnu_cxx12_Lock_policyE2ELb0ELb0EE6_M_getEv = comdat any

$_ZNKSt12__shared_ptrIN14social_network20ComposePostServiceIfELN9__gnu_cxx12_Lock_policyE2EE3getEv = comdat any

$_ZNSt8_Rb_treeINSt7__cxx1112basic_stringIcSt11char_traitsIcESaIcEEESt4pairIKS5_S5_ESt10_Select1stIS8_ESt4lessIS5_ESaIS8_EE5clearEv = comdat any

$_ZNSt3mapINSt7__cxx1112basic_stringIcSt11char_traitsIcESaIcEEES5_St4lessIS5_ESaISt4pairIKS5_S5_EEE11lower_boundERS9_ = comdat any

$_ZSteqRKSt17_Rb_tree_iteratorISt4pairIKNSt7__cxx1112basic_stringIcSt11char_traitsIcESaIcEEES6_EESB_ = comdat any

$_ZNSt3mapINSt7__cxx1112basic_stringIcSt11char_traitsIcESaIcEEES5_St4lessIS5_ESaISt4pairIKS5_S5_EEE3endEv = comdat any

$_ZNKSt3mapINSt7__cxx1112basic_stringIcSt11char_traitsIcESaIcEEES5_St4lessIS5_ESaISt4pairIKS5_S5_EEE8key_compEv = comdat any

$_ZNKSt17_Rb_tree_iteratorISt4pairIKNSt7__cxx1112basic_stringIcSt11char_traitsIcESaIcEEES6_EEdeEv = comdat any

$_ZNSt8_Rb_treeINSt7__cxx1112basic_stringIcSt11char_traitsIcESaIcEEESt4pairIKS5_S5_ESt10_Select1stIS8_ESt4lessIS5_ESaIS8_EE22_M_emplace_hint_uniqueIJRKSt21piecewise_construct_tSt5tupleIJRS7_EESJ_IJEEEEESt17_Rb_tree_iteratorIS8_ESt23_Rb_tree_const_iteratorIS8_EDpOT_ = comdat any

$_ZNSt23_Rb_tree_const_iteratorISt4pairIKNSt7__cxx1112basic_stringIcSt11char_traitsIcESaIcEEES6_EEC2ERKSt17_Rb_tree_iteratorIS8_E = comdat any

$_ZNSt5tupleIJRKNSt7__cxx1112basic_stringIcSt11char_traitsIcESaIcEEEEEC2IvLb1EEES7_ = comdat any

$_ZNSt8_Rb_treeINSt7__cxx1112basic_stringIcSt11char_traitsIcESaIcEEESt4pairIKS5_S5_ESt10_Select1stIS8_ESt4lessIS5_ESaIS8_EE11lower_boundERS7_ = comdat any

$_ZNSt8_Rb_treeINSt7__cxx1112basic_stringIcSt11char_traitsIcESaIcEEESt4pairIKS5_S5_ESt10_Select1stIS8_ESt4lessIS5_ESaIS8_EE14_M_lower_boundEPSt13_Rb_tree_nodeIS8_EPSt18_Rb_tree_node_baseRS7_ = comdat any

$_ZNSt8_Rb_treeINSt7__cxx1112basic_stringIcSt11char_traitsIcESaIcEEESt4pairIKS5_S5_ESt10_Select1stIS8_ESt4lessIS5_ESaIS8_EE6_M_endEv = comdat any

$_ZNSt8_Rb_treeINSt7__cxx1112basic_stringIcSt11char_traitsIcESaIcEEESt4pairIKS5_S5_ESt10_Select1stIS8_ESt4lessIS5_ESaIS8_EE6_S_keyEPKSt13_Rb_tree_nodeIS8_E = comdat any

$_ZNSt17_Rb_tree_iteratorISt4pairIKNSt7__cxx1112basic_stringIcSt11char_traitsIcESaIcEEES6_EEC2EPSt18_Rb_tree_node_base = comdat any

$_ZNKSt10_Select1stISt4pairIKNSt7__cxx1112basic_stringIcSt11char_traitsIcESaIcEEES6_EEclERKS8_ = comdat any

$_ZNKSt13_Rb_tree_nodeISt4pairIKNSt7__cxx1112basic_stringIcSt11char_traitsIcESaIcEEES6_EE9_M_valptrEv = comdat any

$_ZNK9__gnu_cxx16__aligned_membufISt4pairIKNSt7__cxx1112basic_stringIcSt11char_traitsIcESaIcEEES7_EE6_M_ptrEv = comdat any

$_ZNK9__gnu_cxx16__aligned_membufISt4pairIKNSt7__cxx1112basic_stringIcSt11char_traitsIcESaIcEEES7_EE7_M_addrEv = comdat any

$_ZNSt8_Rb_treeINSt7__cxx1112basic_stringIcSt11char_traitsIcESaIcEEESt4pairIKS5_S5_ESt10_Select1stIS8_ESt4lessIS5_ESaIS8_EE3endEv = comdat any

$_ZNKSt8_Rb_treeINSt7__cxx1112basic_stringIcSt11char_traitsIcESaIcEEESt4pairIKS5_S5_ESt10_Select1stIS8_ESt4lessIS5_ESaIS8_EE8key_compEv = comdat any

$_ZNSt8_Rb_treeINSt7__cxx1112basic_stringIcSt11char_traitsIcESaIcEEESt4pairIKS5_S5_ESt10_Select1stIS8_ESt4lessIS5_ESaIS8_EE14_M_create_nodeIJRKSt21piecewise_construct_tSt5tupleIJRS7_EESJ_IJEEEEEPSt13_Rb_tree_nodeIS8_EDpOT_ = comdat any

$_ZSt7forwardISt5tupleIJRKNSt7__cxx1112basic_stringIcSt11char_traitsIcESaIcEEEEEEOT_RNSt16remove_referenceISA_E4typeE = comdat any

$_ZNSt8_Rb_treeINSt7__cxx1112basic_stringIcSt11char_traitsIcESaIcEEESt4pairIKS5_S5_ESt10_Select1stIS8_ESt4lessIS5_ESaIS8_EE29_M_get_insert_hint_unique_posESt23_Rb_tree_const_iteratorIS8_ERS7_ = comdat any

$_ZNSt8_Rb_treeINSt7__cxx1112basic_stringIcSt11char_traitsIcESaIcEEESt4pairIKS5_S5_ESt10_Select1stIS8_ESt4lessIS5_ESaIS8_EE14_M_insert_nodeEPSt18_Rb_tree_node_baseSG_PSt13_Rb_tree_nodeIS8_E = comdat any

$_ZNSt8_Rb_treeINSt7__cxx1112basic_stringIcSt11char_traitsIcESaIcEEESt4pairIKS5_S5_ESt10_Select1stIS8_ESt4lessIS5_ESaIS8_EE11_M_get_nodeEv = comdat any

$_ZNSt8_Rb_treeINSt7__cxx1112basic_stringIcSt11char_traitsIcESaIcEEESt4pairIKS5_S5_ESt10_Select1stIS8_ESt4lessIS5_ESaIS8_EE17_M_construct_nodeIJRKSt21piecewise_construct_tSt5tupleIJRS7_EESJ_IJEEEEEvPSt13_Rb_tree_nodeIS8_EDpOT_ = comdat any

$_ZNSt16allocator_traitsISaISt13_Rb_tree_nodeISt4pairIKNSt7__cxx1112basic_stringIcSt11char_traitsIcESaIcEEES7_EEEE8allocateERSB_m = comdat any

$_ZN9__gnu_cxx13new_allocatorISt13_Rb_tree_nodeISt4pairIKNSt7__cxx1112basic_stringIcSt11char_traitsIcESaIcEEES8_EEE8allocateEmPKv = comdat any

$_ZNK9__gnu_cxx13new_allocatorISt13_Rb_tree_nodeISt4pairIKNSt7__cxx1112basic_stringIcSt11char_traitsIcESaIcEEES8_EEE8max_sizeEv = comdat any

$_ZNSt16allocator_traitsISaISt13_Rb_tree_nodeISt4pairIKNSt7__cxx1112basic_stringIcSt11char_traitsIcESaIcEEES7_EEEE9constructIS9_JRKSt21piecewise_construct_tSt5tupleIJRS8_EESH_IJEEEEEvRSB_PT_DpOT0_ = comdat any

$_ZN9__gnu_cxx13new_allocatorISt13_Rb_tree_nodeISt4pairIKNSt7__cxx1112basic_stringIcSt11char_traitsIcESaIcEEES8_EEE9constructISA_JRKSt21piecewise_construct_tSt5tupleIJRS9_EESH_IJEEEEEvPT_DpOT0_ = comdat any

$_ZNSt5tupleIJRKNSt7__cxx1112basic_stringIcSt11char_traitsIcESaIcEEEEEC2EOS8_ = comdat any

$_ZNSt4pairIKNSt7__cxx1112basic_stringIcSt11char_traitsIcESaIcEEES5_EC2IJRS6_EJEEESt21piecewise_construct_tSt5tupleIJDpT_EESB_IJDpT0_EE = comdat any

$_ZNSt11_Tuple_implILm0EJRKNSt7__cxx1112basic_stringIcSt11char_traitsIcESaIcEEEEEC2EOS8_ = comdat any

$_ZSt7forwardIRKNSt7__cxx1112basic_stringIcSt11char_traitsIcESaIcEEEEOT_RNSt16remove_referenceIS8_E4typeE = comdat any

$_ZNSt11_Tuple_implILm0EJRKNSt7__cxx1112basic_stringIcSt11char_traitsIcESaIcEEEEE7_M_headERS8_ = comdat any

$_ZNSt10_Head_baseILm0ERKNSt7__cxx1112basic_stringIcSt11char_traitsIcESaIcEEELb0EEC2ES7_ = comdat any

$_ZNSt10_Head_baseILm0ERKNSt7__cxx1112basic_stringIcSt11char_traitsIcESaIcEEELb0EE7_M_headERS8_ = comdat any

$_ZNSt4pairIKNSt7__cxx1112basic_stringIcSt11char_traitsIcESaIcEEES5_EC2IJRS6_EJLm0EEJEJEEERSt5tupleIJDpT_EERSA_IJDpT1_EESt12_Index_tupleIJXspT0_EEESJ_IJXspT2_EEE = comdat any

$_ZSt3getILm0EJRKNSt7__cxx1112basic_stringIcSt11char_traitsIcESaIcEEEEERNSt13tuple_elementIXT_ESt5tupleIJDpT0_EEE4typeERSC_ = comdat any

$_ZSt12__get_helperILm0ERKNSt7__cxx1112basic_stringIcSt11char_traitsIcESaIcEEEJEERT0_RSt11_Tuple_implIXT_EJS8_DpT1_EE = comdat any

$_ZNKSt23_Rb_tree_const_iteratorISt4pairIKNSt7__cxx1112basic_stringIcSt11char_traitsIcESaIcEEES6_EE13_M_const_castEv = comdat any

$_ZNKSt8_Rb_treeINSt7__cxx1112basic_stringIcSt11char_traitsIcESaIcEEESt4pairIKS5_S5_ESt10_Select1stIS8_ESt4lessIS5_ESaIS8_EE4sizeEv = comdat any

$_ZNSt8_Rb_treeINSt7__cxx1112basic_stringIcSt11char_traitsIcESaIcEEESt4pairIKS5_S5_ESt10_Select1stIS8_ESt4lessIS5_ESaIS8_EE6_S_keyEPKSt18_Rb_tree_node_base = comdat any

$_ZNSt8_Rb_treeINSt7__cxx1112basic_stringIcSt11char_traitsIcESaIcEEESt4pairIKS5_S5_ESt10_Select1stIS8_ESt4lessIS5_ESaIS8_EE12_M_rightmostEv = comdat any

$_ZNSt8_Rb_treeINSt7__cxx1112basic_stringIcSt11char_traitsIcESaIcEEESt4pairIKS5_S5_ESt10_Select1stIS8_ESt4lessIS5_ESaIS8_EE24_M_get_insert_unique_posERS7_ = comdat any

$_ZNSt8_Rb_treeINSt7__cxx1112basic_stringIcSt11char_traitsIcESaIcEEESt4pairIKS5_S5_ESt10_Select1stIS8_ESt4lessIS5_ESaIS8_EE11_M_leftmostEv = comdat any

$_ZNSt17_Rb_tree_iteratorISt4pairIKNSt7__cxx1112basic_stringIcSt11char_traitsIcESaIcEEES6_EEmmEv = comdat any

$_ZNSt17_Rb_tree_iteratorISt4pairIKNSt7__cxx1112basic_stringIcSt11char_traitsIcESaIcEEES6_EEppEv = comdat any

$_ZNSt8_Rb_treeINSt7__cxx1112basic_stringIcSt11char_traitsIcESaIcEEESt4pairIKS5_S5_ESt10_Select1stIS8_ESt4lessIS5_ESaIS8_EE5beginEv = comdat any

$_ZNSt4pairIPSt18_Rb_tree_node_baseS1_EC2IRPSt13_Rb_tree_nodeIS_IKNSt7__cxx1112basic_stringIcSt11char_traitsIcESaIcEEESA_EERS1_Lb1EEEOT_OT0_ = comdat any

$_ZSt7forwardIRPSt13_Rb_tree_nodeISt4pairIKNSt7__cxx1112basic_stringIcSt11char_traitsIcESaIcEEES7_EEEOT_RNSt16remove_referenceISD_E4typeE = comdat any

$_ZNSt11_Tuple_implILm0EJRKNSt7__cxx1112basic_stringIcSt11char_traitsIcESaIcEEEEEC2ES7_ = comdat any

$_ZNKSt8_Rb_treeINSt7__cxx1112basic_stringIcSt11char_traitsIcESaIcEEESt4pairIKS5_S5_ESt10_Select1stIS8_ESt4lessIS5_ESaIS8_EE5beginEv = comdat any

$_ZNSt23_Rb_tree_const_iteratorISt4pairIKNSt7__cxx1112basic_stringIcSt11char_traitsIcESaIcEEES6_EEC2EPKSt18_Rb_tree_node_base = comdat any

$_ZNKSt8_Rb_treeINSt7__cxx1112basic_stringIcSt11char_traitsIcESaIcEEESt4pairIKS5_S5_ESt10_Select1stIS8_ESt4lessIS5_ESaIS8_EE3endEv = comdat any

$_ZNSt6vectorIN14social_network5MediaESaIS1_EE15_M_erase_at_endEPS1_ = comdat any

$_ZNSt6vectorIN14social_network5MediaESaIS1_EE17_M_default_appendEm = comdat any

$_ZNKSt6vectorIN14social_network5MediaESaIS1_EE8max_sizeEv = comdat any

$_ZSt27__uninitialized_default_n_aIPN14social_network5MediaEmS1_ET_S3_T0_RSaIT1_E = comdat any

$_ZNKSt6vectorIN14social_network5MediaESaIS1_EE12_M_check_lenEmPKc = comdat any

$_ZNSt12_Vector_baseIN14social_network5MediaESaIS1_EE11_M_allocateEm = comdat any

$_ZSt34__uninitialized_move_if_noexcept_aIPN14social_network5MediaES2_SaIS1_EET0_T_S5_S4_RT1_ = comdat any

$_ZNSt6vectorIN14social_network5MediaESaIS1_EE11_S_max_sizeERKS2_ = comdat any

$_ZNKSt12_Vector_baseIN14social_network5MediaESaIS1_EE19_M_get_Tp_allocatorEv = comdat any

$_ZNSt16allocator_traitsISaIN14social_network5MediaEEE8max_sizeERKS2_ = comdat any

$_ZSt3minImERKT_S2_S2_ = comdat any

$_ZNK9__gnu_cxx13new_allocatorIN14social_network5MediaEE8max_sizeEv = comdat any

$_ZSt25__uninitialized_default_nIPN14social_network5MediaEmET_S3_T0_ = comdat any

$_ZNSt27__uninitialized_default_n_1ILb0EE18__uninit_default_nIPN14social_network5MediaEmEET_S5_T0_ = comdat any

$_ZSt10_ConstructIN14social_network5MediaEJEEvPT_DpOT0_ = comdat any

$_ZN14social_network5MediaC1Ev = comdat any

$_ZN14social_network13_Media__issetC2Ev = comdat any

$_ZSt3maxImERKT_S2_S2_ = comdat any

$_ZNSt16allocator_traitsISaIN14social_network5MediaEEE8allocateERS2_m = comdat any

$_ZN9__gnu_cxx13new_allocatorIN14social_network5MediaEE8allocateEmPKv = comdat any

$_ZSt22__uninitialized_copy_aIPKN14social_network5MediaEPS1_S1_ET0_T_S6_S5_RSaIT1_E = comdat any

$_ZSt32__make_move_if_noexcept_iteratorIN14social_network5MediaEPKS1_ET0_PT_ = comdat any

$_ZSt18uninitialized_copyIPKN14social_network5MediaEPS1_ET0_T_S6_S5_ = comdat any

$_ZNSt20__uninitialized_copyILb0EE13__uninit_copyIPKN14social_network5MediaEPS3_EET0_T_S8_S7_ = comdat any

$_ZSt10_ConstructIN14social_network5MediaEJRKS1_EEvPT_DpOT0_ = comdat any

$_ZSt7forwardIRKN14social_network5MediaEEOT_RNSt16remove_referenceIS4_E4typeE = comdat any

$_ZN9__gnu_cxx17__normal_iteratorIPKN14social_network5MediaESt6vectorIS2_SaIS2_EEEC2ERKS4_ = comdat any

$_ZNK9__gnu_cxx17__normal_iteratorIPKN14social_network5MediaESt6vectorIS2_SaIS2_EEE4baseEv = comdat any

$_ZNSt6vectorIN14social_network3UrlESaIS1_EE15_M_erase_at_endEPS1_ = comdat any

$_ZNSt6vectorIN14social_network3UrlESaIS1_EE17_M_default_appendEm = comdat any

$_ZNKSt6vectorIN14social_network3UrlESaIS1_EE8max_sizeEv = comdat any

$_ZSt27__uninitialized_default_n_aIPN14social_network3UrlEmS1_ET_S3_T0_RSaIT1_E = comdat any

$_ZNKSt6vectorIN14social_network3UrlESaIS1_EE12_M_check_lenEmPKc = comdat any

$_ZNSt12_Vector_baseIN14social_network3UrlESaIS1_EE11_M_allocateEm = comdat any

$_ZSt34__uninitialized_move_if_noexcept_aIPN14social_network3UrlES2_SaIS1_EET0_T_S5_S4_RT1_ = comdat any

$_ZNSt6vectorIN14social_network3UrlESaIS1_EE11_S_max_sizeERKS2_ = comdat any

$_ZNKSt12_Vector_baseIN14social_network3UrlESaIS1_EE19_M_get_Tp_allocatorEv = comdat any

$_ZNSt16allocator_traitsISaIN14social_network3UrlEEE8max_sizeERKS2_ = comdat any

$_ZNK9__gnu_cxx13new_allocatorIN14social_network3UrlEE8max_sizeEv = comdat any

$_ZSt25__uninitialized_default_nIPN14social_network3UrlEmET_S3_T0_ = comdat any

$_ZNSt27__uninitialized_default_n_1ILb0EE18__uninit_default_nIPN14social_network3UrlEmEET_S5_T0_ = comdat any

$_ZSt10_ConstructIN14social_network3UrlEJEEvPT_DpOT0_ = comdat any

$_ZN14social_network3UrlC1Ev = comdat any

$_ZN14social_network11_Url__issetC2Ev = comdat any

$_ZNSt16allocator_traitsISaIN14social_network3UrlEEE8allocateERS2_m = comdat any

$_ZN9__gnu_cxx13new_allocatorIN14social_network3UrlEE8allocateEmPKv = comdat any

$_ZSt22__uninitialized_copy_aIPKN14social_network3UrlEPS1_S1_ET0_T_S6_S5_RSaIT1_E = comdat any

$_ZSt32__make_move_if_noexcept_iteratorIN14social_network3UrlEPKS1_ET0_PT_ = comdat any

$_ZSt18uninitialized_copyIPKN14social_network3UrlEPS1_ET0_T_S6_S5_ = comdat any

$_ZNSt20__uninitialized_copyILb0EE13__uninit_copyIPKN14social_network3UrlEPS3_EET0_T_S8_S7_ = comdat any

$_ZSt10_ConstructIN14social_network3UrlEJRKS1_EEvPT_DpOT0_ = comdat any

$_ZSt7forwardIRKN14social_network3UrlEEOT_RNSt16remove_referenceIS4_E4typeE = comdat any

$_ZN9__gnu_cxx17__normal_iteratorIPKN14social_network3UrlESt6vectorIS2_SaIS2_EEEC2ERKS4_ = comdat any

$_ZNK9__gnu_cxx17__normal_iteratorIPKN14social_network3UrlESt6vectorIS2_SaIS2_EEE4baseEv = comdat any

$_ZNSt6vectorIN14social_network11UserMentionESaIS1_EE15_M_erase_at_endEPS1_ = comdat any

$_ZNSt6vectorIN14social_network11UserMentionESaIS1_EE17_M_default_appendEm = comdat any

$_ZNKSt6vectorIN14social_network11UserMentionESaIS1_EE8max_sizeEv = comdat any

$_ZSt27__uninitialized_default_n_aIPN14social_network11UserMentionEmS1_ET_S3_T0_RSaIT1_E = comdat any

$_ZNKSt6vectorIN14social_network11UserMentionESaIS1_EE12_M_check_lenEmPKc = comdat any

$_ZNSt12_Vector_baseIN14social_network11UserMentionESaIS1_EE11_M_allocateEm = comdat any

$_ZSt34__uninitialized_move_if_noexcept_aIPN14social_network11UserMentionES2_SaIS1_EET0_T_S5_S4_RT1_ = comdat any

$_ZNSt6vectorIN14social_network11UserMentionESaIS1_EE11_S_max_sizeERKS2_ = comdat any

$_ZNKSt12_Vector_baseIN14social_network11UserMentionESaIS1_EE19_M_get_Tp_allocatorEv = comdat any

$_ZNSt16allocator_traitsISaIN14social_network11UserMentionEEE8max_sizeERKS2_ = comdat any

$_ZNK9__gnu_cxx13new_allocatorIN14social_network11UserMentionEE8max_sizeEv = comdat any

$_ZSt25__uninitialized_default_nIPN14social_network11UserMentionEmET_S3_T0_ = comdat any

$_ZNSt27__uninitialized_default_n_1ILb0EE18__uninit_default_nIPN14social_network11UserMentionEmEET_S5_T0_ = comdat any

$_ZSt10_ConstructIN14social_network11UserMentionEJEEvPT_DpOT0_ = comdat any

$_ZN14social_network11UserMentionC1Ev = comdat any

$_ZN14social_network19_UserMention__issetC2Ev = comdat any

$_ZNSt16allocator_traitsISaIN14social_network11UserMentionEEE8allocateERS2_m = comdat any

$_ZN9__gnu_cxx13new_allocatorIN14social_network11UserMentionEE8allocateEmPKv = comdat any

$_ZSt22__uninitialized_copy_aIPKN14social_network11UserMentionEPS1_S1_ET0_T_S6_S5_RSaIT1_E = comdat any

$_ZSt32__make_move_if_noexcept_iteratorIN14social_network11UserMentionEPKS1_ET0_PT_ = comdat any

$_ZSt18uninitialized_copyIPKN14social_network11UserMentionEPS1_ET0_T_S6_S5_ = comdat any

$_ZNSt20__uninitialized_copyILb0EE13__uninit_copyIPKN14social_network11UserMentionEPS3_EET0_T_S8_S7_ = comdat any

$_ZSt10_ConstructIN14social_network11UserMentionEJRKS1_EEvPT_DpOT0_ = comdat any

$_ZSt7forwardIRKN14social_network11UserMentionEEOT_RNSt16remove_referenceIS4_E4typeE = comdat any

$_ZN9__gnu_cxx17__normal_iteratorIPKN14social_network11UserMentionESt6vectorIS2_SaIS2_EEEC2ERKS4_ = comdat any

$_ZNK9__gnu_cxx17__normal_iteratorIPKN14social_network11UserMentionESt6vectorIS2_SaIS2_EEE4baseEv = comdat any

$_ZNKSt19__shared_ptr_accessIN6apache6thrift9transport10TTransportELN9__gnu_cxx12_Lock_policyE2ELb0ELb0EE6_M_getEv = comdat any

$_ZNKSt12__shared_ptrIN6apache6thrift9transport10TTransportELN9__gnu_cxx12_Lock_policyE2EE3getEv = comdat any

$_ZNSt8_Rb_treeINSt7__cxx1112basic_stringIcSt11char_traitsIcESaIcEEESt4pairIKS5_MN14social_network27ComposePostServiceProcessorEFviPN6apache6thrift8protocol9TProtocolESE_PvEESt10_Select1stISI_ESt4lessIS5_ESaISI_EE4findERS7_ = comdat any

$_ZNSt8_Rb_treeINSt7__cxx1112basic_stringIcSt11char_traitsIcESaIcEEESt4pairIKS5_MN14social_network27ComposePostServiceProcessorEFviPN6apache6thrift8protocol9TProtocolESE_PvEESt10_Select1stISI_ESt4lessIS5_ESaISI_EE3endEv = comdat any

$_ZNSt11char_traitsIcE6lengthEPKc = comdat any

$_ZNKSt19__shared_ptr_accessIN6apache6thrift22TProcessorEventHandlerELN9__gnu_cxx12_Lock_policyE2ELb0ELb0EE6_M_getEv = comdat any

$_ZNKSt19__shared_ptr_accessIN14social_network27ComposePostServiceIfFactoryELN9__gnu_cxx12_Lock_policyE2ELb0ELb0EE6_M_getEv = comdat any

$_ZNKSt12__shared_ptrIN14social_network27ComposePostServiceIfFactoryELN9__gnu_cxx12_Lock_policyE2EE3getEv = comdat any

$_ZSt4moveIRN6apache6thrift14ReleaseHandlerIN14social_network27ComposePostServiceIfFactoryEEEEONSt16remove_referenceIT_E4typeEOS8_ = comdat any

$_ZN6apache6thrift14ReleaseHandlerIN14social_network27ComposePostServiceIfFactoryEEC2EOS4_ = comdat any

$_ZNSt12__shared_ptrIN14social_network20ComposePostServiceIfELN9__gnu_cxx12_Lock_policyE2EEC2IS1_N6apache6thrift14ReleaseHandlerINS0_27ComposePostServiceIfFactoryEEEvEEPT_T0_ = comdat any

$_ZNSt10shared_ptrIN14social_network27ComposePostServiceIfFactoryEEC2EOS2_ = comdat any

$_ZSt4moveIRSt10shared_ptrIN14social_network27ComposePostServiceIfFactoryEEEONSt16remove_referenceIT_E4typeEOS6_ = comdat any

$_ZNSt12__shared_ptrIN14social_network27ComposePostServiceIfFactoryELN9__gnu_cxx12_Lock_policyE2EEC2EOS4_ = comdat any

$_ZNSt14__shared_countILN9__gnu_cxx12_Lock_policyE2EE7_M_swapERS2_ = comdat any

$_ZNSt14__shared_countILN9__gnu_cxx12_Lock_policyE2EEC2IPN14social_network20ComposePostServiceIfEN6apache6thrift14ReleaseHandlerINS4_27ComposePostServiceIfFactoryEEEvEET_T0_ = comdat any

$_ZNSt12__shared_ptrIN14social_network20ComposePostServiceIfELN9__gnu_cxx12_Lock_policyE2EE31_M_enable_shared_from_this_withIS1_S1_EENSt9enable_ifIXntsr15__has_esft_baseIT0_EE5valueEvE4typeEPT_ = comdat any

$_ZNSt14__shared_countILN9__gnu_cxx12_Lock_policyE2EEC2IPN14social_network20ComposePostServiceIfEN6apache6thrift14ReleaseHandlerINS4_27ComposePostServiceIfFactoryEEESaIvEvEET_T0_T1_ = comdat any

$_ZNSaISt19_Sp_counted_deleterIPN14social_network20ComposePostServiceIfEN6apache6thrift14ReleaseHandlerINS0_27ComposePostServiceIfFactoryEEESaIvELN9__gnu_cxx12_Lock_policyE2EEEC2IvEERKSaIT_E = comdat any

$_ZSt18__allocate_guardedISaISt19_Sp_counted_deleterIPN14social_network20ComposePostServiceIfEN6apache6thrift14ReleaseHandlerINS1_27ComposePostServiceIfFactoryEEESaIvELN9__gnu_cxx12_Lock_policyE2EEEESt15__allocated_ptrIT_ERSF_ = comdat any

$_ZNSt15__allocated_ptrISaISt19_Sp_counted_deleterIPN14social_network20ComposePostServiceIfEN6apache6thrift14ReleaseHandlerINS1_27ComposePostServiceIfFactoryEEESaIvELN9__gnu_cxx12_Lock_policyE2EEEE3getEv = comdat any

$_ZSt4moveIRSaIvEEONSt16remove_referenceIT_E4typeEOS3_ = comdat any

$_ZNSt19_Sp_counted_deleterIPN14social_network20ComposePostServiceIfEN6apache6thrift14ReleaseHandlerINS0_27ComposePostServiceIfFactoryEEESaIvELN9__gnu_cxx12_Lock_policyE2EEC2ES2_S7_RKS8_ = comdat any

$_ZNSt15__allocated_ptrISaISt19_Sp_counted_deleterIPN14social_network20ComposePostServiceIfEN6apache6thrift14ReleaseHandlerINS1_27ComposePostServiceIfFactoryEEESaIvELN9__gnu_cxx12_Lock_policyE2EEEEaSEDn = comdat any

$_ZNSt15__allocated_ptrISaISt19_Sp_counted_deleterIPN14social_network20ComposePostServiceIfEN6apache6thrift14ReleaseHandlerINS1_27ComposePostServiceIfFactoryEEESaIvELN9__gnu_cxx12_Lock_policyE2EEEED2Ev = comdat any

$_ZNSaISt19_Sp_counted_deleterIPN14social_network20ComposePostServiceIfEN6apache6thrift14ReleaseHandlerINS0_27ComposePostServiceIfFactoryEEESaIvELN9__gnu_cxx12_Lock_policyE2EEED2Ev = comdat any

$_ZN6apache6thrift14ReleaseHandlerIN14social_network27ComposePostServiceIfFactoryEEclEPNS2_20ComposePostServiceIfE = comdat any

$_ZN9__gnu_cxx13new_allocatorISt19_Sp_counted_deleterIPN14social_network20ComposePostServiceIfEN6apache6thrift14ReleaseHandlerINS2_27ComposePostServiceIfFactoryEEESaIvELNS_12_Lock_policyE2EEEC2Ev = comdat any

$_ZNSt16allocator_traitsISaISt19_Sp_counted_deleterIPN14social_network20ComposePostServiceIfEN6apache6thrift14ReleaseHandlerINS1_27ComposePostServiceIfFactoryEEESaIvELN9__gnu_cxx12_Lock_policyE2EEEE8allocateERSD_m = comdat any

$_ZNSt15__allocated_ptrISaISt19_Sp_counted_deleterIPN14social_network20ComposePostServiceIfEN6apache6thrift14ReleaseHandlerINS1_27ComposePostServiceIfFactoryEEESaIvELN9__gnu_cxx12_Lock_policyE2EEEEC2ERSD_PSC_ = comdat any

$_ZN9__gnu_cxx13new_allocatorISt19_Sp_counted_deleterIPN14social_network20ComposePostServiceIfEN6apache6thrift14ReleaseHandlerINS2_27ComposePostServiceIfFactoryEEESaIvELNS_12_Lock_policyE2EEE8allocateEmPKv = comdat any

$_ZNK9__gnu_cxx13new_allocatorISt19_Sp_counted_deleterIPN14social_network20ComposePostServiceIfEN6apache6thrift14ReleaseHandlerINS2_27ComposePostServiceIfFactoryEEESaIvELNS_12_Lock_policyE2EEE8max_sizeEv = comdat any

$_ZSt11__addressofISaISt19_Sp_counted_deleterIPN14social_network20ComposePostServiceIfEN6apache6thrift14ReleaseHandlerINS1_27ComposePostServiceIfFactoryEEESaIvELN9__gnu_cxx12_Lock_policyE2EEEEPT_RSE_ = comdat any

$_ZSt12__to_addressISt19_Sp_counted_deleterIPN14social_network20ComposePostServiceIfEN6apache6thrift14ReleaseHandlerINS1_27ComposePostServiceIfFactoryEEESaIvELN9__gnu_cxx12_Lock_policyE2EEEPT_SE_ = comdat any

$_ZNSt16_Sp_counted_baseILN9__gnu_cxx12_Lock_policyE2EEC2Ev = comdat any

$_ZNSt19_Sp_counted_deleterIPN14social_network20ComposePostServiceIfEN6apache6thrift14ReleaseHandlerINS0_27ComposePostServiceIfFactoryEEESaIvELN9__gnu_cxx12_Lock_policyE2EE5_ImplC2ES2_S7_RKS8_ = comdat any

$_ZNSt19_Sp_counted_deleterIPN14social_network20ComposePostServiceIfEN6apache6thrift14ReleaseHandlerINS0_27ComposePostServiceIfFactoryEEESaIvELN9__gnu_cxx12_Lock_policyE2EED2Ev = comdat any

$_ZNSt19_Sp_counted_deleterIPN14social_network20ComposePostServiceIfEN6apache6thrift14ReleaseHandlerINS0_27ComposePostServiceIfFactoryEEESaIvELN9__gnu_cxx12_Lock_policyE2EED0Ev = comdat any

$_ZNSt19_Sp_counted_deleterIPN14social_network20ComposePostServiceIfEN6apache6thrift14ReleaseHandlerINS0_27ComposePostServiceIfFactoryEEESaIvELN9__gnu_cxx12_Lock_policyE2EE10_M_disposeEv = comdat any

$_ZNSt19_Sp_counted_deleterIPN14social_network20ComposePostServiceIfEN6apache6thrift14ReleaseHandlerINS0_27ComposePostServiceIfFactoryEEESaIvELN9__gnu_cxx12_Lock_policyE2EE10_M_destroyEv = comdat any

$_ZNSt19_Sp_counted_deleterIPN14social_network20ComposePostServiceIfEN6apache6thrift14ReleaseHandlerINS0_27ComposePostServiceIfFactoryEEESaIvELN9__gnu_cxx12_Lock_policyE2EE14_M_get_deleterERKSt9type_info = comdat any

$_ZNSt16_Sp_counted_baseILN9__gnu_cxx12_Lock_policyE2EED2Ev = comdat any

$_ZNSt16_Sp_counted_baseILN9__gnu_cxx12_Lock_policyE2EED0Ev = comdat any

$_ZNSt16_Sp_counted_baseILN9__gnu_cxx12_Lock_policyE2EE10_M_destroyEv = comdat any

$_ZNSt14_Sp_ebo_helperILi0EN6apache6thrift14ReleaseHandlerIN14social_network27ComposePostServiceIfFactoryEEELb0EEC2EOS5_ = comdat any

$_ZNSt14_Sp_ebo_helperILi1ESaIvELb1EEC2ERKS0_ = comdat any

$_ZNSt14_Sp_ebo_helperILi0EN6apache6thrift14ReleaseHandlerIN14social_network27ComposePostServiceIfFactoryEEELb0EED2Ev = comdat any

$_ZNSt19_Sp_counted_deleterIPN14social_network20ComposePostServiceIfEN6apache6thrift14ReleaseHandlerINS0_27ComposePostServiceIfFactoryEEESaIvELN9__gnu_cxx12_Lock_policyE2EE5_ImplD2Ev = comdat any

$_ZNSt19_Sp_counted_deleterIPN14social_network20ComposePostServiceIfEN6apache6thrift14ReleaseHandlerINS0_27ComposePostServiceIfFactoryEEESaIvELN9__gnu_cxx12_Lock_policyE2EE5_Impl6_M_delEv = comdat any

$_ZNSt14_Sp_ebo_helperILi0EN6apache6thrift14ReleaseHandlerIN14social_network27ComposePostServiceIfFactoryEEELb0EE6_S_getERS6_ = comdat any

$_ZNSt19_Sp_counted_deleterIPN14social_network20ComposePostServiceIfEN6apache6thrift14ReleaseHandlerINS0_27ComposePostServiceIfFactoryEEESaIvELN9__gnu_cxx12_Lock_policyE2EE5_Impl8_M_allocEv = comdat any

$_ZNSt14_Sp_ebo_helperILi1ESaIvELb1EE6_S_getERS1_ = comdat any

$_ZNKSt9type_infoeqERKS_ = comdat any

$_ZSt11__addressofIN6apache6thrift14ReleaseHandlerIN14social_network27ComposePostServiceIfFactoryEEEEPT_RS6_ = comdat any

$_ZNSt16allocator_traitsISaISt19_Sp_counted_deleterIPN14social_network20ComposePostServiceIfEN6apache6thrift14ReleaseHandlerINS1_27ComposePostServiceIfFactoryEEESaIvELN9__gnu_cxx12_Lock_policyE2EEEE10deallocateERSD_PSC_m = comdat any

$_ZN9__gnu_cxx13new_allocatorISt19_Sp_counted_deleterIPN14social_network20ComposePostServiceIfEN6apache6thrift14ReleaseHandlerINS2_27ComposePostServiceIfFactoryEEESaIvELNS_12_Lock_policyE2EEE10deallocateEPSC_m = comdat any

$_ZN9__gnu_cxx13new_allocatorISt19_Sp_counted_deleterIPN14social_network20ComposePostServiceIfEN6apache6thrift14ReleaseHandlerINS2_27ComposePostServiceIfFactoryEEESaIvELNS_12_Lock_policyE2EEED2Ev = comdat any

$_ZNSt12__shared_ptrIN6apache6thrift10TProcessorELN9__gnu_cxx12_Lock_policyE2EEC2IN14social_network27ComposePostServiceProcessorEvEEPT_ = comdat any

$_ZNSt14__shared_countILN9__gnu_cxx12_Lock_policyE2EEC2IPN14social_network27ComposePostServiceProcessorEEET_St17integral_constantIbLb0EE = comdat any

$_ZNSt12__shared_ptrIN6apache6thrift10TProcessorELN9__gnu_cxx12_Lock_policyE2EE31_M_enable_shared_from_this_withIN14social_network27ComposePostServiceProcessorES8_EENSt9enable_ifIXntsr15__has_esft_baseIT0_EE5valueEvE4typeEPT_ = comdat any

$_ZNSt14__shared_countILN9__gnu_cxx12_Lock_policyE2EEC2IPN14social_network27ComposePostServiceProcessorEEET_ = comdat any

$_ZNSt15_Sp_counted_ptrIPN14social_network27ComposePostServiceProcessorELN9__gnu_cxx12_Lock_policyE2EEC2ES2_ = comdat any

$_ZNSt15_Sp_counted_ptrIPN14social_network27ComposePostServiceProcessorELN9__gnu_cxx12_Lock_policyE2EED2Ev = comdat any

$_ZNSt15_Sp_counted_ptrIPN14social_network27ComposePostServiceProcessorELN9__gnu_cxx12_Lock_policyE2EED0Ev = comdat any

$_ZNSt15_Sp_counted_ptrIPN14social_network27ComposePostServiceProcessorELN9__gnu_cxx12_Lock_policyE2EE10_M_disposeEv = comdat any

$_ZNSt15_Sp_counted_ptrIPN14social_network27ComposePostServiceProcessorELN9__gnu_cxx12_Lock_policyE2EE10_M_destroyEv = comdat any

$_ZNSt15_Sp_counted_ptrIPN14social_network27ComposePostServiceProcessorELN9__gnu_cxx12_Lock_policyE2EE14_M_get_deleterERKSt9type_info = comdat any

$_ZTSN6apache6thrift21TApplicationExceptionE = comdat any

$_ZTSN6apache6thrift10TExceptionE = comdat any

$_ZTIN6apache6thrift10TExceptionE = comdat any

$_ZTIN6apache6thrift21TApplicationExceptionE = comdat any

$_ZTSN6apache6thrift8protocol18TProtocolExceptionE = comdat any

$_ZTIN6apache6thrift8protocol18TProtocolExceptionE = comdat any

$_ZTSN14social_network20ComposePostServiceIfE = comdat any

$_ZTIN14social_network20ComposePostServiceIfE = comdat any

$_ZTSN6apache6thrift18TDispatchProcessorE = comdat any

$_ZTSN6apache6thrift10TProcessorE = comdat any

$_ZTIN6apache6thrift10TProcessorE = comdat any

$_ZTIN6apache6thrift18TDispatchProcessorE = comdat any

$_ZTSN6apache6thrift17TProcessorFactoryE = comdat any

$_ZTIN6apache6thrift17TProcessorFactoryE = comdat any

$_ZTVN6apache6thrift21TApplicationExceptionE = comdat any

$_ZTVN6apache6thrift10TExceptionE = comdat any

$_ZTVN6apache6thrift5TBaseE = comdat any

$_ZTSN6apache6thrift5TBaseE = comdat any

$_ZTIN6apache6thrift5TBaseE = comdat any

$_ZTVN6apache6thrift18TDispatchProcessorE = comdat any

$_ZTVN6apache6thrift10TProcessorE = comdat any

$_ZTVN6apache6thrift8protocol18TProtocolExceptionE = comdat any

$_ZTVSt19_Sp_counted_deleterIPN14social_network20ComposePostServiceIfEN6apache6thrift14ReleaseHandlerINS0_27ComposePostServiceIfFactoryEEESaIvELN9__gnu_cxx12_Lock_policyE2EE = comdat any

$_ZTSSt19_Sp_counted_deleterIPN14social_network20ComposePostServiceIfEN6apache6thrift14ReleaseHandlerINS0_27ComposePostServiceIfFactoryEEESaIvELN9__gnu_cxx12_Lock_policyE2EE = comdat any

$_ZTSSt16_Sp_counted_baseILN9__gnu_cxx12_Lock_policyE2EE = comdat any

$_ZTSSt11_Mutex_baseILN9__gnu_cxx12_Lock_policyE2EE = comdat any

$_ZTISt11_Mutex_baseILN9__gnu_cxx12_Lock_policyE2EE = comdat any

$_ZTISt16_Sp_counted_baseILN9__gnu_cxx12_Lock_policyE2EE = comdat any

$_ZTISt19_Sp_counted_deleterIPN14social_network20ComposePostServiceIfEN6apache6thrift14ReleaseHandlerINS0_27ComposePostServiceIfFactoryEEESaIvELN9__gnu_cxx12_Lock_policyE2EE = comdat any

$_ZTVSt16_Sp_counted_baseILN9__gnu_cxx12_Lock_policyE2EE = comdat any

$_ZTSN6apache6thrift14ReleaseHandlerIN14social_network27ComposePostServiceIfFactoryEEE = comdat any

$_ZTIN6apache6thrift14ReleaseHandlerIN14social_network27ComposePostServiceIfFactoryEEE = comdat any

$_ZTVSt15_Sp_counted_ptrIPN14social_network27ComposePostServiceProcessorELN9__gnu_cxx12_Lock_policyE2EE = comdat any

$_ZTSSt15_Sp_counted_ptrIPN14social_network27ComposePostServiceProcessorELN9__gnu_cxx12_Lock_policyE2EE = comdat any

$_ZTISt15_Sp_counted_ptrIPN14social_network27ComposePostServiceProcessorELN9__gnu_cxx12_Lock_policyE2EE = comdat any

@_ZTVN14social_network34ComposePostService_UploadText_argsE = unnamed_addr constant { [4 x i8*] } { [4 x i8*] [i8* null, i8* bitcast ({ i8*, i8* }* @_ZTIN14social_network34ComposePostService_UploadText_argsE to i8*), i8* bitcast (void (%"class.social_network::ComposePostService_UploadText_args"*)* @_ZN14social_network34ComposePostService_UploadText_argsD1Ev to i8*), i8* bitcast (void (%"class.social_network::ComposePostService_UploadText_args"*)* @_ZN14social_network34ComposePostService_UploadText_argsD0Ev to i8*)] }, align 8
@.str = private unnamed_addr constant [35 x i8] c"ComposePostService_UploadText_args\00", align 1
@.str.1 = private unnamed_addr constant [7 x i8] c"req_id\00", align 1
@.str.2 = private unnamed_addr constant [5 x i8] c"text\00", align 1
@.str.3 = private unnamed_addr constant [8 x i8] c"carrier\00", align 1
@.str.4 = private unnamed_addr constant [36 x i8] c"ComposePostService_UploadText_pargs\00", align 1
@_ZTVN14social_network36ComposePostService_UploadText_resultE = unnamed_addr constant { [4 x i8*] } { [4 x i8*] [i8* null, i8* bitcast ({ i8*, i8* }* @_ZTIN14social_network36ComposePostService_UploadText_resultE to i8*), i8* bitcast (void (%"class.social_network::ComposePostService_UploadText_result"*)* @_ZN14social_network36ComposePostService_UploadText_resultD1Ev to i8*), i8* bitcast (void (%"class.social_network::ComposePostService_UploadText_result"*)* @_ZN14social_network36ComposePostService_UploadText_resultD0Ev to i8*)] }, align 8
@.str.5 = private unnamed_addr constant [37 x i8] c"ComposePostService_UploadText_result\00", align 1
@.str.6 = private unnamed_addr constant [3 x i8] c"se\00", align 1
@_ZTVN14social_network37ComposePostService_UploadText_presultE = unnamed_addr constant { [4 x i8*] } { [4 x i8*] [i8* null, i8* bitcast ({ i8*, i8* }* @_ZTIN14social_network37ComposePostService_UploadText_presultE to i8*), i8* bitcast (void (%"class.social_network::ComposePostService_UploadText_presult"*)* @_ZN14social_network37ComposePostService_UploadText_presultD1Ev to i8*), i8* bitcast (void (%"class.social_network::ComposePostService_UploadText_presult"*)* @_ZN14social_network37ComposePostService_UploadText_presultD0Ev to i8*)] }, align 8
@_ZTVN14social_network35ComposePostService_UploadMedia_argsE = unnamed_addr constant { [4 x i8*] } { [4 x i8*] [i8* null, i8* bitcast ({ i8*, i8* }* @_ZTIN14social_network35ComposePostService_UploadMedia_argsE to i8*), i8* bitcast (void (%"class.social_network::ComposePostService_UploadMedia_args"*)* @_ZN14social_network35ComposePostService_UploadMedia_argsD1Ev to i8*), i8* bitcast (void (%"class.social_network::ComposePostService_UploadMedia_args"*)* @_ZN14social_network35ComposePostService_UploadMedia_argsD0Ev to i8*)] }, align 8
@.str.7 = private unnamed_addr constant [36 x i8] c"ComposePostService_UploadMedia_args\00", align 1
@.str.8 = private unnamed_addr constant [6 x i8] c"media\00", align 1
@.str.9 = private unnamed_addr constant [37 x i8] c"ComposePostService_UploadMedia_pargs\00", align 1
@_ZTVN14social_network37ComposePostService_UploadMedia_resultE = unnamed_addr constant { [4 x i8*] } { [4 x i8*] [i8* null, i8* bitcast ({ i8*, i8* }* @_ZTIN14social_network37ComposePostService_UploadMedia_resultE to i8*), i8* bitcast (void (%"class.social_network::ComposePostService_UploadMedia_result"*)* @_ZN14social_network37ComposePostService_UploadMedia_resultD1Ev to i8*), i8* bitcast (void (%"class.social_network::ComposePostService_UploadMedia_result"*)* @_ZN14social_network37ComposePostService_UploadMedia_resultD0Ev to i8*)] }, align 8
@.str.10 = private unnamed_addr constant [38 x i8] c"ComposePostService_UploadMedia_result\00", align 1
@_ZTVN14social_network38ComposePostService_UploadMedia_presultE = unnamed_addr constant { [4 x i8*] } { [4 x i8*] [i8* null, i8* bitcast ({ i8*, i8* }* @_ZTIN14social_network38ComposePostService_UploadMedia_presultE to i8*), i8* bitcast (void (%"class.social_network::ComposePostService_UploadMedia_presult"*)* @_ZN14social_network38ComposePostService_UploadMedia_presultD1Ev to i8*), i8* bitcast (void (%"class.social_network::ComposePostService_UploadMedia_presult"*)* @_ZN14social_network38ComposePostService_UploadMedia_presultD0Ev to i8*)] }, align 8
@_ZTVN14social_network38ComposePostService_UploadUniqueId_argsE = unnamed_addr constant { [4 x i8*] } { [4 x i8*] [i8* null, i8* bitcast ({ i8*, i8* }* @_ZTIN14social_network38ComposePostService_UploadUniqueId_argsE to i8*), i8* bitcast (void (%"class.social_network::ComposePostService_UploadUniqueId_args"*)* @_ZN14social_network38ComposePostService_UploadUniqueId_argsD1Ev to i8*), i8* bitcast (void (%"class.social_network::ComposePostService_UploadUniqueId_args"*)* @_ZN14social_network38ComposePostService_UploadUniqueId_argsD0Ev to i8*)] }, align 8
@.str.11 = private unnamed_addr constant [39 x i8] c"ComposePostService_UploadUniqueId_args\00", align 1
@.str.12 = private unnamed_addr constant [8 x i8] c"post_id\00", align 1
@.str.13 = private unnamed_addr constant [10 x i8] c"post_type\00", align 1
@.str.14 = private unnamed_addr constant [40 x i8] c"ComposePostService_UploadUniqueId_pargs\00", align 1
@_ZTVN14social_network40ComposePostService_UploadUniqueId_resultE = unnamed_addr constant { [4 x i8*] } { [4 x i8*] [i8* null, i8* bitcast ({ i8*, i8* }* @_ZTIN14social_network40ComposePostService_UploadUniqueId_resultE to i8*), i8* bitcast (void (%"class.social_network::ComposePostService_UploadUniqueId_result"*)* @_ZN14social_network40ComposePostService_UploadUniqueId_resultD1Ev to i8*), i8* bitcast (void (%"class.social_network::ComposePostService_UploadUniqueId_result"*)* @_ZN14social_network40ComposePostService_UploadUniqueId_resultD0Ev to i8*)] }, align 8
@.str.15 = private unnamed_addr constant [41 x i8] c"ComposePostService_UploadUniqueId_result\00", align 1
@_ZTVN14social_network41ComposePostService_UploadUniqueId_presultE = unnamed_addr constant { [4 x i8*] } { [4 x i8*] [i8* null, i8* bitcast ({ i8*, i8* }* @_ZTIN14social_network41ComposePostService_UploadUniqueId_presultE to i8*), i8* bitcast (void (%"class.social_network::ComposePostService_UploadUniqueId_presult"*)* @_ZN14social_network41ComposePostService_UploadUniqueId_presultD1Ev to i8*), i8* bitcast (void (%"class.social_network::ComposePostService_UploadUniqueId_presult"*)* @_ZN14social_network41ComposePostService_UploadUniqueId_presultD0Ev to i8*)] }, align 8
@_ZTVN14social_network37ComposePostService_UploadCreator_argsE = unnamed_addr constant { [4 x i8*] } { [4 x i8*] [i8* null, i8* bitcast ({ i8*, i8* }* @_ZTIN14social_network37ComposePostService_UploadCreator_argsE to i8*), i8* bitcast (void (%"class.social_network::ComposePostService_UploadCreator_args"*)* @_ZN14social_network37ComposePostService_UploadCreator_argsD1Ev to i8*), i8* bitcast (void (%"class.social_network::ComposePostService_UploadCreator_args"*)* @_ZN14social_network37ComposePostService_UploadCreator_argsD0Ev to i8*)] }, align 8
@.str.16 = private unnamed_addr constant [38 x i8] c"ComposePostService_UploadCreator_args\00", align 1
@.str.17 = private unnamed_addr constant [8 x i8] c"creator\00", align 1
@.str.18 = private unnamed_addr constant [39 x i8] c"ComposePostService_UploadCreator_pargs\00", align 1
@_ZTVN14social_network39ComposePostService_UploadCreator_resultE = unnamed_addr constant { [4 x i8*] } { [4 x i8*] [i8* null, i8* bitcast ({ i8*, i8* }* @_ZTIN14social_network39ComposePostService_UploadCreator_resultE to i8*), i8* bitcast (void (%"class.social_network::ComposePostService_UploadCreator_result"*)* @_ZN14social_network39ComposePostService_UploadCreator_resultD1Ev to i8*), i8* bitcast (void (%"class.social_network::ComposePostService_UploadCreator_result"*)* @_ZN14social_network39ComposePostService_UploadCreator_resultD0Ev to i8*)] }, align 8
@.str.19 = private unnamed_addr constant [40 x i8] c"ComposePostService_UploadCreator_result\00", align 1
@_ZTVN14social_network40ComposePostService_UploadCreator_presultE = unnamed_addr constant { [4 x i8*] } { [4 x i8*] [i8* null, i8* bitcast ({ i8*, i8* }* @_ZTIN14social_network40ComposePostService_UploadCreator_presultE to i8*), i8* bitcast (void (%"class.social_network::ComposePostService_UploadCreator_presult"*)* @_ZN14social_network40ComposePostService_UploadCreator_presultD1Ev to i8*), i8* bitcast (void (%"class.social_network::ComposePostService_UploadCreator_presult"*)* @_ZN14social_network40ComposePostService_UploadCreator_presultD0Ev to i8*)] }, align 8
@_ZTVN14social_network34ComposePostService_UploadUrls_argsE = unnamed_addr constant { [4 x i8*] } { [4 x i8*] [i8* null, i8* bitcast ({ i8*, i8* }* @_ZTIN14social_network34ComposePostService_UploadUrls_argsE to i8*), i8* bitcast (void (%"class.social_network::ComposePostService_UploadUrls_args"*)* @_ZN14social_network34ComposePostService_UploadUrls_argsD1Ev to i8*), i8* bitcast (void (%"class.social_network::ComposePostService_UploadUrls_args"*)* @_ZN14social_network34ComposePostService_UploadUrls_argsD0Ev to i8*)] }, align 8
@.str.20 = private unnamed_addr constant [35 x i8] c"ComposePostService_UploadUrls_args\00", align 1
@.str.21 = private unnamed_addr constant [5 x i8] c"urls\00", align 1
@.str.22 = private unnamed_addr constant [36 x i8] c"ComposePostService_UploadUrls_pargs\00", align 1
@_ZTVN14social_network36ComposePostService_UploadUrls_resultE = unnamed_addr constant { [4 x i8*] } { [4 x i8*] [i8* null, i8* bitcast ({ i8*, i8* }* @_ZTIN14social_network36ComposePostService_UploadUrls_resultE to i8*), i8* bitcast (void (%"class.social_network::ComposePostService_UploadUrls_result"*)* @_ZN14social_network36ComposePostService_UploadUrls_resultD1Ev to i8*), i8* bitcast (void (%"class.social_network::ComposePostService_UploadUrls_result"*)* @_ZN14social_network36ComposePostService_UploadUrls_resultD0Ev to i8*)] }, align 8
@.str.23 = private unnamed_addr constant [37 x i8] c"ComposePostService_UploadUrls_result\00", align 1
@_ZTVN14social_network37ComposePostService_UploadUrls_presultE = unnamed_addr constant { [4 x i8*] } { [4 x i8*] [i8* null, i8* bitcast ({ i8*, i8* }* @_ZTIN14social_network37ComposePostService_UploadUrls_presultE to i8*), i8* bitcast (void (%"class.social_network::ComposePostService_UploadUrls_presult"*)* @_ZN14social_network37ComposePostService_UploadUrls_presultD1Ev to i8*), i8* bitcast (void (%"class.social_network::ComposePostService_UploadUrls_presult"*)* @_ZN14social_network37ComposePostService_UploadUrls_presultD0Ev to i8*)] }, align 8
@_ZTVN14social_network42ComposePostService_UploadUserMentions_argsE = unnamed_addr constant { [4 x i8*] } { [4 x i8*] [i8* null, i8* bitcast ({ i8*, i8* }* @_ZTIN14social_network42ComposePostService_UploadUserMentions_argsE to i8*), i8* bitcast (void (%"class.social_network::ComposePostService_UploadUserMentions_args"*)* @_ZN14social_network42ComposePostService_UploadUserMentions_argsD1Ev to i8*), i8* bitcast (void (%"class.social_network::ComposePostService_UploadUserMentions_args"*)* @_ZN14social_network42ComposePostService_UploadUserMentions_argsD0Ev to i8*)] }, align 8
@.str.24 = private unnamed_addr constant [43 x i8] c"ComposePostService_UploadUserMentions_args\00", align 1
@.str.25 = private unnamed_addr constant [14 x i8] c"user_mentions\00", align 1
@.str.26 = private unnamed_addr constant [44 x i8] c"ComposePostService_UploadUserMentions_pargs\00", align 1
@_ZTVN14social_network44ComposePostService_UploadUserMentions_resultE = unnamed_addr constant { [4 x i8*] } { [4 x i8*] [i8* null, i8* bitcast ({ i8*, i8* }* @_ZTIN14social_network44ComposePostService_UploadUserMentions_resultE to i8*), i8* bitcast (void (%"class.social_network::ComposePostService_UploadUserMentions_result"*)* @_ZN14social_network44ComposePostService_UploadUserMentions_resultD1Ev to i8*), i8* bitcast (void (%"class.social_network::ComposePostService_UploadUserMentions_result"*)* @_ZN14social_network44ComposePostService_UploadUserMentions_resultD0Ev to i8*)] }, align 8
@.str.27 = private unnamed_addr constant [45 x i8] c"ComposePostService_UploadUserMentions_result\00", align 1
@_ZTVN14social_network45ComposePostService_UploadUserMentions_presultE = unnamed_addr constant { [4 x i8*] } { [4 x i8*] [i8* null, i8* bitcast ({ i8*, i8* }* @_ZTIN14social_network45ComposePostService_UploadUserMentions_presultE to i8*), i8* bitcast (void (%"class.social_network::ComposePostService_UploadUserMentions_presult"*)* @_ZN14social_network45ComposePostService_UploadUserMentions_presultD1Ev to i8*), i8* bitcast (void (%"class.social_network::ComposePostService_UploadUserMentions_presult"*)* @_ZN14social_network45ComposePostService_UploadUserMentions_presultD0Ev to i8*)] }, align 8
@.str.28 = private unnamed_addr constant [11 x i8] c"UploadText\00", align 1
@_ZTVN10__cxxabiv120__si_class_type_infoE = external global i8*
@_ZTSN6apache6thrift21TApplicationExceptionE = linkonce_odr constant [40 x i8] c"N6apache6thrift21TApplicationExceptionE\00", comdat, align 1
@_ZTSN6apache6thrift10TExceptionE = linkonce_odr constant [29 x i8] c"N6apache6thrift10TExceptionE\00", comdat, align 1
@_ZTISt9exception = external constant i8*
@_ZTIN6apache6thrift10TExceptionE = linkonce_odr constant { i8*, i8*, i8* } { i8* bitcast (i8** getelementptr inbounds (i8*, i8** @_ZTVN10__cxxabiv120__si_class_type_infoE, i64 2) to i8*), i8* getelementptr inbounds ([29 x i8], [29 x i8]* @_ZTSN6apache6thrift10TExceptionE, i32 0, i32 0), i8* bitcast (i8** @_ZTISt9exception to i8*) }, comdat, align 8
@_ZTIN6apache6thrift21TApplicationExceptionE = linkonce_odr constant { i8*, i8*, i8* } { i8* bitcast (i8** getelementptr inbounds (i8*, i8** @_ZTVN10__cxxabiv120__si_class_type_infoE, i64 2) to i8*), i8* getelementptr inbounds ([40 x i8], [40 x i8]* @_ZTSN6apache6thrift21TApplicationExceptionE, i32 0, i32 0), i8* bitcast ({ i8*, i8*, i8* }* @_ZTIN6apache6thrift10TExceptionE to i8*) }, comdat, align 8
@_ZTIN14social_network16ServiceExceptionE = external constant i8*
@.str.29 = private unnamed_addr constant [12 x i8] c"UploadMedia\00", align 1
@.str.30 = private unnamed_addr constant [15 x i8] c"UploadUniqueId\00", align 1
@.str.31 = private unnamed_addr constant [14 x i8] c"UploadCreator\00", align 1
@.str.32 = private unnamed_addr constant [11 x i8] c"UploadUrls\00", align 1
@.str.33 = private unnamed_addr constant [19 x i8] c"UploadUserMentions\00", align 1
@.str.34 = private unnamed_addr constant [23 x i8] c"Invalid method name: '\00", align 1
@.str.35 = private unnamed_addr constant [2 x i8] c"'\00", align 1
@.str.36 = private unnamed_addr constant [30 x i8] c"ComposePostService.UploadText\00", align 1
@.str.37 = private unnamed_addr constant [31 x i8] c"ComposePostService.UploadMedia\00", align 1
@.str.38 = private unnamed_addr constant [34 x i8] c"ComposePostService.UploadUniqueId\00", align 1
@.str.39 = private unnamed_addr constant [33 x i8] c"ComposePostService.UploadCreator\00", align 1
@.str.40 = private unnamed_addr constant [30 x i8] c"ComposePostService.UploadUrls\00", align 1
@.str.41 = private unnamed_addr constant [38 x i8] c"ComposePostService.UploadUserMentions\00", align 1
@_ZTSN6apache6thrift8protocol18TProtocolExceptionE = linkonce_odr constant [46 x i8] c"N6apache6thrift8protocol18TProtocolExceptionE\00", comdat, align 1
@_ZTIN6apache6thrift8protocol18TProtocolExceptionE = linkonce_odr constant { i8*, i8*, i8* } { i8* bitcast (i8** getelementptr inbounds (i8*, i8** @_ZTVN10__cxxabiv120__si_class_type_infoE, i64 2) to i8*), i8* getelementptr inbounds ([46 x i8], [46 x i8]* @_ZTSN6apache6thrift8protocol18TProtocolExceptionE, i32 0, i32 0), i8* bitcast ({ i8*, i8*, i8* }* @_ZTIN6apache6thrift10TExceptionE to i8*) }, comdat, align 8
@_ZTVN10__cxxabiv117__class_type_infoE = external global i8*
@_ZTSN14social_network34ComposePostService_UploadText_argsE = constant [55 x i8] c"N14social_network34ComposePostService_UploadText_argsE\00", align 1
@_ZTIN14social_network34ComposePostService_UploadText_argsE = constant { i8*, i8* } { i8* bitcast (i8** getelementptr inbounds (i8*, i8** @_ZTVN10__cxxabiv117__class_type_infoE, i64 2) to i8*), i8* getelementptr inbounds ([55 x i8], [55 x i8]* @_ZTSN14social_network34ComposePostService_UploadText_argsE, i32 0, i32 0) }, align 8
@_ZTSN14social_network36ComposePostService_UploadText_resultE = constant [57 x i8] c"N14social_network36ComposePostService_UploadText_resultE\00", align 1
@_ZTIN14social_network36ComposePostService_UploadText_resultE = constant { i8*, i8* } { i8* bitcast (i8** getelementptr inbounds (i8*, i8** @_ZTVN10__cxxabiv117__class_type_infoE, i64 2) to i8*), i8* getelementptr inbounds ([57 x i8], [57 x i8]* @_ZTSN14social_network36ComposePostService_UploadText_resultE, i32 0, i32 0) }, align 8
@_ZTSN14social_network35ComposePostService_UploadMedia_argsE = constant [56 x i8] c"N14social_network35ComposePostService_UploadMedia_argsE\00", align 1
@_ZTIN14social_network35ComposePostService_UploadMedia_argsE = constant { i8*, i8* } { i8* bitcast (i8** getelementptr inbounds (i8*, i8** @_ZTVN10__cxxabiv117__class_type_infoE, i64 2) to i8*), i8* getelementptr inbounds ([56 x i8], [56 x i8]* @_ZTSN14social_network35ComposePostService_UploadMedia_argsE, i32 0, i32 0) }, align 8
@_ZTSN14social_network37ComposePostService_UploadMedia_resultE = constant [58 x i8] c"N14social_network37ComposePostService_UploadMedia_resultE\00", align 1
@_ZTIN14social_network37ComposePostService_UploadMedia_resultE = constant { i8*, i8* } { i8* bitcast (i8** getelementptr inbounds (i8*, i8** @_ZTVN10__cxxabiv117__class_type_infoE, i64 2) to i8*), i8* getelementptr inbounds ([58 x i8], [58 x i8]* @_ZTSN14social_network37ComposePostService_UploadMedia_resultE, i32 0, i32 0) }, align 8
@_ZTSN14social_network38ComposePostService_UploadUniqueId_argsE = constant [59 x i8] c"N14social_network38ComposePostService_UploadUniqueId_argsE\00", align 1
@_ZTIN14social_network38ComposePostService_UploadUniqueId_argsE = constant { i8*, i8* } { i8* bitcast (i8** getelementptr inbounds (i8*, i8** @_ZTVN10__cxxabiv117__class_type_infoE, i64 2) to i8*), i8* getelementptr inbounds ([59 x i8], [59 x i8]* @_ZTSN14social_network38ComposePostService_UploadUniqueId_argsE, i32 0, i32 0) }, align 8
@_ZTSN14social_network40ComposePostService_UploadUniqueId_resultE = constant [61 x i8] c"N14social_network40ComposePostService_UploadUniqueId_resultE\00", align 1
@_ZTIN14social_network40ComposePostService_UploadUniqueId_resultE = constant { i8*, i8* } { i8* bitcast (i8** getelementptr inbounds (i8*, i8** @_ZTVN10__cxxabiv117__class_type_infoE, i64 2) to i8*), i8* getelementptr inbounds ([61 x i8], [61 x i8]* @_ZTSN14social_network40ComposePostService_UploadUniqueId_resultE, i32 0, i32 0) }, align 8
@_ZTSN14social_network37ComposePostService_UploadCreator_argsE = constant [58 x i8] c"N14social_network37ComposePostService_UploadCreator_argsE\00", align 1
@_ZTIN14social_network37ComposePostService_UploadCreator_argsE = constant { i8*, i8* } { i8* bitcast (i8** getelementptr inbounds (i8*, i8** @_ZTVN10__cxxabiv117__class_type_infoE, i64 2) to i8*), i8* getelementptr inbounds ([58 x i8], [58 x i8]* @_ZTSN14social_network37ComposePostService_UploadCreator_argsE, i32 0, i32 0) }, align 8
@_ZTSN14social_network39ComposePostService_UploadCreator_resultE = constant [60 x i8] c"N14social_network39ComposePostService_UploadCreator_resultE\00", align 1
@_ZTIN14social_network39ComposePostService_UploadCreator_resultE = constant { i8*, i8* } { i8* bitcast (i8** getelementptr inbounds (i8*, i8** @_ZTVN10__cxxabiv117__class_type_infoE, i64 2) to i8*), i8* getelementptr inbounds ([60 x i8], [60 x i8]* @_ZTSN14social_network39ComposePostService_UploadCreator_resultE, i32 0, i32 0) }, align 8
@_ZTSN14social_network34ComposePostService_UploadUrls_argsE = constant [55 x i8] c"N14social_network34ComposePostService_UploadUrls_argsE\00", align 1
@_ZTIN14social_network34ComposePostService_UploadUrls_argsE = constant { i8*, i8* } { i8* bitcast (i8** getelementptr inbounds (i8*, i8** @_ZTVN10__cxxabiv117__class_type_infoE, i64 2) to i8*), i8* getelementptr inbounds ([55 x i8], [55 x i8]* @_ZTSN14social_network34ComposePostService_UploadUrls_argsE, i32 0, i32 0) }, align 8
@_ZTSN14social_network36ComposePostService_UploadUrls_resultE = constant [57 x i8] c"N14social_network36ComposePostService_UploadUrls_resultE\00", align 1
@_ZTIN14social_network36ComposePostService_UploadUrls_resultE = constant { i8*, i8* } { i8* bitcast (i8** getelementptr inbounds (i8*, i8** @_ZTVN10__cxxabiv117__class_type_infoE, i64 2) to i8*), i8* getelementptr inbounds ([57 x i8], [57 x i8]* @_ZTSN14social_network36ComposePostService_UploadUrls_resultE, i32 0, i32 0) }, align 8
@_ZTSN14social_network42ComposePostService_UploadUserMentions_argsE = constant [63 x i8] c"N14social_network42ComposePostService_UploadUserMentions_argsE\00", align 1
@_ZTIN14social_network42ComposePostService_UploadUserMentions_argsE = constant { i8*, i8* } { i8* bitcast (i8** getelementptr inbounds (i8*, i8** @_ZTVN10__cxxabiv117__class_type_infoE, i64 2) to i8*), i8* getelementptr inbounds ([63 x i8], [63 x i8]* @_ZTSN14social_network42ComposePostService_UploadUserMentions_argsE, i32 0, i32 0) }, align 8
@_ZTSN14social_network44ComposePostService_UploadUserMentions_resultE = constant [65 x i8] c"N14social_network44ComposePostService_UploadUserMentions_resultE\00", align 1
@_ZTIN14social_network44ComposePostService_UploadUserMentions_resultE = constant { i8*, i8* } { i8* bitcast (i8** getelementptr inbounds (i8*, i8** @_ZTVN10__cxxabiv117__class_type_infoE, i64 2) to i8*), i8* getelementptr inbounds ([65 x i8], [65 x i8]* @_ZTSN14social_network44ComposePostService_UploadUserMentions_resultE, i32 0, i32 0) }, align 8
@_ZTVN14social_network24ComposePostServiceClientE = unnamed_addr constant { [18 x i8*] } { [18 x i8*] [i8* null, i8* null, i8* null, i8* null, i8* null, i8* null, i8* null, i8* null, i8* null, i8* bitcast ({ i8*, i8*, i32, i32, i8*, i64 }* @_ZTIN14social_network24ComposePostServiceClientE to i8*), i8* bitcast (void (%"class.social_network::ComposePostServiceClient"*)* @_ZN14social_network24ComposePostServiceClientD1Ev to i8*), i8* bitcast (void (%"class.social_network::ComposePostServiceClient"*)* @_ZN14social_network24ComposePostServiceClientD0Ev to i8*), i8* bitcast (void (%"class.social_network::ComposePostServiceClient"*, i64, %"class.std::__cxx11::basic_string"*, %"class.std::map"*)* @_ZN14social_network24ComposePostServiceClient10UploadTextElRKNSt7__cxx1112basic_stringIcSt11char_traitsIcESaIcEEERKSt3mapIS6_S6_St4lessIS6_ESaISt4pairIS7_S6_EEE to i8*), i8* bitcast (void (%"class.social_network::ComposePostServiceClient"*, i64, %"class.std::vector"*, %"class.std::map"*)* @_ZN14social_network24ComposePostServiceClient11UploadMediaElRKSt6vectorINS_5MediaESaIS2_EERKSt3mapINSt7__cxx1112basic_stringIcSt11char_traitsIcESaIcEEESD_St4lessISD_ESaISt4pairIKSD_SD_EEE to i8*), i8* bitcast (void (%"class.social_network::ComposePostServiceClient"*, i64, i64, i32, %"class.std::map"*)* @_ZN14social_network24ComposePostServiceClient14UploadUniqueIdEllNS_8PostType4typeERKSt3mapINSt7__cxx1112basic_stringIcSt11char_traitsIcESaIcEEES9_St4lessIS9_ESaISt4pairIKS9_S9_EEE to i8*), i8* bitcast (void (%"class.social_network::ComposePostServiceClient"*, i64, %"class.social_network::Creator"*, %"class.std::map"*)* @_ZN14social_network24ComposePostServiceClient13UploadCreatorElRKNS_7CreatorERKSt3mapINSt7__cxx1112basic_stringIcSt11char_traitsIcESaIcEEESA_St4lessISA_ESaISt4pairIKSA_SA_EEE to i8*), i8* bitcast (void (%"class.social_network::ComposePostServiceClient"*, i64, %"class.std::vector.6"*, %"class.std::map"*)* @_ZN14social_network24ComposePostServiceClient10UploadUrlsElRKSt6vectorINS_3UrlESaIS2_EERKSt3mapINSt7__cxx1112basic_stringIcSt11char_traitsIcESaIcEEESD_St4lessISD_ESaISt4pairIKSD_SD_EEE to i8*), i8* bitcast (void (%"class.social_network::ComposePostServiceClient"*, i64, %"class.std::vector.12"*, %"class.std::map"*)* @_ZN14social_network24ComposePostServiceClient18UploadUserMentionsElRKSt6vectorINS_11UserMentionESaIS2_EERKSt3mapINSt7__cxx1112basic_stringIcSt11char_traitsIcESaIcEEESD_St4lessISD_ESaISt4pairIKSD_SD_EEE to i8*)] }, align 8
@_ZTTN14social_network24ComposePostServiceClientE = unnamed_addr constant [2 x i8*] [i8* bitcast (i8** getelementptr inbounds ({ [18 x i8*] }, { [18 x i8*] }* @_ZTVN14social_network24ComposePostServiceClientE, i32 0, inrange i32 0, i32 10) to i8*), i8* bitcast (i8** getelementptr inbounds ({ [18 x i8*] }, { [18 x i8*] }* @_ZTVN14social_network24ComposePostServiceClientE, i32 0, inrange i32 0, i32 10) to i8*)], align 8
@_ZTVN10__cxxabiv121__vmi_class_type_infoE = external global i8*
@_ZTSN14social_network24ComposePostServiceClientE = constant [45 x i8] c"N14social_network24ComposePostServiceClientE\00", align 1
@_ZTSN14social_network20ComposePostServiceIfE = linkonce_odr constant [41 x i8] c"N14social_network20ComposePostServiceIfE\00", comdat, align 1
@_ZTIN14social_network20ComposePostServiceIfE = linkonce_odr constant { i8*, i8* } { i8* bitcast (i8** getelementptr inbounds (i8*, i8** @_ZTVN10__cxxabiv117__class_type_infoE, i64 2) to i8*), i8* getelementptr inbounds ([41 x i8], [41 x i8]* @_ZTSN14social_network20ComposePostServiceIfE, i32 0, i32 0) }, comdat, align 8
@_ZTIN14social_network24ComposePostServiceClientE = constant { i8*, i8*, i32, i32, i8*, i64 } { i8* bitcast (i8** getelementptr inbounds (i8*, i8** @_ZTVN10__cxxabiv121__vmi_class_type_infoE, i64 2) to i8*), i8* getelementptr inbounds ([45 x i8], [45 x i8]* @_ZTSN14social_network24ComposePostServiceClientE, i32 0, i32 0), i32 0, i32 1, i8* bitcast ({ i8*, i8* }* @_ZTIN14social_network20ComposePostServiceIfE to i8*), i64 -20477 }, align 8
@_ZTVN14social_network27ComposePostServiceProcessorE = unnamed_addr constant { [6 x i8*] } { [6 x i8*] [i8* null, i8* bitcast ({ i8*, i8*, i8* }* @_ZTIN14social_network27ComposePostServiceProcessorE to i8*), i8* bitcast (void (%"class.social_network::ComposePostServiceProcessor"*)* @_ZN14social_network27ComposePostServiceProcessorD2Ev to i8*), i8* bitcast (void (%"class.social_network::ComposePostServiceProcessor"*)* @_ZN14social_network27ComposePostServiceProcessorD0Ev to i8*), i8* bitcast (i1 (%"class.apache::thrift::TDispatchProcessor"*, %"class.std::shared_ptr.18"*, %"class.std::shared_ptr.18"*, i8*)* @_ZN6apache6thrift18TDispatchProcessor7processESt10shared_ptrINS0_8protocol9TProtocolEES5_Pv to i8*), i8* bitcast (i1 (%"class.social_network::ComposePostServiceProcessor"*, %"class.apache::thrift::protocol::TProtocol"*, %"class.apache::thrift::protocol::TProtocol"*, %"class.std::__cxx11::basic_string"*, i32, i8*)* @_ZN14social_network27ComposePostServiceProcessor12dispatchCallEPN6apache6thrift8protocol9TProtocolES5_RKNSt7__cxx1112basic_stringIcSt11char_traitsIcESaIcEEEiPv to i8*)] }, align 8
@_ZTSN14social_network27ComposePostServiceProcessorE = constant [48 x i8] c"N14social_network27ComposePostServiceProcessorE\00", align 1
@_ZTSN6apache6thrift18TDispatchProcessorE = linkonce_odr constant [37 x i8] c"N6apache6thrift18TDispatchProcessorE\00", comdat, align 1
@_ZTSN6apache6thrift10TProcessorE = linkonce_odr constant [29 x i8] c"N6apache6thrift10TProcessorE\00", comdat, align 1
@_ZTIN6apache6thrift10TProcessorE = linkonce_odr constant { i8*, i8* } { i8* bitcast (i8** getelementptr inbounds (i8*, i8** @_ZTVN10__cxxabiv117__class_type_infoE, i64 2) to i8*), i8* getelementptr inbounds ([29 x i8], [29 x i8]* @_ZTSN6apache6thrift10TProcessorE, i32 0, i32 0) }, comdat, align 8
@_ZTIN6apache6thrift18TDispatchProcessorE = linkonce_odr constant { i8*, i8*, i8* } { i8* bitcast (i8** getelementptr inbounds (i8*, i8** @_ZTVN10__cxxabiv120__si_class_type_infoE, i64 2) to i8*), i8* getelementptr inbounds ([37 x i8], [37 x i8]* @_ZTSN6apache6thrift18TDispatchProcessorE, i32 0, i32 0), i8* bitcast ({ i8*, i8* }* @_ZTIN6apache6thrift10TProcessorE to i8*) }, comdat, align 8
@_ZTIN14social_network27ComposePostServiceProcessorE = constant { i8*, i8*, i8* } { i8* bitcast (i8** getelementptr inbounds (i8*, i8** @_ZTVN10__cxxabiv120__si_class_type_infoE, i64 2) to i8*), i8* getelementptr inbounds ([48 x i8], [48 x i8]* @_ZTSN14social_network27ComposePostServiceProcessorE, i32 0, i32 0), i8* bitcast ({ i8*, i8*, i8* }* @_ZTIN6apache6thrift18TDispatchProcessorE to i8*) }, align 8
@_ZTVN14social_network34ComposePostServiceProcessorFactoryE = unnamed_addr constant { [5 x i8*] } { [5 x i8*] [i8* null, i8* bitcast ({ i8*, i8*, i8* }* @_ZTIN14social_network34ComposePostServiceProcessorFactoryE to i8*), i8* bitcast (void (%"class.social_network::ComposePostServiceProcessorFactory"*)* @_ZN14social_network34ComposePostServiceProcessorFactoryD2Ev to i8*), i8* bitcast (void (%"class.social_network::ComposePostServiceProcessorFactory"*)* @_ZN14social_network34ComposePostServiceProcessorFactoryD0Ev to i8*), i8* bitcast (void (%"class.std::shared_ptr.38"*, %"class.social_network::ComposePostServiceProcessorFactory"*, %"struct.apache::thrift::TConnectionInfo"*)* @_ZN14social_network34ComposePostServiceProcessorFactory12getProcessorERKN6apache6thrift15TConnectionInfoE to i8*)] }, align 8
@_ZTSN14social_network34ComposePostServiceProcessorFactoryE = constant [55 x i8] c"N14social_network34ComposePostServiceProcessorFactoryE\00", align 1
@_ZTSN6apache6thrift17TProcessorFactoryE = linkonce_odr constant [36 x i8] c"N6apache6thrift17TProcessorFactoryE\00", comdat, align 1
@_ZTIN6apache6thrift17TProcessorFactoryE = linkonce_odr constant { i8*, i8* } { i8* bitcast (i8** getelementptr inbounds (i8*, i8** @_ZTVN10__cxxabiv117__class_type_infoE, i64 2) to i8*), i8* getelementptr inbounds ([36 x i8], [36 x i8]* @_ZTSN6apache6thrift17TProcessorFactoryE, i32 0, i32 0) }, comdat, align 8
@_ZTIN14social_network34ComposePostServiceProcessorFactoryE = constant { i8*, i8*, i8* } { i8* bitcast (i8** getelementptr inbounds (i8*, i8** @_ZTVN10__cxxabiv120__si_class_type_infoE, i64 2) to i8*), i8* getelementptr inbounds ([55 x i8], [55 x i8]* @_ZTSN14social_network34ComposePostServiceProcessorFactoryE, i32 0, i32 0), i8* bitcast ({ i8*, i8* }* @_ZTIN6apache6thrift17TProcessorFactoryE to i8*) }, align 8
@_ZTVN14social_network34ComposePostServiceConcurrentClientE = unnamed_addr constant { [18 x i8*] } { [18 x i8*] [i8* null, i8* null, i8* null, i8* null, i8* null, i8* null, i8* null, i8* null, i8* null, i8* bitcast ({ i8*, i8*, i32, i32, i8*, i64 }* @_ZTIN14social_network34ComposePostServiceConcurrentClientE to i8*), i8* bitcast (void (%"class.social_network::ComposePostServiceConcurrentClient"*)* @_ZN14social_network34ComposePostServiceConcurrentClientD1Ev to i8*), i8* bitcast (void (%"class.social_network::ComposePostServiceConcurrentClient"*)* @_ZN14social_network34ComposePostServiceConcurrentClientD0Ev to i8*), i8* bitcast (void (%"class.social_network::ComposePostServiceConcurrentClient"*, i64, %"class.std::__cxx11::basic_string"*, %"class.std::map"*)* @_ZN14social_network34ComposePostServiceConcurrentClient10UploadTextElRKNSt7__cxx1112basic_stringIcSt11char_traitsIcESaIcEEERKSt3mapIS6_S6_St4lessIS6_ESaISt4pairIS7_S6_EEE to i8*), i8* bitcast (void (%"class.social_network::ComposePostServiceConcurrentClient"*, i64, %"class.std::vector"*, %"class.std::map"*)* @_ZN14social_network34ComposePostServiceConcurrentClient11UploadMediaElRKSt6vectorINS_5MediaESaIS2_EERKSt3mapINSt7__cxx1112basic_stringIcSt11char_traitsIcESaIcEEESD_St4lessISD_ESaISt4pairIKSD_SD_EEE to i8*), i8* bitcast (void (%"class.social_network::ComposePostServiceConcurrentClient"*, i64, i64, i32, %"class.std::map"*)* @_ZN14social_network34ComposePostServiceConcurrentClient14UploadUniqueIdEllNS_8PostType4typeERKSt3mapINSt7__cxx1112basic_stringIcSt11char_traitsIcESaIcEEES9_St4lessIS9_ESaISt4pairIKS9_S9_EEE to i8*), i8* bitcast (void (%"class.social_network::ComposePostServiceConcurrentClient"*, i64, %"class.social_network::Creator"*, %"class.std::map"*)* @_ZN14social_network34ComposePostServiceConcurrentClient13UploadCreatorElRKNS_7CreatorERKSt3mapINSt7__cxx1112basic_stringIcSt11char_traitsIcESaIcEEESA_St4lessISA_ESaISt4pairIKSA_SA_EEE to i8*), i8* bitcast (void (%"class.social_network::ComposePostServiceConcurrentClient"*, i64, %"class.std::vector.6"*, %"class.std::map"*)* @_ZN14social_network34ComposePostServiceConcurrentClient10UploadUrlsElRKSt6vectorINS_3UrlESaIS2_EERKSt3mapINSt7__cxx1112basic_stringIcSt11char_traitsIcESaIcEEESD_St4lessISD_ESaISt4pairIKSD_SD_EEE to i8*), i8* bitcast (void (%"class.social_network::ComposePostServiceConcurrentClient"*, i64, %"class.std::vector.12"*, %"class.std::map"*)* @_ZN14social_network34ComposePostServiceConcurrentClient18UploadUserMentionsElRKSt6vectorINS_11UserMentionESaIS2_EERKSt3mapINSt7__cxx1112basic_stringIcSt11char_traitsIcESaIcEEESD_St4lessISD_ESaISt4pairIKSD_SD_EEE to i8*)] }, align 8
@_ZTTN14social_network34ComposePostServiceConcurrentClientE = unnamed_addr constant [2 x i8*] [i8* bitcast (i8** getelementptr inbounds ({ [18 x i8*] }, { [18 x i8*] }* @_ZTVN14social_network34ComposePostServiceConcurrentClientE, i32 0, inrange i32 0, i32 10) to i8*), i8* bitcast (i8** getelementptr inbounds ({ [18 x i8*] }, { [18 x i8*] }* @_ZTVN14social_network34ComposePostServiceConcurrentClientE, i32 0, inrange i32 0, i32 10) to i8*)], align 8
@_ZTSN14social_network34ComposePostServiceConcurrentClientE = constant [55 x i8] c"N14social_network34ComposePostServiceConcurrentClientE\00", align 1
@_ZTIN14social_network34ComposePostServiceConcurrentClientE = constant { i8*, i8*, i32, i32, i8*, i64 } { i8* bitcast (i8** getelementptr inbounds (i8*, i8** @_ZTVN10__cxxabiv121__vmi_class_type_infoE, i64 2) to i8*), i8* getelementptr inbounds ([55 x i8], [55 x i8]* @_ZTSN14social_network34ComposePostServiceConcurrentClientE, i32 0, i32 0), i32 0, i32 1, i8* bitcast ({ i8*, i8* }* @_ZTIN14social_network20ComposePostServiceIfE to i8*), i64 -20477 }, align 8
@_ZTVN14social_network35ComposePostService_UploadText_pargsE = unnamed_addr constant { [4 x i8*] } { [4 x i8*] [i8* null, i8* bitcast ({ i8*, i8* }* @_ZTIN14social_network35ComposePostService_UploadText_pargsE to i8*), i8* bitcast (void (%"class.social_network::ComposePostService_UploadText_pargs"*)* @_ZN14social_network35ComposePostService_UploadText_pargsD1Ev to i8*), i8* bitcast (void (%"class.social_network::ComposePostService_UploadText_pargs"*)* @_ZN14social_network35ComposePostService_UploadText_pargsD0Ev to i8*)] }, align 8
@_ZTSN14social_network35ComposePostService_UploadText_pargsE = constant [56 x i8] c"N14social_network35ComposePostService_UploadText_pargsE\00", align 1
@_ZTIN14social_network35ComposePostService_UploadText_pargsE = constant { i8*, i8* } { i8* bitcast (i8** getelementptr inbounds (i8*, i8** @_ZTVN10__cxxabiv117__class_type_infoE, i64 2) to i8*), i8* getelementptr inbounds ([56 x i8], [56 x i8]* @_ZTSN14social_network35ComposePostService_UploadText_pargsE, i32 0, i32 0) }, align 8
@_ZTSN14social_network37ComposePostService_UploadText_presultE = constant [58 x i8] c"N14social_network37ComposePostService_UploadText_presultE\00", align 1
@_ZTIN14social_network37ComposePostService_UploadText_presultE = constant { i8*, i8* } { i8* bitcast (i8** getelementptr inbounds (i8*, i8** @_ZTVN10__cxxabiv117__class_type_infoE, i64 2) to i8*), i8* getelementptr inbounds ([58 x i8], [58 x i8]* @_ZTSN14social_network37ComposePostService_UploadText_presultE, i32 0, i32 0) }, align 8
@_ZTVN14social_network36ComposePostService_UploadMedia_pargsE = unnamed_addr constant { [4 x i8*] } { [4 x i8*] [i8* null, i8* bitcast ({ i8*, i8* }* @_ZTIN14social_network36ComposePostService_UploadMedia_pargsE to i8*), i8* bitcast (void (%"class.social_network::ComposePostService_UploadMedia_pargs"*)* @_ZN14social_network36ComposePostService_UploadMedia_pargsD1Ev to i8*), i8* bitcast (void (%"class.social_network::ComposePostService_UploadMedia_pargs"*)* @_ZN14social_network36ComposePostService_UploadMedia_pargsD0Ev to i8*)] }, align 8
@_ZTSN14social_network36ComposePostService_UploadMedia_pargsE = constant [57 x i8] c"N14social_network36ComposePostService_UploadMedia_pargsE\00", align 1
@_ZTIN14social_network36ComposePostService_UploadMedia_pargsE = constant { i8*, i8* } { i8* bitcast (i8** getelementptr inbounds (i8*, i8** @_ZTVN10__cxxabiv117__class_type_infoE, i64 2) to i8*), i8* getelementptr inbounds ([57 x i8], [57 x i8]* @_ZTSN14social_network36ComposePostService_UploadMedia_pargsE, i32 0, i32 0) }, align 8
@_ZTSN14social_network38ComposePostService_UploadMedia_presultE = constant [59 x i8] c"N14social_network38ComposePostService_UploadMedia_presultE\00", align 1
@_ZTIN14social_network38ComposePostService_UploadMedia_presultE = constant { i8*, i8* } { i8* bitcast (i8** getelementptr inbounds (i8*, i8** @_ZTVN10__cxxabiv117__class_type_infoE, i64 2) to i8*), i8* getelementptr inbounds ([59 x i8], [59 x i8]* @_ZTSN14social_network38ComposePostService_UploadMedia_presultE, i32 0, i32 0) }, align 8
@_ZTVN14social_network39ComposePostService_UploadUniqueId_pargsE = unnamed_addr constant { [4 x i8*] } { [4 x i8*] [i8* null, i8* bitcast ({ i8*, i8* }* @_ZTIN14social_network39ComposePostService_UploadUniqueId_pargsE to i8*), i8* bitcast (void (%"class.social_network::ComposePostService_UploadUniqueId_pargs"*)* @_ZN14social_network39ComposePostService_UploadUniqueId_pargsD1Ev to i8*), i8* bitcast (void (%"class.social_network::ComposePostService_UploadUniqueId_pargs"*)* @_ZN14social_network39ComposePostService_UploadUniqueId_pargsD0Ev to i8*)] }, align 8
@_ZTSN14social_network39ComposePostService_UploadUniqueId_pargsE = constant [60 x i8] c"N14social_network39ComposePostService_UploadUniqueId_pargsE\00", align 1
@_ZTIN14social_network39ComposePostService_UploadUniqueId_pargsE = constant { i8*, i8* } { i8* bitcast (i8** getelementptr inbounds (i8*, i8** @_ZTVN10__cxxabiv117__class_type_infoE, i64 2) to i8*), i8* getelementptr inbounds ([60 x i8], [60 x i8]* @_ZTSN14social_network39ComposePostService_UploadUniqueId_pargsE, i32 0, i32 0) }, align 8
@_ZTSN14social_network41ComposePostService_UploadUniqueId_presultE = constant [62 x i8] c"N14social_network41ComposePostService_UploadUniqueId_presultE\00", align 1
@_ZTIN14social_network41ComposePostService_UploadUniqueId_presultE = constant { i8*, i8* } { i8* bitcast (i8** getelementptr inbounds (i8*, i8** @_ZTVN10__cxxabiv117__class_type_infoE, i64 2) to i8*), i8* getelementptr inbounds ([62 x i8], [62 x i8]* @_ZTSN14social_network41ComposePostService_UploadUniqueId_presultE, i32 0, i32 0) }, align 8
@_ZTVN14social_network38ComposePostService_UploadCreator_pargsE = unnamed_addr constant { [4 x i8*] } { [4 x i8*] [i8* null, i8* bitcast ({ i8*, i8* }* @_ZTIN14social_network38ComposePostService_UploadCreator_pargsE to i8*), i8* bitcast (void (%"class.social_network::ComposePostService_UploadCreator_pargs"*)* @_ZN14social_network38ComposePostService_UploadCreator_pargsD1Ev to i8*), i8* bitcast (void (%"class.social_network::ComposePostService_UploadCreator_pargs"*)* @_ZN14social_network38ComposePostService_UploadCreator_pargsD0Ev to i8*)] }, align 8
@_ZTSN14social_network38ComposePostService_UploadCreator_pargsE = constant [59 x i8] c"N14social_network38ComposePostService_UploadCreator_pargsE\00", align 1
@_ZTIN14social_network38ComposePostService_UploadCreator_pargsE = constant { i8*, i8* } { i8* bitcast (i8** getelementptr inbounds (i8*, i8** @_ZTVN10__cxxabiv117__class_type_infoE, i64 2) to i8*), i8* getelementptr inbounds ([59 x i8], [59 x i8]* @_ZTSN14social_network38ComposePostService_UploadCreator_pargsE, i32 0, i32 0) }, align 8
@_ZTSN14social_network40ComposePostService_UploadCreator_presultE = constant [61 x i8] c"N14social_network40ComposePostService_UploadCreator_presultE\00", align 1
@_ZTIN14social_network40ComposePostService_UploadCreator_presultE = constant { i8*, i8* } { i8* bitcast (i8** getelementptr inbounds (i8*, i8** @_ZTVN10__cxxabiv117__class_type_infoE, i64 2) to i8*), i8* getelementptr inbounds ([61 x i8], [61 x i8]* @_ZTSN14social_network40ComposePostService_UploadCreator_presultE, i32 0, i32 0) }, align 8
@_ZTVN14social_network35ComposePostService_UploadUrls_pargsE = unnamed_addr constant { [4 x i8*] } { [4 x i8*] [i8* null, i8* bitcast ({ i8*, i8* }* @_ZTIN14social_network35ComposePostService_UploadUrls_pargsE to i8*), i8* bitcast (void (%"class.social_network::ComposePostService_UploadUrls_pargs"*)* @_ZN14social_network35ComposePostService_UploadUrls_pargsD1Ev to i8*), i8* bitcast (void (%"class.social_network::ComposePostService_UploadUrls_pargs"*)* @_ZN14social_network35ComposePostService_UploadUrls_pargsD0Ev to i8*)] }, align 8
@_ZTSN14social_network35ComposePostService_UploadUrls_pargsE = constant [56 x i8] c"N14social_network35ComposePostService_UploadUrls_pargsE\00", align 1
@_ZTIN14social_network35ComposePostService_UploadUrls_pargsE = constant { i8*, i8* } { i8* bitcast (i8** getelementptr inbounds (i8*, i8** @_ZTVN10__cxxabiv117__class_type_infoE, i64 2) to i8*), i8* getelementptr inbounds ([56 x i8], [56 x i8]* @_ZTSN14social_network35ComposePostService_UploadUrls_pargsE, i32 0, i32 0) }, align 8
@_ZTSN14social_network37ComposePostService_UploadUrls_presultE = constant [58 x i8] c"N14social_network37ComposePostService_UploadUrls_presultE\00", align 1
@_ZTIN14social_network37ComposePostService_UploadUrls_presultE = constant { i8*, i8* } { i8* bitcast (i8** getelementptr inbounds (i8*, i8** @_ZTVN10__cxxabiv117__class_type_infoE, i64 2) to i8*), i8* getelementptr inbounds ([58 x i8], [58 x i8]* @_ZTSN14social_network37ComposePostService_UploadUrls_presultE, i32 0, i32 0) }, align 8
@_ZTVN14social_network43ComposePostService_UploadUserMentions_pargsE = unnamed_addr constant { [4 x i8*] } { [4 x i8*] [i8* null, i8* bitcast ({ i8*, i8* }* @_ZTIN14social_network43ComposePostService_UploadUserMentions_pargsE to i8*), i8* bitcast (void (%"class.social_network::ComposePostService_UploadUserMentions_pargs"*)* @_ZN14social_network43ComposePostService_UploadUserMentions_pargsD1Ev to i8*), i8* bitcast (void (%"class.social_network::ComposePostService_UploadUserMentions_pargs"*)* @_ZN14social_network43ComposePostService_UploadUserMentions_pargsD0Ev to i8*)] }, align 8
@_ZTSN14social_network43ComposePostService_UploadUserMentions_pargsE = constant [64 x i8] c"N14social_network43ComposePostService_UploadUserMentions_pargsE\00", align 1
@_ZTIN14social_network43ComposePostService_UploadUserMentions_pargsE = constant { i8*, i8* } { i8* bitcast (i8** getelementptr inbounds (i8*, i8** @_ZTVN10__cxxabiv117__class_type_infoE, i64 2) to i8*), i8* getelementptr inbounds ([64 x i8], [64 x i8]* @_ZTSN14social_network43ComposePostService_UploadUserMentions_pargsE, i32 0, i32 0) }, align 8
@_ZTSN14social_network45ComposePostService_UploadUserMentions_presultE = constant [66 x i8] c"N14social_network45ComposePostService_UploadUserMentions_presultE\00", align 1
@_ZTIN14social_network45ComposePostService_UploadUserMentions_presultE = constant { i8*, i8* } { i8* bitcast (i8** getelementptr inbounds (i8*, i8** @_ZTVN10__cxxabiv117__class_type_infoE, i64 2) to i8*), i8* getelementptr inbounds ([66 x i8], [66 x i8]* @_ZTSN14social_network45ComposePostService_UploadUserMentions_presultE, i32 0, i32 0) }, align 8
@_ZZL18__gthread_active_pvE20__gthread_active_ptr = internal constant i8* bitcast (i32 (i32*, void (i8*)*)* @__pthread_key_create to i8*), align 8
@_ZTVN6apache6thrift21TApplicationExceptionE = linkonce_odr unnamed_addr constant { [5 x i8*] } { [5 x i8*] [i8* null, i8* bitcast ({ i8*, i8*, i8* }* @_ZTIN6apache6thrift21TApplicationExceptionE to i8*), i8* bitcast (void (%"class.apache::thrift::TApplicationException"*)* @_ZN6apache6thrift21TApplicationExceptionD2Ev to i8*), i8* bitcast (void (%"class.apache::thrift::TApplicationException"*)* @_ZN6apache6thrift21TApplicationExceptionD0Ev to i8*), i8* bitcast (i8* (%"class.apache::thrift::TApplicationException"*)* @_ZNK6apache6thrift21TApplicationException4whatEv to i8*)] }, comdat, align 8
@_ZTVN6apache6thrift10TExceptionE = linkonce_odr unnamed_addr constant { [5 x i8*] } { [5 x i8*] [i8* null, i8* bitcast ({ i8*, i8*, i8* }* @_ZTIN6apache6thrift10TExceptionE to i8*), i8* bitcast (void (%"class.apache::thrift::TException"*)* @_ZN6apache6thrift10TExceptionD2Ev to i8*), i8* bitcast (void (%"class.apache::thrift::TException"*)* @_ZN6apache6thrift10TExceptionD0Ev to i8*), i8* bitcast (i8* (%"class.apache::thrift::TException"*)* @_ZNK6apache6thrift10TException4whatEv to i8*)] }, comdat, align 8
@_ZTVSt9exception = external unnamed_addr constant { [5 x i8*] }, align 8
@.str.42 = private unnamed_addr constant [20 x i8] c"Default TException.\00", align 1
@.str.43 = private unnamed_addr constant [53 x i8] c"TApplicationException: Unknown application exception\00", align 1
@.str.44 = private unnamed_addr constant [38 x i8] c"TApplicationException: Unknown method\00", align 1
@.str.45 = private unnamed_addr constant [44 x i8] c"TApplicationException: Invalid message type\00", align 1
@.str.46 = private unnamed_addr constant [41 x i8] c"TApplicationException: Wrong method name\00", align 1
@.str.47 = private unnamed_addr constant [47 x i8] c"TApplicationException: Bad sequence identifier\00", align 1
@.str.48 = private unnamed_addr constant [38 x i8] c"TApplicationException: Missing result\00", align 1
@.str.49 = private unnamed_addr constant [38 x i8] c"TApplicationException: Internal error\00", align 1
@.str.50 = private unnamed_addr constant [38 x i8] c"TApplicationException: Protocol error\00", align 1
@.str.51 = private unnamed_addr constant [41 x i8] c"TApplicationException: Invalid transform\00", align 1
@.str.52 = private unnamed_addr constant [40 x i8] c"TApplicationException: Invalid protocol\00", align 1
@.str.53 = private unnamed_addr constant [47 x i8] c"TApplicationException: Unsupported client type\00", align 1
@.str.54 = private unnamed_addr constant [48 x i8] c"TApplicationException: (Invalid exception type)\00", align 1
@_ZTVN14social_network16ServiceExceptionE = external unnamed_addr constant { [6 x i8*] }, align 8
@_ZTVN14social_network7CreatorE = external unnamed_addr constant { [11 x i8*] }, align 8
@_ZTVN6apache6thrift5TBaseE = linkonce_odr unnamed_addr constant { [6 x i8*] } { [6 x i8*] [i8* null, i8* bitcast ({ i8*, i8* }* @_ZTIN6apache6thrift5TBaseE to i8*), i8* bitcast (void (%"class.apache::thrift::TBase"*)* @_ZN6apache6thrift5TBaseD2Ev to i8*), i8* bitcast (void (%"class.apache::thrift::TBase"*)* @_ZN6apache6thrift5TBaseD0Ev to i8*), i8* bitcast (void ()* @__cxa_pure_virtual to i8*), i8* bitcast (void ()* @__cxa_pure_virtual to i8*)] }, comdat, align 8
@_ZTSN6apache6thrift5TBaseE = linkonce_odr constant [23 x i8] c"N6apache6thrift5TBaseE\00", comdat, align 1
@_ZTIN6apache6thrift5TBaseE = linkonce_odr constant { i8*, i8* } { i8* bitcast (i8** getelementptr inbounds (i8*, i8** @_ZTVN10__cxxabiv117__class_type_infoE, i64 2) to i8*), i8* getelementptr inbounds ([23 x i8], [23 x i8]* @_ZTSN6apache6thrift5TBaseE, i32 0, i32 0) }, comdat, align 8
@_ZTVN6apache6thrift18TDispatchProcessorE = linkonce_odr unnamed_addr constant { [6 x i8*] } { [6 x i8*] [i8* null, i8* bitcast ({ i8*, i8*, i8* }* @_ZTIN6apache6thrift18TDispatchProcessorE to i8*), i8* bitcast (void (%"class.apache::thrift::TDispatchProcessor"*)* @_ZN6apache6thrift18TDispatchProcessorD2Ev to i8*), i8* bitcast (void (%"class.apache::thrift::TDispatchProcessor"*)* @_ZN6apache6thrift18TDispatchProcessorD0Ev to i8*), i8* bitcast (i1 (%"class.apache::thrift::TDispatchProcessor"*, %"class.std::shared_ptr.18"*, %"class.std::shared_ptr.18"*, i8*)* @_ZN6apache6thrift18TDispatchProcessor7processESt10shared_ptrINS0_8protocol9TProtocolEES5_Pv to i8*), i8* bitcast (void ()* @__cxa_pure_virtual to i8*)] }, comdat, align 8
@_ZTVN6apache6thrift10TProcessorE = linkonce_odr unnamed_addr constant { [5 x i8*] } { [5 x i8*] [i8* null, i8* bitcast ({ i8*, i8* }* @_ZTIN6apache6thrift10TProcessorE to i8*), i8* bitcast (void (%"class.apache::thrift::TProcessor"*)* @_ZN6apache6thrift10TProcessorD2Ev to i8*), i8* bitcast (void (%"class.apache::thrift::TProcessor"*)* @_ZN6apache6thrift10TProcessorD0Ev to i8*), i8* bitcast (void ()* @__cxa_pure_virtual to i8*)] }, comdat, align 8
@_ZStL19piecewise_construct = internal constant %"struct.std::piecewise_construct_t" undef, align 1
@_ZTVN6apache6thrift8protocol18TProtocolExceptionE = linkonce_odr unnamed_addr constant { [5 x i8*] } { [5 x i8*] [i8* null, i8* bitcast ({ i8*, i8*, i8* }* @_ZTIN6apache6thrift8protocol18TProtocolExceptionE to i8*), i8* bitcast (void (%"class.apache::thrift::protocol::TProtocolException"*)* @_ZN6apache6thrift8protocol18TProtocolExceptionD2Ev to i8*), i8* bitcast (void (%"class.apache::thrift::protocol::TProtocolException"*)* @_ZN6apache6thrift8protocol18TProtocolExceptionD0Ev to i8*), i8* bitcast (i8* (%"class.apache::thrift::protocol::TProtocolException"*)* @_ZNK6apache6thrift8protocol18TProtocolException4whatEv to i8*)] }, comdat, align 8
@.str.55 = private unnamed_addr constant [47 x i8] c"TProtocolException: Unknown protocol exception\00", align 1
@.str.56 = private unnamed_addr constant [33 x i8] c"TProtocolException: Invalid data\00", align 1
@.str.57 = private unnamed_addr constant [34 x i8] c"TProtocolException: Negative size\00", align 1
@.str.58 = private unnamed_addr constant [40 x i8] c"TProtocolException: Exceeded size limit\00", align 1
@.str.59 = private unnamed_addr constant [36 x i8] c"TProtocolException: Invalid version\00", align 1
@.str.60 = private unnamed_addr constant [36 x i8] c"TProtocolException: Not implemented\00", align 1
@.str.61 = private unnamed_addr constant [45 x i8] c"TProtocolException: (Invalid exception type)\00", align 1
@_ZN6apache6thrift12GlobalOutputE = external global %"class.apache::thrift::TOutput", align 8
@.str.62 = private unnamed_addr constant [45 x i8] c"received invalid message type %d from client\00", align 1
@_ZTVN6apache6thrift11concurrency5MutexE = external unnamed_addr constant { [8 x i8*] }, align 8
@.str.63 = private unnamed_addr constant [26 x i8] c"vector::_M_default_append\00", align 1
@_ZTVN14social_network5MediaE = external unnamed_addr constant { [11 x i8*] }, align 8
@_ZTVN14social_network3UrlE = external unnamed_addr constant { [11 x i8*] }, align 8
@_ZTVN14social_network11UserMentionE = external unnamed_addr constant { [11 x i8*] }, align 8
@_ZTVSt19_Sp_counted_deleterIPN14social_network20ComposePostServiceIfEN6apache6thrift14ReleaseHandlerINS0_27ComposePostServiceIfFactoryEEESaIvELN9__gnu_cxx12_Lock_policyE2EE = linkonce_odr unnamed_addr constant { [7 x i8*] } { [7 x i8*] [i8* null, i8* bitcast ({ i8*, i8*, i8* }* @_ZTISt19_Sp_counted_deleterIPN14social_network20ComposePostServiceIfEN6apache6thrift14ReleaseHandlerINS0_27ComposePostServiceIfFactoryEEESaIvELN9__gnu_cxx12_Lock_policyE2EE to i8*), i8* bitcast (void (%"class.std::_Sp_counted_deleter"*)* @_ZNSt19_Sp_counted_deleterIPN14social_network20ComposePostServiceIfEN6apache6thrift14ReleaseHandlerINS0_27ComposePostServiceIfFactoryEEESaIvELN9__gnu_cxx12_Lock_policyE2EED2Ev to i8*), i8* bitcast (void (%"class.std::_Sp_counted_deleter"*)* @_ZNSt19_Sp_counted_deleterIPN14social_network20ComposePostServiceIfEN6apache6thrift14ReleaseHandlerINS0_27ComposePostServiceIfFactoryEEESaIvELN9__gnu_cxx12_Lock_policyE2EED0Ev to i8*), i8* bitcast (void (%"class.std::_Sp_counted_deleter"*)* @_ZNSt19_Sp_counted_deleterIPN14social_network20ComposePostServiceIfEN6apache6thrift14ReleaseHandlerINS0_27ComposePostServiceIfFactoryEEESaIvELN9__gnu_cxx12_Lock_policyE2EE10_M_disposeEv to i8*), i8* bitcast (void (%"class.std::_Sp_counted_deleter"*)* @_ZNSt19_Sp_counted_deleterIPN14social_network20ComposePostServiceIfEN6apache6thrift14ReleaseHandlerINS0_27ComposePostServiceIfFactoryEEESaIvELN9__gnu_cxx12_Lock_policyE2EE10_M_destroyEv to i8*), i8* bitcast (i8* (%"class.std::_Sp_counted_deleter"*, %"class.std::type_info"*)* @_ZNSt19_Sp_counted_deleterIPN14social_network20ComposePostServiceIfEN6apache6thrift14ReleaseHandlerINS0_27ComposePostServiceIfFactoryEEESaIvELN9__gnu_cxx12_Lock_policyE2EE14_M_get_deleterERKSt9type_info to i8*)] }, comdat, align 8
@_ZTSSt19_Sp_counted_deleterIPN14social_network20ComposePostServiceIfEN6apache6thrift14ReleaseHandlerINS0_27ComposePostServiceIfFactoryEEESaIvELN9__gnu_cxx12_Lock_policyE2EE = linkonce_odr constant [169 x i8] c"St19_Sp_counted_deleterIPN14social_network20ComposePostServiceIfEN6apache6thrift14ReleaseHandlerINS0_27ComposePostServiceIfFactoryEEESaIvELN9__gnu_cxx12_Lock_policyE2EE\00", comdat, align 1
@_ZTSSt16_Sp_counted_baseILN9__gnu_cxx12_Lock_policyE2EE = linkonce_odr constant [52 x i8] c"St16_Sp_counted_baseILN9__gnu_cxx12_Lock_policyE2EE\00", comdat, align 1
@_ZTSSt11_Mutex_baseILN9__gnu_cxx12_Lock_policyE2EE = linkonce_odr constant [47 x i8] c"St11_Mutex_baseILN9__gnu_cxx12_Lock_policyE2EE\00", comdat, align 1
@_ZTISt11_Mutex_baseILN9__gnu_cxx12_Lock_policyE2EE = linkonce_odr constant { i8*, i8* } { i8* bitcast (i8** getelementptr inbounds (i8*, i8** @_ZTVN10__cxxabiv117__class_type_infoE, i64 2) to i8*), i8* getelementptr inbounds ([47 x i8], [47 x i8]* @_ZTSSt11_Mutex_baseILN9__gnu_cxx12_Lock_policyE2EE, i32 0, i32 0) }, comdat, align 8
@_ZTISt16_Sp_counted_baseILN9__gnu_cxx12_Lock_policyE2EE = linkonce_odr constant { i8*, i8*, i8* } { i8* bitcast (i8** getelementptr inbounds (i8*, i8** @_ZTVN10__cxxabiv120__si_class_type_infoE, i64 2) to i8*), i8* getelementptr inbounds ([52 x i8], [52 x i8]* @_ZTSSt16_Sp_counted_baseILN9__gnu_cxx12_Lock_policyE2EE, i32 0, i32 0), i8* bitcast ({ i8*, i8* }* @_ZTISt11_Mutex_baseILN9__gnu_cxx12_Lock_policyE2EE to i8*) }, comdat, align 8
@_ZTISt19_Sp_counted_deleterIPN14social_network20ComposePostServiceIfEN6apache6thrift14ReleaseHandlerINS0_27ComposePostServiceIfFactoryEEESaIvELN9__gnu_cxx12_Lock_policyE2EE = linkonce_odr constant { i8*, i8*, i8* } { i8* bitcast (i8** getelementptr inbounds (i8*, i8** @_ZTVN10__cxxabiv120__si_class_type_infoE, i64 2) to i8*), i8* getelementptr inbounds ([169 x i8], [169 x i8]* @_ZTSSt19_Sp_counted_deleterIPN14social_network20ComposePostServiceIfEN6apache6thrift14ReleaseHandlerINS0_27ComposePostServiceIfFactoryEEESaIvELN9__gnu_cxx12_Lock_policyE2EE, i32 0, i32 0), i8* bitcast ({ i8*, i8*, i8* }* @_ZTISt16_Sp_counted_baseILN9__gnu_cxx12_Lock_policyE2EE to i8*) }, comdat, align 8
@_ZTVSt16_Sp_counted_baseILN9__gnu_cxx12_Lock_policyE2EE = linkonce_odr unnamed_addr constant { [7 x i8*] } { [7 x i8*] [i8* null, i8* bitcast ({ i8*, i8*, i8* }* @_ZTISt16_Sp_counted_baseILN9__gnu_cxx12_Lock_policyE2EE to i8*), i8* bitcast (void (%"class.std::_Sp_counted_base"*)* @_ZNSt16_Sp_counted_baseILN9__gnu_cxx12_Lock_policyE2EED2Ev to i8*), i8* bitcast (void (%"class.std::_Sp_counted_base"*)* @_ZNSt16_Sp_counted_baseILN9__gnu_cxx12_Lock_policyE2EED0Ev to i8*), i8* bitcast (void ()* @__cxa_pure_virtual to i8*), i8* bitcast (void (%"class.std::_Sp_counted_base"*)* @_ZNSt16_Sp_counted_baseILN9__gnu_cxx12_Lock_policyE2EE10_M_destroyEv to i8*), i8* bitcast (void ()* @__cxa_pure_virtual to i8*)] }, comdat, align 8
@_ZTSN6apache6thrift14ReleaseHandlerIN14social_network27ComposePostServiceIfFactoryEEE = linkonce_odr constant [82 x i8] c"N6apache6thrift14ReleaseHandlerIN14social_network27ComposePostServiceIfFactoryEEE\00", comdat, align 1
@_ZTIN6apache6thrift14ReleaseHandlerIN14social_network27ComposePostServiceIfFactoryEEE = linkonce_odr constant { i8*, i8* } { i8* bitcast (i8** getelementptr inbounds (i8*, i8** @_ZTVN10__cxxabiv117__class_type_infoE, i64 2) to i8*), i8* getelementptr inbounds ([82 x i8], [82 x i8]* @_ZTSN6apache6thrift14ReleaseHandlerIN14social_network27ComposePostServiceIfFactoryEEE, i32 0, i32 0) }, comdat, align 8
@_ZTVSt15_Sp_counted_ptrIPN14social_network27ComposePostServiceProcessorELN9__gnu_cxx12_Lock_policyE2EE = linkonce_odr unnamed_addr constant { [7 x i8*] } { [7 x i8*] [i8* null, i8* bitcast ({ i8*, i8*, i8* }* @_ZTISt15_Sp_counted_ptrIPN14social_network27ComposePostServiceProcessorELN9__gnu_cxx12_Lock_policyE2EE to i8*), i8* bitcast (void (%"class.std::_Sp_counted_ptr"*)* @_ZNSt15_Sp_counted_ptrIPN14social_network27ComposePostServiceProcessorELN9__gnu_cxx12_Lock_policyE2EED2Ev to i8*), i8* bitcast (void (%"class.std::_Sp_counted_ptr"*)* @_ZNSt15_Sp_counted_ptrIPN14social_network27ComposePostServiceProcessorELN9__gnu_cxx12_Lock_policyE2EED0Ev to i8*), i8* bitcast (void (%"class.std::_Sp_counted_ptr"*)* @_ZNSt15_Sp_counted_ptrIPN14social_network27ComposePostServiceProcessorELN9__gnu_cxx12_Lock_policyE2EE10_M_disposeEv to i8*), i8* bitcast (void (%"class.std::_Sp_counted_ptr"*)* @_ZNSt15_Sp_counted_ptrIPN14social_network27ComposePostServiceProcessorELN9__gnu_cxx12_Lock_policyE2EE10_M_destroyEv to i8*), i8* bitcast (i8* (%"class.std::_Sp_counted_ptr"*, %"class.std::type_info"*)* @_ZNSt15_Sp_counted_ptrIPN14social_network27ComposePostServiceProcessorELN9__gnu_cxx12_Lock_policyE2EE14_M_get_deleterERKSt9type_info to i8*)] }, comdat, align 8
@_ZTSSt15_Sp_counted_ptrIPN14social_network27ComposePostServiceProcessorELN9__gnu_cxx12_Lock_policyE2EE = linkonce_odr constant [99 x i8] c"St15_Sp_counted_ptrIPN14social_network27ComposePostServiceProcessorELN9__gnu_cxx12_Lock_policyE2EE\00", comdat, align 1
@_ZTISt15_Sp_counted_ptrIPN14social_network27ComposePostServiceProcessorELN9__gnu_cxx12_Lock_policyE2EE = linkonce_odr constant { i8*, i8*, i8* } { i8* bitcast (i8** getelementptr inbounds (i8*, i8** @_ZTVN10__cxxabiv120__si_class_type_infoE, i64 2) to i8*), i8* getelementptr inbounds ([99 x i8], [99 x i8]* @_ZTSSt15_Sp_counted_ptrIPN14social_network27ComposePostServiceProcessorELN9__gnu_cxx12_Lock_policyE2EE, i32 0, i32 0), i8* bitcast ({ i8*, i8*, i8* }* @_ZTISt16_Sp_counted_baseILN9__gnu_cxx12_Lock_policyE2EE to i8*) }, comdat, align 8

@_ZN14social_network34ComposePostService_UploadText_argsD1Ev = unnamed_addr alias void (%"class.social_network::ComposePostService_UploadText_args"*), void (%"class.social_network::ComposePostService_UploadText_args"*)* @_ZN14social_network34ComposePostService_UploadText_argsD2Ev
@_ZN14social_network35ComposePostService_UploadText_pargsD1Ev = unnamed_addr alias void (%"class.social_network::ComposePostService_UploadText_pargs"*), void (%"class.social_network::ComposePostService_UploadText_pargs"*)* @_ZN14social_network35ComposePostService_UploadText_pargsD2Ev
@_ZN14social_network36ComposePostService_UploadText_resultD1Ev = unnamed_addr alias void (%"class.social_network::ComposePostService_UploadText_result"*), void (%"class.social_network::ComposePostService_UploadText_result"*)* @_ZN14social_network36ComposePostService_UploadText_resultD2Ev
@_ZN14social_network37ComposePostService_UploadText_presultD1Ev = unnamed_addr alias void (%"class.social_network::ComposePostService_UploadText_presult"*), void (%"class.social_network::ComposePostService_UploadText_presult"*)* @_ZN14social_network37ComposePostService_UploadText_presultD2Ev
@_ZN14social_network35ComposePostService_UploadMedia_argsD1Ev = unnamed_addr alias void (%"class.social_network::ComposePostService_UploadMedia_args"*), void (%"class.social_network::ComposePostService_UploadMedia_args"*)* @_ZN14social_network35ComposePostService_UploadMedia_argsD2Ev
@_ZN14social_network36ComposePostService_UploadMedia_pargsD1Ev = unnamed_addr alias void (%"class.social_network::ComposePostService_UploadMedia_pargs"*), void (%"class.social_network::ComposePostService_UploadMedia_pargs"*)* @_ZN14social_network36ComposePostService_UploadMedia_pargsD2Ev
@_ZN14social_network37ComposePostService_UploadMedia_resultD1Ev = unnamed_addr alias void (%"class.social_network::ComposePostService_UploadMedia_result"*), void (%"class.social_network::ComposePostService_UploadMedia_result"*)* @_ZN14social_network37ComposePostService_UploadMedia_resultD2Ev
@_ZN14social_network38ComposePostService_UploadMedia_presultD1Ev = unnamed_addr alias void (%"class.social_network::ComposePostService_UploadMedia_presult"*), void (%"class.social_network::ComposePostService_UploadMedia_presult"*)* @_ZN14social_network38ComposePostService_UploadMedia_presultD2Ev
@_ZN14social_network38ComposePostService_UploadUniqueId_argsD1Ev = unnamed_addr alias void (%"class.social_network::ComposePostService_UploadUniqueId_args"*), void (%"class.social_network::ComposePostService_UploadUniqueId_args"*)* @_ZN14social_network38ComposePostService_UploadUniqueId_argsD2Ev
@_ZN14social_network39ComposePostService_UploadUniqueId_pargsD1Ev = unnamed_addr alias void (%"class.social_network::ComposePostService_UploadUniqueId_pargs"*), void (%"class.social_network::ComposePostService_UploadUniqueId_pargs"*)* @_ZN14social_network39ComposePostService_UploadUniqueId_pargsD2Ev
@_ZN14social_network40ComposePostService_UploadUniqueId_resultD1Ev = unnamed_addr alias void (%"class.social_network::ComposePostService_UploadUniqueId_result"*), void (%"class.social_network::ComposePostService_UploadUniqueId_result"*)* @_ZN14social_network40ComposePostService_UploadUniqueId_resultD2Ev
@_ZN14social_network41ComposePostService_UploadUniqueId_presultD1Ev = unnamed_addr alias void (%"class.social_network::ComposePostService_UploadUniqueId_presult"*), void (%"class.social_network::ComposePostService_UploadUniqueId_presult"*)* @_ZN14social_network41ComposePostService_UploadUniqueId_presultD2Ev
@_ZN14social_network37ComposePostService_UploadCreator_argsD1Ev = unnamed_addr alias void (%"class.social_network::ComposePostService_UploadCreator_args"*), void (%"class.social_network::ComposePostService_UploadCreator_args"*)* @_ZN14social_network37ComposePostService_UploadCreator_argsD2Ev
@_ZN14social_network38ComposePostService_UploadCreator_pargsD1Ev = unnamed_addr alias void (%"class.social_network::ComposePostService_UploadCreator_pargs"*), void (%"class.social_network::ComposePostService_UploadCreator_pargs"*)* @_ZN14social_network38ComposePostService_UploadCreator_pargsD2Ev
@_ZN14social_network39ComposePostService_UploadCreator_resultD1Ev = unnamed_addr alias void (%"class.social_network::ComposePostService_UploadCreator_result"*), void (%"class.social_network::ComposePostService_UploadCreator_result"*)* @_ZN14social_network39ComposePostService_UploadCreator_resultD2Ev
@_ZN14social_network40ComposePostService_UploadCreator_presultD1Ev = unnamed_addr alias void (%"class.social_network::ComposePostService_UploadCreator_presult"*), void (%"class.social_network::ComposePostService_UploadCreator_presult"*)* @_ZN14social_network40ComposePostService_UploadCreator_presultD2Ev
@_ZN14social_network34ComposePostService_UploadUrls_argsD1Ev = unnamed_addr alias void (%"class.social_network::ComposePostService_UploadUrls_args"*), void (%"class.social_network::ComposePostService_UploadUrls_args"*)* @_ZN14social_network34ComposePostService_UploadUrls_argsD2Ev
@_ZN14social_network35ComposePostService_UploadUrls_pargsD1Ev = unnamed_addr alias void (%"class.social_network::ComposePostService_UploadUrls_pargs"*), void (%"class.social_network::ComposePostService_UploadUrls_pargs"*)* @_ZN14social_network35ComposePostService_UploadUrls_pargsD2Ev
@_ZN14social_network36ComposePostService_UploadUrls_resultD1Ev = unnamed_addr alias void (%"class.social_network::ComposePostService_UploadUrls_result"*), void (%"class.social_network::ComposePostService_UploadUrls_result"*)* @_ZN14social_network36ComposePostService_UploadUrls_resultD2Ev
@_ZN14social_network37ComposePostService_UploadUrls_presultD1Ev = unnamed_addr alias void (%"class.social_network::ComposePostService_UploadUrls_presult"*), void (%"class.social_network::ComposePostService_UploadUrls_presult"*)* @_ZN14social_network37ComposePostService_UploadUrls_presultD2Ev
@_ZN14social_network42ComposePostService_UploadUserMentions_argsD1Ev = unnamed_addr alias void (%"class.social_network::ComposePostService_UploadUserMentions_args"*), void (%"class.social_network::ComposePostService_UploadUserMentions_args"*)* @_ZN14social_network42ComposePostService_UploadUserMentions_argsD2Ev
@_ZN14social_network43ComposePostService_UploadUserMentions_pargsD1Ev = unnamed_addr alias void (%"class.social_network::ComposePostService_UploadUserMentions_pargs"*), void (%"class.social_network::ComposePostService_UploadUserMentions_pargs"*)* @_ZN14social_network43ComposePostService_UploadUserMentions_pargsD2Ev
@_ZN14social_network44ComposePostService_UploadUserMentions_resultD1Ev = unnamed_addr alias void (%"class.social_network::ComposePostService_UploadUserMentions_result"*), void (%"class.social_network::ComposePostService_UploadUserMentions_result"*)* @_ZN14social_network44ComposePostService_UploadUserMentions_resultD2Ev
@_ZN14social_network45ComposePostService_UploadUserMentions_presultD1Ev = unnamed_addr alias void (%"class.social_network::ComposePostService_UploadUserMentions_presult"*), void (%"class.social_network::ComposePostService_UploadUserMentions_presult"*)* @_ZN14social_network45ComposePostService_UploadUserMentions_presultD2Ev

; Function Attrs: noinline nounwind optnone uwtable
define void @_ZN14social_network34ComposePostService_UploadText_argsD2Ev(%"class.social_network::ComposePostService_UploadText_args"* %0) unnamed_addr #0 align 2 {
  %2 = alloca %"class.social_network::ComposePostService_UploadText_args"*, align 8
  store %"class.social_network::ComposePostService_UploadText_args"* %0, %"class.social_network::ComposePostService_UploadText_args"** %2, align 8
  %3 = load %"class.social_network::ComposePostService_UploadText_args"*, %"class.social_network::ComposePostService_UploadText_args"** %2, align 8
  %4 = bitcast %"class.social_network::ComposePostService_UploadText_args"* %3 to i32 (...)***
  store i32 (...)** bitcast (i8** getelementptr inbounds ({ [4 x i8*] }, { [4 x i8*] }* @_ZTVN14social_network34ComposePostService_UploadText_argsE, i32 0, inrange i32 0, i32 2) to i32 (...)**), i32 (...)*** %4, align 8
  %5 = getelementptr inbounds %"class.social_network::ComposePostService_UploadText_args", %"class.social_network::ComposePostService_UploadText_args"* %3, i32 0, i32 3
  call void @_ZNSt3mapINSt7__cxx1112basic_stringIcSt11char_traitsIcESaIcEEES5_St4lessIS5_ESaISt4pairIKS5_S5_EEED2Ev(%"class.std::map"* %5) #12
  %6 = getelementptr inbounds %"class.social_network::ComposePostService_UploadText_args", %"class.social_network::ComposePostService_UploadText_args"* %3, i32 0, i32 2
  call void @_ZNSt7__cxx1112basic_stringIcSt11char_traitsIcESaIcEED1Ev(%"class.std::__cxx11::basic_string"* %6) #12
  ret void
}

; Function Attrs: noinline nounwind optnone uwtable
define linkonce_odr void @_ZNSt3mapINSt7__cxx1112basic_stringIcSt11char_traitsIcESaIcEEES5_St4lessIS5_ESaISt4pairIKS5_S5_EEED2Ev(%"class.std::map"* %0) unnamed_addr #0 comdat align 2 {
  %2 = alloca %"class.std::map"*, align 8
  store %"class.std::map"* %0, %"class.std::map"** %2, align 8
  %3 = load %"class.std::map"*, %"class.std::map"** %2, align 8
  %4 = getelementptr inbounds %"class.std::map", %"class.std::map"* %3, i32 0, i32 0
  call void @_ZNSt8_Rb_treeINSt7__cxx1112basic_stringIcSt11char_traitsIcESaIcEEESt4pairIKS5_S5_ESt10_Select1stIS8_ESt4lessIS5_ESaIS8_EED2Ev(%"class.std::_Rb_tree"* %4) #12
  ret void
}

; Function Attrs: nounwind
declare void @_ZNSt7__cxx1112basic_stringIcSt11char_traitsIcESaIcEED1Ev(%"class.std::__cxx11::basic_string"*) unnamed_addr #1

; Function Attrs: noinline nounwind optnone uwtable
define void @_ZN14social_network34ComposePostService_UploadText_argsD0Ev(%"class.social_network::ComposePostService_UploadText_args"* %0) unnamed_addr #0 align 2 {
  %2 = alloca %"class.social_network::ComposePostService_UploadText_args"*, align 8
  store %"class.social_network::ComposePostService_UploadText_args"* %0, %"class.social_network::ComposePostService_UploadText_args"** %2, align 8
  %3 = load %"class.social_network::ComposePostService_UploadText_args"*, %"class.social_network::ComposePostService_UploadText_args"** %2, align 8
  call void @_ZN14social_network34ComposePostService_UploadText_argsD1Ev(%"class.social_network::ComposePostService_UploadText_args"* %3) #12
  %4 = bitcast %"class.social_network::ComposePostService_UploadText_args"* %3 to i8*
  call void @_ZdlPv(i8* %4) #13
  ret void
}

; Function Attrs: nobuiltin nounwind
declare void @_ZdlPv(i8*) #2

; Function Attrs: noinline optnone uwtable
define i32 @_ZN14social_network34ComposePostService_UploadText_args4readEPN6apache6thrift8protocol9TProtocolE(%"class.social_network::ComposePostService_UploadText_args"* %0, %"class.apache::thrift::protocol::TProtocol"* %1) #3 align 2 personality i8* bitcast (i32 (...)* @__gxx_personality_v0 to i8*) {
  %3 = alloca %"class.social_network::ComposePostService_UploadText_args"*, align 8
  %4 = alloca %"class.apache::thrift::protocol::TProtocol"*, align 8
  %5 = alloca %"struct.apache::thrift::protocol::TInputRecursionTracker", align 8
  %6 = alloca i32, align 4
  %7 = alloca %"class.std::__cxx11::basic_string", align 8
  %8 = alloca i32, align 4
  %9 = alloca i16, align 2
  %10 = alloca i8*
  %11 = alloca i32
  %12 = alloca i32, align 4
  %13 = alloca i32, align 4
  %14 = alloca i32, align 4
  %15 = alloca i32, align 4
  %16 = alloca %"class.std::__cxx11::basic_string", align 8
  %17 = alloca %"class.std::__cxx11::basic_string"*, align 8
  store %"class.social_network::ComposePostService_UploadText_args"* %0, %"class.social_network::ComposePostService_UploadText_args"** %3, align 8
  store %"class.apache::thrift::protocol::TProtocol"* %1, %"class.apache::thrift::protocol::TProtocol"** %4, align 8
  %18 = load %"class.social_network::ComposePostService_UploadText_args"*, %"class.social_network::ComposePostService_UploadText_args"** %3, align 8
  %19 = load %"class.apache::thrift::protocol::TProtocol"*, %"class.apache::thrift::protocol::TProtocol"** %4, align 8
  call void @_ZN6apache6thrift8protocol22TInputRecursionTrackerC2ERNS1_9TProtocolE(%"struct.apache::thrift::protocol::TInputRecursionTracker"* %5, %"class.apache::thrift::protocol::TProtocol"* dereferenceable(40) %19)
  store i32 0, i32* %6, align 4
  call void @_ZNSt7__cxx1112basic_stringIcSt11char_traitsIcESaIcEEC1Ev(%"class.std::__cxx11::basic_string"* %7) #12
  %20 = load %"class.apache::thrift::protocol::TProtocol"*, %"class.apache::thrift::protocol::TProtocol"** %4, align 8
  %21 = invoke i32 @_ZN6apache6thrift8protocol9TProtocol15readStructBeginERNSt7__cxx1112basic_stringIcSt11char_traitsIcESaIcEEE(%"class.apache::thrift::protocol::TProtocol"* %20, %"class.std::__cxx11::basic_string"* dereferenceable(32) %7)
          to label %22 unwind label %35

22:                                               ; preds = %2
  %23 = load i32, i32* %6, align 4
  %24 = add i32 %23, %21
  store i32 %24, i32* %6, align 4
  br label %25

25:                                               ; preds = %153, %22
  br label %26

26:                                               ; preds = %25
  %27 = load %"class.apache::thrift::protocol::TProtocol"*, %"class.apache::thrift::protocol::TProtocol"** %4, align 8
  %28 = invoke i32 @_ZN6apache6thrift8protocol9TProtocol14readFieldBeginERNSt7__cxx1112basic_stringIcSt11char_traitsIcESaIcEEERNS1_5TTypeERs(%"class.apache::thrift::protocol::TProtocol"* %27, %"class.std::__cxx11::basic_string"* dereferenceable(32) %7, i32* dereferenceable(4) %8, i16* dereferenceable(2) %9)
          to label %29 unwind label %35

29:                                               ; preds = %26
  %30 = load i32, i32* %6, align 4
  %31 = add i32 %30, %28
  store i32 %31, i32* %6, align 4
  %32 = load i32, i32* %8, align 4
  %33 = icmp eq i32 %32, 0
  br i1 %33, label %34, label %39

34:                                               ; preds = %29
  br label %156

35:                                               ; preds = %156, %150, %143, %135, %124, %91, %80, %68, %57, %45, %26, %2
  %36 = landingpad { i8*, i32 }
          cleanup
  %37 = extractvalue { i8*, i32 } %36, 0
  store i8* %37, i8** %10, align 8
  %38 = extractvalue { i8*, i32 } %36, 1
  store i32 %38, i32* %11, align 4
  br label %163

39:                                               ; preds = %29
  %40 = load i16, i16* %9, align 2
  %41 = sext i16 %40 to i32
  switch i32 %41, label %143 [
    i32 1, label %42
    i32 2, label %65
    i32 3, label %88
  ]

42:                                               ; preds = %39
  %43 = load i32, i32* %8, align 4
  %44 = icmp eq i32 %43, 10
  br i1 %44, label %45, label %57

45:                                               ; preds = %42
  %46 = load %"class.apache::thrift::protocol::TProtocol"*, %"class.apache::thrift::protocol::TProtocol"** %4, align 8
  %47 = getelementptr inbounds %"class.social_network::ComposePostService_UploadText_args", %"class.social_network::ComposePostService_UploadText_args"* %18, i32 0, i32 1
  %48 = invoke i32 @_ZN6apache6thrift8protocol9TProtocol7readI64ERl(%"class.apache::thrift::protocol::TProtocol"* %46, i64* dereferenceable(8) %47)
          to label %49 unwind label %35

49:                                               ; preds = %45
  %50 = load i32, i32* %6, align 4
  %51 = add i32 %50, %48
  store i32 %51, i32* %6, align 4
  %52 = getelementptr inbounds %"class.social_network::ComposePostService_UploadText_args", %"class.social_network::ComposePostService_UploadText_args"* %18, i32 0, i32 4
  %53 = bitcast %"struct.social_network::_ComposePostService_UploadText_args__isset"* %52 to i8*
  %54 = load i8, i8* %53, align 8
  %55 = and i8 %54, -2
  %56 = or i8 %55, 1
  store i8 %56, i8* %53, align 8
  br label %64

57:                                               ; preds = %42
  %58 = load %"class.apache::thrift::protocol::TProtocol"*, %"class.apache::thrift::protocol::TProtocol"** %4, align 8
  %59 = load i32, i32* %8, align 4
  %60 = invoke i32 @_ZN6apache6thrift8protocol9TProtocol4skipENS1_5TTypeE(%"class.apache::thrift::protocol::TProtocol"* %58, i32 %59)
          to label %61 unwind label %35

61:                                               ; preds = %57
  %62 = load i32, i32* %6, align 4
  %63 = add i32 %62, %60
  store i32 %63, i32* %6, align 4
  br label %64

64:                                               ; preds = %61, %49
  br label %150

65:                                               ; preds = %39
  %66 = load i32, i32* %8, align 4
  %67 = icmp eq i32 %66, 11
  br i1 %67, label %68, label %80

68:                                               ; preds = %65
  %69 = load %"class.apache::thrift::protocol::TProtocol"*, %"class.apache::thrift::protocol::TProtocol"** %4, align 8
  %70 = getelementptr inbounds %"class.social_network::ComposePostService_UploadText_args", %"class.social_network::ComposePostService_UploadText_args"* %18, i32 0, i32 2
  %71 = invoke i32 @_ZN6apache6thrift8protocol9TProtocol10readStringERNSt7__cxx1112basic_stringIcSt11char_traitsIcESaIcEEE(%"class.apache::thrift::protocol::TProtocol"* %69, %"class.std::__cxx11::basic_string"* dereferenceable(32) %70)
          to label %72 unwind label %35

72:                                               ; preds = %68
  %73 = load i32, i32* %6, align 4
  %74 = add i32 %73, %71
  store i32 %74, i32* %6, align 4
  %75 = getelementptr inbounds %"class.social_network::ComposePostService_UploadText_args", %"class.social_network::ComposePostService_UploadText_args"* %18, i32 0, i32 4
  %76 = bitcast %"struct.social_network::_ComposePostService_UploadText_args__isset"* %75 to i8*
  %77 = load i8, i8* %76, align 8
  %78 = and i8 %77, -3
  %79 = or i8 %78, 2
  store i8 %79, i8* %76, align 8
  br label %87

80:                                               ; preds = %65
  %81 = load %"class.apache::thrift::protocol::TProtocol"*, %"class.apache::thrift::protocol::TProtocol"** %4, align 8
  %82 = load i32, i32* %8, align 4
  %83 = invoke i32 @_ZN6apache6thrift8protocol9TProtocol4skipENS1_5TTypeE(%"class.apache::thrift::protocol::TProtocol"* %81, i32 %82)
          to label %84 unwind label %35

84:                                               ; preds = %80
  %85 = load i32, i32* %6, align 4
  %86 = add i32 %85, %83
  store i32 %86, i32* %6, align 4
  br label %87

87:                                               ; preds = %84, %72
  br label %150

88:                                               ; preds = %39
  %89 = load i32, i32* %8, align 4
  %90 = icmp eq i32 %89, 13
  br i1 %90, label %91, label %135

91:                                               ; preds = %88
  %92 = getelementptr inbounds %"class.social_network::ComposePostService_UploadText_args", %"class.social_network::ComposePostService_UploadText_args"* %18, i32 0, i32 3
  call void @_ZNSt3mapINSt7__cxx1112basic_stringIcSt11char_traitsIcESaIcEEES5_St4lessIS5_ESaISt4pairIKS5_S5_EEE5clearEv(%"class.std::map"* %92) #12
  %93 = load %"class.apache::thrift::protocol::TProtocol"*, %"class.apache::thrift::protocol::TProtocol"** %4, align 8
  %94 = invoke i32 @_ZN6apache6thrift8protocol9TProtocol12readMapBeginERNS1_5TTypeES4_Rj(%"class.apache::thrift::protocol::TProtocol"* %93, i32* dereferenceable(4) %13, i32* dereferenceable(4) %14, i32* dereferenceable(4) %12)
          to label %95 unwind label %35

95:                                               ; preds = %91
  %96 = load i32, i32* %6, align 4
  %97 = add i32 %96, %94
  store i32 %97, i32* %6, align 4
  store i32 0, i32* %15, align 4
  br label %98

98:                                               ; preds = %117, %95
  %99 = load i32, i32* %15, align 4
  %100 = load i32, i32* %12, align 4
  %101 = icmp ult i32 %99, %100
  br i1 %101, label %102, label %124

102:                                              ; preds = %98
  call void @_ZNSt7__cxx1112basic_stringIcSt11char_traitsIcESaIcEEC1Ev(%"class.std::__cxx11::basic_string"* %16) #12
  %103 = load %"class.apache::thrift::protocol::TProtocol"*, %"class.apache::thrift::protocol::TProtocol"** %4, align 8
  %104 = invoke i32 @_ZN6apache6thrift8protocol9TProtocol10readStringERNSt7__cxx1112basic_stringIcSt11char_traitsIcESaIcEEE(%"class.apache::thrift::protocol::TProtocol"* %103, %"class.std::__cxx11::basic_string"* dereferenceable(32) %16)
          to label %105 unwind label %120

105:                                              ; preds = %102
  %106 = load i32, i32* %6, align 4
  %107 = add i32 %106, %104
  store i32 %107, i32* %6, align 4
  %108 = getelementptr inbounds %"class.social_network::ComposePostService_UploadText_args", %"class.social_network::ComposePostService_UploadText_args"* %18, i32 0, i32 3
  %109 = invoke dereferenceable(32) %"class.std::__cxx11::basic_string"* @_ZNSt3mapINSt7__cxx1112basic_stringIcSt11char_traitsIcESaIcEEES5_St4lessIS5_ESaISt4pairIKS5_S5_EEEixERS9_(%"class.std::map"* %108, %"class.std::__cxx11::basic_string"* dereferenceable(32) %16)
          to label %110 unwind label %120

110:                                              ; preds = %105
  store %"class.std::__cxx11::basic_string"* %109, %"class.std::__cxx11::basic_string"** %17, align 8
  %111 = load %"class.apache::thrift::protocol::TProtocol"*, %"class.apache::thrift::protocol::TProtocol"** %4, align 8
  %112 = load %"class.std::__cxx11::basic_string"*, %"class.std::__cxx11::basic_string"** %17, align 8
  %113 = invoke i32 @_ZN6apache6thrift8protocol9TProtocol10readStringERNSt7__cxx1112basic_stringIcSt11char_traitsIcESaIcEEE(%"class.apache::thrift::protocol::TProtocol"* %111, %"class.std::__cxx11::basic_string"* dereferenceable(32) %112)
          to label %114 unwind label %120

114:                                              ; preds = %110
  %115 = load i32, i32* %6, align 4
  %116 = add i32 %115, %113
  store i32 %116, i32* %6, align 4
  call void @_ZNSt7__cxx1112basic_stringIcSt11char_traitsIcESaIcEED1Ev(%"class.std::__cxx11::basic_string"* %16) #12
  br label %117

117:                                              ; preds = %114
  %118 = load i32, i32* %15, align 4
  %119 = add i32 %118, 1
  store i32 %119, i32* %15, align 4
  br label %98

120:                                              ; preds = %110, %105, %102
  %121 = landingpad { i8*, i32 }
          cleanup
  %122 = extractvalue { i8*, i32 } %121, 0
  store i8* %122, i8** %10, align 8
  %123 = extractvalue { i8*, i32 } %121, 1
  store i32 %123, i32* %11, align 4
  call void @_ZNSt7__cxx1112basic_stringIcSt11char_traitsIcESaIcEED1Ev(%"class.std::__cxx11::basic_string"* %16) #12
  br label %163

124:                                              ; preds = %98
  %125 = load %"class.apache::thrift::protocol::TProtocol"*, %"class.apache::thrift::protocol::TProtocol"** %4, align 8
  %126 = invoke i32 @_ZN6apache6thrift8protocol9TProtocol10readMapEndEv(%"class.apache::thrift::protocol::TProtocol"* %125)
          to label %127 unwind label %35

127:                                              ; preds = %124
  %128 = load i32, i32* %6, align 4
  %129 = add i32 %128, %126
  store i32 %129, i32* %6, align 4
  %130 = getelementptr inbounds %"class.social_network::ComposePostService_UploadText_args", %"class.social_network::ComposePostService_UploadText_args"* %18, i32 0, i32 4
  %131 = bitcast %"struct.social_network::_ComposePostService_UploadText_args__isset"* %130 to i8*
  %132 = load i8, i8* %131, align 8
  %133 = and i8 %132, -5
  %134 = or i8 %133, 4
  store i8 %134, i8* %131, align 8
  br label %142

135:                                              ; preds = %88
  %136 = load %"class.apache::thrift::protocol::TProtocol"*, %"class.apache::thrift::protocol::TProtocol"** %4, align 8
  %137 = load i32, i32* %8, align 4
  %138 = invoke i32 @_ZN6apache6thrift8protocol9TProtocol4skipENS1_5TTypeE(%"class.apache::thrift::protocol::TProtocol"* %136, i32 %137)
          to label %139 unwind label %35

139:                                              ; preds = %135
  %140 = load i32, i32* %6, align 4
  %141 = add i32 %140, %138
  store i32 %141, i32* %6, align 4
  br label %142

142:                                              ; preds = %139, %127
  br label %150

143:                                              ; preds = %39
  %144 = load %"class.apache::thrift::protocol::TProtocol"*, %"class.apache::thrift::protocol::TProtocol"** %4, align 8
  %145 = load i32, i32* %8, align 4
  %146 = invoke i32 @_ZN6apache6thrift8protocol9TProtocol4skipENS1_5TTypeE(%"class.apache::thrift::protocol::TProtocol"* %144, i32 %145)
          to label %147 unwind label %35

147:                                              ; preds = %143
  %148 = load i32, i32* %6, align 4
  %149 = add i32 %148, %146
  store i32 %149, i32* %6, align 4
  br label %150

150:                                              ; preds = %147, %142, %87, %64
  %151 = load %"class.apache::thrift::protocol::TProtocol"*, %"class.apache::thrift::protocol::TProtocol"** %4, align 8
  %152 = invoke i32 @_ZN6apache6thrift8protocol9TProtocol12readFieldEndEv(%"class.apache::thrift::protocol::TProtocol"* %151)
          to label %153 unwind label %35

153:                                              ; preds = %150
  %154 = load i32, i32* %6, align 4
  %155 = add i32 %154, %152
  store i32 %155, i32* %6, align 4
  br label %25

156:                                              ; preds = %34
  %157 = load %"class.apache::thrift::protocol::TProtocol"*, %"class.apache::thrift::protocol::TProtocol"** %4, align 8
  %158 = invoke i32 @_ZN6apache6thrift8protocol9TProtocol13readStructEndEv(%"class.apache::thrift::protocol::TProtocol"* %157)
          to label %159 unwind label %35

159:                                              ; preds = %156
  %160 = load i32, i32* %6, align 4
  %161 = add i32 %160, %158
  store i32 %161, i32* %6, align 4
  %162 = load i32, i32* %6, align 4
  call void @_ZNSt7__cxx1112basic_stringIcSt11char_traitsIcESaIcEED1Ev(%"class.std::__cxx11::basic_string"* %7) #12
  call void @_ZN6apache6thrift8protocol22TInputRecursionTrackerD2Ev(%"struct.apache::thrift::protocol::TInputRecursionTracker"* %5) #12
  ret i32 %162

163:                                              ; preds = %120, %35
  call void @_ZNSt7__cxx1112basic_stringIcSt11char_traitsIcESaIcEED1Ev(%"class.std::__cxx11::basic_string"* %7) #12
  call void @_ZN6apache6thrift8protocol22TInputRecursionTrackerD2Ev(%"struct.apache::thrift::protocol::TInputRecursionTracker"* %5) #12
  br label %164

164:                                              ; preds = %163
  %165 = load i8*, i8** %10, align 8
  %166 = load i32, i32* %11, align 4
  %167 = insertvalue { i8*, i32 } undef, i8* %165, 0
  %168 = insertvalue { i8*, i32 } %167, i32 %166, 1
  resume { i8*, i32 } %168
}

; Function Attrs: noinline optnone uwtable
define linkonce_odr void @_ZN6apache6thrift8protocol22TInputRecursionTrackerC2ERNS1_9TProtocolE(%"struct.apache::thrift::protocol::TInputRecursionTracker"* %0, %"class.apache::thrift::protocol::TProtocol"* dereferenceable(40) %1) unnamed_addr #3 comdat align 2 {
  %3 = alloca %"struct.apache::thrift::protocol::TInputRecursionTracker"*, align 8
  %4 = alloca %"class.apache::thrift::protocol::TProtocol"*, align 8
  store %"struct.apache::thrift::protocol::TInputRecursionTracker"* %0, %"struct.apache::thrift::protocol::TInputRecursionTracker"** %3, align 8
  store %"class.apache::thrift::protocol::TProtocol"* %1, %"class.apache::thrift::protocol::TProtocol"** %4, align 8
  %5 = load %"struct.apache::thrift::protocol::TInputRecursionTracker"*, %"struct.apache::thrift::protocol::TInputRecursionTracker"** %3, align 8
  %6 = getelementptr inbounds %"struct.apache::thrift::protocol::TInputRecursionTracker", %"struct.apache::thrift::protocol::TInputRecursionTracker"* %5, i32 0, i32 0
  %7 = load %"class.apache::thrift::protocol::TProtocol"*, %"class.apache::thrift::protocol::TProtocol"** %4, align 8
  store %"class.apache::thrift::protocol::TProtocol"* %7, %"class.apache::thrift::protocol::TProtocol"** %6, align 8
  %8 = getelementptr inbounds %"struct.apache::thrift::protocol::TInputRecursionTracker", %"struct.apache::thrift::protocol::TInputRecursionTracker"* %5, i32 0, i32 0
  %9 = load %"class.apache::thrift::protocol::TProtocol"*, %"class.apache::thrift::protocol::TProtocol"** %8, align 8
  call void @_ZN6apache6thrift8protocol9TProtocol28incrementInputRecursionDepthEv(%"class.apache::thrift::protocol::TProtocol"* %9)
  ret void
}

; Function Attrs: nounwind
declare void @_ZNSt7__cxx1112basic_stringIcSt11char_traitsIcESaIcEEC1Ev(%"class.std::__cxx11::basic_string"*) unnamed_addr #1

; Function Attrs: noinline optnone uwtable
define linkonce_odr i32 @_ZN6apache6thrift8protocol9TProtocol15readStructBeginERNSt7__cxx1112basic_stringIcSt11char_traitsIcESaIcEEE(%"class.apache::thrift::protocol::TProtocol"* %0, %"class.std::__cxx11::basic_string"* dereferenceable(32) %1) #3 comdat align 2 {
  %3 = alloca %"class.apache::thrift::protocol::TProtocol"*, align 8
  %4 = alloca %"class.std::__cxx11::basic_string"*, align 8
  store %"class.apache::thrift::protocol::TProtocol"* %0, %"class.apache::thrift::protocol::TProtocol"** %3, align 8
  store %"class.std::__cxx11::basic_string"* %1, %"class.std::__cxx11::basic_string"** %4, align 8
  %5 = load %"class.apache::thrift::protocol::TProtocol"*, %"class.apache::thrift::protocol::TProtocol"** %3, align 8
  %6 = load %"class.std::__cxx11::basic_string"*, %"class.std::__cxx11::basic_string"** %4, align 8
  %7 = bitcast %"class.apache::thrift::protocol::TProtocol"* %5 to i32 (%"class.apache::thrift::protocol::TProtocol"*, %"class.std::__cxx11::basic_string"*)***
  %8 = load i32 (%"class.apache::thrift::protocol::TProtocol"*, %"class.std::__cxx11::basic_string"*)**, i32 (%"class.apache::thrift::protocol::TProtocol"*, %"class.std::__cxx11::basic_string"*)*** %7, align 8
  %9 = getelementptr inbounds i32 (%"class.apache::thrift::protocol::TProtocol"*, %"class.std::__cxx11::basic_string"*)*, i32 (%"class.apache::thrift::protocol::TProtocol"*, %"class.std::__cxx11::basic_string"*)** %8, i64 25
  %10 = load i32 (%"class.apache::thrift::protocol::TProtocol"*, %"class.std::__cxx11::basic_string"*)*, i32 (%"class.apache::thrift::protocol::TProtocol"*, %"class.std::__cxx11::basic_string"*)** %9, align 8
  %11 = call i32 %10(%"class.apache::thrift::protocol::TProtocol"* %5, %"class.std::__cxx11::basic_string"* dereferenceable(32) %6)
  ret i32 %11
}

declare i32 @__gxx_personality_v0(...)

; Function Attrs: noinline optnone uwtable
define linkonce_odr i32 @_ZN6apache6thrift8protocol9TProtocol14readFieldBeginERNSt7__cxx1112basic_stringIcSt11char_traitsIcESaIcEEERNS1_5TTypeERs(%"class.apache::thrift::protocol::TProtocol"* %0, %"class.std::__cxx11::basic_string"* dereferenceable(32) %1, i32* dereferenceable(4) %2, i16* dereferenceable(2) %3) #3 comdat align 2 {
  %5 = alloca %"class.apache::thrift::protocol::TProtocol"*, align 8
  %6 = alloca %"class.std::__cxx11::basic_string"*, align 8
  %7 = alloca i32*, align 8
  %8 = alloca i16*, align 8
  store %"class.apache::thrift::protocol::TProtocol"* %0, %"class.apache::thrift::protocol::TProtocol"** %5, align 8
  store %"class.std::__cxx11::basic_string"* %1, %"class.std::__cxx11::basic_string"** %6, align 8
  store i32* %2, i32** %7, align 8
  store i16* %3, i16** %8, align 8
  %9 = load %"class.apache::thrift::protocol::TProtocol"*, %"class.apache::thrift::protocol::TProtocol"** %5, align 8
  %10 = load %"class.std::__cxx11::basic_string"*, %"class.std::__cxx11::basic_string"** %6, align 8
  %11 = load i32*, i32** %7, align 8
  %12 = load i16*, i16** %8, align 8
  %13 = bitcast %"class.apache::thrift::protocol::TProtocol"* %9 to i32 (%"class.apache::thrift::protocol::TProtocol"*, %"class.std::__cxx11::basic_string"*, i32*, i16*)***
  %14 = load i32 (%"class.apache::thrift::protocol::TProtocol"*, %"class.std::__cxx11::basic_string"*, i32*, i16*)**, i32 (%"class.apache::thrift::protocol::TProtocol"*, %"class.std::__cxx11::basic_string"*, i32*, i16*)*** %13, align 8
  %15 = getelementptr inbounds i32 (%"class.apache::thrift::protocol::TProtocol"*, %"class.std::__cxx11::basic_string"*, i32*, i16*)*, i32 (%"class.apache::thrift::protocol::TProtocol"*, %"class.std::__cxx11::basic_string"*, i32*, i16*)** %14, i64 27
  %16 = load i32 (%"class.apache::thrift::protocol::TProtocol"*, %"class.std::__cxx11::basic_string"*, i32*, i16*)*, i32 (%"class.apache::thrift::protocol::TProtocol"*, %"class.std::__cxx11::basic_string"*, i32*, i16*)** %15, align 8
  %17 = call i32 %16(%"class.apache::thrift::protocol::TProtocol"* %9, %"class.std::__cxx11::basic_string"* dereferenceable(32) %10, i32* dereferenceable(4) %11, i16* dereferenceable(2) %12)
  ret i32 %17
}

; Function Attrs: noinline optnone uwtable
define linkonce_odr i32 @_ZN6apache6thrift8protocol9TProtocol7readI64ERl(%"class.apache::thrift::protocol::TProtocol"* %0, i64* dereferenceable(8) %1) #3 comdat align 2 {
  %3 = alloca %"class.apache::thrift::protocol::TProtocol"*, align 8
  %4 = alloca i64*, align 8
  store %"class.apache::thrift::protocol::TProtocol"* %0, %"class.apache::thrift::protocol::TProtocol"** %3, align 8
  store i64* %1, i64** %4, align 8
  %5 = load %"class.apache::thrift::protocol::TProtocol"*, %"class.apache::thrift::protocol::TProtocol"** %3, align 8
  %6 = load i64*, i64** %4, align 8
  %7 = bitcast %"class.apache::thrift::protocol::TProtocol"* %5 to i32 (%"class.apache::thrift::protocol::TProtocol"*, i64*)***
  %8 = load i32 (%"class.apache::thrift::protocol::TProtocol"*, i64*)**, i32 (%"class.apache::thrift::protocol::TProtocol"*, i64*)*** %7, align 8
  %9 = getelementptr inbounds i32 (%"class.apache::thrift::protocol::TProtocol"*, i64*)*, i32 (%"class.apache::thrift::protocol::TProtocol"*, i64*)** %8, i64 40
  %10 = load i32 (%"class.apache::thrift::protocol::TProtocol"*, i64*)*, i32 (%"class.apache::thrift::protocol::TProtocol"*, i64*)** %9, align 8
  %11 = call i32 %10(%"class.apache::thrift::protocol::TProtocol"* %5, i64* dereferenceable(8) %6)
  ret i32 %11
}

; Function Attrs: noinline optnone uwtable
define linkonce_odr i32 @_ZN6apache6thrift8protocol9TProtocol4skipENS1_5TTypeE(%"class.apache::thrift::protocol::TProtocol"* %0, i32 %1) #3 comdat align 2 {
  %3 = alloca %"class.apache::thrift::protocol::TProtocol"*, align 8
  %4 = alloca i32, align 4
  store %"class.apache::thrift::protocol::TProtocol"* %0, %"class.apache::thrift::protocol::TProtocol"** %3, align 8
  store i32 %1, i32* %4, align 4
  %5 = load %"class.apache::thrift::protocol::TProtocol"*, %"class.apache::thrift::protocol::TProtocol"** %3, align 8
  %6 = load i32, i32* %4, align 4
  %7 = bitcast %"class.apache::thrift::protocol::TProtocol"* %5 to i32 (%"class.apache::thrift::protocol::TProtocol"*, i32)***
  %8 = load i32 (%"class.apache::thrift::protocol::TProtocol"*, i32)**, i32 (%"class.apache::thrift::protocol::TProtocol"*, i32)*** %7, align 8
  %9 = getelementptr inbounds i32 (%"class.apache::thrift::protocol::TProtocol"*, i32)*, i32 (%"class.apache::thrift::protocol::TProtocol"*, i32)** %8, i64 44
  %10 = load i32 (%"class.apache::thrift::protocol::TProtocol"*, i32)*, i32 (%"class.apache::thrift::protocol::TProtocol"*, i32)** %9, align 8
  %11 = call i32 %10(%"class.apache::thrift::protocol::TProtocol"* %5, i32 %6)
  ret i32 %11
}

; Function Attrs: noinline optnone uwtable
define linkonce_odr i32 @_ZN6apache6thrift8protocol9TProtocol10readStringERNSt7__cxx1112basic_stringIcSt11char_traitsIcESaIcEEE(%"class.apache::thrift::protocol::TProtocol"* %0, %"class.std::__cxx11::basic_string"* dereferenceable(32) %1) #3 comdat align 2 {
  %3 = alloca %"class.apache::thrift::protocol::TProtocol"*, align 8
  %4 = alloca %"class.std::__cxx11::basic_string"*, align 8
  store %"class.apache::thrift::protocol::TProtocol"* %0, %"class.apache::thrift::protocol::TProtocol"** %3, align 8
  store %"class.std::__cxx11::basic_string"* %1, %"class.std::__cxx11::basic_string"** %4, align 8
  %5 = load %"class.apache::thrift::protocol::TProtocol"*, %"class.apache::thrift::protocol::TProtocol"** %3, align 8
  %6 = load %"class.std::__cxx11::basic_string"*, %"class.std::__cxx11::basic_string"** %4, align 8
  %7 = bitcast %"class.apache::thrift::protocol::TProtocol"* %5 to i32 (%"class.apache::thrift::protocol::TProtocol"*, %"class.std::__cxx11::basic_string"*)***
  %8 = load i32 (%"class.apache::thrift::protocol::TProtocol"*, %"class.std::__cxx11::basic_string"*)**, i32 (%"class.apache::thrift::protocol::TProtocol"*, %"class.std::__cxx11::basic_string"*)*** %7, align 8
  %9 = getelementptr inbounds i32 (%"class.apache::thrift::protocol::TProtocol"*, %"class.std::__cxx11::basic_string"*)*, i32 (%"class.apache::thrift::protocol::TProtocol"*, %"class.std::__cxx11::basic_string"*)** %8, i64 42
  %10 = load i32 (%"class.apache::thrift::protocol::TProtocol"*, %"class.std::__cxx11::basic_string"*)*, i32 (%"class.apache::thrift::protocol::TProtocol"*, %"class.std::__cxx11::basic_string"*)** %9, align 8
  %11 = call i32 %10(%"class.apache::thrift::protocol::TProtocol"* %5, %"class.std::__cxx11::basic_string"* dereferenceable(32) %6)
  ret i32 %11
}

; Function Attrs: noinline nounwind optnone uwtable
define linkonce_odr void @_ZNSt3mapINSt7__cxx1112basic_stringIcSt11char_traitsIcESaIcEEES5_St4lessIS5_ESaISt4pairIKS5_S5_EEE5clearEv(%"class.std::map"* %0) #0 comdat align 2 {
  %2 = alloca %"class.std::map"*, align 8
  store %"class.std::map"* %0, %"class.std::map"** %2, align 8
  %3 = load %"class.std::map"*, %"class.std::map"** %2, align 8
  %4 = getelementptr inbounds %"class.std::map", %"class.std::map"* %3, i32 0, i32 0
  call void @_ZNSt8_Rb_treeINSt7__cxx1112basic_stringIcSt11char_traitsIcESaIcEEESt4pairIKS5_S5_ESt10_Select1stIS8_ESt4lessIS5_ESaIS8_EE5clearEv(%"class.std::_Rb_tree"* %4) #12
  ret void
}

; Function Attrs: noinline optnone uwtable
define linkonce_odr i32 @_ZN6apache6thrift8protocol9TProtocol12readMapBeginERNS1_5TTypeES4_Rj(%"class.apache::thrift::protocol::TProtocol"* %0, i32* dereferenceable(4) %1, i32* dereferenceable(4) %2, i32* dereferenceable(4) %3) #3 comdat align 2 {
  %5 = alloca %"class.apache::thrift::protocol::TProtocol"*, align 8
  %6 = alloca i32*, align 8
  %7 = alloca i32*, align 8
  %8 = alloca i32*, align 8
  store %"class.apache::thrift::protocol::TProtocol"* %0, %"class.apache::thrift::protocol::TProtocol"** %5, align 8
  store i32* %1, i32** %6, align 8
  store i32* %2, i32** %7, align 8
  store i32* %3, i32** %8, align 8
  %9 = load %"class.apache::thrift::protocol::TProtocol"*, %"class.apache::thrift::protocol::TProtocol"** %5, align 8
  %10 = load i32*, i32** %6, align 8
  %11 = load i32*, i32** %7, align 8
  %12 = load i32*, i32** %8, align 8
  %13 = bitcast %"class.apache::thrift::protocol::TProtocol"* %9 to i32 (%"class.apache::thrift::protocol::TProtocol"*, i32*, i32*, i32*)***
  %14 = load i32 (%"class.apache::thrift::protocol::TProtocol"*, i32*, i32*, i32*)**, i32 (%"class.apache::thrift::protocol::TProtocol"*, i32*, i32*, i32*)*** %13, align 8
  %15 = getelementptr inbounds i32 (%"class.apache::thrift::protocol::TProtocol"*, i32*, i32*, i32*)*, i32 (%"class.apache::thrift::protocol::TProtocol"*, i32*, i32*, i32*)** %14, i64 29
  %16 = load i32 (%"class.apache::thrift::protocol::TProtocol"*, i32*, i32*, i32*)*, i32 (%"class.apache::thrift::protocol::TProtocol"*, i32*, i32*, i32*)** %15, align 8
  %17 = call i32 %16(%"class.apache::thrift::protocol::TProtocol"* %9, i32* dereferenceable(4) %10, i32* dereferenceable(4) %11, i32* dereferenceable(4) %12)
  ret i32 %17
}

; Function Attrs: noinline optnone uwtable
define linkonce_odr dereferenceable(32) %"class.std::__cxx11::basic_string"* @_ZNSt3mapINSt7__cxx1112basic_stringIcSt11char_traitsIcESaIcEEES5_St4lessIS5_ESaISt4pairIKS5_S5_EEEixERS9_(%"class.std::map"* %0, %"class.std::__cxx11::basic_string"* dereferenceable(32) %1) #3 comdat align 2 {
  %3 = alloca %"class.std::map"*, align 8
  %4 = alloca %"class.std::__cxx11::basic_string"*, align 8
  %5 = alloca %"struct.std::_Rb_tree_iterator.73", align 8
  %6 = alloca %"struct.std::_Rb_tree_iterator.73", align 8
  %7 = alloca %"struct.std::less", align 1
  %8 = alloca %"struct.std::less", align 1
  %9 = alloca %"struct.std::_Rb_tree_iterator.73", align 8
  %10 = alloca %"struct.std::_Rb_tree_const_iterator", align 8
  %11 = alloca %"class.std::tuple.74", align 8
  %12 = alloca %"class.std::tuple.61", align 1
  store %"class.std::map"* %0, %"class.std::map"** %3, align 8
  store %"class.std::__cxx11::basic_string"* %1, %"class.std::__cxx11::basic_string"** %4, align 8
  %13 = load %"class.std::map"*, %"class.std::map"** %3, align 8
  %14 = load %"class.std::__cxx11::basic_string"*, %"class.std::__cxx11::basic_string"** %4, align 8
  %15 = call %"struct.std::_Rb_tree_node_base"* @_ZNSt3mapINSt7__cxx1112basic_stringIcSt11char_traitsIcESaIcEEES5_St4lessIS5_ESaISt4pairIKS5_S5_EEE11lower_boundERS9_(%"class.std::map"* %13, %"class.std::__cxx11::basic_string"* dereferenceable(32) %14)
  %16 = getelementptr inbounds %"struct.std::_Rb_tree_iterator.73", %"struct.std::_Rb_tree_iterator.73"* %5, i32 0, i32 0
  store %"struct.std::_Rb_tree_node_base"* %15, %"struct.std::_Rb_tree_node_base"** %16, align 8
  %17 = call %"struct.std::_Rb_tree_node_base"* @_ZNSt3mapINSt7__cxx1112basic_stringIcSt11char_traitsIcESaIcEEES5_St4lessIS5_ESaISt4pairIKS5_S5_EEE3endEv(%"class.std::map"* %13) #12
  %18 = getelementptr inbounds %"struct.std::_Rb_tree_iterator.73", %"struct.std::_Rb_tree_iterator.73"* %6, i32 0, i32 0
  store %"struct.std::_Rb_tree_node_base"* %17, %"struct.std::_Rb_tree_node_base"** %18, align 8
  %19 = call zeroext i1 @_ZSteqRKSt17_Rb_tree_iteratorISt4pairIKNSt7__cxx1112basic_stringIcSt11char_traitsIcESaIcEEES6_EESB_(%"struct.std::_Rb_tree_iterator.73"* dereferenceable(8) %5, %"struct.std::_Rb_tree_iterator.73"* dereferenceable(8) %6) #12
  br i1 %19, label %25, label %20

20:                                               ; preds = %2
  call void @_ZNKSt3mapINSt7__cxx1112basic_stringIcSt11char_traitsIcESaIcEEES5_St4lessIS5_ESaISt4pairIKS5_S5_EEE8key_compEv(%"class.std::map"* %13)
  %21 = load %"class.std::__cxx11::basic_string"*, %"class.std::__cxx11::basic_string"** %4, align 8
  %22 = call dereferenceable(64) %"struct.std::pair"* @_ZNKSt17_Rb_tree_iteratorISt4pairIKNSt7__cxx1112basic_stringIcSt11char_traitsIcESaIcEEES6_EEdeEv(%"struct.std::_Rb_tree_iterator.73"* %5) #12
  %23 = getelementptr inbounds %"struct.std::pair", %"struct.std::pair"* %22, i32 0, i32 0
  %24 = call zeroext i1 @_ZNKSt4lessINSt7__cxx1112basic_stringIcSt11char_traitsIcESaIcEEEEclERKS5_S8_(%"struct.std::less"* %7, %"class.std::__cxx11::basic_string"* dereferenceable(32) %21, %"class.std::__cxx11::basic_string"* dereferenceable(32) %23)
  br label %25

25:                                               ; preds = %20, %2
  %26 = phi i1 [ true, %2 ], [ %24, %20 ]
  br i1 %26, label %27, label %36

27:                                               ; preds = %25
  %28 = getelementptr inbounds %"class.std::map", %"class.std::map"* %13, i32 0, i32 0
  call void @_ZNSt23_Rb_tree_const_iteratorISt4pairIKNSt7__cxx1112basic_stringIcSt11char_traitsIcESaIcEEES6_EEC2ERKSt17_Rb_tree_iteratorIS8_E(%"struct.std::_Rb_tree_const_iterator"* %10, %"struct.std::_Rb_tree_iterator.73"* dereferenceable(8) %5) #12
  %29 = load %"class.std::__cxx11::basic_string"*, %"class.std::__cxx11::basic_string"** %4, align 8
  call void @_ZNSt5tupleIJRKNSt7__cxx1112basic_stringIcSt11char_traitsIcESaIcEEEEEC2IvLb1EEES7_(%"class.std::tuple.74"* %11, %"class.std::__cxx11::basic_string"* dereferenceable(32) %29)
  %30 = getelementptr inbounds %"struct.std::_Rb_tree_const_iterator", %"struct.std::_Rb_tree_const_iterator"* %10, i32 0, i32 0
  %31 = load %"struct.std::_Rb_tree_node_base"*, %"struct.std::_Rb_tree_node_base"** %30, align 8
  %32 = call %"struct.std::_Rb_tree_node_base"* @_ZNSt8_Rb_treeINSt7__cxx1112basic_stringIcSt11char_traitsIcESaIcEEESt4pairIKS5_S5_ESt10_Select1stIS8_ESt4lessIS5_ESaIS8_EE22_M_emplace_hint_uniqueIJRKSt21piecewise_construct_tSt5tupleIJRS7_EESJ_IJEEEEESt17_Rb_tree_iteratorIS8_ESt23_Rb_tree_const_iteratorIS8_EDpOT_(%"class.std::_Rb_tree"* %28, %"struct.std::_Rb_tree_node_base"* %31, %"struct.std::piecewise_construct_t"* dereferenceable(1) @_ZStL19piecewise_construct, %"class.std::tuple.74"* dereferenceable(8) %11, %"class.std::tuple.61"* dereferenceable(1) %12)
  %33 = getelementptr inbounds %"struct.std::_Rb_tree_iterator.73", %"struct.std::_Rb_tree_iterator.73"* %9, i32 0, i32 0
  store %"struct.std::_Rb_tree_node_base"* %32, %"struct.std::_Rb_tree_node_base"** %33, align 8
  %34 = bitcast %"struct.std::_Rb_tree_iterator.73"* %5 to i8*
  %35 = bitcast %"struct.std::_Rb_tree_iterator.73"* %9 to i8*
  call void @llvm.memcpy.p0i8.p0i8.i64(i8* align 8 %34, i8* align 8 %35, i64 8, i1 false)
  br label %36

36:                                               ; preds = %27, %25
  %37 = call dereferenceable(64) %"struct.std::pair"* @_ZNKSt17_Rb_tree_iteratorISt4pairIKNSt7__cxx1112basic_stringIcSt11char_traitsIcESaIcEEES6_EEdeEv(%"struct.std::_Rb_tree_iterator.73"* %5) #12
  %38 = getelementptr inbounds %"struct.std::pair", %"struct.std::pair"* %37, i32 0, i32 1
  ret %"class.std::__cxx11::basic_string"* %38
}

; Function Attrs: noinline optnone uwtable
define linkonce_odr i32 @_ZN6apache6thrift8protocol9TProtocol10readMapEndEv(%"class.apache::thrift::protocol::TProtocol"* %0) #3 comdat align 2 {
  %2 = alloca %"class.apache::thrift::protocol::TProtocol"*, align 8
  store %"class.apache::thrift::protocol::TProtocol"* %0, %"class.apache::thrift::protocol::TProtocol"** %2, align 8
  %3 = load %"class.apache::thrift::protocol::TProtocol"*, %"class.apache::thrift::protocol::TProtocol"** %2, align 8
  %4 = bitcast %"class.apache::thrift::protocol::TProtocol"* %3 to i32 (%"class.apache::thrift::protocol::TProtocol"*)***
  %5 = load i32 (%"class.apache::thrift::protocol::TProtocol"*)**, i32 (%"class.apache::thrift::protocol::TProtocol"*)*** %4, align 8
  %6 = getelementptr inbounds i32 (%"class.apache::thrift::protocol::TProtocol"*)*, i32 (%"class.apache::thrift::protocol::TProtocol"*)** %5, i64 30
  %7 = load i32 (%"class.apache::thrift::protocol::TProtocol"*)*, i32 (%"class.apache::thrift::protocol::TProtocol"*)** %6, align 8
  %8 = call i32 %7(%"class.apache::thrift::protocol::TProtocol"* %3)
  ret i32 %8
}

; Function Attrs: noinline optnone uwtable
define linkonce_odr i32 @_ZN6apache6thrift8protocol9TProtocol12readFieldEndEv(%"class.apache::thrift::protocol::TProtocol"* %0) #3 comdat align 2 {
  %2 = alloca %"class.apache::thrift::protocol::TProtocol"*, align 8
  store %"class.apache::thrift::protocol::TProtocol"* %0, %"class.apache::thrift::protocol::TProtocol"** %2, align 8
  %3 = load %"class.apache::thrift::protocol::TProtocol"*, %"class.apache::thrift::protocol::TProtocol"** %2, align 8
  %4 = bitcast %"class.apache::thrift::protocol::TProtocol"* %3 to i32 (%"class.apache::thrift::protocol::TProtocol"*)***
  %5 = load i32 (%"class.apache::thrift::protocol::TProtocol"*)**, i32 (%"class.apache::thrift::protocol::TProtocol"*)*** %4, align 8
  %6 = getelementptr inbounds i32 (%"class.apache::thrift::protocol::TProtocol"*)*, i32 (%"class.apache::thrift::protocol::TProtocol"*)** %5, i64 28
  %7 = load i32 (%"class.apache::thrift::protocol::TProtocol"*)*, i32 (%"class.apache::thrift::protocol::TProtocol"*)** %6, align 8
  %8 = call i32 %7(%"class.apache::thrift::protocol::TProtocol"* %3)
  ret i32 %8
}

; Function Attrs: noinline optnone uwtable
define linkonce_odr i32 @_ZN6apache6thrift8protocol9TProtocol13readStructEndEv(%"class.apache::thrift::protocol::TProtocol"* %0) #3 comdat align 2 {
  %2 = alloca %"class.apache::thrift::protocol::TProtocol"*, align 8
  store %"class.apache::thrift::protocol::TProtocol"* %0, %"class.apache::thrift::protocol::TProtocol"** %2, align 8
  %3 = load %"class.apache::thrift::protocol::TProtocol"*, %"class.apache::thrift::protocol::TProtocol"** %2, align 8
  %4 = bitcast %"class.apache::thrift::protocol::TProtocol"* %3 to i32 (%"class.apache::thrift::protocol::TProtocol"*)***
  %5 = load i32 (%"class.apache::thrift::protocol::TProtocol"*)**, i32 (%"class.apache::thrift::protocol::TProtocol"*)*** %4, align 8
  %6 = getelementptr inbounds i32 (%"class.apache::thrift::protocol::TProtocol"*)*, i32 (%"class.apache::thrift::protocol::TProtocol"*)** %5, i64 26
  %7 = load i32 (%"class.apache::thrift::protocol::TProtocol"*)*, i32 (%"class.apache::thrift::protocol::TProtocol"*)** %6, align 8
  %8 = call i32 %7(%"class.apache::thrift::protocol::TProtocol"* %3)
  ret i32 %8
}

; Function Attrs: noinline nounwind optnone uwtable
define linkonce_odr void @_ZN6apache6thrift8protocol22TInputRecursionTrackerD2Ev(%"struct.apache::thrift::protocol::TInputRecursionTracker"* %0) unnamed_addr #0 comdat align 2 personality i8* bitcast (i32 (...)* @__gxx_personality_v0 to i8*) {
  %2 = alloca %"struct.apache::thrift::protocol::TInputRecursionTracker"*, align 8
  store %"struct.apache::thrift::protocol::TInputRecursionTracker"* %0, %"struct.apache::thrift::protocol::TInputRecursionTracker"** %2, align 8
  %3 = load %"struct.apache::thrift::protocol::TInputRecursionTracker"*, %"struct.apache::thrift::protocol::TInputRecursionTracker"** %2, align 8
  %4 = getelementptr inbounds %"struct.apache::thrift::protocol::TInputRecursionTracker", %"struct.apache::thrift::protocol::TInputRecursionTracker"* %3, i32 0, i32 0
  %5 = load %"class.apache::thrift::protocol::TProtocol"*, %"class.apache::thrift::protocol::TProtocol"** %4, align 8
  invoke void @_ZN6apache6thrift8protocol9TProtocol28decrementInputRecursionDepthEv(%"class.apache::thrift::protocol::TProtocol"* %5)
          to label %6 unwind label %7

6:                                                ; preds = %1
  ret void

7:                                                ; preds = %1
  %8 = landingpad { i8*, i32 }
          catch i8* null
  %9 = extractvalue { i8*, i32 } %8, 0
  call void @__clang_call_terminate(i8* %9) #14
  unreachable
}

; Function Attrs: noinline optnone uwtable
define i32 @_ZNK14social_network34ComposePostService_UploadText_args5writeEPN6apache6thrift8protocol9TProtocolE(%"class.social_network::ComposePostService_UploadText_args"* %0, %"class.apache::thrift::protocol::TProtocol"* %1) #3 align 2 personality i8* bitcast (i32 (...)* @__gxx_personality_v0 to i8*) {
  %3 = alloca %"class.social_network::ComposePostService_UploadText_args"*, align 8
  %4 = alloca %"class.apache::thrift::protocol::TProtocol"*, align 8
  %5 = alloca i32, align 4
  %6 = alloca %"struct.apache::thrift::protocol::TOutputRecursionTracker", align 8
  %7 = alloca i8*
  %8 = alloca i32
  %9 = alloca %"struct.std::_Rb_tree_const_iterator", align 8
  %10 = alloca %"struct.std::_Rb_tree_const_iterator", align 8
  %11 = alloca %"struct.std::_Rb_tree_const_iterator", align 8
  store %"class.social_network::ComposePostService_UploadText_args"* %0, %"class.social_network::ComposePostService_UploadText_args"** %3, align 8
  store %"class.apache::thrift::protocol::TProtocol"* %1, %"class.apache::thrift::protocol::TProtocol"** %4, align 8
  %12 = load %"class.social_network::ComposePostService_UploadText_args"*, %"class.social_network::ComposePostService_UploadText_args"** %3, align 8
  store i32 0, i32* %5, align 4
  %13 = load %"class.apache::thrift::protocol::TProtocol"*, %"class.apache::thrift::protocol::TProtocol"** %4, align 8
  call void @_ZN6apache6thrift8protocol23TOutputRecursionTrackerC2ERNS1_9TProtocolE(%"struct.apache::thrift::protocol::TOutputRecursionTracker"* %6, %"class.apache::thrift::protocol::TProtocol"* dereferenceable(40) %13)
  %14 = load %"class.apache::thrift::protocol::TProtocol"*, %"class.apache::thrift::protocol::TProtocol"** %4, align 8
  %15 = invoke i32 @_ZN6apache6thrift8protocol9TProtocol16writeStructBeginEPKc(%"class.apache::thrift::protocol::TProtocol"* %14, i8* getelementptr inbounds ([35 x i8], [35 x i8]* @.str, i64 0, i64 0))
          to label %16 unwind label %92

16:                                               ; preds = %2
  %17 = load i32, i32* %5, align 4
  %18 = add i32 %17, %15
  store i32 %18, i32* %5, align 4
  %19 = load %"class.apache::thrift::protocol::TProtocol"*, %"class.apache::thrift::protocol::TProtocol"** %4, align 8
  %20 = invoke i32 @_ZN6apache6thrift8protocol9TProtocol15writeFieldBeginEPKcNS1_5TTypeEs(%"class.apache::thrift::protocol::TProtocol"* %19, i8* getelementptr inbounds ([7 x i8], [7 x i8]* @.str.1, i64 0, i64 0), i32 10, i16 signext 1)
          to label %21 unwind label %92

21:                                               ; preds = %16
  %22 = load i32, i32* %5, align 4
  %23 = add i32 %22, %20
  store i32 %23, i32* %5, align 4
  %24 = load %"class.apache::thrift::protocol::TProtocol"*, %"class.apache::thrift::protocol::TProtocol"** %4, align 8
  %25 = getelementptr inbounds %"class.social_network::ComposePostService_UploadText_args", %"class.social_network::ComposePostService_UploadText_args"* %12, i32 0, i32 1
  %26 = load i64, i64* %25, align 8
  %27 = invoke i32 @_ZN6apache6thrift8protocol9TProtocol8writeI64El(%"class.apache::thrift::protocol::TProtocol"* %24, i64 %26)
          to label %28 unwind label %92

28:                                               ; preds = %21
  %29 = load i32, i32* %5, align 4
  %30 = add i32 %29, %27
  store i32 %30, i32* %5, align 4
  %31 = load %"class.apache::thrift::protocol::TProtocol"*, %"class.apache::thrift::protocol::TProtocol"** %4, align 8
  %32 = invoke i32 @_ZN6apache6thrift8protocol9TProtocol13writeFieldEndEv(%"class.apache::thrift::protocol::TProtocol"* %31)
          to label %33 unwind label %92

33:                                               ; preds = %28
  %34 = load i32, i32* %5, align 4
  %35 = add i32 %34, %32
  store i32 %35, i32* %5, align 4
  %36 = load %"class.apache::thrift::protocol::TProtocol"*, %"class.apache::thrift::protocol::TProtocol"** %4, align 8
  %37 = invoke i32 @_ZN6apache6thrift8protocol9TProtocol15writeFieldBeginEPKcNS1_5TTypeEs(%"class.apache::thrift::protocol::TProtocol"* %36, i8* getelementptr inbounds ([5 x i8], [5 x i8]* @.str.2, i64 0, i64 0), i32 11, i16 signext 2)
          to label %38 unwind label %92

38:                                               ; preds = %33
  %39 = load i32, i32* %5, align 4
  %40 = add i32 %39, %37
  store i32 %40, i32* %5, align 4
  %41 = load %"class.apache::thrift::protocol::TProtocol"*, %"class.apache::thrift::protocol::TProtocol"** %4, align 8
  %42 = getelementptr inbounds %"class.social_network::ComposePostService_UploadText_args", %"class.social_network::ComposePostService_UploadText_args"* %12, i32 0, i32 2
  %43 = invoke i32 @_ZN6apache6thrift8protocol9TProtocol11writeStringERKNSt7__cxx1112basic_stringIcSt11char_traitsIcESaIcEEE(%"class.apache::thrift::protocol::TProtocol"* %41, %"class.std::__cxx11::basic_string"* dereferenceable(32) %42)
          to label %44 unwind label %92

44:                                               ; preds = %38
  %45 = load i32, i32* %5, align 4
  %46 = add i32 %45, %43
  store i32 %46, i32* %5, align 4
  %47 = load %"class.apache::thrift::protocol::TProtocol"*, %"class.apache::thrift::protocol::TProtocol"** %4, align 8
  %48 = invoke i32 @_ZN6apache6thrift8protocol9TProtocol13writeFieldEndEv(%"class.apache::thrift::protocol::TProtocol"* %47)
          to label %49 unwind label %92

49:                                               ; preds = %44
  %50 = load i32, i32* %5, align 4
  %51 = add i32 %50, %48
  store i32 %51, i32* %5, align 4
  %52 = load %"class.apache::thrift::protocol::TProtocol"*, %"class.apache::thrift::protocol::TProtocol"** %4, align 8
  %53 = invoke i32 @_ZN6apache6thrift8protocol9TProtocol15writeFieldBeginEPKcNS1_5TTypeEs(%"class.apache::thrift::protocol::TProtocol"* %52, i8* getelementptr inbounds ([8 x i8], [8 x i8]* @.str.3, i64 0, i64 0), i32 13, i16 signext 3)
          to label %54 unwind label %92

54:                                               ; preds = %49
  %55 = load i32, i32* %5, align 4
  %56 = add i32 %55, %53
  store i32 %56, i32* %5, align 4
  %57 = load %"class.apache::thrift::protocol::TProtocol"*, %"class.apache::thrift::protocol::TProtocol"** %4, align 8
  %58 = getelementptr inbounds %"class.social_network::ComposePostService_UploadText_args", %"class.social_network::ComposePostService_UploadText_args"* %12, i32 0, i32 3
  %59 = call i64 @_ZNKSt3mapINSt7__cxx1112basic_stringIcSt11char_traitsIcESaIcEEES5_St4lessIS5_ESaISt4pairIKS5_S5_EEE4sizeEv(%"class.std::map"* %58) #12
  %60 = trunc i64 %59 to i32
  %61 = invoke i32 @_ZN6apache6thrift8protocol9TProtocol13writeMapBeginENS1_5TTypeES3_j(%"class.apache::thrift::protocol::TProtocol"* %57, i32 11, i32 11, i32 %60)
          to label %62 unwind label %92

62:                                               ; preds = %54
  %63 = load i32, i32* %5, align 4
  %64 = add i32 %63, %61
  store i32 %64, i32* %5, align 4
  call void @_ZNSt23_Rb_tree_const_iteratorISt4pairIKNSt7__cxx1112basic_stringIcSt11char_traitsIcESaIcEEES6_EEC2Ev(%"struct.std::_Rb_tree_const_iterator"* %9) #12
  %65 = getelementptr inbounds %"class.social_network::ComposePostService_UploadText_args", %"class.social_network::ComposePostService_UploadText_args"* %12, i32 0, i32 3
  %66 = call %"struct.std::_Rb_tree_node_base"* @_ZNKSt3mapINSt7__cxx1112basic_stringIcSt11char_traitsIcESaIcEEES5_St4lessIS5_ESaISt4pairIKS5_S5_EEE5beginEv(%"class.std::map"* %65) #12
  %67 = getelementptr inbounds %"struct.std::_Rb_tree_const_iterator", %"struct.std::_Rb_tree_const_iterator"* %10, i32 0, i32 0
  store %"struct.std::_Rb_tree_node_base"* %66, %"struct.std::_Rb_tree_node_base"** %67, align 8
  %68 = bitcast %"struct.std::_Rb_tree_const_iterator"* %9 to i8*
  %69 = bitcast %"struct.std::_Rb_tree_const_iterator"* %10 to i8*
  call void @llvm.memcpy.p0i8.p0i8.i64(i8* align 8 %68, i8* align 8 %69, i64 8, i1 false)
  br label %70

70:                                               ; preds = %90, %62
  %71 = getelementptr inbounds %"class.social_network::ComposePostService_UploadText_args", %"class.social_network::ComposePostService_UploadText_args"* %12, i32 0, i32 3
  %72 = call %"struct.std::_Rb_tree_node_base"* @_ZNKSt3mapINSt7__cxx1112basic_stringIcSt11char_traitsIcESaIcEEES5_St4lessIS5_ESaISt4pairIKS5_S5_EEE3endEv(%"class.std::map"* %71) #12
  %73 = getelementptr inbounds %"struct.std::_Rb_tree_const_iterator", %"struct.std::_Rb_tree_const_iterator"* %11, i32 0, i32 0
  store %"struct.std::_Rb_tree_node_base"* %72, %"struct.std::_Rb_tree_node_base"** %73, align 8
  %74 = call zeroext i1 @_ZStneRKSt23_Rb_tree_const_iteratorISt4pairIKNSt7__cxx1112basic_stringIcSt11char_traitsIcESaIcEEES6_EESB_(%"struct.std::_Rb_tree_const_iterator"* dereferenceable(8) %9, %"struct.std::_Rb_tree_const_iterator"* dereferenceable(8) %11) #12
  br i1 %74, label %75, label %96

75:                                               ; preds = %70
  %76 = load %"class.apache::thrift::protocol::TProtocol"*, %"class.apache::thrift::protocol::TProtocol"** %4, align 8
  %77 = call %"struct.std::pair"* @_ZNKSt23_Rb_tree_const_iteratorISt4pairIKNSt7__cxx1112basic_stringIcSt11char_traitsIcESaIcEEES6_EEptEv(%"struct.std::_Rb_tree_const_iterator"* %9) #12
  %78 = getelementptr inbounds %"struct.std::pair", %"struct.std::pair"* %77, i32 0, i32 0
  %79 = invoke i32 @_ZN6apache6thrift8protocol9TProtocol11writeStringERKNSt7__cxx1112basic_stringIcSt11char_traitsIcESaIcEEE(%"class.apache::thrift::protocol::TProtocol"* %76, %"class.std::__cxx11::basic_string"* dereferenceable(32) %78)
          to label %80 unwind label %92

80:                                               ; preds = %75
  %81 = load i32, i32* %5, align 4
  %82 = add i32 %81, %79
  store i32 %82, i32* %5, align 4
  %83 = load %"class.apache::thrift::protocol::TProtocol"*, %"class.apache::thrift::protocol::TProtocol"** %4, align 8
  %84 = call %"struct.std::pair"* @_ZNKSt23_Rb_tree_const_iteratorISt4pairIKNSt7__cxx1112basic_stringIcSt11char_traitsIcESaIcEEES6_EEptEv(%"struct.std::_Rb_tree_const_iterator"* %9) #12
  %85 = getelementptr inbounds %"struct.std::pair", %"struct.std::pair"* %84, i32 0, i32 1
  %86 = invoke i32 @_ZN6apache6thrift8protocol9TProtocol11writeStringERKNSt7__cxx1112basic_stringIcSt11char_traitsIcESaIcEEE(%"class.apache::thrift::protocol::TProtocol"* %83, %"class.std::__cxx11::basic_string"* dereferenceable(32) %85)
          to label %87 unwind label %92

87:                                               ; preds = %80
  %88 = load i32, i32* %5, align 4
  %89 = add i32 %88, %86
  store i32 %89, i32* %5, align 4
  br label %90

90:                                               ; preds = %87
  %91 = call dereferenceable(8) %"struct.std::_Rb_tree_const_iterator"* @_ZNSt23_Rb_tree_const_iteratorISt4pairIKNSt7__cxx1112basic_stringIcSt11char_traitsIcESaIcEEES6_EEppEv(%"struct.std::_Rb_tree_const_iterator"* %9) #12
  br label %70

92:                                               ; preds = %109, %104, %99, %96, %80, %75, %54, %49, %44, %38, %33, %28, %21, %16, %2
  %93 = landingpad { i8*, i32 }
          cleanup
  %94 = extractvalue { i8*, i32 } %93, 0
  store i8* %94, i8** %7, align 8
  %95 = extractvalue { i8*, i32 } %93, 1
  store i32 %95, i32* %8, align 4
  call void @_ZN6apache6thrift8protocol23TOutputRecursionTrackerD2Ev(%"struct.apache::thrift::protocol::TOutputRecursionTracker"* %6) #12
  br label %118

96:                                               ; preds = %70
  %97 = load %"class.apache::thrift::protocol::TProtocol"*, %"class.apache::thrift::protocol::TProtocol"** %4, align 8
  %98 = invoke i32 @_ZN6apache6thrift8protocol9TProtocol11writeMapEndEv(%"class.apache::thrift::protocol::TProtocol"* %97)
          to label %99 unwind label %92

99:                                               ; preds = %96
  %100 = load i32, i32* %5, align 4
  %101 = add i32 %100, %98
  store i32 %101, i32* %5, align 4
  %102 = load %"class.apache::thrift::protocol::TProtocol"*, %"class.apache::thrift::protocol::TProtocol"** %4, align 8
  %103 = invoke i32 @_ZN6apache6thrift8protocol9TProtocol13writeFieldEndEv(%"class.apache::thrift::protocol::TProtocol"* %102)
          to label %104 unwind label %92

104:                                              ; preds = %99
  %105 = load i32, i32* %5, align 4
  %106 = add i32 %105, %103
  store i32 %106, i32* %5, align 4
  %107 = load %"class.apache::thrift::protocol::TProtocol"*, %"class.apache::thrift::protocol::TProtocol"** %4, align 8
  %108 = invoke i32 @_ZN6apache6thrift8protocol9TProtocol14writeFieldStopEv(%"class.apache::thrift::protocol::TProtocol"* %107)
          to label %109 unwind label %92

109:                                              ; preds = %104
  %110 = load i32, i32* %5, align 4
  %111 = add i32 %110, %108
  store i32 %111, i32* %5, align 4
  %112 = load %"class.apache::thrift::protocol::TProtocol"*, %"class.apache::thrift::protocol::TProtocol"** %4, align 8
  %113 = invoke i32 @_ZN6apache6thrift8protocol9TProtocol14writeStructEndEv(%"class.apache::thrift::protocol::TProtocol"* %112)
          to label %114 unwind label %92

114:                                              ; preds = %109
  %115 = load i32, i32* %5, align 4
  %116 = add i32 %115, %113
  store i32 %116, i32* %5, align 4
  %117 = load i32, i32* %5, align 4
  call void @_ZN6apache6thrift8protocol23TOutputRecursionTrackerD2Ev(%"struct.apache::thrift::protocol::TOutputRecursionTracker"* %6) #12
  ret i32 %117

118:                                              ; preds = %92
  %119 = load i8*, i8** %7, align 8
  %120 = load i32, i32* %8, align 4
  %121 = insertvalue { i8*, i32 } undef, i8* %119, 0
  %122 = insertvalue { i8*, i32 } %121, i32 %120, 1
  resume { i8*, i32 } %122
}

; Function Attrs: noinline optnone uwtable
define linkonce_odr void @_ZN6apache6thrift8protocol23TOutputRecursionTrackerC2ERNS1_9TProtocolE(%"struct.apache::thrift::protocol::TOutputRecursionTracker"* %0, %"class.apache::thrift::protocol::TProtocol"* dereferenceable(40) %1) unnamed_addr #3 comdat align 2 {
  %3 = alloca %"struct.apache::thrift::protocol::TOutputRecursionTracker"*, align 8
  %4 = alloca %"class.apache::thrift::protocol::TProtocol"*, align 8
  store %"struct.apache::thrift::protocol::TOutputRecursionTracker"* %0, %"struct.apache::thrift::protocol::TOutputRecursionTracker"** %3, align 8
  store %"class.apache::thrift::protocol::TProtocol"* %1, %"class.apache::thrift::protocol::TProtocol"** %4, align 8
  %5 = load %"struct.apache::thrift::protocol::TOutputRecursionTracker"*, %"struct.apache::thrift::protocol::TOutputRecursionTracker"** %3, align 8
  %6 = getelementptr inbounds %"struct.apache::thrift::protocol::TOutputRecursionTracker", %"struct.apache::thrift::protocol::TOutputRecursionTracker"* %5, i32 0, i32 0
  %7 = load %"class.apache::thrift::protocol::TProtocol"*, %"class.apache::thrift::protocol::TProtocol"** %4, align 8
  store %"class.apache::thrift::protocol::TProtocol"* %7, %"class.apache::thrift::protocol::TProtocol"** %6, align 8
  %8 = getelementptr inbounds %"struct.apache::thrift::protocol::TOutputRecursionTracker", %"struct.apache::thrift::protocol::TOutputRecursionTracker"* %5, i32 0, i32 0
  %9 = load %"class.apache::thrift::protocol::TProtocol"*, %"class.apache::thrift::protocol::TProtocol"** %8, align 8
  call void @_ZN6apache6thrift8protocol9TProtocol29incrementOutputRecursionDepthEv(%"class.apache::thrift::protocol::TProtocol"* %9)
  ret void
}

; Function Attrs: noinline optnone uwtable
define linkonce_odr i32 @_ZN6apache6thrift8protocol9TProtocol16writeStructBeginEPKc(%"class.apache::thrift::protocol::TProtocol"* %0, i8* %1) #3 comdat align 2 {
  %3 = alloca %"class.apache::thrift::protocol::TProtocol"*, align 8
  %4 = alloca i8*, align 8
  store %"class.apache::thrift::protocol::TProtocol"* %0, %"class.apache::thrift::protocol::TProtocol"** %3, align 8
  store i8* %1, i8** %4, align 8
  %5 = load %"class.apache::thrift::protocol::TProtocol"*, %"class.apache::thrift::protocol::TProtocol"** %3, align 8
  %6 = load i8*, i8** %4, align 8
  %7 = bitcast %"class.apache::thrift::protocol::TProtocol"* %5 to i32 (%"class.apache::thrift::protocol::TProtocol"*, i8*)***
  %8 = load i32 (%"class.apache::thrift::protocol::TProtocol"*, i8*)**, i32 (%"class.apache::thrift::protocol::TProtocol"*, i8*)*** %7, align 8
  %9 = getelementptr inbounds i32 (%"class.apache::thrift::protocol::TProtocol"*, i8*)*, i32 (%"class.apache::thrift::protocol::TProtocol"*, i8*)** %8, i64 4
  %10 = load i32 (%"class.apache::thrift::protocol::TProtocol"*, i8*)*, i32 (%"class.apache::thrift::protocol::TProtocol"*, i8*)** %9, align 8
  %11 = call i32 %10(%"class.apache::thrift::protocol::TProtocol"* %5, i8* %6)
  ret i32 %11
}

; Function Attrs: noinline optnone uwtable
define linkonce_odr i32 @_ZN6apache6thrift8protocol9TProtocol15writeFieldBeginEPKcNS1_5TTypeEs(%"class.apache::thrift::protocol::TProtocol"* %0, i8* %1, i32 %2, i16 signext %3) #3 comdat align 2 {
  %5 = alloca %"class.apache::thrift::protocol::TProtocol"*, align 8
  %6 = alloca i8*, align 8
  %7 = alloca i32, align 4
  %8 = alloca i16, align 2
  store %"class.apache::thrift::protocol::TProtocol"* %0, %"class.apache::thrift::protocol::TProtocol"** %5, align 8
  store i8* %1, i8** %6, align 8
  store i32 %2, i32* %7, align 4
  store i16 %3, i16* %8, align 2
  %9 = load %"class.apache::thrift::protocol::TProtocol"*, %"class.apache::thrift::protocol::TProtocol"** %5, align 8
  %10 = load i8*, i8** %6, align 8
  %11 = load i32, i32* %7, align 4
  %12 = load i16, i16* %8, align 2
  %13 = bitcast %"class.apache::thrift::protocol::TProtocol"* %9 to i32 (%"class.apache::thrift::protocol::TProtocol"*, i8*, i32, i16)***
  %14 = load i32 (%"class.apache::thrift::protocol::TProtocol"*, i8*, i32, i16)**, i32 (%"class.apache::thrift::protocol::TProtocol"*, i8*, i32, i16)*** %13, align 8
  %15 = getelementptr inbounds i32 (%"class.apache::thrift::protocol::TProtocol"*, i8*, i32, i16)*, i32 (%"class.apache::thrift::protocol::TProtocol"*, i8*, i32, i16)** %14, i64 6
  %16 = load i32 (%"class.apache::thrift::protocol::TProtocol"*, i8*, i32, i16)*, i32 (%"class.apache::thrift::protocol::TProtocol"*, i8*, i32, i16)** %15, align 8
  %17 = call i32 %16(%"class.apache::thrift::protocol::TProtocol"* %9, i8* %10, i32 %11, i16 signext %12)
  ret i32 %17
}

; Function Attrs: noinline optnone uwtable
define linkonce_odr i32 @_ZN6apache6thrift8protocol9TProtocol8writeI64El(%"class.apache::thrift::protocol::TProtocol"* %0, i64 %1) #3 comdat align 2 {
  %3 = alloca %"class.apache::thrift::protocol::TProtocol"*, align 8
  %4 = alloca i64, align 8
  store %"class.apache::thrift::protocol::TProtocol"* %0, %"class.apache::thrift::protocol::TProtocol"** %3, align 8
  store i64 %1, i64* %4, align 8
  %5 = load %"class.apache::thrift::protocol::TProtocol"*, %"class.apache::thrift::protocol::TProtocol"** %3, align 8
  %6 = load i64, i64* %4, align 8
  %7 = bitcast %"class.apache::thrift::protocol::TProtocol"* %5 to i32 (%"class.apache::thrift::protocol::TProtocol"*, i64)***
  %8 = load i32 (%"class.apache::thrift::protocol::TProtocol"*, i64)**, i32 (%"class.apache::thrift::protocol::TProtocol"*, i64)*** %7, align 8
  %9 = getelementptr inbounds i32 (%"class.apache::thrift::protocol::TProtocol"*, i64)*, i32 (%"class.apache::thrift::protocol::TProtocol"*, i64)** %8, i64 19
  %10 = load i32 (%"class.apache::thrift::protocol::TProtocol"*, i64)*, i32 (%"class.apache::thrift::protocol::TProtocol"*, i64)** %9, align 8
  %11 = call i32 %10(%"class.apache::thrift::protocol::TProtocol"* %5, i64 %6)
  ret i32 %11
}

; Function Attrs: noinline optnone uwtable
define linkonce_odr i32 @_ZN6apache6thrift8protocol9TProtocol13writeFieldEndEv(%"class.apache::thrift::protocol::TProtocol"* %0) #3 comdat align 2 {
  %2 = alloca %"class.apache::thrift::protocol::TProtocol"*, align 8
  store %"class.apache::thrift::protocol::TProtocol"* %0, %"class.apache::thrift::protocol::TProtocol"** %2, align 8
  %3 = load %"class.apache::thrift::protocol::TProtocol"*, %"class.apache::thrift::protocol::TProtocol"** %2, align 8
  %4 = bitcast %"class.apache::thrift::protocol::TProtocol"* %3 to i32 (%"class.apache::thrift::protocol::TProtocol"*)***
  %5 = load i32 (%"class.apache::thrift::protocol::TProtocol"*)**, i32 (%"class.apache::thrift::protocol::TProtocol"*)*** %4, align 8
  %6 = getelementptr inbounds i32 (%"class.apache::thrift::protocol::TProtocol"*)*, i32 (%"class.apache::thrift::protocol::TProtocol"*)** %5, i64 7
  %7 = load i32 (%"class.apache::thrift::protocol::TProtocol"*)*, i32 (%"class.apache::thrift::protocol::TProtocol"*)** %6, align 8
  %8 = call i32 %7(%"class.apache::thrift::protocol::TProtocol"* %3)
  ret i32 %8
}

; Function Attrs: noinline optnone uwtable
define linkonce_odr i32 @_ZN6apache6thrift8protocol9TProtocol11writeStringERKNSt7__cxx1112basic_stringIcSt11char_traitsIcESaIcEEE(%"class.apache::thrift::protocol::TProtocol"* %0, %"class.std::__cxx11::basic_string"* dereferenceable(32) %1) #3 comdat align 2 {
  %3 = alloca %"class.apache::thrift::protocol::TProtocol"*, align 8
  %4 = alloca %"class.std::__cxx11::basic_string"*, align 8
  store %"class.apache::thrift::protocol::TProtocol"* %0, %"class.apache::thrift::protocol::TProtocol"** %3, align 8
  store %"class.std::__cxx11::basic_string"* %1, %"class.std::__cxx11::basic_string"** %4, align 8
  %5 = load %"class.apache::thrift::protocol::TProtocol"*, %"class.apache::thrift::protocol::TProtocol"** %3, align 8
  %6 = load %"class.std::__cxx11::basic_string"*, %"class.std::__cxx11::basic_string"** %4, align 8
  %7 = bitcast %"class.apache::thrift::protocol::TProtocol"* %5 to i32 (%"class.apache::thrift::protocol::TProtocol"*, %"class.std::__cxx11::basic_string"*)***
  %8 = load i32 (%"class.apache::thrift::protocol::TProtocol"*, %"class.std::__cxx11::basic_string"*)**, i32 (%"class.apache::thrift::protocol::TProtocol"*, %"class.std::__cxx11::basic_string"*)*** %7, align 8
  %9 = getelementptr inbounds i32 (%"class.apache::thrift::protocol::TProtocol"*, %"class.std::__cxx11::basic_string"*)*, i32 (%"class.apache::thrift::protocol::TProtocol"*, %"class.std::__cxx11::basic_string"*)** %8, i64 21
  %10 = load i32 (%"class.apache::thrift::protocol::TProtocol"*, %"class.std::__cxx11::basic_string"*)*, i32 (%"class.apache::thrift::protocol::TProtocol"*, %"class.std::__cxx11::basic_string"*)** %9, align 8
  %11 = call i32 %10(%"class.apache::thrift::protocol::TProtocol"* %5, %"class.std::__cxx11::basic_string"* dereferenceable(32) %6)
  ret i32 %11
}

; Function Attrs: noinline optnone uwtable
define linkonce_odr i32 @_ZN6apache6thrift8protocol9TProtocol13writeMapBeginENS1_5TTypeES3_j(%"class.apache::thrift::protocol::TProtocol"* %0, i32 %1, i32 %2, i32 %3) #3 comdat align 2 {
  %5 = alloca %"class.apache::thrift::protocol::TProtocol"*, align 8
  %6 = alloca i32, align 4
  %7 = alloca i32, align 4
  %8 = alloca i32, align 4
  store %"class.apache::thrift::protocol::TProtocol"* %0, %"class.apache::thrift::protocol::TProtocol"** %5, align 8
  store i32 %1, i32* %6, align 4
  store i32 %2, i32* %7, align 4
  store i32 %3, i32* %8, align 4
  %9 = load %"class.apache::thrift::protocol::TProtocol"*, %"class.apache::thrift::protocol::TProtocol"** %5, align 8
  %10 = load i32, i32* %6, align 4
  %11 = load i32, i32* %7, align 4
  %12 = load i32, i32* %8, align 4
  %13 = bitcast %"class.apache::thrift::protocol::TProtocol"* %9 to i32 (%"class.apache::thrift::protocol::TProtocol"*, i32, i32, i32)***
  %14 = load i32 (%"class.apache::thrift::protocol::TProtocol"*, i32, i32, i32)**, i32 (%"class.apache::thrift::protocol::TProtocol"*, i32, i32, i32)*** %13, align 8
  %15 = getelementptr inbounds i32 (%"class.apache::thrift::protocol::TProtocol"*, i32, i32, i32)*, i32 (%"class.apache::thrift::protocol::TProtocol"*, i32, i32, i32)** %14, i64 9
  %16 = load i32 (%"class.apache::thrift::protocol::TProtocol"*, i32, i32, i32)*, i32 (%"class.apache::thrift::protocol::TProtocol"*, i32, i32, i32)** %15, align 8
  %17 = call i32 %16(%"class.apache::thrift::protocol::TProtocol"* %9, i32 %10, i32 %11, i32 %12)
  ret i32 %17
}

; Function Attrs: noinline nounwind optnone uwtable
define linkonce_odr i64 @_ZNKSt3mapINSt7__cxx1112basic_stringIcSt11char_traitsIcESaIcEEES5_St4lessIS5_ESaISt4pairIKS5_S5_EEE4sizeEv(%"class.std::map"* %0) #0 comdat align 2 {
  %2 = alloca %"class.std::map"*, align 8
  store %"class.std::map"* %0, %"class.std::map"** %2, align 8
  %3 = load %"class.std::map"*, %"class.std::map"** %2, align 8
  %4 = getelementptr inbounds %"class.std::map", %"class.std::map"* %3, i32 0, i32 0
  %5 = call i64 @_ZNKSt8_Rb_treeINSt7__cxx1112basic_stringIcSt11char_traitsIcESaIcEEESt4pairIKS5_S5_ESt10_Select1stIS8_ESt4lessIS5_ESaIS8_EE4sizeEv(%"class.std::_Rb_tree"* %4) #12
  ret i64 %5
}

; Function Attrs: noinline nounwind optnone uwtable
define linkonce_odr void @_ZNSt23_Rb_tree_const_iteratorISt4pairIKNSt7__cxx1112basic_stringIcSt11char_traitsIcESaIcEEES6_EEC2Ev(%"struct.std::_Rb_tree_const_iterator"* %0) unnamed_addr #0 comdat align 2 {
  %2 = alloca %"struct.std::_Rb_tree_const_iterator"*, align 8
  store %"struct.std::_Rb_tree_const_iterator"* %0, %"struct.std::_Rb_tree_const_iterator"** %2, align 8
  %3 = load %"struct.std::_Rb_tree_const_iterator"*, %"struct.std::_Rb_tree_const_iterator"** %2, align 8
  %4 = getelementptr inbounds %"struct.std::_Rb_tree_const_iterator", %"struct.std::_Rb_tree_const_iterator"* %3, i32 0, i32 0
  store %"struct.std::_Rb_tree_node_base"* null, %"struct.std::_Rb_tree_node_base"** %4, align 8
  ret void
}

; Function Attrs: noinline nounwind optnone uwtable
define linkonce_odr %"struct.std::_Rb_tree_node_base"* @_ZNKSt3mapINSt7__cxx1112basic_stringIcSt11char_traitsIcESaIcEEES5_St4lessIS5_ESaISt4pairIKS5_S5_EEE5beginEv(%"class.std::map"* %0) #0 comdat align 2 {
  %2 = alloca %"struct.std::_Rb_tree_const_iterator", align 8
  %3 = alloca %"class.std::map"*, align 8
  store %"class.std::map"* %0, %"class.std::map"** %3, align 8
  %4 = load %"class.std::map"*, %"class.std::map"** %3, align 8
  %5 = getelementptr inbounds %"class.std::map", %"class.std::map"* %4, i32 0, i32 0
  %6 = call %"struct.std::_Rb_tree_node_base"* @_ZNKSt8_Rb_treeINSt7__cxx1112basic_stringIcSt11char_traitsIcESaIcEEESt4pairIKS5_S5_ESt10_Select1stIS8_ESt4lessIS5_ESaIS8_EE5beginEv(%"class.std::_Rb_tree"* %5) #12
  %7 = getelementptr inbounds %"struct.std::_Rb_tree_const_iterator", %"struct.std::_Rb_tree_const_iterator"* %2, i32 0, i32 0
  store %"struct.std::_Rb_tree_node_base"* %6, %"struct.std::_Rb_tree_node_base"** %7, align 8
  %8 = getelementptr inbounds %"struct.std::_Rb_tree_const_iterator", %"struct.std::_Rb_tree_const_iterator"* %2, i32 0, i32 0
  %9 = load %"struct.std::_Rb_tree_node_base"*, %"struct.std::_Rb_tree_node_base"** %8, align 8
  ret %"struct.std::_Rb_tree_node_base"* %9
}

; Function Attrs: argmemonly nounwind willreturn
declare void @llvm.memcpy.p0i8.p0i8.i64(i8* noalias nocapture writeonly, i8* noalias nocapture readonly, i64, i1 immarg) #4

; Function Attrs: noinline nounwind optnone uwtable
define linkonce_odr zeroext i1 @_ZStneRKSt23_Rb_tree_const_iteratorISt4pairIKNSt7__cxx1112basic_stringIcSt11char_traitsIcESaIcEEES6_EESB_(%"struct.std::_Rb_tree_const_iterator"* dereferenceable(8) %0, %"struct.std::_Rb_tree_const_iterator"* dereferenceable(8) %1) #0 comdat {
  %3 = alloca %"struct.std::_Rb_tree_const_iterator"*, align 8
  %4 = alloca %"struct.std::_Rb_tree_const_iterator"*, align 8
  store %"struct.std::_Rb_tree_const_iterator"* %0, %"struct.std::_Rb_tree_const_iterator"** %3, align 8
  store %"struct.std::_Rb_tree_const_iterator"* %1, %"struct.std::_Rb_tree_const_iterator"** %4, align 8
  %5 = load %"struct.std::_Rb_tree_const_iterator"*, %"struct.std::_Rb_tree_const_iterator"** %3, align 8
  %6 = getelementptr inbounds %"struct.std::_Rb_tree_const_iterator", %"struct.std::_Rb_tree_const_iterator"* %5, i32 0, i32 0
  %7 = load %"struct.std::_Rb_tree_node_base"*, %"struct.std::_Rb_tree_node_base"** %6, align 8
  %8 = load %"struct.std::_Rb_tree_const_iterator"*, %"struct.std::_Rb_tree_const_iterator"** %4, align 8
  %9 = getelementptr inbounds %"struct.std::_Rb_tree_const_iterator", %"struct.std::_Rb_tree_const_iterator"* %8, i32 0, i32 0
  %10 = load %"struct.std::_Rb_tree_node_base"*, %"struct.std::_Rb_tree_node_base"** %9, align 8
  %11 = icmp ne %"struct.std::_Rb_tree_node_base"* %7, %10
  ret i1 %11
}

; Function Attrs: noinline nounwind optnone uwtable
define linkonce_odr %"struct.std::_Rb_tree_node_base"* @_ZNKSt3mapINSt7__cxx1112basic_stringIcSt11char_traitsIcESaIcEEES5_St4lessIS5_ESaISt4pairIKS5_S5_EEE3endEv(%"class.std::map"* %0) #0 comdat align 2 {
  %2 = alloca %"struct.std::_Rb_tree_const_iterator", align 8
  %3 = alloca %"class.std::map"*, align 8
  store %"class.std::map"* %0, %"class.std::map"** %3, align 8
  %4 = load %"class.std::map"*, %"class.std::map"** %3, align 8
  %5 = getelementptr inbounds %"class.std::map", %"class.std::map"* %4, i32 0, i32 0
  %6 = call %"struct.std::_Rb_tree_node_base"* @_ZNKSt8_Rb_treeINSt7__cxx1112basic_stringIcSt11char_traitsIcESaIcEEESt4pairIKS5_S5_ESt10_Select1stIS8_ESt4lessIS5_ESaIS8_EE3endEv(%"class.std::_Rb_tree"* %5) #12
  %7 = getelementptr inbounds %"struct.std::_Rb_tree_const_iterator", %"struct.std::_Rb_tree_const_iterator"* %2, i32 0, i32 0
  store %"struct.std::_Rb_tree_node_base"* %6, %"struct.std::_Rb_tree_node_base"** %7, align 8
  %8 = getelementptr inbounds %"struct.std::_Rb_tree_const_iterator", %"struct.std::_Rb_tree_const_iterator"* %2, i32 0, i32 0
  %9 = load %"struct.std::_Rb_tree_node_base"*, %"struct.std::_Rb_tree_node_base"** %8, align 8
  ret %"struct.std::_Rb_tree_node_base"* %9
}

; Function Attrs: noinline nounwind optnone uwtable
define linkonce_odr %"struct.std::pair"* @_ZNKSt23_Rb_tree_const_iteratorISt4pairIKNSt7__cxx1112basic_stringIcSt11char_traitsIcESaIcEEES6_EEptEv(%"struct.std::_Rb_tree_const_iterator"* %0) #0 comdat align 2 personality i8* bitcast (i32 (...)* @__gxx_personality_v0 to i8*) {
  %2 = alloca %"struct.std::_Rb_tree_const_iterator"*, align 8
  store %"struct.std::_Rb_tree_const_iterator"* %0, %"struct.std::_Rb_tree_const_iterator"** %2, align 8
  %3 = load %"struct.std::_Rb_tree_const_iterator"*, %"struct.std::_Rb_tree_const_iterator"** %2, align 8
  %4 = getelementptr inbounds %"struct.std::_Rb_tree_const_iterator", %"struct.std::_Rb_tree_const_iterator"* %3, i32 0, i32 0
  %5 = load %"struct.std::_Rb_tree_node_base"*, %"struct.std::_Rb_tree_node_base"** %4, align 8
  %6 = bitcast %"struct.std::_Rb_tree_node_base"* %5 to %"struct.std::_Rb_tree_node"*
  %7 = invoke %"struct.std::pair"* @_ZNKSt13_Rb_tree_nodeISt4pairIKNSt7__cxx1112basic_stringIcSt11char_traitsIcESaIcEEES6_EE9_M_valptrEv(%"struct.std::_Rb_tree_node"* %6)
          to label %8 unwind label %9

8:                                                ; preds = %1
  ret %"struct.std::pair"* %7

9:                                                ; preds = %1
  %10 = landingpad { i8*, i32 }
          catch i8* null
  %11 = extractvalue { i8*, i32 } %10, 0
  call void @__clang_call_terminate(i8* %11) #14
  unreachable
}

; Function Attrs: noinline nounwind optnone uwtable
define linkonce_odr dereferenceable(8) %"struct.std::_Rb_tree_const_iterator"* @_ZNSt23_Rb_tree_const_iteratorISt4pairIKNSt7__cxx1112basic_stringIcSt11char_traitsIcESaIcEEES6_EEppEv(%"struct.std::_Rb_tree_const_iterator"* %0) #0 comdat align 2 {
  %2 = alloca %"struct.std::_Rb_tree_const_iterator"*, align 8
  store %"struct.std::_Rb_tree_const_iterator"* %0, %"struct.std::_Rb_tree_const_iterator"** %2, align 8
  %3 = load %"struct.std::_Rb_tree_const_iterator"*, %"struct.std::_Rb_tree_const_iterator"** %2, align 8
  %4 = getelementptr inbounds %"struct.std::_Rb_tree_const_iterator", %"struct.std::_Rb_tree_const_iterator"* %3, i32 0, i32 0
  %5 = load %"struct.std::_Rb_tree_node_base"*, %"struct.std::_Rb_tree_node_base"** %4, align 8
  %6 = call %"struct.std::_Rb_tree_node_base"* @_ZSt18_Rb_tree_incrementPKSt18_Rb_tree_node_base(%"struct.std::_Rb_tree_node_base"* %5) #15
  %7 = getelementptr inbounds %"struct.std::_Rb_tree_const_iterator", %"struct.std::_Rb_tree_const_iterator"* %3, i32 0, i32 0
  store %"struct.std::_Rb_tree_node_base"* %6, %"struct.std::_Rb_tree_node_base"** %7, align 8
  ret %"struct.std::_Rb_tree_const_iterator"* %3
}

; Function Attrs: noinline optnone uwtable
define linkonce_odr i32 @_ZN6apache6thrift8protocol9TProtocol11writeMapEndEv(%"class.apache::thrift::protocol::TProtocol"* %0) #3 comdat align 2 {
  %2 = alloca %"class.apache::thrift::protocol::TProtocol"*, align 8
  store %"class.apache::thrift::protocol::TProtocol"* %0, %"class.apache::thrift::protocol::TProtocol"** %2, align 8
  %3 = load %"class.apache::thrift::protocol::TProtocol"*, %"class.apache::thrift::protocol::TProtocol"** %2, align 8
  %4 = bitcast %"class.apache::thrift::protocol::TProtocol"* %3 to i32 (%"class.apache::thrift::protocol::TProtocol"*)***
  %5 = load i32 (%"class.apache::thrift::protocol::TProtocol"*)**, i32 (%"class.apache::thrift::protocol::TProtocol"*)*** %4, align 8
  %6 = getelementptr inbounds i32 (%"class.apache::thrift::protocol::TProtocol"*)*, i32 (%"class.apache::thrift::protocol::TProtocol"*)** %5, i64 10
  %7 = load i32 (%"class.apache::thrift::protocol::TProtocol"*)*, i32 (%"class.apache::thrift::protocol::TProtocol"*)** %6, align 8
  %8 = call i32 %7(%"class.apache::thrift::protocol::TProtocol"* %3)
  ret i32 %8
}

; Function Attrs: noinline optnone uwtable
define linkonce_odr i32 @_ZN6apache6thrift8protocol9TProtocol14writeFieldStopEv(%"class.apache::thrift::protocol::TProtocol"* %0) #3 comdat align 2 {
  %2 = alloca %"class.apache::thrift::protocol::TProtocol"*, align 8
  store %"class.apache::thrift::protocol::TProtocol"* %0, %"class.apache::thrift::protocol::TProtocol"** %2, align 8
  %3 = load %"class.apache::thrift::protocol::TProtocol"*, %"class.apache::thrift::protocol::TProtocol"** %2, align 8
  %4 = bitcast %"class.apache::thrift::protocol::TProtocol"* %3 to i32 (%"class.apache::thrift::protocol::TProtocol"*)***
  %5 = load i32 (%"class.apache::thrift::protocol::TProtocol"*)**, i32 (%"class.apache::thrift::protocol::TProtocol"*)*** %4, align 8
  %6 = getelementptr inbounds i32 (%"class.apache::thrift::protocol::TProtocol"*)*, i32 (%"class.apache::thrift::protocol::TProtocol"*)** %5, i64 8
  %7 = load i32 (%"class.apache::thrift::protocol::TProtocol"*)*, i32 (%"class.apache::thrift::protocol::TProtocol"*)** %6, align 8
  %8 = call i32 %7(%"class.apache::thrift::protocol::TProtocol"* %3)
  ret i32 %8
}

; Function Attrs: noinline optnone uwtable
define linkonce_odr i32 @_ZN6apache6thrift8protocol9TProtocol14writeStructEndEv(%"class.apache::thrift::protocol::TProtocol"* %0) #3 comdat align 2 {
  %2 = alloca %"class.apache::thrift::protocol::TProtocol"*, align 8
  store %"class.apache::thrift::protocol::TProtocol"* %0, %"class.apache::thrift::protocol::TProtocol"** %2, align 8
  %3 = load %"class.apache::thrift::protocol::TProtocol"*, %"class.apache::thrift::protocol::TProtocol"** %2, align 8
  %4 = bitcast %"class.apache::thrift::protocol::TProtocol"* %3 to i32 (%"class.apache::thrift::protocol::TProtocol"*)***
  %5 = load i32 (%"class.apache::thrift::protocol::TProtocol"*)**, i32 (%"class.apache::thrift::protocol::TProtocol"*)*** %4, align 8
  %6 = getelementptr inbounds i32 (%"class.apache::thrift::protocol::TProtocol"*)*, i32 (%"class.apache::thrift::protocol::TProtocol"*)** %5, i64 5
  %7 = load i32 (%"class.apache::thrift::protocol::TProtocol"*)*, i32 (%"class.apache::thrift::protocol::TProtocol"*)** %6, align 8
  %8 = call i32 %7(%"class.apache::thrift::protocol::TProtocol"* %3)
  ret i32 %8
}

; Function Attrs: noinline nounwind optnone uwtable
define linkonce_odr void @_ZN6apache6thrift8protocol23TOutputRecursionTrackerD2Ev(%"struct.apache::thrift::protocol::TOutputRecursionTracker"* %0) unnamed_addr #0 comdat align 2 personality i8* bitcast (i32 (...)* @__gxx_personality_v0 to i8*) {
  %2 = alloca %"struct.apache::thrift::protocol::TOutputRecursionTracker"*, align 8
  store %"struct.apache::thrift::protocol::TOutputRecursionTracker"* %0, %"struct.apache::thrift::protocol::TOutputRecursionTracker"** %2, align 8
  %3 = load %"struct.apache::thrift::protocol::TOutputRecursionTracker"*, %"struct.apache::thrift::protocol::TOutputRecursionTracker"** %2, align 8
  %4 = getelementptr inbounds %"struct.apache::thrift::protocol::TOutputRecursionTracker", %"struct.apache::thrift::protocol::TOutputRecursionTracker"* %3, i32 0, i32 0
  %5 = load %"class.apache::thrift::protocol::TProtocol"*, %"class.apache::thrift::protocol::TProtocol"** %4, align 8
  invoke void @_ZN6apache6thrift8protocol9TProtocol29decrementOutputRecursionDepthEv(%"class.apache::thrift::protocol::TProtocol"* %5)
          to label %6 unwind label %7

6:                                                ; preds = %1
  ret void

7:                                                ; preds = %1
  %8 = landingpad { i8*, i32 }
          catch i8* null
  %9 = extractvalue { i8*, i32 } %8, 0
  call void @__clang_call_terminate(i8* %9) #14
  unreachable
}

; Function Attrs: noinline nounwind optnone uwtable
define void @_ZN14social_network35ComposePostService_UploadText_pargsD2Ev(%"class.social_network::ComposePostService_UploadText_pargs"* %0) unnamed_addr #0 align 2 {
  %2 = alloca %"class.social_network::ComposePostService_UploadText_pargs"*, align 8
  store %"class.social_network::ComposePostService_UploadText_pargs"* %0, %"class.social_network::ComposePostService_UploadText_pargs"** %2, align 8
  %3 = load %"class.social_network::ComposePostService_UploadText_pargs"*, %"class.social_network::ComposePostService_UploadText_pargs"** %2, align 8
  ret void
}

; Function Attrs: noinline nounwind optnone uwtable
define void @_ZN14social_network35ComposePostService_UploadText_pargsD0Ev(%"class.social_network::ComposePostService_UploadText_pargs"* %0) unnamed_addr #0 align 2 {
  %2 = alloca %"class.social_network::ComposePostService_UploadText_pargs"*, align 8
  store %"class.social_network::ComposePostService_UploadText_pargs"* %0, %"class.social_network::ComposePostService_UploadText_pargs"** %2, align 8
  %3 = load %"class.social_network::ComposePostService_UploadText_pargs"*, %"class.social_network::ComposePostService_UploadText_pargs"** %2, align 8
  call void @_ZN14social_network35ComposePostService_UploadText_pargsD1Ev(%"class.social_network::ComposePostService_UploadText_pargs"* %3) #12
  %4 = bitcast %"class.social_network::ComposePostService_UploadText_pargs"* %3 to i8*
  call void @_ZdlPv(i8* %4) #13
  ret void
}

; Function Attrs: noinline optnone uwtable
define i32 @_ZNK14social_network35ComposePostService_UploadText_pargs5writeEPN6apache6thrift8protocol9TProtocolE(%"class.social_network::ComposePostService_UploadText_pargs"* %0, %"class.apache::thrift::protocol::TProtocol"* %1) #3 align 2 personality i8* bitcast (i32 (...)* @__gxx_personality_v0 to i8*) {
  %3 = alloca %"class.social_network::ComposePostService_UploadText_pargs"*, align 8
  %4 = alloca %"class.apache::thrift::protocol::TProtocol"*, align 8
  %5 = alloca i32, align 4
  %6 = alloca %"struct.apache::thrift::protocol::TOutputRecursionTracker", align 8
  %7 = alloca i8*
  %8 = alloca i32
  %9 = alloca %"struct.std::_Rb_tree_const_iterator", align 8
  %10 = alloca %"struct.std::_Rb_tree_const_iterator", align 8
  %11 = alloca %"struct.std::_Rb_tree_const_iterator", align 8
  store %"class.social_network::ComposePostService_UploadText_pargs"* %0, %"class.social_network::ComposePostService_UploadText_pargs"** %3, align 8
  store %"class.apache::thrift::protocol::TProtocol"* %1, %"class.apache::thrift::protocol::TProtocol"** %4, align 8
  %12 = load %"class.social_network::ComposePostService_UploadText_pargs"*, %"class.social_network::ComposePostService_UploadText_pargs"** %3, align 8
  store i32 0, i32* %5, align 4
  %13 = load %"class.apache::thrift::protocol::TProtocol"*, %"class.apache::thrift::protocol::TProtocol"** %4, align 8
  call void @_ZN6apache6thrift8protocol23TOutputRecursionTrackerC2ERNS1_9TProtocolE(%"struct.apache::thrift::protocol::TOutputRecursionTracker"* %6, %"class.apache::thrift::protocol::TProtocol"* dereferenceable(40) %13)
  %14 = load %"class.apache::thrift::protocol::TProtocol"*, %"class.apache::thrift::protocol::TProtocol"** %4, align 8
  %15 = invoke i32 @_ZN6apache6thrift8protocol9TProtocol16writeStructBeginEPKc(%"class.apache::thrift::protocol::TProtocol"* %14, i8* getelementptr inbounds ([36 x i8], [36 x i8]* @.str.4, i64 0, i64 0))
          to label %16 unwind label %97

16:                                               ; preds = %2
  %17 = load i32, i32* %5, align 4
  %18 = add i32 %17, %15
  store i32 %18, i32* %5, align 4
  %19 = load %"class.apache::thrift::protocol::TProtocol"*, %"class.apache::thrift::protocol::TProtocol"** %4, align 8
  %20 = invoke i32 @_ZN6apache6thrift8protocol9TProtocol15writeFieldBeginEPKcNS1_5TTypeEs(%"class.apache::thrift::protocol::TProtocol"* %19, i8* getelementptr inbounds ([7 x i8], [7 x i8]* @.str.1, i64 0, i64 0), i32 10, i16 signext 1)
          to label %21 unwind label %97

21:                                               ; preds = %16
  %22 = load i32, i32* %5, align 4
  %23 = add i32 %22, %20
  store i32 %23, i32* %5, align 4
  %24 = load %"class.apache::thrift::protocol::TProtocol"*, %"class.apache::thrift::protocol::TProtocol"** %4, align 8
  %25 = getelementptr inbounds %"class.social_network::ComposePostService_UploadText_pargs", %"class.social_network::ComposePostService_UploadText_pargs"* %12, i32 0, i32 1
  %26 = load i64*, i64** %25, align 8
  %27 = load i64, i64* %26, align 8
  %28 = invoke i32 @_ZN6apache6thrift8protocol9TProtocol8writeI64El(%"class.apache::thrift::protocol::TProtocol"* %24, i64 %27)
          to label %29 unwind label %97

29:                                               ; preds = %21
  %30 = load i32, i32* %5, align 4
  %31 = add i32 %30, %28
  store i32 %31, i32* %5, align 4
  %32 = load %"class.apache::thrift::protocol::TProtocol"*, %"class.apache::thrift::protocol::TProtocol"** %4, align 8
  %33 = invoke i32 @_ZN6apache6thrift8protocol9TProtocol13writeFieldEndEv(%"class.apache::thrift::protocol::TProtocol"* %32)
          to label %34 unwind label %97

34:                                               ; preds = %29
  %35 = load i32, i32* %5, align 4
  %36 = add i32 %35, %33
  store i32 %36, i32* %5, align 4
  %37 = load %"class.apache::thrift::protocol::TProtocol"*, %"class.apache::thrift::protocol::TProtocol"** %4, align 8
  %38 = invoke i32 @_ZN6apache6thrift8protocol9TProtocol15writeFieldBeginEPKcNS1_5TTypeEs(%"class.apache::thrift::protocol::TProtocol"* %37, i8* getelementptr inbounds ([5 x i8], [5 x i8]* @.str.2, i64 0, i64 0), i32 11, i16 signext 2)
          to label %39 unwind label %97

39:                                               ; preds = %34
  %40 = load i32, i32* %5, align 4
  %41 = add i32 %40, %38
  store i32 %41, i32* %5, align 4
  %42 = load %"class.apache::thrift::protocol::TProtocol"*, %"class.apache::thrift::protocol::TProtocol"** %4, align 8
  %43 = getelementptr inbounds %"class.social_network::ComposePostService_UploadText_pargs", %"class.social_network::ComposePostService_UploadText_pargs"* %12, i32 0, i32 2
  %44 = load %"class.std::__cxx11::basic_string"*, %"class.std::__cxx11::basic_string"** %43, align 8
  %45 = invoke i32 @_ZN6apache6thrift8protocol9TProtocol11writeStringERKNSt7__cxx1112basic_stringIcSt11char_traitsIcESaIcEEE(%"class.apache::thrift::protocol::TProtocol"* %42, %"class.std::__cxx11::basic_string"* dereferenceable(32) %44)
          to label %46 unwind label %97

46:                                               ; preds = %39
  %47 = load i32, i32* %5, align 4
  %48 = add i32 %47, %45
  store i32 %48, i32* %5, align 4
  %49 = load %"class.apache::thrift::protocol::TProtocol"*, %"class.apache::thrift::protocol::TProtocol"** %4, align 8
  %50 = invoke i32 @_ZN6apache6thrift8protocol9TProtocol13writeFieldEndEv(%"class.apache::thrift::protocol::TProtocol"* %49)
          to label %51 unwind label %97

51:                                               ; preds = %46
  %52 = load i32, i32* %5, align 4
  %53 = add i32 %52, %50
  store i32 %53, i32* %5, align 4
  %54 = load %"class.apache::thrift::protocol::TProtocol"*, %"class.apache::thrift::protocol::TProtocol"** %4, align 8
  %55 = invoke i32 @_ZN6apache6thrift8protocol9TProtocol15writeFieldBeginEPKcNS1_5TTypeEs(%"class.apache::thrift::protocol::TProtocol"* %54, i8* getelementptr inbounds ([8 x i8], [8 x i8]* @.str.3, i64 0, i64 0), i32 13, i16 signext 3)
          to label %56 unwind label %97

56:                                               ; preds = %51
  %57 = load i32, i32* %5, align 4
  %58 = add i32 %57, %55
  store i32 %58, i32* %5, align 4
  %59 = load %"class.apache::thrift::protocol::TProtocol"*, %"class.apache::thrift::protocol::TProtocol"** %4, align 8
  %60 = getelementptr inbounds %"class.social_network::ComposePostService_UploadText_pargs", %"class.social_network::ComposePostService_UploadText_pargs"* %12, i32 0, i32 3
  %61 = load %"class.std::map"*, %"class.std::map"** %60, align 8
  %62 = call i64 @_ZNKSt3mapINSt7__cxx1112basic_stringIcSt11char_traitsIcESaIcEEES5_St4lessIS5_ESaISt4pairIKS5_S5_EEE4sizeEv(%"class.std::map"* %61) #12
  %63 = trunc i64 %62 to i32
  %64 = invoke i32 @_ZN6apache6thrift8protocol9TProtocol13writeMapBeginENS1_5TTypeES3_j(%"class.apache::thrift::protocol::TProtocol"* %59, i32 11, i32 11, i32 %63)
          to label %65 unwind label %97

65:                                               ; preds = %56
  %66 = load i32, i32* %5, align 4
  %67 = add i32 %66, %64
  store i32 %67, i32* %5, align 4
  call void @_ZNSt23_Rb_tree_const_iteratorISt4pairIKNSt7__cxx1112basic_stringIcSt11char_traitsIcESaIcEEES6_EEC2Ev(%"struct.std::_Rb_tree_const_iterator"* %9) #12
  %68 = getelementptr inbounds %"class.social_network::ComposePostService_UploadText_pargs", %"class.social_network::ComposePostService_UploadText_pargs"* %12, i32 0, i32 3
  %69 = load %"class.std::map"*, %"class.std::map"** %68, align 8
  %70 = call %"struct.std::_Rb_tree_node_base"* @_ZNKSt3mapINSt7__cxx1112basic_stringIcSt11char_traitsIcESaIcEEES5_St4lessIS5_ESaISt4pairIKS5_S5_EEE5beginEv(%"class.std::map"* %69) #12
  %71 = getelementptr inbounds %"struct.std::_Rb_tree_const_iterator", %"struct.std::_Rb_tree_const_iterator"* %10, i32 0, i32 0
  store %"struct.std::_Rb_tree_node_base"* %70, %"struct.std::_Rb_tree_node_base"** %71, align 8
  %72 = bitcast %"struct.std::_Rb_tree_const_iterator"* %9 to i8*
  %73 = bitcast %"struct.std::_Rb_tree_const_iterator"* %10 to i8*
  call void @llvm.memcpy.p0i8.p0i8.i64(i8* align 8 %72, i8* align 8 %73, i64 8, i1 false)
  br label %74

74:                                               ; preds = %95, %65
  %75 = getelementptr inbounds %"class.social_network::ComposePostService_UploadText_pargs", %"class.social_network::ComposePostService_UploadText_pargs"* %12, i32 0, i32 3
  %76 = load %"class.std::map"*, %"class.std::map"** %75, align 8
  %77 = call %"struct.std::_Rb_tree_node_base"* @_ZNKSt3mapINSt7__cxx1112basic_stringIcSt11char_traitsIcESaIcEEES5_St4lessIS5_ESaISt4pairIKS5_S5_EEE3endEv(%"class.std::map"* %76) #12
  %78 = getelementptr inbounds %"struct.std::_Rb_tree_const_iterator", %"struct.std::_Rb_tree_const_iterator"* %11, i32 0, i32 0
  store %"struct.std::_Rb_tree_node_base"* %77, %"struct.std::_Rb_tree_node_base"** %78, align 8
  %79 = call zeroext i1 @_ZStneRKSt23_Rb_tree_const_iteratorISt4pairIKNSt7__cxx1112basic_stringIcSt11char_traitsIcESaIcEEES6_EESB_(%"struct.std::_Rb_tree_const_iterator"* dereferenceable(8) %9, %"struct.std::_Rb_tree_const_iterator"* dereferenceable(8) %11) #12
  br i1 %79, label %80, label %101

80:                                               ; preds = %74
  %81 = load %"class.apache::thrift::protocol::TProtocol"*, %"class.apache::thrift::protocol::TProtocol"** %4, align 8
  %82 = call %"struct.std::pair"* @_ZNKSt23_Rb_tree_const_iteratorISt4pairIKNSt7__cxx1112basic_stringIcSt11char_traitsIcESaIcEEES6_EEptEv(%"struct.std::_Rb_tree_const_iterator"* %9) #12
  %83 = getelementptr inbounds %"struct.std::pair", %"struct.std::pair"* %82, i32 0, i32 0
  %84 = invoke i32 @_ZN6apache6thrift8protocol9TProtocol11writeStringERKNSt7__cxx1112basic_stringIcSt11char_traitsIcESaIcEEE(%"class.apache::thrift::protocol::TProtocol"* %81, %"class.std::__cxx11::basic_string"* dereferenceable(32) %83)
          to label %85 unwind label %97

85:                                               ; preds = %80
  %86 = load i32, i32* %5, align 4
  %87 = add i32 %86, %84
  store i32 %87, i32* %5, align 4
  %88 = load %"class.apache::thrift::protocol::TProtocol"*, %"class.apache::thrift::protocol::TProtocol"** %4, align 8
  %89 = call %"struct.std::pair"* @_ZNKSt23_Rb_tree_const_iteratorISt4pairIKNSt7__cxx1112basic_stringIcSt11char_traitsIcESaIcEEES6_EEptEv(%"struct.std::_Rb_tree_const_iterator"* %9) #12
  %90 = getelementptr inbounds %"struct.std::pair", %"struct.std::pair"* %89, i32 0, i32 1
  %91 = invoke i32 @_ZN6apache6thrift8protocol9TProtocol11writeStringERKNSt7__cxx1112basic_stringIcSt11char_traitsIcESaIcEEE(%"class.apache::thrift::protocol::TProtocol"* %88, %"class.std::__cxx11::basic_string"* dereferenceable(32) %90)
          to label %92 unwind label %97

92:                                               ; preds = %85
  %93 = load i32, i32* %5, align 4
  %94 = add i32 %93, %91
  store i32 %94, i32* %5, align 4
  br label %95

95:                                               ; preds = %92
  %96 = call dereferenceable(8) %"struct.std::_Rb_tree_const_iterator"* @_ZNSt23_Rb_tree_const_iteratorISt4pairIKNSt7__cxx1112basic_stringIcSt11char_traitsIcESaIcEEES6_EEppEv(%"struct.std::_Rb_tree_const_iterator"* %9) #12
  br label %74

97:                                               ; preds = %114, %109, %104, %101, %85, %80, %56, %51, %46, %39, %34, %29, %21, %16, %2
  %98 = landingpad { i8*, i32 }
          cleanup
  %99 = extractvalue { i8*, i32 } %98, 0
  store i8* %99, i8** %7, align 8
  %100 = extractvalue { i8*, i32 } %98, 1
  store i32 %100, i32* %8, align 4
  call void @_ZN6apache6thrift8protocol23TOutputRecursionTrackerD2Ev(%"struct.apache::thrift::protocol::TOutputRecursionTracker"* %6) #12
  br label %123

101:                                              ; preds = %74
  %102 = load %"class.apache::thrift::protocol::TProtocol"*, %"class.apache::thrift::protocol::TProtocol"** %4, align 8
  %103 = invoke i32 @_ZN6apache6thrift8protocol9TProtocol11writeMapEndEv(%"class.apache::thrift::protocol::TProtocol"* %102)
          to label %104 unwind label %97

104:                                              ; preds = %101
  %105 = load i32, i32* %5, align 4
  %106 = add i32 %105, %103
  store i32 %106, i32* %5, align 4
  %107 = load %"class.apache::thrift::protocol::TProtocol"*, %"class.apache::thrift::protocol::TProtocol"** %4, align 8
  %108 = invoke i32 @_ZN6apache6thrift8protocol9TProtocol13writeFieldEndEv(%"class.apache::thrift::protocol::TProtocol"* %107)
          to label %109 unwind label %97

109:                                              ; preds = %104
  %110 = load i32, i32* %5, align 4
  %111 = add i32 %110, %108
  store i32 %111, i32* %5, align 4
  %112 = load %"class.apache::thrift::protocol::TProtocol"*, %"class.apache::thrift::protocol::TProtocol"** %4, align 8
  %113 = invoke i32 @_ZN6apache6thrift8protocol9TProtocol14writeFieldStopEv(%"class.apache::thrift::protocol::TProtocol"* %112)
          to label %114 unwind label %97

114:                                              ; preds = %109
  %115 = load i32, i32* %5, align 4
  %116 = add i32 %115, %113
  store i32 %116, i32* %5, align 4
  %117 = load %"class.apache::thrift::protocol::TProtocol"*, %"class.apache::thrift::protocol::TProtocol"** %4, align 8
  %118 = invoke i32 @_ZN6apache6thrift8protocol9TProtocol14writeStructEndEv(%"class.apache::thrift::protocol::TProtocol"* %117)
          to label %119 unwind label %97

119:                                              ; preds = %114
  %120 = load i32, i32* %5, align 4
  %121 = add i32 %120, %118
  store i32 %121, i32* %5, align 4
  %122 = load i32, i32* %5, align 4
  call void @_ZN6apache6thrift8protocol23TOutputRecursionTrackerD2Ev(%"struct.apache::thrift::protocol::TOutputRecursionTracker"* %6) #12
  ret i32 %122

123:                                              ; preds = %97
  %124 = load i8*, i8** %7, align 8
  %125 = load i32, i32* %8, align 4
  %126 = insertvalue { i8*, i32 } undef, i8* %124, 0
  %127 = insertvalue { i8*, i32 } %126, i32 %125, 1
  resume { i8*, i32 } %127
}

; Function Attrs: noinline nounwind optnone uwtable
define void @_ZN14social_network36ComposePostService_UploadText_resultD2Ev(%"class.social_network::ComposePostService_UploadText_result"* %0) unnamed_addr #0 align 2 {
  %2 = alloca %"class.social_network::ComposePostService_UploadText_result"*, align 8
  store %"class.social_network::ComposePostService_UploadText_result"* %0, %"class.social_network::ComposePostService_UploadText_result"** %2, align 8
  %3 = load %"class.social_network::ComposePostService_UploadText_result"*, %"class.social_network::ComposePostService_UploadText_result"** %2, align 8
  %4 = bitcast %"class.social_network::ComposePostService_UploadText_result"* %3 to i32 (...)***
  store i32 (...)** bitcast (i8** getelementptr inbounds ({ [4 x i8*] }, { [4 x i8*] }* @_ZTVN14social_network36ComposePostService_UploadText_resultE, i32 0, inrange i32 0, i32 2) to i32 (...)**), i32 (...)*** %4, align 8
  %5 = getelementptr inbounds %"class.social_network::ComposePostService_UploadText_result", %"class.social_network::ComposePostService_UploadText_result"* %3, i32 0, i32 1
  call void @_ZN14social_network16ServiceExceptionD1Ev(%"class.social_network::ServiceException"* %5) #12
  ret void
}

; Function Attrs: nounwind
declare void @_ZN14social_network16ServiceExceptionD1Ev(%"class.social_network::ServiceException"*) unnamed_addr #1

; Function Attrs: noinline nounwind optnone uwtable
define void @_ZN14social_network36ComposePostService_UploadText_resultD0Ev(%"class.social_network::ComposePostService_UploadText_result"* %0) unnamed_addr #0 align 2 {
  %2 = alloca %"class.social_network::ComposePostService_UploadText_result"*, align 8
  store %"class.social_network::ComposePostService_UploadText_result"* %0, %"class.social_network::ComposePostService_UploadText_result"** %2, align 8
  %3 = load %"class.social_network::ComposePostService_UploadText_result"*, %"class.social_network::ComposePostService_UploadText_result"** %2, align 8
  call void @_ZN14social_network36ComposePostService_UploadText_resultD1Ev(%"class.social_network::ComposePostService_UploadText_result"* %3) #12
  %4 = bitcast %"class.social_network::ComposePostService_UploadText_result"* %3 to i8*
  call void @_ZdlPv(i8* %4) #13
  ret void
}

; Function Attrs: noinline optnone uwtable
define i32 @_ZN14social_network36ComposePostService_UploadText_result4readEPN6apache6thrift8protocol9TProtocolE(%"class.social_network::ComposePostService_UploadText_result"* %0, %"class.apache::thrift::protocol::TProtocol"* %1) #3 align 2 personality i8* bitcast (i32 (...)* @__gxx_personality_v0 to i8*) {
  %3 = alloca %"class.social_network::ComposePostService_UploadText_result"*, align 8
  %4 = alloca %"class.apache::thrift::protocol::TProtocol"*, align 8
  %5 = alloca %"struct.apache::thrift::protocol::TInputRecursionTracker", align 8
  %6 = alloca i32, align 4
  %7 = alloca %"class.std::__cxx11::basic_string", align 8
  %8 = alloca i32, align 4
  %9 = alloca i16, align 2
  %10 = alloca i8*
  %11 = alloca i32
  store %"class.social_network::ComposePostService_UploadText_result"* %0, %"class.social_network::ComposePostService_UploadText_result"** %3, align 8
  store %"class.apache::thrift::protocol::TProtocol"* %1, %"class.apache::thrift::protocol::TProtocol"** %4, align 8
  %12 = load %"class.social_network::ComposePostService_UploadText_result"*, %"class.social_network::ComposePostService_UploadText_result"** %3, align 8
  %13 = load %"class.apache::thrift::protocol::TProtocol"*, %"class.apache::thrift::protocol::TProtocol"** %4, align 8
  call void @_ZN6apache6thrift8protocol22TInputRecursionTrackerC2ERNS1_9TProtocolE(%"struct.apache::thrift::protocol::TInputRecursionTracker"* %5, %"class.apache::thrift::protocol::TProtocol"* dereferenceable(40) %13)
  store i32 0, i32* %6, align 4
  call void @_ZNSt7__cxx1112basic_stringIcSt11char_traitsIcESaIcEEC1Ev(%"class.std::__cxx11::basic_string"* %7) #12
  %14 = load %"class.apache::thrift::protocol::TProtocol"*, %"class.apache::thrift::protocol::TProtocol"** %4, align 8
  %15 = invoke i32 @_ZN6apache6thrift8protocol9TProtocol15readStructBeginERNSt7__cxx1112basic_stringIcSt11char_traitsIcESaIcEEE(%"class.apache::thrift::protocol::TProtocol"* %14, %"class.std::__cxx11::basic_string"* dereferenceable(32) %7)
          to label %16 unwind label %29

16:                                               ; preds = %2
  %17 = load i32, i32* %6, align 4
  %18 = add i32 %17, %15
  store i32 %18, i32* %6, align 4
  br label %19

19:                                               ; preds = %69, %16
  br label %20

20:                                               ; preds = %19
  %21 = load %"class.apache::thrift::protocol::TProtocol"*, %"class.apache::thrift::protocol::TProtocol"** %4, align 8
  %22 = invoke i32 @_ZN6apache6thrift8protocol9TProtocol14readFieldBeginERNSt7__cxx1112basic_stringIcSt11char_traitsIcESaIcEEERNS1_5TTypeERs(%"class.apache::thrift::protocol::TProtocol"* %21, %"class.std::__cxx11::basic_string"* dereferenceable(32) %7, i32* dereferenceable(4) %8, i16* dereferenceable(2) %9)
          to label %23 unwind label %29

23:                                               ; preds = %20
  %24 = load i32, i32* %6, align 4
  %25 = add i32 %24, %22
  store i32 %25, i32* %6, align 4
  %26 = load i32, i32* %8, align 4
  %27 = icmp eq i32 %26, 0
  br i1 %27, label %28, label %33

28:                                               ; preds = %23
  br label %72

29:                                               ; preds = %72, %66, %59, %51, %39, %20, %2
  %30 = landingpad { i8*, i32 }
          cleanup
  %31 = extractvalue { i8*, i32 } %30, 0
  store i8* %31, i8** %10, align 8
  %32 = extractvalue { i8*, i32 } %30, 1
  store i32 %32, i32* %11, align 4
  call void @_ZNSt7__cxx1112basic_stringIcSt11char_traitsIcESaIcEED1Ev(%"class.std::__cxx11::basic_string"* %7) #12
  call void @_ZN6apache6thrift8protocol22TInputRecursionTrackerD2Ev(%"struct.apache::thrift::protocol::TInputRecursionTracker"* %5) #12
  br label %79

33:                                               ; preds = %23
  %34 = load i16, i16* %9, align 2
  %35 = sext i16 %34 to i32
  switch i32 %35, label %59 [
    i32 1, label %36
  ]

36:                                               ; preds = %33
  %37 = load i32, i32* %8, align 4
  %38 = icmp eq i32 %37, 12
  br i1 %38, label %39, label %51

39:                                               ; preds = %36
  %40 = getelementptr inbounds %"class.social_network::ComposePostService_UploadText_result", %"class.social_network::ComposePostService_UploadText_result"* %12, i32 0, i32 1
  %41 = load %"class.apache::thrift::protocol::TProtocol"*, %"class.apache::thrift::protocol::TProtocol"** %4, align 8
  %42 = invoke i32 @_ZN14social_network16ServiceException4readEPN6apache6thrift8protocol9TProtocolE(%"class.social_network::ServiceException"* %40, %"class.apache::thrift::protocol::TProtocol"* %41)
          to label %43 unwind label %29

43:                                               ; preds = %39
  %44 = load i32, i32* %6, align 4
  %45 = add i32 %44, %42
  store i32 %45, i32* %6, align 4
  %46 = getelementptr inbounds %"class.social_network::ComposePostService_UploadText_result", %"class.social_network::ComposePostService_UploadText_result"* %12, i32 0, i32 2
  %47 = bitcast %"struct.social_network::_ComposePostService_UploadText_result__isset"* %46 to i8*
  %48 = load i8, i8* %47, align 8
  %49 = and i8 %48, -2
  %50 = or i8 %49, 1
  store i8 %50, i8* %47, align 8
  br label %58

51:                                               ; preds = %36
  %52 = load %"class.apache::thrift::protocol::TProtocol"*, %"class.apache::thrift::protocol::TProtocol"** %4, align 8
  %53 = load i32, i32* %8, align 4
  %54 = invoke i32 @_ZN6apache6thrift8protocol9TProtocol4skipENS1_5TTypeE(%"class.apache::thrift::protocol::TProtocol"* %52, i32 %53)
          to label %55 unwind label %29

55:                                               ; preds = %51
  %56 = load i32, i32* %6, align 4
  %57 = add i32 %56, %54
  store i32 %57, i32* %6, align 4
  br label %58

58:                                               ; preds = %55, %43
  br label %66

59:                                               ; preds = %33
  %60 = load %"class.apache::thrift::protocol::TProtocol"*, %"class.apache::thrift::protocol::TProtocol"** %4, align 8
  %61 = load i32, i32* %8, align 4
  %62 = invoke i32 @_ZN6apache6thrift8protocol9TProtocol4skipENS1_5TTypeE(%"class.apache::thrift::protocol::TProtocol"* %60, i32 %61)
          to label %63 unwind label %29

63:                                               ; preds = %59
  %64 = load i32, i32* %6, align 4
  %65 = add i32 %64, %62
  store i32 %65, i32* %6, align 4
  br label %66

66:                                               ; preds = %63, %58
  %67 = load %"class.apache::thrift::protocol::TProtocol"*, %"class.apache::thrift::protocol::TProtocol"** %4, align 8
  %68 = invoke i32 @_ZN6apache6thrift8protocol9TProtocol12readFieldEndEv(%"class.apache::thrift::protocol::TProtocol"* %67)
          to label %69 unwind label %29

69:                                               ; preds = %66
  %70 = load i32, i32* %6, align 4
  %71 = add i32 %70, %68
  store i32 %71, i32* %6, align 4
  br label %19

72:                                               ; preds = %28
  %73 = load %"class.apache::thrift::protocol::TProtocol"*, %"class.apache::thrift::protocol::TProtocol"** %4, align 8
  %74 = invoke i32 @_ZN6apache6thrift8protocol9TProtocol13readStructEndEv(%"class.apache::thrift::protocol::TProtocol"* %73)
          to label %75 unwind label %29

75:                                               ; preds = %72
  %76 = load i32, i32* %6, align 4
  %77 = add i32 %76, %74
  store i32 %77, i32* %6, align 4
  %78 = load i32, i32* %6, align 4
  call void @_ZNSt7__cxx1112basic_stringIcSt11char_traitsIcESaIcEED1Ev(%"class.std::__cxx11::basic_string"* %7) #12
  call void @_ZN6apache6thrift8protocol22TInputRecursionTrackerD2Ev(%"struct.apache::thrift::protocol::TInputRecursionTracker"* %5) #12
  ret i32 %78

79:                                               ; preds = %29
  %80 = load i8*, i8** %10, align 8
  %81 = load i32, i32* %11, align 4
  %82 = insertvalue { i8*, i32 } undef, i8* %80, 0
  %83 = insertvalue { i8*, i32 } %82, i32 %81, 1
  resume { i8*, i32 } %83
}

declare i32 @_ZN14social_network16ServiceException4readEPN6apache6thrift8protocol9TProtocolE(%"class.social_network::ServiceException"*, %"class.apache::thrift::protocol::TProtocol"*) #5

; Function Attrs: noinline optnone uwtable
define i32 @_ZNK14social_network36ComposePostService_UploadText_result5writeEPN6apache6thrift8protocol9TProtocolE(%"class.social_network::ComposePostService_UploadText_result"* %0, %"class.apache::thrift::protocol::TProtocol"* %1) #3 align 2 {
  %3 = alloca %"class.social_network::ComposePostService_UploadText_result"*, align 8
  %4 = alloca %"class.apache::thrift::protocol::TProtocol"*, align 8
  %5 = alloca i32, align 4
  store %"class.social_network::ComposePostService_UploadText_result"* %0, %"class.social_network::ComposePostService_UploadText_result"** %3, align 8
  store %"class.apache::thrift::protocol::TProtocol"* %1, %"class.apache::thrift::protocol::TProtocol"** %4, align 8
  %6 = load %"class.social_network::ComposePostService_UploadText_result"*, %"class.social_network::ComposePostService_UploadText_result"** %3, align 8
  store i32 0, i32* %5, align 4
  %7 = load %"class.apache::thrift::protocol::TProtocol"*, %"class.apache::thrift::protocol::TProtocol"** %4, align 8
  %8 = call i32 @_ZN6apache6thrift8protocol9TProtocol16writeStructBeginEPKc(%"class.apache::thrift::protocol::TProtocol"* %7, i8* getelementptr inbounds ([37 x i8], [37 x i8]* @.str.5, i64 0, i64 0))
  %9 = load i32, i32* %5, align 4
  %10 = add i32 %9, %8
  store i32 %10, i32* %5, align 4
  %11 = getelementptr inbounds %"class.social_network::ComposePostService_UploadText_result", %"class.social_network::ComposePostService_UploadText_result"* %6, i32 0, i32 2
  %12 = bitcast %"struct.social_network::_ComposePostService_UploadText_result__isset"* %11 to i8*
  %13 = load i8, i8* %12, align 8
  %14 = and i8 %13, 1
  %15 = trunc i8 %14 to i1
  br i1 %15, label %16, label %30

16:                                               ; preds = %2
  %17 = load %"class.apache::thrift::protocol::TProtocol"*, %"class.apache::thrift::protocol::TProtocol"** %4, align 8
  %18 = call i32 @_ZN6apache6thrift8protocol9TProtocol15writeFieldBeginEPKcNS1_5TTypeEs(%"class.apache::thrift::protocol::TProtocol"* %17, i8* getelementptr inbounds ([3 x i8], [3 x i8]* @.str.6, i64 0, i64 0), i32 12, i16 signext 1)
  %19 = load i32, i32* %5, align 4
  %20 = add i32 %19, %18
  store i32 %20, i32* %5, align 4
  %21 = getelementptr inbounds %"class.social_network::ComposePostService_UploadText_result", %"class.social_network::ComposePostService_UploadText_result"* %6, i32 0, i32 1
  %22 = load %"class.apache::thrift::protocol::TProtocol"*, %"class.apache::thrift::protocol::TProtocol"** %4, align 8
  %23 = call i32 @_ZNK14social_network16ServiceException5writeEPN6apache6thrift8protocol9TProtocolE(%"class.social_network::ServiceException"* %21, %"class.apache::thrift::protocol::TProtocol"* %22)
  %24 = load i32, i32* %5, align 4
  %25 = add i32 %24, %23
  store i32 %25, i32* %5, align 4
  %26 = load %"class.apache::thrift::protocol::TProtocol"*, %"class.apache::thrift::protocol::TProtocol"** %4, align 8
  %27 = call i32 @_ZN6apache6thrift8protocol9TProtocol13writeFieldEndEv(%"class.apache::thrift::protocol::TProtocol"* %26)
  %28 = load i32, i32* %5, align 4
  %29 = add i32 %28, %27
  store i32 %29, i32* %5, align 4
  br label %30

30:                                               ; preds = %16, %2
  %31 = load %"class.apache::thrift::protocol::TProtocol"*, %"class.apache::thrift::protocol::TProtocol"** %4, align 8
  %32 = call i32 @_ZN6apache6thrift8protocol9TProtocol14writeFieldStopEv(%"class.apache::thrift::protocol::TProtocol"* %31)
  %33 = load i32, i32* %5, align 4
  %34 = add i32 %33, %32
  store i32 %34, i32* %5, align 4
  %35 = load %"class.apache::thrift::protocol::TProtocol"*, %"class.apache::thrift::protocol::TProtocol"** %4, align 8
  %36 = call i32 @_ZN6apache6thrift8protocol9TProtocol14writeStructEndEv(%"class.apache::thrift::protocol::TProtocol"* %35)
  %37 = load i32, i32* %5, align 4
  %38 = add i32 %37, %36
  store i32 %38, i32* %5, align 4
  %39 = load i32, i32* %5, align 4
  ret i32 %39
}

declare i32 @_ZNK14social_network16ServiceException5writeEPN6apache6thrift8protocol9TProtocolE(%"class.social_network::ServiceException"*, %"class.apache::thrift::protocol::TProtocol"*) #5

; Function Attrs: noinline nounwind optnone uwtable
define void @_ZN14social_network37ComposePostService_UploadText_presultD2Ev(%"class.social_network::ComposePostService_UploadText_presult"* %0) unnamed_addr #0 align 2 {
  %2 = alloca %"class.social_network::ComposePostService_UploadText_presult"*, align 8
  store %"class.social_network::ComposePostService_UploadText_presult"* %0, %"class.social_network::ComposePostService_UploadText_presult"** %2, align 8
  %3 = load %"class.social_network::ComposePostService_UploadText_presult"*, %"class.social_network::ComposePostService_UploadText_presult"** %2, align 8
  %4 = bitcast %"class.social_network::ComposePostService_UploadText_presult"* %3 to i32 (...)***
  store i32 (...)** bitcast (i8** getelementptr inbounds ({ [4 x i8*] }, { [4 x i8*] }* @_ZTVN14social_network37ComposePostService_UploadText_presultE, i32 0, inrange i32 0, i32 2) to i32 (...)**), i32 (...)*** %4, align 8
  %5 = getelementptr inbounds %"class.social_network::ComposePostService_UploadText_presult", %"class.social_network::ComposePostService_UploadText_presult"* %3, i32 0, i32 1
  call void @_ZN14social_network16ServiceExceptionD1Ev(%"class.social_network::ServiceException"* %5) #12
  ret void
}

; Function Attrs: noinline nounwind optnone uwtable
define void @_ZN14social_network37ComposePostService_UploadText_presultD0Ev(%"class.social_network::ComposePostService_UploadText_presult"* %0) unnamed_addr #0 align 2 {
  %2 = alloca %"class.social_network::ComposePostService_UploadText_presult"*, align 8
  store %"class.social_network::ComposePostService_UploadText_presult"* %0, %"class.social_network::ComposePostService_UploadText_presult"** %2, align 8
  %3 = load %"class.social_network::ComposePostService_UploadText_presult"*, %"class.social_network::ComposePostService_UploadText_presult"** %2, align 8
  call void @_ZN14social_network37ComposePostService_UploadText_presultD1Ev(%"class.social_network::ComposePostService_UploadText_presult"* %3) #12
  %4 = bitcast %"class.social_network::ComposePostService_UploadText_presult"* %3 to i8*
  call void @_ZdlPv(i8* %4) #13
  ret void
}

; Function Attrs: noinline optnone uwtable
define i32 @_ZN14social_network37ComposePostService_UploadText_presult4readEPN6apache6thrift8protocol9TProtocolE(%"class.social_network::ComposePostService_UploadText_presult"* %0, %"class.apache::thrift::protocol::TProtocol"* %1) #3 align 2 personality i8* bitcast (i32 (...)* @__gxx_personality_v0 to i8*) {
  %3 = alloca %"class.social_network::ComposePostService_UploadText_presult"*, align 8
  %4 = alloca %"class.apache::thrift::protocol::TProtocol"*, align 8
  %5 = alloca %"struct.apache::thrift::protocol::TInputRecursionTracker", align 8
  %6 = alloca i32, align 4
  %7 = alloca %"class.std::__cxx11::basic_string", align 8
  %8 = alloca i32, align 4
  %9 = alloca i16, align 2
  %10 = alloca i8*
  %11 = alloca i32
  store %"class.social_network::ComposePostService_UploadText_presult"* %0, %"class.social_network::ComposePostService_UploadText_presult"** %3, align 8
  store %"class.apache::thrift::protocol::TProtocol"* %1, %"class.apache::thrift::protocol::TProtocol"** %4, align 8
  %12 = load %"class.social_network::ComposePostService_UploadText_presult"*, %"class.social_network::ComposePostService_UploadText_presult"** %3, align 8
  %13 = load %"class.apache::thrift::protocol::TProtocol"*, %"class.apache::thrift::protocol::TProtocol"** %4, align 8
  call void @_ZN6apache6thrift8protocol22TInputRecursionTrackerC2ERNS1_9TProtocolE(%"struct.apache::thrift::protocol::TInputRecursionTracker"* %5, %"class.apache::thrift::protocol::TProtocol"* dereferenceable(40) %13)
  store i32 0, i32* %6, align 4
  call void @_ZNSt7__cxx1112basic_stringIcSt11char_traitsIcESaIcEEC1Ev(%"class.std::__cxx11::basic_string"* %7) #12
  %14 = load %"class.apache::thrift::protocol::TProtocol"*, %"class.apache::thrift::protocol::TProtocol"** %4, align 8
  %15 = invoke i32 @_ZN6apache6thrift8protocol9TProtocol15readStructBeginERNSt7__cxx1112basic_stringIcSt11char_traitsIcESaIcEEE(%"class.apache::thrift::protocol::TProtocol"* %14, %"class.std::__cxx11::basic_string"* dereferenceable(32) %7)
          to label %16 unwind label %29

16:                                               ; preds = %2
  %17 = load i32, i32* %6, align 4
  %18 = add i32 %17, %15
  store i32 %18, i32* %6, align 4
  br label %19

19:                                               ; preds = %69, %16
  br label %20

20:                                               ; preds = %19
  %21 = load %"class.apache::thrift::protocol::TProtocol"*, %"class.apache::thrift::protocol::TProtocol"** %4, align 8
  %22 = invoke i32 @_ZN6apache6thrift8protocol9TProtocol14readFieldBeginERNSt7__cxx1112basic_stringIcSt11char_traitsIcESaIcEEERNS1_5TTypeERs(%"class.apache::thrift::protocol::TProtocol"* %21, %"class.std::__cxx11::basic_string"* dereferenceable(32) %7, i32* dereferenceable(4) %8, i16* dereferenceable(2) %9)
          to label %23 unwind label %29

23:                                               ; preds = %20
  %24 = load i32, i32* %6, align 4
  %25 = add i32 %24, %22
  store i32 %25, i32* %6, align 4
  %26 = load i32, i32* %8, align 4
  %27 = icmp eq i32 %26, 0
  br i1 %27, label %28, label %33

28:                                               ; preds = %23
  br label %72

29:                                               ; preds = %72, %66, %59, %51, %39, %20, %2
  %30 = landingpad { i8*, i32 }
          cleanup
  %31 = extractvalue { i8*, i32 } %30, 0
  store i8* %31, i8** %10, align 8
  %32 = extractvalue { i8*, i32 } %30, 1
  store i32 %32, i32* %11, align 4
  call void @_ZNSt7__cxx1112basic_stringIcSt11char_traitsIcESaIcEED1Ev(%"class.std::__cxx11::basic_string"* %7) #12
  call void @_ZN6apache6thrift8protocol22TInputRecursionTrackerD2Ev(%"struct.apache::thrift::protocol::TInputRecursionTracker"* %5) #12
  br label %79

33:                                               ; preds = %23
  %34 = load i16, i16* %9, align 2
  %35 = sext i16 %34 to i32
  switch i32 %35, label %59 [
    i32 1, label %36
  ]

36:                                               ; preds = %33
  %37 = load i32, i32* %8, align 4
  %38 = icmp eq i32 %37, 12
  br i1 %38, label %39, label %51

39:                                               ; preds = %36
  %40 = getelementptr inbounds %"class.social_network::ComposePostService_UploadText_presult", %"class.social_network::ComposePostService_UploadText_presult"* %12, i32 0, i32 1
  %41 = load %"class.apache::thrift::protocol::TProtocol"*, %"class.apache::thrift::protocol::TProtocol"** %4, align 8
  %42 = invoke i32 @_ZN14social_network16ServiceException4readEPN6apache6thrift8protocol9TProtocolE(%"class.social_network::ServiceException"* %40, %"class.apache::thrift::protocol::TProtocol"* %41)
          to label %43 unwind label %29

43:                                               ; preds = %39
  %44 = load i32, i32* %6, align 4
  %45 = add i32 %44, %42
  store i32 %45, i32* %6, align 4
  %46 = getelementptr inbounds %"class.social_network::ComposePostService_UploadText_presult", %"class.social_network::ComposePostService_UploadText_presult"* %12, i32 0, i32 2
  %47 = bitcast %"struct.social_network::_ComposePostService_UploadText_presult__isset"* %46 to i8*
  %48 = load i8, i8* %47, align 8
  %49 = and i8 %48, -2
  %50 = or i8 %49, 1
  store i8 %50, i8* %47, align 8
  br label %58

51:                                               ; preds = %36
  %52 = load %"class.apache::thrift::protocol::TProtocol"*, %"class.apache::thrift::protocol::TProtocol"** %4, align 8
  %53 = load i32, i32* %8, align 4
  %54 = invoke i32 @_ZN6apache6thrift8protocol9TProtocol4skipENS1_5TTypeE(%"class.apache::thrift::protocol::TProtocol"* %52, i32 %53)
          to label %55 unwind label %29

55:                                               ; preds = %51
  %56 = load i32, i32* %6, align 4
  %57 = add i32 %56, %54
  store i32 %57, i32* %6, align 4
  br label %58

58:                                               ; preds = %55, %43
  br label %66

59:                                               ; preds = %33
  %60 = load %"class.apache::thrift::protocol::TProtocol"*, %"class.apache::thrift::protocol::TProtocol"** %4, align 8
  %61 = load i32, i32* %8, align 4
  %62 = invoke i32 @_ZN6apache6thrift8protocol9TProtocol4skipENS1_5TTypeE(%"class.apache::thrift::protocol::TProtocol"* %60, i32 %61)
          to label %63 unwind label %29

63:                                               ; preds = %59
  %64 = load i32, i32* %6, align 4
  %65 = add i32 %64, %62
  store i32 %65, i32* %6, align 4
  br label %66

66:                                               ; preds = %63, %58
  %67 = load %"class.apache::thrift::protocol::TProtocol"*, %"class.apache::thrift::protocol::TProtocol"** %4, align 8
  %68 = invoke i32 @_ZN6apache6thrift8protocol9TProtocol12readFieldEndEv(%"class.apache::thrift::protocol::TProtocol"* %67)
          to label %69 unwind label %29

69:                                               ; preds = %66
  %70 = load i32, i32* %6, align 4
  %71 = add i32 %70, %68
  store i32 %71, i32* %6, align 4
  br label %19

72:                                               ; preds = %28
  %73 = load %"class.apache::thrift::protocol::TProtocol"*, %"class.apache::thrift::protocol::TProtocol"** %4, align 8
  %74 = invoke i32 @_ZN6apache6thrift8protocol9TProtocol13readStructEndEv(%"class.apache::thrift::protocol::TProtocol"* %73)
          to label %75 unwind label %29

75:                                               ; preds = %72
  %76 = load i32, i32* %6, align 4
  %77 = add i32 %76, %74
  store i32 %77, i32* %6, align 4
  %78 = load i32, i32* %6, align 4
  call void @_ZNSt7__cxx1112basic_stringIcSt11char_traitsIcESaIcEED1Ev(%"class.std::__cxx11::basic_string"* %7) #12
  call void @_ZN6apache6thrift8protocol22TInputRecursionTrackerD2Ev(%"struct.apache::thrift::protocol::TInputRecursionTracker"* %5) #12
  ret i32 %78

79:                                               ; preds = %29
  %80 = load i8*, i8** %10, align 8
  %81 = load i32, i32* %11, align 4
  %82 = insertvalue { i8*, i32 } undef, i8* %80, 0
  %83 = insertvalue { i8*, i32 } %82, i32 %81, 1
  resume { i8*, i32 } %83
}

; Function Attrs: noinline nounwind optnone uwtable
define void @_ZN14social_network35ComposePostService_UploadMedia_argsD2Ev(%"class.social_network::ComposePostService_UploadMedia_args"* %0) unnamed_addr #0 align 2 {
  %2 = alloca %"class.social_network::ComposePostService_UploadMedia_args"*, align 8
  store %"class.social_network::ComposePostService_UploadMedia_args"* %0, %"class.social_network::ComposePostService_UploadMedia_args"** %2, align 8
  %3 = load %"class.social_network::ComposePostService_UploadMedia_args"*, %"class.social_network::ComposePostService_UploadMedia_args"** %2, align 8
  %4 = bitcast %"class.social_network::ComposePostService_UploadMedia_args"* %3 to i32 (...)***
  store i32 (...)** bitcast (i8** getelementptr inbounds ({ [4 x i8*] }, { [4 x i8*] }* @_ZTVN14social_network35ComposePostService_UploadMedia_argsE, i32 0, inrange i32 0, i32 2) to i32 (...)**), i32 (...)*** %4, align 8
  %5 = getelementptr inbounds %"class.social_network::ComposePostService_UploadMedia_args", %"class.social_network::ComposePostService_UploadMedia_args"* %3, i32 0, i32 3
  call void @_ZNSt3mapINSt7__cxx1112basic_stringIcSt11char_traitsIcESaIcEEES5_St4lessIS5_ESaISt4pairIKS5_S5_EEED2Ev(%"class.std::map"* %5) #12
  %6 = getelementptr inbounds %"class.social_network::ComposePostService_UploadMedia_args", %"class.social_network::ComposePostService_UploadMedia_args"* %3, i32 0, i32 2
  call void @_ZNSt6vectorIN14social_network5MediaESaIS1_EED2Ev(%"class.std::vector"* %6) #12
  ret void
}

; Function Attrs: noinline nounwind optnone uwtable
define linkonce_odr void @_ZNSt6vectorIN14social_network5MediaESaIS1_EED2Ev(%"class.std::vector"* %0) unnamed_addr #0 comdat align 2 personality i8* bitcast (i32 (...)* @__gxx_personality_v0 to i8*) {
  %2 = alloca %"class.std::vector"*, align 8
  %3 = alloca i8*
  %4 = alloca i32
  store %"class.std::vector"* %0, %"class.std::vector"** %2, align 8
  %5 = load %"class.std::vector"*, %"class.std::vector"** %2, align 8
  %6 = bitcast %"class.std::vector"* %5 to %"struct.std::_Vector_base"*
  %7 = getelementptr inbounds %"struct.std::_Vector_base", %"struct.std::_Vector_base"* %6, i32 0, i32 0
  %8 = bitcast %"struct.std::_Vector_base<social_network::Media, std::allocator<social_network::Media> >::_Vector_impl"* %7 to %"struct.std::_Vector_base<social_network::Media, std::allocator<social_network::Media> >::_Vector_impl_data"*
  %9 = getelementptr inbounds %"struct.std::_Vector_base<social_network::Media, std::allocator<social_network::Media> >::_Vector_impl_data", %"struct.std::_Vector_base<social_network::Media, std::allocator<social_network::Media> >::_Vector_impl_data"* %8, i32 0, i32 0
  %10 = load %"class.social_network::Media"*, %"class.social_network::Media"** %9, align 8
  %11 = bitcast %"class.std::vector"* %5 to %"struct.std::_Vector_base"*
  %12 = getelementptr inbounds %"struct.std::_Vector_base", %"struct.std::_Vector_base"* %11, i32 0, i32 0
  %13 = bitcast %"struct.std::_Vector_base<social_network::Media, std::allocator<social_network::Media> >::_Vector_impl"* %12 to %"struct.std::_Vector_base<social_network::Media, std::allocator<social_network::Media> >::_Vector_impl_data"*
  %14 = getelementptr inbounds %"struct.std::_Vector_base<social_network::Media, std::allocator<social_network::Media> >::_Vector_impl_data", %"struct.std::_Vector_base<social_network::Media, std::allocator<social_network::Media> >::_Vector_impl_data"* %13, i32 0, i32 1
  %15 = load %"class.social_network::Media"*, %"class.social_network::Media"** %14, align 8
  %16 = bitcast %"class.std::vector"* %5 to %"struct.std::_Vector_base"*
  %17 = call dereferenceable(1) %"class.std::allocator.3"* @_ZNSt12_Vector_baseIN14social_network5MediaESaIS1_EE19_M_get_Tp_allocatorEv(%"struct.std::_Vector_base"* %16) #12
  invoke void @_ZSt8_DestroyIPN14social_network5MediaES1_EvT_S3_RSaIT0_E(%"class.social_network::Media"* %10, %"class.social_network::Media"* %15, %"class.std::allocator.3"* dereferenceable(1) %17)
          to label %18 unwind label %20

18:                                               ; preds = %1
  %19 = bitcast %"class.std::vector"* %5 to %"struct.std::_Vector_base"*
  call void @_ZNSt12_Vector_baseIN14social_network5MediaESaIS1_EED2Ev(%"struct.std::_Vector_base"* %19) #12
  ret void

20:                                               ; preds = %1
  %21 = landingpad { i8*, i32 }
          catch i8* null
  %22 = extractvalue { i8*, i32 } %21, 0
  store i8* %22, i8** %3, align 8
  %23 = extractvalue { i8*, i32 } %21, 1
  store i32 %23, i32* %4, align 4
  %24 = bitcast %"class.std::vector"* %5 to %"struct.std::_Vector_base"*
  call void @_ZNSt12_Vector_baseIN14social_network5MediaESaIS1_EED2Ev(%"struct.std::_Vector_base"* %24) #12
  br label %25

25:                                               ; preds = %20
  %26 = load i8*, i8** %3, align 8
  call void @__clang_call_terminate(i8* %26) #14
  unreachable
}

; Function Attrs: noinline nounwind optnone uwtable
define void @_ZN14social_network35ComposePostService_UploadMedia_argsD0Ev(%"class.social_network::ComposePostService_UploadMedia_args"* %0) unnamed_addr #0 align 2 {
  %2 = alloca %"class.social_network::ComposePostService_UploadMedia_args"*, align 8
  store %"class.social_network::ComposePostService_UploadMedia_args"* %0, %"class.social_network::ComposePostService_UploadMedia_args"** %2, align 8
  %3 = load %"class.social_network::ComposePostService_UploadMedia_args"*, %"class.social_network::ComposePostService_UploadMedia_args"** %2, align 8
  call void @_ZN14social_network35ComposePostService_UploadMedia_argsD1Ev(%"class.social_network::ComposePostService_UploadMedia_args"* %3) #12
  %4 = bitcast %"class.social_network::ComposePostService_UploadMedia_args"* %3 to i8*
  call void @_ZdlPv(i8* %4) #13
  ret void
}

; Function Attrs: noinline optnone uwtable
define i32 @_ZN14social_network35ComposePostService_UploadMedia_args4readEPN6apache6thrift8protocol9TProtocolE(%"class.social_network::ComposePostService_UploadMedia_args"* %0, %"class.apache::thrift::protocol::TProtocol"* %1) #3 align 2 personality i8* bitcast (i32 (...)* @__gxx_personality_v0 to i8*) {
  %3 = alloca %"class.social_network::ComposePostService_UploadMedia_args"*, align 8
  %4 = alloca %"class.apache::thrift::protocol::TProtocol"*, align 8
  %5 = alloca %"struct.apache::thrift::protocol::TInputRecursionTracker", align 8
  %6 = alloca i32, align 4
  %7 = alloca %"class.std::__cxx11::basic_string", align 8
  %8 = alloca i32, align 4
  %9 = alloca i16, align 2
  %10 = alloca i8*
  %11 = alloca i32
  %12 = alloca i32, align 4
  %13 = alloca i32, align 4
  %14 = alloca i32, align 4
  %15 = alloca i32, align 4
  %16 = alloca i32, align 4
  %17 = alloca i32, align 4
  %18 = alloca i32, align 4
  %19 = alloca %"class.std::__cxx11::basic_string", align 8
  %20 = alloca %"class.std::__cxx11::basic_string"*, align 8
  store %"class.social_network::ComposePostService_UploadMedia_args"* %0, %"class.social_network::ComposePostService_UploadMedia_args"** %3, align 8
  store %"class.apache::thrift::protocol::TProtocol"* %1, %"class.apache::thrift::protocol::TProtocol"** %4, align 8
  %21 = load %"class.social_network::ComposePostService_UploadMedia_args"*, %"class.social_network::ComposePostService_UploadMedia_args"** %3, align 8
  %22 = load %"class.apache::thrift::protocol::TProtocol"*, %"class.apache::thrift::protocol::TProtocol"** %4, align 8
  call void @_ZN6apache6thrift8protocol22TInputRecursionTrackerC2ERNS1_9TProtocolE(%"struct.apache::thrift::protocol::TInputRecursionTracker"* %5, %"class.apache::thrift::protocol::TProtocol"* dereferenceable(40) %22)
  store i32 0, i32* %6, align 4
  call void @_ZNSt7__cxx1112basic_stringIcSt11char_traitsIcESaIcEEC1Ev(%"class.std::__cxx11::basic_string"* %7) #12
  %23 = load %"class.apache::thrift::protocol::TProtocol"*, %"class.apache::thrift::protocol::TProtocol"** %4, align 8
  %24 = invoke i32 @_ZN6apache6thrift8protocol9TProtocol15readStructBeginERNSt7__cxx1112basic_stringIcSt11char_traitsIcESaIcEEE(%"class.apache::thrift::protocol::TProtocol"* %23, %"class.std::__cxx11::basic_string"* dereferenceable(32) %7)
          to label %25 unwind label %38

25:                                               ; preds = %2
  %26 = load i32, i32* %6, align 4
  %27 = add i32 %26, %24
  store i32 %27, i32* %6, align 4
  br label %28

28:                                               ; preds = %187, %25
  br label %29

29:                                               ; preds = %28
  %30 = load %"class.apache::thrift::protocol::TProtocol"*, %"class.apache::thrift::protocol::TProtocol"** %4, align 8
  %31 = invoke i32 @_ZN6apache6thrift8protocol9TProtocol14readFieldBeginERNSt7__cxx1112basic_stringIcSt11char_traitsIcESaIcEEERNS1_5TTypeERs(%"class.apache::thrift::protocol::TProtocol"* %30, %"class.std::__cxx11::basic_string"* dereferenceable(32) %7, i32* dereferenceable(4) %8, i16* dereferenceable(2) %9)
          to label %32 unwind label %38

32:                                               ; preds = %29
  %33 = load i32, i32* %6, align 4
  %34 = add i32 %33, %31
  store i32 %34, i32* %6, align 4
  %35 = load i32, i32* %8, align 4
  %36 = icmp eq i32 %35, 0
  br i1 %36, label %37, label %42

37:                                               ; preds = %32
  br label %190

38:                                               ; preds = %190, %184, %177, %169, %158, %125, %114, %103, %86, %75, %71, %60, %48, %29, %2
  %39 = landingpad { i8*, i32 }
          cleanup
  %40 = extractvalue { i8*, i32 } %39, 0
  store i8* %40, i8** %10, align 8
  %41 = extractvalue { i8*, i32 } %39, 1
  store i32 %41, i32* %11, align 4
  br label %197

42:                                               ; preds = %32
  %43 = load i16, i16* %9, align 2
  %44 = sext i16 %43 to i32
  switch i32 %44, label %177 [
    i32 1, label %45
    i32 2, label %68
    i32 3, label %122
  ]

45:                                               ; preds = %42
  %46 = load i32, i32* %8, align 4
  %47 = icmp eq i32 %46, 10
  br i1 %47, label %48, label %60

48:                                               ; preds = %45
  %49 = load %"class.apache::thrift::protocol::TProtocol"*, %"class.apache::thrift::protocol::TProtocol"** %4, align 8
  %50 = getelementptr inbounds %"class.social_network::ComposePostService_UploadMedia_args", %"class.social_network::ComposePostService_UploadMedia_args"* %21, i32 0, i32 1
  %51 = invoke i32 @_ZN6apache6thrift8protocol9TProtocol7readI64ERl(%"class.apache::thrift::protocol::TProtocol"* %49, i64* dereferenceable(8) %50)
          to label %52 unwind label %38

52:                                               ; preds = %48
  %53 = load i32, i32* %6, align 4
  %54 = add i32 %53, %51
  store i32 %54, i32* %6, align 4
  %55 = getelementptr inbounds %"class.social_network::ComposePostService_UploadMedia_args", %"class.social_network::ComposePostService_UploadMedia_args"* %21, i32 0, i32 4
  %56 = bitcast %"struct.social_network::_ComposePostService_UploadMedia_args__isset"* %55 to i8*
  %57 = load i8, i8* %56, align 8
  %58 = and i8 %57, -2
  %59 = or i8 %58, 1
  store i8 %59, i8* %56, align 8
  br label %67

60:                                               ; preds = %45
  %61 = load %"class.apache::thrift::protocol::TProtocol"*, %"class.apache::thrift::protocol::TProtocol"** %4, align 8
  %62 = load i32, i32* %8, align 4
  %63 = invoke i32 @_ZN6apache6thrift8protocol9TProtocol4skipENS1_5TTypeE(%"class.apache::thrift::protocol::TProtocol"* %61, i32 %62)
          to label %64 unwind label %38

64:                                               ; preds = %60
  %65 = load i32, i32* %6, align 4
  %66 = add i32 %65, %63
  store i32 %66, i32* %6, align 4
  br label %67

67:                                               ; preds = %64, %52
  br label %184

68:                                               ; preds = %42
  %69 = load i32, i32* %8, align 4
  %70 = icmp eq i32 %69, 15
  br i1 %70, label %71, label %114

71:                                               ; preds = %68
  %72 = getelementptr inbounds %"class.social_network::ComposePostService_UploadMedia_args", %"class.social_network::ComposePostService_UploadMedia_args"* %21, i32 0, i32 2
  call void @_ZNSt6vectorIN14social_network5MediaESaIS1_EE5clearEv(%"class.std::vector"* %72) #12
  %73 = load %"class.apache::thrift::protocol::TProtocol"*, %"class.apache::thrift::protocol::TProtocol"** %4, align 8
  %74 = invoke i32 @_ZN6apache6thrift8protocol9TProtocol13readListBeginERNS1_5TTypeERj(%"class.apache::thrift::protocol::TProtocol"* %73, i32* dereferenceable(4) %13, i32* dereferenceable(4) %12)
          to label %75 unwind label %38

75:                                               ; preds = %71
  %76 = load i32, i32* %6, align 4
  %77 = add i32 %76, %74
  store i32 %77, i32* %6, align 4
  %78 = getelementptr inbounds %"class.social_network::ComposePostService_UploadMedia_args", %"class.social_network::ComposePostService_UploadMedia_args"* %21, i32 0, i32 2
  %79 = load i32, i32* %12, align 4
  %80 = zext i32 %79 to i64
  invoke void @_ZNSt6vectorIN14social_network5MediaESaIS1_EE6resizeEm(%"class.std::vector"* %78, i64 %80)
          to label %81 unwind label %38

81:                                               ; preds = %75
  store i32 0, i32* %14, align 4
  br label %82

82:                                               ; preds = %100, %81
  %83 = load i32, i32* %14, align 4
  %84 = load i32, i32* %12, align 4
  %85 = icmp ult i32 %83, %84
  br i1 %85, label %86, label %103

86:                                               ; preds = %82
  %87 = getelementptr inbounds %"class.social_network::ComposePostService_UploadMedia_args", %"class.social_network::ComposePostService_UploadMedia_args"* %21, i32 0, i32 2
  %88 = load i32, i32* %14, align 4
  %89 = zext i32 %88 to i64
  %90 = call dereferenceable(56) %"class.social_network::Media"* @_ZNSt6vectorIN14social_network5MediaESaIS1_EEixEm(%"class.std::vector"* %87, i64 %89) #12
  %91 = load %"class.apache::thrift::protocol::TProtocol"*, %"class.apache::thrift::protocol::TProtocol"** %4, align 8
  %92 = bitcast %"class.social_network::Media"* %90 to i32 (%"class.social_network::Media"*, %"class.apache::thrift::protocol::TProtocol"*)***
  %93 = load i32 (%"class.social_network::Media"*, %"class.apache::thrift::protocol::TProtocol"*)**, i32 (%"class.social_network::Media"*, %"class.apache::thrift::protocol::TProtocol"*)*** %92, align 8
  %94 = getelementptr inbounds i32 (%"class.social_network::Media"*, %"class.apache::thrift::protocol::TProtocol"*)*, i32 (%"class.social_network::Media"*, %"class.apache::thrift::protocol::TProtocol"*)** %93, i64 2
  %95 = load i32 (%"class.social_network::Media"*, %"class.apache::thrift::protocol::TProtocol"*)*, i32 (%"class.social_network::Media"*, %"class.apache::thrift::protocol::TProtocol"*)** %94, align 8
  %96 = invoke i32 %95(%"class.social_network::Media"* %90, %"class.apache::thrift::protocol::TProtocol"* %91)
          to label %97 unwind label %38

97:                                               ; preds = %86
  %98 = load i32, i32* %6, align 4
  %99 = add i32 %98, %96
  store i32 %99, i32* %6, align 4
  br label %100

100:                                              ; preds = %97
  %101 = load i32, i32* %14, align 4
  %102 = add i32 %101, 1
  store i32 %102, i32* %14, align 4
  br label %82

103:                                              ; preds = %82
  %104 = load %"class.apache::thrift::protocol::TProtocol"*, %"class.apache::thrift::protocol::TProtocol"** %4, align 8
  %105 = invoke i32 @_ZN6apache6thrift8protocol9TProtocol11readListEndEv(%"class.apache::thrift::protocol::TProtocol"* %104)
          to label %106 unwind label %38

106:                                              ; preds = %103
  %107 = load i32, i32* %6, align 4
  %108 = add i32 %107, %105
  store i32 %108, i32* %6, align 4
  %109 = getelementptr inbounds %"class.social_network::ComposePostService_UploadMedia_args", %"class.social_network::ComposePostService_UploadMedia_args"* %21, i32 0, i32 4
  %110 = bitcast %"struct.social_network::_ComposePostService_UploadMedia_args__isset"* %109 to i8*
  %111 = load i8, i8* %110, align 8
  %112 = and i8 %111, -3
  %113 = or i8 %112, 2
  store i8 %113, i8* %110, align 8
  br label %121

114:                                              ; preds = %68
  %115 = load %"class.apache::thrift::protocol::TProtocol"*, %"class.apache::thrift::protocol::TProtocol"** %4, align 8
  %116 = load i32, i32* %8, align 4
  %117 = invoke i32 @_ZN6apache6thrift8protocol9TProtocol4skipENS1_5TTypeE(%"class.apache::thrift::protocol::TProtocol"* %115, i32 %116)
          to label %118 unwind label %38

118:                                              ; preds = %114
  %119 = load i32, i32* %6, align 4
  %120 = add i32 %119, %117
  store i32 %120, i32* %6, align 4
  br label %121

121:                                              ; preds = %118, %106
  br label %184

122:                                              ; preds = %42
  %123 = load i32, i32* %8, align 4
  %124 = icmp eq i32 %123, 13
  br i1 %124, label %125, label %169

125:                                              ; preds = %122
  %126 = getelementptr inbounds %"class.social_network::ComposePostService_UploadMedia_args", %"class.social_network::ComposePostService_UploadMedia_args"* %21, i32 0, i32 3
  call void @_ZNSt3mapINSt7__cxx1112basic_stringIcSt11char_traitsIcESaIcEEES5_St4lessIS5_ESaISt4pairIKS5_S5_EEE5clearEv(%"class.std::map"* %126) #12
  %127 = load %"class.apache::thrift::protocol::TProtocol"*, %"class.apache::thrift::protocol::TProtocol"** %4, align 8
  %128 = invoke i32 @_ZN6apache6thrift8protocol9TProtocol12readMapBeginERNS1_5TTypeES4_Rj(%"class.apache::thrift::protocol::TProtocol"* %127, i32* dereferenceable(4) %16, i32* dereferenceable(4) %17, i32* dereferenceable(4) %15)
          to label %129 unwind label %38

129:                                              ; preds = %125
  %130 = load i32, i32* %6, align 4
  %131 = add i32 %130, %128
  store i32 %131, i32* %6, align 4
  store i32 0, i32* %18, align 4
  br label %132

132:                                              ; preds = %151, %129
  %133 = load i32, i32* %18, align 4
  %134 = load i32, i32* %15, align 4
  %135 = icmp ult i32 %133, %134
  br i1 %135, label %136, label %158

136:                                              ; preds = %132
  call void @_ZNSt7__cxx1112basic_stringIcSt11char_traitsIcESaIcEEC1Ev(%"class.std::__cxx11::basic_string"* %19) #12
  %137 = load %"class.apache::thrift::protocol::TProtocol"*, %"class.apache::thrift::protocol::TProtocol"** %4, align 8
  %138 = invoke i32 @_ZN6apache6thrift8protocol9TProtocol10readStringERNSt7__cxx1112basic_stringIcSt11char_traitsIcESaIcEEE(%"class.apache::thrift::protocol::TProtocol"* %137, %"class.std::__cxx11::basic_string"* dereferenceable(32) %19)
          to label %139 unwind label %154

139:                                              ; preds = %136
  %140 = load i32, i32* %6, align 4
  %141 = add i32 %140, %138
  store i32 %141, i32* %6, align 4
  %142 = getelementptr inbounds %"class.social_network::ComposePostService_UploadMedia_args", %"class.social_network::ComposePostService_UploadMedia_args"* %21, i32 0, i32 3
  %143 = invoke dereferenceable(32) %"class.std::__cxx11::basic_string"* @_ZNSt3mapINSt7__cxx1112basic_stringIcSt11char_traitsIcESaIcEEES5_St4lessIS5_ESaISt4pairIKS5_S5_EEEixERS9_(%"class.std::map"* %142, %"class.std::__cxx11::basic_string"* dereferenceable(32) %19)
          to label %144 unwind label %154

144:                                              ; preds = %139
  store %"class.std::__cxx11::basic_string"* %143, %"class.std::__cxx11::basic_string"** %20, align 8
  %145 = load %"class.apache::thrift::protocol::TProtocol"*, %"class.apache::thrift::protocol::TProtocol"** %4, align 8
  %146 = load %"class.std::__cxx11::basic_string"*, %"class.std::__cxx11::basic_string"** %20, align 8
  %147 = invoke i32 @_ZN6apache6thrift8protocol9TProtocol10readStringERNSt7__cxx1112basic_stringIcSt11char_traitsIcESaIcEEE(%"class.apache::thrift::protocol::TProtocol"* %145, %"class.std::__cxx11::basic_string"* dereferenceable(32) %146)
          to label %148 unwind label %154

148:                                              ; preds = %144
  %149 = load i32, i32* %6, align 4
  %150 = add i32 %149, %147
  store i32 %150, i32* %6, align 4
  call void @_ZNSt7__cxx1112basic_stringIcSt11char_traitsIcESaIcEED1Ev(%"class.std::__cxx11::basic_string"* %19) #12
  br label %151

151:                                              ; preds = %148
  %152 = load i32, i32* %18, align 4
  %153 = add i32 %152, 1
  store i32 %153, i32* %18, align 4
  br label %132

154:                                              ; preds = %144, %139, %136
  %155 = landingpad { i8*, i32 }
          cleanup
  %156 = extractvalue { i8*, i32 } %155, 0
  store i8* %156, i8** %10, align 8
  %157 = extractvalue { i8*, i32 } %155, 1
  store i32 %157, i32* %11, align 4
  call void @_ZNSt7__cxx1112basic_stringIcSt11char_traitsIcESaIcEED1Ev(%"class.std::__cxx11::basic_string"* %19) #12
  br label %197

158:                                              ; preds = %132
  %159 = load %"class.apache::thrift::protocol::TProtocol"*, %"class.apache::thrift::protocol::TProtocol"** %4, align 8
  %160 = invoke i32 @_ZN6apache6thrift8protocol9TProtocol10readMapEndEv(%"class.apache::thrift::protocol::TProtocol"* %159)
          to label %161 unwind label %38

161:                                              ; preds = %158
  %162 = load i32, i32* %6, align 4
  %163 = add i32 %162, %160
  store i32 %163, i32* %6, align 4
  %164 = getelementptr inbounds %"class.social_network::ComposePostService_UploadMedia_args", %"class.social_network::ComposePostService_UploadMedia_args"* %21, i32 0, i32 4
  %165 = bitcast %"struct.social_network::_ComposePostService_UploadMedia_args__isset"* %164 to i8*
  %166 = load i8, i8* %165, align 8
  %167 = and i8 %166, -5
  %168 = or i8 %167, 4
  store i8 %168, i8* %165, align 8
  br label %176

169:                                              ; preds = %122
  %170 = load %"class.apache::thrift::protocol::TProtocol"*, %"class.apache::thrift::protocol::TProtocol"** %4, align 8
  %171 = load i32, i32* %8, align 4
  %172 = invoke i32 @_ZN6apache6thrift8protocol9TProtocol4skipENS1_5TTypeE(%"class.apache::thrift::protocol::TProtocol"* %170, i32 %171)
          to label %173 unwind label %38

173:                                              ; preds = %169
  %174 = load i32, i32* %6, align 4
  %175 = add i32 %174, %172
  store i32 %175, i32* %6, align 4
  br label %176

176:                                              ; preds = %173, %161
  br label %184

177:                                              ; preds = %42
  %178 = load %"class.apache::thrift::protocol::TProtocol"*, %"class.apache::thrift::protocol::TProtocol"** %4, align 8
  %179 = load i32, i32* %8, align 4
  %180 = invoke i32 @_ZN6apache6thrift8protocol9TProtocol4skipENS1_5TTypeE(%"class.apache::thrift::protocol::TProtocol"* %178, i32 %179)
          to label %181 unwind label %38

181:                                              ; preds = %177
  %182 = load i32, i32* %6, align 4
  %183 = add i32 %182, %180
  store i32 %183, i32* %6, align 4
  br label %184

184:                                              ; preds = %181, %176, %121, %67
  %185 = load %"class.apache::thrift::protocol::TProtocol"*, %"class.apache::thrift::protocol::TProtocol"** %4, align 8
  %186 = invoke i32 @_ZN6apache6thrift8protocol9TProtocol12readFieldEndEv(%"class.apache::thrift::protocol::TProtocol"* %185)
          to label %187 unwind label %38

187:                                              ; preds = %184
  %188 = load i32, i32* %6, align 4
  %189 = add i32 %188, %186
  store i32 %189, i32* %6, align 4
  br label %28

190:                                              ; preds = %37
  %191 = load %"class.apache::thrift::protocol::TProtocol"*, %"class.apache::thrift::protocol::TProtocol"** %4, align 8
  %192 = invoke i32 @_ZN6apache6thrift8protocol9TProtocol13readStructEndEv(%"class.apache::thrift::protocol::TProtocol"* %191)
          to label %193 unwind label %38

193:                                              ; preds = %190
  %194 = load i32, i32* %6, align 4
  %195 = add i32 %194, %192
  store i32 %195, i32* %6, align 4
  %196 = load i32, i32* %6, align 4
  call void @_ZNSt7__cxx1112basic_stringIcSt11char_traitsIcESaIcEED1Ev(%"class.std::__cxx11::basic_string"* %7) #12
  call void @_ZN6apache6thrift8protocol22TInputRecursionTrackerD2Ev(%"struct.apache::thrift::protocol::TInputRecursionTracker"* %5) #12
  ret i32 %196

197:                                              ; preds = %154, %38
  call void @_ZNSt7__cxx1112basic_stringIcSt11char_traitsIcESaIcEED1Ev(%"class.std::__cxx11::basic_string"* %7) #12
  call void @_ZN6apache6thrift8protocol22TInputRecursionTrackerD2Ev(%"struct.apache::thrift::protocol::TInputRecursionTracker"* %5) #12
  br label %198

198:                                              ; preds = %197
  %199 = load i8*, i8** %10, align 8
  %200 = load i32, i32* %11, align 4
  %201 = insertvalue { i8*, i32 } undef, i8* %199, 0
  %202 = insertvalue { i8*, i32 } %201, i32 %200, 1
  resume { i8*, i32 } %202
}

; Function Attrs: noinline nounwind optnone uwtable
define linkonce_odr void @_ZNSt6vectorIN14social_network5MediaESaIS1_EE5clearEv(%"class.std::vector"* %0) #0 comdat align 2 {
  %2 = alloca %"class.std::vector"*, align 8
  store %"class.std::vector"* %0, %"class.std::vector"** %2, align 8
  %3 = load %"class.std::vector"*, %"class.std::vector"** %2, align 8
  %4 = bitcast %"class.std::vector"* %3 to %"struct.std::_Vector_base"*
  %5 = getelementptr inbounds %"struct.std::_Vector_base", %"struct.std::_Vector_base"* %4, i32 0, i32 0
  %6 = bitcast %"struct.std::_Vector_base<social_network::Media, std::allocator<social_network::Media> >::_Vector_impl"* %5 to %"struct.std::_Vector_base<social_network::Media, std::allocator<social_network::Media> >::_Vector_impl_data"*
  %7 = getelementptr inbounds %"struct.std::_Vector_base<social_network::Media, std::allocator<social_network::Media> >::_Vector_impl_data", %"struct.std::_Vector_base<social_network::Media, std::allocator<social_network::Media> >::_Vector_impl_data"* %6, i32 0, i32 0
  %8 = load %"class.social_network::Media"*, %"class.social_network::Media"** %7, align 8
  call void @_ZNSt6vectorIN14social_network5MediaESaIS1_EE15_M_erase_at_endEPS1_(%"class.std::vector"* %3, %"class.social_network::Media"* %8) #12
  ret void
}

; Function Attrs: noinline optnone uwtable
define linkonce_odr i32 @_ZN6apache6thrift8protocol9TProtocol13readListBeginERNS1_5TTypeERj(%"class.apache::thrift::protocol::TProtocol"* %0, i32* dereferenceable(4) %1, i32* dereferenceable(4) %2) #3 comdat align 2 {
  %4 = alloca %"class.apache::thrift::protocol::TProtocol"*, align 8
  %5 = alloca i32*, align 8
  %6 = alloca i32*, align 8
  store %"class.apache::thrift::protocol::TProtocol"* %0, %"class.apache::thrift::protocol::TProtocol"** %4, align 8
  store i32* %1, i32** %5, align 8
  store i32* %2, i32** %6, align 8
  %7 = load %"class.apache::thrift::protocol::TProtocol"*, %"class.apache::thrift::protocol::TProtocol"** %4, align 8
  %8 = load i32*, i32** %5, align 8
  %9 = load i32*, i32** %6, align 8
  %10 = bitcast %"class.apache::thrift::protocol::TProtocol"* %7 to i32 (%"class.apache::thrift::protocol::TProtocol"*, i32*, i32*)***
  %11 = load i32 (%"class.apache::thrift::protocol::TProtocol"*, i32*, i32*)**, i32 (%"class.apache::thrift::protocol::TProtocol"*, i32*, i32*)*** %10, align 8
  %12 = getelementptr inbounds i32 (%"class.apache::thrift::protocol::TProtocol"*, i32*, i32*)*, i32 (%"class.apache::thrift::protocol::TProtocol"*, i32*, i32*)** %11, i64 31
  %13 = load i32 (%"class.apache::thrift::protocol::TProtocol"*, i32*, i32*)*, i32 (%"class.apache::thrift::protocol::TProtocol"*, i32*, i32*)** %12, align 8
  %14 = call i32 %13(%"class.apache::thrift::protocol::TProtocol"* %7, i32* dereferenceable(4) %8, i32* dereferenceable(4) %9)
  ret i32 %14
}

; Function Attrs: noinline optnone uwtable
define linkonce_odr void @_ZNSt6vectorIN14social_network5MediaESaIS1_EE6resizeEm(%"class.std::vector"* %0, i64 %1) #3 comdat align 2 {
  %3 = alloca %"class.std::vector"*, align 8
  %4 = alloca i64, align 8
  store %"class.std::vector"* %0, %"class.std::vector"** %3, align 8
  store i64 %1, i64* %4, align 8
  %5 = load %"class.std::vector"*, %"class.std::vector"** %3, align 8
  %6 = load i64, i64* %4, align 8
  %7 = call i64 @_ZNKSt6vectorIN14social_network5MediaESaIS1_EE4sizeEv(%"class.std::vector"* %5) #12
  %8 = icmp ugt i64 %6, %7
  br i1 %8, label %9, label %13

9:                                                ; preds = %2
  %10 = load i64, i64* %4, align 8
  %11 = call i64 @_ZNKSt6vectorIN14social_network5MediaESaIS1_EE4sizeEv(%"class.std::vector"* %5) #12
  %12 = sub i64 %10, %11
  call void @_ZNSt6vectorIN14social_network5MediaESaIS1_EE17_M_default_appendEm(%"class.std::vector"* %5, i64 %12)
  br label %26

13:                                               ; preds = %2
  %14 = load i64, i64* %4, align 8
  %15 = call i64 @_ZNKSt6vectorIN14social_network5MediaESaIS1_EE4sizeEv(%"class.std::vector"* %5) #12
  %16 = icmp ult i64 %14, %15
  br i1 %16, label %17, label %25

17:                                               ; preds = %13
  %18 = bitcast %"class.std::vector"* %5 to %"struct.std::_Vector_base"*
  %19 = getelementptr inbounds %"struct.std::_Vector_base", %"struct.std::_Vector_base"* %18, i32 0, i32 0
  %20 = bitcast %"struct.std::_Vector_base<social_network::Media, std::allocator<social_network::Media> >::_Vector_impl"* %19 to %"struct.std::_Vector_base<social_network::Media, std::allocator<social_network::Media> >::_Vector_impl_data"*
  %21 = getelementptr inbounds %"struct.std::_Vector_base<social_network::Media, std::allocator<social_network::Media> >::_Vector_impl_data", %"struct.std::_Vector_base<social_network::Media, std::allocator<social_network::Media> >::_Vector_impl_data"* %20, i32 0, i32 0
  %22 = load %"class.social_network::Media"*, %"class.social_network::Media"** %21, align 8
  %23 = load i64, i64* %4, align 8
  %24 = getelementptr inbounds %"class.social_network::Media", %"class.social_network::Media"* %22, i64 %23
  call void @_ZNSt6vectorIN14social_network5MediaESaIS1_EE15_M_erase_at_endEPS1_(%"class.std::vector"* %5, %"class.social_network::Media"* %24) #12
  br label %25

25:                                               ; preds = %17, %13
  br label %26

26:                                               ; preds = %25, %9
  ret void
}

; Function Attrs: noinline nounwind optnone uwtable
define linkonce_odr dereferenceable(56) %"class.social_network::Media"* @_ZNSt6vectorIN14social_network5MediaESaIS1_EEixEm(%"class.std::vector"* %0, i64 %1) #0 comdat align 2 {
  %3 = alloca %"class.std::vector"*, align 8
  %4 = alloca i64, align 8
  store %"class.std::vector"* %0, %"class.std::vector"** %3, align 8
  store i64 %1, i64* %4, align 8
  %5 = load %"class.std::vector"*, %"class.std::vector"** %3, align 8
  %6 = bitcast %"class.std::vector"* %5 to %"struct.std::_Vector_base"*
  %7 = getelementptr inbounds %"struct.std::_Vector_base", %"struct.std::_Vector_base"* %6, i32 0, i32 0
  %8 = bitcast %"struct.std::_Vector_base<social_network::Media, std::allocator<social_network::Media> >::_Vector_impl"* %7 to %"struct.std::_Vector_base<social_network::Media, std::allocator<social_network::Media> >::_Vector_impl_data"*
  %9 = getelementptr inbounds %"struct.std::_Vector_base<social_network::Media, std::allocator<social_network::Media> >::_Vector_impl_data", %"struct.std::_Vector_base<social_network::Media, std::allocator<social_network::Media> >::_Vector_impl_data"* %8, i32 0, i32 0
  %10 = load %"class.social_network::Media"*, %"class.social_network::Media"** %9, align 8
  %11 = load i64, i64* %4, align 8
  %12 = getelementptr inbounds %"class.social_network::Media", %"class.social_network::Media"* %10, i64 %11
  ret %"class.social_network::Media"* %12
}

; Function Attrs: noinline optnone uwtable
define linkonce_odr i32 @_ZN6apache6thrift8protocol9TProtocol11readListEndEv(%"class.apache::thrift::protocol::TProtocol"* %0) #3 comdat align 2 {
  %2 = alloca %"class.apache::thrift::protocol::TProtocol"*, align 8
  store %"class.apache::thrift::protocol::TProtocol"* %0, %"class.apache::thrift::protocol::TProtocol"** %2, align 8
  %3 = load %"class.apache::thrift::protocol::TProtocol"*, %"class.apache::thrift::protocol::TProtocol"** %2, align 8
  %4 = bitcast %"class.apache::thrift::protocol::TProtocol"* %3 to i32 (%"class.apache::thrift::protocol::TProtocol"*)***
  %5 = load i32 (%"class.apache::thrift::protocol::TProtocol"*)**, i32 (%"class.apache::thrift::protocol::TProtocol"*)*** %4, align 8
  %6 = getelementptr inbounds i32 (%"class.apache::thrift::protocol::TProtocol"*)*, i32 (%"class.apache::thrift::protocol::TProtocol"*)** %5, i64 32
  %7 = load i32 (%"class.apache::thrift::protocol::TProtocol"*)*, i32 (%"class.apache::thrift::protocol::TProtocol"*)** %6, align 8
  %8 = call i32 %7(%"class.apache::thrift::protocol::TProtocol"* %3)
  ret i32 %8
}

; Function Attrs: noinline optnone uwtable
define i32 @_ZNK14social_network35ComposePostService_UploadMedia_args5writeEPN6apache6thrift8protocol9TProtocolE(%"class.social_network::ComposePostService_UploadMedia_args"* %0, %"class.apache::thrift::protocol::TProtocol"* %1) #3 align 2 personality i8* bitcast (i32 (...)* @__gxx_personality_v0 to i8*) {
  %3 = alloca %"class.social_network::ComposePostService_UploadMedia_args"*, align 8
  %4 = alloca %"class.apache::thrift::protocol::TProtocol"*, align 8
  %5 = alloca i32, align 4
  %6 = alloca %"struct.apache::thrift::protocol::TOutputRecursionTracker", align 8
  %7 = alloca i8*
  %8 = alloca i32
  %9 = alloca %"class.__gnu_cxx::__normal_iterator", align 8
  %10 = alloca %"class.__gnu_cxx::__normal_iterator", align 8
  %11 = alloca %"class.__gnu_cxx::__normal_iterator", align 8
  %12 = alloca %"struct.std::_Rb_tree_const_iterator", align 8
  %13 = alloca %"struct.std::_Rb_tree_const_iterator", align 8
  %14 = alloca %"struct.std::_Rb_tree_const_iterator", align 8
  store %"class.social_network::ComposePostService_UploadMedia_args"* %0, %"class.social_network::ComposePostService_UploadMedia_args"** %3, align 8
  store %"class.apache::thrift::protocol::TProtocol"* %1, %"class.apache::thrift::protocol::TProtocol"** %4, align 8
  %15 = load %"class.social_network::ComposePostService_UploadMedia_args"*, %"class.social_network::ComposePostService_UploadMedia_args"** %3, align 8
  store i32 0, i32* %5, align 4
  %16 = load %"class.apache::thrift::protocol::TProtocol"*, %"class.apache::thrift::protocol::TProtocol"** %4, align 8
  call void @_ZN6apache6thrift8protocol23TOutputRecursionTrackerC2ERNS1_9TProtocolE(%"struct.apache::thrift::protocol::TOutputRecursionTracker"* %6, %"class.apache::thrift::protocol::TProtocol"* dereferenceable(40) %16)
  %17 = load %"class.apache::thrift::protocol::TProtocol"*, %"class.apache::thrift::protocol::TProtocol"** %4, align 8
  %18 = invoke i32 @_ZN6apache6thrift8protocol9TProtocol16writeStructBeginEPKc(%"class.apache::thrift::protocol::TProtocol"* %17, i8* getelementptr inbounds ([36 x i8], [36 x i8]* @.str.7, i64 0, i64 0))
          to label %19 unwind label %75

19:                                               ; preds = %2
  %20 = load i32, i32* %5, align 4
  %21 = add i32 %20, %18
  store i32 %21, i32* %5, align 4
  %22 = load %"class.apache::thrift::protocol::TProtocol"*, %"class.apache::thrift::protocol::TProtocol"** %4, align 8
  %23 = invoke i32 @_ZN6apache6thrift8protocol9TProtocol15writeFieldBeginEPKcNS1_5TTypeEs(%"class.apache::thrift::protocol::TProtocol"* %22, i8* getelementptr inbounds ([7 x i8], [7 x i8]* @.str.1, i64 0, i64 0), i32 10, i16 signext 1)
          to label %24 unwind label %75

24:                                               ; preds = %19
  %25 = load i32, i32* %5, align 4
  %26 = add i32 %25, %23
  store i32 %26, i32* %5, align 4
  %27 = load %"class.apache::thrift::protocol::TProtocol"*, %"class.apache::thrift::protocol::TProtocol"** %4, align 8
  %28 = getelementptr inbounds %"class.social_network::ComposePostService_UploadMedia_args", %"class.social_network::ComposePostService_UploadMedia_args"* %15, i32 0, i32 1
  %29 = load i64, i64* %28, align 8
  %30 = invoke i32 @_ZN6apache6thrift8protocol9TProtocol8writeI64El(%"class.apache::thrift::protocol::TProtocol"* %27, i64 %29)
          to label %31 unwind label %75

31:                                               ; preds = %24
  %32 = load i32, i32* %5, align 4
  %33 = add i32 %32, %30
  store i32 %33, i32* %5, align 4
  %34 = load %"class.apache::thrift::protocol::TProtocol"*, %"class.apache::thrift::protocol::TProtocol"** %4, align 8
  %35 = invoke i32 @_ZN6apache6thrift8protocol9TProtocol13writeFieldEndEv(%"class.apache::thrift::protocol::TProtocol"* %34)
          to label %36 unwind label %75

36:                                               ; preds = %31
  %37 = load i32, i32* %5, align 4
  %38 = add i32 %37, %35
  store i32 %38, i32* %5, align 4
  %39 = load %"class.apache::thrift::protocol::TProtocol"*, %"class.apache::thrift::protocol::TProtocol"** %4, align 8
  %40 = invoke i32 @_ZN6apache6thrift8protocol9TProtocol15writeFieldBeginEPKcNS1_5TTypeEs(%"class.apache::thrift::protocol::TProtocol"* %39, i8* getelementptr inbounds ([6 x i8], [6 x i8]* @.str.8, i64 0, i64 0), i32 15, i16 signext 2)
          to label %41 unwind label %75

41:                                               ; preds = %36
  %42 = load i32, i32* %5, align 4
  %43 = add i32 %42, %40
  store i32 %43, i32* %5, align 4
  %44 = load %"class.apache::thrift::protocol::TProtocol"*, %"class.apache::thrift::protocol::TProtocol"** %4, align 8
  %45 = getelementptr inbounds %"class.social_network::ComposePostService_UploadMedia_args", %"class.social_network::ComposePostService_UploadMedia_args"* %15, i32 0, i32 2
  %46 = call i64 @_ZNKSt6vectorIN14social_network5MediaESaIS1_EE4sizeEv(%"class.std::vector"* %45) #12
  %47 = trunc i64 %46 to i32
  %48 = invoke i32 @_ZN6apache6thrift8protocol9TProtocol14writeListBeginENS1_5TTypeEj(%"class.apache::thrift::protocol::TProtocol"* %44, i32 12, i32 %47)
          to label %49 unwind label %75

49:                                               ; preds = %41
  %50 = load i32, i32* %5, align 4
  %51 = add i32 %50, %48
  store i32 %51, i32* %5, align 4
  call void @_ZN9__gnu_cxx17__normal_iteratorIPKN14social_network5MediaESt6vectorIS2_SaIS2_EEEC2Ev(%"class.__gnu_cxx::__normal_iterator"* %9) #12
  %52 = getelementptr inbounds %"class.social_network::ComposePostService_UploadMedia_args", %"class.social_network::ComposePostService_UploadMedia_args"* %15, i32 0, i32 2
  %53 = call %"class.social_network::Media"* @_ZNKSt6vectorIN14social_network5MediaESaIS1_EE5beginEv(%"class.std::vector"* %52) #12
  %54 = getelementptr inbounds %"class.__gnu_cxx::__normal_iterator", %"class.__gnu_cxx::__normal_iterator"* %10, i32 0, i32 0
  store %"class.social_network::Media"* %53, %"class.social_network::Media"** %54, align 8
  %55 = bitcast %"class.__gnu_cxx::__normal_iterator"* %9 to i8*
  %56 = bitcast %"class.__gnu_cxx::__normal_iterator"* %10 to i8*
  call void @llvm.memcpy.p0i8.p0i8.i64(i8* align 8 %55, i8* align 8 %56, i64 8, i1 false)
  br label %57

57:                                               ; preds = %73, %49
  %58 = getelementptr inbounds %"class.social_network::ComposePostService_UploadMedia_args", %"class.social_network::ComposePostService_UploadMedia_args"* %15, i32 0, i32 2
  %59 = call %"class.social_network::Media"* @_ZNKSt6vectorIN14social_network5MediaESaIS1_EE3endEv(%"class.std::vector"* %58) #12
  %60 = getelementptr inbounds %"class.__gnu_cxx::__normal_iterator", %"class.__gnu_cxx::__normal_iterator"* %11, i32 0, i32 0
  store %"class.social_network::Media"* %59, %"class.social_network::Media"** %60, align 8
  %61 = call zeroext i1 @_ZN9__gnu_cxxneIPKN14social_network5MediaESt6vectorIS2_SaIS2_EEEEbRKNS_17__normal_iteratorIT_T0_EESD_(%"class.__gnu_cxx::__normal_iterator"* dereferenceable(8) %9, %"class.__gnu_cxx::__normal_iterator"* dereferenceable(8) %11) #12
  br i1 %61, label %62, label %79

62:                                               ; preds = %57
  %63 = call dereferenceable(56) %"class.social_network::Media"* @_ZNK9__gnu_cxx17__normal_iteratorIPKN14social_network5MediaESt6vectorIS2_SaIS2_EEEdeEv(%"class.__gnu_cxx::__normal_iterator"* %9) #12
  %64 = load %"class.apache::thrift::protocol::TProtocol"*, %"class.apache::thrift::protocol::TProtocol"** %4, align 8
  %65 = bitcast %"class.social_network::Media"* %63 to i32 (%"class.social_network::Media"*, %"class.apache::thrift::protocol::TProtocol"*)***
  %66 = load i32 (%"class.social_network::Media"*, %"class.apache::thrift::protocol::TProtocol"*)**, i32 (%"class.social_network::Media"*, %"class.apache::thrift::protocol::TProtocol"*)*** %65, align 8
  %67 = getelementptr inbounds i32 (%"class.social_network::Media"*, %"class.apache::thrift::protocol::TProtocol"*)*, i32 (%"class.social_network::Media"*, %"class.apache::thrift::protocol::TProtocol"*)** %66, i64 3
  %68 = load i32 (%"class.social_network::Media"*, %"class.apache::thrift::protocol::TProtocol"*)*, i32 (%"class.social_network::Media"*, %"class.apache::thrift::protocol::TProtocol"*)** %67, align 8
  %69 = invoke i32 %68(%"class.social_network::Media"* %63, %"class.apache::thrift::protocol::TProtocol"* %64)
          to label %70 unwind label %75

70:                                               ; preds = %62
  %71 = load i32, i32* %5, align 4
  %72 = add i32 %71, %69
  store i32 %72, i32* %5, align 4
  br label %73

73:                                               ; preds = %70
  %74 = call dereferenceable(8) %"class.__gnu_cxx::__normal_iterator"* @_ZN9__gnu_cxx17__normal_iteratorIPKN14social_network5MediaESt6vectorIS2_SaIS2_EEEppEv(%"class.__gnu_cxx::__normal_iterator"* %9) #12
  br label %57

75:                                               ; preds = %143, %138, %133, %130, %118, %113, %92, %87, %82, %79, %62, %41, %36, %31, %24, %19, %2
  %76 = landingpad { i8*, i32 }
          cleanup
  %77 = extractvalue { i8*, i32 } %76, 0
  store i8* %77, i8** %7, align 8
  %78 = extractvalue { i8*, i32 } %76, 1
  store i32 %78, i32* %8, align 4
  call void @_ZN6apache6thrift8protocol23TOutputRecursionTrackerD2Ev(%"struct.apache::thrift::protocol::TOutputRecursionTracker"* %6) #12
  br label %152

79:                                               ; preds = %57
  %80 = load %"class.apache::thrift::protocol::TProtocol"*, %"class.apache::thrift::protocol::TProtocol"** %4, align 8
  %81 = invoke i32 @_ZN6apache6thrift8protocol9TProtocol12writeListEndEv(%"class.apache::thrift::protocol::TProtocol"* %80)
          to label %82 unwind label %75

82:                                               ; preds = %79
  %83 = load i32, i32* %5, align 4
  %84 = add i32 %83, %81
  store i32 %84, i32* %5, align 4
  %85 = load %"class.apache::thrift::protocol::TProtocol"*, %"class.apache::thrift::protocol::TProtocol"** %4, align 8
  %86 = invoke i32 @_ZN6apache6thrift8protocol9TProtocol13writeFieldEndEv(%"class.apache::thrift::protocol::TProtocol"* %85)
          to label %87 unwind label %75

87:                                               ; preds = %82
  %88 = load i32, i32* %5, align 4
  %89 = add i32 %88, %86
  store i32 %89, i32* %5, align 4
  %90 = load %"class.apache::thrift::protocol::TProtocol"*, %"class.apache::thrift::protocol::TProtocol"** %4, align 8
  %91 = invoke i32 @_ZN6apache6thrift8protocol9TProtocol15writeFieldBeginEPKcNS1_5TTypeEs(%"class.apache::thrift::protocol::TProtocol"* %90, i8* getelementptr inbounds ([8 x i8], [8 x i8]* @.str.3, i64 0, i64 0), i32 13, i16 signext 3)
          to label %92 unwind label %75

92:                                               ; preds = %87
  %93 = load i32, i32* %5, align 4
  %94 = add i32 %93, %91
  store i32 %94, i32* %5, align 4
  %95 = load %"class.apache::thrift::protocol::TProtocol"*, %"class.apache::thrift::protocol::TProtocol"** %4, align 8
  %96 = getelementptr inbounds %"class.social_network::ComposePostService_UploadMedia_args", %"class.social_network::ComposePostService_UploadMedia_args"* %15, i32 0, i32 3
  %97 = call i64 @_ZNKSt3mapINSt7__cxx1112basic_stringIcSt11char_traitsIcESaIcEEES5_St4lessIS5_ESaISt4pairIKS5_S5_EEE4sizeEv(%"class.std::map"* %96) #12
  %98 = trunc i64 %97 to i32
  %99 = invoke i32 @_ZN6apache6thrift8protocol9TProtocol13writeMapBeginENS1_5TTypeES3_j(%"class.apache::thrift::protocol::TProtocol"* %95, i32 11, i32 11, i32 %98)
          to label %100 unwind label %75

100:                                              ; preds = %92
  %101 = load i32, i32* %5, align 4
  %102 = add i32 %101, %99
  store i32 %102, i32* %5, align 4
  call void @_ZNSt23_Rb_tree_const_iteratorISt4pairIKNSt7__cxx1112basic_stringIcSt11char_traitsIcESaIcEEES6_EEC2Ev(%"struct.std::_Rb_tree_const_iterator"* %12) #12
  %103 = getelementptr inbounds %"class.social_network::ComposePostService_UploadMedia_args", %"class.social_network::ComposePostService_UploadMedia_args"* %15, i32 0, i32 3
  %104 = call %"struct.std::_Rb_tree_node_base"* @_ZNKSt3mapINSt7__cxx1112basic_stringIcSt11char_traitsIcESaIcEEES5_St4lessIS5_ESaISt4pairIKS5_S5_EEE5beginEv(%"class.std::map"* %103) #12
  %105 = getelementptr inbounds %"struct.std::_Rb_tree_const_iterator", %"struct.std::_Rb_tree_const_iterator"* %13, i32 0, i32 0
  store %"struct.std::_Rb_tree_node_base"* %104, %"struct.std::_Rb_tree_node_base"** %105, align 8
  %106 = bitcast %"struct.std::_Rb_tree_const_iterator"* %12 to i8*
  %107 = bitcast %"struct.std::_Rb_tree_const_iterator"* %13 to i8*
  call void @llvm.memcpy.p0i8.p0i8.i64(i8* align 8 %106, i8* align 8 %107, i64 8, i1 false)
  br label %108

108:                                              ; preds = %128, %100
  %109 = getelementptr inbounds %"class.social_network::ComposePostService_UploadMedia_args", %"class.social_network::ComposePostService_UploadMedia_args"* %15, i32 0, i32 3
  %110 = call %"struct.std::_Rb_tree_node_base"* @_ZNKSt3mapINSt7__cxx1112basic_stringIcSt11char_traitsIcESaIcEEES5_St4lessIS5_ESaISt4pairIKS5_S5_EEE3endEv(%"class.std::map"* %109) #12
  %111 = getelementptr inbounds %"struct.std::_Rb_tree_const_iterator", %"struct.std::_Rb_tree_const_iterator"* %14, i32 0, i32 0
  store %"struct.std::_Rb_tree_node_base"* %110, %"struct.std::_Rb_tree_node_base"** %111, align 8
  %112 = call zeroext i1 @_ZStneRKSt23_Rb_tree_const_iteratorISt4pairIKNSt7__cxx1112basic_stringIcSt11char_traitsIcESaIcEEES6_EESB_(%"struct.std::_Rb_tree_const_iterator"* dereferenceable(8) %12, %"struct.std::_Rb_tree_const_iterator"* dereferenceable(8) %14) #12
  br i1 %112, label %113, label %130

113:                                              ; preds = %108
  %114 = load %"class.apache::thrift::protocol::TProtocol"*, %"class.apache::thrift::protocol::TProtocol"** %4, align 8
  %115 = call %"struct.std::pair"* @_ZNKSt23_Rb_tree_const_iteratorISt4pairIKNSt7__cxx1112basic_stringIcSt11char_traitsIcESaIcEEES6_EEptEv(%"struct.std::_Rb_tree_const_iterator"* %12) #12
  %116 = getelementptr inbounds %"struct.std::pair", %"struct.std::pair"* %115, i32 0, i32 0
  %117 = invoke i32 @_ZN6apache6thrift8protocol9TProtocol11writeStringERKNSt7__cxx1112basic_stringIcSt11char_traitsIcESaIcEEE(%"class.apache::thrift::protocol::TProtocol"* %114, %"class.std::__cxx11::basic_string"* dereferenceable(32) %116)
          to label %118 unwind label %75

118:                                              ; preds = %113
  %119 = load i32, i32* %5, align 4
  %120 = add i32 %119, %117
  store i32 %120, i32* %5, align 4
  %121 = load %"class.apache::thrift::protocol::TProtocol"*, %"class.apache::thrift::protocol::TProtocol"** %4, align 8
  %122 = call %"struct.std::pair"* @_ZNKSt23_Rb_tree_const_iteratorISt4pairIKNSt7__cxx1112basic_stringIcSt11char_traitsIcESaIcEEES6_EEptEv(%"struct.std::_Rb_tree_const_iterator"* %12) #12
  %123 = getelementptr inbounds %"struct.std::pair", %"struct.std::pair"* %122, i32 0, i32 1
  %124 = invoke i32 @_ZN6apache6thrift8protocol9TProtocol11writeStringERKNSt7__cxx1112basic_stringIcSt11char_traitsIcESaIcEEE(%"class.apache::thrift::protocol::TProtocol"* %121, %"class.std::__cxx11::basic_string"* dereferenceable(32) %123)
          to label %125 unwind label %75

125:                                              ; preds = %118
  %126 = load i32, i32* %5, align 4
  %127 = add i32 %126, %124
  store i32 %127, i32* %5, align 4
  br label %128

128:                                              ; preds = %125
  %129 = call dereferenceable(8) %"struct.std::_Rb_tree_const_iterator"* @_ZNSt23_Rb_tree_const_iteratorISt4pairIKNSt7__cxx1112basic_stringIcSt11char_traitsIcESaIcEEES6_EEppEv(%"struct.std::_Rb_tree_const_iterator"* %12) #12
  br label %108

130:                                              ; preds = %108
  %131 = load %"class.apache::thrift::protocol::TProtocol"*, %"class.apache::thrift::protocol::TProtocol"** %4, align 8
  %132 = invoke i32 @_ZN6apache6thrift8protocol9TProtocol11writeMapEndEv(%"class.apache::thrift::protocol::TProtocol"* %131)
          to label %133 unwind label %75

133:                                              ; preds = %130
  %134 = load i32, i32* %5, align 4
  %135 = add i32 %134, %132
  store i32 %135, i32* %5, align 4
  %136 = load %"class.apache::thrift::protocol::TProtocol"*, %"class.apache::thrift::protocol::TProtocol"** %4, align 8
  %137 = invoke i32 @_ZN6apache6thrift8protocol9TProtocol13writeFieldEndEv(%"class.apache::thrift::protocol::TProtocol"* %136)
          to label %138 unwind label %75

138:                                              ; preds = %133
  %139 = load i32, i32* %5, align 4
  %140 = add i32 %139, %137
  store i32 %140, i32* %5, align 4
  %141 = load %"class.apache::thrift::protocol::TProtocol"*, %"class.apache::thrift::protocol::TProtocol"** %4, align 8
  %142 = invoke i32 @_ZN6apache6thrift8protocol9TProtocol14writeFieldStopEv(%"class.apache::thrift::protocol::TProtocol"* %141)
          to label %143 unwind label %75

143:                                              ; preds = %138
  %144 = load i32, i32* %5, align 4
  %145 = add i32 %144, %142
  store i32 %145, i32* %5, align 4
  %146 = load %"class.apache::thrift::protocol::TProtocol"*, %"class.apache::thrift::protocol::TProtocol"** %4, align 8
  %147 = invoke i32 @_ZN6apache6thrift8protocol9TProtocol14writeStructEndEv(%"class.apache::thrift::protocol::TProtocol"* %146)
          to label %148 unwind label %75

148:                                              ; preds = %143
  %149 = load i32, i32* %5, align 4
  %150 = add i32 %149, %147
  store i32 %150, i32* %5, align 4
  %151 = load i32, i32* %5, align 4
  call void @_ZN6apache6thrift8protocol23TOutputRecursionTrackerD2Ev(%"struct.apache::thrift::protocol::TOutputRecursionTracker"* %6) #12
  ret i32 %151

152:                                              ; preds = %75
  %153 = load i8*, i8** %7, align 8
  %154 = load i32, i32* %8, align 4
  %155 = insertvalue { i8*, i32 } undef, i8* %153, 0
  %156 = insertvalue { i8*, i32 } %155, i32 %154, 1
  resume { i8*, i32 } %156
}

; Function Attrs: noinline optnone uwtable
define linkonce_odr i32 @_ZN6apache6thrift8protocol9TProtocol14writeListBeginENS1_5TTypeEj(%"class.apache::thrift::protocol::TProtocol"* %0, i32 %1, i32 %2) #3 comdat align 2 {
  %4 = alloca %"class.apache::thrift::protocol::TProtocol"*, align 8
  %5 = alloca i32, align 4
  %6 = alloca i32, align 4
  store %"class.apache::thrift::protocol::TProtocol"* %0, %"class.apache::thrift::protocol::TProtocol"** %4, align 8
  store i32 %1, i32* %5, align 4
  store i32 %2, i32* %6, align 4
  %7 = load %"class.apache::thrift::protocol::TProtocol"*, %"class.apache::thrift::protocol::TProtocol"** %4, align 8
  %8 = load i32, i32* %5, align 4
  %9 = load i32, i32* %6, align 4
  %10 = bitcast %"class.apache::thrift::protocol::TProtocol"* %7 to i32 (%"class.apache::thrift::protocol::TProtocol"*, i32, i32)***
  %11 = load i32 (%"class.apache::thrift::protocol::TProtocol"*, i32, i32)**, i32 (%"class.apache::thrift::protocol::TProtocol"*, i32, i32)*** %10, align 8
  %12 = getelementptr inbounds i32 (%"class.apache::thrift::protocol::TProtocol"*, i32, i32)*, i32 (%"class.apache::thrift::protocol::TProtocol"*, i32, i32)** %11, i64 11
  %13 = load i32 (%"class.apache::thrift::protocol::TProtocol"*, i32, i32)*, i32 (%"class.apache::thrift::protocol::TProtocol"*, i32, i32)** %12, align 8
  %14 = call i32 %13(%"class.apache::thrift::protocol::TProtocol"* %7, i32 %8, i32 %9)
  ret i32 %14
}

; Function Attrs: noinline nounwind optnone uwtable
define linkonce_odr i64 @_ZNKSt6vectorIN14social_network5MediaESaIS1_EE4sizeEv(%"class.std::vector"* %0) #0 comdat align 2 {
  %2 = alloca %"class.std::vector"*, align 8
  store %"class.std::vector"* %0, %"class.std::vector"** %2, align 8
  %3 = load %"class.std::vector"*, %"class.std::vector"** %2, align 8
  %4 = bitcast %"class.std::vector"* %3 to %"struct.std::_Vector_base"*
  %5 = getelementptr inbounds %"struct.std::_Vector_base", %"struct.std::_Vector_base"* %4, i32 0, i32 0
  %6 = bitcast %"struct.std::_Vector_base<social_network::Media, std::allocator<social_network::Media> >::_Vector_impl"* %5 to %"struct.std::_Vector_base<social_network::Media, std::allocator<social_network::Media> >::_Vector_impl_data"*
  %7 = getelementptr inbounds %"struct.std::_Vector_base<social_network::Media, std::allocator<social_network::Media> >::_Vector_impl_data", %"struct.std::_Vector_base<social_network::Media, std::allocator<social_network::Media> >::_Vector_impl_data"* %6, i32 0, i32 1
  %8 = load %"class.social_network::Media"*, %"class.social_network::Media"** %7, align 8
  %9 = bitcast %"class.std::vector"* %3 to %"struct.std::_Vector_base"*
  %10 = getelementptr inbounds %"struct.std::_Vector_base", %"struct.std::_Vector_base"* %9, i32 0, i32 0
  %11 = bitcast %"struct.std::_Vector_base<social_network::Media, std::allocator<social_network::Media> >::_Vector_impl"* %10 to %"struct.std::_Vector_base<social_network::Media, std::allocator<social_network::Media> >::_Vector_impl_data"*
  %12 = getelementptr inbounds %"struct.std::_Vector_base<social_network::Media, std::allocator<social_network::Media> >::_Vector_impl_data", %"struct.std::_Vector_base<social_network::Media, std::allocator<social_network::Media> >::_Vector_impl_data"* %11, i32 0, i32 0
  %13 = load %"class.social_network::Media"*, %"class.social_network::Media"** %12, align 8
  %14 = ptrtoint %"class.social_network::Media"* %8 to i64
  %15 = ptrtoint %"class.social_network::Media"* %13 to i64
  %16 = sub i64 %14, %15
  %17 = sdiv exact i64 %16, 56
  ret i64 %17
}

; Function Attrs: noinline nounwind optnone uwtable
define linkonce_odr void @_ZN9__gnu_cxx17__normal_iteratorIPKN14social_network5MediaESt6vectorIS2_SaIS2_EEEC2Ev(%"class.__gnu_cxx::__normal_iterator"* %0) unnamed_addr #0 comdat align 2 {
  %2 = alloca %"class.__gnu_cxx::__normal_iterator"*, align 8
  store %"class.__gnu_cxx::__normal_iterator"* %0, %"class.__gnu_cxx::__normal_iterator"** %2, align 8
  %3 = load %"class.__gnu_cxx::__normal_iterator"*, %"class.__gnu_cxx::__normal_iterator"** %2, align 8
  %4 = getelementptr inbounds %"class.__gnu_cxx::__normal_iterator", %"class.__gnu_cxx::__normal_iterator"* %3, i32 0, i32 0
  store %"class.social_network::Media"* null, %"class.social_network::Media"** %4, align 8
  ret void
}

; Function Attrs: noinline nounwind optnone uwtable
define linkonce_odr %"class.social_network::Media"* @_ZNKSt6vectorIN14social_network5MediaESaIS1_EE5beginEv(%"class.std::vector"* %0) #0 comdat align 2 {
  %2 = alloca %"class.__gnu_cxx::__normal_iterator", align 8
  %3 = alloca %"class.std::vector"*, align 8
  store %"class.std::vector"* %0, %"class.std::vector"** %3, align 8
  %4 = load %"class.std::vector"*, %"class.std::vector"** %3, align 8
  %5 = bitcast %"class.std::vector"* %4 to %"struct.std::_Vector_base"*
  %6 = getelementptr inbounds %"struct.std::_Vector_base", %"struct.std::_Vector_base"* %5, i32 0, i32 0
  %7 = bitcast %"struct.std::_Vector_base<social_network::Media, std::allocator<social_network::Media> >::_Vector_impl"* %6 to %"struct.std::_Vector_base<social_network::Media, std::allocator<social_network::Media> >::_Vector_impl_data"*
  %8 = getelementptr inbounds %"struct.std::_Vector_base<social_network::Media, std::allocator<social_network::Media> >::_Vector_impl_data", %"struct.std::_Vector_base<social_network::Media, std::allocator<social_network::Media> >::_Vector_impl_data"* %7, i32 0, i32 0
  call void @_ZN9__gnu_cxx17__normal_iteratorIPKN14social_network5MediaESt6vectorIS2_SaIS2_EEEC2ERKS4_(%"class.__gnu_cxx::__normal_iterator"* %2, %"class.social_network::Media"** dereferenceable(8) %8) #12
  %9 = getelementptr inbounds %"class.__gnu_cxx::__normal_iterator", %"class.__gnu_cxx::__normal_iterator"* %2, i32 0, i32 0
  %10 = load %"class.social_network::Media"*, %"class.social_network::Media"** %9, align 8
  ret %"class.social_network::Media"* %10
}

; Function Attrs: noinline nounwind optnone uwtable
define linkonce_odr zeroext i1 @_ZN9__gnu_cxxneIPKN14social_network5MediaESt6vectorIS2_SaIS2_EEEEbRKNS_17__normal_iteratorIT_T0_EESD_(%"class.__gnu_cxx::__normal_iterator"* dereferenceable(8) %0, %"class.__gnu_cxx::__normal_iterator"* dereferenceable(8) %1) #0 comdat {
  %3 = alloca %"class.__gnu_cxx::__normal_iterator"*, align 8
  %4 = alloca %"class.__gnu_cxx::__normal_iterator"*, align 8
  store %"class.__gnu_cxx::__normal_iterator"* %0, %"class.__gnu_cxx::__normal_iterator"** %3, align 8
  store %"class.__gnu_cxx::__normal_iterator"* %1, %"class.__gnu_cxx::__normal_iterator"** %4, align 8
  %5 = load %"class.__gnu_cxx::__normal_iterator"*, %"class.__gnu_cxx::__normal_iterator"** %3, align 8
  %6 = call dereferenceable(8) %"class.social_network::Media"** @_ZNK9__gnu_cxx17__normal_iteratorIPKN14social_network5MediaESt6vectorIS2_SaIS2_EEE4baseEv(%"class.__gnu_cxx::__normal_iterator"* %5) #12
  %7 = load %"class.social_network::Media"*, %"class.social_network::Media"** %6, align 8
  %8 = load %"class.__gnu_cxx::__normal_iterator"*, %"class.__gnu_cxx::__normal_iterator"** %4, align 8
  %9 = call dereferenceable(8) %"class.social_network::Media"** @_ZNK9__gnu_cxx17__normal_iteratorIPKN14social_network5MediaESt6vectorIS2_SaIS2_EEE4baseEv(%"class.__gnu_cxx::__normal_iterator"* %8) #12
  %10 = load %"class.social_network::Media"*, %"class.social_network::Media"** %9, align 8
  %11 = icmp ne %"class.social_network::Media"* %7, %10
  ret i1 %11
}

; Function Attrs: noinline nounwind optnone uwtable
define linkonce_odr %"class.social_network::Media"* @_ZNKSt6vectorIN14social_network5MediaESaIS1_EE3endEv(%"class.std::vector"* %0) #0 comdat align 2 {
  %2 = alloca %"class.__gnu_cxx::__normal_iterator", align 8
  %3 = alloca %"class.std::vector"*, align 8
  store %"class.std::vector"* %0, %"class.std::vector"** %3, align 8
  %4 = load %"class.std::vector"*, %"class.std::vector"** %3, align 8
  %5 = bitcast %"class.std::vector"* %4 to %"struct.std::_Vector_base"*
  %6 = getelementptr inbounds %"struct.std::_Vector_base", %"struct.std::_Vector_base"* %5, i32 0, i32 0
  %7 = bitcast %"struct.std::_Vector_base<social_network::Media, std::allocator<social_network::Media> >::_Vector_impl"* %6 to %"struct.std::_Vector_base<social_network::Media, std::allocator<social_network::Media> >::_Vector_impl_data"*
  %8 = getelementptr inbounds %"struct.std::_Vector_base<social_network::Media, std::allocator<social_network::Media> >::_Vector_impl_data", %"struct.std::_Vector_base<social_network::Media, std::allocator<social_network::Media> >::_Vector_impl_data"* %7, i32 0, i32 1
  call void @_ZN9__gnu_cxx17__normal_iteratorIPKN14social_network5MediaESt6vectorIS2_SaIS2_EEEC2ERKS4_(%"class.__gnu_cxx::__normal_iterator"* %2, %"class.social_network::Media"** dereferenceable(8) %8) #12
  %9 = getelementptr inbounds %"class.__gnu_cxx::__normal_iterator", %"class.__gnu_cxx::__normal_iterator"* %2, i32 0, i32 0
  %10 = load %"class.social_network::Media"*, %"class.social_network::Media"** %9, align 8
  ret %"class.social_network::Media"* %10
}

; Function Attrs: noinline nounwind optnone uwtable
define linkonce_odr dereferenceable(56) %"class.social_network::Media"* @_ZNK9__gnu_cxx17__normal_iteratorIPKN14social_network5MediaESt6vectorIS2_SaIS2_EEEdeEv(%"class.__gnu_cxx::__normal_iterator"* %0) #0 comdat align 2 {
  %2 = alloca %"class.__gnu_cxx::__normal_iterator"*, align 8
  store %"class.__gnu_cxx::__normal_iterator"* %0, %"class.__gnu_cxx::__normal_iterator"** %2, align 8
  %3 = load %"class.__gnu_cxx::__normal_iterator"*, %"class.__gnu_cxx::__normal_iterator"** %2, align 8
  %4 = getelementptr inbounds %"class.__gnu_cxx::__normal_iterator", %"class.__gnu_cxx::__normal_iterator"* %3, i32 0, i32 0
  %5 = load %"class.social_network::Media"*, %"class.social_network::Media"** %4, align 8
  ret %"class.social_network::Media"* %5
}

; Function Attrs: noinline nounwind optnone uwtable
define linkonce_odr dereferenceable(8) %"class.__gnu_cxx::__normal_iterator"* @_ZN9__gnu_cxx17__normal_iteratorIPKN14social_network5MediaESt6vectorIS2_SaIS2_EEEppEv(%"class.__gnu_cxx::__normal_iterator"* %0) #0 comdat align 2 {
  %2 = alloca %"class.__gnu_cxx::__normal_iterator"*, align 8
  store %"class.__gnu_cxx::__normal_iterator"* %0, %"class.__gnu_cxx::__normal_iterator"** %2, align 8
  %3 = load %"class.__gnu_cxx::__normal_iterator"*, %"class.__gnu_cxx::__normal_iterator"** %2, align 8
  %4 = getelementptr inbounds %"class.__gnu_cxx::__normal_iterator", %"class.__gnu_cxx::__normal_iterator"* %3, i32 0, i32 0
  %5 = load %"class.social_network::Media"*, %"class.social_network::Media"** %4, align 8
  %6 = getelementptr inbounds %"class.social_network::Media", %"class.social_network::Media"* %5, i32 1
  store %"class.social_network::Media"* %6, %"class.social_network::Media"** %4, align 8
  ret %"class.__gnu_cxx::__normal_iterator"* %3
}

; Function Attrs: noinline optnone uwtable
define linkonce_odr i32 @_ZN6apache6thrift8protocol9TProtocol12writeListEndEv(%"class.apache::thrift::protocol::TProtocol"* %0) #3 comdat align 2 {
  %2 = alloca %"class.apache::thrift::protocol::TProtocol"*, align 8
  store %"class.apache::thrift::protocol::TProtocol"* %0, %"class.apache::thrift::protocol::TProtocol"** %2, align 8
  %3 = load %"class.apache::thrift::protocol::TProtocol"*, %"class.apache::thrift::protocol::TProtocol"** %2, align 8
  %4 = bitcast %"class.apache::thrift::protocol::TProtocol"* %3 to i32 (%"class.apache::thrift::protocol::TProtocol"*)***
  %5 = load i32 (%"class.apache::thrift::protocol::TProtocol"*)**, i32 (%"class.apache::thrift::protocol::TProtocol"*)*** %4, align 8
  %6 = getelementptr inbounds i32 (%"class.apache::thrift::protocol::TProtocol"*)*, i32 (%"class.apache::thrift::protocol::TProtocol"*)** %5, i64 12
  %7 = load i32 (%"class.apache::thrift::protocol::TProtocol"*)*, i32 (%"class.apache::thrift::protocol::TProtocol"*)** %6, align 8
  %8 = call i32 %7(%"class.apache::thrift::protocol::TProtocol"* %3)
  ret i32 %8
}

; Function Attrs: noinline nounwind optnone uwtable
define void @_ZN14social_network36ComposePostService_UploadMedia_pargsD2Ev(%"class.social_network::ComposePostService_UploadMedia_pargs"* %0) unnamed_addr #0 align 2 {
  %2 = alloca %"class.social_network::ComposePostService_UploadMedia_pargs"*, align 8
  store %"class.social_network::ComposePostService_UploadMedia_pargs"* %0, %"class.social_network::ComposePostService_UploadMedia_pargs"** %2, align 8
  %3 = load %"class.social_network::ComposePostService_UploadMedia_pargs"*, %"class.social_network::ComposePostService_UploadMedia_pargs"** %2, align 8
  ret void
}

; Function Attrs: noinline nounwind optnone uwtable
define void @_ZN14social_network36ComposePostService_UploadMedia_pargsD0Ev(%"class.social_network::ComposePostService_UploadMedia_pargs"* %0) unnamed_addr #0 align 2 {
  %2 = alloca %"class.social_network::ComposePostService_UploadMedia_pargs"*, align 8
  store %"class.social_network::ComposePostService_UploadMedia_pargs"* %0, %"class.social_network::ComposePostService_UploadMedia_pargs"** %2, align 8
  %3 = load %"class.social_network::ComposePostService_UploadMedia_pargs"*, %"class.social_network::ComposePostService_UploadMedia_pargs"** %2, align 8
  call void @_ZN14social_network36ComposePostService_UploadMedia_pargsD1Ev(%"class.social_network::ComposePostService_UploadMedia_pargs"* %3) #12
  %4 = bitcast %"class.social_network::ComposePostService_UploadMedia_pargs"* %3 to i8*
  call void @_ZdlPv(i8* %4) #13
  ret void
}

; Function Attrs: noinline optnone uwtable
define i32 @_ZNK14social_network36ComposePostService_UploadMedia_pargs5writeEPN6apache6thrift8protocol9TProtocolE(%"class.social_network::ComposePostService_UploadMedia_pargs"* %0, %"class.apache::thrift::protocol::TProtocol"* %1) #3 align 2 personality i8* bitcast (i32 (...)* @__gxx_personality_v0 to i8*) {
  %3 = alloca %"class.social_network::ComposePostService_UploadMedia_pargs"*, align 8
  %4 = alloca %"class.apache::thrift::protocol::TProtocol"*, align 8
  %5 = alloca i32, align 4
  %6 = alloca %"struct.apache::thrift::protocol::TOutputRecursionTracker", align 8
  %7 = alloca i8*
  %8 = alloca i32
  %9 = alloca %"class.__gnu_cxx::__normal_iterator", align 8
  %10 = alloca %"class.__gnu_cxx::__normal_iterator", align 8
  %11 = alloca %"class.__gnu_cxx::__normal_iterator", align 8
  %12 = alloca %"struct.std::_Rb_tree_const_iterator", align 8
  %13 = alloca %"struct.std::_Rb_tree_const_iterator", align 8
  %14 = alloca %"struct.std::_Rb_tree_const_iterator", align 8
  store %"class.social_network::ComposePostService_UploadMedia_pargs"* %0, %"class.social_network::ComposePostService_UploadMedia_pargs"** %3, align 8
  store %"class.apache::thrift::protocol::TProtocol"* %1, %"class.apache::thrift::protocol::TProtocol"** %4, align 8
  %15 = load %"class.social_network::ComposePostService_UploadMedia_pargs"*, %"class.social_network::ComposePostService_UploadMedia_pargs"** %3, align 8
  store i32 0, i32* %5, align 4
  %16 = load %"class.apache::thrift::protocol::TProtocol"*, %"class.apache::thrift::protocol::TProtocol"** %4, align 8
  call void @_ZN6apache6thrift8protocol23TOutputRecursionTrackerC2ERNS1_9TProtocolE(%"struct.apache::thrift::protocol::TOutputRecursionTracker"* %6, %"class.apache::thrift::protocol::TProtocol"* dereferenceable(40) %16)
  %17 = load %"class.apache::thrift::protocol::TProtocol"*, %"class.apache::thrift::protocol::TProtocol"** %4, align 8
  %18 = invoke i32 @_ZN6apache6thrift8protocol9TProtocol16writeStructBeginEPKc(%"class.apache::thrift::protocol::TProtocol"* %17, i8* getelementptr inbounds ([37 x i8], [37 x i8]* @.str.9, i64 0, i64 0))
          to label %19 unwind label %79

19:                                               ; preds = %2
  %20 = load i32, i32* %5, align 4
  %21 = add i32 %20, %18
  store i32 %21, i32* %5, align 4
  %22 = load %"class.apache::thrift::protocol::TProtocol"*, %"class.apache::thrift::protocol::TProtocol"** %4, align 8
  %23 = invoke i32 @_ZN6apache6thrift8protocol9TProtocol15writeFieldBeginEPKcNS1_5TTypeEs(%"class.apache::thrift::protocol::TProtocol"* %22, i8* getelementptr inbounds ([7 x i8], [7 x i8]* @.str.1, i64 0, i64 0), i32 10, i16 signext 1)
          to label %24 unwind label %79

24:                                               ; preds = %19
  %25 = load i32, i32* %5, align 4
  %26 = add i32 %25, %23
  store i32 %26, i32* %5, align 4
  %27 = load %"class.apache::thrift::protocol::TProtocol"*, %"class.apache::thrift::protocol::TProtocol"** %4, align 8
  %28 = getelementptr inbounds %"class.social_network::ComposePostService_UploadMedia_pargs", %"class.social_network::ComposePostService_UploadMedia_pargs"* %15, i32 0, i32 1
  %29 = load i64*, i64** %28, align 8
  %30 = load i64, i64* %29, align 8
  %31 = invoke i32 @_ZN6apache6thrift8protocol9TProtocol8writeI64El(%"class.apache::thrift::protocol::TProtocol"* %27, i64 %30)
          to label %32 unwind label %79

32:                                               ; preds = %24
  %33 = load i32, i32* %5, align 4
  %34 = add i32 %33, %31
  store i32 %34, i32* %5, align 4
  %35 = load %"class.apache::thrift::protocol::TProtocol"*, %"class.apache::thrift::protocol::TProtocol"** %4, align 8
  %36 = invoke i32 @_ZN6apache6thrift8protocol9TProtocol13writeFieldEndEv(%"class.apache::thrift::protocol::TProtocol"* %35)
          to label %37 unwind label %79

37:                                               ; preds = %32
  %38 = load i32, i32* %5, align 4
  %39 = add i32 %38, %36
  store i32 %39, i32* %5, align 4
  %40 = load %"class.apache::thrift::protocol::TProtocol"*, %"class.apache::thrift::protocol::TProtocol"** %4, align 8
  %41 = invoke i32 @_ZN6apache6thrift8protocol9TProtocol15writeFieldBeginEPKcNS1_5TTypeEs(%"class.apache::thrift::protocol::TProtocol"* %40, i8* getelementptr inbounds ([6 x i8], [6 x i8]* @.str.8, i64 0, i64 0), i32 15, i16 signext 2)
          to label %42 unwind label %79

42:                                               ; preds = %37
  %43 = load i32, i32* %5, align 4
  %44 = add i32 %43, %41
  store i32 %44, i32* %5, align 4
  %45 = load %"class.apache::thrift::protocol::TProtocol"*, %"class.apache::thrift::protocol::TProtocol"** %4, align 8
  %46 = getelementptr inbounds %"class.social_network::ComposePostService_UploadMedia_pargs", %"class.social_network::ComposePostService_UploadMedia_pargs"* %15, i32 0, i32 2
  %47 = load %"class.std::vector"*, %"class.std::vector"** %46, align 8
  %48 = call i64 @_ZNKSt6vectorIN14social_network5MediaESaIS1_EE4sizeEv(%"class.std::vector"* %47) #12
  %49 = trunc i64 %48 to i32
  %50 = invoke i32 @_ZN6apache6thrift8protocol9TProtocol14writeListBeginENS1_5TTypeEj(%"class.apache::thrift::protocol::TProtocol"* %45, i32 12, i32 %49)
          to label %51 unwind label %79

51:                                               ; preds = %42
  %52 = load i32, i32* %5, align 4
  %53 = add i32 %52, %50
  store i32 %53, i32* %5, align 4
  call void @_ZN9__gnu_cxx17__normal_iteratorIPKN14social_network5MediaESt6vectorIS2_SaIS2_EEEC2Ev(%"class.__gnu_cxx::__normal_iterator"* %9) #12
  %54 = getelementptr inbounds %"class.social_network::ComposePostService_UploadMedia_pargs", %"class.social_network::ComposePostService_UploadMedia_pargs"* %15, i32 0, i32 2
  %55 = load %"class.std::vector"*, %"class.std::vector"** %54, align 8
  %56 = call %"class.social_network::Media"* @_ZNKSt6vectorIN14social_network5MediaESaIS1_EE5beginEv(%"class.std::vector"* %55) #12
  %57 = getelementptr inbounds %"class.__gnu_cxx::__normal_iterator", %"class.__gnu_cxx::__normal_iterator"* %10, i32 0, i32 0
  store %"class.social_network::Media"* %56, %"class.social_network::Media"** %57, align 8
  %58 = bitcast %"class.__gnu_cxx::__normal_iterator"* %9 to i8*
  %59 = bitcast %"class.__gnu_cxx::__normal_iterator"* %10 to i8*
  call void @llvm.memcpy.p0i8.p0i8.i64(i8* align 8 %58, i8* align 8 %59, i64 8, i1 false)
  br label %60

60:                                               ; preds = %77, %51
  %61 = getelementptr inbounds %"class.social_network::ComposePostService_UploadMedia_pargs", %"class.social_network::ComposePostService_UploadMedia_pargs"* %15, i32 0, i32 2
  %62 = load %"class.std::vector"*, %"class.std::vector"** %61, align 8
  %63 = call %"class.social_network::Media"* @_ZNKSt6vectorIN14social_network5MediaESaIS1_EE3endEv(%"class.std::vector"* %62) #12
  %64 = getelementptr inbounds %"class.__gnu_cxx::__normal_iterator", %"class.__gnu_cxx::__normal_iterator"* %11, i32 0, i32 0
  store %"class.social_network::Media"* %63, %"class.social_network::Media"** %64, align 8
  %65 = call zeroext i1 @_ZN9__gnu_cxxneIPKN14social_network5MediaESt6vectorIS2_SaIS2_EEEEbRKNS_17__normal_iteratorIT_T0_EESD_(%"class.__gnu_cxx::__normal_iterator"* dereferenceable(8) %9, %"class.__gnu_cxx::__normal_iterator"* dereferenceable(8) %11) #12
  br i1 %65, label %66, label %83

66:                                               ; preds = %60
  %67 = call dereferenceable(56) %"class.social_network::Media"* @_ZNK9__gnu_cxx17__normal_iteratorIPKN14social_network5MediaESt6vectorIS2_SaIS2_EEEdeEv(%"class.__gnu_cxx::__normal_iterator"* %9) #12
  %68 = load %"class.apache::thrift::protocol::TProtocol"*, %"class.apache::thrift::protocol::TProtocol"** %4, align 8
  %69 = bitcast %"class.social_network::Media"* %67 to i32 (%"class.social_network::Media"*, %"class.apache::thrift::protocol::TProtocol"*)***
  %70 = load i32 (%"class.social_network::Media"*, %"class.apache::thrift::protocol::TProtocol"*)**, i32 (%"class.social_network::Media"*, %"class.apache::thrift::protocol::TProtocol"*)*** %69, align 8
  %71 = getelementptr inbounds i32 (%"class.social_network::Media"*, %"class.apache::thrift::protocol::TProtocol"*)*, i32 (%"class.social_network::Media"*, %"class.apache::thrift::protocol::TProtocol"*)** %70, i64 3
  %72 = load i32 (%"class.social_network::Media"*, %"class.apache::thrift::protocol::TProtocol"*)*, i32 (%"class.social_network::Media"*, %"class.apache::thrift::protocol::TProtocol"*)** %71, align 8
  %73 = invoke i32 %72(%"class.social_network::Media"* %67, %"class.apache::thrift::protocol::TProtocol"* %68)
          to label %74 unwind label %79

74:                                               ; preds = %66
  %75 = load i32, i32* %5, align 4
  %76 = add i32 %75, %73
  store i32 %76, i32* %5, align 4
  br label %77

77:                                               ; preds = %74
  %78 = call dereferenceable(8) %"class.__gnu_cxx::__normal_iterator"* @_ZN9__gnu_cxx17__normal_iteratorIPKN14social_network5MediaESt6vectorIS2_SaIS2_EEEppEv(%"class.__gnu_cxx::__normal_iterator"* %9) #12
  br label %60

79:                                               ; preds = %150, %145, %140, %137, %125, %120, %96, %91, %86, %83, %66, %42, %37, %32, %24, %19, %2
  %80 = landingpad { i8*, i32 }
          cleanup
  %81 = extractvalue { i8*, i32 } %80, 0
  store i8* %81, i8** %7, align 8
  %82 = extractvalue { i8*, i32 } %80, 1
  store i32 %82, i32* %8, align 4
  call void @_ZN6apache6thrift8protocol23TOutputRecursionTrackerD2Ev(%"struct.apache::thrift::protocol::TOutputRecursionTracker"* %6) #12
  br label %159

83:                                               ; preds = %60
  %84 = load %"class.apache::thrift::protocol::TProtocol"*, %"class.apache::thrift::protocol::TProtocol"** %4, align 8
  %85 = invoke i32 @_ZN6apache6thrift8protocol9TProtocol12writeListEndEv(%"class.apache::thrift::protocol::TProtocol"* %84)
          to label %86 unwind label %79

86:                                               ; preds = %83
  %87 = load i32, i32* %5, align 4
  %88 = add i32 %87, %85
  store i32 %88, i32* %5, align 4
  %89 = load %"class.apache::thrift::protocol::TProtocol"*, %"class.apache::thrift::protocol::TProtocol"** %4, align 8
  %90 = invoke i32 @_ZN6apache6thrift8protocol9TProtocol13writeFieldEndEv(%"class.apache::thrift::protocol::TProtocol"* %89)
          to label %91 unwind label %79

91:                                               ; preds = %86
  %92 = load i32, i32* %5, align 4
  %93 = add i32 %92, %90
  store i32 %93, i32* %5, align 4
  %94 = load %"class.apache::thrift::protocol::TProtocol"*, %"class.apache::thrift::protocol::TProtocol"** %4, align 8
  %95 = invoke i32 @_ZN6apache6thrift8protocol9TProtocol15writeFieldBeginEPKcNS1_5TTypeEs(%"class.apache::thrift::protocol::TProtocol"* %94, i8* getelementptr inbounds ([8 x i8], [8 x i8]* @.str.3, i64 0, i64 0), i32 13, i16 signext 3)
          to label %96 unwind label %79

96:                                               ; preds = %91
  %97 = load i32, i32* %5, align 4
  %98 = add i32 %97, %95
  store i32 %98, i32* %5, align 4
  %99 = load %"class.apache::thrift::protocol::TProtocol"*, %"class.apache::thrift::protocol::TProtocol"** %4, align 8
  %100 = getelementptr inbounds %"class.social_network::ComposePostService_UploadMedia_pargs", %"class.social_network::ComposePostService_UploadMedia_pargs"* %15, i32 0, i32 3
  %101 = load %"class.std::map"*, %"class.std::map"** %100, align 8
  %102 = call i64 @_ZNKSt3mapINSt7__cxx1112basic_stringIcSt11char_traitsIcESaIcEEES5_St4lessIS5_ESaISt4pairIKS5_S5_EEE4sizeEv(%"class.std::map"* %101) #12
  %103 = trunc i64 %102 to i32
  %104 = invoke i32 @_ZN6apache6thrift8protocol9TProtocol13writeMapBeginENS1_5TTypeES3_j(%"class.apache::thrift::protocol::TProtocol"* %99, i32 11, i32 11, i32 %103)
          to label %105 unwind label %79

105:                                              ; preds = %96
  %106 = load i32, i32* %5, align 4
  %107 = add i32 %106, %104
  store i32 %107, i32* %5, align 4
  call void @_ZNSt23_Rb_tree_const_iteratorISt4pairIKNSt7__cxx1112basic_stringIcSt11char_traitsIcESaIcEEES6_EEC2Ev(%"struct.std::_Rb_tree_const_iterator"* %12) #12
  %108 = getelementptr inbounds %"class.social_network::ComposePostService_UploadMedia_pargs", %"class.social_network::ComposePostService_UploadMedia_pargs"* %15, i32 0, i32 3
  %109 = load %"class.std::map"*, %"class.std::map"** %108, align 8
  %110 = call %"struct.std::_Rb_tree_node_base"* @_ZNKSt3mapINSt7__cxx1112basic_stringIcSt11char_traitsIcESaIcEEES5_St4lessIS5_ESaISt4pairIKS5_S5_EEE5beginEv(%"class.std::map"* %109) #12
  %111 = getelementptr inbounds %"struct.std::_Rb_tree_const_iterator", %"struct.std::_Rb_tree_const_iterator"* %13, i32 0, i32 0
  store %"struct.std::_Rb_tree_node_base"* %110, %"struct.std::_Rb_tree_node_base"** %111, align 8
  %112 = bitcast %"struct.std::_Rb_tree_const_iterator"* %12 to i8*
  %113 = bitcast %"struct.std::_Rb_tree_const_iterator"* %13 to i8*
  call void @llvm.memcpy.p0i8.p0i8.i64(i8* align 8 %112, i8* align 8 %113, i64 8, i1 false)
  br label %114

114:                                              ; preds = %135, %105
  %115 = getelementptr inbounds %"class.social_network::ComposePostService_UploadMedia_pargs", %"class.social_network::ComposePostService_UploadMedia_pargs"* %15, i32 0, i32 3
  %116 = load %"class.std::map"*, %"class.std::map"** %115, align 8
  %117 = call %"struct.std::_Rb_tree_node_base"* @_ZNKSt3mapINSt7__cxx1112basic_stringIcSt11char_traitsIcESaIcEEES5_St4lessIS5_ESaISt4pairIKS5_S5_EEE3endEv(%"class.std::map"* %116) #12
  %118 = getelementptr inbounds %"struct.std::_Rb_tree_const_iterator", %"struct.std::_Rb_tree_const_iterator"* %14, i32 0, i32 0
  store %"struct.std::_Rb_tree_node_base"* %117, %"struct.std::_Rb_tree_node_base"** %118, align 8
  %119 = call zeroext i1 @_ZStneRKSt23_Rb_tree_const_iteratorISt4pairIKNSt7__cxx1112basic_stringIcSt11char_traitsIcESaIcEEES6_EESB_(%"struct.std::_Rb_tree_const_iterator"* dereferenceable(8) %12, %"struct.std::_Rb_tree_const_iterator"* dereferenceable(8) %14) #12
  br i1 %119, label %120, label %137

120:                                              ; preds = %114
  %121 = load %"class.apache::thrift::protocol::TProtocol"*, %"class.apache::thrift::protocol::TProtocol"** %4, align 8
  %122 = call %"struct.std::pair"* @_ZNKSt23_Rb_tree_const_iteratorISt4pairIKNSt7__cxx1112basic_stringIcSt11char_traitsIcESaIcEEES6_EEptEv(%"struct.std::_Rb_tree_const_iterator"* %12) #12
  %123 = getelementptr inbounds %"struct.std::pair", %"struct.std::pair"* %122, i32 0, i32 0
  %124 = invoke i32 @_ZN6apache6thrift8protocol9TProtocol11writeStringERKNSt7__cxx1112basic_stringIcSt11char_traitsIcESaIcEEE(%"class.apache::thrift::protocol::TProtocol"* %121, %"class.std::__cxx11::basic_string"* dereferenceable(32) %123)
          to label %125 unwind label %79

125:                                              ; preds = %120
  %126 = load i32, i32* %5, align 4
  %127 = add i32 %126, %124
  store i32 %127, i32* %5, align 4
  %128 = load %"class.apache::thrift::protocol::TProtocol"*, %"class.apache::thrift::protocol::TProtocol"** %4, align 8
  %129 = call %"struct.std::pair"* @_ZNKSt23_Rb_tree_const_iteratorISt4pairIKNSt7__cxx1112basic_stringIcSt11char_traitsIcESaIcEEES6_EEptEv(%"struct.std::_Rb_tree_const_iterator"* %12) #12
  %130 = getelementptr inbounds %"struct.std::pair", %"struct.std::pair"* %129, i32 0, i32 1
  %131 = invoke i32 @_ZN6apache6thrift8protocol9TProtocol11writeStringERKNSt7__cxx1112basic_stringIcSt11char_traitsIcESaIcEEE(%"class.apache::thrift::protocol::TProtocol"* %128, %"class.std::__cxx11::basic_string"* dereferenceable(32) %130)
          to label %132 unwind label %79

132:                                              ; preds = %125
  %133 = load i32, i32* %5, align 4
  %134 = add i32 %133, %131
  store i32 %134, i32* %5, align 4
  br label %135

135:                                              ; preds = %132
  %136 = call dereferenceable(8) %"struct.std::_Rb_tree_const_iterator"* @_ZNSt23_Rb_tree_const_iteratorISt4pairIKNSt7__cxx1112basic_stringIcSt11char_traitsIcESaIcEEES6_EEppEv(%"struct.std::_Rb_tree_const_iterator"* %12) #12
  br label %114

137:                                              ; preds = %114
  %138 = load %"class.apache::thrift::protocol::TProtocol"*, %"class.apache::thrift::protocol::TProtocol"** %4, align 8
  %139 = invoke i32 @_ZN6apache6thrift8protocol9TProtocol11writeMapEndEv(%"class.apache::thrift::protocol::TProtocol"* %138)
          to label %140 unwind label %79

140:                                              ; preds = %137
  %141 = load i32, i32* %5, align 4
  %142 = add i32 %141, %139
  store i32 %142, i32* %5, align 4
  %143 = load %"class.apache::thrift::protocol::TProtocol"*, %"class.apache::thrift::protocol::TProtocol"** %4, align 8
  %144 = invoke i32 @_ZN6apache6thrift8protocol9TProtocol13writeFieldEndEv(%"class.apache::thrift::protocol::TProtocol"* %143)
          to label %145 unwind label %79

145:                                              ; preds = %140
  %146 = load i32, i32* %5, align 4
  %147 = add i32 %146, %144
  store i32 %147, i32* %5, align 4
  %148 = load %"class.apache::thrift::protocol::TProtocol"*, %"class.apache::thrift::protocol::TProtocol"** %4, align 8
  %149 = invoke i32 @_ZN6apache6thrift8protocol9TProtocol14writeFieldStopEv(%"class.apache::thrift::protocol::TProtocol"* %148)
          to label %150 unwind label %79

150:                                              ; preds = %145
  %151 = load i32, i32* %5, align 4
  %152 = add i32 %151, %149
  store i32 %152, i32* %5, align 4
  %153 = load %"class.apache::thrift::protocol::TProtocol"*, %"class.apache::thrift::protocol::TProtocol"** %4, align 8
  %154 = invoke i32 @_ZN6apache6thrift8protocol9TProtocol14writeStructEndEv(%"class.apache::thrift::protocol::TProtocol"* %153)
          to label %155 unwind label %79

155:                                              ; preds = %150
  %156 = load i32, i32* %5, align 4
  %157 = add i32 %156, %154
  store i32 %157, i32* %5, align 4
  %158 = load i32, i32* %5, align 4
  call void @_ZN6apache6thrift8protocol23TOutputRecursionTrackerD2Ev(%"struct.apache::thrift::protocol::TOutputRecursionTracker"* %6) #12
  ret i32 %158

159:                                              ; preds = %79
  %160 = load i8*, i8** %7, align 8
  %161 = load i32, i32* %8, align 4
  %162 = insertvalue { i8*, i32 } undef, i8* %160, 0
  %163 = insertvalue { i8*, i32 } %162, i32 %161, 1
  resume { i8*, i32 } %163
}

; Function Attrs: noinline nounwind optnone uwtable
define void @_ZN14social_network37ComposePostService_UploadMedia_resultD2Ev(%"class.social_network::ComposePostService_UploadMedia_result"* %0) unnamed_addr #0 align 2 {
  %2 = alloca %"class.social_network::ComposePostService_UploadMedia_result"*, align 8
  store %"class.social_network::ComposePostService_UploadMedia_result"* %0, %"class.social_network::ComposePostService_UploadMedia_result"** %2, align 8
  %3 = load %"class.social_network::ComposePostService_UploadMedia_result"*, %"class.social_network::ComposePostService_UploadMedia_result"** %2, align 8
  %4 = bitcast %"class.social_network::ComposePostService_UploadMedia_result"* %3 to i32 (...)***
  store i32 (...)** bitcast (i8** getelementptr inbounds ({ [4 x i8*] }, { [4 x i8*] }* @_ZTVN14social_network37ComposePostService_UploadMedia_resultE, i32 0, inrange i32 0, i32 2) to i32 (...)**), i32 (...)*** %4, align 8
  %5 = getelementptr inbounds %"class.social_network::ComposePostService_UploadMedia_result", %"class.social_network::ComposePostService_UploadMedia_result"* %3, i32 0, i32 1
  call void @_ZN14social_network16ServiceExceptionD1Ev(%"class.social_network::ServiceException"* %5) #12
  ret void
}

; Function Attrs: noinline nounwind optnone uwtable
define void @_ZN14social_network37ComposePostService_UploadMedia_resultD0Ev(%"class.social_network::ComposePostService_UploadMedia_result"* %0) unnamed_addr #0 align 2 {
  %2 = alloca %"class.social_network::ComposePostService_UploadMedia_result"*, align 8
  store %"class.social_network::ComposePostService_UploadMedia_result"* %0, %"class.social_network::ComposePostService_UploadMedia_result"** %2, align 8
  %3 = load %"class.social_network::ComposePostService_UploadMedia_result"*, %"class.social_network::ComposePostService_UploadMedia_result"** %2, align 8
  call void @_ZN14social_network37ComposePostService_UploadMedia_resultD1Ev(%"class.social_network::ComposePostService_UploadMedia_result"* %3) #12
  %4 = bitcast %"class.social_network::ComposePostService_UploadMedia_result"* %3 to i8*
  call void @_ZdlPv(i8* %4) #13
  ret void
}

; Function Attrs: noinline optnone uwtable
define i32 @_ZN14social_network37ComposePostService_UploadMedia_result4readEPN6apache6thrift8protocol9TProtocolE(%"class.social_network::ComposePostService_UploadMedia_result"* %0, %"class.apache::thrift::protocol::TProtocol"* %1) #3 align 2 personality i8* bitcast (i32 (...)* @__gxx_personality_v0 to i8*) {
  %3 = alloca %"class.social_network::ComposePostService_UploadMedia_result"*, align 8
  %4 = alloca %"class.apache::thrift::protocol::TProtocol"*, align 8
  %5 = alloca %"struct.apache::thrift::protocol::TInputRecursionTracker", align 8
  %6 = alloca i32, align 4
  %7 = alloca %"class.std::__cxx11::basic_string", align 8
  %8 = alloca i32, align 4
  %9 = alloca i16, align 2
  %10 = alloca i8*
  %11 = alloca i32
  store %"class.social_network::ComposePostService_UploadMedia_result"* %0, %"class.social_network::ComposePostService_UploadMedia_result"** %3, align 8
  store %"class.apache::thrift::protocol::TProtocol"* %1, %"class.apache::thrift::protocol::TProtocol"** %4, align 8
  %12 = load %"class.social_network::ComposePostService_UploadMedia_result"*, %"class.social_network::ComposePostService_UploadMedia_result"** %3, align 8
  %13 = load %"class.apache::thrift::protocol::TProtocol"*, %"class.apache::thrift::protocol::TProtocol"** %4, align 8
  call void @_ZN6apache6thrift8protocol22TInputRecursionTrackerC2ERNS1_9TProtocolE(%"struct.apache::thrift::protocol::TInputRecursionTracker"* %5, %"class.apache::thrift::protocol::TProtocol"* dereferenceable(40) %13)
  store i32 0, i32* %6, align 4
  call void @_ZNSt7__cxx1112basic_stringIcSt11char_traitsIcESaIcEEC1Ev(%"class.std::__cxx11::basic_string"* %7) #12
  %14 = load %"class.apache::thrift::protocol::TProtocol"*, %"class.apache::thrift::protocol::TProtocol"** %4, align 8
  %15 = invoke i32 @_ZN6apache6thrift8protocol9TProtocol15readStructBeginERNSt7__cxx1112basic_stringIcSt11char_traitsIcESaIcEEE(%"class.apache::thrift::protocol::TProtocol"* %14, %"class.std::__cxx11::basic_string"* dereferenceable(32) %7)
          to label %16 unwind label %29

16:                                               ; preds = %2
  %17 = load i32, i32* %6, align 4
  %18 = add i32 %17, %15
  store i32 %18, i32* %6, align 4
  br label %19

19:                                               ; preds = %69, %16
  br label %20

20:                                               ; preds = %19
  %21 = load %"class.apache::thrift::protocol::TProtocol"*, %"class.apache::thrift::protocol::TProtocol"** %4, align 8
  %22 = invoke i32 @_ZN6apache6thrift8protocol9TProtocol14readFieldBeginERNSt7__cxx1112basic_stringIcSt11char_traitsIcESaIcEEERNS1_5TTypeERs(%"class.apache::thrift::protocol::TProtocol"* %21, %"class.std::__cxx11::basic_string"* dereferenceable(32) %7, i32* dereferenceable(4) %8, i16* dereferenceable(2) %9)
          to label %23 unwind label %29

23:                                               ; preds = %20
  %24 = load i32, i32* %6, align 4
  %25 = add i32 %24, %22
  store i32 %25, i32* %6, align 4
  %26 = load i32, i32* %8, align 4
  %27 = icmp eq i32 %26, 0
  br i1 %27, label %28, label %33

28:                                               ; preds = %23
  br label %72

29:                                               ; preds = %72, %66, %59, %51, %39, %20, %2
  %30 = landingpad { i8*, i32 }
          cleanup
  %31 = extractvalue { i8*, i32 } %30, 0
  store i8* %31, i8** %10, align 8
  %32 = extractvalue { i8*, i32 } %30, 1
  store i32 %32, i32* %11, align 4
  call void @_ZNSt7__cxx1112basic_stringIcSt11char_traitsIcESaIcEED1Ev(%"class.std::__cxx11::basic_string"* %7) #12
  call void @_ZN6apache6thrift8protocol22TInputRecursionTrackerD2Ev(%"struct.apache::thrift::protocol::TInputRecursionTracker"* %5) #12
  br label %79

33:                                               ; preds = %23
  %34 = load i16, i16* %9, align 2
  %35 = sext i16 %34 to i32
  switch i32 %35, label %59 [
    i32 1, label %36
  ]

36:                                               ; preds = %33
  %37 = load i32, i32* %8, align 4
  %38 = icmp eq i32 %37, 12
  br i1 %38, label %39, label %51

39:                                               ; preds = %36
  %40 = getelementptr inbounds %"class.social_network::ComposePostService_UploadMedia_result", %"class.social_network::ComposePostService_UploadMedia_result"* %12, i32 0, i32 1
  %41 = load %"class.apache::thrift::protocol::TProtocol"*, %"class.apache::thrift::protocol::TProtocol"** %4, align 8
  %42 = invoke i32 @_ZN14social_network16ServiceException4readEPN6apache6thrift8protocol9TProtocolE(%"class.social_network::ServiceException"* %40, %"class.apache::thrift::protocol::TProtocol"* %41)
          to label %43 unwind label %29

43:                                               ; preds = %39
  %44 = load i32, i32* %6, align 4
  %45 = add i32 %44, %42
  store i32 %45, i32* %6, align 4
  %46 = getelementptr inbounds %"class.social_network::ComposePostService_UploadMedia_result", %"class.social_network::ComposePostService_UploadMedia_result"* %12, i32 0, i32 2
  %47 = bitcast %"struct.social_network::_ComposePostService_UploadMedia_result__isset"* %46 to i8*
  %48 = load i8, i8* %47, align 8
  %49 = and i8 %48, -2
  %50 = or i8 %49, 1
  store i8 %50, i8* %47, align 8
  br label %58

51:                                               ; preds = %36
  %52 = load %"class.apache::thrift::protocol::TProtocol"*, %"class.apache::thrift::protocol::TProtocol"** %4, align 8
  %53 = load i32, i32* %8, align 4
  %54 = invoke i32 @_ZN6apache6thrift8protocol9TProtocol4skipENS1_5TTypeE(%"class.apache::thrift::protocol::TProtocol"* %52, i32 %53)
          to label %55 unwind label %29

55:                                               ; preds = %51
  %56 = load i32, i32* %6, align 4
  %57 = add i32 %56, %54
  store i32 %57, i32* %6, align 4
  br label %58

58:                                               ; preds = %55, %43
  br label %66

59:                                               ; preds = %33
  %60 = load %"class.apache::thrift::protocol::TProtocol"*, %"class.apache::thrift::protocol::TProtocol"** %4, align 8
  %61 = load i32, i32* %8, align 4
  %62 = invoke i32 @_ZN6apache6thrift8protocol9TProtocol4skipENS1_5TTypeE(%"class.apache::thrift::protocol::TProtocol"* %60, i32 %61)
          to label %63 unwind label %29

63:                                               ; preds = %59
  %64 = load i32, i32* %6, align 4
  %65 = add i32 %64, %62
  store i32 %65, i32* %6, align 4
  br label %66

66:                                               ; preds = %63, %58
  %67 = load %"class.apache::thrift::protocol::TProtocol"*, %"class.apache::thrift::protocol::TProtocol"** %4, align 8
  %68 = invoke i32 @_ZN6apache6thrift8protocol9TProtocol12readFieldEndEv(%"class.apache::thrift::protocol::TProtocol"* %67)
          to label %69 unwind label %29

69:                                               ; preds = %66
  %70 = load i32, i32* %6, align 4
  %71 = add i32 %70, %68
  store i32 %71, i32* %6, align 4
  br label %19

72:                                               ; preds = %28
  %73 = load %"class.apache::thrift::protocol::TProtocol"*, %"class.apache::thrift::protocol::TProtocol"** %4, align 8
  %74 = invoke i32 @_ZN6apache6thrift8protocol9TProtocol13readStructEndEv(%"class.apache::thrift::protocol::TProtocol"* %73)
          to label %75 unwind label %29

75:                                               ; preds = %72
  %76 = load i32, i32* %6, align 4
  %77 = add i32 %76, %74
  store i32 %77, i32* %6, align 4
  %78 = load i32, i32* %6, align 4
  call void @_ZNSt7__cxx1112basic_stringIcSt11char_traitsIcESaIcEED1Ev(%"class.std::__cxx11::basic_string"* %7) #12
  call void @_ZN6apache6thrift8protocol22TInputRecursionTrackerD2Ev(%"struct.apache::thrift::protocol::TInputRecursionTracker"* %5) #12
  ret i32 %78

79:                                               ; preds = %29
  %80 = load i8*, i8** %10, align 8
  %81 = load i32, i32* %11, align 4
  %82 = insertvalue { i8*, i32 } undef, i8* %80, 0
  %83 = insertvalue { i8*, i32 } %82, i32 %81, 1
  resume { i8*, i32 } %83
}

; Function Attrs: noinline optnone uwtable
define i32 @_ZNK14social_network37ComposePostService_UploadMedia_result5writeEPN6apache6thrift8protocol9TProtocolE(%"class.social_network::ComposePostService_UploadMedia_result"* %0, %"class.apache::thrift::protocol::TProtocol"* %1) #3 align 2 {
  %3 = alloca %"class.social_network::ComposePostService_UploadMedia_result"*, align 8
  %4 = alloca %"class.apache::thrift::protocol::TProtocol"*, align 8
  %5 = alloca i32, align 4
  store %"class.social_network::ComposePostService_UploadMedia_result"* %0, %"class.social_network::ComposePostService_UploadMedia_result"** %3, align 8
  store %"class.apache::thrift::protocol::TProtocol"* %1, %"class.apache::thrift::protocol::TProtocol"** %4, align 8
  %6 = load %"class.social_network::ComposePostService_UploadMedia_result"*, %"class.social_network::ComposePostService_UploadMedia_result"** %3, align 8
  store i32 0, i32* %5, align 4
  %7 = load %"class.apache::thrift::protocol::TProtocol"*, %"class.apache::thrift::protocol::TProtocol"** %4, align 8
  %8 = call i32 @_ZN6apache6thrift8protocol9TProtocol16writeStructBeginEPKc(%"class.apache::thrift::protocol::TProtocol"* %7, i8* getelementptr inbounds ([38 x i8], [38 x i8]* @.str.10, i64 0, i64 0))
  %9 = load i32, i32* %5, align 4
  %10 = add i32 %9, %8
  store i32 %10, i32* %5, align 4
  %11 = getelementptr inbounds %"class.social_network::ComposePostService_UploadMedia_result", %"class.social_network::ComposePostService_UploadMedia_result"* %6, i32 0, i32 2
  %12 = bitcast %"struct.social_network::_ComposePostService_UploadMedia_result__isset"* %11 to i8*
  %13 = load i8, i8* %12, align 8
  %14 = and i8 %13, 1
  %15 = trunc i8 %14 to i1
  br i1 %15, label %16, label %30

16:                                               ; preds = %2
  %17 = load %"class.apache::thrift::protocol::TProtocol"*, %"class.apache::thrift::protocol::TProtocol"** %4, align 8
  %18 = call i32 @_ZN6apache6thrift8protocol9TProtocol15writeFieldBeginEPKcNS1_5TTypeEs(%"class.apache::thrift::protocol::TProtocol"* %17, i8* getelementptr inbounds ([3 x i8], [3 x i8]* @.str.6, i64 0, i64 0), i32 12, i16 signext 1)
  %19 = load i32, i32* %5, align 4
  %20 = add i32 %19, %18
  store i32 %20, i32* %5, align 4
  %21 = getelementptr inbounds %"class.social_network::ComposePostService_UploadMedia_result", %"class.social_network::ComposePostService_UploadMedia_result"* %6, i32 0, i32 1
  %22 = load %"class.apache::thrift::protocol::TProtocol"*, %"class.apache::thrift::protocol::TProtocol"** %4, align 8
  %23 = call i32 @_ZNK14social_network16ServiceException5writeEPN6apache6thrift8protocol9TProtocolE(%"class.social_network::ServiceException"* %21, %"class.apache::thrift::protocol::TProtocol"* %22)
  %24 = load i32, i32* %5, align 4
  %25 = add i32 %24, %23
  store i32 %25, i32* %5, align 4
  %26 = load %"class.apache::thrift::protocol::TProtocol"*, %"class.apache::thrift::protocol::TProtocol"** %4, align 8
  %27 = call i32 @_ZN6apache6thrift8protocol9TProtocol13writeFieldEndEv(%"class.apache::thrift::protocol::TProtocol"* %26)
  %28 = load i32, i32* %5, align 4
  %29 = add i32 %28, %27
  store i32 %29, i32* %5, align 4
  br label %30

30:                                               ; preds = %16, %2
  %31 = load %"class.apache::thrift::protocol::TProtocol"*, %"class.apache::thrift::protocol::TProtocol"** %4, align 8
  %32 = call i32 @_ZN6apache6thrift8protocol9TProtocol14writeFieldStopEv(%"class.apache::thrift::protocol::TProtocol"* %31)
  %33 = load i32, i32* %5, align 4
  %34 = add i32 %33, %32
  store i32 %34, i32* %5, align 4
  %35 = load %"class.apache::thrift::protocol::TProtocol"*, %"class.apache::thrift::protocol::TProtocol"** %4, align 8
  %36 = call i32 @_ZN6apache6thrift8protocol9TProtocol14writeStructEndEv(%"class.apache::thrift::protocol::TProtocol"* %35)
  %37 = load i32, i32* %5, align 4
  %38 = add i32 %37, %36
  store i32 %38, i32* %5, align 4
  %39 = load i32, i32* %5, align 4
  ret i32 %39
}

; Function Attrs: noinline nounwind optnone uwtable
define void @_ZN14social_network38ComposePostService_UploadMedia_presultD2Ev(%"class.social_network::ComposePostService_UploadMedia_presult"* %0) unnamed_addr #0 align 2 {
  %2 = alloca %"class.social_network::ComposePostService_UploadMedia_presult"*, align 8
  store %"class.social_network::ComposePostService_UploadMedia_presult"* %0, %"class.social_network::ComposePostService_UploadMedia_presult"** %2, align 8
  %3 = load %"class.social_network::ComposePostService_UploadMedia_presult"*, %"class.social_network::ComposePostService_UploadMedia_presult"** %2, align 8
  %4 = bitcast %"class.social_network::ComposePostService_UploadMedia_presult"* %3 to i32 (...)***
  store i32 (...)** bitcast (i8** getelementptr inbounds ({ [4 x i8*] }, { [4 x i8*] }* @_ZTVN14social_network38ComposePostService_UploadMedia_presultE, i32 0, inrange i32 0, i32 2) to i32 (...)**), i32 (...)*** %4, align 8
  %5 = getelementptr inbounds %"class.social_network::ComposePostService_UploadMedia_presult", %"class.social_network::ComposePostService_UploadMedia_presult"* %3, i32 0, i32 1
  call void @_ZN14social_network16ServiceExceptionD1Ev(%"class.social_network::ServiceException"* %5) #12
  ret void
}

; Function Attrs: noinline nounwind optnone uwtable
define void @_ZN14social_network38ComposePostService_UploadMedia_presultD0Ev(%"class.social_network::ComposePostService_UploadMedia_presult"* %0) unnamed_addr #0 align 2 {
  %2 = alloca %"class.social_network::ComposePostService_UploadMedia_presult"*, align 8
  store %"class.social_network::ComposePostService_UploadMedia_presult"* %0, %"class.social_network::ComposePostService_UploadMedia_presult"** %2, align 8
  %3 = load %"class.social_network::ComposePostService_UploadMedia_presult"*, %"class.social_network::ComposePostService_UploadMedia_presult"** %2, align 8
  call void @_ZN14social_network38ComposePostService_UploadMedia_presultD1Ev(%"class.social_network::ComposePostService_UploadMedia_presult"* %3) #12
  %4 = bitcast %"class.social_network::ComposePostService_UploadMedia_presult"* %3 to i8*
  call void @_ZdlPv(i8* %4) #13
  ret void
}

; Function Attrs: noinline optnone uwtable
define i32 @_ZN14social_network38ComposePostService_UploadMedia_presult4readEPN6apache6thrift8protocol9TProtocolE(%"class.social_network::ComposePostService_UploadMedia_presult"* %0, %"class.apache::thrift::protocol::TProtocol"* %1) #3 align 2 personality i8* bitcast (i32 (...)* @__gxx_personality_v0 to i8*) {
  %3 = alloca %"class.social_network::ComposePostService_UploadMedia_presult"*, align 8
  %4 = alloca %"class.apache::thrift::protocol::TProtocol"*, align 8
  %5 = alloca %"struct.apache::thrift::protocol::TInputRecursionTracker", align 8
  %6 = alloca i32, align 4
  %7 = alloca %"class.std::__cxx11::basic_string", align 8
  %8 = alloca i32, align 4
  %9 = alloca i16, align 2
  %10 = alloca i8*
  %11 = alloca i32
  store %"class.social_network::ComposePostService_UploadMedia_presult"* %0, %"class.social_network::ComposePostService_UploadMedia_presult"** %3, align 8
  store %"class.apache::thrift::protocol::TProtocol"* %1, %"class.apache::thrift::protocol::TProtocol"** %4, align 8
  %12 = load %"class.social_network::ComposePostService_UploadMedia_presult"*, %"class.social_network::ComposePostService_UploadMedia_presult"** %3, align 8
  %13 = load %"class.apache::thrift::protocol::TProtocol"*, %"class.apache::thrift::protocol::TProtocol"** %4, align 8
  call void @_ZN6apache6thrift8protocol22TInputRecursionTrackerC2ERNS1_9TProtocolE(%"struct.apache::thrift::protocol::TInputRecursionTracker"* %5, %"class.apache::thrift::protocol::TProtocol"* dereferenceable(40) %13)
  store i32 0, i32* %6, align 4
  call void @_ZNSt7__cxx1112basic_stringIcSt11char_traitsIcESaIcEEC1Ev(%"class.std::__cxx11::basic_string"* %7) #12
  %14 = load %"class.apache::thrift::protocol::TProtocol"*, %"class.apache::thrift::protocol::TProtocol"** %4, align 8
  %15 = invoke i32 @_ZN6apache6thrift8protocol9TProtocol15readStructBeginERNSt7__cxx1112basic_stringIcSt11char_traitsIcESaIcEEE(%"class.apache::thrift::protocol::TProtocol"* %14, %"class.std::__cxx11::basic_string"* dereferenceable(32) %7)
          to label %16 unwind label %29

16:                                               ; preds = %2
  %17 = load i32, i32* %6, align 4
  %18 = add i32 %17, %15
  store i32 %18, i32* %6, align 4
  br label %19

19:                                               ; preds = %69, %16
  br label %20

20:                                               ; preds = %19
  %21 = load %"class.apache::thrift::protocol::TProtocol"*, %"class.apache::thrift::protocol::TProtocol"** %4, align 8
  %22 = invoke i32 @_ZN6apache6thrift8protocol9TProtocol14readFieldBeginERNSt7__cxx1112basic_stringIcSt11char_traitsIcESaIcEEERNS1_5TTypeERs(%"class.apache::thrift::protocol::TProtocol"* %21, %"class.std::__cxx11::basic_string"* dereferenceable(32) %7, i32* dereferenceable(4) %8, i16* dereferenceable(2) %9)
          to label %23 unwind label %29

23:                                               ; preds = %20
  %24 = load i32, i32* %6, align 4
  %25 = add i32 %24, %22
  store i32 %25, i32* %6, align 4
  %26 = load i32, i32* %8, align 4
  %27 = icmp eq i32 %26, 0
  br i1 %27, label %28, label %33

28:                                               ; preds = %23
  br label %72

29:                                               ; preds = %72, %66, %59, %51, %39, %20, %2
  %30 = landingpad { i8*, i32 }
          cleanup
  %31 = extractvalue { i8*, i32 } %30, 0
  store i8* %31, i8** %10, align 8
  %32 = extractvalue { i8*, i32 } %30, 1
  store i32 %32, i32* %11, align 4
  call void @_ZNSt7__cxx1112basic_stringIcSt11char_traitsIcESaIcEED1Ev(%"class.std::__cxx11::basic_string"* %7) #12
  call void @_ZN6apache6thrift8protocol22TInputRecursionTrackerD2Ev(%"struct.apache::thrift::protocol::TInputRecursionTracker"* %5) #12
  br label %79

33:                                               ; preds = %23
  %34 = load i16, i16* %9, align 2
  %35 = sext i16 %34 to i32
  switch i32 %35, label %59 [
    i32 1, label %36
  ]

36:                                               ; preds = %33
  %37 = load i32, i32* %8, align 4
  %38 = icmp eq i32 %37, 12
  br i1 %38, label %39, label %51

39:                                               ; preds = %36
  %40 = getelementptr inbounds %"class.social_network::ComposePostService_UploadMedia_presult", %"class.social_network::ComposePostService_UploadMedia_presult"* %12, i32 0, i32 1
  %41 = load %"class.apache::thrift::protocol::TProtocol"*, %"class.apache::thrift::protocol::TProtocol"** %4, align 8
  %42 = invoke i32 @_ZN14social_network16ServiceException4readEPN6apache6thrift8protocol9TProtocolE(%"class.social_network::ServiceException"* %40, %"class.apache::thrift::protocol::TProtocol"* %41)
          to label %43 unwind label %29

43:                                               ; preds = %39
  %44 = load i32, i32* %6, align 4
  %45 = add i32 %44, %42
  store i32 %45, i32* %6, align 4
  %46 = getelementptr inbounds %"class.social_network::ComposePostService_UploadMedia_presult", %"class.social_network::ComposePostService_UploadMedia_presult"* %12, i32 0, i32 2
  %47 = bitcast %"struct.social_network::_ComposePostService_UploadMedia_presult__isset"* %46 to i8*
  %48 = load i8, i8* %47, align 8
  %49 = and i8 %48, -2
  %50 = or i8 %49, 1
  store i8 %50, i8* %47, align 8
  br label %58

51:                                               ; preds = %36
  %52 = load %"class.apache::thrift::protocol::TProtocol"*, %"class.apache::thrift::protocol::TProtocol"** %4, align 8
  %53 = load i32, i32* %8, align 4
  %54 = invoke i32 @_ZN6apache6thrift8protocol9TProtocol4skipENS1_5TTypeE(%"class.apache::thrift::protocol::TProtocol"* %52, i32 %53)
          to label %55 unwind label %29

55:                                               ; preds = %51
  %56 = load i32, i32* %6, align 4
  %57 = add i32 %56, %54
  store i32 %57, i32* %6, align 4
  br label %58

58:                                               ; preds = %55, %43
  br label %66

59:                                               ; preds = %33
  %60 = load %"class.apache::thrift::protocol::TProtocol"*, %"class.apache::thrift::protocol::TProtocol"** %4, align 8
  %61 = load i32, i32* %8, align 4
  %62 = invoke i32 @_ZN6apache6thrift8protocol9TProtocol4skipENS1_5TTypeE(%"class.apache::thrift::protocol::TProtocol"* %60, i32 %61)
          to label %63 unwind label %29

63:                                               ; preds = %59
  %64 = load i32, i32* %6, align 4
  %65 = add i32 %64, %62
  store i32 %65, i32* %6, align 4
  br label %66

66:                                               ; preds = %63, %58
  %67 = load %"class.apache::thrift::protocol::TProtocol"*, %"class.apache::thrift::protocol::TProtocol"** %4, align 8
  %68 = invoke i32 @_ZN6apache6thrift8protocol9TProtocol12readFieldEndEv(%"class.apache::thrift::protocol::TProtocol"* %67)
          to label %69 unwind label %29

69:                                               ; preds = %66
  %70 = load i32, i32* %6, align 4
  %71 = add i32 %70, %68
  store i32 %71, i32* %6, align 4
  br label %19

72:                                               ; preds = %28
  %73 = load %"class.apache::thrift::protocol::TProtocol"*, %"class.apache::thrift::protocol::TProtocol"** %4, align 8
  %74 = invoke i32 @_ZN6apache6thrift8protocol9TProtocol13readStructEndEv(%"class.apache::thrift::protocol::TProtocol"* %73)
          to label %75 unwind label %29

75:                                               ; preds = %72
  %76 = load i32, i32* %6, align 4
  %77 = add i32 %76, %74
  store i32 %77, i32* %6, align 4
  %78 = load i32, i32* %6, align 4
  call void @_ZNSt7__cxx1112basic_stringIcSt11char_traitsIcESaIcEED1Ev(%"class.std::__cxx11::basic_string"* %7) #12
  call void @_ZN6apache6thrift8protocol22TInputRecursionTrackerD2Ev(%"struct.apache::thrift::protocol::TInputRecursionTracker"* %5) #12
  ret i32 %78

79:                                               ; preds = %29
  %80 = load i8*, i8** %10, align 8
  %81 = load i32, i32* %11, align 4
  %82 = insertvalue { i8*, i32 } undef, i8* %80, 0
  %83 = insertvalue { i8*, i32 } %82, i32 %81, 1
  resume { i8*, i32 } %83
}

; Function Attrs: noinline nounwind optnone uwtable
define void @_ZN14social_network38ComposePostService_UploadUniqueId_argsD2Ev(%"class.social_network::ComposePostService_UploadUniqueId_args"* %0) unnamed_addr #0 align 2 {
  %2 = alloca %"class.social_network::ComposePostService_UploadUniqueId_args"*, align 8
  store %"class.social_network::ComposePostService_UploadUniqueId_args"* %0, %"class.social_network::ComposePostService_UploadUniqueId_args"** %2, align 8
  %3 = load %"class.social_network::ComposePostService_UploadUniqueId_args"*, %"class.social_network::ComposePostService_UploadUniqueId_args"** %2, align 8
  %4 = bitcast %"class.social_network::ComposePostService_UploadUniqueId_args"* %3 to i32 (...)***
  store i32 (...)** bitcast (i8** getelementptr inbounds ({ [4 x i8*] }, { [4 x i8*] }* @_ZTVN14social_network38ComposePostService_UploadUniqueId_argsE, i32 0, inrange i32 0, i32 2) to i32 (...)**), i32 (...)*** %4, align 8
  %5 = getelementptr inbounds %"class.social_network::ComposePostService_UploadUniqueId_args", %"class.social_network::ComposePostService_UploadUniqueId_args"* %3, i32 0, i32 5
  call void @_ZNSt3mapINSt7__cxx1112basic_stringIcSt11char_traitsIcESaIcEEES5_St4lessIS5_ESaISt4pairIKS5_S5_EEED2Ev(%"class.std::map"* %5) #12
  ret void
}

; Function Attrs: noinline nounwind optnone uwtable
define void @_ZN14social_network38ComposePostService_UploadUniqueId_argsD0Ev(%"class.social_network::ComposePostService_UploadUniqueId_args"* %0) unnamed_addr #0 align 2 {
  %2 = alloca %"class.social_network::ComposePostService_UploadUniqueId_args"*, align 8
  store %"class.social_network::ComposePostService_UploadUniqueId_args"* %0, %"class.social_network::ComposePostService_UploadUniqueId_args"** %2, align 8
  %3 = load %"class.social_network::ComposePostService_UploadUniqueId_args"*, %"class.social_network::ComposePostService_UploadUniqueId_args"** %2, align 8
  call void @_ZN14social_network38ComposePostService_UploadUniqueId_argsD1Ev(%"class.social_network::ComposePostService_UploadUniqueId_args"* %3) #12
  %4 = bitcast %"class.social_network::ComposePostService_UploadUniqueId_args"* %3 to i8*
  call void @_ZdlPv(i8* %4) #13
  ret void
}

; Function Attrs: noinline optnone uwtable
define i32 @_ZN14social_network38ComposePostService_UploadUniqueId_args4readEPN6apache6thrift8protocol9TProtocolE(%"class.social_network::ComposePostService_UploadUniqueId_args"* %0, %"class.apache::thrift::protocol::TProtocol"* %1) #3 align 2 personality i8* bitcast (i32 (...)* @__gxx_personality_v0 to i8*) {
  %3 = alloca %"class.social_network::ComposePostService_UploadUniqueId_args"*, align 8
  %4 = alloca %"class.apache::thrift::protocol::TProtocol"*, align 8
  %5 = alloca %"struct.apache::thrift::protocol::TInputRecursionTracker", align 8
  %6 = alloca i32, align 4
  %7 = alloca %"class.std::__cxx11::basic_string", align 8
  %8 = alloca i32, align 4
  %9 = alloca i16, align 2
  %10 = alloca i8*
  %11 = alloca i32
  %12 = alloca i32, align 4
  %13 = alloca i32, align 4
  %14 = alloca i32, align 4
  %15 = alloca i32, align 4
  %16 = alloca i32, align 4
  %17 = alloca %"class.std::__cxx11::basic_string", align 8
  %18 = alloca %"class.std::__cxx11::basic_string"*, align 8
  store %"class.social_network::ComposePostService_UploadUniqueId_args"* %0, %"class.social_network::ComposePostService_UploadUniqueId_args"** %3, align 8
  store %"class.apache::thrift::protocol::TProtocol"* %1, %"class.apache::thrift::protocol::TProtocol"** %4, align 8
  %19 = load %"class.social_network::ComposePostService_UploadUniqueId_args"*, %"class.social_network::ComposePostService_UploadUniqueId_args"** %3, align 8
  %20 = load %"class.apache::thrift::protocol::TProtocol"*, %"class.apache::thrift::protocol::TProtocol"** %4, align 8
  call void @_ZN6apache6thrift8protocol22TInputRecursionTrackerC2ERNS1_9TProtocolE(%"struct.apache::thrift::protocol::TInputRecursionTracker"* %5, %"class.apache::thrift::protocol::TProtocol"* dereferenceable(40) %20)
  store i32 0, i32* %6, align 4
  call void @_ZNSt7__cxx1112basic_stringIcSt11char_traitsIcESaIcEEC1Ev(%"class.std::__cxx11::basic_string"* %7) #12
  %21 = load %"class.apache::thrift::protocol::TProtocol"*, %"class.apache::thrift::protocol::TProtocol"** %4, align 8
  %22 = invoke i32 @_ZN6apache6thrift8protocol9TProtocol15readStructBeginERNSt7__cxx1112basic_stringIcSt11char_traitsIcESaIcEEE(%"class.apache::thrift::protocol::TProtocol"* %21, %"class.std::__cxx11::basic_string"* dereferenceable(32) %7)
          to label %23 unwind label %36

23:                                               ; preds = %2
  %24 = load i32, i32* %6, align 4
  %25 = add i32 %24, %22
  store i32 %25, i32* %6, align 4
  br label %26

26:                                               ; preds = %178, %23
  br label %27

27:                                               ; preds = %26
  %28 = load %"class.apache::thrift::protocol::TProtocol"*, %"class.apache::thrift::protocol::TProtocol"** %4, align 8
  %29 = invoke i32 @_ZN6apache6thrift8protocol9TProtocol14readFieldBeginERNSt7__cxx1112basic_stringIcSt11char_traitsIcESaIcEEERNS1_5TTypeERs(%"class.apache::thrift::protocol::TProtocol"* %28, %"class.std::__cxx11::basic_string"* dereferenceable(32) %7, i32* dereferenceable(4) %8, i16* dereferenceable(2) %9)
          to label %30 unwind label %36

30:                                               ; preds = %27
  %31 = load i32, i32* %6, align 4
  %32 = add i32 %31, %29
  store i32 %32, i32* %6, align 4
  %33 = load i32, i32* %8, align 4
  %34 = icmp eq i32 %33, 0
  br i1 %34, label %35, label %40

35:                                               ; preds = %30
  br label %181

36:                                               ; preds = %181, %175, %168, %160, %149, %116, %105, %92, %81, %69, %58, %46, %27, %2
  %37 = landingpad { i8*, i32 }
          cleanup
  %38 = extractvalue { i8*, i32 } %37, 0
  store i8* %38, i8** %10, align 8
  %39 = extractvalue { i8*, i32 } %37, 1
  store i32 %39, i32* %11, align 4
  br label %188

40:                                               ; preds = %30
  %41 = load i16, i16* %9, align 2
  %42 = sext i16 %41 to i32
  switch i32 %42, label %168 [
    i32 1, label %43
    i32 2, label %66
    i32 3, label %89
    i32 4, label %113
  ]

43:                                               ; preds = %40
  %44 = load i32, i32* %8, align 4
  %45 = icmp eq i32 %44, 10
  br i1 %45, label %46, label %58

46:                                               ; preds = %43
  %47 = load %"class.apache::thrift::protocol::TProtocol"*, %"class.apache::thrift::protocol::TProtocol"** %4, align 8
  %48 = getelementptr inbounds %"class.social_network::ComposePostService_UploadUniqueId_args", %"class.social_network::ComposePostService_UploadUniqueId_args"* %19, i32 0, i32 1
  %49 = invoke i32 @_ZN6apache6thrift8protocol9TProtocol7readI64ERl(%"class.apache::thrift::protocol::TProtocol"* %47, i64* dereferenceable(8) %48)
          to label %50 unwind label %36

50:                                               ; preds = %46
  %51 = load i32, i32* %6, align 4
  %52 = add i32 %51, %49
  store i32 %52, i32* %6, align 4
  %53 = getelementptr inbounds %"class.social_network::ComposePostService_UploadUniqueId_args", %"class.social_network::ComposePostService_UploadUniqueId_args"* %19, i32 0, i32 6
  %54 = bitcast %"struct.social_network::_ComposePostService_UploadUniqueId_args__isset"* %53 to i8*
  %55 = load i8, i8* %54, align 8
  %56 = and i8 %55, -2
  %57 = or i8 %56, 1
  store i8 %57, i8* %54, align 8
  br label %65

58:                                               ; preds = %43
  %59 = load %"class.apache::thrift::protocol::TProtocol"*, %"class.apache::thrift::protocol::TProtocol"** %4, align 8
  %60 = load i32, i32* %8, align 4
  %61 = invoke i32 @_ZN6apache6thrift8protocol9TProtocol4skipENS1_5TTypeE(%"class.apache::thrift::protocol::TProtocol"* %59, i32 %60)
          to label %62 unwind label %36

62:                                               ; preds = %58
  %63 = load i32, i32* %6, align 4
  %64 = add i32 %63, %61
  store i32 %64, i32* %6, align 4
  br label %65

65:                                               ; preds = %62, %50
  br label %175

66:                                               ; preds = %40
  %67 = load i32, i32* %8, align 4
  %68 = icmp eq i32 %67, 10
  br i1 %68, label %69, label %81

69:                                               ; preds = %66
  %70 = load %"class.apache::thrift::protocol::TProtocol"*, %"class.apache::thrift::protocol::TProtocol"** %4, align 8
  %71 = getelementptr inbounds %"class.social_network::ComposePostService_UploadUniqueId_args", %"class.social_network::ComposePostService_UploadUniqueId_args"* %19, i32 0, i32 2
  %72 = invoke i32 @_ZN6apache6thrift8protocol9TProtocol7readI64ERl(%"class.apache::thrift::protocol::TProtocol"* %70, i64* dereferenceable(8) %71)
          to label %73 unwind label %36

73:                                               ; preds = %69
  %74 = load i32, i32* %6, align 4
  %75 = add i32 %74, %72
  store i32 %75, i32* %6, align 4
  %76 = getelementptr inbounds %"class.social_network::ComposePostService_UploadUniqueId_args", %"class.social_network::ComposePostService_UploadUniqueId_args"* %19, i32 0, i32 6
  %77 = bitcast %"struct.social_network::_ComposePostService_UploadUniqueId_args__isset"* %76 to i8*
  %78 = load i8, i8* %77, align 8
  %79 = and i8 %78, -3
  %80 = or i8 %79, 2
  store i8 %80, i8* %77, align 8
  br label %88

81:                                               ; preds = %66
  %82 = load %"class.apache::thrift::protocol::TProtocol"*, %"class.apache::thrift::protocol::TProtocol"** %4, align 8
  %83 = load i32, i32* %8, align 4
  %84 = invoke i32 @_ZN6apache6thrift8protocol9TProtocol4skipENS1_5TTypeE(%"class.apache::thrift::protocol::TProtocol"* %82, i32 %83)
          to label %85 unwind label %36

85:                                               ; preds = %81
  %86 = load i32, i32* %6, align 4
  %87 = add i32 %86, %84
  store i32 %87, i32* %6, align 4
  br label %88

88:                                               ; preds = %85, %73
  br label %175

89:                                               ; preds = %40
  %90 = load i32, i32* %8, align 4
  %91 = icmp eq i32 %90, 8
  br i1 %91, label %92, label %105

92:                                               ; preds = %89
  %93 = load %"class.apache::thrift::protocol::TProtocol"*, %"class.apache::thrift::protocol::TProtocol"** %4, align 8
  %94 = invoke i32 @_ZN6apache6thrift8protocol9TProtocol7readI32ERi(%"class.apache::thrift::protocol::TProtocol"* %93, i32* dereferenceable(4) %12)
          to label %95 unwind label %36

95:                                               ; preds = %92
  %96 = load i32, i32* %6, align 4
  %97 = add i32 %96, %94
  store i32 %97, i32* %6, align 4
  %98 = load i32, i32* %12, align 4
  %99 = getelementptr inbounds %"class.social_network::ComposePostService_UploadUniqueId_args", %"class.social_network::ComposePostService_UploadUniqueId_args"* %19, i32 0, i32 3
  store i32 %98, i32* %99, align 8
  %100 = getelementptr inbounds %"class.social_network::ComposePostService_UploadUniqueId_args", %"class.social_network::ComposePostService_UploadUniqueId_args"* %19, i32 0, i32 6
  %101 = bitcast %"struct.social_network::_ComposePostService_UploadUniqueId_args__isset"* %100 to i8*
  %102 = load i8, i8* %101, align 8
  %103 = and i8 %102, -5
  %104 = or i8 %103, 4
  store i8 %104, i8* %101, align 8
  br label %112

105:                                              ; preds = %89
  %106 = load %"class.apache::thrift::protocol::TProtocol"*, %"class.apache::thrift::protocol::TProtocol"** %4, align 8
  %107 = load i32, i32* %8, align 4
  %108 = invoke i32 @_ZN6apache6thrift8protocol9TProtocol4skipENS1_5TTypeE(%"class.apache::thrift::protocol::TProtocol"* %106, i32 %107)
          to label %109 unwind label %36

109:                                              ; preds = %105
  %110 = load i32, i32* %6, align 4
  %111 = add i32 %110, %108
  store i32 %111, i32* %6, align 4
  br label %112

112:                                              ; preds = %109, %95
  br label %175

113:                                              ; preds = %40
  %114 = load i32, i32* %8, align 4
  %115 = icmp eq i32 %114, 13
  br i1 %115, label %116, label %160

116:                                              ; preds = %113
  %117 = getelementptr inbounds %"class.social_network::ComposePostService_UploadUniqueId_args", %"class.social_network::ComposePostService_UploadUniqueId_args"* %19, i32 0, i32 5
  call void @_ZNSt3mapINSt7__cxx1112basic_stringIcSt11char_traitsIcESaIcEEES5_St4lessIS5_ESaISt4pairIKS5_S5_EEE5clearEv(%"class.std::map"* %117) #12
  %118 = load %"class.apache::thrift::protocol::TProtocol"*, %"class.apache::thrift::protocol::TProtocol"** %4, align 8
  %119 = invoke i32 @_ZN6apache6thrift8protocol9TProtocol12readMapBeginERNS1_5TTypeES4_Rj(%"class.apache::thrift::protocol::TProtocol"* %118, i32* dereferenceable(4) %14, i32* dereferenceable(4) %15, i32* dereferenceable(4) %13)
          to label %120 unwind label %36

120:                                              ; preds = %116
  %121 = load i32, i32* %6, align 4
  %122 = add i32 %121, %119
  store i32 %122, i32* %6, align 4
  store i32 0, i32* %16, align 4
  br label %123

123:                                              ; preds = %142, %120
  %124 = load i32, i32* %16, align 4
  %125 = load i32, i32* %13, align 4
  %126 = icmp ult i32 %124, %125
  br i1 %126, label %127, label %149

127:                                              ; preds = %123
  call void @_ZNSt7__cxx1112basic_stringIcSt11char_traitsIcESaIcEEC1Ev(%"class.std::__cxx11::basic_string"* %17) #12
  %128 = load %"class.apache::thrift::protocol::TProtocol"*, %"class.apache::thrift::protocol::TProtocol"** %4, align 8
  %129 = invoke i32 @_ZN6apache6thrift8protocol9TProtocol10readStringERNSt7__cxx1112basic_stringIcSt11char_traitsIcESaIcEEE(%"class.apache::thrift::protocol::TProtocol"* %128, %"class.std::__cxx11::basic_string"* dereferenceable(32) %17)
          to label %130 unwind label %145

130:                                              ; preds = %127
  %131 = load i32, i32* %6, align 4
  %132 = add i32 %131, %129
  store i32 %132, i32* %6, align 4
  %133 = getelementptr inbounds %"class.social_network::ComposePostService_UploadUniqueId_args", %"class.social_network::ComposePostService_UploadUniqueId_args"* %19, i32 0, i32 5
  %134 = invoke dereferenceable(32) %"class.std::__cxx11::basic_string"* @_ZNSt3mapINSt7__cxx1112basic_stringIcSt11char_traitsIcESaIcEEES5_St4lessIS5_ESaISt4pairIKS5_S5_EEEixERS9_(%"class.std::map"* %133, %"class.std::__cxx11::basic_string"* dereferenceable(32) %17)
          to label %135 unwind label %145

135:                                              ; preds = %130
  store %"class.std::__cxx11::basic_string"* %134, %"class.std::__cxx11::basic_string"** %18, align 8
  %136 = load %"class.apache::thrift::protocol::TProtocol"*, %"class.apache::thrift::protocol::TProtocol"** %4, align 8
  %137 = load %"class.std::__cxx11::basic_string"*, %"class.std::__cxx11::basic_string"** %18, align 8
  %138 = invoke i32 @_ZN6apache6thrift8protocol9TProtocol10readStringERNSt7__cxx1112basic_stringIcSt11char_traitsIcESaIcEEE(%"class.apache::thrift::protocol::TProtocol"* %136, %"class.std::__cxx11::basic_string"* dereferenceable(32) %137)
          to label %139 unwind label %145

139:                                              ; preds = %135
  %140 = load i32, i32* %6, align 4
  %141 = add i32 %140, %138
  store i32 %141, i32* %6, align 4
  call void @_ZNSt7__cxx1112basic_stringIcSt11char_traitsIcESaIcEED1Ev(%"class.std::__cxx11::basic_string"* %17) #12
  br label %142

142:                                              ; preds = %139
  %143 = load i32, i32* %16, align 4
  %144 = add i32 %143, 1
  store i32 %144, i32* %16, align 4
  br label %123

145:                                              ; preds = %135, %130, %127
  %146 = landingpad { i8*, i32 }
          cleanup
  %147 = extractvalue { i8*, i32 } %146, 0
  store i8* %147, i8** %10, align 8
  %148 = extractvalue { i8*, i32 } %146, 1
  store i32 %148, i32* %11, align 4
  call void @_ZNSt7__cxx1112basic_stringIcSt11char_traitsIcESaIcEED1Ev(%"class.std::__cxx11::basic_string"* %17) #12
  br label %188

149:                                              ; preds = %123
  %150 = load %"class.apache::thrift::protocol::TProtocol"*, %"class.apache::thrift::protocol::TProtocol"** %4, align 8
  %151 = invoke i32 @_ZN6apache6thrift8protocol9TProtocol10readMapEndEv(%"class.apache::thrift::protocol::TProtocol"* %150)
          to label %152 unwind label %36

152:                                              ; preds = %149
  %153 = load i32, i32* %6, align 4
  %154 = add i32 %153, %151
  store i32 %154, i32* %6, align 4
  %155 = getelementptr inbounds %"class.social_network::ComposePostService_UploadUniqueId_args", %"class.social_network::ComposePostService_UploadUniqueId_args"* %19, i32 0, i32 6
  %156 = bitcast %"struct.social_network::_ComposePostService_UploadUniqueId_args__isset"* %155 to i8*
  %157 = load i8, i8* %156, align 8
  %158 = and i8 %157, -9
  %159 = or i8 %158, 8
  store i8 %159, i8* %156, align 8
  br label %167

160:                                              ; preds = %113
  %161 = load %"class.apache::thrift::protocol::TProtocol"*, %"class.apache::thrift::protocol::TProtocol"** %4, align 8
  %162 = load i32, i32* %8, align 4
  %163 = invoke i32 @_ZN6apache6thrift8protocol9TProtocol4skipENS1_5TTypeE(%"class.apache::thrift::protocol::TProtocol"* %161, i32 %162)
          to label %164 unwind label %36

164:                                              ; preds = %160
  %165 = load i32, i32* %6, align 4
  %166 = add i32 %165, %163
  store i32 %166, i32* %6, align 4
  br label %167

167:                                              ; preds = %164, %152
  br label %175

168:                                              ; preds = %40
  %169 = load %"class.apache::thrift::protocol::TProtocol"*, %"class.apache::thrift::protocol::TProtocol"** %4, align 8
  %170 = load i32, i32* %8, align 4
  %171 = invoke i32 @_ZN6apache6thrift8protocol9TProtocol4skipENS1_5TTypeE(%"class.apache::thrift::protocol::TProtocol"* %169, i32 %170)
          to label %172 unwind label %36

172:                                              ; preds = %168
  %173 = load i32, i32* %6, align 4
  %174 = add i32 %173, %171
  store i32 %174, i32* %6, align 4
  br label %175

175:                                              ; preds = %172, %167, %112, %88, %65
  %176 = load %"class.apache::thrift::protocol::TProtocol"*, %"class.apache::thrift::protocol::TProtocol"** %4, align 8
  %177 = invoke i32 @_ZN6apache6thrift8protocol9TProtocol12readFieldEndEv(%"class.apache::thrift::protocol::TProtocol"* %176)
          to label %178 unwind label %36

178:                                              ; preds = %175
  %179 = load i32, i32* %6, align 4
  %180 = add i32 %179, %177
  store i32 %180, i32* %6, align 4
  br label %26

181:                                              ; preds = %35
  %182 = load %"class.apache::thrift::protocol::TProtocol"*, %"class.apache::thrift::protocol::TProtocol"** %4, align 8
  %183 = invoke i32 @_ZN6apache6thrift8protocol9TProtocol13readStructEndEv(%"class.apache::thrift::protocol::TProtocol"* %182)
          to label %184 unwind label %36

184:                                              ; preds = %181
  %185 = load i32, i32* %6, align 4
  %186 = add i32 %185, %183
  store i32 %186, i32* %6, align 4
  %187 = load i32, i32* %6, align 4
  call void @_ZNSt7__cxx1112basic_stringIcSt11char_traitsIcESaIcEED1Ev(%"class.std::__cxx11::basic_string"* %7) #12
  call void @_ZN6apache6thrift8protocol22TInputRecursionTrackerD2Ev(%"struct.apache::thrift::protocol::TInputRecursionTracker"* %5) #12
  ret i32 %187

188:                                              ; preds = %145, %36
  call void @_ZNSt7__cxx1112basic_stringIcSt11char_traitsIcESaIcEED1Ev(%"class.std::__cxx11::basic_string"* %7) #12
  call void @_ZN6apache6thrift8protocol22TInputRecursionTrackerD2Ev(%"struct.apache::thrift::protocol::TInputRecursionTracker"* %5) #12
  br label %189

189:                                              ; preds = %188
  %190 = load i8*, i8** %10, align 8
  %191 = load i32, i32* %11, align 4
  %192 = insertvalue { i8*, i32 } undef, i8* %190, 0
  %193 = insertvalue { i8*, i32 } %192, i32 %191, 1
  resume { i8*, i32 } %193
}

; Function Attrs: noinline optnone uwtable
define linkonce_odr i32 @_ZN6apache6thrift8protocol9TProtocol7readI32ERi(%"class.apache::thrift::protocol::TProtocol"* %0, i32* dereferenceable(4) %1) #3 comdat align 2 {
  %3 = alloca %"class.apache::thrift::protocol::TProtocol"*, align 8
  %4 = alloca i32*, align 8
  store %"class.apache::thrift::protocol::TProtocol"* %0, %"class.apache::thrift::protocol::TProtocol"** %3, align 8
  store i32* %1, i32** %4, align 8
  %5 = load %"class.apache::thrift::protocol::TProtocol"*, %"class.apache::thrift::protocol::TProtocol"** %3, align 8
  %6 = load i32*, i32** %4, align 8
  %7 = bitcast %"class.apache::thrift::protocol::TProtocol"* %5 to i32 (%"class.apache::thrift::protocol::TProtocol"*, i32*)***
  %8 = load i32 (%"class.apache::thrift::protocol::TProtocol"*, i32*)**, i32 (%"class.apache::thrift::protocol::TProtocol"*, i32*)*** %7, align 8
  %9 = getelementptr inbounds i32 (%"class.apache::thrift::protocol::TProtocol"*, i32*)*, i32 (%"class.apache::thrift::protocol::TProtocol"*, i32*)** %8, i64 39
  %10 = load i32 (%"class.apache::thrift::protocol::TProtocol"*, i32*)*, i32 (%"class.apache::thrift::protocol::TProtocol"*, i32*)** %9, align 8
  %11 = call i32 %10(%"class.apache::thrift::protocol::TProtocol"* %5, i32* dereferenceable(4) %6)
  ret i32 %11
}

; Function Attrs: noinline optnone uwtable
define i32 @_ZNK14social_network38ComposePostService_UploadUniqueId_args5writeEPN6apache6thrift8protocol9TProtocolE(%"class.social_network::ComposePostService_UploadUniqueId_args"* %0, %"class.apache::thrift::protocol::TProtocol"* %1) #3 align 2 personality i8* bitcast (i32 (...)* @__gxx_personality_v0 to i8*) {
  %3 = alloca %"class.social_network::ComposePostService_UploadUniqueId_args"*, align 8
  %4 = alloca %"class.apache::thrift::protocol::TProtocol"*, align 8
  %5 = alloca i32, align 4
  %6 = alloca %"struct.apache::thrift::protocol::TOutputRecursionTracker", align 8
  %7 = alloca i8*
  %8 = alloca i32
  %9 = alloca %"struct.std::_Rb_tree_const_iterator", align 8
  %10 = alloca %"struct.std::_Rb_tree_const_iterator", align 8
  %11 = alloca %"struct.std::_Rb_tree_const_iterator", align 8
  store %"class.social_network::ComposePostService_UploadUniqueId_args"* %0, %"class.social_network::ComposePostService_UploadUniqueId_args"** %3, align 8
  store %"class.apache::thrift::protocol::TProtocol"* %1, %"class.apache::thrift::protocol::TProtocol"** %4, align 8
  %12 = load %"class.social_network::ComposePostService_UploadUniqueId_args"*, %"class.social_network::ComposePostService_UploadUniqueId_args"** %3, align 8
  store i32 0, i32* %5, align 4
  %13 = load %"class.apache::thrift::protocol::TProtocol"*, %"class.apache::thrift::protocol::TProtocol"** %4, align 8
  call void @_ZN6apache6thrift8protocol23TOutputRecursionTrackerC2ERNS1_9TProtocolE(%"struct.apache::thrift::protocol::TOutputRecursionTracker"* %6, %"class.apache::thrift::protocol::TProtocol"* dereferenceable(40) %13)
  %14 = load %"class.apache::thrift::protocol::TProtocol"*, %"class.apache::thrift::protocol::TProtocol"** %4, align 8
  %15 = invoke i32 @_ZN6apache6thrift8protocol9TProtocol16writeStructBeginEPKc(%"class.apache::thrift::protocol::TProtocol"* %14, i8* getelementptr inbounds ([39 x i8], [39 x i8]* @.str.11, i64 0, i64 0))
          to label %16 unwind label %110

16:                                               ; preds = %2
  %17 = load i32, i32* %5, align 4
  %18 = add i32 %17, %15
  store i32 %18, i32* %5, align 4
  %19 = load %"class.apache::thrift::protocol::TProtocol"*, %"class.apache::thrift::protocol::TProtocol"** %4, align 8
  %20 = invoke i32 @_ZN6apache6thrift8protocol9TProtocol15writeFieldBeginEPKcNS1_5TTypeEs(%"class.apache::thrift::protocol::TProtocol"* %19, i8* getelementptr inbounds ([7 x i8], [7 x i8]* @.str.1, i64 0, i64 0), i32 10, i16 signext 1)
          to label %21 unwind label %110

21:                                               ; preds = %16
  %22 = load i32, i32* %5, align 4
  %23 = add i32 %22, %20
  store i32 %23, i32* %5, align 4
  %24 = load %"class.apache::thrift::protocol::TProtocol"*, %"class.apache::thrift::protocol::TProtocol"** %4, align 8
  %25 = getelementptr inbounds %"class.social_network::ComposePostService_UploadUniqueId_args", %"class.social_network::ComposePostService_UploadUniqueId_args"* %12, i32 0, i32 1
  %26 = load i64, i64* %25, align 8
  %27 = invoke i32 @_ZN6apache6thrift8protocol9TProtocol8writeI64El(%"class.apache::thrift::protocol::TProtocol"* %24, i64 %26)
          to label %28 unwind label %110

28:                                               ; preds = %21
  %29 = load i32, i32* %5, align 4
  %30 = add i32 %29, %27
  store i32 %30, i32* %5, align 4
  %31 = load %"class.apache::thrift::protocol::TProtocol"*, %"class.apache::thrift::protocol::TProtocol"** %4, align 8
  %32 = invoke i32 @_ZN6apache6thrift8protocol9TProtocol13writeFieldEndEv(%"class.apache::thrift::protocol::TProtocol"* %31)
          to label %33 unwind label %110

33:                                               ; preds = %28
  %34 = load i32, i32* %5, align 4
  %35 = add i32 %34, %32
  store i32 %35, i32* %5, align 4
  %36 = load %"class.apache::thrift::protocol::TProtocol"*, %"class.apache::thrift::protocol::TProtocol"** %4, align 8
  %37 = invoke i32 @_ZN6apache6thrift8protocol9TProtocol15writeFieldBeginEPKcNS1_5TTypeEs(%"class.apache::thrift::protocol::TProtocol"* %36, i8* getelementptr inbounds ([8 x i8], [8 x i8]* @.str.12, i64 0, i64 0), i32 10, i16 signext 2)
          to label %38 unwind label %110

38:                                               ; preds = %33
  %39 = load i32, i32* %5, align 4
  %40 = add i32 %39, %37
  store i32 %40, i32* %5, align 4
  %41 = load %"class.apache::thrift::protocol::TProtocol"*, %"class.apache::thrift::protocol::TProtocol"** %4, align 8
  %42 = getelementptr inbounds %"class.social_network::ComposePostService_UploadUniqueId_args", %"class.social_network::ComposePostService_UploadUniqueId_args"* %12, i32 0, i32 2
  %43 = load i64, i64* %42, align 8
  %44 = invoke i32 @_ZN6apache6thrift8protocol9TProtocol8writeI64El(%"class.apache::thrift::protocol::TProtocol"* %41, i64 %43)
          to label %45 unwind label %110

45:                                               ; preds = %38
  %46 = load i32, i32* %5, align 4
  %47 = add i32 %46, %44
  store i32 %47, i32* %5, align 4
  %48 = load %"class.apache::thrift::protocol::TProtocol"*, %"class.apache::thrift::protocol::TProtocol"** %4, align 8
  %49 = invoke i32 @_ZN6apache6thrift8protocol9TProtocol13writeFieldEndEv(%"class.apache::thrift::protocol::TProtocol"* %48)
          to label %50 unwind label %110

50:                                               ; preds = %45
  %51 = load i32, i32* %5, align 4
  %52 = add i32 %51, %49
  store i32 %52, i32* %5, align 4
  %53 = load %"class.apache::thrift::protocol::TProtocol"*, %"class.apache::thrift::protocol::TProtocol"** %4, align 8
  %54 = invoke i32 @_ZN6apache6thrift8protocol9TProtocol15writeFieldBeginEPKcNS1_5TTypeEs(%"class.apache::thrift::protocol::TProtocol"* %53, i8* getelementptr inbounds ([10 x i8], [10 x i8]* @.str.13, i64 0, i64 0), i32 8, i16 signext 3)
          to label %55 unwind label %110

55:                                               ; preds = %50
  %56 = load i32, i32* %5, align 4
  %57 = add i32 %56, %54
  store i32 %57, i32* %5, align 4
  %58 = load %"class.apache::thrift::protocol::TProtocol"*, %"class.apache::thrift::protocol::TProtocol"** %4, align 8
  %59 = getelementptr inbounds %"class.social_network::ComposePostService_UploadUniqueId_args", %"class.social_network::ComposePostService_UploadUniqueId_args"* %12, i32 0, i32 3
  %60 = load i32, i32* %59, align 8
  %61 = invoke i32 @_ZN6apache6thrift8protocol9TProtocol8writeI32Ei(%"class.apache::thrift::protocol::TProtocol"* %58, i32 %60)
          to label %62 unwind label %110

62:                                               ; preds = %55
  %63 = load i32, i32* %5, align 4
  %64 = add i32 %63, %61
  store i32 %64, i32* %5, align 4
  %65 = load %"class.apache::thrift::protocol::TProtocol"*, %"class.apache::thrift::protocol::TProtocol"** %4, align 8
  %66 = invoke i32 @_ZN6apache6thrift8protocol9TProtocol13writeFieldEndEv(%"class.apache::thrift::protocol::TProtocol"* %65)
          to label %67 unwind label %110

67:                                               ; preds = %62
  %68 = load i32, i32* %5, align 4
  %69 = add i32 %68, %66
  store i32 %69, i32* %5, align 4
  %70 = load %"class.apache::thrift::protocol::TProtocol"*, %"class.apache::thrift::protocol::TProtocol"** %4, align 8
  %71 = invoke i32 @_ZN6apache6thrift8protocol9TProtocol15writeFieldBeginEPKcNS1_5TTypeEs(%"class.apache::thrift::protocol::TProtocol"* %70, i8* getelementptr inbounds ([8 x i8], [8 x i8]* @.str.3, i64 0, i64 0), i32 13, i16 signext 4)
          to label %72 unwind label %110

72:                                               ; preds = %67
  %73 = load i32, i32* %5, align 4
  %74 = add i32 %73, %71
  store i32 %74, i32* %5, align 4
  %75 = load %"class.apache::thrift::protocol::TProtocol"*, %"class.apache::thrift::protocol::TProtocol"** %4, align 8
  %76 = getelementptr inbounds %"class.social_network::ComposePostService_UploadUniqueId_args", %"class.social_network::ComposePostService_UploadUniqueId_args"* %12, i32 0, i32 5
  %77 = call i64 @_ZNKSt3mapINSt7__cxx1112basic_stringIcSt11char_traitsIcESaIcEEES5_St4lessIS5_ESaISt4pairIKS5_S5_EEE4sizeEv(%"class.std::map"* %76) #12
  %78 = trunc i64 %77 to i32
  %79 = invoke i32 @_ZN6apache6thrift8protocol9TProtocol13writeMapBeginENS1_5TTypeES3_j(%"class.apache::thrift::protocol::TProtocol"* %75, i32 11, i32 11, i32 %78)
          to label %80 unwind label %110

80:                                               ; preds = %72
  %81 = load i32, i32* %5, align 4
  %82 = add i32 %81, %79
  store i32 %82, i32* %5, align 4
  call void @_ZNSt23_Rb_tree_const_iteratorISt4pairIKNSt7__cxx1112basic_stringIcSt11char_traitsIcESaIcEEES6_EEC2Ev(%"struct.std::_Rb_tree_const_iterator"* %9) #12
  %83 = getelementptr inbounds %"class.social_network::ComposePostService_UploadUniqueId_args", %"class.social_network::ComposePostService_UploadUniqueId_args"* %12, i32 0, i32 5
  %84 = call %"struct.std::_Rb_tree_node_base"* @_ZNKSt3mapINSt7__cxx1112basic_stringIcSt11char_traitsIcESaIcEEES5_St4lessIS5_ESaISt4pairIKS5_S5_EEE5beginEv(%"class.std::map"* %83) #12
  %85 = getelementptr inbounds %"struct.std::_Rb_tree_const_iterator", %"struct.std::_Rb_tree_const_iterator"* %10, i32 0, i32 0
  store %"struct.std::_Rb_tree_node_base"* %84, %"struct.std::_Rb_tree_node_base"** %85, align 8
  %86 = bitcast %"struct.std::_Rb_tree_const_iterator"* %9 to i8*
  %87 = bitcast %"struct.std::_Rb_tree_const_iterator"* %10 to i8*
  call void @llvm.memcpy.p0i8.p0i8.i64(i8* align 8 %86, i8* align 8 %87, i64 8, i1 false)
  br label %88

88:                                               ; preds = %108, %80
  %89 = getelementptr inbounds %"class.social_network::ComposePostService_UploadUniqueId_args", %"class.social_network::ComposePostService_UploadUniqueId_args"* %12, i32 0, i32 5
  %90 = call %"struct.std::_Rb_tree_node_base"* @_ZNKSt3mapINSt7__cxx1112basic_stringIcSt11char_traitsIcESaIcEEES5_St4lessIS5_ESaISt4pairIKS5_S5_EEE3endEv(%"class.std::map"* %89) #12
  %91 = getelementptr inbounds %"struct.std::_Rb_tree_const_iterator", %"struct.std::_Rb_tree_const_iterator"* %11, i32 0, i32 0
  store %"struct.std::_Rb_tree_node_base"* %90, %"struct.std::_Rb_tree_node_base"** %91, align 8
  %92 = call zeroext i1 @_ZStneRKSt23_Rb_tree_const_iteratorISt4pairIKNSt7__cxx1112basic_stringIcSt11char_traitsIcESaIcEEES6_EESB_(%"struct.std::_Rb_tree_const_iterator"* dereferenceable(8) %9, %"struct.std::_Rb_tree_const_iterator"* dereferenceable(8) %11) #12
  br i1 %92, label %93, label %114

93:                                               ; preds = %88
  %94 = load %"class.apache::thrift::protocol::TProtocol"*, %"class.apache::thrift::protocol::TProtocol"** %4, align 8
  %95 = call %"struct.std::pair"* @_ZNKSt23_Rb_tree_const_iteratorISt4pairIKNSt7__cxx1112basic_stringIcSt11char_traitsIcESaIcEEES6_EEptEv(%"struct.std::_Rb_tree_const_iterator"* %9) #12
  %96 = getelementptr inbounds %"struct.std::pair", %"struct.std::pair"* %95, i32 0, i32 0
  %97 = invoke i32 @_ZN6apache6thrift8protocol9TProtocol11writeStringERKNSt7__cxx1112basic_stringIcSt11char_traitsIcESaIcEEE(%"class.apache::thrift::protocol::TProtocol"* %94, %"class.std::__cxx11::basic_string"* dereferenceable(32) %96)
          to label %98 unwind label %110

98:                                               ; preds = %93
  %99 = load i32, i32* %5, align 4
  %100 = add i32 %99, %97
  store i32 %100, i32* %5, align 4
  %101 = load %"class.apache::thrift::protocol::TProtocol"*, %"class.apache::thrift::protocol::TProtocol"** %4, align 8
  %102 = call %"struct.std::pair"* @_ZNKSt23_Rb_tree_const_iteratorISt4pairIKNSt7__cxx1112basic_stringIcSt11char_traitsIcESaIcEEES6_EEptEv(%"struct.std::_Rb_tree_const_iterator"* %9) #12
  %103 = getelementptr inbounds %"struct.std::pair", %"struct.std::pair"* %102, i32 0, i32 1
  %104 = invoke i32 @_ZN6apache6thrift8protocol9TProtocol11writeStringERKNSt7__cxx1112basic_stringIcSt11char_traitsIcESaIcEEE(%"class.apache::thrift::protocol::TProtocol"* %101, %"class.std::__cxx11::basic_string"* dereferenceable(32) %103)
          to label %105 unwind label %110

105:                                              ; preds = %98
  %106 = load i32, i32* %5, align 4
  %107 = add i32 %106, %104
  store i32 %107, i32* %5, align 4
  br label %108

108:                                              ; preds = %105
  %109 = call dereferenceable(8) %"struct.std::_Rb_tree_const_iterator"* @_ZNSt23_Rb_tree_const_iteratorISt4pairIKNSt7__cxx1112basic_stringIcSt11char_traitsIcESaIcEEES6_EEppEv(%"struct.std::_Rb_tree_const_iterator"* %9) #12
  br label %88

110:                                              ; preds = %127, %122, %117, %114, %98, %93, %72, %67, %62, %55, %50, %45, %38, %33, %28, %21, %16, %2
  %111 = landingpad { i8*, i32 }
          cleanup
  %112 = extractvalue { i8*, i32 } %111, 0
  store i8* %112, i8** %7, align 8
  %113 = extractvalue { i8*, i32 } %111, 1
  store i32 %113, i32* %8, align 4
  call void @_ZN6apache6thrift8protocol23TOutputRecursionTrackerD2Ev(%"struct.apache::thrift::protocol::TOutputRecursionTracker"* %6) #12
  br label %136

114:                                              ; preds = %88
  %115 = load %"class.apache::thrift::protocol::TProtocol"*, %"class.apache::thrift::protocol::TProtocol"** %4, align 8
  %116 = invoke i32 @_ZN6apache6thrift8protocol9TProtocol11writeMapEndEv(%"class.apache::thrift::protocol::TProtocol"* %115)
          to label %117 unwind label %110

117:                                              ; preds = %114
  %118 = load i32, i32* %5, align 4
  %119 = add i32 %118, %116
  store i32 %119, i32* %5, align 4
  %120 = load %"class.apache::thrift::protocol::TProtocol"*, %"class.apache::thrift::protocol::TProtocol"** %4, align 8
  %121 = invoke i32 @_ZN6apache6thrift8protocol9TProtocol13writeFieldEndEv(%"class.apache::thrift::protocol::TProtocol"* %120)
          to label %122 unwind label %110

122:                                              ; preds = %117
  %123 = load i32, i32* %5, align 4
  %124 = add i32 %123, %121
  store i32 %124, i32* %5, align 4
  %125 = load %"class.apache::thrift::protocol::TProtocol"*, %"class.apache::thrift::protocol::TProtocol"** %4, align 8
  %126 = invoke i32 @_ZN6apache6thrift8protocol9TProtocol14writeFieldStopEv(%"class.apache::thrift::protocol::TProtocol"* %125)
          to label %127 unwind label %110

127:                                              ; preds = %122
  %128 = load i32, i32* %5, align 4
  %129 = add i32 %128, %126
  store i32 %129, i32* %5, align 4
  %130 = load %"class.apache::thrift::protocol::TProtocol"*, %"class.apache::thrift::protocol::TProtocol"** %4, align 8
  %131 = invoke i32 @_ZN6apache6thrift8protocol9TProtocol14writeStructEndEv(%"class.apache::thrift::protocol::TProtocol"* %130)
          to label %132 unwind label %110

132:                                              ; preds = %127
  %133 = load i32, i32* %5, align 4
  %134 = add i32 %133, %131
  store i32 %134, i32* %5, align 4
  %135 = load i32, i32* %5, align 4
  call void @_ZN6apache6thrift8protocol23TOutputRecursionTrackerD2Ev(%"struct.apache::thrift::protocol::TOutputRecursionTracker"* %6) #12
  ret i32 %135

136:                                              ; preds = %110
  %137 = load i8*, i8** %7, align 8
  %138 = load i32, i32* %8, align 4
  %139 = insertvalue { i8*, i32 } undef, i8* %137, 0
  %140 = insertvalue { i8*, i32 } %139, i32 %138, 1
  resume { i8*, i32 } %140
}

; Function Attrs: noinline optnone uwtable
define linkonce_odr i32 @_ZN6apache6thrift8protocol9TProtocol8writeI32Ei(%"class.apache::thrift::protocol::TProtocol"* %0, i32 %1) #3 comdat align 2 {
  %3 = alloca %"class.apache::thrift::protocol::TProtocol"*, align 8
  %4 = alloca i32, align 4
  store %"class.apache::thrift::protocol::TProtocol"* %0, %"class.apache::thrift::protocol::TProtocol"** %3, align 8
  store i32 %1, i32* %4, align 4
  %5 = load %"class.apache::thrift::protocol::TProtocol"*, %"class.apache::thrift::protocol::TProtocol"** %3, align 8
  %6 = load i32, i32* %4, align 4
  %7 = bitcast %"class.apache::thrift::protocol::TProtocol"* %5 to i32 (%"class.apache::thrift::protocol::TProtocol"*, i32)***
  %8 = load i32 (%"class.apache::thrift::protocol::TProtocol"*, i32)**, i32 (%"class.apache::thrift::protocol::TProtocol"*, i32)*** %7, align 8
  %9 = getelementptr inbounds i32 (%"class.apache::thrift::protocol::TProtocol"*, i32)*, i32 (%"class.apache::thrift::protocol::TProtocol"*, i32)** %8, i64 18
  %10 = load i32 (%"class.apache::thrift::protocol::TProtocol"*, i32)*, i32 (%"class.apache::thrift::protocol::TProtocol"*, i32)** %9, align 8
  %11 = call i32 %10(%"class.apache::thrift::protocol::TProtocol"* %5, i32 %6)
  ret i32 %11
}

; Function Attrs: noinline nounwind optnone uwtable
define void @_ZN14social_network39ComposePostService_UploadUniqueId_pargsD2Ev(%"class.social_network::ComposePostService_UploadUniqueId_pargs"* %0) unnamed_addr #0 align 2 {
  %2 = alloca %"class.social_network::ComposePostService_UploadUniqueId_pargs"*, align 8
  store %"class.social_network::ComposePostService_UploadUniqueId_pargs"* %0, %"class.social_network::ComposePostService_UploadUniqueId_pargs"** %2, align 8
  %3 = load %"class.social_network::ComposePostService_UploadUniqueId_pargs"*, %"class.social_network::ComposePostService_UploadUniqueId_pargs"** %2, align 8
  ret void
}

; Function Attrs: noinline nounwind optnone uwtable
define void @_ZN14social_network39ComposePostService_UploadUniqueId_pargsD0Ev(%"class.social_network::ComposePostService_UploadUniqueId_pargs"* %0) unnamed_addr #0 align 2 {
  %2 = alloca %"class.social_network::ComposePostService_UploadUniqueId_pargs"*, align 8
  store %"class.social_network::ComposePostService_UploadUniqueId_pargs"* %0, %"class.social_network::ComposePostService_UploadUniqueId_pargs"** %2, align 8
  %3 = load %"class.social_network::ComposePostService_UploadUniqueId_pargs"*, %"class.social_network::ComposePostService_UploadUniqueId_pargs"** %2, align 8
  call void @_ZN14social_network39ComposePostService_UploadUniqueId_pargsD1Ev(%"class.social_network::ComposePostService_UploadUniqueId_pargs"* %3) #12
  %4 = bitcast %"class.social_network::ComposePostService_UploadUniqueId_pargs"* %3 to i8*
  call void @_ZdlPv(i8* %4) #13
  ret void
}

; Function Attrs: noinline optnone uwtable
define i32 @_ZNK14social_network39ComposePostService_UploadUniqueId_pargs5writeEPN6apache6thrift8protocol9TProtocolE(%"class.social_network::ComposePostService_UploadUniqueId_pargs"* %0, %"class.apache::thrift::protocol::TProtocol"* %1) #3 align 2 personality i8* bitcast (i32 (...)* @__gxx_personality_v0 to i8*) {
  %3 = alloca %"class.social_network::ComposePostService_UploadUniqueId_pargs"*, align 8
  %4 = alloca %"class.apache::thrift::protocol::TProtocol"*, align 8
  %5 = alloca i32, align 4
  %6 = alloca %"struct.apache::thrift::protocol::TOutputRecursionTracker", align 8
  %7 = alloca i8*
  %8 = alloca i32
  %9 = alloca %"struct.std::_Rb_tree_const_iterator", align 8
  %10 = alloca %"struct.std::_Rb_tree_const_iterator", align 8
  %11 = alloca %"struct.std::_Rb_tree_const_iterator", align 8
  store %"class.social_network::ComposePostService_UploadUniqueId_pargs"* %0, %"class.social_network::ComposePostService_UploadUniqueId_pargs"** %3, align 8
  store %"class.apache::thrift::protocol::TProtocol"* %1, %"class.apache::thrift::protocol::TProtocol"** %4, align 8
  %12 = load %"class.social_network::ComposePostService_UploadUniqueId_pargs"*, %"class.social_network::ComposePostService_UploadUniqueId_pargs"** %3, align 8
  store i32 0, i32* %5, align 4
  %13 = load %"class.apache::thrift::protocol::TProtocol"*, %"class.apache::thrift::protocol::TProtocol"** %4, align 8
  call void @_ZN6apache6thrift8protocol23TOutputRecursionTrackerC2ERNS1_9TProtocolE(%"struct.apache::thrift::protocol::TOutputRecursionTracker"* %6, %"class.apache::thrift::protocol::TProtocol"* dereferenceable(40) %13)
  %14 = load %"class.apache::thrift::protocol::TProtocol"*, %"class.apache::thrift::protocol::TProtocol"** %4, align 8
  %15 = invoke i32 @_ZN6apache6thrift8protocol9TProtocol16writeStructBeginEPKc(%"class.apache::thrift::protocol::TProtocol"* %14, i8* getelementptr inbounds ([40 x i8], [40 x i8]* @.str.14, i64 0, i64 0))
          to label %16 unwind label %116

16:                                               ; preds = %2
  %17 = load i32, i32* %5, align 4
  %18 = add i32 %17, %15
  store i32 %18, i32* %5, align 4
  %19 = load %"class.apache::thrift::protocol::TProtocol"*, %"class.apache::thrift::protocol::TProtocol"** %4, align 8
  %20 = invoke i32 @_ZN6apache6thrift8protocol9TProtocol15writeFieldBeginEPKcNS1_5TTypeEs(%"class.apache::thrift::protocol::TProtocol"* %19, i8* getelementptr inbounds ([7 x i8], [7 x i8]* @.str.1, i64 0, i64 0), i32 10, i16 signext 1)
          to label %21 unwind label %116

21:                                               ; preds = %16
  %22 = load i32, i32* %5, align 4
  %23 = add i32 %22, %20
  store i32 %23, i32* %5, align 4
  %24 = load %"class.apache::thrift::protocol::TProtocol"*, %"class.apache::thrift::protocol::TProtocol"** %4, align 8
  %25 = getelementptr inbounds %"class.social_network::ComposePostService_UploadUniqueId_pargs", %"class.social_network::ComposePostService_UploadUniqueId_pargs"* %12, i32 0, i32 1
  %26 = load i64*, i64** %25, align 8
  %27 = load i64, i64* %26, align 8
  %28 = invoke i32 @_ZN6apache6thrift8protocol9TProtocol8writeI64El(%"class.apache::thrift::protocol::TProtocol"* %24, i64 %27)
          to label %29 unwind label %116

29:                                               ; preds = %21
  %30 = load i32, i32* %5, align 4
  %31 = add i32 %30, %28
  store i32 %31, i32* %5, align 4
  %32 = load %"class.apache::thrift::protocol::TProtocol"*, %"class.apache::thrift::protocol::TProtocol"** %4, align 8
  %33 = invoke i32 @_ZN6apache6thrift8protocol9TProtocol13writeFieldEndEv(%"class.apache::thrift::protocol::TProtocol"* %32)
          to label %34 unwind label %116

34:                                               ; preds = %29
  %35 = load i32, i32* %5, align 4
  %36 = add i32 %35, %33
  store i32 %36, i32* %5, align 4
  %37 = load %"class.apache::thrift::protocol::TProtocol"*, %"class.apache::thrift::protocol::TProtocol"** %4, align 8
  %38 = invoke i32 @_ZN6apache6thrift8protocol9TProtocol15writeFieldBeginEPKcNS1_5TTypeEs(%"class.apache::thrift::protocol::TProtocol"* %37, i8* getelementptr inbounds ([8 x i8], [8 x i8]* @.str.12, i64 0, i64 0), i32 10, i16 signext 2)
          to label %39 unwind label %116

39:                                               ; preds = %34
  %40 = load i32, i32* %5, align 4
  %41 = add i32 %40, %38
  store i32 %41, i32* %5, align 4
  %42 = load %"class.apache::thrift::protocol::TProtocol"*, %"class.apache::thrift::protocol::TProtocol"** %4, align 8
  %43 = getelementptr inbounds %"class.social_network::ComposePostService_UploadUniqueId_pargs", %"class.social_network::ComposePostService_UploadUniqueId_pargs"* %12, i32 0, i32 2
  %44 = load i64*, i64** %43, align 8
  %45 = load i64, i64* %44, align 8
  %46 = invoke i32 @_ZN6apache6thrift8protocol9TProtocol8writeI64El(%"class.apache::thrift::protocol::TProtocol"* %42, i64 %45)
          to label %47 unwind label %116

47:                                               ; preds = %39
  %48 = load i32, i32* %5, align 4
  %49 = add i32 %48, %46
  store i32 %49, i32* %5, align 4
  %50 = load %"class.apache::thrift::protocol::TProtocol"*, %"class.apache::thrift::protocol::TProtocol"** %4, align 8
  %51 = invoke i32 @_ZN6apache6thrift8protocol9TProtocol13writeFieldEndEv(%"class.apache::thrift::protocol::TProtocol"* %50)
          to label %52 unwind label %116

52:                                               ; preds = %47
  %53 = load i32, i32* %5, align 4
  %54 = add i32 %53, %51
  store i32 %54, i32* %5, align 4
  %55 = load %"class.apache::thrift::protocol::TProtocol"*, %"class.apache::thrift::protocol::TProtocol"** %4, align 8
  %56 = invoke i32 @_ZN6apache6thrift8protocol9TProtocol15writeFieldBeginEPKcNS1_5TTypeEs(%"class.apache::thrift::protocol::TProtocol"* %55, i8* getelementptr inbounds ([10 x i8], [10 x i8]* @.str.13, i64 0, i64 0), i32 8, i16 signext 3)
          to label %57 unwind label %116

57:                                               ; preds = %52
  %58 = load i32, i32* %5, align 4
  %59 = add i32 %58, %56
  store i32 %59, i32* %5, align 4
  %60 = load %"class.apache::thrift::protocol::TProtocol"*, %"class.apache::thrift::protocol::TProtocol"** %4, align 8
  %61 = getelementptr inbounds %"class.social_network::ComposePostService_UploadUniqueId_pargs", %"class.social_network::ComposePostService_UploadUniqueId_pargs"* %12, i32 0, i32 3
  %62 = load i32*, i32** %61, align 8
  %63 = load i32, i32* %62, align 4
  %64 = invoke i32 @_ZN6apache6thrift8protocol9TProtocol8writeI32Ei(%"class.apache::thrift::protocol::TProtocol"* %60, i32 %63)
          to label %65 unwind label %116

65:                                               ; preds = %57
  %66 = load i32, i32* %5, align 4
  %67 = add i32 %66, %64
  store i32 %67, i32* %5, align 4
  %68 = load %"class.apache::thrift::protocol::TProtocol"*, %"class.apache::thrift::protocol::TProtocol"** %4, align 8
  %69 = invoke i32 @_ZN6apache6thrift8protocol9TProtocol13writeFieldEndEv(%"class.apache::thrift::protocol::TProtocol"* %68)
          to label %70 unwind label %116

70:                                               ; preds = %65
  %71 = load i32, i32* %5, align 4
  %72 = add i32 %71, %69
  store i32 %72, i32* %5, align 4
  %73 = load %"class.apache::thrift::protocol::TProtocol"*, %"class.apache::thrift::protocol::TProtocol"** %4, align 8
  %74 = invoke i32 @_ZN6apache6thrift8protocol9TProtocol15writeFieldBeginEPKcNS1_5TTypeEs(%"class.apache::thrift::protocol::TProtocol"* %73, i8* getelementptr inbounds ([8 x i8], [8 x i8]* @.str.3, i64 0, i64 0), i32 13, i16 signext 4)
          to label %75 unwind label %116

75:                                               ; preds = %70
  %76 = load i32, i32* %5, align 4
  %77 = add i32 %76, %74
  store i32 %77, i32* %5, align 4
  %78 = load %"class.apache::thrift::protocol::TProtocol"*, %"class.apache::thrift::protocol::TProtocol"** %4, align 8
  %79 = getelementptr inbounds %"class.social_network::ComposePostService_UploadUniqueId_pargs", %"class.social_network::ComposePostService_UploadUniqueId_pargs"* %12, i32 0, i32 4
  %80 = load %"class.std::map"*, %"class.std::map"** %79, align 8
  %81 = call i64 @_ZNKSt3mapINSt7__cxx1112basic_stringIcSt11char_traitsIcESaIcEEES5_St4lessIS5_ESaISt4pairIKS5_S5_EEE4sizeEv(%"class.std::map"* %80) #12
  %82 = trunc i64 %81 to i32
  %83 = invoke i32 @_ZN6apache6thrift8protocol9TProtocol13writeMapBeginENS1_5TTypeES3_j(%"class.apache::thrift::protocol::TProtocol"* %78, i32 11, i32 11, i32 %82)
          to label %84 unwind label %116

84:                                               ; preds = %75
  %85 = load i32, i32* %5, align 4
  %86 = add i32 %85, %83
  store i32 %86, i32* %5, align 4
  call void @_ZNSt23_Rb_tree_const_iteratorISt4pairIKNSt7__cxx1112basic_stringIcSt11char_traitsIcESaIcEEES6_EEC2Ev(%"struct.std::_Rb_tree_const_iterator"* %9) #12
  %87 = getelementptr inbounds %"class.social_network::ComposePostService_UploadUniqueId_pargs", %"class.social_network::ComposePostService_UploadUniqueId_pargs"* %12, i32 0, i32 4
  %88 = load %"class.std::map"*, %"class.std::map"** %87, align 8
  %89 = call %"struct.std::_Rb_tree_node_base"* @_ZNKSt3mapINSt7__cxx1112basic_stringIcSt11char_traitsIcESaIcEEES5_St4lessIS5_ESaISt4pairIKS5_S5_EEE5beginEv(%"class.std::map"* %88) #12
  %90 = getelementptr inbounds %"struct.std::_Rb_tree_const_iterator", %"struct.std::_Rb_tree_const_iterator"* %10, i32 0, i32 0
  store %"struct.std::_Rb_tree_node_base"* %89, %"struct.std::_Rb_tree_node_base"** %90, align 8
  %91 = bitcast %"struct.std::_Rb_tree_const_iterator"* %9 to i8*
  %92 = bitcast %"struct.std::_Rb_tree_const_iterator"* %10 to i8*
  call void @llvm.memcpy.p0i8.p0i8.i64(i8* align 8 %91, i8* align 8 %92, i64 8, i1 false)
  br label %93

93:                                               ; preds = %114, %84
  %94 = getelementptr inbounds %"class.social_network::ComposePostService_UploadUniqueId_pargs", %"class.social_network::ComposePostService_UploadUniqueId_pargs"* %12, i32 0, i32 4
  %95 = load %"class.std::map"*, %"class.std::map"** %94, align 8
  %96 = call %"struct.std::_Rb_tree_node_base"* @_ZNKSt3mapINSt7__cxx1112basic_stringIcSt11char_traitsIcESaIcEEES5_St4lessIS5_ESaISt4pairIKS5_S5_EEE3endEv(%"class.std::map"* %95) #12
  %97 = getelementptr inbounds %"struct.std::_Rb_tree_const_iterator", %"struct.std::_Rb_tree_const_iterator"* %11, i32 0, i32 0
  store %"struct.std::_Rb_tree_node_base"* %96, %"struct.std::_Rb_tree_node_base"** %97, align 8
  %98 = call zeroext i1 @_ZStneRKSt23_Rb_tree_const_iteratorISt4pairIKNSt7__cxx1112basic_stringIcSt11char_traitsIcESaIcEEES6_EESB_(%"struct.std::_Rb_tree_const_iterator"* dereferenceable(8) %9, %"struct.std::_Rb_tree_const_iterator"* dereferenceable(8) %11) #12
  br i1 %98, label %99, label %120

99:                                               ; preds = %93
  %100 = load %"class.apache::thrift::protocol::TProtocol"*, %"class.apache::thrift::protocol::TProtocol"** %4, align 8
  %101 = call %"struct.std::pair"* @_ZNKSt23_Rb_tree_const_iteratorISt4pairIKNSt7__cxx1112basic_stringIcSt11char_traitsIcESaIcEEES6_EEptEv(%"struct.std::_Rb_tree_const_iterator"* %9) #12
  %102 = getelementptr inbounds %"struct.std::pair", %"struct.std::pair"* %101, i32 0, i32 0
  %103 = invoke i32 @_ZN6apache6thrift8protocol9TProtocol11writeStringERKNSt7__cxx1112basic_stringIcSt11char_traitsIcESaIcEEE(%"class.apache::thrift::protocol::TProtocol"* %100, %"class.std::__cxx11::basic_string"* dereferenceable(32) %102)
          to label %104 unwind label %116

104:                                              ; preds = %99
  %105 = load i32, i32* %5, align 4
  %106 = add i32 %105, %103
  store i32 %106, i32* %5, align 4
  %107 = load %"class.apache::thrift::protocol::TProtocol"*, %"class.apache::thrift::protocol::TProtocol"** %4, align 8
  %108 = call %"struct.std::pair"* @_ZNKSt23_Rb_tree_const_iteratorISt4pairIKNSt7__cxx1112basic_stringIcSt11char_traitsIcESaIcEEES6_EEptEv(%"struct.std::_Rb_tree_const_iterator"* %9) #12
  %109 = getelementptr inbounds %"struct.std::pair", %"struct.std::pair"* %108, i32 0, i32 1
  %110 = invoke i32 @_ZN6apache6thrift8protocol9TProtocol11writeStringERKNSt7__cxx1112basic_stringIcSt11char_traitsIcESaIcEEE(%"class.apache::thrift::protocol::TProtocol"* %107, %"class.std::__cxx11::basic_string"* dereferenceable(32) %109)
          to label %111 unwind label %116

111:                                              ; preds = %104
  %112 = load i32, i32* %5, align 4
  %113 = add i32 %112, %110
  store i32 %113, i32* %5, align 4
  br label %114

114:                                              ; preds = %111
  %115 = call dereferenceable(8) %"struct.std::_Rb_tree_const_iterator"* @_ZNSt23_Rb_tree_const_iteratorISt4pairIKNSt7__cxx1112basic_stringIcSt11char_traitsIcESaIcEEES6_EEppEv(%"struct.std::_Rb_tree_const_iterator"* %9) #12
  br label %93

116:                                              ; preds = %133, %128, %123, %120, %104, %99, %75, %70, %65, %57, %52, %47, %39, %34, %29, %21, %16, %2
  %117 = landingpad { i8*, i32 }
          cleanup
  %118 = extractvalue { i8*, i32 } %117, 0
  store i8* %118, i8** %7, align 8
  %119 = extractvalue { i8*, i32 } %117, 1
  store i32 %119, i32* %8, align 4
  call void @_ZN6apache6thrift8protocol23TOutputRecursionTrackerD2Ev(%"struct.apache::thrift::protocol::TOutputRecursionTracker"* %6) #12
  br label %142

120:                                              ; preds = %93
  %121 = load %"class.apache::thrift::protocol::TProtocol"*, %"class.apache::thrift::protocol::TProtocol"** %4, align 8
  %122 = invoke i32 @_ZN6apache6thrift8protocol9TProtocol11writeMapEndEv(%"class.apache::thrift::protocol::TProtocol"* %121)
          to label %123 unwind label %116

123:                                              ; preds = %120
  %124 = load i32, i32* %5, align 4
  %125 = add i32 %124, %122
  store i32 %125, i32* %5, align 4
  %126 = load %"class.apache::thrift::protocol::TProtocol"*, %"class.apache::thrift::protocol::TProtocol"** %4, align 8
  %127 = invoke i32 @_ZN6apache6thrift8protocol9TProtocol13writeFieldEndEv(%"class.apache::thrift::protocol::TProtocol"* %126)
          to label %128 unwind label %116

128:                                              ; preds = %123
  %129 = load i32, i32* %5, align 4
  %130 = add i32 %129, %127
  store i32 %130, i32* %5, align 4
  %131 = load %"class.apache::thrift::protocol::TProtocol"*, %"class.apache::thrift::protocol::TProtocol"** %4, align 8
  %132 = invoke i32 @_ZN6apache6thrift8protocol9TProtocol14writeFieldStopEv(%"class.apache::thrift::protocol::TProtocol"* %131)
          to label %133 unwind label %116

133:                                              ; preds = %128
  %134 = load i32, i32* %5, align 4
  %135 = add i32 %134, %132
  store i32 %135, i32* %5, align 4
  %136 = load %"class.apache::thrift::protocol::TProtocol"*, %"class.apache::thrift::protocol::TProtocol"** %4, align 8
  %137 = invoke i32 @_ZN6apache6thrift8protocol9TProtocol14writeStructEndEv(%"class.apache::thrift::protocol::TProtocol"* %136)
          to label %138 unwind label %116

138:                                              ; preds = %133
  %139 = load i32, i32* %5, align 4
  %140 = add i32 %139, %137
  store i32 %140, i32* %5, align 4
  %141 = load i32, i32* %5, align 4
  call void @_ZN6apache6thrift8protocol23TOutputRecursionTrackerD2Ev(%"struct.apache::thrift::protocol::TOutputRecursionTracker"* %6) #12
  ret i32 %141

142:                                              ; preds = %116
  %143 = load i8*, i8** %7, align 8
  %144 = load i32, i32* %8, align 4
  %145 = insertvalue { i8*, i32 } undef, i8* %143, 0
  %146 = insertvalue { i8*, i32 } %145, i32 %144, 1
  resume { i8*, i32 } %146
}

; Function Attrs: noinline nounwind optnone uwtable
define void @_ZN14social_network40ComposePostService_UploadUniqueId_resultD2Ev(%"class.social_network::ComposePostService_UploadUniqueId_result"* %0) unnamed_addr #0 align 2 {
  %2 = alloca %"class.social_network::ComposePostService_UploadUniqueId_result"*, align 8
  store %"class.social_network::ComposePostService_UploadUniqueId_result"* %0, %"class.social_network::ComposePostService_UploadUniqueId_result"** %2, align 8
  %3 = load %"class.social_network::ComposePostService_UploadUniqueId_result"*, %"class.social_network::ComposePostService_UploadUniqueId_result"** %2, align 8
  %4 = bitcast %"class.social_network::ComposePostService_UploadUniqueId_result"* %3 to i32 (...)***
  store i32 (...)** bitcast (i8** getelementptr inbounds ({ [4 x i8*] }, { [4 x i8*] }* @_ZTVN14social_network40ComposePostService_UploadUniqueId_resultE, i32 0, inrange i32 0, i32 2) to i32 (...)**), i32 (...)*** %4, align 8
  %5 = getelementptr inbounds %"class.social_network::ComposePostService_UploadUniqueId_result", %"class.social_network::ComposePostService_UploadUniqueId_result"* %3, i32 0, i32 1
  call void @_ZN14social_network16ServiceExceptionD1Ev(%"class.social_network::ServiceException"* %5) #12
  ret void
}

; Function Attrs: noinline nounwind optnone uwtable
define void @_ZN14social_network40ComposePostService_UploadUniqueId_resultD0Ev(%"class.social_network::ComposePostService_UploadUniqueId_result"* %0) unnamed_addr #0 align 2 {
  %2 = alloca %"class.social_network::ComposePostService_UploadUniqueId_result"*, align 8
  store %"class.social_network::ComposePostService_UploadUniqueId_result"* %0, %"class.social_network::ComposePostService_UploadUniqueId_result"** %2, align 8
  %3 = load %"class.social_network::ComposePostService_UploadUniqueId_result"*, %"class.social_network::ComposePostService_UploadUniqueId_result"** %2, align 8
  call void @_ZN14social_network40ComposePostService_UploadUniqueId_resultD1Ev(%"class.social_network::ComposePostService_UploadUniqueId_result"* %3) #12
  %4 = bitcast %"class.social_network::ComposePostService_UploadUniqueId_result"* %3 to i8*
  call void @_ZdlPv(i8* %4) #13
  ret void
}

; Function Attrs: noinline optnone uwtable
define i32 @_ZN14social_network40ComposePostService_UploadUniqueId_result4readEPN6apache6thrift8protocol9TProtocolE(%"class.social_network::ComposePostService_UploadUniqueId_result"* %0, %"class.apache::thrift::protocol::TProtocol"* %1) #3 align 2 personality i8* bitcast (i32 (...)* @__gxx_personality_v0 to i8*) {
  %3 = alloca %"class.social_network::ComposePostService_UploadUniqueId_result"*, align 8
  %4 = alloca %"class.apache::thrift::protocol::TProtocol"*, align 8
  %5 = alloca %"struct.apache::thrift::protocol::TInputRecursionTracker", align 8
  %6 = alloca i32, align 4
  %7 = alloca %"class.std::__cxx11::basic_string", align 8
  %8 = alloca i32, align 4
  %9 = alloca i16, align 2
  %10 = alloca i8*
  %11 = alloca i32
  store %"class.social_network::ComposePostService_UploadUniqueId_result"* %0, %"class.social_network::ComposePostService_UploadUniqueId_result"** %3, align 8
  store %"class.apache::thrift::protocol::TProtocol"* %1, %"class.apache::thrift::protocol::TProtocol"** %4, align 8
  %12 = load %"class.social_network::ComposePostService_UploadUniqueId_result"*, %"class.social_network::ComposePostService_UploadUniqueId_result"** %3, align 8
  %13 = load %"class.apache::thrift::protocol::TProtocol"*, %"class.apache::thrift::protocol::TProtocol"** %4, align 8
  call void @_ZN6apache6thrift8protocol22TInputRecursionTrackerC2ERNS1_9TProtocolE(%"struct.apache::thrift::protocol::TInputRecursionTracker"* %5, %"class.apache::thrift::protocol::TProtocol"* dereferenceable(40) %13)
  store i32 0, i32* %6, align 4
  call void @_ZNSt7__cxx1112basic_stringIcSt11char_traitsIcESaIcEEC1Ev(%"class.std::__cxx11::basic_string"* %7) #12
  %14 = load %"class.apache::thrift::protocol::TProtocol"*, %"class.apache::thrift::protocol::TProtocol"** %4, align 8
  %15 = invoke i32 @_ZN6apache6thrift8protocol9TProtocol15readStructBeginERNSt7__cxx1112basic_stringIcSt11char_traitsIcESaIcEEE(%"class.apache::thrift::protocol::TProtocol"* %14, %"class.std::__cxx11::basic_string"* dereferenceable(32) %7)
          to label %16 unwind label %29

16:                                               ; preds = %2
  %17 = load i32, i32* %6, align 4
  %18 = add i32 %17, %15
  store i32 %18, i32* %6, align 4
  br label %19

19:                                               ; preds = %69, %16
  br label %20

20:                                               ; preds = %19
  %21 = load %"class.apache::thrift::protocol::TProtocol"*, %"class.apache::thrift::protocol::TProtocol"** %4, align 8
  %22 = invoke i32 @_ZN6apache6thrift8protocol9TProtocol14readFieldBeginERNSt7__cxx1112basic_stringIcSt11char_traitsIcESaIcEEERNS1_5TTypeERs(%"class.apache::thrift::protocol::TProtocol"* %21, %"class.std::__cxx11::basic_string"* dereferenceable(32) %7, i32* dereferenceable(4) %8, i16* dereferenceable(2) %9)
          to label %23 unwind label %29

23:                                               ; preds = %20
  %24 = load i32, i32* %6, align 4
  %25 = add i32 %24, %22
  store i32 %25, i32* %6, align 4
  %26 = load i32, i32* %8, align 4
  %27 = icmp eq i32 %26, 0
  br i1 %27, label %28, label %33

28:                                               ; preds = %23
  br label %72

29:                                               ; preds = %72, %66, %59, %51, %39, %20, %2
  %30 = landingpad { i8*, i32 }
          cleanup
  %31 = extractvalue { i8*, i32 } %30, 0
  store i8* %31, i8** %10, align 8
  %32 = extractvalue { i8*, i32 } %30, 1
  store i32 %32, i32* %11, align 4
  call void @_ZNSt7__cxx1112basic_stringIcSt11char_traitsIcESaIcEED1Ev(%"class.std::__cxx11::basic_string"* %7) #12
  call void @_ZN6apache6thrift8protocol22TInputRecursionTrackerD2Ev(%"struct.apache::thrift::protocol::TInputRecursionTracker"* %5) #12
  br label %79

33:                                               ; preds = %23
  %34 = load i16, i16* %9, align 2
  %35 = sext i16 %34 to i32
  switch i32 %35, label %59 [
    i32 1, label %36
  ]

36:                                               ; preds = %33
  %37 = load i32, i32* %8, align 4
  %38 = icmp eq i32 %37, 12
  br i1 %38, label %39, label %51

39:                                               ; preds = %36
  %40 = getelementptr inbounds %"class.social_network::ComposePostService_UploadUniqueId_result", %"class.social_network::ComposePostService_UploadUniqueId_result"* %12, i32 0, i32 1
  %41 = load %"class.apache::thrift::protocol::TProtocol"*, %"class.apache::thrift::protocol::TProtocol"** %4, align 8
  %42 = invoke i32 @_ZN14social_network16ServiceException4readEPN6apache6thrift8protocol9TProtocolE(%"class.social_network::ServiceException"* %40, %"class.apache::thrift::protocol::TProtocol"* %41)
          to label %43 unwind label %29

43:                                               ; preds = %39
  %44 = load i32, i32* %6, align 4
  %45 = add i32 %44, %42
  store i32 %45, i32* %6, align 4
  %46 = getelementptr inbounds %"class.social_network::ComposePostService_UploadUniqueId_result", %"class.social_network::ComposePostService_UploadUniqueId_result"* %12, i32 0, i32 2
  %47 = bitcast %"struct.social_network::_ComposePostService_UploadUniqueId_result__isset"* %46 to i8*
  %48 = load i8, i8* %47, align 8
  %49 = and i8 %48, -2
  %50 = or i8 %49, 1
  store i8 %50, i8* %47, align 8
  br label %58

51:                                               ; preds = %36
  %52 = load %"class.apache::thrift::protocol::TProtocol"*, %"class.apache::thrift::protocol::TProtocol"** %4, align 8
  %53 = load i32, i32* %8, align 4
  %54 = invoke i32 @_ZN6apache6thrift8protocol9TProtocol4skipENS1_5TTypeE(%"class.apache::thrift::protocol::TProtocol"* %52, i32 %53)
          to label %55 unwind label %29

55:                                               ; preds = %51
  %56 = load i32, i32* %6, align 4
  %57 = add i32 %56, %54
  store i32 %57, i32* %6, align 4
  br label %58

58:                                               ; preds = %55, %43
  br label %66

59:                                               ; preds = %33
  %60 = load %"class.apache::thrift::protocol::TProtocol"*, %"class.apache::thrift::protocol::TProtocol"** %4, align 8
  %61 = load i32, i32* %8, align 4
  %62 = invoke i32 @_ZN6apache6thrift8protocol9TProtocol4skipENS1_5TTypeE(%"class.apache::thrift::protocol::TProtocol"* %60, i32 %61)
          to label %63 unwind label %29

63:                                               ; preds = %59
  %64 = load i32, i32* %6, align 4
  %65 = add i32 %64, %62
  store i32 %65, i32* %6, align 4
  br label %66

66:                                               ; preds = %63, %58
  %67 = load %"class.apache::thrift::protocol::TProtocol"*, %"class.apache::thrift::protocol::TProtocol"** %4, align 8
  %68 = invoke i32 @_ZN6apache6thrift8protocol9TProtocol12readFieldEndEv(%"class.apache::thrift::protocol::TProtocol"* %67)
          to label %69 unwind label %29

69:                                               ; preds = %66
  %70 = load i32, i32* %6, align 4
  %71 = add i32 %70, %68
  store i32 %71, i32* %6, align 4
  br label %19

72:                                               ; preds = %28
  %73 = load %"class.apache::thrift::protocol::TProtocol"*, %"class.apache::thrift::protocol::TProtocol"** %4, align 8
  %74 = invoke i32 @_ZN6apache6thrift8protocol9TProtocol13readStructEndEv(%"class.apache::thrift::protocol::TProtocol"* %73)
          to label %75 unwind label %29

75:                                               ; preds = %72
  %76 = load i32, i32* %6, align 4
  %77 = add i32 %76, %74
  store i32 %77, i32* %6, align 4
  %78 = load i32, i32* %6, align 4
  call void @_ZNSt7__cxx1112basic_stringIcSt11char_traitsIcESaIcEED1Ev(%"class.std::__cxx11::basic_string"* %7) #12
  call void @_ZN6apache6thrift8protocol22TInputRecursionTrackerD2Ev(%"struct.apache::thrift::protocol::TInputRecursionTracker"* %5) #12
  ret i32 %78

79:                                               ; preds = %29
  %80 = load i8*, i8** %10, align 8
  %81 = load i32, i32* %11, align 4
  %82 = insertvalue { i8*, i32 } undef, i8* %80, 0
  %83 = insertvalue { i8*, i32 } %82, i32 %81, 1
  resume { i8*, i32 } %83
}

; Function Attrs: noinline optnone uwtable
define i32 @_ZNK14social_network40ComposePostService_UploadUniqueId_result5writeEPN6apache6thrift8protocol9TProtocolE(%"class.social_network::ComposePostService_UploadUniqueId_result"* %0, %"class.apache::thrift::protocol::TProtocol"* %1) #3 align 2 {
  %3 = alloca %"class.social_network::ComposePostService_UploadUniqueId_result"*, align 8
  %4 = alloca %"class.apache::thrift::protocol::TProtocol"*, align 8
  %5 = alloca i32, align 4
  store %"class.social_network::ComposePostService_UploadUniqueId_result"* %0, %"class.social_network::ComposePostService_UploadUniqueId_result"** %3, align 8
  store %"class.apache::thrift::protocol::TProtocol"* %1, %"class.apache::thrift::protocol::TProtocol"** %4, align 8
  %6 = load %"class.social_network::ComposePostService_UploadUniqueId_result"*, %"class.social_network::ComposePostService_UploadUniqueId_result"** %3, align 8
  store i32 0, i32* %5, align 4
  %7 = load %"class.apache::thrift::protocol::TProtocol"*, %"class.apache::thrift::protocol::TProtocol"** %4, align 8
  %8 = call i32 @_ZN6apache6thrift8protocol9TProtocol16writeStructBeginEPKc(%"class.apache::thrift::protocol::TProtocol"* %7, i8* getelementptr inbounds ([41 x i8], [41 x i8]* @.str.15, i64 0, i64 0))
  %9 = load i32, i32* %5, align 4
  %10 = add i32 %9, %8
  store i32 %10, i32* %5, align 4
  %11 = getelementptr inbounds %"class.social_network::ComposePostService_UploadUniqueId_result", %"class.social_network::ComposePostService_UploadUniqueId_result"* %6, i32 0, i32 2
  %12 = bitcast %"struct.social_network::_ComposePostService_UploadUniqueId_result__isset"* %11 to i8*
  %13 = load i8, i8* %12, align 8
  %14 = and i8 %13, 1
  %15 = trunc i8 %14 to i1
  br i1 %15, label %16, label %30

16:                                               ; preds = %2
  %17 = load %"class.apache::thrift::protocol::TProtocol"*, %"class.apache::thrift::protocol::TProtocol"** %4, align 8
  %18 = call i32 @_ZN6apache6thrift8protocol9TProtocol15writeFieldBeginEPKcNS1_5TTypeEs(%"class.apache::thrift::protocol::TProtocol"* %17, i8* getelementptr inbounds ([3 x i8], [3 x i8]* @.str.6, i64 0, i64 0), i32 12, i16 signext 1)
  %19 = load i32, i32* %5, align 4
  %20 = add i32 %19, %18
  store i32 %20, i32* %5, align 4
  %21 = getelementptr inbounds %"class.social_network::ComposePostService_UploadUniqueId_result", %"class.social_network::ComposePostService_UploadUniqueId_result"* %6, i32 0, i32 1
  %22 = load %"class.apache::thrift::protocol::TProtocol"*, %"class.apache::thrift::protocol::TProtocol"** %4, align 8
  %23 = call i32 @_ZNK14social_network16ServiceException5writeEPN6apache6thrift8protocol9TProtocolE(%"class.social_network::ServiceException"* %21, %"class.apache::thrift::protocol::TProtocol"* %22)
  %24 = load i32, i32* %5, align 4
  %25 = add i32 %24, %23
  store i32 %25, i32* %5, align 4
  %26 = load %"class.apache::thrift::protocol::TProtocol"*, %"class.apache::thrift::protocol::TProtocol"** %4, align 8
  %27 = call i32 @_ZN6apache6thrift8protocol9TProtocol13writeFieldEndEv(%"class.apache::thrift::protocol::TProtocol"* %26)
  %28 = load i32, i32* %5, align 4
  %29 = add i32 %28, %27
  store i32 %29, i32* %5, align 4
  br label %30

30:                                               ; preds = %16, %2
  %31 = load %"class.apache::thrift::protocol::TProtocol"*, %"class.apache::thrift::protocol::TProtocol"** %4, align 8
  %32 = call i32 @_ZN6apache6thrift8protocol9TProtocol14writeFieldStopEv(%"class.apache::thrift::protocol::TProtocol"* %31)
  %33 = load i32, i32* %5, align 4
  %34 = add i32 %33, %32
  store i32 %34, i32* %5, align 4
  %35 = load %"class.apache::thrift::protocol::TProtocol"*, %"class.apache::thrift::protocol::TProtocol"** %4, align 8
  %36 = call i32 @_ZN6apache6thrift8protocol9TProtocol14writeStructEndEv(%"class.apache::thrift::protocol::TProtocol"* %35)
  %37 = load i32, i32* %5, align 4
  %38 = add i32 %37, %36
  store i32 %38, i32* %5, align 4
  %39 = load i32, i32* %5, align 4
  ret i32 %39
}

; Function Attrs: noinline nounwind optnone uwtable
define void @_ZN14social_network41ComposePostService_UploadUniqueId_presultD2Ev(%"class.social_network::ComposePostService_UploadUniqueId_presult"* %0) unnamed_addr #0 align 2 {
  %2 = alloca %"class.social_network::ComposePostService_UploadUniqueId_presult"*, align 8
  store %"class.social_network::ComposePostService_UploadUniqueId_presult"* %0, %"class.social_network::ComposePostService_UploadUniqueId_presult"** %2, align 8
  %3 = load %"class.social_network::ComposePostService_UploadUniqueId_presult"*, %"class.social_network::ComposePostService_UploadUniqueId_presult"** %2, align 8
  %4 = bitcast %"class.social_network::ComposePostService_UploadUniqueId_presult"* %3 to i32 (...)***
  store i32 (...)** bitcast (i8** getelementptr inbounds ({ [4 x i8*] }, { [4 x i8*] }* @_ZTVN14social_network41ComposePostService_UploadUniqueId_presultE, i32 0, inrange i32 0, i32 2) to i32 (...)**), i32 (...)*** %4, align 8
  %5 = getelementptr inbounds %"class.social_network::ComposePostService_UploadUniqueId_presult", %"class.social_network::ComposePostService_UploadUniqueId_presult"* %3, i32 0, i32 1
  call void @_ZN14social_network16ServiceExceptionD1Ev(%"class.social_network::ServiceException"* %5) #12
  ret void
}

; Function Attrs: noinline nounwind optnone uwtable
define void @_ZN14social_network41ComposePostService_UploadUniqueId_presultD0Ev(%"class.social_network::ComposePostService_UploadUniqueId_presult"* %0) unnamed_addr #0 align 2 {
  %2 = alloca %"class.social_network::ComposePostService_UploadUniqueId_presult"*, align 8
  store %"class.social_network::ComposePostService_UploadUniqueId_presult"* %0, %"class.social_network::ComposePostService_UploadUniqueId_presult"** %2, align 8
  %3 = load %"class.social_network::ComposePostService_UploadUniqueId_presult"*, %"class.social_network::ComposePostService_UploadUniqueId_presult"** %2, align 8
  call void @_ZN14social_network41ComposePostService_UploadUniqueId_presultD1Ev(%"class.social_network::ComposePostService_UploadUniqueId_presult"* %3) #12
  %4 = bitcast %"class.social_network::ComposePostService_UploadUniqueId_presult"* %3 to i8*
  call void @_ZdlPv(i8* %4) #13
  ret void
}

; Function Attrs: noinline optnone uwtable
define i32 @_ZN14social_network41ComposePostService_UploadUniqueId_presult4readEPN6apache6thrift8protocol9TProtocolE(%"class.social_network::ComposePostService_UploadUniqueId_presult"* %0, %"class.apache::thrift::protocol::TProtocol"* %1) #3 align 2 personality i8* bitcast (i32 (...)* @__gxx_personality_v0 to i8*) {
  %3 = alloca %"class.social_network::ComposePostService_UploadUniqueId_presult"*, align 8
  %4 = alloca %"class.apache::thrift::protocol::TProtocol"*, align 8
  %5 = alloca %"struct.apache::thrift::protocol::TInputRecursionTracker", align 8
  %6 = alloca i32, align 4
  %7 = alloca %"class.std::__cxx11::basic_string", align 8
  %8 = alloca i32, align 4
  %9 = alloca i16, align 2
  %10 = alloca i8*
  %11 = alloca i32
  store %"class.social_network::ComposePostService_UploadUniqueId_presult"* %0, %"class.social_network::ComposePostService_UploadUniqueId_presult"** %3, align 8
  store %"class.apache::thrift::protocol::TProtocol"* %1, %"class.apache::thrift::protocol::TProtocol"** %4, align 8
  %12 = load %"class.social_network::ComposePostService_UploadUniqueId_presult"*, %"class.social_network::ComposePostService_UploadUniqueId_presult"** %3, align 8
  %13 = load %"class.apache::thrift::protocol::TProtocol"*, %"class.apache::thrift::protocol::TProtocol"** %4, align 8
  call void @_ZN6apache6thrift8protocol22TInputRecursionTrackerC2ERNS1_9TProtocolE(%"struct.apache::thrift::protocol::TInputRecursionTracker"* %5, %"class.apache::thrift::protocol::TProtocol"* dereferenceable(40) %13)
  store i32 0, i32* %6, align 4
  call void @_ZNSt7__cxx1112basic_stringIcSt11char_traitsIcESaIcEEC1Ev(%"class.std::__cxx11::basic_string"* %7) #12
  %14 = load %"class.apache::thrift::protocol::TProtocol"*, %"class.apache::thrift::protocol::TProtocol"** %4, align 8
  %15 = invoke i32 @_ZN6apache6thrift8protocol9TProtocol15readStructBeginERNSt7__cxx1112basic_stringIcSt11char_traitsIcESaIcEEE(%"class.apache::thrift::protocol::TProtocol"* %14, %"class.std::__cxx11::basic_string"* dereferenceable(32) %7)
          to label %16 unwind label %29

16:                                               ; preds = %2
  %17 = load i32, i32* %6, align 4
  %18 = add i32 %17, %15
  store i32 %18, i32* %6, align 4
  br label %19

19:                                               ; preds = %69, %16
  br label %20

20:                                               ; preds = %19
  %21 = load %"class.apache::thrift::protocol::TProtocol"*, %"class.apache::thrift::protocol::TProtocol"** %4, align 8
  %22 = invoke i32 @_ZN6apache6thrift8protocol9TProtocol14readFieldBeginERNSt7__cxx1112basic_stringIcSt11char_traitsIcESaIcEEERNS1_5TTypeERs(%"class.apache::thrift::protocol::TProtocol"* %21, %"class.std::__cxx11::basic_string"* dereferenceable(32) %7, i32* dereferenceable(4) %8, i16* dereferenceable(2) %9)
          to label %23 unwind label %29

23:                                               ; preds = %20
  %24 = load i32, i32* %6, align 4
  %25 = add i32 %24, %22
  store i32 %25, i32* %6, align 4
  %26 = load i32, i32* %8, align 4
  %27 = icmp eq i32 %26, 0
  br i1 %27, label %28, label %33

28:                                               ; preds = %23
  br label %72

29:                                               ; preds = %72, %66, %59, %51, %39, %20, %2
  %30 = landingpad { i8*, i32 }
          cleanup
  %31 = extractvalue { i8*, i32 } %30, 0
  store i8* %31, i8** %10, align 8
  %32 = extractvalue { i8*, i32 } %30, 1
  store i32 %32, i32* %11, align 4
  call void @_ZNSt7__cxx1112basic_stringIcSt11char_traitsIcESaIcEED1Ev(%"class.std::__cxx11::basic_string"* %7) #12
  call void @_ZN6apache6thrift8protocol22TInputRecursionTrackerD2Ev(%"struct.apache::thrift::protocol::TInputRecursionTracker"* %5) #12
  br label %79

33:                                               ; preds = %23
  %34 = load i16, i16* %9, align 2
  %35 = sext i16 %34 to i32
  switch i32 %35, label %59 [
    i32 1, label %36
  ]

36:                                               ; preds = %33
  %37 = load i32, i32* %8, align 4
  %38 = icmp eq i32 %37, 12
  br i1 %38, label %39, label %51

39:                                               ; preds = %36
  %40 = getelementptr inbounds %"class.social_network::ComposePostService_UploadUniqueId_presult", %"class.social_network::ComposePostService_UploadUniqueId_presult"* %12, i32 0, i32 1
  %41 = load %"class.apache::thrift::protocol::TProtocol"*, %"class.apache::thrift::protocol::TProtocol"** %4, align 8
  %42 = invoke i32 @_ZN14social_network16ServiceException4readEPN6apache6thrift8protocol9TProtocolE(%"class.social_network::ServiceException"* %40, %"class.apache::thrift::protocol::TProtocol"* %41)
          to label %43 unwind label %29

43:                                               ; preds = %39
  %44 = load i32, i32* %6, align 4
  %45 = add i32 %44, %42
  store i32 %45, i32* %6, align 4
  %46 = getelementptr inbounds %"class.social_network::ComposePostService_UploadUniqueId_presult", %"class.social_network::ComposePostService_UploadUniqueId_presult"* %12, i32 0, i32 2
  %47 = bitcast %"struct.social_network::_ComposePostService_UploadUniqueId_presult__isset"* %46 to i8*
  %48 = load i8, i8* %47, align 8
  %49 = and i8 %48, -2
  %50 = or i8 %49, 1
  store i8 %50, i8* %47, align 8
  br label %58

51:                                               ; preds = %36
  %52 = load %"class.apache::thrift::protocol::TProtocol"*, %"class.apache::thrift::protocol::TProtocol"** %4, align 8
  %53 = load i32, i32* %8, align 4
  %54 = invoke i32 @_ZN6apache6thrift8protocol9TProtocol4skipENS1_5TTypeE(%"class.apache::thrift::protocol::TProtocol"* %52, i32 %53)
          to label %55 unwind label %29

55:                                               ; preds = %51
  %56 = load i32, i32* %6, align 4
  %57 = add i32 %56, %54
  store i32 %57, i32* %6, align 4
  br label %58

58:                                               ; preds = %55, %43
  br label %66

59:                                               ; preds = %33
  %60 = load %"class.apache::thrift::protocol::TProtocol"*, %"class.apache::thrift::protocol::TProtocol"** %4, align 8
  %61 = load i32, i32* %8, align 4
  %62 = invoke i32 @_ZN6apache6thrift8protocol9TProtocol4skipENS1_5TTypeE(%"class.apache::thrift::protocol::TProtocol"* %60, i32 %61)
          to label %63 unwind label %29

63:                                               ; preds = %59
  %64 = load i32, i32* %6, align 4
  %65 = add i32 %64, %62
  store i32 %65, i32* %6, align 4
  br label %66

66:                                               ; preds = %63, %58
  %67 = load %"class.apache::thrift::protocol::TProtocol"*, %"class.apache::thrift::protocol::TProtocol"** %4, align 8
  %68 = invoke i32 @_ZN6apache6thrift8protocol9TProtocol12readFieldEndEv(%"class.apache::thrift::protocol::TProtocol"* %67)
          to label %69 unwind label %29

69:                                               ; preds = %66
  %70 = load i32, i32* %6, align 4
  %71 = add i32 %70, %68
  store i32 %71, i32* %6, align 4
  br label %19

72:                                               ; preds = %28
  %73 = load %"class.apache::thrift::protocol::TProtocol"*, %"class.apache::thrift::protocol::TProtocol"** %4, align 8
  %74 = invoke i32 @_ZN6apache6thrift8protocol9TProtocol13readStructEndEv(%"class.apache::thrift::protocol::TProtocol"* %73)
          to label %75 unwind label %29

75:                                               ; preds = %72
  %76 = load i32, i32* %6, align 4
  %77 = add i32 %76, %74
  store i32 %77, i32* %6, align 4
  %78 = load i32, i32* %6, align 4
  call void @_ZNSt7__cxx1112basic_stringIcSt11char_traitsIcESaIcEED1Ev(%"class.std::__cxx11::basic_string"* %7) #12
  call void @_ZN6apache6thrift8protocol22TInputRecursionTrackerD2Ev(%"struct.apache::thrift::protocol::TInputRecursionTracker"* %5) #12
  ret i32 %78

79:                                               ; preds = %29
  %80 = load i8*, i8** %10, align 8
  %81 = load i32, i32* %11, align 4
  %82 = insertvalue { i8*, i32 } undef, i8* %80, 0
  %83 = insertvalue { i8*, i32 } %82, i32 %81, 1
  resume { i8*, i32 } %83
}

; Function Attrs: noinline nounwind optnone uwtable
define void @_ZN14social_network37ComposePostService_UploadCreator_argsD2Ev(%"class.social_network::ComposePostService_UploadCreator_args"* %0) unnamed_addr #0 align 2 {
  %2 = alloca %"class.social_network::ComposePostService_UploadCreator_args"*, align 8
  store %"class.social_network::ComposePostService_UploadCreator_args"* %0, %"class.social_network::ComposePostService_UploadCreator_args"** %2, align 8
  %3 = load %"class.social_network::ComposePostService_UploadCreator_args"*, %"class.social_network::ComposePostService_UploadCreator_args"** %2, align 8
  %4 = bitcast %"class.social_network::ComposePostService_UploadCreator_args"* %3 to i32 (...)***
  store i32 (...)** bitcast (i8** getelementptr inbounds ({ [4 x i8*] }, { [4 x i8*] }* @_ZTVN14social_network37ComposePostService_UploadCreator_argsE, i32 0, inrange i32 0, i32 2) to i32 (...)**), i32 (...)*** %4, align 8
  %5 = getelementptr inbounds %"class.social_network::ComposePostService_UploadCreator_args", %"class.social_network::ComposePostService_UploadCreator_args"* %3, i32 0, i32 3
  call void @_ZNSt3mapINSt7__cxx1112basic_stringIcSt11char_traitsIcESaIcEEES5_St4lessIS5_ESaISt4pairIKS5_S5_EEED2Ev(%"class.std::map"* %5) #12
  %6 = getelementptr inbounds %"class.social_network::ComposePostService_UploadCreator_args", %"class.social_network::ComposePostService_UploadCreator_args"* %3, i32 0, i32 2
  call void @_ZN14social_network7CreatorD1Ev(%"class.social_network::Creator"* %6) #12
  ret void
}

; Function Attrs: nounwind
declare void @_ZN14social_network7CreatorD1Ev(%"class.social_network::Creator"*) unnamed_addr #1

; Function Attrs: noinline nounwind optnone uwtable
define void @_ZN14social_network37ComposePostService_UploadCreator_argsD0Ev(%"class.social_network::ComposePostService_UploadCreator_args"* %0) unnamed_addr #0 align 2 {
  %2 = alloca %"class.social_network::ComposePostService_UploadCreator_args"*, align 8
  store %"class.social_network::ComposePostService_UploadCreator_args"* %0, %"class.social_network::ComposePostService_UploadCreator_args"** %2, align 8
  %3 = load %"class.social_network::ComposePostService_UploadCreator_args"*, %"class.social_network::ComposePostService_UploadCreator_args"** %2, align 8
  call void @_ZN14social_network37ComposePostService_UploadCreator_argsD1Ev(%"class.social_network::ComposePostService_UploadCreator_args"* %3) #12
  %4 = bitcast %"class.social_network::ComposePostService_UploadCreator_args"* %3 to i8*
  call void @_ZdlPv(i8* %4) #13
  ret void
}

; Function Attrs: noinline optnone uwtable
define i32 @_ZN14social_network37ComposePostService_UploadCreator_args4readEPN6apache6thrift8protocol9TProtocolE(%"class.social_network::ComposePostService_UploadCreator_args"* %0, %"class.apache::thrift::protocol::TProtocol"* %1) #3 align 2 personality i8* bitcast (i32 (...)* @__gxx_personality_v0 to i8*) {
  %3 = alloca %"class.social_network::ComposePostService_UploadCreator_args"*, align 8
  %4 = alloca %"class.apache::thrift::protocol::TProtocol"*, align 8
  %5 = alloca %"struct.apache::thrift::protocol::TInputRecursionTracker", align 8
  %6 = alloca i32, align 4
  %7 = alloca %"class.std::__cxx11::basic_string", align 8
  %8 = alloca i32, align 4
  %9 = alloca i16, align 2
  %10 = alloca i8*
  %11 = alloca i32
  %12 = alloca i32, align 4
  %13 = alloca i32, align 4
  %14 = alloca i32, align 4
  %15 = alloca i32, align 4
  %16 = alloca %"class.std::__cxx11::basic_string", align 8
  %17 = alloca %"class.std::__cxx11::basic_string"*, align 8
  store %"class.social_network::ComposePostService_UploadCreator_args"* %0, %"class.social_network::ComposePostService_UploadCreator_args"** %3, align 8
  store %"class.apache::thrift::protocol::TProtocol"* %1, %"class.apache::thrift::protocol::TProtocol"** %4, align 8
  %18 = load %"class.social_network::ComposePostService_UploadCreator_args"*, %"class.social_network::ComposePostService_UploadCreator_args"** %3, align 8
  %19 = load %"class.apache::thrift::protocol::TProtocol"*, %"class.apache::thrift::protocol::TProtocol"** %4, align 8
  call void @_ZN6apache6thrift8protocol22TInputRecursionTrackerC2ERNS1_9TProtocolE(%"struct.apache::thrift::protocol::TInputRecursionTracker"* %5, %"class.apache::thrift::protocol::TProtocol"* dereferenceable(40) %19)
  store i32 0, i32* %6, align 4
  call void @_ZNSt7__cxx1112basic_stringIcSt11char_traitsIcESaIcEEC1Ev(%"class.std::__cxx11::basic_string"* %7) #12
  %20 = load %"class.apache::thrift::protocol::TProtocol"*, %"class.apache::thrift::protocol::TProtocol"** %4, align 8
  %21 = invoke i32 @_ZN6apache6thrift8protocol9TProtocol15readStructBeginERNSt7__cxx1112basic_stringIcSt11char_traitsIcESaIcEEE(%"class.apache::thrift::protocol::TProtocol"* %20, %"class.std::__cxx11::basic_string"* dereferenceable(32) %7)
          to label %22 unwind label %35

22:                                               ; preds = %2
  %23 = load i32, i32* %6, align 4
  %24 = add i32 %23, %21
  store i32 %24, i32* %6, align 4
  br label %25

25:                                               ; preds = %153, %22
  br label %26

26:                                               ; preds = %25
  %27 = load %"class.apache::thrift::protocol::TProtocol"*, %"class.apache::thrift::protocol::TProtocol"** %4, align 8
  %28 = invoke i32 @_ZN6apache6thrift8protocol9TProtocol14readFieldBeginERNSt7__cxx1112basic_stringIcSt11char_traitsIcESaIcEEERNS1_5TTypeERs(%"class.apache::thrift::protocol::TProtocol"* %27, %"class.std::__cxx11::basic_string"* dereferenceable(32) %7, i32* dereferenceable(4) %8, i16* dereferenceable(2) %9)
          to label %29 unwind label %35

29:                                               ; preds = %26
  %30 = load i32, i32* %6, align 4
  %31 = add i32 %30, %28
  store i32 %31, i32* %6, align 4
  %32 = load i32, i32* %8, align 4
  %33 = icmp eq i32 %32, 0
  br i1 %33, label %34, label %39

34:                                               ; preds = %29
  br label %156

35:                                               ; preds = %156, %150, %143, %135, %124, %91, %80, %68, %57, %45, %26, %2
  %36 = landingpad { i8*, i32 }
          cleanup
  %37 = extractvalue { i8*, i32 } %36, 0
  store i8* %37, i8** %10, align 8
  %38 = extractvalue { i8*, i32 } %36, 1
  store i32 %38, i32* %11, align 4
  br label %163

39:                                               ; preds = %29
  %40 = load i16, i16* %9, align 2
  %41 = sext i16 %40 to i32
  switch i32 %41, label %143 [
    i32 1, label %42
    i32 2, label %65
    i32 3, label %88
  ]

42:                                               ; preds = %39
  %43 = load i32, i32* %8, align 4
  %44 = icmp eq i32 %43, 10
  br i1 %44, label %45, label %57

45:                                               ; preds = %42
  %46 = load %"class.apache::thrift::protocol::TProtocol"*, %"class.apache::thrift::protocol::TProtocol"** %4, align 8
  %47 = getelementptr inbounds %"class.social_network::ComposePostService_UploadCreator_args", %"class.social_network::ComposePostService_UploadCreator_args"* %18, i32 0, i32 1
  %48 = invoke i32 @_ZN6apache6thrift8protocol9TProtocol7readI64ERl(%"class.apache::thrift::protocol::TProtocol"* %46, i64* dereferenceable(8) %47)
          to label %49 unwind label %35

49:                                               ; preds = %45
  %50 = load i32, i32* %6, align 4
  %51 = add i32 %50, %48
  store i32 %51, i32* %6, align 4
  %52 = getelementptr inbounds %"class.social_network::ComposePostService_UploadCreator_args", %"class.social_network::ComposePostService_UploadCreator_args"* %18, i32 0, i32 4
  %53 = bitcast %"struct.social_network::_ComposePostService_UploadCreator_args__isset"* %52 to i8*
  %54 = load i8, i8* %53, align 8
  %55 = and i8 %54, -2
  %56 = or i8 %55, 1
  store i8 %56, i8* %53, align 8
  br label %64

57:                                               ; preds = %42
  %58 = load %"class.apache::thrift::protocol::TProtocol"*, %"class.apache::thrift::protocol::TProtocol"** %4, align 8
  %59 = load i32, i32* %8, align 4
  %60 = invoke i32 @_ZN6apache6thrift8protocol9TProtocol4skipENS1_5TTypeE(%"class.apache::thrift::protocol::TProtocol"* %58, i32 %59)
          to label %61 unwind label %35

61:                                               ; preds = %57
  %62 = load i32, i32* %6, align 4
  %63 = add i32 %62, %60
  store i32 %63, i32* %6, align 4
  br label %64

64:                                               ; preds = %61, %49
  br label %150

65:                                               ; preds = %39
  %66 = load i32, i32* %8, align 4
  %67 = icmp eq i32 %66, 12
  br i1 %67, label %68, label %80

68:                                               ; preds = %65
  %69 = getelementptr inbounds %"class.social_network::ComposePostService_UploadCreator_args", %"class.social_network::ComposePostService_UploadCreator_args"* %18, i32 0, i32 2
  %70 = load %"class.apache::thrift::protocol::TProtocol"*, %"class.apache::thrift::protocol::TProtocol"** %4, align 8
  %71 = invoke i32 @_ZN14social_network7Creator4readEPN6apache6thrift8protocol9TProtocolE(%"class.social_network::Creator"* %69, %"class.apache::thrift::protocol::TProtocol"* %70)
          to label %72 unwind label %35

72:                                               ; preds = %68
  %73 = load i32, i32* %6, align 4
  %74 = add i32 %73, %71
  store i32 %74, i32* %6, align 4
  %75 = getelementptr inbounds %"class.social_network::ComposePostService_UploadCreator_args", %"class.social_network::ComposePostService_UploadCreator_args"* %18, i32 0, i32 4
  %76 = bitcast %"struct.social_network::_ComposePostService_UploadCreator_args__isset"* %75 to i8*
  %77 = load i8, i8* %76, align 8
  %78 = and i8 %77, -3
  %79 = or i8 %78, 2
  store i8 %79, i8* %76, align 8
  br label %87

80:                                               ; preds = %65
  %81 = load %"class.apache::thrift::protocol::TProtocol"*, %"class.apache::thrift::protocol::TProtocol"** %4, align 8
  %82 = load i32, i32* %8, align 4
  %83 = invoke i32 @_ZN6apache6thrift8protocol9TProtocol4skipENS1_5TTypeE(%"class.apache::thrift::protocol::TProtocol"* %81, i32 %82)
          to label %84 unwind label %35

84:                                               ; preds = %80
  %85 = load i32, i32* %6, align 4
  %86 = add i32 %85, %83
  store i32 %86, i32* %6, align 4
  br label %87

87:                                               ; preds = %84, %72
  br label %150

88:                                               ; preds = %39
  %89 = load i32, i32* %8, align 4
  %90 = icmp eq i32 %89, 13
  br i1 %90, label %91, label %135

91:                                               ; preds = %88
  %92 = getelementptr inbounds %"class.social_network::ComposePostService_UploadCreator_args", %"class.social_network::ComposePostService_UploadCreator_args"* %18, i32 0, i32 3
  call void @_ZNSt3mapINSt7__cxx1112basic_stringIcSt11char_traitsIcESaIcEEES5_St4lessIS5_ESaISt4pairIKS5_S5_EEE5clearEv(%"class.std::map"* %92) #12
  %93 = load %"class.apache::thrift::protocol::TProtocol"*, %"class.apache::thrift::protocol::TProtocol"** %4, align 8
  %94 = invoke i32 @_ZN6apache6thrift8protocol9TProtocol12readMapBeginERNS1_5TTypeES4_Rj(%"class.apache::thrift::protocol::TProtocol"* %93, i32* dereferenceable(4) %13, i32* dereferenceable(4) %14, i32* dereferenceable(4) %12)
          to label %95 unwind label %35

95:                                               ; preds = %91
  %96 = load i32, i32* %6, align 4
  %97 = add i32 %96, %94
  store i32 %97, i32* %6, align 4
  store i32 0, i32* %15, align 4
  br label %98

98:                                               ; preds = %117, %95
  %99 = load i32, i32* %15, align 4
  %100 = load i32, i32* %12, align 4
  %101 = icmp ult i32 %99, %100
  br i1 %101, label %102, label %124

102:                                              ; preds = %98
  call void @_ZNSt7__cxx1112basic_stringIcSt11char_traitsIcESaIcEEC1Ev(%"class.std::__cxx11::basic_string"* %16) #12
  %103 = load %"class.apache::thrift::protocol::TProtocol"*, %"class.apache::thrift::protocol::TProtocol"** %4, align 8
  %104 = invoke i32 @_ZN6apache6thrift8protocol9TProtocol10readStringERNSt7__cxx1112basic_stringIcSt11char_traitsIcESaIcEEE(%"class.apache::thrift::protocol::TProtocol"* %103, %"class.std::__cxx11::basic_string"* dereferenceable(32) %16)
          to label %105 unwind label %120

105:                                              ; preds = %102
  %106 = load i32, i32* %6, align 4
  %107 = add i32 %106, %104
  store i32 %107, i32* %6, align 4
  %108 = getelementptr inbounds %"class.social_network::ComposePostService_UploadCreator_args", %"class.social_network::ComposePostService_UploadCreator_args"* %18, i32 0, i32 3
  %109 = invoke dereferenceable(32) %"class.std::__cxx11::basic_string"* @_ZNSt3mapINSt7__cxx1112basic_stringIcSt11char_traitsIcESaIcEEES5_St4lessIS5_ESaISt4pairIKS5_S5_EEEixERS9_(%"class.std::map"* %108, %"class.std::__cxx11::basic_string"* dereferenceable(32) %16)
          to label %110 unwind label %120

110:                                              ; preds = %105
  store %"class.std::__cxx11::basic_string"* %109, %"class.std::__cxx11::basic_string"** %17, align 8
  %111 = load %"class.apache::thrift::protocol::TProtocol"*, %"class.apache::thrift::protocol::TProtocol"** %4, align 8
  %112 = load %"class.std::__cxx11::basic_string"*, %"class.std::__cxx11::basic_string"** %17, align 8
  %113 = invoke i32 @_ZN6apache6thrift8protocol9TProtocol10readStringERNSt7__cxx1112basic_stringIcSt11char_traitsIcESaIcEEE(%"class.apache::thrift::protocol::TProtocol"* %111, %"class.std::__cxx11::basic_string"* dereferenceable(32) %112)
          to label %114 unwind label %120

114:                                              ; preds = %110
  %115 = load i32, i32* %6, align 4
  %116 = add i32 %115, %113
  store i32 %116, i32* %6, align 4
  call void @_ZNSt7__cxx1112basic_stringIcSt11char_traitsIcESaIcEED1Ev(%"class.std::__cxx11::basic_string"* %16) #12
  br label %117

117:                                              ; preds = %114
  %118 = load i32, i32* %15, align 4
  %119 = add i32 %118, 1
  store i32 %119, i32* %15, align 4
  br label %98

120:                                              ; preds = %110, %105, %102
  %121 = landingpad { i8*, i32 }
          cleanup
  %122 = extractvalue { i8*, i32 } %121, 0
  store i8* %122, i8** %10, align 8
  %123 = extractvalue { i8*, i32 } %121, 1
  store i32 %123, i32* %11, align 4
  call void @_ZNSt7__cxx1112basic_stringIcSt11char_traitsIcESaIcEED1Ev(%"class.std::__cxx11::basic_string"* %16) #12
  br label %163

124:                                              ; preds = %98
  %125 = load %"class.apache::thrift::protocol::TProtocol"*, %"class.apache::thrift::protocol::TProtocol"** %4, align 8
  %126 = invoke i32 @_ZN6apache6thrift8protocol9TProtocol10readMapEndEv(%"class.apache::thrift::protocol::TProtocol"* %125)
          to label %127 unwind label %35

127:                                              ; preds = %124
  %128 = load i32, i32* %6, align 4
  %129 = add i32 %128, %126
  store i32 %129, i32* %6, align 4
  %130 = getelementptr inbounds %"class.social_network::ComposePostService_UploadCreator_args", %"class.social_network::ComposePostService_UploadCreator_args"* %18, i32 0, i32 4
  %131 = bitcast %"struct.social_network::_ComposePostService_UploadCreator_args__isset"* %130 to i8*
  %132 = load i8, i8* %131, align 8
  %133 = and i8 %132, -5
  %134 = or i8 %133, 4
  store i8 %134, i8* %131, align 8
  br label %142

135:                                              ; preds = %88
  %136 = load %"class.apache::thrift::protocol::TProtocol"*, %"class.apache::thrift::protocol::TProtocol"** %4, align 8
  %137 = load i32, i32* %8, align 4
  %138 = invoke i32 @_ZN6apache6thrift8protocol9TProtocol4skipENS1_5TTypeE(%"class.apache::thrift::protocol::TProtocol"* %136, i32 %137)
          to label %139 unwind label %35

139:                                              ; preds = %135
  %140 = load i32, i32* %6, align 4
  %141 = add i32 %140, %138
  store i32 %141, i32* %6, align 4
  br label %142

142:                                              ; preds = %139, %127
  br label %150

143:                                              ; preds = %39
  %144 = load %"class.apache::thrift::protocol::TProtocol"*, %"class.apache::thrift::protocol::TProtocol"** %4, align 8
  %145 = load i32, i32* %8, align 4
  %146 = invoke i32 @_ZN6apache6thrift8protocol9TProtocol4skipENS1_5TTypeE(%"class.apache::thrift::protocol::TProtocol"* %144, i32 %145)
          to label %147 unwind label %35

147:                                              ; preds = %143
  %148 = load i32, i32* %6, align 4
  %149 = add i32 %148, %146
  store i32 %149, i32* %6, align 4
  br label %150

150:                                              ; preds = %147, %142, %87, %64
  %151 = load %"class.apache::thrift::protocol::TProtocol"*, %"class.apache::thrift::protocol::TProtocol"** %4, align 8
  %152 = invoke i32 @_ZN6apache6thrift8protocol9TProtocol12readFieldEndEv(%"class.apache::thrift::protocol::TProtocol"* %151)
          to label %153 unwind label %35

153:                                              ; preds = %150
  %154 = load i32, i32* %6, align 4
  %155 = add i32 %154, %152
  store i32 %155, i32* %6, align 4
  br label %25

156:                                              ; preds = %34
  %157 = load %"class.apache::thrift::protocol::TProtocol"*, %"class.apache::thrift::protocol::TProtocol"** %4, align 8
  %158 = invoke i32 @_ZN6apache6thrift8protocol9TProtocol13readStructEndEv(%"class.apache::thrift::protocol::TProtocol"* %157)
          to label %159 unwind label %35

159:                                              ; preds = %156
  %160 = load i32, i32* %6, align 4
  %161 = add i32 %160, %158
  store i32 %161, i32* %6, align 4
  %162 = load i32, i32* %6, align 4
  call void @_ZNSt7__cxx1112basic_stringIcSt11char_traitsIcESaIcEED1Ev(%"class.std::__cxx11::basic_string"* %7) #12
  call void @_ZN6apache6thrift8protocol22TInputRecursionTrackerD2Ev(%"struct.apache::thrift::protocol::TInputRecursionTracker"* %5) #12
  ret i32 %162

163:                                              ; preds = %120, %35
  call void @_ZNSt7__cxx1112basic_stringIcSt11char_traitsIcESaIcEED1Ev(%"class.std::__cxx11::basic_string"* %7) #12
  call void @_ZN6apache6thrift8protocol22TInputRecursionTrackerD2Ev(%"struct.apache::thrift::protocol::TInputRecursionTracker"* %5) #12
  br label %164

164:                                              ; preds = %163
  %165 = load i8*, i8** %10, align 8
  %166 = load i32, i32* %11, align 4
  %167 = insertvalue { i8*, i32 } undef, i8* %165, 0
  %168 = insertvalue { i8*, i32 } %167, i32 %166, 1
  resume { i8*, i32 } %168
}

declare i32 @_ZN14social_network7Creator4readEPN6apache6thrift8protocol9TProtocolE(%"class.social_network::Creator"*, %"class.apache::thrift::protocol::TProtocol"*) unnamed_addr #5

; Function Attrs: noinline optnone uwtable
define i32 @_ZNK14social_network37ComposePostService_UploadCreator_args5writeEPN6apache6thrift8protocol9TProtocolE(%"class.social_network::ComposePostService_UploadCreator_args"* %0, %"class.apache::thrift::protocol::TProtocol"* %1) #3 align 2 personality i8* bitcast (i32 (...)* @__gxx_personality_v0 to i8*) {
  %3 = alloca %"class.social_network::ComposePostService_UploadCreator_args"*, align 8
  %4 = alloca %"class.apache::thrift::protocol::TProtocol"*, align 8
  %5 = alloca i32, align 4
  %6 = alloca %"struct.apache::thrift::protocol::TOutputRecursionTracker", align 8
  %7 = alloca i8*
  %8 = alloca i32
  %9 = alloca %"struct.std::_Rb_tree_const_iterator", align 8
  %10 = alloca %"struct.std::_Rb_tree_const_iterator", align 8
  %11 = alloca %"struct.std::_Rb_tree_const_iterator", align 8
  store %"class.social_network::ComposePostService_UploadCreator_args"* %0, %"class.social_network::ComposePostService_UploadCreator_args"** %3, align 8
  store %"class.apache::thrift::protocol::TProtocol"* %1, %"class.apache::thrift::protocol::TProtocol"** %4, align 8
  %12 = load %"class.social_network::ComposePostService_UploadCreator_args"*, %"class.social_network::ComposePostService_UploadCreator_args"** %3, align 8
  store i32 0, i32* %5, align 4
  %13 = load %"class.apache::thrift::protocol::TProtocol"*, %"class.apache::thrift::protocol::TProtocol"** %4, align 8
  call void @_ZN6apache6thrift8protocol23TOutputRecursionTrackerC2ERNS1_9TProtocolE(%"struct.apache::thrift::protocol::TOutputRecursionTracker"* %6, %"class.apache::thrift::protocol::TProtocol"* dereferenceable(40) %13)
  %14 = load %"class.apache::thrift::protocol::TProtocol"*, %"class.apache::thrift::protocol::TProtocol"** %4, align 8
  %15 = invoke i32 @_ZN6apache6thrift8protocol9TProtocol16writeStructBeginEPKc(%"class.apache::thrift::protocol::TProtocol"* %14, i8* getelementptr inbounds ([38 x i8], [38 x i8]* @.str.16, i64 0, i64 0))
          to label %16 unwind label %92

16:                                               ; preds = %2
  %17 = load i32, i32* %5, align 4
  %18 = add i32 %17, %15
  store i32 %18, i32* %5, align 4
  %19 = load %"class.apache::thrift::protocol::TProtocol"*, %"class.apache::thrift::protocol::TProtocol"** %4, align 8
  %20 = invoke i32 @_ZN6apache6thrift8protocol9TProtocol15writeFieldBeginEPKcNS1_5TTypeEs(%"class.apache::thrift::protocol::TProtocol"* %19, i8* getelementptr inbounds ([7 x i8], [7 x i8]* @.str.1, i64 0, i64 0), i32 10, i16 signext 1)
          to label %21 unwind label %92

21:                                               ; preds = %16
  %22 = load i32, i32* %5, align 4
  %23 = add i32 %22, %20
  store i32 %23, i32* %5, align 4
  %24 = load %"class.apache::thrift::protocol::TProtocol"*, %"class.apache::thrift::protocol::TProtocol"** %4, align 8
  %25 = getelementptr inbounds %"class.social_network::ComposePostService_UploadCreator_args", %"class.social_network::ComposePostService_UploadCreator_args"* %12, i32 0, i32 1
  %26 = load i64, i64* %25, align 8
  %27 = invoke i32 @_ZN6apache6thrift8protocol9TProtocol8writeI64El(%"class.apache::thrift::protocol::TProtocol"* %24, i64 %26)
          to label %28 unwind label %92

28:                                               ; preds = %21
  %29 = load i32, i32* %5, align 4
  %30 = add i32 %29, %27
  store i32 %30, i32* %5, align 4
  %31 = load %"class.apache::thrift::protocol::TProtocol"*, %"class.apache::thrift::protocol::TProtocol"** %4, align 8
  %32 = invoke i32 @_ZN6apache6thrift8protocol9TProtocol13writeFieldEndEv(%"class.apache::thrift::protocol::TProtocol"* %31)
          to label %33 unwind label %92

33:                                               ; preds = %28
  %34 = load i32, i32* %5, align 4
  %35 = add i32 %34, %32
  store i32 %35, i32* %5, align 4
