; ModuleID = '/proj/zyuxuanssf-PG0/nightcore-test/socialnetwork_softbound/DeathStarBench/socialNetwork/gen-cpp/social_network_types.cpp'
source_filename = "/proj/zyuxuanssf-PG0/nightcore-test/socialnetwork_softbound/DeathStarBench/socialNetwork/gen-cpp/social_network_types.cpp"
target datalayout = "e-m:e-p270:32:32-p271:32:32-p272:64:64-i64:64-f80:128-n8:16:32:64-S128"
target triple = "x86_64-unknown-linux-gnu"

%"class.std::map" = type { %"class.std::_Rb_tree" }
%"class.std::_Rb_tree" = type { %"struct.std::_Rb_tree<int, std::pair<const int, const char *>, std::_Select1st<std::pair<const int, const char *> >, std::less<int>, std::allocator<std::pair<const int, const char *> > >::_Rb_tree_impl" }
%"struct.std::_Rb_tree<int, std::pair<const int, const char *>, std::_Select1st<std::pair<const int, const char *> >, std::less<int>, std::allocator<std::pair<const int, const char *> > >::_Rb_tree_impl" = type { %"struct.std::_Rb_tree_key_compare", %"struct.std::_Rb_tree_header" }
%"struct.std::_Rb_tree_key_compare" = type { %"struct.std::less" }
%"struct.std::less" = type { i8 }
%"struct.std::_Rb_tree_header" = type { %"struct.std::_Rb_tree_node_base", i64 }
%"struct.std::_Rb_tree_node_base" = type { i32, %"struct.std::_Rb_tree_node_base"*, %"struct.std::_Rb_tree_node_base"*, %"struct.std::_Rb_tree_node_base"* }
%"class.social_network::ServiceException" = type { %"class.apache::thrift::TException", i32, %"class.std::__cxx11::basic_string", %"struct.social_network::_ServiceException__isset", %"class.std::__cxx11::basic_string" }
%"class.apache::thrift::TException" = type { %"class.std::exception", %"class.std::__cxx11::basic_string" }
%"class.std::exception" = type { i32 (...)** }
%"struct.social_network::_ServiceException__isset" = type { i8 }
%"class.std::__cxx11::basic_string" = type { %"struct.std::__cxx11::basic_string<char, std::char_traits<char>, std::allocator<char> >::_Alloc_hider", i64, %union.anon }
%"struct.std::__cxx11::basic_string<char, std::char_traits<char>, std::allocator<char> >::_Alloc_hider" = type { i8* }
%union.anon = type { i64, [8 x i8] }
%"class.apache::thrift::TEnumIterator" = type { i32, i32, i32*, i8** }
%"struct.std::iterator" = type { i8 }
%"class.std::basic_ostream" = type { i32 (...)**, %"class.std::basic_ios" }
%"class.std::basic_ios" = type { %"class.std::ios_base", %"class.std::basic_ostream"*, i8, i8, %"class.std::basic_streambuf"*, %"class.std::ctype"*, %"class.std::num_put"*, %"class.std::num_get"* }
%"class.std::ios_base" = type { i32 (...)**, i64, i64, i32, i32, i32, %"struct.std::ios_base::_Callback_list"*, %"struct.std::ios_base::_Words", [8 x %"struct.std::ios_base::_Words"], i32, %"struct.std::ios_base::_Words"*, %"class.std::locale" }
%"struct.std::ios_base::_Callback_list" = type { %"struct.std::ios_base::_Callback_list"*, void (i32, %"class.std::ios_base"*, i32)*, i32, i32 }
%"struct.std::ios_base::_Words" = type { i8*, i64 }
%"class.std::locale" = type { %"class.std::locale::_Impl"* }
%"class.std::locale::_Impl" = type { i32, %"class.std::locale::facet"**, i64, %"class.std::locale::facet"**, i8** }
%"class.std::locale::facet" = type <{ i32 (...)**, i32, [4 x i8] }>
%"class.std::basic_streambuf" = type { i32 (...)**, i8*, i8*, i8*, i8*, i8*, i8*, %"class.std::locale" }
%"class.std::ctype" = type <{ %"class.std::locale::facet.base", [4 x i8], %struct.__locale_struct*, i8, [7 x i8], i32*, i32*, i16*, i8, [256 x i8], [256 x i8], i8, [6 x i8] }>
%"class.std::locale::facet.base" = type <{ i32 (...)**, i32 }>
%struct.__locale_struct = type { [13 x %struct.__locale_data*], i16*, i32*, i32*, [13 x i8*] }
%struct.__locale_data = type opaque
%"class.std::num_put" = type { %"class.std::locale::facet.base", [4 x i8] }
%"class.std::num_get" = type { %"class.std::locale::facet.base", [4 x i8] }
%"struct.std::_Rb_tree_const_iterator" = type { %"struct.std::_Rb_tree_node_base"* }
%"struct.std::pair" = type { i32, i8* }
%"struct.std::_Rb_tree_node" = type { %"struct.std::_Rb_tree_node_base", %"struct.__gnu_cxx::__aligned_membuf" }
%"struct.__gnu_cxx::__aligned_membuf" = type { [16 x i8] }
%"class.social_network::User" = type <{ %"class.apache::thrift::TBase", i64, %"class.std::__cxx11::basic_string", %"class.std::__cxx11::basic_string", %"class.std::__cxx11::basic_string", %"class.std::__cxx11::basic_string", %"class.std::__cxx11::basic_string", %"struct.social_network::_User__isset", [7 x i8] }>
%"class.apache::thrift::TBase" = type { i32 (...)** }
%"struct.social_network::_User__isset" = type { i8 }
%"class.apache::thrift::protocol::TProtocol" = type <{ i32 (...)**, %"class.std::shared_ptr", i32, i32, i32, [4 x i8] }>
%"class.std::shared_ptr" = type { %"class.std::__shared_ptr" }
%"class.std::__shared_ptr" = type { %"class.apache::thrift::transport::TTransport"*, %"class.std::__shared_count" }
%"class.apache::thrift::transport::TTransport" = type { i32 (...)** }
%"class.std::__shared_count" = type { %"class.std::_Sp_counted_base"* }
%"class.std::_Sp_counted_base" = type { i32 (...)**, i32, i32 }
%"struct.apache::thrift::protocol::TInputRecursionTracker" = type { %"class.apache::thrift::protocol::TProtocol"* }
%"struct.apache::thrift::protocol::TOutputRecursionTracker" = type { %"class.apache::thrift::protocol::TProtocol"* }
%"class.std::__cxx11::basic_ostringstream" = type { %"class.std::basic_ostream.base", %"class.std::__cxx11::basic_stringbuf", %"class.std::basic_ios" }
%"class.std::basic_ostream.base" = type { i32 (...)** }
%"class.std::__cxx11::basic_stringbuf" = type { %"class.std::basic_streambuf", i32, %"class.std::__cxx11::basic_string" }
%"class.std::__cxx11::basic_stringstream" = type { %"class.std::basic_iostream.base", %"class.std::__cxx11::basic_stringbuf", %"class.std::basic_ios" }
%"class.std::basic_iostream.base" = type { %"class.std::basic_istream.base", %"class.std::basic_ostream.base" }
%"class.std::basic_istream.base" = type { i32 (...)**, i64 }
%"class.social_network::Media" = type <{ %"class.apache::thrift::TBase", i64, %"class.std::__cxx11::basic_string", %"struct.social_network::_Media__isset", [7 x i8] }>
%"struct.social_network::_Media__isset" = type { i8 }
%"class.social_network::Url" = type <{ %"class.apache::thrift::TBase", %"class.std::__cxx11::basic_string", %"class.std::__cxx11::basic_string", %"struct.social_network::_Url__isset", [7 x i8] }>
%"struct.social_network::_Url__isset" = type { i8 }
%"class.social_network::UserMention" = type <{ %"class.apache::thrift::TBase", i64, %"class.std::__cxx11::basic_string", %"struct.social_network::_UserMention__isset", [7 x i8] }>
%"struct.social_network::_UserMention__isset" = type { i8 }
%"class.social_network::Creator" = type <{ %"class.apache::thrift::TBase", i64, %"class.std::__cxx11::basic_string", %"struct.social_network::_Creator__isset", [7 x i8] }>
%"struct.social_network::_Creator__isset" = type { i8 }
%"class.social_network::Post" = type <{ %"class.apache::thrift::TBase", i64, %"class.social_network::Creator", i64, %"class.std::__cxx11::basic_string", %"class.std::vector", %"class.std::vector.6", %"class.std::vector.11", i64, i32, %"struct.social_network::_Post__isset", [2 x i8] }>
%"class.std::vector" = type { %"struct.std::_Vector_base" }
%"struct.std::_Vector_base" = type { %"struct.std::_Vector_base<social_network::UserMention, std::allocator<social_network::UserMention> >::_Vector_impl" }
%"struct.std::_Vector_base<social_network::UserMention, std::allocator<social_network::UserMention> >::_Vector_impl" = type { %"struct.std::_Vector_base<social_network::UserMention, std::allocator<social_network::UserMention> >::_Vector_impl_data" }
%"struct.std::_Vector_base<social_network::UserMention, std::allocator<social_network::UserMention> >::_Vector_impl_data" = type { %"class.social_network::UserMention"*, %"class.social_network::UserMention"*, %"class.social_network::UserMention"* }
%"class.std::vector.6" = type { %"struct.std::_Vector_base.7" }
%"struct.std::_Vector_base.7" = type { %"struct.std::_Vector_base<social_network::Media, std::allocator<social_network::Media> >::_Vector_impl" }
%"struct.std::_Vector_base<social_network::Media, std::allocator<social_network::Media> >::_Vector_impl" = type { %"struct.std::_Vector_base<social_network::Media, std::allocator<social_network::Media> >::_Vector_impl_data" }
%"struct.std::_Vector_base<social_network::Media, std::allocator<social_network::Media> >::_Vector_impl_data" = type { %"class.social_network::Media"*, %"class.social_network::Media"*, %"class.social_network::Media"* }
%"class.std::vector.11" = type { %"struct.std::_Vector_base.12" }
%"struct.std::_Vector_base.12" = type { %"struct.std::_Vector_base<social_network::Url, std::allocator<social_network::Url> >::_Vector_impl" }
%"struct.std::_Vector_base<social_network::Url, std::allocator<social_network::Url> >::_Vector_impl" = type { %"struct.std::_Vector_base<social_network::Url, std::allocator<social_network::Url> >::_Vector_impl_data" }
%"struct.std::_Vector_base<social_network::Url, std::allocator<social_network::Url> >::_Vector_impl_data" = type { %"class.social_network::Url"*, %"class.social_network::Url"*, %"class.social_network::Url"* }
%"struct.social_network::_Post__isset" = type { i16 }
%"class.std::allocator.13" = type { i8 }
%"class.std::allocator.8" = type { i8 }
%"class.std::allocator.3" = type { i8 }
%"class.__gnu_cxx::__normal_iterator" = type { %"class.social_network::UserMention"* }
%"class.__gnu_cxx::__normal_iterator.27" = type { %"class.social_network::UserMention"* }
%"class.__gnu_cxx::__normal_iterator.16" = type { %"class.social_network::Media"* }
%"class.__gnu_cxx::__normal_iterator.28" = type { %"class.social_network::Media"* }
%"class.__gnu_cxx::__normal_iterator.17" = type { %"class.social_network::Url"* }
%"class.__gnu_cxx::__normal_iterator.29" = type { %"class.social_network::Url"* }
%"class.std::allocator" = type { i8 }
%"class.__gnu_cxx::new_allocator" = type { i8 }
%"class.apache::thrift::protocol::TProtocolException" = type <{ %"class.apache::thrift::TException", i32, [4 x i8] }>
%"class.__gnu_cxx::new_allocator.4" = type { i8 }
%"class.__gnu_cxx::new_allocator.9" = type { i8 }
%"class.__gnu_cxx::new_allocator.14" = type { i8 }
%"struct.std::pair.21" = type { i32, i8* }
%"struct.std::pair.18" = type <{ %"struct.std::_Rb_tree_iterator", i8, [7 x i8] }>
%"struct.std::_Rb_tree_iterator" = type { %"struct.std::_Rb_tree_node_base"* }
%"struct.std::pair.24" = type { %"struct.std::_Rb_tree_node_base"*, %"struct.std::_Rb_tree_node_base"* }
%"struct.std::_Select1st" = type { i8 }
%"class.std::__pair_base.19" = type { i8 }
%"class.std::__pair_base" = type { i8 }
%"class.std::__pair_base.25" = type { i8 }
%"class.std::__pair_base.22" = type { i8 }
%"struct.std::integral_constant" = type { i8 }

$_ZN6apache6thrift13TEnumIteratorC2EiPiPPKc = comdat any

$_ZNSt3mapIiPKcSt4lessIiESaISt4pairIKiS1_EEEC2IN6apache6thrift13TEnumIteratorEEET_SD_ = comdat any

$_ZNSt3mapIiPKcSt4lessIiESaISt4pairIKiS1_EEED2Ev = comdat any

$_ZNKSt3mapIiPKcSt4lessIiESaISt4pairIKiS1_EEE4findERS5_ = comdat any

$_ZStneRKSt23_Rb_tree_const_iteratorISt4pairIKiPKcEES7_ = comdat any

$_ZNKSt3mapIiPKcSt4lessIiESaISt4pairIKiS1_EEE3endEv = comdat any

$_ZNKSt23_Rb_tree_const_iteratorISt4pairIKiPKcEEptEv = comdat any

$_ZN6apache6thrift8protocol22TInputRecursionTrackerC2ERNS1_9TProtocolE = comdat any

$_ZN6apache6thrift8protocol9TProtocol15readStructBeginERNSt7__cxx1112basic_stringIcSt11char_traitsIcESaIcEEE = comdat any

$_ZN6apache6thrift8protocol9TProtocol14readFieldBeginERNSt7__cxx1112basic_stringIcSt11char_traitsIcESaIcEEERNS1_5TTypeERs = comdat any

$_ZN6apache6thrift8protocol9TProtocol7readI64ERl = comdat any

$_ZN6apache6thrift8protocol9TProtocol4skipENS1_5TTypeE = comdat any

$_ZN6apache6thrift8protocol9TProtocol10readStringERNSt7__cxx1112basic_stringIcSt11char_traitsIcESaIcEEE = comdat any

$_ZN6apache6thrift8protocol9TProtocol12readFieldEndEv = comdat any

$_ZN6apache6thrift8protocol9TProtocol13readStructEndEv = comdat any

$_ZN6apache6thrift8protocol22TInputRecursionTrackerD2Ev = comdat any

$_ZN6apache6thrift8protocol23TOutputRecursionTrackerC2ERNS1_9TProtocolE = comdat any

$_ZN6apache6thrift8protocol9TProtocol16writeStructBeginEPKc = comdat any

$_ZN6apache6thrift8protocol9TProtocol15writeFieldBeginEPKcNS1_5TTypeEs = comdat any

$_ZN6apache6thrift8protocol9TProtocol8writeI64El = comdat any

$_ZN6apache6thrift8protocol9TProtocol13writeFieldEndEv = comdat any

$_ZN6apache6thrift8protocol9TProtocol11writeStringERKNSt7__cxx1112basic_stringIcSt11char_traitsIcESaIcEEE = comdat any

$_ZN6apache6thrift8protocol9TProtocol14writeFieldStopEv = comdat any

$_ZN6apache6thrift8protocol9TProtocol14writeStructEndEv = comdat any

$_ZN6apache6thrift8protocol23TOutputRecursionTrackerD2Ev = comdat any

$_ZSt4swapIlENSt9enable_ifIXsr6__and_ISt6__not_ISt15__is_tuple_likeIT_EESt21is_move_constructibleIS3_ESt18is_move_assignableIS3_EEE5valueEvE4typeERS3_SC_ = comdat any

$_ZSt4swapIcSt11char_traitsIcESaIcEEvRNSt7__cxx1112basic_stringIT_T0_T1_EES9_ = comdat any

$_ZSt4swapIN14social_network12_User__issetEENSt9enable_ifIXsr6__and_ISt6__not_ISt15__is_tuple_likeIT_EESt21is_move_constructibleIS5_ESt18is_move_assignableIS5_EEE5valueEvE4typeERS5_SE_ = comdat any

$_ZN14social_network12_User__issetC2Ev = comdat any

$_ZN6apache6thrift5TBaseC2Ev = comdat any

$_ZN6apache6thrift9to_stringIlEENSt7__cxx1112basic_stringIcSt11char_traitsIcESaIcEEERKT_ = comdat any

$_ZN6apache6thrift9to_stringINSt7__cxx1112basic_stringIcSt11char_traitsIcESaIcEEEEES7_RKT_ = comdat any

$_ZN6apache6thrift8protocol9TProtocol7readI32ERi = comdat any

$_ZN6apache6thrift8protocol9TProtocol8writeI32Ei = comdat any

$_ZSt4swapIN14social_network9ErrorCode4typeEENSt9enable_ifIXsr6__and_ISt6__not_ISt15__is_tuple_likeIT_EESt21is_move_constructibleIS6_ESt18is_move_assignableIS6_EEE5valueEvE4typeERS6_SF_ = comdat any

$_ZSt4swapIN14social_network24_ServiceException__issetEENSt9enable_ifIXsr6__and_ISt6__not_ISt15__is_tuple_likeIT_EESt21is_move_constructibleIS5_ESt18is_move_assignableIS5_EEE5valueEvE4typeERS5_SE_ = comdat any

$_ZN6apache6thrift10TExceptionC2Ev = comdat any

$_ZN14social_network24_ServiceException__issetC2Ev = comdat any

$_ZN6apache6thrift9to_stringIN14social_network9ErrorCode4typeEEENSt7__cxx1112basic_stringIcSt11char_traitsIcESaIcEEERKT_ = comdat any

$_ZSt4swapIN14social_network13_Media__issetEENSt9enable_ifIXsr6__and_ISt6__not_ISt15__is_tuple_likeIT_EESt21is_move_constructibleIS5_ESt18is_move_assignableIS5_EEE5valueEvE4typeERS5_SE_ = comdat any

$_ZN14social_network13_Media__issetC2Ev = comdat any

$_ZSt4swapIN14social_network11_Url__issetEENSt9enable_ifIXsr6__and_ISt6__not_ISt15__is_tuple_likeIT_EESt21is_move_constructibleIS5_ESt18is_move_assignableIS5_EEE5valueEvE4typeERS5_SE_ = comdat any

$_ZN14social_network11_Url__issetC2Ev = comdat any

$_ZSt4swapIN14social_network19_UserMention__issetEENSt9enable_ifIXsr6__and_ISt6__not_ISt15__is_tuple_likeIT_EESt21is_move_constructibleIS5_ESt18is_move_assignableIS5_EEE5valueEvE4typeERS5_SE_ = comdat any

$_ZN14social_network19_UserMention__issetC2Ev = comdat any

$_ZSt4swapIN14social_network15_Creator__issetEENSt9enable_ifIXsr6__and_ISt6__not_ISt15__is_tuple_likeIT_EESt21is_move_constructibleIS5_ESt18is_move_assignableIS5_EEE5valueEvE4typeERS5_SE_ = comdat any

$_ZN14social_network15_Creator__issetC2Ev = comdat any

$_ZNSt6vectorIN14social_network3UrlESaIS1_EED2Ev = comdat any

$_ZNSt6vectorIN14social_network5MediaESaIS1_EED2Ev = comdat any

$_ZNSt6vectorIN14social_network11UserMentionESaIS1_EED2Ev = comdat any

$_ZNSt6vectorIN14social_network11UserMentionESaIS1_EEaSERKS3_ = comdat any

$_ZNSt6vectorIN14social_network5MediaESaIS1_EEaSERKS3_ = comdat any

$_ZNSt6vectorIN14social_network3UrlESaIS1_EEaSERKS3_ = comdat any

$_ZNSt6vectorIN14social_network11UserMentionESaIS1_EE5clearEv = comdat any

$_ZN6apache6thrift8protocol9TProtocol13readListBeginERNS1_5TTypeERj = comdat any

$_ZNSt6vectorIN14social_network11UserMentionESaIS1_EE6resizeEm = comdat any

$_ZNSt6vectorIN14social_network11UserMentionESaIS1_EEixEm = comdat any

$_ZN6apache6thrift8protocol9TProtocol11readListEndEv = comdat any

$_ZNSt6vectorIN14social_network5MediaESaIS1_EE5clearEv = comdat any

$_ZNSt6vectorIN14social_network5MediaESaIS1_EE6resizeEm = comdat any

$_ZNSt6vectorIN14social_network5MediaESaIS1_EEixEm = comdat any

$_ZNSt6vectorIN14social_network3UrlESaIS1_EE5clearEv = comdat any

$_ZNSt6vectorIN14social_network3UrlESaIS1_EE6resizeEm = comdat any

$_ZNSt6vectorIN14social_network3UrlESaIS1_EEixEm = comdat any

$_ZN6apache6thrift8protocol9TProtocol14writeListBeginENS1_5TTypeEj = comdat any

$_ZNKSt6vectorIN14social_network11UserMentionESaIS1_EE4sizeEv = comdat any

$_ZN9__gnu_cxx17__normal_iteratorIPKN14social_network11UserMentionESt6vectorIS2_SaIS2_EEEC2Ev = comdat any

$_ZNKSt6vectorIN14social_network11UserMentionESaIS1_EE5beginEv = comdat any

$_ZN9__gnu_cxxneIPKN14social_network11UserMentionESt6vectorIS2_SaIS2_EEEEbRKNS_17__normal_iteratorIT_T0_EESD_ = comdat any

$_ZNKSt6vectorIN14social_network11UserMentionESaIS1_EE3endEv = comdat any

$_ZNK9__gnu_cxx17__normal_iteratorIPKN14social_network11UserMentionESt6vectorIS2_SaIS2_EEEdeEv = comdat any

$_ZN9__gnu_cxx17__normal_iteratorIPKN14social_network11UserMentionESt6vectorIS2_SaIS2_EEEppEv = comdat any

$_ZN6apache6thrift8protocol9TProtocol12writeListEndEv = comdat any

$_ZNKSt6vectorIN14social_network5MediaESaIS1_EE4sizeEv = comdat any

$_ZN9__gnu_cxx17__normal_iteratorIPKN14social_network5MediaESt6vectorIS2_SaIS2_EEEC2Ev = comdat any

$_ZNKSt6vectorIN14social_network5MediaESaIS1_EE5beginEv = comdat any

$_ZN9__gnu_cxxneIPKN14social_network5MediaESt6vectorIS2_SaIS2_EEEEbRKNS_17__normal_iteratorIT_T0_EESD_ = comdat any

$_ZNKSt6vectorIN14social_network5MediaESaIS1_EE3endEv = comdat any

$_ZNK9__gnu_cxx17__normal_iteratorIPKN14social_network5MediaESt6vectorIS2_SaIS2_EEEdeEv = comdat any

$_ZN9__gnu_cxx17__normal_iteratorIPKN14social_network5MediaESt6vectorIS2_SaIS2_EEEppEv = comdat any

$_ZNKSt6vectorIN14social_network3UrlESaIS1_EE4sizeEv = comdat any

$_ZN9__gnu_cxx17__normal_iteratorIPKN14social_network3UrlESt6vectorIS2_SaIS2_EEEC2Ev = comdat any

$_ZNKSt6vectorIN14social_network3UrlESaIS1_EE5beginEv = comdat any

$_ZN9__gnu_cxxneIPKN14social_network3UrlESt6vectorIS2_SaIS2_EEEEbRKNS_17__normal_iteratorIT_T0_EESD_ = comdat any

$_ZNKSt6vectorIN14social_network3UrlESaIS1_EE3endEv = comdat any

$_ZNK9__gnu_cxx17__normal_iteratorIPKN14social_network3UrlESt6vectorIS2_SaIS2_EEEdeEv = comdat any

$_ZN9__gnu_cxx17__normal_iteratorIPKN14social_network3UrlESt6vectorIS2_SaIS2_EEEppEv = comdat any

$_ZSt4swapIN14social_network11UserMentionESaIS1_EEvRSt6vectorIT_T0_ES7_ = comdat any

$_ZSt4swapIN14social_network5MediaESaIS1_EEvRSt6vectorIT_T0_ES7_ = comdat any

$_ZSt4swapIN14social_network3UrlESaIS1_EEvRSt6vectorIT_T0_ES7_ = comdat any

$_ZSt4swapIN14social_network8PostType4typeEENSt9enable_ifIXsr6__and_ISt6__not_ISt15__is_tuple_likeIT_EESt21is_move_constructibleIS6_ESt18is_move_assignableIS6_EEE5valueEvE4typeERS6_SF_ = comdat any

$_ZSt4swapIN14social_network12_Post__issetEENSt9enable_ifIXsr6__and_ISt6__not_ISt15__is_tuple_likeIT_EESt21is_move_constructibleIS5_ESt18is_move_assignableIS5_EEE5valueEvE4typeERS5_SE_ = comdat any

$_ZN14social_network7CreatorC1Ev = comdat any

$_ZNSt6vectorIN14social_network11UserMentionESaIS1_EEC2Ev = comdat any

$_ZNSt6vectorIN14social_network5MediaESaIS1_EEC2Ev = comdat any

$_ZNSt6vectorIN14social_network3UrlESaIS1_EEC2Ev = comdat any

$_ZN14social_network12_Post__issetC2Ev = comdat any

$_ZN6apache6thrift9to_stringIN14social_network7CreatorEEENSt7__cxx1112basic_stringIcSt11char_traitsIcESaIcEEERKT_ = comdat any

$_ZN6apache6thrift9to_stringIN14social_network11UserMentionEEENSt7__cxx1112basic_stringIcSt11char_traitsIcESaIcEEERKSt6vectorIT_SaISB_EE = comdat any

$_ZN6apache6thrift9to_stringIN14social_network5MediaEEENSt7__cxx1112basic_stringIcSt11char_traitsIcESaIcEEERKSt6vectorIT_SaISB_EE = comdat any

$_ZN6apache6thrift9to_stringIN14social_network3UrlEEENSt7__cxx1112basic_stringIcSt11char_traitsIcESaIcEEERKSt6vectorIT_SaISB_EE = comdat any

$_ZN6apache6thrift9to_stringIN14social_network8PostType4typeEEENSt7__cxx1112basic_stringIcSt11char_traitsIcESaIcEEERKT_ = comdat any

$_ZNSt8_Rb_treeIiSt4pairIKiPKcESt10_Select1stIS4_ESt4lessIiESaIS4_EED2Ev = comdat any

$_ZNSt8_Rb_treeIiSt4pairIKiPKcESt10_Select1stIS4_ESt4lessIiESaIS4_EE8_M_eraseEPSt13_Rb_tree_nodeIS4_E = comdat any

$_ZNSt8_Rb_treeIiSt4pairIKiPKcESt10_Select1stIS4_ESt4lessIiESaIS4_EE8_M_beginEv = comdat any

$_ZNSt8_Rb_treeIiSt4pairIKiPKcESt10_Select1stIS4_ESt4lessIiESaIS4_EE13_Rb_tree_implIS8_Lb1EED2Ev = comdat any

$__clang_call_terminate = comdat any

$_ZNSt8_Rb_treeIiSt4pairIKiPKcESt10_Select1stIS4_ESt4lessIiESaIS4_EE8_S_rightEPSt18_Rb_tree_node_base = comdat any

$_ZNSt8_Rb_treeIiSt4pairIKiPKcESt10_Select1stIS4_ESt4lessIiESaIS4_EE7_S_leftEPSt18_Rb_tree_node_base = comdat any

$_ZNSt8_Rb_treeIiSt4pairIKiPKcESt10_Select1stIS4_ESt4lessIiESaIS4_EE12_M_drop_nodeEPSt13_Rb_tree_nodeIS4_E = comdat any

$_ZNSt8_Rb_treeIiSt4pairIKiPKcESt10_Select1stIS4_ESt4lessIiESaIS4_EE15_M_destroy_nodeEPSt13_Rb_tree_nodeIS4_E = comdat any

$_ZNSt8_Rb_treeIiSt4pairIKiPKcESt10_Select1stIS4_ESt4lessIiESaIS4_EE11_M_put_nodeEPSt13_Rb_tree_nodeIS4_E = comdat any

$_ZNSt16allocator_traitsISaISt13_Rb_tree_nodeISt4pairIKiPKcEEEE7destroyIS5_EEvRS7_PT_ = comdat any

$_ZNSt8_Rb_treeIiSt4pairIKiPKcESt10_Select1stIS4_ESt4lessIiESaIS4_EE21_M_get_Node_allocatorEv = comdat any

$_ZNSt13_Rb_tree_nodeISt4pairIKiPKcEE9_M_valptrEv = comdat any

$_ZN9__gnu_cxx13new_allocatorISt13_Rb_tree_nodeISt4pairIKiPKcEEE7destroyIS6_EEvPT_ = comdat any

$_ZN9__gnu_cxx16__aligned_membufISt4pairIKiPKcEE6_M_ptrEv = comdat any

$_ZN9__gnu_cxx16__aligned_membufISt4pairIKiPKcEE7_M_addrEv = comdat any

$_ZNSt16allocator_traitsISaISt13_Rb_tree_nodeISt4pairIKiPKcEEEE10deallocateERS7_PS6_m = comdat any

$_ZN9__gnu_cxx13new_allocatorISt13_Rb_tree_nodeISt4pairIKiPKcEEE10deallocateEPS7_m = comdat any

$_ZNSaISt13_Rb_tree_nodeISt4pairIKiPKcEEED2Ev = comdat any

$_ZN9__gnu_cxx13new_allocatorISt13_Rb_tree_nodeISt4pairIKiPKcEEED2Ev = comdat any

$_ZN6apache6thrift8protocol9TProtocol28incrementInputRecursionDepthEv = comdat any

$_ZN6apache6thrift8protocol18TProtocolExceptionC2ENS2_22TProtocolExceptionTypeE = comdat any

$_ZN6apache6thrift8protocol18TProtocolExceptionD2Ev = comdat any

$_ZN6apache6thrift8protocol18TProtocolExceptionD0Ev = comdat any

$_ZNK6apache6thrift8protocol18TProtocolException4whatEv = comdat any

$_ZN6apache6thrift8protocol9TProtocol28decrementInputRecursionDepthEv = comdat any

$_ZN6apache6thrift8protocol9TProtocol29incrementOutputRecursionDepthEv = comdat any

$_ZN6apache6thrift8protocol9TProtocol29decrementOutputRecursionDepthEv = comdat any

$_ZN6apache6thrift5TBaseD2Ev = comdat any

$_ZN6apache6thrift5TBaseD0Ev = comdat any

$_ZN6apache6thrift10TExceptionD2Ev = comdat any

$_ZN6apache6thrift10TExceptionD0Ev = comdat any

$_ZNK6apache6thrift10TException4whatEv = comdat any

$_ZNSt9exceptionC2Ev = comdat any

$_ZNSt12_Vector_baseIN14social_network11UserMentionESaIS1_EEC2Ev = comdat any

$_ZNSt12_Vector_baseIN14social_network11UserMentionESaIS1_EE12_Vector_implC2Ev = comdat any

$_ZNSaIN14social_network11UserMentionEEC2Ev = comdat any

$_ZN9__gnu_cxx13new_allocatorIN14social_network11UserMentionEEC2Ev = comdat any

$_ZNSt12_Vector_baseIN14social_network5MediaESaIS1_EEC2Ev = comdat any

$_ZNSt12_Vector_baseIN14social_network5MediaESaIS1_EE12_Vector_implC2Ev = comdat any

$_ZNSaIN14social_network5MediaEEC2Ev = comdat any

$_ZN9__gnu_cxx13new_allocatorIN14social_network5MediaEEC2Ev = comdat any

$_ZNSt12_Vector_baseIN14social_network3UrlESaIS1_EEC2Ev = comdat any

$_ZNSt12_Vector_baseIN14social_network3UrlESaIS1_EE12_Vector_implC2Ev = comdat any

$_ZNSaIN14social_network3UrlEEC2Ev = comdat any

$_ZN9__gnu_cxx13new_allocatorIN14social_network3UrlEEC2Ev = comdat any

$_ZSt8_DestroyIPN14social_network11UserMentionES1_EvT_S3_RSaIT0_E = comdat any

$_ZNSt12_Vector_baseIN14social_network11UserMentionESaIS1_EE19_M_get_Tp_allocatorEv = comdat any

$_ZNSt12_Vector_baseIN14social_network11UserMentionESaIS1_EED2Ev = comdat any

$_ZSt8_DestroyIPN14social_network11UserMentionEEvT_S3_ = comdat any

$_ZNSt12_Destroy_auxILb0EE9__destroyIPN14social_network11UserMentionEEEvT_S5_ = comdat any

$_ZSt8_DestroyIN14social_network11UserMentionEEvPT_ = comdat any

$_ZSt11__addressofIN14social_network11UserMentionEEPT_RS2_ = comdat any

$_ZNSt12_Vector_baseIN14social_network11UserMentionESaIS1_EE13_M_deallocateEPS1_m = comdat any

$_ZNSt12_Vector_baseIN14social_network11UserMentionESaIS1_EE12_Vector_implD2Ev = comdat any

$_ZNSt16allocator_traitsISaIN14social_network11UserMentionEEE10deallocateERS2_PS1_m = comdat any

$_ZN9__gnu_cxx13new_allocatorIN14social_network11UserMentionEE10deallocateEPS2_m = comdat any

$_ZNSaIN14social_network11UserMentionEED2Ev = comdat any

$_ZN9__gnu_cxx13new_allocatorIN14social_network11UserMentionEED2Ev = comdat any

$_ZSt8_DestroyIPN14social_network5MediaES1_EvT_S3_RSaIT0_E = comdat any

$_ZNSt12_Vector_baseIN14social_network5MediaESaIS1_EE19_M_get_Tp_allocatorEv = comdat any

$_ZNSt12_Vector_baseIN14social_network5MediaESaIS1_EED2Ev = comdat any

$_ZSt8_DestroyIPN14social_network5MediaEEvT_S3_ = comdat any

$_ZNSt12_Destroy_auxILb0EE9__destroyIPN14social_network5MediaEEEvT_S5_ = comdat any

$_ZSt8_DestroyIN14social_network5MediaEEvPT_ = comdat any

$_ZSt11__addressofIN14social_network5MediaEEPT_RS2_ = comdat any

$_ZNSt12_Vector_baseIN14social_network5MediaESaIS1_EE13_M_deallocateEPS1_m = comdat any

$_ZNSt12_Vector_baseIN14social_network5MediaESaIS1_EE12_Vector_implD2Ev = comdat any

$_ZNSt16allocator_traitsISaIN14social_network5MediaEEE10deallocateERS2_PS1_m = comdat any

$_ZN9__gnu_cxx13new_allocatorIN14social_network5MediaEE10deallocateEPS2_m = comdat any

$_ZNSaIN14social_network5MediaEED2Ev = comdat any

$_ZN9__gnu_cxx13new_allocatorIN14social_network5MediaEED2Ev = comdat any

$_ZSt8_DestroyIPN14social_network3UrlES1_EvT_S3_RSaIT0_E = comdat any

$_ZNSt12_Vector_baseIN14social_network3UrlESaIS1_EE19_M_get_Tp_allocatorEv = comdat any

$_ZNSt12_Vector_baseIN14social_network3UrlESaIS1_EED2Ev = comdat any

$_ZSt8_DestroyIPN14social_network3UrlEEvT_S3_ = comdat any

$_ZNSt12_Destroy_auxILb0EE9__destroyIPN14social_network3UrlEEEvT_S5_ = comdat any

$_ZSt8_DestroyIN14social_network3UrlEEvPT_ = comdat any

$_ZSt11__addressofIN14social_network3UrlEEPT_RS2_ = comdat any

$_ZNSt12_Vector_baseIN14social_network3UrlESaIS1_EE13_M_deallocateEPS1_m = comdat any

$_ZNSt12_Vector_baseIN14social_network3UrlESaIS1_EE12_Vector_implD2Ev = comdat any

$_ZNSt16allocator_traitsISaIN14social_network3UrlEEE10deallocateERS2_PS1_m = comdat any

$_ZN9__gnu_cxx13new_allocatorIN14social_network3UrlEE10deallocateEPS2_m = comdat any

$_ZNSaIN14social_network3UrlEED2Ev = comdat any

$_ZN9__gnu_cxx13new_allocatorIN14social_network3UrlEED2Ev = comdat any

$_ZNSt8_Rb_treeIiSt4pairIKiPKcESt10_Select1stIS4_ESt4lessIiESaIS4_EEC2Ev = comdat any

$_ZNSt8_Rb_treeIiSt4pairIKiPKcESt10_Select1stIS4_ESt4lessIiESaIS4_EE22_M_insert_range_uniqueIN6apache6thrift13TEnumIteratorEEENSt9enable_ifIXntsr17__same_value_typeIT_EE5valueEvE4typeESG_SG_ = comdat any

$_ZNSt8_Rb_treeIiSt4pairIKiPKcESt10_Select1stIS4_ESt4lessIiESaIS4_EE13_Rb_tree_implIS8_Lb1EEC2Ev = comdat any

$_ZNSaISt13_Rb_tree_nodeISt4pairIKiPKcEEEC2Ev = comdat any

$_ZNSt20_Rb_tree_key_compareISt4lessIiEEC2Ev = comdat any

$_ZNSt15_Rb_tree_headerC2Ev = comdat any

$_ZN9__gnu_cxx13new_allocatorISt13_Rb_tree_nodeISt4pairIKiPKcEEEC2Ev = comdat any

$_ZNSt15_Rb_tree_header8_M_resetEv = comdat any

$_ZN6apache6thrift13TEnumIteratorneERKS1_ = comdat any

$_ZNSt8_Rb_treeIiSt4pairIKiPKcESt10_Select1stIS4_ESt4lessIiESaIS4_EE17_M_emplace_uniqueIJS0_IiS3_EEEES0_ISt17_Rb_tree_iteratorIS4_EbEDpOT_ = comdat any

$_ZNK6apache6thrift13TEnumIteratordeEv = comdat any

$_ZN6apache6thrift13TEnumIteratorppEv = comdat any

$_ZNSt8_Rb_treeIiSt4pairIKiPKcESt10_Select1stIS4_ESt4lessIiESaIS4_EE14_M_create_nodeIJS0_IiS3_EEEEPSt13_Rb_tree_nodeIS4_EDpOT_ = comdat any

$_ZSt7forwardISt4pairIiPKcEEOT_RNSt16remove_referenceIS4_E4typeE = comdat any

$_ZNSt8_Rb_treeIiSt4pairIKiPKcESt10_Select1stIS4_ESt4lessIiESaIS4_EE24_M_get_insert_unique_posERS1_ = comdat any

$_ZNSt8_Rb_treeIiSt4pairIKiPKcESt10_Select1stIS4_ESt4lessIiESaIS4_EE6_S_keyEPKSt13_Rb_tree_nodeIS4_E = comdat any

$_ZNSt8_Rb_treeIiSt4pairIKiPKcESt10_Select1stIS4_ESt4lessIiESaIS4_EE14_M_insert_nodeEPSt18_Rb_tree_node_baseSC_PSt13_Rb_tree_nodeIS4_E = comdat any

$_ZNSt4pairISt17_Rb_tree_iteratorIS_IKiPKcEEbEC2IS5_bLb1EEEOT_OT0_ = comdat any

$_ZNSt17_Rb_tree_iteratorISt4pairIKiPKcEEC2EPSt18_Rb_tree_node_base = comdat any

$_ZNSt8_Rb_treeIiSt4pairIKiPKcESt10_Select1stIS4_ESt4lessIiESaIS4_EE11_M_get_nodeEv = comdat any

$_ZNSt8_Rb_treeIiSt4pairIKiPKcESt10_Select1stIS4_ESt4lessIiESaIS4_EE17_M_construct_nodeIJS0_IiS3_EEEEvPSt13_Rb_tree_nodeIS4_EDpOT_ = comdat any

$_ZNSt16allocator_traitsISaISt13_Rb_tree_nodeISt4pairIKiPKcEEEE8allocateERS7_m = comdat any

$_ZN9__gnu_cxx13new_allocatorISt13_Rb_tree_nodeISt4pairIKiPKcEEE8allocateEmPKv = comdat any

$_ZNK9__gnu_cxx13new_allocatorISt13_Rb_tree_nodeISt4pairIKiPKcEEE8max_sizeEv = comdat any

$_ZNSt16allocator_traitsISaISt13_Rb_tree_nodeISt4pairIKiPKcEEEE9constructIS5_JS1_IiS4_EEEEvRS7_PT_DpOT0_ = comdat any

$_ZN9__gnu_cxx13new_allocatorISt13_Rb_tree_nodeISt4pairIKiPKcEEE9constructIS6_JS2_IiS5_EEEEvPT_DpOT0_ = comdat any

$_ZNSt4pairIKiPKcEC2IiS2_Lb1EEEOS_IT_T0_E = comdat any

$_ZSt7forwardIiEOT_RNSt16remove_referenceIS0_E4typeE = comdat any

$_ZSt7forwardIPKcEOT_RNSt16remove_referenceIS2_E4typeE = comdat any

$_ZNSt8_Rb_treeIiSt4pairIKiPKcESt10_Select1stIS4_ESt4lessIiESaIS4_EE6_M_endEv = comdat any

$_ZNKSt4lessIiEclERKiS2_ = comdat any

$_ZSteqRKSt17_Rb_tree_iteratorISt4pairIKiPKcEES7_ = comdat any

$_ZNSt8_Rb_treeIiSt4pairIKiPKcESt10_Select1stIS4_ESt4lessIiESaIS4_EE5beginEv = comdat any

$_ZNSt4pairIPSt18_Rb_tree_node_baseS1_EC2IRPSt13_Rb_tree_nodeIS_IKiPKcEERS1_Lb1EEEOT_OT0_ = comdat any

$_ZNSt17_Rb_tree_iteratorISt4pairIKiPKcEEmmEv = comdat any

$_ZNSt8_Rb_treeIiSt4pairIKiPKcESt10_Select1stIS4_ESt4lessIiESaIS4_EE6_S_keyEPKSt18_Rb_tree_node_base = comdat any

$_ZNSt4pairIPSt18_Rb_tree_node_baseS1_EC2IRS1_Lb1EEEOT_RKS1_ = comdat any

$_ZSt7forwardIRPSt13_Rb_tree_nodeISt4pairIKiPKcEEEOT_RNSt16remove_referenceIS9_E4typeE = comdat any

$_ZSt7forwardIRPSt18_Rb_tree_node_baseEOT_RNSt16remove_referenceIS3_E4typeE = comdat any

$_ZNKSt10_Select1stISt4pairIKiPKcEEclERKS4_ = comdat any

$_ZNKSt13_Rb_tree_nodeISt4pairIKiPKcEE9_M_valptrEv = comdat any

$_ZNK9__gnu_cxx16__aligned_membufISt4pairIKiPKcEE6_M_ptrEv = comdat any

$_ZNK9__gnu_cxx16__aligned_membufISt4pairIKiPKcEE7_M_addrEv = comdat any

$_ZSt7forwardISt17_Rb_tree_iteratorISt4pairIKiPKcEEEOT_RNSt16remove_referenceIS7_E4typeE = comdat any

$_ZSt7forwardIbEOT_RNSt16remove_referenceIS0_E4typeE = comdat any

$_ZSt9make_pairIRiRPKcESt4pairINSt17__decay_and_stripIT_E6__typeENS5_IT0_E6__typeEEOS6_OS9_ = comdat any

$_ZSt7forwardIRiEOT_RNSt16remove_referenceIS1_E4typeE = comdat any

$_ZSt7forwardIRPKcEOT_RNSt16remove_referenceIS3_E4typeE = comdat any

$_ZNSt4pairIiPKcEC2IRiRS1_Lb1EEEOT_OT0_ = comdat any

$_ZNKSt8_Rb_treeIiSt4pairIKiPKcESt10_Select1stIS4_ESt4lessIiESaIS4_EE4findERS1_ = comdat any

$_ZNKSt8_Rb_treeIiSt4pairIKiPKcESt10_Select1stIS4_ESt4lessIiESaIS4_EE14_M_lower_boundEPKSt13_Rb_tree_nodeIS4_EPKSt18_Rb_tree_node_baseRS1_ = comdat any

$_ZNKSt8_Rb_treeIiSt4pairIKiPKcESt10_Select1stIS4_ESt4lessIiESaIS4_EE8_M_beginEv = comdat any

$_ZNKSt8_Rb_treeIiSt4pairIKiPKcESt10_Select1stIS4_ESt4lessIiESaIS4_EE6_M_endEv = comdat any

$_ZSteqRKSt23_Rb_tree_const_iteratorISt4pairIKiPKcEES7_ = comdat any

$_ZNKSt8_Rb_treeIiSt4pairIKiPKcESt10_Select1stIS4_ESt4lessIiESaIS4_EE3endEv = comdat any

$_ZNSt8_Rb_treeIiSt4pairIKiPKcESt10_Select1stIS4_ESt4lessIiESaIS4_EE7_S_leftEPKSt18_Rb_tree_node_base = comdat any

$_ZNSt8_Rb_treeIiSt4pairIKiPKcESt10_Select1stIS4_ESt4lessIiESaIS4_EE8_S_rightEPKSt18_Rb_tree_node_base = comdat any

$_ZNSt23_Rb_tree_const_iteratorISt4pairIKiPKcEEC2EPKSt18_Rb_tree_node_base = comdat any

$_ZSt4moveIRlEONSt16remove_referenceIT_E4typeEOS2_ = comdat any

$_ZSt4moveIRN14social_network12_User__issetEEONSt16remove_referenceIT_E4typeEOS4_ = comdat any

$_ZSt4moveIRN14social_network9ErrorCode4typeEEONSt16remove_referenceIT_E4typeEOS5_ = comdat any

$_ZSt4moveIRN14social_network24_ServiceException__issetEEONSt16remove_referenceIT_E4typeEOS4_ = comdat any

$_ZSt4moveIRN14social_network13_Media__issetEEONSt16remove_referenceIT_E4typeEOS4_ = comdat any

$_ZSt4moveIRN14social_network11_Url__issetEEONSt16remove_referenceIT_E4typeEOS4_ = comdat any

$_ZSt4moveIRN14social_network19_UserMention__issetEEONSt16remove_referenceIT_E4typeEOS4_ = comdat any

$_ZSt4moveIRN14social_network15_Creator__issetEEONSt16remove_referenceIT_E4typeEOS4_ = comdat any

$_ZNKSt6vectorIN14social_network11UserMentionESaIS1_EE8capacityEv = comdat any

$_ZNSt6vectorIN14social_network11UserMentionESaIS1_EE20_M_allocate_and_copyIN9__gnu_cxx17__normal_iteratorIPKS1_S3_EEEEPS1_mT_SB_ = comdat any

$_ZSt8_DestroyIN9__gnu_cxx17__normal_iteratorIPN14social_network11UserMentionESt6vectorIS3_SaIS3_EEEES3_EvT_S9_RSaIT0_E = comdat any

$_ZSt4copyIN9__gnu_cxx17__normal_iteratorIPKN14social_network11UserMentionESt6vectorIS3_SaIS3_EEEENS1_IPS3_S8_EEET0_T_SD_SC_ = comdat any

$_ZNSt6vectorIN14social_network11UserMentionESaIS1_EE5beginEv = comdat any

$_ZNSt6vectorIN14social_network11UserMentionESaIS1_EE3endEv = comdat any

$_ZSt4copyIPN14social_network11UserMentionES2_ET0_T_S4_S3_ = comdat any

$_ZSt22__uninitialized_copy_aIPN14social_network11UserMentionES2_S1_ET0_T_S4_S3_RSaIT1_E = comdat any

$_ZNSt12_Vector_baseIN14social_network11UserMentionESaIS1_EE11_M_allocateEm = comdat any

$_ZSt22__uninitialized_copy_aIN9__gnu_cxx17__normal_iteratorIPKN14social_network11UserMentionESt6vectorIS3_SaIS3_EEEEPS3_S3_ET0_T_SC_SB_RSaIT1_E = comdat any

$_ZNSt16allocator_traitsISaIN14social_network11UserMentionEEE8allocateERS2_m = comdat any

$_ZN9__gnu_cxx13new_allocatorIN14social_network11UserMentionEE8allocateEmPKv = comdat any

$_ZNK9__gnu_cxx13new_allocatorIN14social_network11UserMentionEE8max_sizeEv = comdat any

$_ZSt18uninitialized_copyIN9__gnu_cxx17__normal_iteratorIPKN14social_network11UserMentionESt6vectorIS3_SaIS3_EEEEPS3_ET0_T_SC_SB_ = comdat any

$_ZNSt20__uninitialized_copyILb0EE13__uninit_copyIN9__gnu_cxx17__normal_iteratorIPKN14social_network11UserMentionESt6vectorIS5_SaIS5_EEEEPS5_EET0_T_SE_SD_ = comdat any

$_ZSt10_ConstructIN14social_network11UserMentionEJRKS1_EEvPT_DpOT0_ = comdat any

$_ZSt7forwardIRKN14social_network11UserMentionEEOT_RNSt16remove_referenceIS4_E4typeE = comdat any

$_ZSt8_DestroyIN9__gnu_cxx17__normal_iteratorIPN14social_network11UserMentionESt6vectorIS3_SaIS3_EEEEEvT_S9_ = comdat any

$_ZNSt12_Destroy_auxILb0EE9__destroyIN9__gnu_cxx17__normal_iteratorIPN14social_network11UserMentionESt6vectorIS5_SaIS5_EEEEEEvT_SB_ = comdat any

$_ZN9__gnu_cxxneIPN14social_network11UserMentionESt6vectorIS2_SaIS2_EEEEbRKNS_17__normal_iteratorIT_T0_EESC_ = comdat any

$_ZNK9__gnu_cxx17__normal_iteratorIPN14social_network11UserMentionESt6vectorIS2_SaIS2_EEEdeEv = comdat any

$_ZN9__gnu_cxx17__normal_iteratorIPN14social_network11UserMentionESt6vectorIS2_SaIS2_EEEppEv = comdat any

$_ZNK9__gnu_cxx17__normal_iteratorIPN14social_network11UserMentionESt6vectorIS2_SaIS2_EEE4baseEv = comdat any

$_ZSt14__copy_move_a2ILb0EN9__gnu_cxx17__normal_iteratorIPKN14social_network11UserMentionESt6vectorIS3_SaIS3_EEEENS1_IPS3_S8_EEET1_T0_SD_SC_ = comdat any

$_ZSt12__miter_baseIN9__gnu_cxx17__normal_iteratorIPKN14social_network11UserMentionESt6vectorIS3_SaIS3_EEEEET_SA_ = comdat any

$_ZSt12__niter_wrapIN9__gnu_cxx17__normal_iteratorIPN14social_network11UserMentionESt6vectorIS3_SaIS3_EEEES4_ET_S9_T0_ = comdat any

$_ZSt13__copy_move_aILb0EPKN14social_network11UserMentionEPS1_ET1_T0_S6_S5_ = comdat any

$_ZSt12__niter_baseIPKN14social_network11UserMentionESt6vectorIS1_SaIS1_EEET_N9__gnu_cxx17__normal_iteratorIS7_T0_EE = comdat any

$_ZSt12__niter_baseIPN14social_network11UserMentionESt6vectorIS1_SaIS1_EEET_N9__gnu_cxx17__normal_iteratorIS6_T0_EE = comdat any

$_ZNK9__gnu_cxx17__normal_iteratorIPN14social_network11UserMentionESt6vectorIS2_SaIS2_EEEplEl = comdat any

$_ZN9__gnu_cxx17__normal_iteratorIPN14social_network11UserMentionESt6vectorIS2_SaIS2_EEEC2ERKS3_ = comdat any

$_ZNSt11__copy_moveILb0ELb0ESt26random_access_iterator_tagE8__copy_mIPKN14social_network11UserMentionEPS4_EET0_T_S9_S8_ = comdat any

$_ZNK9__gnu_cxx17__normal_iteratorIPKN14social_network11UserMentionESt6vectorIS2_SaIS2_EEE4baseEv = comdat any

$_ZSt14__copy_move_a2ILb0EPN14social_network11UserMentionES2_ET1_T0_S4_S3_ = comdat any

$_ZSt12__miter_baseIPN14social_network11UserMentionEET_S3_ = comdat any

$_ZSt12__niter_wrapIPN14social_network11UserMentionEET_RKS3_S3_ = comdat any

$_ZSt13__copy_move_aILb0EPN14social_network11UserMentionES2_ET1_T0_S4_S3_ = comdat any

$_ZSt12__niter_baseIPN14social_network11UserMentionEET_S3_ = comdat any

$_ZNSt11__copy_moveILb0ELb0ESt26random_access_iterator_tagE8__copy_mIPN14social_network11UserMentionES5_EET0_T_S7_S6_ = comdat any

$_ZSt18uninitialized_copyIPN14social_network11UserMentionES2_ET0_T_S4_S3_ = comdat any

$_ZNSt20__uninitialized_copyILb0EE13__uninit_copyIPN14social_network11UserMentionES4_EET0_T_S6_S5_ = comdat any

$_ZSt10_ConstructIN14social_network11UserMentionEJRS1_EEvPT_DpOT0_ = comdat any

$_ZSt7forwardIRN14social_network11UserMentionEEOT_RNSt16remove_referenceIS3_E4typeE = comdat any

$_ZNKSt6vectorIN14social_network5MediaESaIS1_EE8capacityEv = comdat any

$_ZNSt6vectorIN14social_network5MediaESaIS1_EE20_M_allocate_and_copyIN9__gnu_cxx17__normal_iteratorIPKS1_S3_EEEEPS1_mT_SB_ = comdat any

$_ZSt8_DestroyIN9__gnu_cxx17__normal_iteratorIPN14social_network5MediaESt6vectorIS3_SaIS3_EEEES3_EvT_S9_RSaIT0_E = comdat any

$_ZSt4copyIN9__gnu_cxx17__normal_iteratorIPKN14social_network5MediaESt6vectorIS3_SaIS3_EEEENS1_IPS3_S8_EEET0_T_SD_SC_ = comdat any

$_ZNSt6vectorIN14social_network5MediaESaIS1_EE5beginEv = comdat any

$_ZNSt6vectorIN14social_network5MediaESaIS1_EE3endEv = comdat any

$_ZSt4copyIPN14social_network5MediaES2_ET0_T_S4_S3_ = comdat any

$_ZSt22__uninitialized_copy_aIPN14social_network5MediaES2_S1_ET0_T_S4_S3_RSaIT1_E = comdat any

$_ZNSt12_Vector_baseIN14social_network5MediaESaIS1_EE11_M_allocateEm = comdat any

$_ZSt22__uninitialized_copy_aIN9__gnu_cxx17__normal_iteratorIPKN14social_network5MediaESt6vectorIS3_SaIS3_EEEEPS3_S3_ET0_T_SC_SB_RSaIT1_E = comdat any

$_ZNSt16allocator_traitsISaIN14social_network5MediaEEE8allocateERS2_m = comdat any

$_ZN9__gnu_cxx13new_allocatorIN14social_network5MediaEE8allocateEmPKv = comdat any

$_ZNK9__gnu_cxx13new_allocatorIN14social_network5MediaEE8max_sizeEv = comdat any

$_ZSt18uninitialized_copyIN9__gnu_cxx17__normal_iteratorIPKN14social_network5MediaESt6vectorIS3_SaIS3_EEEEPS3_ET0_T_SC_SB_ = comdat any

$_ZNSt20__uninitialized_copyILb0EE13__uninit_copyIN9__gnu_cxx17__normal_iteratorIPKN14social_network5MediaESt6vectorIS5_SaIS5_EEEEPS5_EET0_T_SE_SD_ = comdat any

$_ZSt10_ConstructIN14social_network5MediaEJRKS1_EEvPT_DpOT0_ = comdat any

$_ZSt7forwardIRKN14social_network5MediaEEOT_RNSt16remove_referenceIS4_E4typeE = comdat any

$_ZSt8_DestroyIN9__gnu_cxx17__normal_iteratorIPN14social_network5MediaESt6vectorIS3_SaIS3_EEEEEvT_S9_ = comdat any

$_ZNSt12_Destroy_auxILb0EE9__destroyIN9__gnu_cxx17__normal_iteratorIPN14social_network5MediaESt6vectorIS5_SaIS5_EEEEEEvT_SB_ = comdat any

$_ZN9__gnu_cxxneIPN14social_network5MediaESt6vectorIS2_SaIS2_EEEEbRKNS_17__normal_iteratorIT_T0_EESC_ = comdat any

$_ZNK9__gnu_cxx17__normal_iteratorIPN14social_network5MediaESt6vectorIS2_SaIS2_EEEdeEv = comdat any

$_ZN9__gnu_cxx17__normal_iteratorIPN14social_network5MediaESt6vectorIS2_SaIS2_EEEppEv = comdat any

$_ZNK9__gnu_cxx17__normal_iteratorIPN14social_network5MediaESt6vectorIS2_SaIS2_EEE4baseEv = comdat any

$_ZSt14__copy_move_a2ILb0EN9__gnu_cxx17__normal_iteratorIPKN14social_network5MediaESt6vectorIS3_SaIS3_EEEENS1_IPS3_S8_EEET1_T0_SD_SC_ = comdat any

$_ZSt12__miter_baseIN9__gnu_cxx17__normal_iteratorIPKN14social_network5MediaESt6vectorIS3_SaIS3_EEEEET_SA_ = comdat any

$_ZSt12__niter_wrapIN9__gnu_cxx17__normal_iteratorIPN14social_network5MediaESt6vectorIS3_SaIS3_EEEES4_ET_S9_T0_ = comdat any

$_ZSt13__copy_move_aILb0EPKN14social_network5MediaEPS1_ET1_T0_S6_S5_ = comdat any

$_ZSt12__niter_baseIPKN14social_network5MediaESt6vectorIS1_SaIS1_EEET_N9__gnu_cxx17__normal_iteratorIS7_T0_EE = comdat any

$_ZSt12__niter_baseIPN14social_network5MediaESt6vectorIS1_SaIS1_EEET_N9__gnu_cxx17__normal_iteratorIS6_T0_EE = comdat any

$_ZNK9__gnu_cxx17__normal_iteratorIPN14social_network5MediaESt6vectorIS2_SaIS2_EEEplEl = comdat any

$_ZN9__gnu_cxx17__normal_iteratorIPN14social_network5MediaESt6vectorIS2_SaIS2_EEEC2ERKS3_ = comdat any

$_ZNSt11__copy_moveILb0ELb0ESt26random_access_iterator_tagE8__copy_mIPKN14social_network5MediaEPS4_EET0_T_S9_S8_ = comdat any

$_ZNK9__gnu_cxx17__normal_iteratorIPKN14social_network5MediaESt6vectorIS2_SaIS2_EEE4baseEv = comdat any

$_ZSt14__copy_move_a2ILb0EPN14social_network5MediaES2_ET1_T0_S4_S3_ = comdat any

$_ZSt12__miter_baseIPN14social_network5MediaEET_S3_ = comdat any

$_ZSt12__niter_wrapIPN14social_network5MediaEET_RKS3_S3_ = comdat any

$_ZSt13__copy_move_aILb0EPN14social_network5MediaES2_ET1_T0_S4_S3_ = comdat any

$_ZSt12__niter_baseIPN14social_network5MediaEET_S3_ = comdat any

$_ZNSt11__copy_moveILb0ELb0ESt26random_access_iterator_tagE8__copy_mIPN14social_network5MediaES5_EET0_T_S7_S6_ = comdat any

$_ZSt18uninitialized_copyIPN14social_network5MediaES2_ET0_T_S4_S3_ = comdat any

$_ZNSt20__uninitialized_copyILb0EE13__uninit_copyIPN14social_network5MediaES4_EET0_T_S6_S5_ = comdat any

$_ZSt10_ConstructIN14social_network5MediaEJRS1_EEvPT_DpOT0_ = comdat any

$_ZSt7forwardIRN14social_network5MediaEEOT_RNSt16remove_referenceIS3_E4typeE = comdat any

$_ZNKSt6vectorIN14social_network3UrlESaIS1_EE8capacityEv = comdat any

$_ZNSt6vectorIN14social_network3UrlESaIS1_EE20_M_allocate_and_copyIN9__gnu_cxx17__normal_iteratorIPKS1_S3_EEEEPS1_mT_SB_ = comdat any

$_ZSt8_DestroyIN9__gnu_cxx17__normal_iteratorIPN14social_network3UrlESt6vectorIS3_SaIS3_EEEES3_EvT_S9_RSaIT0_E = comdat any

$_ZSt4copyIN9__gnu_cxx17__normal_iteratorIPKN14social_network3UrlESt6vectorIS3_SaIS3_EEEENS1_IPS3_S8_EEET0_T_SD_SC_ = comdat any

$_ZNSt6vectorIN14social_network3UrlESaIS1_EE5beginEv = comdat any

$_ZNSt6vectorIN14social_network3UrlESaIS1_EE3endEv = comdat any

$_ZSt4copyIPN14social_network3UrlES2_ET0_T_S4_S3_ = comdat any

$_ZSt22__uninitialized_copy_aIPN14social_network3UrlES2_S1_ET0_T_S4_S3_RSaIT1_E = comdat any

$_ZNSt12_Vector_baseIN14social_network3UrlESaIS1_EE11_M_allocateEm = comdat any

$_ZSt22__uninitialized_copy_aIN9__gnu_cxx17__normal_iteratorIPKN14social_network3UrlESt6vectorIS3_SaIS3_EEEEPS3_S3_ET0_T_SC_SB_RSaIT1_E = comdat any

$_ZNSt16allocator_traitsISaIN14social_network3UrlEEE8allocateERS2_m = comdat any

$_ZN9__gnu_cxx13new_allocatorIN14social_network3UrlEE8allocateEmPKv = comdat any

$_ZNK9__gnu_cxx13new_allocatorIN14social_network3UrlEE8max_sizeEv = comdat any

$_ZSt18uninitialized_copyIN9__gnu_cxx17__normal_iteratorIPKN14social_network3UrlESt6vectorIS3_SaIS3_EEEEPS3_ET0_T_SC_SB_ = comdat any

$_ZNSt20__uninitialized_copyILb0EE13__uninit_copyIN9__gnu_cxx17__normal_iteratorIPKN14social_network3UrlESt6vectorIS5_SaIS5_EEEEPS5_EET0_T_SE_SD_ = comdat any

$_ZSt10_ConstructIN14social_network3UrlEJRKS1_EEvPT_DpOT0_ = comdat any

$_ZSt7forwardIRKN14social_network3UrlEEOT_RNSt16remove_referenceIS4_E4typeE = comdat any

$_ZSt8_DestroyIN9__gnu_cxx17__normal_iteratorIPN14social_network3UrlESt6vectorIS3_SaIS3_EEEEEvT_S9_ = comdat any

$_ZNSt12_Destroy_auxILb0EE9__destroyIN9__gnu_cxx17__normal_iteratorIPN14social_network3UrlESt6vectorIS5_SaIS5_EEEEEEvT_SB_ = comdat any

$_ZN9__gnu_cxxneIPN14social_network3UrlESt6vectorIS2_SaIS2_EEEEbRKNS_17__normal_iteratorIT_T0_EESC_ = comdat any

$_ZNK9__gnu_cxx17__normal_iteratorIPN14social_network3UrlESt6vectorIS2_SaIS2_EEEdeEv = comdat any

$_ZN9__gnu_cxx17__normal_iteratorIPN14social_network3UrlESt6vectorIS2_SaIS2_EEEppEv = comdat any

$_ZNK9__gnu_cxx17__normal_iteratorIPN14social_network3UrlESt6vectorIS2_SaIS2_EEE4baseEv = comdat any

$_ZSt14__copy_move_a2ILb0EN9__gnu_cxx17__normal_iteratorIPKN14social_network3UrlESt6vectorIS3_SaIS3_EEEENS1_IPS3_S8_EEET1_T0_SD_SC_ = comdat any

$_ZSt12__miter_baseIN9__gnu_cxx17__normal_iteratorIPKN14social_network3UrlESt6vectorIS3_SaIS3_EEEEET_SA_ = comdat any

$_ZSt12__niter_wrapIN9__gnu_cxx17__normal_iteratorIPN14social_network3UrlESt6vectorIS3_SaIS3_EEEES4_ET_S9_T0_ = comdat any

$_ZSt13__copy_move_aILb0EPKN14social_network3UrlEPS1_ET1_T0_S6_S5_ = comdat any

$_ZSt12__niter_baseIPKN14social_network3UrlESt6vectorIS1_SaIS1_EEET_N9__gnu_cxx17__normal_iteratorIS7_T0_EE = comdat any

$_ZSt12__niter_baseIPN14social_network3UrlESt6vectorIS1_SaIS1_EEET_N9__gnu_cxx17__normal_iteratorIS6_T0_EE = comdat any

$_ZNK9__gnu_cxx17__normal_iteratorIPN14social_network3UrlESt6vectorIS2_SaIS2_EEEplEl = comdat any

$_ZN9__gnu_cxx17__normal_iteratorIPN14social_network3UrlESt6vectorIS2_SaIS2_EEEC2ERKS3_ = comdat any

$_ZNSt11__copy_moveILb0ELb0ESt26random_access_iterator_tagE8__copy_mIPKN14social_network3UrlEPS4_EET0_T_S9_S8_ = comdat any

$_ZNK9__gnu_cxx17__normal_iteratorIPKN14social_network3UrlESt6vectorIS2_SaIS2_EEE4baseEv = comdat any

$_ZSt14__copy_move_a2ILb0EPN14social_network3UrlES2_ET1_T0_S4_S3_ = comdat any

$_ZSt12__miter_baseIPN14social_network3UrlEET_S3_ = comdat any

$_ZSt12__niter_wrapIPN14social_network3UrlEET_RKS3_S3_ = comdat any

$_ZSt13__copy_move_aILb0EPN14social_network3UrlES2_ET1_T0_S4_S3_ = comdat any

$_ZSt12__niter_baseIPN14social_network3UrlEET_S3_ = comdat any

$_ZNSt11__copy_moveILb0ELb0ESt26random_access_iterator_tagE8__copy_mIPN14social_network3UrlES5_EET0_T_S7_S6_ = comdat any

$_ZSt18uninitialized_copyIPN14social_network3UrlES2_ET0_T_S4_S3_ = comdat any

$_ZNSt20__uninitialized_copyILb0EE13__uninit_copyIPN14social_network3UrlES4_EET0_T_S6_S5_ = comdat any

$_ZSt10_ConstructIN14social_network3UrlEJRS1_EEvPT_DpOT0_ = comdat any

$_ZSt7forwardIRN14social_network3UrlEEOT_RNSt16remove_referenceIS3_E4typeE = comdat any

$_ZNSt6vectorIN14social_network11UserMentionESaIS1_EE15_M_erase_at_endEPS1_ = comdat any

$_ZNSt6vectorIN14social_network11UserMentionESaIS1_EE17_M_default_appendEm = comdat any

$_ZNKSt6vectorIN14social_network11UserMentionESaIS1_EE8max_sizeEv = comdat any

$_ZSt27__uninitialized_default_n_aIPN14social_network11UserMentionEmS1_ET_S3_T0_RSaIT1_E = comdat any

$_ZNKSt6vectorIN14social_network11UserMentionESaIS1_EE12_M_check_lenEmPKc = comdat any

$_ZSt34__uninitialized_move_if_noexcept_aIPN14social_network11UserMentionES2_SaIS1_EET0_T_S5_S4_RT1_ = comdat any

$_ZNSt6vectorIN14social_network11UserMentionESaIS1_EE11_S_max_sizeERKS2_ = comdat any

$_ZNKSt12_Vector_baseIN14social_network11UserMentionESaIS1_EE19_M_get_Tp_allocatorEv = comdat any

$_ZNSt16allocator_traitsISaIN14social_network11UserMentionEEE8max_sizeERKS2_ = comdat any

$_ZSt3minImERKT_S2_S2_ = comdat any

$_ZSt25__uninitialized_default_nIPN14social_network11UserMentionEmET_S3_T0_ = comdat any

$_ZNSt27__uninitialized_default_n_1ILb0EE18__uninit_default_nIPN14social_network11UserMentionEmEET_S5_T0_ = comdat any

$_ZSt10_ConstructIN14social_network11UserMentionEJEEvPT_DpOT0_ = comdat any

$_ZN14social_network11UserMentionC1Ev = comdat any

$_ZSt3maxImERKT_S2_S2_ = comdat any

$_ZSt22__uninitialized_copy_aIPKN14social_network11UserMentionEPS1_S1_ET0_T_S6_S5_RSaIT1_E = comdat any

$_ZSt32__make_move_if_noexcept_iteratorIN14social_network11UserMentionEPKS1_ET0_PT_ = comdat any

$_ZSt18uninitialized_copyIPKN14social_network11UserMentionEPS1_ET0_T_S6_S5_ = comdat any

$_ZNSt20__uninitialized_copyILb0EE13__uninit_copyIPKN14social_network11UserMentionEPS3_EET0_T_S8_S7_ = comdat any

$_ZNSt6vectorIN14social_network5MediaESaIS1_EE15_M_erase_at_endEPS1_ = comdat any

$_ZNSt6vectorIN14social_network5MediaESaIS1_EE17_M_default_appendEm = comdat any

$_ZNKSt6vectorIN14social_network5MediaESaIS1_EE8max_sizeEv = comdat any

$_ZSt27__uninitialized_default_n_aIPN14social_network5MediaEmS1_ET_S3_T0_RSaIT1_E = comdat any

$_ZNKSt6vectorIN14social_network5MediaESaIS1_EE12_M_check_lenEmPKc = comdat any

$_ZSt34__uninitialized_move_if_noexcept_aIPN14social_network5MediaES2_SaIS1_EET0_T_S5_S4_RT1_ = comdat any

$_ZNSt6vectorIN14social_network5MediaESaIS1_EE11_S_max_sizeERKS2_ = comdat any

$_ZNKSt12_Vector_baseIN14social_network5MediaESaIS1_EE19_M_get_Tp_allocatorEv = comdat any

$_ZNSt16allocator_traitsISaIN14social_network5MediaEEE8max_sizeERKS2_ = comdat any

$_ZSt25__uninitialized_default_nIPN14social_network5MediaEmET_S3_T0_ = comdat any

$_ZNSt27__uninitialized_default_n_1ILb0EE18__uninit_default_nIPN14social_network5MediaEmEET_S5_T0_ = comdat any

$_ZSt10_ConstructIN14social_network5MediaEJEEvPT_DpOT0_ = comdat any

$_ZN14social_network5MediaC1Ev = comdat any

$_ZSt22__uninitialized_copy_aIPKN14social_network5MediaEPS1_S1_ET0_T_S6_S5_RSaIT1_E = comdat any

$_ZSt32__make_move_if_noexcept_iteratorIN14social_network5MediaEPKS1_ET0_PT_ = comdat any

$_ZSt18uninitialized_copyIPKN14social_network5MediaEPS1_ET0_T_S6_S5_ = comdat any

$_ZNSt20__uninitialized_copyILb0EE13__uninit_copyIPKN14social_network5MediaEPS3_EET0_T_S8_S7_ = comdat any

$_ZNSt6vectorIN14social_network3UrlESaIS1_EE15_M_erase_at_endEPS1_ = comdat any

$_ZNSt6vectorIN14social_network3UrlESaIS1_EE17_M_default_appendEm = comdat any

$_ZNKSt6vectorIN14social_network3UrlESaIS1_EE8max_sizeEv = comdat any

$_ZSt27__uninitialized_default_n_aIPN14social_network3UrlEmS1_ET_S3_T0_RSaIT1_E = comdat any

$_ZNKSt6vectorIN14social_network3UrlESaIS1_EE12_M_check_lenEmPKc = comdat any

$_ZSt34__uninitialized_move_if_noexcept_aIPN14social_network3UrlES2_SaIS1_EET0_T_S5_S4_RT1_ = comdat any

$_ZNSt6vectorIN14social_network3UrlESaIS1_EE11_S_max_sizeERKS2_ = comdat any

$_ZNKSt12_Vector_baseIN14social_network3UrlESaIS1_EE19_M_get_Tp_allocatorEv = comdat any

$_ZNSt16allocator_traitsISaIN14social_network3UrlEEE8max_sizeERKS2_ = comdat any

$_ZSt25__uninitialized_default_nIPN14social_network3UrlEmET_S3_T0_ = comdat any

$_ZNSt27__uninitialized_default_n_1ILb0EE18__uninit_default_nIPN14social_network3UrlEmEET_S5_T0_ = comdat any

$_ZSt10_ConstructIN14social_network3UrlEJEEvPT_DpOT0_ = comdat any

$_ZN14social_network3UrlC1Ev = comdat any

$_ZSt22__uninitialized_copy_aIPKN14social_network3UrlEPS1_S1_ET0_T_S6_S5_RSaIT1_E = comdat any

$_ZSt32__make_move_if_noexcept_iteratorIN14social_network3UrlEPKS1_ET0_PT_ = comdat any

$_ZSt18uninitialized_copyIPKN14social_network3UrlEPS1_ET0_T_S6_S5_ = comdat any

$_ZNSt20__uninitialized_copyILb0EE13__uninit_copyIPKN14social_network3UrlEPS3_EET0_T_S8_S7_ = comdat any

$_ZN9__gnu_cxx17__normal_iteratorIPKN14social_network11UserMentionESt6vectorIS2_SaIS2_EEEC2ERKS4_ = comdat any

$_ZN9__gnu_cxx17__normal_iteratorIPKN14social_network5MediaESt6vectorIS2_SaIS2_EEEC2ERKS4_ = comdat any

$_ZN9__gnu_cxx17__normal_iteratorIPKN14social_network3UrlESt6vectorIS2_SaIS2_EEEC2ERKS4_ = comdat any

$_ZNSt6vectorIN14social_network11UserMentionESaIS1_EE4swapERS3_ = comdat any

$_ZNSt12_Vector_baseIN14social_network11UserMentionESaIS1_EE17_Vector_impl_data12_M_swap_dataERS4_ = comdat any

$_ZN9__gnu_cxx14__alloc_traitsISaIN14social_network11UserMentionEES2_E10_S_on_swapERS3_S5_ = comdat any

$_ZNSt12_Vector_baseIN14social_network11UserMentionESaIS1_EE17_Vector_impl_dataC2Ev = comdat any

$_ZNSt12_Vector_baseIN14social_network11UserMentionESaIS1_EE17_Vector_impl_data12_M_copy_dataERKS4_ = comdat any

$_ZSt15__alloc_on_swapISaIN14social_network11UserMentionEEEvRT_S4_ = comdat any

$_ZSt18__do_alloc_on_swapISaIN14social_network11UserMentionEEEvRT_S4_St17integral_constantIbLb0EE = comdat any

$_ZNSt6vectorIN14social_network5MediaESaIS1_EE4swapERS3_ = comdat any

$_ZNSt12_Vector_baseIN14social_network5MediaESaIS1_EE17_Vector_impl_data12_M_swap_dataERS4_ = comdat any

$_ZN9__gnu_cxx14__alloc_traitsISaIN14social_network5MediaEES2_E10_S_on_swapERS3_S5_ = comdat any

$_ZNSt12_Vector_baseIN14social_network5MediaESaIS1_EE17_Vector_impl_dataC2Ev = comdat any

$_ZNSt12_Vector_baseIN14social_network5MediaESaIS1_EE17_Vector_impl_data12_M_copy_dataERKS4_ = comdat any

$_ZSt15__alloc_on_swapISaIN14social_network5MediaEEEvRT_S4_ = comdat any

$_ZSt18__do_alloc_on_swapISaIN14social_network5MediaEEEvRT_S4_St17integral_constantIbLb0EE = comdat any

$_ZNSt6vectorIN14social_network3UrlESaIS1_EE4swapERS3_ = comdat any

$_ZNSt12_Vector_baseIN14social_network3UrlESaIS1_EE17_Vector_impl_data12_M_swap_dataERS4_ = comdat any

$_ZN9__gnu_cxx14__alloc_traitsISaIN14social_network3UrlEES2_E10_S_on_swapERS3_S5_ = comdat any

$_ZNSt12_Vector_baseIN14social_network3UrlESaIS1_EE17_Vector_impl_dataC2Ev = comdat any

$_ZNSt12_Vector_baseIN14social_network3UrlESaIS1_EE17_Vector_impl_data12_M_copy_dataERKS4_ = comdat any

$_ZSt15__alloc_on_swapISaIN14social_network3UrlEEEvRT_S4_ = comdat any

$_ZSt18__do_alloc_on_swapISaIN14social_network3UrlEEEvRT_S4_St17integral_constantIbLb0EE = comdat any

$_ZSt4moveIRN14social_network8PostType4typeEEONSt16remove_referenceIT_E4typeEOS5_ = comdat any

$_ZSt4moveIRN14social_network12_Post__issetEEONSt16remove_referenceIT_E4typeEOS4_ = comdat any

$_ZN6apache6thrift9to_stringIN9__gnu_cxx17__normal_iteratorIPKN14social_network11UserMentionESt6vectorIS5_SaIS5_EEEEEENSt7__cxx1112basic_stringIcSt11char_traitsIcESaIcEEERKT_SK_ = comdat any

$_ZN6apache6thrift9to_stringIN14social_network11UserMentionEEENSt7__cxx1112basic_stringIcSt11char_traitsIcESaIcEEERKT_ = comdat any

$_ZN6apache6thrift9to_stringIN9__gnu_cxx17__normal_iteratorIPKN14social_network5MediaESt6vectorIS5_SaIS5_EEEEEENSt7__cxx1112basic_stringIcSt11char_traitsIcESaIcEEERKT_SK_ = comdat any

$_ZN6apache6thrift9to_stringIN14social_network5MediaEEENSt7__cxx1112basic_stringIcSt11char_traitsIcESaIcEEERKT_ = comdat any

$_ZN6apache6thrift9to_stringIN9__gnu_cxx17__normal_iteratorIPKN14social_network3UrlESt6vectorIS5_SaIS5_EEEEEENSt7__cxx1112basic_stringIcSt11char_traitsIcESaIcEEERKT_SK_ = comdat any

$_ZN6apache6thrift9to_stringIN14social_network3UrlEEENSt7__cxx1112basic_stringIcSt11char_traitsIcESaIcEEERKT_ = comdat any

$_ZTSN6apache6thrift5TBaseE = comdat any

$_ZTIN6apache6thrift5TBaseE = comdat any

$_ZTSN6apache6thrift10TExceptionE = comdat any

$_ZTIN6apache6thrift10TExceptionE = comdat any

$_ZTSN6apache6thrift8protocol18TProtocolExceptionE = comdat any

$_ZTIN6apache6thrift8protocol18TProtocolExceptionE = comdat any

$_ZTVN6apache6thrift8protocol18TProtocolExceptionE = comdat any

$_ZTVN6apache6thrift5TBaseE = comdat any

$_ZTVN6apache6thrift10TExceptionE = comdat any

@_ZN14social_network17_kErrorCodeValuesE = global [8 x i32] [i32 0, i32 1, i32 2, i32 3, i32 4, i32 5, i32 6, i32 7], align 16
@.str = private unnamed_addr constant [20 x i8] c"SE_CONNPOOL_TIMEOUT\00", align 1
@.str.1 = private unnamed_addr constant [21 x i8] c"SE_THRIFT_CONN_ERROR\00", align 1
@.str.2 = private unnamed_addr constant [16 x i8] c"SE_UNAUTHORIZED\00", align 1
@.str.3 = private unnamed_addr constant [19 x i8] c"SE_MEMCACHED_ERROR\00", align 1
@.str.4 = private unnamed_addr constant [17 x i8] c"SE_MONGODB_ERROR\00", align 1
@.str.5 = private unnamed_addr constant [15 x i8] c"SE_REDIS_ERROR\00", align 1
@.str.6 = private unnamed_addr constant [24 x i8] c"SE_THRIFT_HANDLER_ERROR\00", align 1
@.str.7 = private unnamed_addr constant [23 x i8] c"SE_RABBITMQ_CONN_ERROR\00", align 1
@_ZN14social_network16_kErrorCodeNamesE = global [8 x i8*] [i8* getelementptr inbounds ([20 x i8], [20 x i8]* @.str, i32 0, i32 0), i8* getelementptr inbounds ([21 x i8], [21 x i8]* @.str.1, i32 0, i32 0), i8* getelementptr inbounds ([16 x i8], [16 x i8]* @.str.2, i32 0, i32 0), i8* getelementptr inbounds ([19 x i8], [19 x i8]* @.str.3, i32 0, i32 0), i8* getelementptr inbounds ([17 x i8], [17 x i8]* @.str.4, i32 0, i32 0), i8* getelementptr inbounds ([15 x i8], [15 x i8]* @.str.5, i32 0, i32 0), i8* getelementptr inbounds ([24 x i8], [24 x i8]* @.str.6, i32 0, i32 0), i8* getelementptr inbounds ([23 x i8], [23 x i8]* @.str.7, i32 0, i32 0)], align 16
@_ZN14social_network26_ErrorCode_VALUES_TO_NAMESE = global %"class.std::map" zeroinitializer, align 8
@__dso_handle = external hidden global i8
@_ZN14social_network16_kPostTypeValuesE = global [4 x i32] [i32 0, i32 1, i32 2, i32 3], align 16
@.str.8 = private unnamed_addr constant [5 x i8] c"POST\00", align 1
@.str.9 = private unnamed_addr constant [7 x i8] c"REPOST\00", align 1
@.str.10 = private unnamed_addr constant [6 x i8] c"REPLY\00", align 1
@.str.11 = private unnamed_addr constant [3 x i8] c"DM\00", align 1
@_ZN14social_network15_kPostTypeNamesE = global [4 x i8*] [i8* getelementptr inbounds ([5 x i8], [5 x i8]* @.str.8, i32 0, i32 0), i8* getelementptr inbounds ([7 x i8], [7 x i8]* @.str.9, i32 0, i32 0), i8* getelementptr inbounds ([6 x i8], [6 x i8]* @.str.10, i32 0, i32 0), i8* getelementptr inbounds ([3 x i8], [3 x i8]* @.str.11, i32 0, i32 0)], align 16
@_ZN14social_network25_PostType_VALUES_TO_NAMESE = global %"class.std::map" zeroinitializer, align 8
@_ZTVN14social_network4UserE = unnamed_addr constant { [11 x i8*] } { [11 x i8*] [i8* null, i8* null, i8* null, i8* null, i8* null, i8* bitcast ({ i8*, i8*, i32, i32, i8*, i64 }* @_ZTIN14social_network4UserE to i8*), i8* bitcast (void (%"class.social_network::User"*)* @_ZN14social_network4UserD1Ev to i8*), i8* bitcast (void (%"class.social_network::User"*)* @_ZN14social_network4UserD0Ev to i8*), i8* bitcast (i32 (%"class.social_network::User"*, %"class.apache::thrift::protocol::TProtocol"*)* @_ZN14social_network4User4readEPN6apache6thrift8protocol9TProtocolE to i8*), i8* bitcast (i32 (%"class.social_network::User"*, %"class.apache::thrift::protocol::TProtocol"*)* @_ZNK14social_network4User5writeEPN6apache6thrift8protocol9TProtocolE to i8*), i8* bitcast (void (%"class.social_network::User"*, %"class.std::basic_ostream"*)* @_ZNK14social_network4User7printToERSo to i8*)] }, align 8
@_ZTTN14social_network4UserE = unnamed_addr constant [2 x i8*] [i8* bitcast (i8** getelementptr inbounds ({ [11 x i8*] }, { [11 x i8*] }* @_ZTVN14social_network4UserE, i32 0, inrange i32 0, i32 6) to i8*), i8* bitcast (i8** getelementptr inbounds ({ [11 x i8*] }, { [11 x i8*] }* @_ZTVN14social_network4UserE, i32 0, inrange i32 0, i32 6) to i8*)], align 8
@.str.13 = private unnamed_addr constant [5 x i8] c"User\00", align 1
@.str.14 = private unnamed_addr constant [8 x i8] c"user_id\00", align 1
@.str.15 = private unnamed_addr constant [11 x i8] c"first_name\00", align 1
@.str.16 = private unnamed_addr constant [10 x i8] c"last_name\00", align 1
@.str.17 = private unnamed_addr constant [9 x i8] c"username\00", align 1
@.str.18 = private unnamed_addr constant [16 x i8] c"password_hashed\00", align 1
@.str.19 = private unnamed_addr constant [5 x i8] c"salt\00", align 1
@.str.20 = private unnamed_addr constant [6 x i8] c"User(\00", align 1
@.str.21 = private unnamed_addr constant [9 x i8] c"user_id=\00", align 1
@.str.22 = private unnamed_addr constant [3 x i8] c", \00", align 1
@.str.23 = private unnamed_addr constant [12 x i8] c"first_name=\00", align 1
@.str.24 = private unnamed_addr constant [11 x i8] c"last_name=\00", align 1
@.str.25 = private unnamed_addr constant [10 x i8] c"username=\00", align 1
@.str.26 = private unnamed_addr constant [17 x i8] c"password_hashed=\00", align 1
@.str.27 = private unnamed_addr constant [6 x i8] c"salt=\00", align 1
@.str.28 = private unnamed_addr constant [2 x i8] c")\00", align 1
@_ZTVN14social_network16ServiceExceptionE = unnamed_addr constant { [6 x i8*] } { [6 x i8*] [i8* null, i8* bitcast ({ i8*, i8*, i8* }* @_ZTIN14social_network16ServiceExceptionE to i8*), i8* bitcast (void (%"class.social_network::ServiceException"*)* @_ZN14social_network16ServiceExceptionD1Ev to i8*), i8* bitcast (void (%"class.social_network::ServiceException"*)* @_ZN14social_network16ServiceExceptionD0Ev to i8*), i8* bitcast (i8* (%"class.social_network::ServiceException"*)* @_ZNK14social_network16ServiceException4whatEv to i8*), i8* bitcast (void (%"class.social_network::ServiceException"*, %"class.std::basic_ostream"*)* @_ZNK14social_network16ServiceException7printToERSo to i8*)] }, align 8
@.str.29 = private unnamed_addr constant [17 x i8] c"ServiceException\00", align 1
@.str.30 = private unnamed_addr constant [10 x i8] c"errorCode\00", align 1
@.str.31 = private unnamed_addr constant [8 x i8] c"message\00", align 1
@.str.32 = private unnamed_addr constant [18 x i8] c"ServiceException(\00", align 1
@.str.33 = private unnamed_addr constant [11 x i8] c"errorCode=\00", align 1
@.str.34 = private unnamed_addr constant [9 x i8] c"message=\00", align 1
@_ZTISt9exception = external constant i8*
@.str.35 = private unnamed_addr constant [34 x i8] c"TException - service has thrown: \00", align 1
@.str.36 = private unnamed_addr constant [50 x i8] c"TException - service has thrown: ServiceException\00", align 1
@_ZTVN14social_network5MediaE = unnamed_addr constant { [11 x i8*] } { [11 x i8*] [i8* null, i8* null, i8* null, i8* null, i8* null, i8* bitcast ({ i8*, i8*, i32, i32, i8*, i64 }* @_ZTIN14social_network5MediaE to i8*), i8* bitcast (void (%"class.social_network::Media"*)* @_ZN14social_network5MediaD1Ev to i8*), i8* bitcast (void (%"class.social_network::Media"*)* @_ZN14social_network5MediaD0Ev to i8*), i8* bitcast (i32 (%"class.social_network::Media"*, %"class.apache::thrift::protocol::TProtocol"*)* @_ZN14social_network5Media4readEPN6apache6thrift8protocol9TProtocolE to i8*), i8* bitcast (i32 (%"class.social_network::Media"*, %"class.apache::thrift::protocol::TProtocol"*)* @_ZNK14social_network5Media5writeEPN6apache6thrift8protocol9TProtocolE to i8*), i8* bitcast (void (%"class.social_network::Media"*, %"class.std::basic_ostream"*)* @_ZNK14social_network5Media7printToERSo to i8*)] }, align 8
@_ZTTN14social_network5MediaE = unnamed_addr constant [2 x i8*] [i8* bitcast (i8** getelementptr inbounds ({ [11 x i8*] }, { [11 x i8*] }* @_ZTVN14social_network5MediaE, i32 0, inrange i32 0, i32 6) to i8*), i8* bitcast (i8** getelementptr inbounds ({ [11 x i8*] }, { [11 x i8*] }* @_ZTVN14social_network5MediaE, i32 0, inrange i32 0, i32 6) to i8*)], align 8
@.str.37 = private unnamed_addr constant [6 x i8] c"Media\00", align 1
@.str.38 = private unnamed_addr constant [9 x i8] c"media_id\00", align 1
@.str.39 = private unnamed_addr constant [11 x i8] c"media_type\00", align 1
@.str.40 = private unnamed_addr constant [7 x i8] c"Media(\00", align 1
@.str.41 = private unnamed_addr constant [10 x i8] c"media_id=\00", align 1
@.str.42 = private unnamed_addr constant [12 x i8] c"media_type=\00", align 1
@_ZTVN14social_network3UrlE = unnamed_addr constant { [11 x i8*] } { [11 x i8*] [i8* null, i8* null, i8* null, i8* null, i8* null, i8* bitcast ({ i8*, i8*, i32, i32, i8*, i64 }* @_ZTIN14social_network3UrlE to i8*), i8* bitcast (void (%"class.social_network::Url"*)* @_ZN14social_network3UrlD1Ev to i8*), i8* bitcast (void (%"class.social_network::Url"*)* @_ZN14social_network3UrlD0Ev to i8*), i8* bitcast (i32 (%"class.social_network::Url"*, %"class.apache::thrift::protocol::TProtocol"*)* @_ZN14social_network3Url4readEPN6apache6thrift8protocol9TProtocolE to i8*), i8* bitcast (i32 (%"class.social_network::Url"*, %"class.apache::thrift::protocol::TProtocol"*)* @_ZNK14social_network3Url5writeEPN6apache6thrift8protocol9TProtocolE to i8*), i8* bitcast (void (%"class.social_network::Url"*, %"class.std::basic_ostream"*)* @_ZNK14social_network3Url7printToERSo to i8*)] }, align 8
@_ZTTN14social_network3UrlE = unnamed_addr constant [2 x i8*] [i8* bitcast (i8** getelementptr inbounds ({ [11 x i8*] }, { [11 x i8*] }* @_ZTVN14social_network3UrlE, i32 0, inrange i32 0, i32 6) to i8*), i8* bitcast (i8** getelementptr inbounds ({ [11 x i8*] }, { [11 x i8*] }* @_ZTVN14social_network3UrlE, i32 0, inrange i32 0, i32 6) to i8*)], align 8
@.str.43 = private unnamed_addr constant [4 x i8] c"Url\00", align 1
@.str.44 = private unnamed_addr constant [14 x i8] c"shortened_url\00", align 1
@.str.45 = private unnamed_addr constant [13 x i8] c"expanded_url\00", align 1
@.str.46 = private unnamed_addr constant [5 x i8] c"Url(\00", align 1
@.str.47 = private unnamed_addr constant [15 x i8] c"shortened_url=\00", align 1
@.str.48 = private unnamed_addr constant [14 x i8] c"expanded_url=\00", align 1
@_ZTVN14social_network11UserMentionE = unnamed_addr constant { [11 x i8*] } { [11 x i8*] [i8* null, i8* null, i8* null, i8* null, i8* null, i8* bitcast ({ i8*, i8*, i32, i32, i8*, i64 }* @_ZTIN14social_network11UserMentionE to i8*), i8* bitcast (void (%"class.social_network::UserMention"*)* @_ZN14social_network11UserMentionD1Ev to i8*), i8* bitcast (void (%"class.social_network::UserMention"*)* @_ZN14social_network11UserMentionD0Ev to i8*), i8* bitcast (i32 (%"class.social_network::UserMention"*, %"class.apache::thrift::protocol::TProtocol"*)* @_ZN14social_network11UserMention4readEPN6apache6thrift8protocol9TProtocolE to i8*), i8* bitcast (i32 (%"class.social_network::UserMention"*, %"class.apache::thrift::protocol::TProtocol"*)* @_ZNK14social_network11UserMention5writeEPN6apache6thrift8protocol9TProtocolE to i8*), i8* bitcast (void (%"class.social_network::UserMention"*, %"class.std::basic_ostream"*)* @_ZNK14social_network11UserMention7printToERSo to i8*)] }, align 8
@_ZTTN14social_network11UserMentionE = unnamed_addr constant [2 x i8*] [i8* bitcast (i8** getelementptr inbounds ({ [11 x i8*] }, { [11 x i8*] }* @_ZTVN14social_network11UserMentionE, i32 0, inrange i32 0, i32 6) to i8*), i8* bitcast (i8** getelementptr inbounds ({ [11 x i8*] }, { [11 x i8*] }* @_ZTVN14social_network11UserMentionE, i32 0, inrange i32 0, i32 6) to i8*)], align 8
@.str.49 = private unnamed_addr constant [12 x i8] c"UserMention\00", align 1
@.str.50 = private unnamed_addr constant [13 x i8] c"UserMention(\00", align 1
@_ZTVN14social_network7CreatorE = unnamed_addr constant { [11 x i8*] } { [11 x i8*] [i8* null, i8* null, i8* null, i8* null, i8* null, i8* bitcast ({ i8*, i8*, i32, i32, i8*, i64 }* @_ZTIN14social_network7CreatorE to i8*), i8* bitcast (void (%"class.social_network::Creator"*)* @_ZN14social_network7CreatorD1Ev to i8*), i8* bitcast (void (%"class.social_network::Creator"*)* @_ZN14social_network7CreatorD0Ev to i8*), i8* bitcast (i32 (%"class.social_network::Creator"*, %"class.apache::thrift::protocol::TProtocol"*)* @_ZN14social_network7Creator4readEPN6apache6thrift8protocol9TProtocolE to i8*), i8* bitcast (i32 (%"class.social_network::Creator"*, %"class.apache::thrift::protocol::TProtocol"*)* @_ZNK14social_network7Creator5writeEPN6apache6thrift8protocol9TProtocolE to i8*), i8* bitcast (void (%"class.social_network::Creator"*, %"class.std::basic_ostream"*)* @_ZNK14social_network7Creator7printToERSo to i8*)] }, align 8
@_ZTTN14social_network7CreatorE = unnamed_addr constant [2 x i8*] [i8* bitcast (i8** getelementptr inbounds ({ [11 x i8*] }, { [11 x i8*] }* @_ZTVN14social_network7CreatorE, i32 0, inrange i32 0, i32 6) to i8*), i8* bitcast (i8** getelementptr inbounds ({ [11 x i8*] }, { [11 x i8*] }* @_ZTVN14social_network7CreatorE, i32 0, inrange i32 0, i32 6) to i8*)], align 8
@.str.51 = private unnamed_addr constant [8 x i8] c"Creator\00", align 1
@.str.52 = private unnamed_addr constant [9 x i8] c"Creator(\00", align 1
@_ZTVN14social_network4PostE = unnamed_addr constant { [11 x i8*] } { [11 x i8*] [i8* null, i8* null, i8* null, i8* null, i8* null, i8* bitcast ({ i8*, i8*, i32, i32, i8*, i64 }* @_ZTIN14social_network4PostE to i8*), i8* bitcast (void (%"class.social_network::Post"*)* @_ZN14social_network4PostD1Ev to i8*), i8* bitcast (void (%"class.social_network::Post"*)* @_ZN14social_network4PostD0Ev to i8*), i8* bitcast (i32 (%"class.social_network::Post"*, %"class.apache::thrift::protocol::TProtocol"*)* @_ZN14social_network4Post4readEPN6apache6thrift8protocol9TProtocolE to i8*), i8* bitcast (i32 (%"class.social_network::Post"*, %"class.apache::thrift::protocol::TProtocol"*)* @_ZNK14social_network4Post5writeEPN6apache6thrift8protocol9TProtocolE to i8*), i8* bitcast (void (%"class.social_network::Post"*, %"class.std::basic_ostream"*)* @_ZNK14social_network4Post7printToERSo to i8*)] }, align 8
@_ZTTN14social_network4PostE = unnamed_addr constant [2 x i8*] [i8* bitcast (i8** getelementptr inbounds ({ [11 x i8*] }, { [11 x i8*] }* @_ZTVN14social_network4PostE, i32 0, inrange i32 0, i32 6) to i8*), i8* bitcast (i8** getelementptr inbounds ({ [11 x i8*] }, { [11 x i8*] }* @_ZTVN14social_network4PostE, i32 0, inrange i32 0, i32 6) to i8*)], align 8
@.str.53 = private unnamed_addr constant [5 x i8] c"Post\00", align 1
@.str.54 = private unnamed_addr constant [8 x i8] c"post_id\00", align 1
@.str.55 = private unnamed_addr constant [8 x i8] c"creator\00", align 1
@.str.56 = private unnamed_addr constant [7 x i8] c"req_id\00", align 1
@.str.57 = private unnamed_addr constant [5 x i8] c"text\00", align 1
@.str.58 = private unnamed_addr constant [14 x i8] c"user_mentions\00", align 1
@.str.59 = private unnamed_addr constant [6 x i8] c"media\00", align 1
@.str.60 = private unnamed_addr constant [5 x i8] c"urls\00", align 1
@.str.61 = private unnamed_addr constant [10 x i8] c"timestamp\00", align 1
@.str.62 = private unnamed_addr constant [10 x i8] c"post_type\00", align 1
@.str.63 = private unnamed_addr constant [6 x i8] c"Post(\00", align 1
@.str.64 = private unnamed_addr constant [9 x i8] c"post_id=\00", align 1
@.str.65 = private unnamed_addr constant [9 x i8] c"creator=\00", align 1
@.str.66 = private unnamed_addr constant [8 x i8] c"req_id=\00", align 1
@.str.67 = private unnamed_addr constant [6 x i8] c"text=\00", align 1
@.str.68 = private unnamed_addr constant [15 x i8] c"user_mentions=\00", align 1
@.str.69 = private unnamed_addr constant [7 x i8] c"media=\00", align 1
@.str.70 = private unnamed_addr constant [6 x i8] c"urls=\00", align 1
@.str.71 = private unnamed_addr constant [11 x i8] c"timestamp=\00", align 1
@.str.72 = private unnamed_addr constant [11 x i8] c"post_type=\00", align 1
@_ZTVN10__cxxabiv121__vmi_class_type_infoE = external global i8*
@_ZTSN14social_network4UserE = constant [24 x i8] c"N14social_network4UserE\00", align 1
@_ZTVN10__cxxabiv117__class_type_infoE = external global i8*
@_ZTSN6apache6thrift5TBaseE = linkonce_odr constant [23 x i8] c"N6apache6thrift5TBaseE\00", comdat, align 1
@_ZTIN6apache6thrift5TBaseE = linkonce_odr constant { i8*, i8* } { i8* bitcast (i8** getelementptr inbounds (i8*, i8** @_ZTVN10__cxxabiv117__class_type_infoE, i64 2) to i8*), i8* getelementptr inbounds ([23 x i8], [23 x i8]* @_ZTSN6apache6thrift5TBaseE, i32 0, i32 0) }, comdat, align 8
@_ZTIN14social_network4UserE = constant { i8*, i8*, i32, i32, i8*, i64 } { i8* bitcast (i8** getelementptr inbounds (i8*, i8** @_ZTVN10__cxxabiv121__vmi_class_type_infoE, i64 2) to i8*), i8* getelementptr inbounds ([24 x i8], [24 x i8]* @_ZTSN14social_network4UserE, i32 0, i32 0), i32 0, i32 1, i8* bitcast ({ i8*, i8* }* @_ZTIN6apache6thrift5TBaseE to i8*), i64 -12285 }, align 8
@_ZTVN10__cxxabiv120__si_class_type_infoE = external global i8*
@_ZTSN14social_network16ServiceExceptionE = constant [37 x i8] c"N14social_network16ServiceExceptionE\00", align 1
@_ZTSN6apache6thrift10TExceptionE = linkonce_odr constant [29 x i8] c"N6apache6thrift10TExceptionE\00", comdat, align 1
@_ZTIN6apache6thrift10TExceptionE = linkonce_odr constant { i8*, i8*, i8* } { i8* bitcast (i8** getelementptr inbounds (i8*, i8** @_ZTVN10__cxxabiv120__si_class_type_infoE, i64 2) to i8*), i8* getelementptr inbounds ([29 x i8], [29 x i8]* @_ZTSN6apache6thrift10TExceptionE, i32 0, i32 0), i8* bitcast (i8** @_ZTISt9exception to i8*) }, comdat, align 8
@_ZTIN14social_network16ServiceExceptionE = constant { i8*, i8*, i8* } { i8* bitcast (i8** getelementptr inbounds (i8*, i8** @_ZTVN10__cxxabiv120__si_class_type_infoE, i64 2) to i8*), i8* getelementptr inbounds ([37 x i8], [37 x i8]* @_ZTSN14social_network16ServiceExceptionE, i32 0, i32 0), i8* bitcast ({ i8*, i8*, i8* }* @_ZTIN6apache6thrift10TExceptionE to i8*) }, align 8
@_ZTSN14social_network5MediaE = constant [25 x i8] c"N14social_network5MediaE\00", align 1
@_ZTIN14social_network5MediaE = constant { i8*, i8*, i32, i32, i8*, i64 } { i8* bitcast (i8** getelementptr inbounds (i8*, i8** @_ZTVN10__cxxabiv121__vmi_class_type_infoE, i64 2) to i8*), i8* getelementptr inbounds ([25 x i8], [25 x i8]* @_ZTSN14social_network5MediaE, i32 0, i32 0), i32 0, i32 1, i8* bitcast ({ i8*, i8* }* @_ZTIN6apache6thrift5TBaseE to i8*), i64 -12285 }, align 8
@_ZTSN14social_network3UrlE = constant [23 x i8] c"N14social_network3UrlE\00", align 1
@_ZTIN14social_network3UrlE = constant { i8*, i8*, i32, i32, i8*, i64 } { i8* bitcast (i8** getelementptr inbounds (i8*, i8** @_ZTVN10__cxxabiv121__vmi_class_type_infoE, i64 2) to i8*), i8* getelementptr inbounds ([23 x i8], [23 x i8]* @_ZTSN14social_network3UrlE, i32 0, i32 0), i32 0, i32 1, i8* bitcast ({ i8*, i8* }* @_ZTIN6apache6thrift5TBaseE to i8*), i64 -12285 }, align 8
@_ZTSN14social_network11UserMentionE = constant [32 x i8] c"N14social_network11UserMentionE\00", align 1
@_ZTIN14social_network11UserMentionE = constant { i8*, i8*, i32, i32, i8*, i64 } { i8* bitcast (i8** getelementptr inbounds (i8*, i8** @_ZTVN10__cxxabiv121__vmi_class_type_infoE, i64 2) to i8*), i8* getelementptr inbounds ([32 x i8], [32 x i8]* @_ZTSN14social_network11UserMentionE, i32 0, i32 0), i32 0, i32 1, i8* bitcast ({ i8*, i8* }* @_ZTIN6apache6thrift5TBaseE to i8*), i64 -12285 }, align 8
@_ZTSN14social_network7CreatorE = constant [27 x i8] c"N14social_network7CreatorE\00", align 1
@_ZTIN14social_network7CreatorE = constant { i8*, i8*, i32, i32, i8*, i64 } { i8* bitcast (i8** getelementptr inbounds (i8*, i8** @_ZTVN10__cxxabiv121__vmi_class_type_infoE, i64 2) to i8*), i8* getelementptr inbounds ([27 x i8], [27 x i8]* @_ZTSN14social_network7CreatorE, i32 0, i32 0), i32 0, i32 1, i8* bitcast ({ i8*, i8* }* @_ZTIN6apache6thrift5TBaseE to i8*), i64 -12285 }, align 8
@_ZTSN14social_network4PostE = constant [24 x i8] c"N14social_network4PostE\00", align 1
@_ZTIN14social_network4PostE = constant { i8*, i8*, i32, i32, i8*, i64 } { i8* bitcast (i8** getelementptr inbounds (i8*, i8** @_ZTVN10__cxxabiv121__vmi_class_type_infoE, i64 2) to i8*), i8* getelementptr inbounds ([24 x i8], [24 x i8]* @_ZTSN14social_network4PostE, i32 0, i32 0), i32 0, i32 1, i8* bitcast ({ i8*, i8* }* @_ZTIN6apache6thrift5TBaseE to i8*), i64 -12285 }, align 8
@_ZTSN6apache6thrift8protocol18TProtocolExceptionE = linkonce_odr constant [46 x i8] c"N6apache6thrift8protocol18TProtocolExceptionE\00", comdat, align 1
@_ZTIN6apache6thrift8protocol18TProtocolExceptionE = linkonce_odr constant { i8*, i8*, i8* } { i8* bitcast (i8** getelementptr inbounds (i8*, i8** @_ZTVN10__cxxabiv120__si_class_type_infoE, i64 2) to i8*), i8* getelementptr inbounds ([46 x i8], [46 x i8]* @_ZTSN6apache6thrift8protocol18TProtocolExceptionE, i32 0, i32 0), i8* bitcast ({ i8*, i8*, i8* }* @_ZTIN6apache6thrift10TExceptionE to i8*) }, comdat, align 8
@_ZTVN6apache6thrift8protocol18TProtocolExceptionE = linkonce_odr unnamed_addr constant { [5 x i8*] } { [5 x i8*] [i8* null, i8* bitcast ({ i8*, i8*, i8* }* @_ZTIN6apache6thrift8protocol18TProtocolExceptionE to i8*), i8* bitcast (void (%"class.apache::thrift::protocol::TProtocolException"*)* @_ZN6apache6thrift8protocol18TProtocolExceptionD2Ev to i8*), i8* bitcast (void (%"class.apache::thrift::protocol::TProtocolException"*)* @_ZN6apache6thrift8protocol18TProtocolExceptionD0Ev to i8*), i8* bitcast (i8* (%"class.apache::thrift::protocol::TProtocolException"*)* @_ZNK6apache6thrift8protocol18TProtocolException4whatEv to i8*)] }, comdat, align 8
@.str.73 = private unnamed_addr constant [47 x i8] c"TProtocolException: Unknown protocol exception\00", align 1
@.str.74 = private unnamed_addr constant [33 x i8] c"TProtocolException: Invalid data\00", align 1
@.str.75 = private unnamed_addr constant [34 x i8] c"TProtocolException: Negative size\00", align 1
@.str.76 = private unnamed_addr constant [40 x i8] c"TProtocolException: Exceeded size limit\00", align 1
@.str.77 = private unnamed_addr constant [36 x i8] c"TProtocolException: Invalid version\00", align 1
@.str.78 = private unnamed_addr constant [36 x i8] c"TProtocolException: Not implemented\00", align 1
@.str.79 = private unnamed_addr constant [45 x i8] c"TProtocolException: (Invalid exception type)\00", align 1
@_ZTVN6apache6thrift5TBaseE = linkonce_odr unnamed_addr constant { [6 x i8*] } { [6 x i8*] [i8* null, i8* bitcast ({ i8*, i8* }* @_ZTIN6apache6thrift5TBaseE to i8*), i8* bitcast (void (%"class.apache::thrift::TBase"*)* @_ZN6apache6thrift5TBaseD2Ev to i8*), i8* bitcast (void (%"class.apache::thrift::TBase"*)* @_ZN6apache6thrift5TBaseD0Ev to i8*), i8* bitcast (void ()* @__cxa_pure_virtual to i8*), i8* bitcast (void ()* @__cxa_pure_virtual to i8*)] }, comdat, align 8
@_ZTVN6apache6thrift10TExceptionE = linkonce_odr unnamed_addr constant { [5 x i8*] } { [5 x i8*] [i8* null, i8* bitcast ({ i8*, i8*, i8* }* @_ZTIN6apache6thrift10TExceptionE to i8*), i8* bitcast (void (%"class.apache::thrift::TException"*)* @_ZN6apache6thrift10TExceptionD2Ev to i8*), i8* bitcast (void (%"class.apache::thrift::TException"*)* @_ZN6apache6thrift10TExceptionD0Ev to i8*), i8* bitcast (i8* (%"class.apache::thrift::TException"*)* @_ZNK6apache6thrift10TException4whatEv to i8*)] }, comdat, align 8
@.str.80 = private unnamed_addr constant [20 x i8] c"Default TException.\00", align 1
@_ZTVSt9exception = external unnamed_addr constant { [5 x i8*] }, align 8
@.str.81 = private unnamed_addr constant [13 x i8] c"end.n_ == -1\00", align 1
@.str.82 = private unnamed_addr constant [110 x i8] c"/proj/zyuxuanssf-PG0/nightcore-test/socialnetwork_softbound/DeathStarBench/thrift/lib/cpp/src/thrift/Thrift.h\00", align 1
@__PRETTY_FUNCTION__._ZN6apache6thrift13TEnumIteratorneERKS1_ = private unnamed_addr constant [86 x i8] c"bool apache::thrift::TEnumIterator::operator!=(const apache::thrift::TEnumIterator &)\00", align 1
@.str.83 = private unnamed_addr constant [26 x i8] c"vector::_M_default_append\00", align 1
@.str.84 = private unnamed_addr constant [2 x i8] c"[\00", align 1
@.str.85 = private unnamed_addr constant [2 x i8] c"]\00", align 1
@llvm.global_ctors = appending global [1 x { i32, void ()*, i8* }] [{ i32, void ()*, i8* } { i32 65535, void ()* @_GLOBAL__sub_I_social_network_types.cpp, i8* null }]

@_ZN14social_network16ServiceExceptionD1Ev = unnamed_addr alias void (%"class.social_network::ServiceException"*), void (%"class.social_network::ServiceException"*)* @_ZN14social_network16ServiceExceptionD2Ev
@_ZN14social_network16ServiceExceptionC1ERKS0_ = unnamed_addr alias void (%"class.social_network::ServiceException"*, %"class.social_network::ServiceException"*), void (%"class.social_network::ServiceException"*, %"class.social_network::ServiceException"*)* @_ZN14social_network16ServiceExceptionC2ERKS0_

; Function Attrs: noinline uwtable
define internal void @__cxx_global_var_init() #0 section ".text.startup" {
  %1 = alloca %"class.apache::thrift::TEnumIterator", align 8
  %2 = alloca %"class.apache::thrift::TEnumIterator", align 8
  call void @_ZN6apache6thrift13TEnumIteratorC2EiPiPPKc(%"class.apache::thrift::TEnumIterator"* %1, i32 8, i32* getelementptr inbounds ([8 x i32], [8 x i32]* @_ZN14social_network17_kErrorCodeValuesE, i64 0, i64 0), i8** getelementptr inbounds ([8 x i8*], [8 x i8*]* @_ZN14social_network16_kErrorCodeNamesE, i64 0, i64 0))
  call void @_ZN6apache6thrift13TEnumIteratorC2EiPiPPKc(%"class.apache::thrift::TEnumIterator"* %2, i32 -1, i32* null, i8** null)
  call void @_ZNSt3mapIiPKcSt4lessIiESaISt4pairIKiS1_EEEC2IN6apache6thrift13TEnumIteratorEEET_SD_(%"class.std::map"* @_ZN14social_network26_ErrorCode_VALUES_TO_NAMESE, %"class.apache::thrift::TEnumIterator"* byval(%"class.apache::thrift::TEnumIterator") align 8 %1, %"class.apache::thrift::TEnumIterator"* byval(%"class.apache::thrift::TEnumIterator") align 8 %2)
  %3 = call i32 @__cxa_atexit(void (i8*)* bitcast (void (%"class.std::map"*)* @_ZNSt3mapIiPKcSt4lessIiESaISt4pairIKiS1_EEED2Ev to void (i8*)*), i8* getelementptr inbounds (%"class.std::map", %"class.std::map"* @_ZN14social_network26_ErrorCode_VALUES_TO_NAMESE, i32 0, i32 0, i32 0, i32 0, i32 0, i32 0), i8* @__dso_handle) #3
  ret void
}

; Function Attrs: noinline nounwind optnone uwtable
define linkonce_odr void @_ZN6apache6thrift13TEnumIteratorC2EiPiPPKc(%"class.apache::thrift::TEnumIterator"* %0, i32 %1, i32* %2, i8** %3) unnamed_addr #1 comdat align 2 {
  %5 = alloca %"class.apache::thrift::TEnumIterator"*, align 8
  %6 = alloca i32, align 4
  %7 = alloca i32*, align 8
  %8 = alloca i8**, align 8
  store %"class.apache::thrift::TEnumIterator"* %0, %"class.apache::thrift::TEnumIterator"** %5, align 8
  store i32 %1, i32* %6, align 4
  store i32* %2, i32** %7, align 8
  store i8** %3, i8*** %8, align 8
  %9 = load %"class.apache::thrift::TEnumIterator"*, %"class.apache::thrift::TEnumIterator"** %5, align 8
  %10 = bitcast %"class.apache::thrift::TEnumIterator"* %9 to %"struct.std::iterator"*
  %11 = getelementptr inbounds %"class.apache::thrift::TEnumIterator", %"class.apache::thrift::TEnumIterator"* %9, i32 0, i32 0
  store i32 0, i32* %11, align 8
  %12 = getelementptr inbounds %"class.apache::thrift::TEnumIterator", %"class.apache::thrift::TEnumIterator"* %9, i32 0, i32 1
  %13 = load i32, i32* %6, align 4
  store i32 %13, i32* %12, align 4
  %14 = getelementptr inbounds %"class.apache::thrift::TEnumIterator", %"class.apache::thrift::TEnumIterator"* %9, i32 0, i32 2
  %15 = load i32*, i32** %7, align 8
  store i32* %15, i32** %14, align 8
  %16 = getelementptr inbounds %"class.apache::thrift::TEnumIterator", %"class.apache::thrift::TEnumIterator"* %9, i32 0, i32 3
  %17 = load i8**, i8*** %8, align 8
  store i8** %17, i8*** %16, align 8
  ret void
}

; Function Attrs: noinline optnone uwtable
define linkonce_odr void @_ZNSt3mapIiPKcSt4lessIiESaISt4pairIKiS1_EEEC2IN6apache6thrift13TEnumIteratorEEET_SD_(%"class.std::map"* %0, %"class.apache::thrift::TEnumIterator"* byval(%"class.apache::thrift::TEnumIterator") align 8 %1, %"class.apache::thrift::TEnumIterator"* byval(%"class.apache::thrift::TEnumIterator") align 8 %2) unnamed_addr #2 comdat align 2 personality i8* bitcast (i32 (...)* @__gxx_personality_v0 to i8*) {
  %4 = alloca %"class.std::map"*, align 8
  %5 = alloca %"class.apache::thrift::TEnumIterator", align 8
  %6 = alloca %"class.apache::thrift::TEnumIterator", align 8
  %7 = alloca i8*
  %8 = alloca i32
  store %"class.std::map"* %0, %"class.std::map"** %4, align 8
  %9 = load %"class.std::map"*, %"class.std::map"** %4, align 8
  %10 = getelementptr inbounds %"class.std::map", %"class.std::map"* %9, i32 0, i32 0
  %11 = bitcast %"class.std::_Rb_tree"* %10 to i8*
  call void @llvm.memset.p0i8.i64(i8* align 8 %11, i8 0, i64 48, i1 false)
  call void @_ZNSt8_Rb_treeIiSt4pairIKiPKcESt10_Select1stIS4_ESt4lessIiESaIS4_EEC2Ev(%"class.std::_Rb_tree"* %10) #3
  %12 = getelementptr inbounds %"class.std::map", %"class.std::map"* %9, i32 0, i32 0
  %13 = bitcast %"class.apache::thrift::TEnumIterator"* %5 to i8*
  %14 = bitcast %"class.apache::thrift::TEnumIterator"* %1 to i8*
  call void @llvm.memcpy.p0i8.p0i8.i64(i8* align 8 %13, i8* align 8 %14, i64 24, i1 false)
  %15 = bitcast %"class.apache::thrift::TEnumIterator"* %6 to i8*
  %16 = bitcast %"class.apache::thrift::TEnumIterator"* %2 to i8*
  call void @llvm.memcpy.p0i8.p0i8.i64(i8* align 8 %15, i8* align 8 %16, i64 24, i1 false)
  invoke void @_ZNSt8_Rb_treeIiSt4pairIKiPKcESt10_Select1stIS4_ESt4lessIiESaIS4_EE22_M_insert_range_uniqueIN6apache6thrift13TEnumIteratorEEENSt9enable_ifIXntsr17__same_value_typeIT_EE5valueEvE4typeESG_SG_(%"class.std::_Rb_tree"* %12, %"class.apache::thrift::TEnumIterator"* byval(%"class.apache::thrift::TEnumIterator") align 8 %5, %"class.apache::thrift::TEnumIterator"* byval(%"class.apache::thrift::TEnumIterator") align 8 %6)
          to label %17 unwind label %18

17:                                               ; preds = %3
  ret void

18:                                               ; preds = %3
  %19 = landingpad { i8*, i32 }
          cleanup
  %20 = extractvalue { i8*, i32 } %19, 0
  store i8* %20, i8** %7, align 8
  %21 = extractvalue { i8*, i32 } %19, 1
  store i32 %21, i32* %8, align 4
  call void @_ZNSt8_Rb_treeIiSt4pairIKiPKcESt10_Select1stIS4_ESt4lessIiESaIS4_EED2Ev(%"class.std::_Rb_tree"* %10) #3
  br label %22

22:                                               ; preds = %18
  %23 = load i8*, i8** %7, align 8
  %24 = load i32, i32* %8, align 4
  %25 = insertvalue { i8*, i32 } undef, i8* %23, 0
  %26 = insertvalue { i8*, i32 } %25, i32 %24, 1
  resume { i8*, i32 } %26
}

; Function Attrs: noinline nounwind optnone uwtable
define linkonce_odr void @_ZNSt3mapIiPKcSt4lessIiESaISt4pairIKiS1_EEED2Ev(%"class.std::map"* %0) unnamed_addr #1 comdat align 2 {
  %2 = alloca %"class.std::map"*, align 8
  store %"class.std::map"* %0, %"class.std::map"** %2, align 8
  %3 = load %"class.std::map"*, %"class.std::map"** %2, align 8
  %4 = getelementptr inbounds %"class.std::map", %"class.std::map"* %3, i32 0, i32 0
  call void @_ZNSt8_Rb_treeIiSt4pairIKiPKcESt10_Select1stIS4_ESt4lessIiESaIS4_EED2Ev(%"class.std::_Rb_tree"* %4) #3
  ret void
}

; Function Attrs: nounwind
declare i32 @__cxa_atexit(void (i8*)*, i8*, i8*) #3

; Function Attrs: noinline optnone uwtable
define dereferenceable(272) %"class.std::basic_ostream"* @_ZN14social_networklsERSoRKNS_9ErrorCode4typeE(%"class.std::basic_ostream"* dereferenceable(272) %0, i32* dereferenceable(4) %1) #2 {
  %3 = alloca %"class.std::basic_ostream"*, align 8
  %4 = alloca i32*, align 8
  %5 = alloca %"struct.std::_Rb_tree_const_iterator", align 8
  %6 = alloca i32, align 4
  %7 = alloca %"struct.std::_Rb_tree_const_iterator", align 8
  store %"class.std::basic_ostream"* %0, %"class.std::basic_ostream"** %3, align 8
  store i32* %1, i32** %4, align 8
  %8 = load i32*, i32** %4, align 8
  %9 = load i32, i32* %8, align 4
  store i32 %9, i32* %6, align 4
  %10 = call %"struct.std::_Rb_tree_node_base"* @_ZNKSt3mapIiPKcSt4lessIiESaISt4pairIKiS1_EEE4findERS5_(%"class.std::map"* @_ZN14social_network26_ErrorCode_VALUES_TO_NAMESE, i32* dereferenceable(4) %6)
  %11 = getelementptr inbounds %"struct.std::_Rb_tree_const_iterator", %"struct.std::_Rb_tree_const_iterator"* %5, i32 0, i32 0
  store %"struct.std::_Rb_tree_node_base"* %10, %"struct.std::_Rb_tree_node_base"** %11, align 8
  %12 = call %"struct.std::_Rb_tree_node_base"* @_ZNKSt3mapIiPKcSt4lessIiESaISt4pairIKiS1_EEE3endEv(%"class.std::map"* @_ZN14social_network26_ErrorCode_VALUES_TO_NAMESE) #3
  %13 = getelementptr inbounds %"struct.std::_Rb_tree_const_iterator", %"struct.std::_Rb_tree_const_iterator"* %7, i32 0, i32 0
  store %"struct.std::_Rb_tree_node_base"* %12, %"struct.std::_Rb_tree_node_base"** %13, align 8
  %14 = call zeroext i1 @_ZStneRKSt23_Rb_tree_const_iteratorISt4pairIKiPKcEES7_(%"struct.std::_Rb_tree_const_iterator"* dereferenceable(8) %5, %"struct.std::_Rb_tree_const_iterator"* dereferenceable(8) %7) #3
  br i1 %14, label %15, label %21

15:                                               ; preds = %2
  %16 = load %"class.std::basic_ostream"*, %"class.std::basic_ostream"** %3, align 8
  %17 = call %"struct.std::pair"* @_ZNKSt23_Rb_tree_const_iteratorISt4pairIKiPKcEEptEv(%"struct.std::_Rb_tree_const_iterator"* %5) #3
  %18 = getelementptr inbounds %"struct.std::pair", %"struct.std::pair"* %17, i32 0, i32 1
  %19 = load i8*, i8** %18, align 8
  %20 = call dereferenceable(272) %"class.std::basic_ostream"* @_ZStlsISt11char_traitsIcEERSt13basic_ostreamIcT_ES5_PKc(%"class.std::basic_ostream"* dereferenceable(272) %16, i8* %19)
  br label %26

21:                                               ; preds = %2
  %22 = load %"class.std::basic_ostream"*, %"class.std::basic_ostream"** %3, align 8
  %23 = load i32*, i32** %4, align 8
  %24 = load i32, i32* %23, align 4
  %25 = call dereferenceable(272) %"class.std::basic_ostream"* @_ZNSolsEi(%"class.std::basic_ostream"* %22, i32 %24)
  br label %26

26:                                               ; preds = %21, %15
  %27 = load %"class.std::basic_ostream"*, %"class.std::basic_ostream"** %3, align 8
  ret %"class.std::basic_ostream"* %27
}

; Function Attrs: noinline optnone uwtable
define linkonce_odr %"struct.std::_Rb_tree_node_base"* @_ZNKSt3mapIiPKcSt4lessIiESaISt4pairIKiS1_EEE4findERS5_(%"class.std::map"* %0, i32* dereferenceable(4) %1) #2 comdat align 2 {
  %3 = alloca %"struct.std::_Rb_tree_const_iterator", align 8
  %4 = alloca %"class.std::map"*, align 8
  %5 = alloca i32*, align 8
  store %"class.std::map"* %0, %"class.std::map"** %4, align 8
  store i32* %1, i32** %5, align 8
  %6 = load %"class.std::map"*, %"class.std::map"** %4, align 8
  %7 = getelementptr inbounds %"class.std::map", %"class.std::map"* %6, i32 0, i32 0
  %8 = load i32*, i32** %5, align 8
  %9 = call %"struct.std::_Rb_tree_node_base"* @_ZNKSt8_Rb_treeIiSt4pairIKiPKcESt10_Select1stIS4_ESt4lessIiESaIS4_EE4findERS1_(%"class.std::_Rb_tree"* %7, i32* dereferenceable(4) %8)
  %10 = getelementptr inbounds %"struct.std::_Rb_tree_const_iterator", %"struct.std::_Rb_tree_const_iterator"* %3, i32 0, i32 0
  store %"struct.std::_Rb_tree_node_base"* %9, %"struct.std::_Rb_tree_node_base"** %10, align 8
  %11 = getelementptr inbounds %"struct.std::_Rb_tree_const_iterator", %"struct.std::_Rb_tree_const_iterator"* %3, i32 0, i32 0
  %12 = load %"struct.std::_Rb_tree_node_base"*, %"struct.std::_Rb_tree_node_base"** %11, align 8
  ret %"struct.std::_Rb_tree_node_base"* %12
}

; Function Attrs: noinline nounwind optnone uwtable
define linkonce_odr zeroext i1 @_ZStneRKSt23_Rb_tree_const_iteratorISt4pairIKiPKcEES7_(%"struct.std::_Rb_tree_const_iterator"* dereferenceable(8) %0, %"struct.std::_Rb_tree_const_iterator"* dereferenceable(8) %1) #1 comdat {
  %3 = alloca %"struct.std::_Rb_tree_const_iterator"*, align 8
  %4 = alloca %"struct.std::_Rb_tree_const_iterator"*, align 8
  store %"struct.std::_Rb_tree_const_iterator"* %0, %"struct.std::_Rb_tree_const_iterator"** %3, align 8
  store %"struct.std::_Rb_tree_const_iterator"* %1, %"struct.std::_Rb_tree_const_iterator"** %4, align 8
  %5 = load %"struct.std::_Rb_tree_const_iterator"*, %"struct.std::_Rb_tree_const_iterator"** %3, align 8
  %6 = getelementptr inbounds %"struct.std::_Rb_tree_const_iterator", %"struct.std::_Rb_tree_const_iterator"* %5, i32 0, i32 0
  %7 = load %"struct.std::_Rb_tree_node_base"*, %"struct.std::_Rb_tree_node_base"** %6, align 8
  %8 = load %"struct.std::_Rb_tree_const_iterator"*, %"struct.std::_Rb_tree_const_iterator"** %4, align 8
  %9 = getelementptr inbounds %"struct.std::_Rb_tree_const_iterator", %"struct.std::_Rb_tree_const_iterator"* %8, i32 0, i32 0
  %10 = load %"struct.std::_Rb_tree_node_base"*, %"struct.std::_Rb_tree_node_base"** %9, align 8
  %11 = icmp ne %"struct.std::_Rb_tree_node_base"* %7, %10
  ret i1 %11
}

; Function Attrs: noinline nounwind optnone uwtable
define linkonce_odr %"struct.std::_Rb_tree_node_base"* @_ZNKSt3mapIiPKcSt4lessIiESaISt4pairIKiS1_EEE3endEv(%"class.std::map"* %0) #1 comdat align 2 {
  %2 = alloca %"struct.std::_Rb_tree_const_iterator", align 8
  %3 = alloca %"class.std::map"*, align 8
  store %"class.std::map"* %0, %"class.std::map"** %3, align 8
  %4 = load %"class.std::map"*, %"class.std::map"** %3, align 8
  %5 = getelementptr inbounds %"class.std::map", %"class.std::map"* %4, i32 0, i32 0
  %6 = call %"struct.std::_Rb_tree_node_base"* @_ZNKSt8_Rb_treeIiSt4pairIKiPKcESt10_Select1stIS4_ESt4lessIiESaIS4_EE3endEv(%"class.std::_Rb_tree"* %5) #3
  %7 = getelementptr inbounds %"struct.std::_Rb_tree_const_iterator", %"struct.std::_Rb_tree_const_iterator"* %2, i32 0, i32 0
  store %"struct.std::_Rb_tree_node_base"* %6, %"struct.std::_Rb_tree_node_base"** %7, align 8
  %8 = getelementptr inbounds %"struct.std::_Rb_tree_const_iterator", %"struct.std::_Rb_tree_const_iterator"* %2, i32 0, i32 0
  %9 = load %"struct.std::_Rb_tree_node_base"*, %"struct.std::_Rb_tree_node_base"** %8, align 8
  ret %"struct.std::_Rb_tree_node_base"* %9
}

declare dereferenceable(272) %"class.std::basic_ostream"* @_ZStlsISt11char_traitsIcEERSt13basic_ostreamIcT_ES5_PKc(%"class.std::basic_ostream"* dereferenceable(272), i8*) #4

; Function Attrs: noinline nounwind optnone uwtable
define linkonce_odr %"struct.std::pair"* @_ZNKSt23_Rb_tree_const_iteratorISt4pairIKiPKcEEptEv(%"struct.std::_Rb_tree_const_iterator"* %0) #1 comdat align 2 personality i8* bitcast (i32 (...)* @__gxx_personality_v0 to i8*) {
  %2 = alloca %"struct.std::_Rb_tree_const_iterator"*, align 8
  store %"struct.std::_Rb_tree_const_iterator"* %0, %"struct.std::_Rb_tree_const_iterator"** %2, align 8
  %3 = load %"struct.std::_Rb_tree_const_iterator"*, %"struct.std::_Rb_tree_const_iterator"** %2, align 8
  %4 = getelementptr inbounds %"struct.std::_Rb_tree_const_iterator", %"struct.std::_Rb_tree_const_iterator"* %3, i32 0, i32 0
  %5 = load %"struct.std::_Rb_tree_node_base"*, %"struct.std::_Rb_tree_node_base"** %4, align 8
  %6 = bitcast %"struct.std::_Rb_tree_node_base"* %5 to %"struct.std::_Rb_tree_node"*
  %7 = invoke %"struct.std::pair"* @_ZNKSt13_Rb_tree_nodeISt4pairIKiPKcEE9_M_valptrEv(%"struct.std::_Rb_tree_node"* %6)
          to label %8 unwind label %9

8:                                                ; preds = %1
  ret %"struct.std::pair"* %7

9:                                                ; preds = %1
  %10 = landingpad { i8*, i32 }
          catch i8* null
  %11 = extractvalue { i8*, i32 } %10, 0
  call void @__clang_call_terminate(i8* %11) #15
  unreachable
}

declare dereferenceable(272) %"class.std::basic_ostream"* @_ZNSolsEi(%"class.std::basic_ostream"*, i32) #4

; Function Attrs: noinline uwtable
define internal void @__cxx_global_var_init.12() #0 section ".text.startup" {
  %1 = alloca %"class.apache::thrift::TEnumIterator", align 8
  %2 = alloca %"class.apache::thrift::TEnumIterator", align 8
  call void @_ZN6apache6thrift13TEnumIteratorC2EiPiPPKc(%"class.apache::thrift::TEnumIterator"* %1, i32 4, i32* getelementptr inbounds ([4 x i32], [4 x i32]* @_ZN14social_network16_kPostTypeValuesE, i64 0, i64 0), i8** getelementptr inbounds ([4 x i8*], [4 x i8*]* @_ZN14social_network15_kPostTypeNamesE, i64 0, i64 0))
  call void @_ZN6apache6thrift13TEnumIteratorC2EiPiPPKc(%"class.apache::thrift::TEnumIterator"* %2, i32 -1, i32* null, i8** null)
  call void @_ZNSt3mapIiPKcSt4lessIiESaISt4pairIKiS1_EEEC2IN6apache6thrift13TEnumIteratorEEET_SD_(%"class.std::map"* @_ZN14social_network25_PostType_VALUES_TO_NAMESE, %"class.apache::thrift::TEnumIterator"* byval(%"class.apache::thrift::TEnumIterator") align 8 %1, %"class.apache::thrift::TEnumIterator"* byval(%"class.apache::thrift::TEnumIterator") align 8 %2)
  %3 = call i32 @__cxa_atexit(void (i8*)* bitcast (void (%"class.std::map"*)* @_ZNSt3mapIiPKcSt4lessIiESaISt4pairIKiS1_EEED2Ev to void (i8*)*), i8* getelementptr inbounds (%"class.std::map", %"class.std::map"* @_ZN14social_network25_PostType_VALUES_TO_NAMESE, i32 0, i32 0, i32 0, i32 0, i32 0, i32 0), i8* @__dso_handle) #3
  ret void
}

; Function Attrs: noinline optnone uwtable
define dereferenceable(272) %"class.std::basic_ostream"* @_ZN14social_networklsERSoRKNS_8PostType4typeE(%"class.std::basic_ostream"* dereferenceable(272) %0, i32* dereferenceable(4) %1) #2 {
  %3 = alloca %"class.std::basic_ostream"*, align 8
  %4 = alloca i32*, align 8
  %5 = alloca %"struct.std::_Rb_tree_const_iterator", align 8
  %6 = alloca i32, align 4
  %7 = alloca %"struct.std::_Rb_tree_const_iterator", align 8
  store %"class.std::basic_ostream"* %0, %"class.std::basic_ostream"** %3, align 8
  store i32* %1, i32** %4, align 8
  %8 = load i32*, i32** %4, align 8
  %9 = load i32, i32* %8, align 4
  store i32 %9, i32* %6, align 4
  %10 = call %"struct.std::_Rb_tree_node_base"* @_ZNKSt3mapIiPKcSt4lessIiESaISt4pairIKiS1_EEE4findERS5_(%"class.std::map"* @_ZN14social_network25_PostType_VALUES_TO_NAMESE, i32* dereferenceable(4) %6)
  %11 = getelementptr inbounds %"struct.std::_Rb_tree_const_iterator", %"struct.std::_Rb_tree_const_iterator"* %5, i32 0, i32 0
  store %"struct.std::_Rb_tree_node_base"* %10, %"struct.std::_Rb_tree_node_base"** %11, align 8
  %12 = call %"struct.std::_Rb_tree_node_base"* @_ZNKSt3mapIiPKcSt4lessIiESaISt4pairIKiS1_EEE3endEv(%"class.std::map"* @_ZN14social_network25_PostType_VALUES_TO_NAMESE) #3
  %13 = getelementptr inbounds %"struct.std::_Rb_tree_const_iterator", %"struct.std::_Rb_tree_const_iterator"* %7, i32 0, i32 0
  store %"struct.std::_Rb_tree_node_base"* %12, %"struct.std::_Rb_tree_node_base"** %13, align 8
  %14 = call zeroext i1 @_ZStneRKSt23_Rb_tree_const_iteratorISt4pairIKiPKcEES7_(%"struct.std::_Rb_tree_const_iterator"* dereferenceable(8) %5, %"struct.std::_Rb_tree_const_iterator"* dereferenceable(8) %7) #3
  br i1 %14, label %15, label %21

15:                                               ; preds = %2
  %16 = load %"class.std::basic_ostream"*, %"class.std::basic_ostream"** %3, align 8
  %17 = call %"struct.std::pair"* @_ZNKSt23_Rb_tree_const_iteratorISt4pairIKiPKcEEptEv(%"struct.std::_Rb_tree_const_iterator"* %5) #3
  %18 = getelementptr inbounds %"struct.std::pair", %"struct.std::pair"* %17, i32 0, i32 1
  %19 = load i8*, i8** %18, align 8
  %20 = call dereferenceable(272) %"class.std::basic_ostream"* @_ZStlsISt11char_traitsIcEERSt13basic_ostreamIcT_ES5_PKc(%"class.std::basic_ostream"* dereferenceable(272) %16, i8* %19)
  br label %26

21:                                               ; preds = %2
  %22 = load %"class.std::basic_ostream"*, %"class.std::basic_ostream"** %3, align 8
  %23 = load i32*, i32** %4, align 8
  %24 = load i32, i32* %23, align 4
  %25 = call dereferenceable(272) %"class.std::basic_ostream"* @_ZNSolsEi(%"class.std::basic_ostream"* %22, i32 %24)
  br label %26

26:                                               ; preds = %21, %15
  %27 = load %"class.std::basic_ostream"*, %"class.std::basic_ostream"** %3, align 8
  ret %"class.std::basic_ostream"* %27
}

; Function Attrs: noinline nounwind optnone uwtable
define void @_ZN14social_network4UserD2Ev(%"class.social_network::User"* %0, i8** %1) unnamed_addr #1 align 2 {
  %3 = alloca %"class.social_network::User"*, align 8
  %4 = alloca i8**, align 8
  store %"class.social_network::User"* %0, %"class.social_network::User"** %3, align 8
  store i8** %1, i8*** %4, align 8
  %5 = load %"class.social_network::User"*, %"class.social_network::User"** %3, align 8
  %6 = load i8**, i8*** %4, align 8
  %7 = load i8*, i8** %6, align 8
  %8 = bitcast %"class.social_network::User"* %5 to i32 (...)***
  %9 = bitcast i8* %7 to i32 (...)**
  store i32 (...)** %9, i32 (...)*** %8, align 8
  %10 = getelementptr inbounds i8*, i8** %6, i64 1
  %11 = load i8*, i8** %10, align 8
  %12 = bitcast %"class.social_network::User"* %5 to i8**
  %13 = load i8*, i8** %12, align 8
  %14 = getelementptr i8, i8* %13, i64 -48
  %15 = bitcast i8* %14 to i64*
  %16 = load i64, i64* %15, align 8
  %17 = bitcast %"class.social_network::User"* %5 to i8*
  %18 = getelementptr inbounds i8, i8* %17, i64 %16
  %19 = bitcast i8* %18 to i32 (...)***
  %20 = bitcast i8* %11 to i32 (...)**
  store i32 (...)** %20, i32 (...)*** %19, align 8
  %21 = getelementptr inbounds %"class.social_network::User", %"class.social_network::User"* %5, i32 0, i32 6
  call void @_ZNSt7__cxx1112basic_stringIcSt11char_traitsIcESaIcEED1Ev(%"class.std::__cxx11::basic_string"* %21) #3
  %22 = getelementptr inbounds %"class.social_network::User", %"class.social_network::User"* %5, i32 0, i32 5
  call void @_ZNSt7__cxx1112basic_stringIcSt11char_traitsIcESaIcEED1Ev(%"class.std::__cxx11::basic_string"* %22) #3
  %23 = getelementptr inbounds %"class.social_network::User", %"class.social_network::User"* %5, i32 0, i32 4
  call void @_ZNSt7__cxx1112basic_stringIcSt11char_traitsIcESaIcEED1Ev(%"class.std::__cxx11::basic_string"* %23) #3
  %24 = getelementptr inbounds %"class.social_network::User", %"class.social_network::User"* %5, i32 0, i32 3
  call void @_ZNSt7__cxx1112basic_stringIcSt11char_traitsIcESaIcEED1Ev(%"class.std::__cxx11::basic_string"* %24) #3
  %25 = getelementptr inbounds %"class.social_network::User", %"class.social_network::User"* %5, i32 0, i32 2
  call void @_ZNSt7__cxx1112basic_stringIcSt11char_traitsIcESaIcEED1Ev(%"class.std::__cxx11::basic_string"* %25) #3
  ret void
}

; Function Attrs: nounwind
declare void @_ZNSt7__cxx1112basic_stringIcSt11char_traitsIcESaIcEED1Ev(%"class.std::__cxx11::basic_string"*) unnamed_addr #5

; Function Attrs: noinline nounwind optnone uwtable
define void @_ZN14social_network4UserD1Ev(%"class.social_network::User"* %0) unnamed_addr #1 align 2 {
  %2 = alloca %"class.social_network::User"*, align 8
  store %"class.social_network::User"* %0, %"class.social_network::User"** %2, align 8
  %3 = load %"class.social_network::User"*, %"class.social_network::User"** %2, align 8
  call void @_ZN14social_network4UserD2Ev(%"class.social_network::User"* %3, i8** getelementptr inbounds ([2 x i8*], [2 x i8*]* @_ZTTN14social_network4UserE, i64 0, i64 0)) #3
  %4 = bitcast %"class.social_network::User"* %3 to %"class.apache::thrift::TBase"*
  call void @_ZN6apache6thrift5TBaseD2Ev(%"class.apache::thrift::TBase"* %4) #3
  ret void
}

; Function Attrs: noinline nounwind optnone uwtable
define void @_ZTv0_n24_N14social_network4UserD1Ev(%"class.social_network::User"* %0) unnamed_addr #1 align 2 {
  %2 = alloca %"class.social_network::User"*, align 8
  store %"class.social_network::User"* %0, %"class.social_network::User"** %2, align 8
  %3 = load %"class.social_network::User"*, %"class.social_network::User"** %2, align 8
  %4 = bitcast %"class.social_network::User"* %3 to i8*
  %5 = bitcast i8* %4 to i8**
  %6 = load i8*, i8** %5, align 8
  %7 = getelementptr inbounds i8, i8* %6, i64 -24
  %8 = bitcast i8* %7 to i64*
  %9 = load i64, i64* %8, align 8
  %10 = getelementptr inbounds i8, i8* %4, i64 %9
  %11 = bitcast i8* %10 to %"class.social_network::User"*
  tail call void @_ZN14social_network4UserD1Ev(%"class.social_network::User"* %11) #3
  ret void
}

; Function Attrs: noinline nounwind optnone uwtable
define void @_ZN14social_network4UserD0Ev(%"class.social_network::User"* %0) unnamed_addr #1 align 2 {
  %2 = alloca %"class.social_network::User"*, align 8
  store %"class.social_network::User"* %0, %"class.social_network::User"** %2, align 8
  %3 = load %"class.social_network::User"*, %"class.social_network::User"** %2, align 8
  call void @_ZN14social_network4UserD1Ev(%"class.social_network::User"* %3) #3
  %4 = bitcast %"class.social_network::User"* %3 to i8*
  call void @_ZdlPv(i8* %4) #16
  ret void
}

; Function Attrs: nobuiltin nounwind
declare void @_ZdlPv(i8*) #6

; Function Attrs: noinline nounwind optnone uwtable
define void @_ZTv0_n24_N14social_network4UserD0Ev(%"class.social_network::User"* %0) unnamed_addr #1 align 2 {
  %2 = alloca %"class.social_network::User"*, align 8
  store %"class.social_network::User"* %0, %"class.social_network::User"** %2, align 8
  %3 = load %"class.social_network::User"*, %"class.social_network::User"** %2, align 8
  %4 = bitcast %"class.social_network::User"* %3 to i8*
  %5 = bitcast i8* %4 to i8**
  %6 = load i8*, i8** %5, align 8
  %7 = getelementptr inbounds i8, i8* %6, i64 -24
  %8 = bitcast i8* %7 to i64*
  %9 = load i64, i64* %8, align 8
  %10 = getelementptr inbounds i8, i8* %4, i64 %9
  %11 = bitcast i8* %10 to %"class.social_network::User"*
  tail call void @_ZN14social_network4UserD0Ev(%"class.social_network::User"* %11) #3
  ret void
}

; Function Attrs: noinline nounwind optnone uwtable
define void @_ZN14social_network4User13__set_user_idEl(%"class.social_network::User"* %0, i64 %1) #1 align 2 {
  %3 = alloca %"class.social_network::User"*, align 8
  %4 = alloca i64, align 8
  store %"class.social_network::User"* %0, %"class.social_network::User"** %3, align 8
  store i64 %1, i64* %4, align 8
  %5 = load %"class.social_network::User"*, %"class.social_network::User"** %3, align 8
  %6 = load i64, i64* %4, align 8
  %7 = getelementptr inbounds %"class.social_network::User", %"class.social_network::User"* %5, i32 0, i32 1
  store i64 %6, i64* %7, align 8
  ret void
}

; Function Attrs: noinline optnone uwtable
define void @_ZN14social_network4User16__set_first_nameERKNSt7__cxx1112basic_stringIcSt11char_traitsIcESaIcEEE(%"class.social_network::User"* %0, %"class.std::__cxx11::basic_string"* dereferenceable(32) %1) #2 align 2 {
  %3 = alloca %"class.social_network::User"*, align 8
  %4 = alloca %"class.std::__cxx11::basic_string"*, align 8
  store %"class.social_network::User"* %0, %"class.social_network::User"** %3, align 8
  store %"class.std::__cxx11::basic_string"* %1, %"class.std::__cxx11::basic_string"** %4, align 8
  %5 = load %"class.social_network::User"*, %"class.social_network::User"** %3, align 8
  %6 = load %"class.std::__cxx11::basic_string"*, %"class.std::__cxx11::basic_string"** %4, align 8
  %7 = getelementptr inbounds %"class.social_network::User", %"class.social_network::User"* %5, i32 0, i32 2
  %8 = call dereferenceable(32) %"class.std::__cxx11::basic_string"* @_ZNSt7__cxx1112basic_stringIcSt11char_traitsIcESaIcEEaSERKS4_(%"class.std::__cxx11::basic_string"* %7, %"class.std::__cxx11::basic_string"* dereferenceable(32) %6)
  ret void
}

declare dereferenceable(32) %"class.std::__cxx11::basic_string"* @_ZNSt7__cxx1112basic_stringIcSt11char_traitsIcESaIcEEaSERKS4_(%"class.std::__cxx11::basic_string"*, %"class.std::__cxx11::basic_string"* dereferenceable(32)) #4

; Function Attrs: noinline optnone uwtable
define void @_ZN14social_network4User15__set_last_nameERKNSt7__cxx1112basic_stringIcSt11char_traitsIcESaIcEEE(%"class.social_network::User"* %0, %"class.std::__cxx11::basic_string"* dereferenceable(32) %1) #2 align 2 {
  %3 = alloca %"class.social_network::User"*, align 8
  %4 = alloca %"class.std::__cxx11::basic_string"*, align 8
  store %"class.social_network::User"* %0, %"class.social_network::User"** %3, align 8
  store %"class.std::__cxx11::basic_string"* %1, %"class.std::__cxx11::basic_string"** %4, align 8
  %5 = load %"class.social_network::User"*, %"class.social_network::User"** %3, align 8
  %6 = load %"class.std::__cxx11::basic_string"*, %"class.std::__cxx11::basic_string"** %4, align 8
  %7 = getelementptr inbounds %"class.social_network::User", %"class.social_network::User"* %5, i32 0, i32 3
  %8 = call dereferenceable(32) %"class.std::__cxx11::basic_string"* @_ZNSt7__cxx1112basic_stringIcSt11char_traitsIcESaIcEEaSERKS4_(%"class.std::__cxx11::basic_string"* %7, %"class.std::__cxx11::basic_string"* dereferenceable(32) %6)
  ret void
}

; Function Attrs: noinline optnone uwtable
define void @_ZN14social_network4User14__set_usernameERKNSt7__cxx1112basic_stringIcSt11char_traitsIcESaIcEEE(%"class.social_network::User"* %0, %"class.std::__cxx11::basic_string"* dereferenceable(32) %1) #2 align 2 {
  %3 = alloca %"class.social_network::User"*, align 8
  %4 = alloca %"class.std::__cxx11::basic_string"*, align 8
  store %"class.social_network::User"* %0, %"class.social_network::User"** %3, align 8
  store %"class.std::__cxx11::basic_string"* %1, %"class.std::__cxx11::basic_string"** %4, align 8
  %5 = load %"class.social_network::User"*, %"class.social_network::User"** %3, align 8
  %6 = load %"class.std::__cxx11::basic_string"*, %"class.std::__cxx11::basic_string"** %4, align 8
  %7 = getelementptr inbounds %"class.social_network::User", %"class.social_network::User"* %5, i32 0, i32 4
  %8 = call dereferenceable(32) %"class.std::__cxx11::basic_string"* @_ZNSt7__cxx1112basic_stringIcSt11char_traitsIcESaIcEEaSERKS4_(%"class.std::__cxx11::basic_string"* %7, %"class.std::__cxx11::basic_string"* dereferenceable(32) %6)
  ret void
}

; Function Attrs: noinline optnone uwtable
define void @_ZN14social_network4User21__set_password_hashedERKNSt7__cxx1112basic_stringIcSt11char_traitsIcESaIcEEE(%"class.social_network::User"* %0, %"class.std::__cxx11::basic_string"* dereferenceable(32) %1) #2 align 2 {
  %3 = alloca %"class.social_network::User"*, align 8
  %4 = alloca %"class.std::__cxx11::basic_string"*, align 8
  store %"class.social_network::User"* %0, %"class.social_network::User"** %3, align 8
  store %"class.std::__cxx11::basic_string"* %1, %"class.std::__cxx11::basic_string"** %4, align 8
  %5 = load %"class.social_network::User"*, %"class.social_network::User"** %3, align 8
  %6 = load %"class.std::__cxx11::basic_string"*, %"class.std::__cxx11::basic_string"** %4, align 8
  %7 = getelementptr inbounds %"class.social_network::User", %"class.social_network::User"* %5, i32 0, i32 5
  %8 = call dereferenceable(32) %"class.std::__cxx11::basic_string"* @_ZNSt7__cxx1112basic_stringIcSt11char_traitsIcESaIcEEaSERKS4_(%"class.std::__cxx11::basic_string"* %7, %"class.std::__cxx11::basic_string"* dereferenceable(32) %6)
  ret void
}

; Function Attrs: noinline optnone uwtable
define void @_ZN14social_network4User10__set_saltERKNSt7__cxx1112basic_stringIcSt11char_traitsIcESaIcEEE(%"class.social_network::User"* %0, %"class.std::__cxx11::basic_string"* dereferenceable(32) %1) #2 align 2 {
  %3 = alloca %"class.social_network::User"*, align 8
  %4 = alloca %"class.std::__cxx11::basic_string"*, align 8
  store %"class.social_network::User"* %0, %"class.social_network::User"** %3, align 8
  store %"class.std::__cxx11::basic_string"* %1, %"class.std::__cxx11::basic_string"** %4, align 8
  %5 = load %"class.social_network::User"*, %"class.social_network::User"** %3, align 8
  %6 = load %"class.std::__cxx11::basic_string"*, %"class.std::__cxx11::basic_string"** %4, align 8
  %7 = getelementptr inbounds %"class.social_network::User", %"class.social_network::User"* %5, i32 0, i32 6
  %8 = call dereferenceable(32) %"class.std::__cxx11::basic_string"* @_ZNSt7__cxx1112basic_stringIcSt11char_traitsIcESaIcEEaSERKS4_(%"class.std::__cxx11::basic_string"* %7, %"class.std::__cxx11::basic_string"* dereferenceable(32) %6)
  ret void
}

; Function Attrs: noinline optnone uwtable
define dereferenceable(272) %"class.std::basic_ostream"* @_ZN14social_networklsERSoRKNS_4UserE(%"class.std::basic_ostream"* dereferenceable(272) %0, %"class.social_network::User"* dereferenceable(184) %1) #2 {
  %3 = alloca %"class.std::basic_ostream"*, align 8
  %4 = alloca %"class.social_network::User"*, align 8
  store %"class.std::basic_ostream"* %0, %"class.std::basic_ostream"** %3, align 8
  store %"class.social_network::User"* %1, %"class.social_network::User"** %4, align 8
  %5 = load %"class.social_network::User"*, %"class.social_network::User"** %4, align 8
  %6 = load %"class.std::basic_ostream"*, %"class.std::basic_ostream"** %3, align 8
  %7 = bitcast %"class.social_network::User"* %5 to void (%"class.social_network::User"*, %"class.std::basic_ostream"*)***
  %8 = load void (%"class.social_network::User"*, %"class.std::basic_ostream"*)**, void (%"class.social_network::User"*, %"class.std::basic_ostream"*)*** %7, align 8
  %9 = getelementptr inbounds void (%"class.social_network::User"*, %"class.std::basic_ostream"*)*, void (%"class.social_network::User"*, %"class.std::basic_ostream"*)** %8, i64 4
  %10 = load void (%"class.social_network::User"*, %"class.std::basic_ostream"*)*, void (%"class.social_network::User"*, %"class.std::basic_ostream"*)** %9, align 8
  call void %10(%"class.social_network::User"* %5, %"class.std::basic_ostream"* dereferenceable(272) %6)
  %11 = load %"class.std::basic_ostream"*, %"class.std::basic_ostream"** %3, align 8
  ret %"class.std::basic_ostream"* %11
}

; Function Attrs: noinline optnone uwtable
define i32 @_ZN14social_network4User4readEPN6apache6thrift8protocol9TProtocolE(%"class.social_network::User"* %0, %"class.apache::thrift::protocol::TProtocol"* %1) unnamed_addr #2 align 2 personality i8* bitcast (i32 (...)* @__gxx_personality_v0 to i8*) {
  %3 = alloca %"class.social_network::User"*, align 8
  %4 = alloca %"class.apache::thrift::protocol::TProtocol"*, align 8
  %5 = alloca %"struct.apache::thrift::protocol::TInputRecursionTracker", align 8
  %6 = alloca i32, align 4
  %7 = alloca %"class.std::__cxx11::basic_string", align 8
  %8 = alloca i32, align 4
  %9 = alloca i16, align 2
  %10 = alloca i8*
  %11 = alloca i32
  store %"class.social_network::User"* %0, %"class.social_network::User"** %3, align 8
  store %"class.apache::thrift::protocol::TProtocol"* %1, %"class.apache::thrift::protocol::TProtocol"** %4, align 8
  %12 = load %"class.social_network::User"*, %"class.social_network::User"** %3, align 8
  %13 = load %"class.apache::thrift::protocol::TProtocol"*, %"class.apache::thrift::protocol::TProtocol"** %4, align 8
  call void @_ZN6apache6thrift8protocol22TInputRecursionTrackerC2ERNS1_9TProtocolE(%"struct.apache::thrift::protocol::TInputRecursionTracker"* %5, %"class.apache::thrift::protocol::TProtocol"* dereferenceable(40) %13)
  store i32 0, i32* %6, align 4
  call void @_ZNSt7__cxx1112basic_stringIcSt11char_traitsIcESaIcEEC1Ev(%"class.std::__cxx11::basic_string"* %7) #3
  %14 = load %"class.apache::thrift::protocol::TProtocol"*, %"class.apache::thrift::protocol::TProtocol"** %4, align 8
  %15 = invoke i32 @_ZN6apache6thrift8protocol9TProtocol15readStructBeginERNSt7__cxx1112basic_stringIcSt11char_traitsIcESaIcEEE(%"class.apache::thrift::protocol::TProtocol"* %14, %"class.std::__cxx11::basic_string"* dereferenceable(32) %7)
          to label %16 unwind label %29

16:                                               ; preds = %2
  %17 = load i32, i32* %6, align 4
  %18 = add i32 %17, %15
  store i32 %18, i32* %6, align 4
  br label %19

19:                                               ; preds = %184, %16
  br label %20

20:                                               ; preds = %19
  %21 = load %"class.apache::thrift::protocol::TProtocol"*, %"class.apache::thrift::protocol::TProtocol"** %4, align 8
  %22 = invoke i32 @_ZN6apache6thrift8protocol9TProtocol14readFieldBeginERNSt7__cxx1112basic_stringIcSt11char_traitsIcESaIcEEERNS1_5TTypeERs(%"class.apache::thrift::protocol::TProtocol"* %21, %"class.std::__cxx11::basic_string"* dereferenceable(32) %7, i32* dereferenceable(4) %8, i16* dereferenceable(2) %9)
          to label %23 unwind label %29

23:                                               ; preds = %20
  %24 = load i32, i32* %6, align 4
  %25 = add i32 %24, %22
  store i32 %25, i32* %6, align 4
  %26 = load i32, i32* %8, align 4
  %27 = icmp eq i32 %26, 0
  br i1 %27, label %28, label %33

28:                                               ; preds = %23
  br label %187

29:                                               ; preds = %187, %181, %174, %166, %154, %143, %131, %120, %108, %97, %85, %74, %62, %51, %39, %20, %2
  %30 = landingpad { i8*, i32 }
          cleanup
  %31 = extractvalue { i8*, i32 } %30, 0
  store i8* %31, i8** %10, align 8
  %32 = extractvalue { i8*, i32 } %30, 1
  store i32 %32, i32* %11, align 4
  call void @_ZNSt7__cxx1112basic_stringIcSt11char_traitsIcESaIcEED1Ev(%"class.std::__cxx11::basic_string"* %7) #3
  call void @_ZN6apache6thrift8protocol22TInputRecursionTrackerD2Ev(%"struct.apache::thrift::protocol::TInputRecursionTracker"* %5) #3
  br label %194

33:                                               ; preds = %23
  %34 = load i16, i16* %9, align 2
  %35 = sext i16 %34 to i32
  switch i32 %35, label %174 [
    i32 1, label %36
    i32 2, label %59
    i32 3, label %82
    i32 4, label %105
    i32 5, label %128
    i32 6, label %151
  ]

36:                                               ; preds = %33
  %37 = load i32, i32* %8, align 4
  %38 = icmp eq i32 %37, 10
  br i1 %38, label %39, label %51

39:                                               ; preds = %36
  %40 = load %"class.apache::thrift::protocol::TProtocol"*, %"class.apache::thrift::protocol::TProtocol"** %4, align 8
  %41 = getelementptr inbounds %"class.social_network::User", %"class.social_network::User"* %12, i32 0, i32 1
  %42 = invoke i32 @_ZN6apache6thrift8protocol9TProtocol7readI64ERl(%"class.apache::thrift::protocol::TProtocol"* %40, i64* dereferenceable(8) %41)
          to label %43 unwind label %29

43:                                               ; preds = %39
  %44 = load i32, i32* %6, align 4
  %45 = add i32 %44, %42
  store i32 %45, i32* %6, align 4
  %46 = getelementptr inbounds %"class.social_network::User", %"class.social_network::User"* %12, i32 0, i32 7
  %47 = bitcast %"struct.social_network::_User__isset"* %46 to i8*
  %48 = load i8, i8* %47, align 8
  %49 = and i8 %48, -2
  %50 = or i8 %49, 1
  store i8 %50, i8* %47, align 8
  br label %58

51:                                               ; preds = %36
  %52 = load %"class.apache::thrift::protocol::TProtocol"*, %"class.apache::thrift::protocol::TProtocol"** %4, align 8
  %53 = load i32, i32* %8, align 4
  %54 = invoke i32 @_ZN6apache6thrift8protocol9TProtocol4skipENS1_5TTypeE(%"class.apache::thrift::protocol::TProtocol"* %52, i32 %53)
          to label %55 unwind label %29

55:                                               ; preds = %51
  %56 = load i32, i32* %6, align 4
  %57 = add i32 %56, %54
  store i32 %57, i32* %6, align 4
  br label %58

58:                                               ; preds = %55, %43
  br label %181

59:                                               ; preds = %33
  %60 = load i32, i32* %8, align 4
  %61 = icmp eq i32 %60, 11
  br i1 %61, label %62, label %74

62:                                               ; preds = %59
  %63 = load %"class.apache::thrift::protocol::TProtocol"*, %"class.apache::thrift::protocol::TProtocol"** %4, align 8
  %64 = getelementptr inbounds %"class.social_network::User", %"class.social_network::User"* %12, i32 0, i32 2
  %65 = invoke i32 @_ZN6apache6thrift8protocol9TProtocol10readStringERNSt7__cxx1112basic_stringIcSt11char_traitsIcESaIcEEE(%"class.apache::thrift::protocol::TProtocol"* %63, %"class.std::__cxx11::basic_string"* dereferenceable(32) %64)
          to label %66 unwind label %29

66:                                               ; preds = %62
  %67 = load i32, i32* %6, align 4
  %68 = add i32 %67, %65
  store i32 %68, i32* %6, align 4
  %69 = getelementptr inbounds %"class.social_network::User", %"class.social_network::User"* %12, i32 0, i32 7
  %70 = bitcast %"struct.social_network::_User__isset"* %69 to i8*
  %71 = load i8, i8* %70, align 8
  %72 = and i8 %71, -3
  %73 = or i8 %72, 2
  store i8 %73, i8* %70, align 8
  br label %81

74:                                               ; preds = %59
  %75 = load %"class.apache::thrift::protocol::TProtocol"*, %"class.apache::thrift::protocol::TProtocol"** %4, align 8
  %76 = load i32, i32* %8, align 4
  %77 = invoke i32 @_ZN6apache6thrift8protocol9TProtocol4skipENS1_5TTypeE(%"class.apache::thrift::protocol::TProtocol"* %75, i32 %76)
          to label %78 unwind label %29

78:                                               ; preds = %74
  %79 = load i32, i32* %6, align 4
  %80 = add i32 %79, %77
  store i32 %80, i32* %6, align 4
  br label %81

81:                                               ; preds = %78, %66
  br label %181

82:                                               ; preds = %33
  %83 = load i32, i32* %8, align 4
  %84 = icmp eq i32 %83, 11
  br i1 %84, label %85, label %97

85:                                               ; preds = %82
  %86 = load %"class.apache::thrift::protocol::TProtocol"*, %"class.apache::thrift::protocol::TProtocol"** %4, align 8
  %87 = getelementptr inbounds %"class.social_network::User", %"class.social_network::User"* %12, i32 0, i32 3
  %88 = invoke i32 @_ZN6apache6thrift8protocol9TProtocol10readStringERNSt7__cxx1112basic_stringIcSt11char_traitsIcESaIcEEE(%"class.apache::thrift::protocol::TProtocol"* %86, %"class.std::__cxx11::basic_string"* dereferenceable(32) %87)
          to label %89 unwind label %29

89:                                               ; preds = %85
  %90 = load i32, i32* %6, align 4
  %91 = add i32 %90, %88
  store i32 %91, i32* %6, align 4
  %92 = getelementptr inbounds %"class.social_network::User", %"class.social_network::User"* %12, i32 0, i32 7
  %93 = bitcast %"struct.social_network::_User__isset"* %92 to i8*
  %94 = load i8, i8* %93, align 8
  %95 = and i8 %94, -5
  %96 = or i8 %95, 4
  store i8 %96, i8* %93, align 8
  br label %104

97:                                               ; preds = %82
  %98 = load %"class.apache::thrift::protocol::TProtocol"*, %"class.apache::thrift::protocol::TProtocol"** %4, align 8
  %99 = load i32, i32* %8, align 4
  %100 = invoke i32 @_ZN6apache6thrift8protocol9TProtocol4skipENS1_5TTypeE(%"class.apache::thrift::protocol::TProtocol"* %98, i32 %99)
          to label %101 unwind label %29

101:                                              ; preds = %97
  %102 = load i32, i32* %6, align 4
  %103 = add i32 %102, %100
  store i32 %103, i32* %6, align 4
  br label %104

104:                                              ; preds = %101, %89
  br label %181

105:                                              ; preds = %33
  %106 = load i32, i32* %8, align 4
  %107 = icmp eq i32 %106, 11
  br i1 %107, label %108, label %120

108:                                              ; preds = %105
  %109 = load %"class.apache::thrift::protocol::TProtocol"*, %"class.apache::thrift::protocol::TProtocol"** %4, align 8
  %110 = getelementptr inbounds %"class.social_network::User", %"class.social_network::User"* %12, i32 0, i32 4
  %111 = invoke i32 @_ZN6apache6thrift8protocol9TProtocol10readStringERNSt7__cxx1112basic_stringIcSt11char_traitsIcESaIcEEE(%"class.apache::thrift::protocol::TProtocol"* %109, %"class.std::__cxx11::basic_string"* dereferenceable(32) %110)
          to label %112 unwind label %29

112:                                              ; preds = %108
  %113 = load i32, i32* %6, align 4
  %114 = add i32 %113, %111
  store i32 %114, i32* %6, align 4
  %115 = getelementptr inbounds %"class.social_network::User", %"class.social_network::User"* %12, i32 0, i32 7
  %116 = bitcast %"struct.social_network::_User__isset"* %115 to i8*
  %117 = load i8, i8* %116, align 8
  %118 = and i8 %117, -9
  %119 = or i8 %118, 8
  store i8 %119, i8* %116, align 8
  br label %127

120:                                              ; preds = %105
  %121 = load %"class.apache::thrift::protocol::TProtocol"*, %"class.apache::thrift::protocol::TProtocol"** %4, align 8
  %122 = load i32, i32* %8, align 4
  %123 = invoke i32 @_ZN6apache6thrift8protocol9TProtocol4skipENS1_5TTypeE(%"class.apache::thrift::protocol::TProtocol"* %121, i32 %122)
          to label %124 unwind label %29

124:                                              ; preds = %120
  %125 = load i32, i32* %6, align 4
  %126 = add i32 %125, %123
  store i32 %126, i32* %6, align 4
  br label %127

127:                                              ; preds = %124, %112
  br label %181

128:                                              ; preds = %33
  %129 = load i32, i32* %8, align 4
  %130 = icmp eq i32 %129, 11
  br i1 %130, label %131, label %143

131:                                              ; preds = %128
  %132 = load %"class.apache::thrift::protocol::TProtocol"*, %"class.apache::thrift::protocol::TProtocol"** %4, align 8
  %133 = getelementptr inbounds %"class.social_network::User", %"class.social_network::User"* %12, i32 0, i32 5
  %134 = invoke i32 @_ZN6apache6thrift8protocol9TProtocol10readStringERNSt7__cxx1112basic_stringIcSt11char_traitsIcESaIcEEE(%"class.apache::thrift::protocol::TProtocol"* %132, %"class.std::__cxx11::basic_string"* dereferenceable(32) %133)
          to label %135 unwind label %29

135:                                              ; preds = %131
  %136 = load i32, i32* %6, align 4
  %137 = add i32 %136, %134
  store i32 %137, i32* %6, align 4
  %138 = getelementptr inbounds %"class.social_network::User", %"class.social_network::User"* %12, i32 0, i32 7
  %139 = bitcast %"struct.social_network::_User__isset"* %138 to i8*
  %140 = load i8, i8* %139, align 8
  %141 = and i8 %140, -17
  %142 = or i8 %141, 16
  store i8 %142, i8* %139, align 8
  br label %150

143:                                              ; preds = %128
  %144 = load %"class.apache::thrift::protocol::TProtocol"*, %"class.apache::thrift::protocol::TProtocol"** %4, align 8
  %145 = load i32, i32* %8, align 4
  %146 = invoke i32 @_ZN6apache6thrift8protocol9TProtocol4skipENS1_5TTypeE(%"class.apache::thrift::protocol::TProtocol"* %144, i32 %145)
          to label %147 unwind label %29

147:                                              ; preds = %143
  %148 = load i32, i32* %6, align 4
  %149 = add i32 %148, %146
  store i32 %149, i32* %6, align 4
  br label %150

150:                                              ; preds = %147, %135
  br label %181

151:                                              ; preds = %33
  %152 = load i32, i32* %8, align 4
  %153 = icmp eq i32 %152, 11
  br i1 %153, label %154, label %166

154:                                              ; preds = %151
  %155 = load %"class.apache::thrift::protocol::TProtocol"*, %"class.apache::thrift::protocol::TProtocol"** %4, align 8
  %156 = getelementptr inbounds %"class.social_network::User", %"class.social_network::User"* %12, i32 0, i32 6
  %157 = invoke i32 @_ZN6apache6thrift8protocol9TProtocol10readStringERNSt7__cxx1112basic_stringIcSt11char_traitsIcESaIcEEE(%"class.apache::thrift::protocol::TProtocol"* %155, %"class.std::__cxx11::basic_string"* dereferenceable(32) %156)
          to label %158 unwind label %29

158:                                              ; preds = %154
  %159 = load i32, i32* %6, align 4
  %160 = add i32 %159, %157
  store i32 %160, i32* %6, align 4
  %161 = getelementptr inbounds %"class.social_network::User", %"class.social_network::User"* %12, i32 0, i32 7
  %162 = bitcast %"struct.social_network::_User__isset"* %161 to i8*
  %163 = load i8, i8* %162, align 8
  %164 = and i8 %163, -33
  %165 = or i8 %164, 32
  store i8 %165, i8* %162, align 8
  br label %173

166:                                              ; preds = %151
  %167 = load %"class.apache::thrift::protocol::TProtocol"*, %"class.apache::thrift::protocol::TProtocol"** %4, align 8
  %168 = load i32, i32* %8, align 4
  %169 = invoke i32 @_ZN6apache6thrift8protocol9TProtocol4skipENS1_5TTypeE(%"class.apache::thrift::protocol::TProtocol"* %167, i32 %168)
          to label %170 unwind label %29

170:                                              ; preds = %166
  %171 = load i32, i32* %6, align 4
  %172 = add i32 %171, %169
  store i32 %172, i32* %6, align 4
  br label %173

173:                                              ; preds = %170, %158
  br label %181

174:                                              ; preds = %33
  %175 = load %"class.apache::thrift::protocol::TProtocol"*, %"class.apache::thrift::protocol::TProtocol"** %4, align 8
  %176 = load i32, i32* %8, align 4
  %177 = invoke i32 @_ZN6apache6thrift8protocol9TProtocol4skipENS1_5TTypeE(%"class.apache::thrift::protocol::TProtocol"* %175, i32 %176)
          to label %178 unwind label %29

178:                                              ; preds = %174
  %179 = load i32, i32* %6, align 4
  %180 = add i32 %179, %177
  store i32 %180, i32* %6, align 4
  br label %181

181:                                              ; preds = %178, %173, %150, %127, %104, %81, %58
  %182 = load %"class.apache::thrift::protocol::TProtocol"*, %"class.apache::thrift::protocol::TProtocol"** %4, align 8
  %183 = invoke i32 @_ZN6apache6thrift8protocol9TProtocol12readFieldEndEv(%"class.apache::thrift::protocol::TProtocol"* %182)
          to label %184 unwind label %29

184:                                              ; preds = %181
  %185 = load i32, i32* %6, align 4
  %186 = add i32 %185, %183
  store i32 %186, i32* %6, align 4
  br label %19

187:                                              ; preds = %28
  %188 = load %"class.apache::thrift::protocol::TProtocol"*, %"class.apache::thrift::protocol::TProtocol"** %4, align 8
  %189 = invoke i32 @_ZN6apache6thrift8protocol9TProtocol13readStructEndEv(%"class.apache::thrift::protocol::TProtocol"* %188)
          to label %190 unwind label %29

190:                                              ; preds = %187
  %191 = load i32, i32* %6, align 4
  %192 = add i32 %191, %189
  store i32 %192, i32* %6, align 4
  %193 = load i32, i32* %6, align 4
  call void @_ZNSt7__cxx1112basic_stringIcSt11char_traitsIcESaIcEED1Ev(%"class.std::__cxx11::basic_string"* %7) #3
  call void @_ZN6apache6thrift8protocol22TInputRecursionTrackerD2Ev(%"struct.apache::thrift::protocol::TInputRecursionTracker"* %5) #3
  ret i32 %193

194:                                              ; preds = %29
  %195 = load i8*, i8** %10, align 8
  %196 = load i32, i32* %11, align 4
  %197 = insertvalue { i8*, i32 } undef, i8* %195, 0
  %198 = insertvalue { i8*, i32 } %197, i32 %196, 1
  resume { i8*, i32 } %198
}

; Function Attrs: noinline optnone uwtable
define linkonce_odr void @_ZN6apache6thrift8protocol22TInputRecursionTrackerC2ERNS1_9TProtocolE(%"struct.apache::thrift::protocol::TInputRecursionTracker"* %0, %"class.apache::thrift::protocol::TProtocol"* dereferenceable(40) %1) unnamed_addr #2 comdat align 2 {
  %3 = alloca %"struct.apache::thrift::protocol::TInputRecursionTracker"*, align 8
  %4 = alloca %"class.apache::thrift::protocol::TProtocol"*, align 8
  store %"struct.apache::thrift::protocol::TInputRecursionTracker"* %0, %"struct.apache::thrift::protocol::TInputRecursionTracker"** %3, align 8
  store %"class.apache::thrift::protocol::TProtocol"* %1, %"class.apache::thrift::protocol::TProtocol"** %4, align 8
  %5 = load %"struct.apache::thrift::protocol::TInputRecursionTracker"*, %"struct.apache::thrift::protocol::TInputRecursionTracker"** %3, align 8
  %6 = getelementptr inbounds %"struct.apache::thrift::protocol::TInputRecursionTracker", %"struct.apache::thrift::protocol::TInputRecursionTracker"* %5, i32 0, i32 0
  %7 = load %"class.apache::thrift::protocol::TProtocol"*, %"class.apache::thrift::protocol::TProtocol"** %4, align 8
  store %"class.apache::thrift::protocol::TProtocol"* %7, %"class.apache::thrift::protocol::TProtocol"** %6, align 8
  %8 = getelementptr inbounds %"struct.apache::thrift::protocol::TInputRecursionTracker", %"struct.apache::thrift::protocol::TInputRecursionTracker"* %5, i32 0, i32 0
  %9 = load %"class.apache::thrift::protocol::TProtocol"*, %"class.apache::thrift::protocol::TProtocol"** %8, align 8
  call void @_ZN6apache6thrift8protocol9TProtocol28incrementInputRecursionDepthEv(%"class.apache::thrift::protocol::TProtocol"* %9)
  ret void
}

; Function Attrs: nounwind
declare void @_ZNSt7__cxx1112basic_stringIcSt11char_traitsIcESaIcEEC1Ev(%"class.std::__cxx11::basic_string"*) unnamed_addr #5

; Function Attrs: noinline optnone uwtable
define linkonce_odr i32 @_ZN6apache6thrift8protocol9TProtocol15readStructBeginERNSt7__cxx1112basic_stringIcSt11char_traitsIcESaIcEEE(%"class.apache::thrift::protocol::TProtocol"* %0, %"class.std::__cxx11::basic_string"* dereferenceable(32) %1) #2 comdat align 2 {
  %3 = alloca %"class.apache::thrift::protocol::TProtocol"*, align 8
  %4 = alloca %"class.std::__cxx11::basic_string"*, align 8
  store %"class.apache::thrift::protocol::TProtocol"* %0, %"class.apache::thrift::protocol::TProtocol"** %3, align 8
  store %"class.std::__cxx11::basic_string"* %1, %"class.std::__cxx11::basic_string"** %4, align 8
  %5 = load %"class.apache::thrift::protocol::TProtocol"*, %"class.apache::thrift::protocol::TProtocol"** %3, align 8
  %6 = load %"class.std::__cxx11::basic_string"*, %"class.std::__cxx11::basic_string"** %4, align 8
  %7 = bitcast %"class.apache::thrift::protocol::TProtocol"* %5 to i32 (%"class.apache::thrift::protocol::TProtocol"*, %"class.std::__cxx11::basic_string"*)***
  %8 = load i32 (%"class.apache::thrift::protocol::TProtocol"*, %"class.std::__cxx11::basic_string"*)**, i32 (%"class.apache::thrift::protocol::TProtocol"*, %"class.std::__cxx11::basic_string"*)*** %7, align 8
  %9 = getelementptr inbounds i32 (%"class.apache::thrift::protocol::TProtocol"*, %"class.std::__cxx11::basic_string"*)*, i32 (%"class.apache::thrift::protocol::TProtocol"*, %"class.std::__cxx11::basic_string"*)** %8, i64 25
  %10 = load i32 (%"class.apache::thrift::protocol::TProtocol"*, %"class.std::__cxx11::basic_string"*)*, i32 (%"class.apache::thrift::protocol::TProtocol"*, %"class.std::__cxx11::basic_string"*)** %9, align 8
  %11 = call i32 %10(%"class.apache::thrift::protocol::TProtocol"* %5, %"class.std::__cxx11::basic_string"* dereferenceable(32) %6)
  ret i32 %11
}

declare i32 @__gxx_personality_v0(...)

; Function Attrs: noinline optnone uwtable
define linkonce_odr i32 @_ZN6apache6thrift8protocol9TProtocol14readFieldBeginERNSt7__cxx1112basic_stringIcSt11char_traitsIcESaIcEEERNS1_5TTypeERs(%"class.apache::thrift::protocol::TProtocol"* %0, %"class.std::__cxx11::basic_string"* dereferenceable(32) %1, i32* dereferenceable(4) %2, i16* dereferenceable(2) %3) #2 comdat align 2 {
  %5 = alloca %"class.apache::thrift::protocol::TProtocol"*, align 8
  %6 = alloca %"class.std::__cxx11::basic_string"*, align 8
  %7 = alloca i32*, align 8
  %8 = alloca i16*, align 8
  store %"class.apache::thrift::protocol::TProtocol"* %0, %"class.apache::thrift::protocol::TProtocol"** %5, align 8
  store %"class.std::__cxx11::basic_string"* %1, %"class.std::__cxx11::basic_string"** %6, align 8
  store i32* %2, i32** %7, align 8
  store i16* %3, i16** %8, align 8
  %9 = load %"class.apache::thrift::protocol::TProtocol"*, %"class.apache::thrift::protocol::TProtocol"** %5, align 8
  %10 = load %"class.std::__cxx11::basic_string"*, %"class.std::__cxx11::basic_string"** %6, align 8
  %11 = load i32*, i32** %7, align 8
  %12 = load i16*, i16** %8, align 8
  %13 = bitcast %"class.apache::thrift::protocol::TProtocol"* %9 to i32 (%"class.apache::thrift::protocol::TProtocol"*, %"class.std::__cxx11::basic_string"*, i32*, i16*)***
  %14 = load i32 (%"class.apache::thrift::protocol::TProtocol"*, %"class.std::__cxx11::basic_string"*, i32*, i16*)**, i32 (%"class.apache::thrift::protocol::TProtocol"*, %"class.std::__cxx11::basic_string"*, i32*, i16*)*** %13, align 8
  %15 = getelementptr inbounds i32 (%"class.apache::thrift::protocol::TProtocol"*, %"class.std::__cxx11::basic_string"*, i32*, i16*)*, i32 (%"class.apache::thrift::protocol::TProtocol"*, %"class.std::__cxx11::basic_string"*, i32*, i16*)** %14, i64 27
  %16 = load i32 (%"class.apache::thrift::protocol::TProtocol"*, %"class.std::__cxx11::basic_string"*, i32*, i16*)*, i32 (%"class.apache::thrift::protocol::TProtocol"*, %"class.std::__cxx11::basic_string"*, i32*, i16*)** %15, align 8
  %17 = call i32 %16(%"class.apache::thrift::protocol::TProtocol"* %9, %"class.std::__cxx11::basic_string"* dereferenceable(32) %10, i32* dereferenceable(4) %11, i16* dereferenceable(2) %12)
  ret i32 %17
}

; Function Attrs: noinline optnone uwtable
define linkonce_odr i32 @_ZN6apache6thrift8protocol9TProtocol7readI64ERl(%"class.apache::thrift::protocol::TProtocol"* %0, i64* dereferenceable(8) %1) #2 comdat align 2 {
  %3 = alloca %"class.apache::thrift::protocol::TProtocol"*, align 8
  %4 = alloca i64*, align 8
  store %"class.apache::thrift::protocol::TProtocol"* %0, %"class.apache::thrift::protocol::TProtocol"** %3, align 8
  store i64* %1, i64** %4, align 8
  %5 = load %"class.apache::thrift::protocol::TProtocol"*, %"class.apache::thrift::protocol::TProtocol"** %3, align 8
  %6 = load i64*, i64** %4, align 8
  %7 = bitcast %"class.apache::thrift::protocol::TProtocol"* %5 to i32 (%"class.apache::thrift::protocol::TProtocol"*, i64*)***
  %8 = load i32 (%"class.apache::thrift::protocol::TProtocol"*, i64*)**, i32 (%"class.apache::thrift::protocol::TProtocol"*, i64*)*** %7, align 8
  %9 = getelementptr inbounds i32 (%"class.apache::thrift::protocol::TProtocol"*, i64*)*, i32 (%"class.apache::thrift::protocol::TProtocol"*, i64*)** %8, i64 40
  %10 = load i32 (%"class.apache::thrift::protocol::TProtocol"*, i64*)*, i32 (%"class.apache::thrift::protocol::TProtocol"*, i64*)** %9, align 8
  %11 = call i32 %10(%"class.apache::thrift::protocol::TProtocol"* %5, i64* dereferenceable(8) %6)
  ret i32 %11
}

; Function Attrs: noinline optnone uwtable
define linkonce_odr i32 @_ZN6apache6thrift8protocol9TProtocol4skipENS1_5TTypeE(%"class.apache::thrift::protocol::TProtocol"* %0, i32 %1) #2 comdat align 2 {
  %3 = alloca %"class.apache::thrift::protocol::TProtocol"*, align 8
  %4 = alloca i32, align 4
  store %"class.apache::thrift::protocol::TProtocol"* %0, %"class.apache::thrift::protocol::TProtocol"** %3, align 8
  store i32 %1, i32* %4, align 4
  %5 = load %"class.apache::thrift::protocol::TProtocol"*, %"class.apache::thrift::protocol::TProtocol"** %3, align 8
  %6 = load i32, i32* %4, align 4
  %7 = bitcast %"class.apache::thrift::protocol::TProtocol"* %5 to i32 (%"class.apache::thrift::protocol::TProtocol"*, i32)***
  %8 = load i32 (%"class.apache::thrift::protocol::TProtocol"*, i32)**, i32 (%"class.apache::thrift::protocol::TProtocol"*, i32)*** %7, align 8
  %9 = getelementptr inbounds i32 (%"class.apache::thrift::protocol::TProtocol"*, i32)*, i32 (%"class.apache::thrift::protocol::TProtocol"*, i32)** %8, i64 44
  %10 = load i32 (%"class.apache::thrift::protocol::TProtocol"*, i32)*, i32 (%"class.apache::thrift::protocol::TProtocol"*, i32)** %9, align 8
  %11 = call i32 %10(%"class.apache::thrift::protocol::TProtocol"* %5, i32 %6)
  ret i32 %11
}

; Function Attrs: noinline optnone uwtable
define linkonce_odr i32 @_ZN6apache6thrift8protocol9TProtocol10readStringERNSt7__cxx1112basic_stringIcSt11char_traitsIcESaIcEEE(%"class.apache::thrift::protocol::TProtocol"* %0, %"class.std::__cxx11::basic_string"* dereferenceable(32) %1) #2 comdat align 2 {
  %3 = alloca %"class.apache::thrift::protocol::TProtocol"*, align 8
  %4 = alloca %"class.std::__cxx11::basic_string"*, align 8
  store %"class.apache::thrift::protocol::TProtocol"* %0, %"class.apache::thrift::protocol::TProtocol"** %3, align 8
  store %"class.std::__cxx11::basic_string"* %1, %"class.std::__cxx11::basic_string"** %4, align 8
  %5 = load %"class.apache::thrift::protocol::TProtocol"*, %"class.apache::thrift::protocol::TProtocol"** %3, align 8
  %6 = load %"class.std::__cxx11::basic_string"*, %"class.std::__cxx11::basic_string"** %4, align 8
  %7 = bitcast %"class.apache::thrift::protocol::TProtocol"* %5 to i32 (%"class.apache::thrift::protocol::TProtocol"*, %"class.std::__cxx11::basic_string"*)***
  %8 = load i32 (%"class.apache::thrift::protocol::TProtocol"*, %"class.std::__cxx11::basic_string"*)**, i32 (%"class.apache::thrift::protocol::TProtocol"*, %"class.std::__cxx11::basic_string"*)*** %7, align 8
  %9 = getelementptr inbounds i32 (%"class.apache::thrift::protocol::TProtocol"*, %"class.std::__cxx11::basic_string"*)*, i32 (%"class.apache::thrift::protocol::TProtocol"*, %"class.std::__cxx11::basic_string"*)** %8, i64 42
  %10 = load i32 (%"class.apache::thrift::protocol::TProtocol"*, %"class.std::__cxx11::basic_string"*)*, i32 (%"class.apache::thrift::protocol::TProtocol"*, %"class.std::__cxx11::basic_string"*)** %9, align 8
  %11 = call i32 %10(%"class.apache::thrift::protocol::TProtocol"* %5, %"class.std::__cxx11::basic_string"* dereferenceable(32) %6)
  ret i32 %11
}

; Function Attrs: noinline optnone uwtable
define linkonce_odr i32 @_ZN6apache6thrift8protocol9TProtocol12readFieldEndEv(%"class.apache::thrift::protocol::TProtocol"* %0) #2 comdat align 2 {
  %2 = alloca %"class.apache::thrift::protocol::TProtocol"*, align 8
  store %"class.apache::thrift::protocol::TProtocol"* %0, %"class.apache::thrift::protocol::TProtocol"** %2, align 8
  %3 = load %"class.apache::thrift::protocol::TProtocol"*, %"class.apache::thrift::protocol::TProtocol"** %2, align 8
  %4 = bitcast %"class.apache::thrift::protocol::TProtocol"* %3 to i32 (%"class.apache::thrift::protocol::TProtocol"*)***
  %5 = load i32 (%"class.apache::thrift::protocol::TProtocol"*)**, i32 (%"class.apache::thrift::protocol::TProtocol"*)*** %4, align 8
  %6 = getelementptr inbounds i32 (%"class.apache::thrift::protocol::TProtocol"*)*, i32 (%"class.apache::thrift::protocol::TProtocol"*)** %5, i64 28
  %7 = load i32 (%"class.apache::thrift::protocol::TProtocol"*)*, i32 (%"class.apache::thrift::protocol::TProtocol"*)** %6, align 8
  %8 = call i32 %7(%"class.apache::thrift::protocol::TProtocol"* %3)
  ret i32 %8
}

; Function Attrs: noinline optnone uwtable
define linkonce_odr i32 @_ZN6apache6thrift8protocol9TProtocol13readStructEndEv(%"class.apache::thrift::protocol::TProtocol"* %0) #2 comdat align 2 {
  %2 = alloca %"class.apache::thrift::protocol::TProtocol"*, align 8
  store %"class.apache::thrift::protocol::TProtocol"* %0, %"class.apache::thrift::protocol::TProtocol"** %2, align 8
  %3 = load %"class.apache::thrift::protocol::TProtocol"*, %"class.apache::thrift::protocol::TProtocol"** %2, align 8
  %4 = bitcast %"class.apache::thrift::protocol::TProtocol"* %3 to i32 (%"class.apache::thrift::protocol::TProtocol"*)***
  %5 = load i32 (%"class.apache::thrift::protocol::TProtocol"*)**, i32 (%"class.apache::thrift::protocol::TProtocol"*)*** %4, align 8
  %6 = getelementptr inbounds i32 (%"class.apache::thrift::protocol::TProtocol"*)*, i32 (%"class.apache::thrift::protocol::TProtocol"*)** %5, i64 26
  %7 = load i32 (%"class.apache::thrift::protocol::TProtocol"*)*, i32 (%"class.apache::thrift::protocol::TProtocol"*)** %6, align 8
  %8 = call i32 %7(%"class.apache::thrift::protocol::TProtocol"* %3)
  ret i32 %8
}

; Function Attrs: noinline nounwind optnone uwtable
define linkonce_odr void @_ZN6apache6thrift8protocol22TInputRecursionTrackerD2Ev(%"struct.apache::thrift::protocol::TInputRecursionTracker"* %0) unnamed_addr #1 comdat align 2 personality i8* bitcast (i32 (...)* @__gxx_personality_v0 to i8*) {
  %2 = alloca %"struct.apache::thrift::protocol::TInputRecursionTracker"*, align 8
  store %"struct.apache::thrift::protocol::TInputRecursionTracker"* %0, %"struct.apache::thrift::protocol::TInputRecursionTracker"** %2, align 8
  %3 = load %"struct.apache::thrift::protocol::TInputRecursionTracker"*, %"struct.apache::thrift::protocol::TInputRecursionTracker"** %2, align 8
  %4 = getelementptr inbounds %"struct.apache::thrift::protocol::TInputRecursionTracker", %"struct.apache::thrift::protocol::TInputRecursionTracker"* %3, i32 0, i32 0
  %5 = load %"class.apache::thrift::protocol::TProtocol"*, %"class.apache::thrift::protocol::TProtocol"** %4, align 8
  invoke void @_ZN6apache6thrift8protocol9TProtocol28decrementInputRecursionDepthEv(%"class.apache::thrift::protocol::TProtocol"* %5)
          to label %6 unwind label %7

6:                                                ; preds = %1
  ret void

7:                                                ; preds = %1
  %8 = landingpad { i8*, i32 }
          catch i8* null
  %9 = extractvalue { i8*, i32 } %8, 0
  call void @__clang_call_terminate(i8* %9) #15
  unreachable
}

; Function Attrs: noinline optnone uwtable
define i32 @_ZTv0_n32_N14social_network4User4readEPN6apache6thrift8protocol9TProtocolE(%"class.social_network::User"* %0, %"class.apache::thrift::protocol::TProtocol"* %1) unnamed_addr #2 align 2 {
  %3 = alloca %"class.social_network::User"*, align 8
  %4 = alloca %"class.apache::thrift::protocol::TProtocol"*, align 8
  store %"class.social_network::User"* %0, %"class.social_network::User"** %3, align 8
  store %"class.apache::thrift::protocol::TProtocol"* %1, %"class.apache::thrift::protocol::TProtocol"** %4, align 8
  %5 = load %"class.social_network::User"*, %"class.social_network::User"** %3, align 8
  %6 = bitcast %"class.social_network::User"* %5 to i8*
  %7 = bitcast i8* %6 to i8**
  %8 = load i8*, i8** %7, align 8
  %9 = getelementptr inbounds i8, i8* %8, i64 -32
  %10 = bitcast i8* %9 to i64*
  %11 = load i64, i64* %10, align 8
  %12 = getelementptr inbounds i8, i8* %6, i64 %11
  %13 = bitcast i8* %12 to %"class.social_network::User"*
  %14 = load %"class.apache::thrift::protocol::TProtocol"*, %"class.apache::thrift::protocol::TProtocol"** %4, align 8
  %15 = tail call i32 @_ZN14social_network4User4readEPN6apache6thrift8protocol9TProtocolE(%"class.social_network::User"* %13, %"class.apache::thrift::protocol::TProtocol"* %14)
  ret i32 %15
}

; Function Attrs: noinline optnone uwtable
define i32 @_ZNK14social_network4User5writeEPN6apache6thrift8protocol9TProtocolE(%"class.social_network::User"* %0, %"class.apache::thrift::protocol::TProtocol"* %1) unnamed_addr #2 align 2 personality i8* bitcast (i32 (...)* @__gxx_personality_v0 to i8*) {
  %3 = alloca %"class.social_network::User"*, align 8
  %4 = alloca %"class.apache::thrift::protocol::TProtocol"*, align 8
  %5 = alloca i32, align 4
  %6 = alloca %"struct.apache::thrift::protocol::TOutputRecursionTracker", align 8
  %7 = alloca i8*
  %8 = alloca i32
  store %"class.social_network::User"* %0, %"class.social_network::User"** %3, align 8
  store %"class.apache::thrift::protocol::TProtocol"* %1, %"class.apache::thrift::protocol::TProtocol"** %4, align 8
  %9 = load %"class.social_network::User"*, %"class.social_network::User"** %3, align 8
  store i32 0, i32* %5, align 4
  %10 = load %"class.apache::thrift::protocol::TProtocol"*, %"class.apache::thrift::protocol::TProtocol"** %4, align 8
  call void @_ZN6apache6thrift8protocol23TOutputRecursionTrackerC2ERNS1_9TProtocolE(%"struct.apache::thrift::protocol::TOutputRecursionTracker"* %6, %"class.apache::thrift::protocol::TProtocol"* dereferenceable(40) %10)
  %11 = load %"class.apache::thrift::protocol::TProtocol"*, %"class.apache::thrift::protocol::TProtocol"** %4, align 8
  %12 = invoke i32 @_ZN6apache6thrift8protocol9TProtocol16writeStructBeginEPKc(%"class.apache::thrift::protocol::TProtocol"* %11, i8* getelementptr inbounds ([5 x i8], [5 x i8]* @.str.13, i64 0, i64 0))
          to label %13 unwind label %124

13:                                               ; preds = %2
  %14 = load i32, i32* %5, align 4
  %15 = add i32 %14, %12
  store i32 %15, i32* %5, align 4
  %16 = load %"class.apache::thrift::protocol::TProtocol"*, %"class.apache::thrift::protocol::TProtocol"** %4, align 8
  %17 = invoke i32 @_ZN6apache6thrift8protocol9TProtocol15writeFieldBeginEPKcNS1_5TTypeEs(%"class.apache::thrift::protocol::TProtocol"* %16, i8* getelementptr inbounds ([8 x i8], [8 x i8]* @.str.14, i64 0, i64 0), i32 10, i16 signext 1)
          to label %18 unwind label %124

18:                                               ; preds = %13
  %19 = load i32, i32* %5, align 4
  %20 = add i32 %19, %17
  store i32 %20, i32* %5, align 4
  %21 = load %"class.apache::thrift::protocol::TProtocol"*, %"class.apache::thrift::protocol::TProtocol"** %4, align 8
  %22 = getelementptr inbounds %"class.social_network::User", %"class.social_network::User"* %9, i32 0, i32 1
  %23 = load i64, i64* %22, align 8
  %24 = invoke i32 @_ZN6apache6thrift8protocol9TProtocol8writeI64El(%"class.apache::thrift::protocol::TProtocol"* %21, i64 %23)
          to label %25 unwind label %124

25:                                               ; preds = %18
  %26 = load i32, i32* %5, align 4
  %27 = add i32 %26, %24
  store i32 %27, i32* %5, align 4
  %28 = load %"class.apache::thrift::protocol::TProtocol"*, %"class.apache::thrift::protocol::TProtocol"** %4, align 8
  %29 = invoke i32 @_ZN6apache6thrift8protocol9TProtocol13writeFieldEndEv(%"class.apache::thrift::protocol::TProtocol"* %28)
          to label %30 unwind label %124

30:                                               ; preds = %25
  %31 = load i32, i32* %5, align 4
  %32 = add i32 %31, %29
  store i32 %32, i32* %5, align 4
  %33 = load %"class.apache::thrift::protocol::TProtocol"*, %"class.apache::thrift::protocol::TProtocol"** %4, align 8
  %34 = invoke i32 @_ZN6apache6thrift8protocol9TProtocol15writeFieldBeginEPKcNS1_5TTypeEs(%"class.apache::thrift::protocol::TProtocol"* %33, i8* getelementptr inbounds ([11 x i8], [11 x i8]* @.str.15, i64 0, i64 0), i32 11, i16 signext 2)
          to label %35 unwind label %124

35:                                               ; preds = %30
  %36 = load i32, i32* %5, align 4
  %37 = add i32 %36, %34
  store i32 %37, i32* %5, align 4
  %38 = load %"class.apache::thrift::protocol::TProtocol"*, %"class.apache::thrift::protocol::TProtocol"** %4, align 8
  %39 = getelementptr inbounds %"class.social_network::User", %"class.social_network::User"* %9, i32 0, i32 2
  %40 = invoke i32 @_ZN6apache6thrift8protocol9TProtocol11writeStringERKNSt7__cxx1112basic_stringIcSt11char_traitsIcESaIcEEE(%"class.apache::thrift::protocol::TProtocol"* %38, %"class.std::__cxx11::basic_string"* dereferenceable(32) %39)
          to label %41 unwind label %124

41:                                               ; preds = %35
  %42 = load i32, i32* %5, align 4
  %43 = add i32 %42, %40
  store i32 %43, i32* %5, align 4
  %44 = load %"class.apache::thrift::protocol::TProtocol"*, %"class.apache::thrift::protocol::TProtocol"** %4, align 8
  %45 = invoke i32 @_ZN6apache6thrift8protocol9TProtocol13writeFieldEndEv(%"class.apache::thrift::protocol::TProtocol"* %44)
          to label %46 unwind label %124

46:                                               ; preds = %41
  %47 = load i32, i32* %5, align 4
  %48 = add i32 %47, %45
  store i32 %48, i32* %5, align 4
  %49 = load %"class.apache::thrift::protocol::TProtocol"*, %"class.apache::thrift::protocol::TProtocol"** %4, align 8
  %50 = invoke i32 @_ZN6apache6thrift8protocol9TProtocol15writeFieldBeginEPKcNS1_5TTypeEs(%"class.apache::thrift::protocol::TProtocol"* %49, i8* getelementptr inbounds ([10 x i8], [10 x i8]* @.str.16, i64 0, i64 0), i32 11, i16 signext 3)
          to label %51 unwind label %124

51:                                               ; preds = %46
  %52 = load i32, i32* %5, align 4
  %53 = add i32 %52, %50
  store i32 %53, i32* %5, align 4
  %54 = load %"class.apache::thrift::protocol::TProtocol"*, %"class.apache::thrift::protocol::TProtocol"** %4, align 8
  %55 = getelementptr inbounds %"class.social_network::User", %"class.social_network::User"* %9, i32 0, i32 3
  %56 = invoke i32 @_ZN6apache6thrift8protocol9TProtocol11writeStringERKNSt7__cxx1112basic_stringIcSt11char_traitsIcESaIcEEE(%"class.apache::thrift::protocol::TProtocol"* %54, %"class.std::__cxx11::basic_string"* dereferenceable(32) %55)
          to label %57 unwind label %124

57:                                               ; preds = %51
  %58 = load i32, i32* %5, align 4
  %59 = add i32 %58, %56
  store i32 %59, i32* %5, align 4
  %60 = load %"class.apache::thrift::protocol::TProtocol"*, %"class.apache::thrift::protocol::TProtocol"** %4, align 8
  %61 = invoke i32 @_ZN6apache6thrift8protocol9TProtocol13writeFieldEndEv(%"class.apache::thrift::protocol::TProtocol"* %60)
          to label %62 unwind label %124

62:                                               ; preds = %57
  %63 = load i32, i32* %5, align 4
  %64 = add i32 %63, %61
  store i32 %64, i32* %5, align 4
  %65 = load %"class.apache::thrift::protocol::TProtocol"*, %"class.apache::thrift::protocol::TProtocol"** %4, align 8
  %66 = invoke i32 @_ZN6apache6thrift8protocol9TProtocol15writeFieldBeginEPKcNS1_5TTypeEs(%"class.apache::thrift::protocol::TProtocol"* %65, i8* getelementptr inbounds ([9 x i8], [9 x i8]* @.str.17, i64 0, i64 0), i32 11, i16 signext 4)
          to label %67 unwind label %124

67:                                               ; preds = %62
  %68 = load i32, i32* %5, align 4
  %69 = add i32 %68, %66
  store i32 %69, i32* %5, align 4
  %70 = load %"class.apache::thrift::protocol::TProtocol"*, %"class.apache::thrift::protocol::TProtocol"** %4, align 8
  %71 = getelementptr inbounds %"class.social_network::User", %"class.social_network::User"* %9, i32 0, i32 4
  %72 = invoke i32 @_ZN6apache6thrift8protocol9TProtocol11writeStringERKNSt7__cxx1112basic_stringIcSt11char_traitsIcESaIcEEE(%"class.apache::thrift::protocol::TProtocol"* %70, %"class.std::__cxx11::basic_string"* dereferenceable(32) %71)
          to label %73 unwind label %124

73:                                               ; preds = %67
  %74 = load i32, i32* %5, align 4
  %75 = add i32 %74, %72
  store i32 %75, i32* %5, align 4
  %76 = load %"class.apache::thrift::protocol::TProtocol"*, %"class.apache::thrift::protocol::TProtocol"** %4, align 8
  %77 = invoke i32 @_ZN6apache6thrift8protocol9TProtocol13writeFieldEndEv(%"class.apache::thrift::protocol::TProtocol"* %76)
          to label %78 unwind label %124

78:                                               ; preds = %73
  %79 = load i32, i32* %5, align 4
  %80 = add i32 %79, %77
  store i32 %80, i32* %5, align 4
  %81 = load %"class.apache::thrift::protocol::TProtocol"*, %"class.apache::thrift::protocol::TProtocol"** %4, align 8
  %82 = invoke i32 @_ZN6apache6thrift8protocol9TProtocol15writeFieldBeginEPKcNS1_5TTypeEs(%"class.apache::thrift::protocol::TProtocol"* %81, i8* getelementptr inbounds ([16 x i8], [16 x i8]* @.str.18, i64 0, i64 0), i32 11, i16 signext 5)
          to label %83 unwind label %124

83:                                               ; preds = %78
  %84 = load i32, i32* %5, align 4
  %85 = add i32 %84, %82
  store i32 %85, i32* %5, align 4
  %86 = load %"class.apache::thrift::protocol::TProtocol"*, %"class.apache::thrift::protocol::TProtocol"** %4, align 8
  %87 = getelementptr inbounds %"class.social_network::User", %"class.social_network::User"* %9, i32 0, i32 5
  %88 = invoke i32 @_ZN6apache6thrift8protocol9TProtocol11writeStringERKNSt7__cxx1112basic_stringIcSt11char_traitsIcESaIcEEE(%"class.apache::thrift::protocol::TProtocol"* %86, %"class.std::__cxx11::basic_string"* dereferenceable(32) %87)
          to label %89 unwind label %124

89:                                               ; preds = %83
  %90 = load i32, i32* %5, align 4
  %91 = add i32 %90, %88
  store i32 %91, i32* %5, align 4
  %92 = load %"class.apache::thrift::protocol::TProtocol"*, %"class.apache::thrift::protocol::TProtocol"** %4, align 8
  %93 = invoke i32 @_ZN6apache6thrift8protocol9TProtocol13writeFieldEndEv(%"class.apache::thrift::protocol::TProtocol"* %92)
          to label %94 unwind label %124

94:                                               ; preds = %89
  %95 = load i32, i32* %5, align 4
  %96 = add i32 %95, %93
  store i32 %96, i32* %5, align 4
  %97 = load %"class.apache::thrift::protocol::TProtocol"*, %"class.apache::thrift::protocol::TProtocol"** %4, align 8
  %98 = invoke i32 @_ZN6apache6thrift8protocol9TProtocol15writeFieldBeginEPKcNS1_5TTypeEs(%"class.apache::thrift::protocol::TProtocol"* %97, i8* getelementptr inbounds ([5 x i8], [5 x i8]* @.str.19, i64 0, i64 0), i32 11, i16 signext 6)
          to label %99 unwind label %124

99:                                               ; preds = %94
  %100 = load i32, i32* %5, align 4
  %101 = add i32 %100, %98
  store i32 %101, i32* %5, align 4
  %102 = load %"class.apache::thrift::protocol::TProtocol"*, %"class.apache::thrift::protocol::TProtocol"** %4, align 8
  %103 = getelementptr inbounds %"class.social_network::User", %"class.social_network::User"* %9, i32 0, i32 6
  %104 = invoke i32 @_ZN6apache6thrift8protocol9TProtocol11writeStringERKNSt7__cxx1112basic_stringIcSt11char_traitsIcESaIcEEE(%"class.apache::thrift::protocol::TProtocol"* %102, %"class.std::__cxx11::basic_string"* dereferenceable(32) %103)
          to label %105 unwind label %124

105:                                              ; preds = %99
  %106 = load i32, i32* %5, align 4
  %107 = add i32 %106, %104
  store i32 %107, i32* %5, align 4
  %108 = load %"class.apache::thrift::protocol::TProtocol"*, %"class.apache::thrift::protocol::TProtocol"** %4, align 8
  %109 = invoke i32 @_ZN6apache6thrift8protocol9TProtocol13writeFieldEndEv(%"class.apache::thrift::protocol::TProtocol"* %108)
          to label %110 unwind label %124

110:                                              ; preds = %105
  %111 = load i32, i32* %5, align 4
  %112 = add i32 %111, %109
  store i32 %112, i32* %5, align 4
  %113 = load %"class.apache::thrift::protocol::TProtocol"*, %"class.apache::thrift::protocol::TProtocol"** %4, align 8
  %114 = invoke i32 @_ZN6apache6thrift8protocol9TProtocol14writeFieldStopEv(%"class.apache::thrift::protocol::TProtocol"* %113)
          to label %115 unwind label %124

115:                                              ; preds = %110
  %116 = load i32, i32* %5, align 4
  %117 = add i32 %116, %114
  store i32 %117, i32* %5, align 4
  %118 = load %"class.apache::thrift::protocol::TProtocol"*, %"class.apache::thrift::protocol::TProtocol"** %4, align 8
  %119 = invoke i32 @_ZN6apache6thrift8protocol9TProtocol14writeStructEndEv(%"class.apache::thrift::protocol::TProtocol"* %118)
          to label %120 unwind label %124

120:                                              ; preds = %115
  %121 = load i32, i32* %5, align 4
  %122 = add i32 %121, %119
  store i32 %122, i32* %5, align 4
  %123 = load i32, i32* %5, align 4
  call void @_ZN6apache6thrift8protocol23TOutputRecursionTrackerD2Ev(%"struct.apache::thrift::protocol::TOutputRecursionTracker"* %6) #3
  ret i32 %123

124:                                              ; preds = %115, %110, %105, %99, %94, %89, %83, %78, %73, %67, %62, %57, %51, %46, %41, %35, %30, %25, %18, %13, %2
  %125 = landingpad { i8*, i32 }
          cleanup
  %126 = extractvalue { i8*, i32 } %125, 0
  store i8* %126, i8** %7, align 8
  %127 = extractvalue { i8*, i32 } %125, 1
  store i32 %127, i32* %8, align 4
  call void @_ZN6apache6thrift8protocol23TOutputRecursionTrackerD2Ev(%"struct.apache::thrift::protocol::TOutputRecursionTracker"* %6) #3
  br label %128

128:                                              ; preds = %124
  %129 = load i8*, i8** %7, align 8
  %130 = load i32, i32* %8, align 4
  %131 = insertvalue { i8*, i32 } undef, i8* %129, 0
  %132 = insertvalue { i8*, i32 } %131, i32 %130, 1
  resume { i8*, i32 } %132
}

; Function Attrs: noinline optnone uwtable
define linkonce_odr void @_ZN6apache6thrift8protocol23TOutputRecursionTrackerC2ERNS1_9TProtocolE(%"struct.apache::thrift::protocol::TOutputRecursionTracker"* %0, %"class.apache::thrift::protocol::TProtocol"* dereferenceable(40) %1) unnamed_addr #2 comdat align 2 {
  %3 = alloca %"struct.apache::thrift::protocol::TOutputRecursionTracker"*, align 8
  %4 = alloca %"class.apache::thrift::protocol::TProtocol"*, align 8
  store %"struct.apache::thrift::protocol::TOutputRecursionTracker"* %0, %"struct.apache::thrift::protocol::TOutputRecursionTracker"** %3, align 8
  store %"class.apache::thrift::protocol::TProtocol"* %1, %"class.apache::thrift::protocol::TProtocol"** %4, align 8
  %5 = load %"struct.apache::thrift::protocol::TOutputRecursionTracker"*, %"struct.apache::thrift::protocol::TOutputRecursionTracker"** %3, align 8
  %6 = getelementptr inbounds %"struct.apache::thrift::protocol::TOutputRecursionTracker", %"struct.apache::thrift::protocol::TOutputRecursionTracker"* %5, i32 0, i32 0
  %7 = load %"class.apache::thrift::protocol::TProtocol"*, %"class.apache::thrift::protocol::TProtocol"** %4, align 8
  store %"class.apache::thrift::protocol::TProtocol"* %7, %"class.apache::thrift::protocol::TProtocol"** %6, align 8
  %8 = getelementptr inbounds %"struct.apache::thrift::protocol::TOutputRecursionTracker", %"struct.apache::thrift::protocol::TOutputRecursionTracker"* %5, i32 0, i32 0
  %9 = load %"class.apache::thrift::protocol::TProtocol"*, %"class.apache::thrift::protocol::TProtocol"** %8, align 8
  call void @_ZN6apache6thrift8protocol9TProtocol29incrementOutputRecursionDepthEv(%"class.apache::thrift::protocol::TProtocol"* %9)
  ret void
}

; Function Attrs: noinline optnone uwtable
define linkonce_odr i32 @_ZN6apache6thrift8protocol9TProtocol16writeStructBeginEPKc(%"class.apache::thrift::protocol::TProtocol"* %0, i8* %1) #2 comdat align 2 {
  %3 = alloca %"class.apache::thrift::protocol::TProtocol"*, align 8
  %4 = alloca i8*, align 8
  store %"class.apache::thrift::protocol::TProtocol"* %0, %"class.apache::thrift::protocol::TProtocol"** %3, align 8
  store i8* %1, i8** %4, align 8
  %5 = load %"class.apache::thrift::protocol::TProtocol"*, %"class.apache::thrift::protocol::TProtocol"** %3, align 8
  %6 = load i8*, i8** %4, align 8
  %7 = bitcast %"class.apache::thrift::protocol::TProtocol"* %5 to i32 (%"class.apache::thrift::protocol::TProtocol"*, i8*)***
  %8 = load i32 (%"class.apache::thrift::protocol::TProtocol"*, i8*)**, i32 (%"class.apache::thrift::protocol::TProtocol"*, i8*)*** %7, align 8
  %9 = getelementptr inbounds i32 (%"class.apache::thrift::protocol::TProtocol"*, i8*)*, i32 (%"class.apache::thrift::protocol::TProtocol"*, i8*)** %8, i64 4
  %10 = load i32 (%"class.apache::thrift::protocol::TProtocol"*, i8*)*, i32 (%"class.apache::thrift::protocol::TProtocol"*, i8*)** %9, align 8
  %11 = call i32 %10(%"class.apache::thrift::protocol::TProtocol"* %5, i8* %6)
  ret i32 %11
}

; Function Attrs: noinline optnone uwtable
define linkonce_odr i32 @_ZN6apache6thrift8protocol9TProtocol15writeFieldBeginEPKcNS1_5TTypeEs(%"class.apache::thrift::protocol::TProtocol"* %0, i8* %1, i32 %2, i16 signext %3) #2 comdat align 2 {
  %5 = alloca %"class.apache::thrift::protocol::TProtocol"*, align 8
  %6 = alloca i8*, align 8
  %7 = alloca i32, align 4
  %8 = alloca i16, align 2
  store %"class.apache::thrift::protocol::TProtocol"* %0, %"class.apache::thrift::protocol::TProtocol"** %5, align 8
  store i8* %1, i8** %6, align 8
  store i32 %2, i32* %7, align 4
  store i16 %3, i16* %8, align 2
  %9 = load %"class.apache::thrift::protocol::TProtocol"*, %"class.apache::thrift::protocol::TProtocol"** %5, align 8
  %10 = load i8*, i8** %6, align 8
  %11 = load i32, i32* %7, align 4
  %12 = load i16, i16* %8, align 2
  %13 = bitcast %"class.apache::thrift::protocol::TProtocol"* %9 to i32 (%"class.apache::thrift::protocol::TProtocol"*, i8*, i32, i16)***
  %14 = load i32 (%"class.apache::thrift::protocol::TProtocol"*, i8*, i32, i16)**, i32 (%"class.apache::thrift::protocol::TProtocol"*, i8*, i32, i16)*** %13, align 8
  %15 = getelementptr inbounds i32 (%"class.apache::thrift::protocol::TProtocol"*, i8*, i32, i16)*, i32 (%"class.apache::thrift::protocol::TProtocol"*, i8*, i32, i16)** %14, i64 6
  %16 = load i32 (%"class.apache::thrift::protocol::TProtocol"*, i8*, i32, i16)*, i32 (%"class.apache::thrift::protocol::TProtocol"*, i8*, i32, i16)** %15, align 8
  %17 = call i32 %16(%"class.apache::thrift::protocol::TProtocol"* %9, i8* %10, i32 %11, i16 signext %12)
  ret i32 %17
}

; Function Attrs: noinline optnone uwtable
define linkonce_odr i32 @_ZN6apache6thrift8protocol9TProtocol8writeI64El(%"class.apache::thrift::protocol::TProtocol"* %0, i64 %1) #2 comdat align 2 {
  %3 = alloca %"class.apache::thrift::protocol::TProtocol"*, align 8
  %4 = alloca i64, align 8
  store %"class.apache::thrift::protocol::TProtocol"* %0, %"class.apache::thrift::protocol::TProtocol"** %3, align 8
  store i64 %1, i64* %4, align 8
  %5 = load %"class.apache::thrift::protocol::TProtocol"*, %"class.apache::thrift::protocol::TProtocol"** %3, align 8
  %6 = load i64, i64* %4, align 8
  %7 = bitcast %"class.apache::thrift::protocol::TProtocol"* %5 to i32 (%"class.apache::thrift::protocol::TProtocol"*, i64)***
  %8 = load i32 (%"class.apache::thrift::protocol::TProtocol"*, i64)**, i32 (%"class.apache::thrift::protocol::TProtocol"*, i64)*** %7, align 8
  %9 = getelementptr inbounds i32 (%"class.apache::thrift::protocol::TProtocol"*, i64)*, i32 (%"class.apache::thrift::protocol::TProtocol"*, i64)** %8, i64 19
  %10 = load i32 (%"class.apache::thrift::protocol::TProtocol"*, i64)*, i32 (%"class.apache::thrift::protocol::TProtocol"*, i64)** %9, align 8
  %11 = call i32 %10(%"class.apache::thrift::protocol::TProtocol"* %5, i64 %6)
  ret i32 %11
}

; Function Attrs: noinline optnone uwtable
define linkonce_odr i32 @_ZN6apache6thrift8protocol9TProtocol13writeFieldEndEv(%"class.apache::thrift::protocol::TProtocol"* %0) #2 comdat align 2 {
  %2 = alloca %"class.apache::thrift::protocol::TProtocol"*, align 8
  store %"class.apache::thrift::protocol::TProtocol"* %0, %"class.apache::thrift::protocol::TProtocol"** %2, align 8
  %3 = load %"class.apache::thrift::protocol::TProtocol"*, %"class.apache::thrift::protocol::TProtocol"** %2, align 8
  %4 = bitcast %"class.apache::thrift::protocol::TProtocol"* %3 to i32 (%"class.apache::thrift::protocol::TProtocol"*)***
  %5 = load i32 (%"class.apache::thrift::protocol::TProtocol"*)**, i32 (%"class.apache::thrift::protocol::TProtocol"*)*** %4, align 8
  %6 = getelementptr inbounds i32 (%"class.apache::thrift::protocol::TProtocol"*)*, i32 (%"class.apache::thrift::protocol::TProtocol"*)** %5, i64 7
  %7 = load i32 (%"class.apache::thrift::protocol::TProtocol"*)*, i32 (%"class.apache::thrift::protocol::TProtocol"*)** %6, align 8
  %8 = call i32 %7(%"class.apache::thrift::protocol::TProtocol"* %3)
  ret i32 %8
}

; Function Attrs: noinline optnone uwtable
define linkonce_odr i32 @_ZN6apache6thrift8protocol9TProtocol11writeStringERKNSt7__cxx1112basic_stringIcSt11char_traitsIcESaIcEEE(%"class.apache::thrift::protocol::TProtocol"* %0, %"class.std::__cxx11::basic_string"* dereferenceable(32) %1) #2 comdat align 2 {
  %3 = alloca %"class.apache::thrift::protocol::TProtocol"*, align 8
  %4 = alloca %"class.std::__cxx11::basic_string"*, align 8
  store %"class.apache::thrift::protocol::TProtocol"* %0, %"class.apache::thrift::protocol::TProtocol"** %3, align 8
  store %"class.std::__cxx11::basic_string"* %1, %"class.std::__cxx11::basic_string"** %4, align 8
  %5 = load %"class.apache::thrift::protocol::TProtocol"*, %"class.apache::thrift::protocol::TProtocol"** %3, align 8
  %6 = load %"class.std::__cxx11::basic_string"*, %"class.std::__cxx11::basic_string"** %4, align 8
  %7 = bitcast %"class.apache::thrift::protocol::TProtocol"* %5 to i32 (%"class.apache::thrift::protocol::TProtocol"*, %"class.std::__cxx11::basic_string"*)***
  %8 = load i32 (%"class.apache::thrift::protocol::TProtocol"*, %"class.std::__cxx11::basic_string"*)**, i32 (%"class.apache::thrift::protocol::TProtocol"*, %"class.std::__cxx11::basic_string"*)*** %7, align 8
  %9 = getelementptr inbounds i32 (%"class.apache::thrift::protocol::TProtocol"*, %"class.std::__cxx11::basic_string"*)*, i32 (%"class.apache::thrift::protocol::TProtocol"*, %"class.std::__cxx11::basic_string"*)** %8, i64 21
  %10 = load i32 (%"class.apache::thrift::protocol::TProtocol"*, %"class.std::__cxx11::basic_string"*)*, i32 (%"class.apache::thrift::protocol::TProtocol"*, %"class.std::__cxx11::basic_string"*)** %9, align 8
  %11 = call i32 %10(%"class.apache::thrift::protocol::TProtocol"* %5, %"class.std::__cxx11::basic_string"* dereferenceable(32) %6)
  ret i32 %11
}

; Function Attrs: noinline optnone uwtable
define linkonce_odr i32 @_ZN6apache6thrift8protocol9TProtocol14writeFieldStopEv(%"class.apache::thrift::protocol::TProtocol"* %0) #2 comdat align 2 {
  %2 = alloca %"class.apache::thrift::protocol::TProtocol"*, align 8
  store %"class.apache::thrift::protocol::TProtocol"* %0, %"class.apache::thrift::protocol::TProtocol"** %2, align 8
  %3 = load %"class.apache::thrift::protocol::TProtocol"*, %"class.apache::thrift::protocol::TProtocol"** %2, align 8
  %4 = bitcast %"class.apache::thrift::protocol::TProtocol"* %3 to i32 (%"class.apache::thrift::protocol::TProtocol"*)***
  %5 = load i32 (%"class.apache::thrift::protocol::TProtocol"*)**, i32 (%"class.apache::thrift::protocol::TProtocol"*)*** %4, align 8
  %6 = getelementptr inbounds i32 (%"class.apache::thrift::protocol::TProtocol"*)*, i32 (%"class.apache::thrift::protocol::TProtocol"*)** %5, i64 8
  %7 = load i32 (%"class.apache::thrift::protocol::TProtocol"*)*, i32 (%"class.apache::thrift::protocol::TProtocol"*)** %6, align 8
  %8 = call i32 %7(%"class.apache::thrift::protocol::TProtocol"* %3)
  ret i32 %8
}

; Function Attrs: noinline optnone uwtable
define linkonce_odr i32 @_ZN6apache6thrift8protocol9TProtocol14writeStructEndEv(%"class.apache::thrift::protocol::TProtocol"* %0) #2 comdat align 2 {
  %2 = alloca %"class.apache::thrift::protocol::TProtocol"*, align 8
  store %"class.apache::thrift::protocol::TProtocol"* %0, %"class.apache::thrift::protocol::TProtocol"** %2, align 8
  %3 = load %"class.apache::thrift::protocol::TProtocol"*, %"class.apache::thrift::protocol::TProtocol"** %2, align 8
  %4 = bitcast %"class.apache::thrift::protocol::TProtocol"* %3 to i32 (%"class.apache::thrift::protocol::TProtocol"*)***
  %5 = load i32 (%"class.apache::thrift::protocol::TProtocol"*)**, i32 (%"class.apache::thrift::protocol::TProtocol"*)*** %4, align 8
  %6 = getelementptr inbounds i32 (%"class.apache::thrift::protocol::TProtocol"*)*, i32 (%"class.apache::thrift::protocol::TProtocol"*)** %5, i64 5
  %7 = load i32 (%"class.apache::thrift::protocol::TProtocol"*)*, i32 (%"class.apache::thrift::protocol::TProtocol"*)** %6, align 8
  %8 = call i32 %7(%"class.apache::thrift::protocol::TProtocol"* %3)
  ret i32 %8
}

; Function Attrs: noinline nounwind optnone uwtable
define linkonce_odr void @_ZN6apache6thrift8protocol23TOutputRecursionTrackerD2Ev(%"struct.apache::thrift::protocol::TOutputRecursionTracker"* %0) unnamed_addr #1 comdat align 2 personality i8* bitcast (i32 (...)* @__gxx_personality_v0 to i8*) {
  %2 = alloca %"struct.apache::thrift::protocol::TOutputRecursionTracker"*, align 8
  store %"struct.apache::thrift::protocol::TOutputRecursionTracker"* %0, %"struct.apache::thrift::protocol::TOutputRecursionTracker"** %2, align 8
  %3 = load %"struct.apache::thrift::protocol::TOutputRecursionTracker"*, %"struct.apache::thrift::protocol::TOutputRecursionTracker"** %2, align 8
  %4 = getelementptr inbounds %"struct.apache::thrift::protocol::TOutputRecursionTracker", %"struct.apache::thrift::protocol::TOutputRecursionTracker"* %3, i32 0, i32 0
  %5 = load %"class.apache::thrift::protocol::TProtocol"*, %"class.apache::thrift::protocol::TProtocol"** %4, align 8
  invoke void @_ZN6apache6thrift8protocol9TProtocol29decrementOutputRecursionDepthEv(%"class.apache::thrift::protocol::TProtocol"* %5)
          to label %6 unwind label %7

6:                                                ; preds = %1
  ret void

7:                                                ; preds = %1
  %8 = landingpad { i8*, i32 }
          catch i8* null
  %9 = extractvalue { i8*, i32 } %8, 0
  call void @__clang_call_terminate(i8* %9) #15
  unreachable
}

; Function Attrs: noinline optnone uwtable
define i32 @_ZTv0_n40_NK14social_network4User5writeEPN6apache6thrift8protocol9TProtocolE(%"class.social_network::User"* %0, %"class.apache::thrift::protocol::TProtocol"* %1) unnamed_addr #2 align 2 {
  %3 = alloca %"class.social_network::User"*, align 8
  %4 = alloca %"class.apache::thrift::protocol::TProtocol"*, align 8
  store %"class.social_network::User"* %0, %"class.social_network::User"** %3, align 8
  store %"class.apache::thrift::protocol::TProtocol"* %1, %"class.apache::thrift::protocol::TProtocol"** %4, align 8
  %5 = load %"class.social_network::User"*, %"class.social_network::User"** %3, align 8
  %6 = bitcast %"class.social_network::User"* %5 to i8*
  %7 = bitcast i8* %6 to i8**
  %8 = load i8*, i8** %7, align 8
  %9 = getelementptr inbounds i8, i8* %8, i64 -40
  %10 = bitcast i8* %9 to i64*
  %11 = load i64, i64* %10, align 8
  %12 = getelementptr inbounds i8, i8* %6, i64 %11
  %13 = bitcast i8* %12 to %"class.social_network::User"*
  %14 = load %"class.apache::thrift::protocol::TProtocol"*, %"class.apache::thrift::protocol::TProtocol"** %4, align 8
  %15 = tail call i32 @_ZNK14social_network4User5writeEPN6apache6thrift8protocol9TProtocolE(%"class.social_network::User"* %13, %"class.apache::thrift::protocol::TProtocol"* %14)
  ret i32 %15
}

; Function Attrs: noinline nounwind optnone uwtable
define void @_ZN14social_network4swapERNS_4UserES1_(%"class.social_network::User"* dereferenceable(184) %0, %"class.social_network::User"* dereferenceable(184) %1) #1 {
  %3 = alloca %"class.social_network::User"*, align 8
  %4 = alloca %"class.social_network::User"*, align 8
  store %"class.social_network::User"* %0, %"class.social_network::User"** %3, align 8
  store %"class.social_network::User"* %1, %"class.social_network::User"** %4, align 8
  %5 = load %"class.social_network::User"*, %"class.social_network::User"** %3, align 8
  %6 = getelementptr inbounds %"class.social_network::User", %"class.social_network::User"* %5, i32 0, i32 1
  %7 = load %"class.social_network::User"*, %"class.social_network::User"** %4, align 8
  %8 = getelementptr inbounds %"class.social_network::User", %"class.social_network::User"* %7, i32 0, i32 1
  call void @_ZSt4swapIlENSt9enable_ifIXsr6__and_ISt6__not_ISt15__is_tuple_likeIT_EESt21is_move_constructibleIS3_ESt18is_move_assignableIS3_EEE5valueEvE4typeERS3_SC_(i64* dereferenceable(8) %6, i64* dereferenceable(8) %8) #3
  %9 = load %"class.social_network::User"*, %"class.social_network::User"** %3, align 8
  %10 = getelementptr inbounds %"class.social_network::User", %"class.social_network::User"* %9, i32 0, i32 2
  %11 = load %"class.social_network::User"*, %"class.social_network::User"** %4, align 8
  %12 = getelementptr inbounds %"class.social_network::User", %"class.social_network::User"* %11, i32 0, i32 2
  call void @_ZSt4swapIcSt11char_traitsIcESaIcEEvRNSt7__cxx1112basic_stringIT_T0_T1_EES9_(%"class.std::__cxx11::basic_string"* dereferenceable(32) %10, %"class.std::__cxx11::basic_string"* dereferenceable(32) %12) #3
  %13 = load %"class.social_network::User"*, %"class.social_network::User"** %3, align 8
  %14 = getelementptr inbounds %"class.social_network::User", %"class.social_network::User"* %13, i32 0, i32 3
  %15 = load %"class.social_network::User"*, %"class.social_network::User"** %4, align 8
  %16 = getelementptr inbounds %"class.social_network::User", %"class.social_network::User"* %15, i32 0, i32 3
  call void @_ZSt4swapIcSt11char_traitsIcESaIcEEvRNSt7__cxx1112basic_stringIT_T0_T1_EES9_(%"class.std::__cxx11::basic_string"* dereferenceable(32) %14, %"class.std::__cxx11::basic_string"* dereferenceable(32) %16) #3
  %17 = load %"class.social_network::User"*, %"class.social_network::User"** %3, align 8
  %18 = getelementptr inbounds %"class.social_network::User", %"class.social_network::User"* %17, i32 0, i32 4
  %19 = load %"class.social_network::User"*, %"class.social_network::User"** %4, align 8
  %20 = getelementptr inbounds %"class.social_network::User", %"class.social_network::User"* %19, i32 0, i32 4
  call void @_ZSt4swapIcSt11char_traitsIcESaIcEEvRNSt7__cxx1112basic_stringIT_T0_T1_EES9_(%"class.std::__cxx11::basic_string"* dereferenceable(32) %18, %"class.std::__cxx11::basic_string"* dereferenceable(32) %20) #3
  %21 = load %"class.social_network::User"*, %"class.social_network::User"** %3, align 8
  %22 = getelementptr inbounds %"class.social_network::User", %"class.social_network::User"* %21, i32 0, i32 5
  %23 = load %"class.social_network::User"*, %"class.social_network::User"** %4, align 8
  %24 = getelementptr inbounds %"class.social_network::User", %"class.social_network::User"* %23, i32 0, i32 5
  call void @_ZSt4swapIcSt11char_traitsIcESaIcEEvRNSt7__cxx1112basic_stringIT_T0_T1_EES9_(%"class.std::__cxx11::basic_string"* dereferenceable(32) %22, %"class.std::__cxx11::basic_string"* dereferenceable(32) %24) #3
  %25 = load %"class.social_network::User"*, %"class.social_network::User"** %3, align 8
  %26 = getelementptr inbounds %"class.social_network::User", %"class.social_network::User"* %25, i32 0, i32 6
  %27 = load %"class.social_network::User"*, %"class.social_network::User"** %4, align 8
  %28 = getelementptr inbounds %"class.social_network::User", %"class.social_network::User"* %27, i32 0, i32 6
  call void @_ZSt4swapIcSt11char_traitsIcESaIcEEvRNSt7__cxx1112basic_stringIT_T0_T1_EES9_(%"class.std::__cxx11::basic_string"* dereferenceable(32) %26, %"class.std::__cxx11::basic_string"* dereferenceable(32) %28) #3
  %29 = load %"class.social_network::User"*, %"class.social_network::User"** %3, align 8
  %30 = getelementptr inbounds %"class.social_network::User", %"class.social_network::User"* %29, i32 0, i32 7
  %31 = load %"class.social_network::User"*, %"class.social_network::User"** %4, align 8
  %32 = getelementptr inbounds %"class.social_network::User", %"class.social_network::User"* %31, i32 0, i32 7
  call void @_ZSt4swapIN14social_network12_User__issetEENSt9enable_ifIXsr6__and_ISt6__not_ISt15__is_tuple_likeIT_EESt21is_move_constructibleIS5_ESt18is_move_assignableIS5_EEE5valueEvE4typeERS5_SE_(%"struct.social_network::_User__isset"* dereferenceable(1) %30, %"struct.social_network::_User__isset"* dereferenceable(1) %32) #3
  ret void
}

; Function Attrs: noinline nounwind optnone uwtable
define linkonce_odr void @_ZSt4swapIlENSt9enable_ifIXsr6__and_ISt6__not_ISt15__is_tuple_likeIT_EESt21is_move_constructibleIS3_ESt18is_move_assignableIS3_EEE5valueEvE4typeERS3_SC_(i64* dereferenceable(8) %0, i64* dereferenceable(8) %1) #1 comdat {
  %3 = alloca i64*, align 8
  %4 = alloca i64*, align 8
  %5 = alloca i64, align 8
  store i64* %0, i64** %3, align 8
  store i64* %1, i64** %4, align 8
  %6 = load i64*, i64** %3, align 8
  %7 = call dereferenceable(8) i64* @_ZSt4moveIRlEONSt16remove_referenceIT_E4typeEOS2_(i64* dereferenceable(8) %6) #3
  %8 = load i64, i64* %7, align 8
  store i64 %8, i64* %5, align 8
  %9 = load i64*, i64** %4, align 8
  %10 = call dereferenceable(8) i64* @_ZSt4moveIRlEONSt16remove_referenceIT_E4typeEOS2_(i64* dereferenceable(8) %9) #3
  %11 = load i64, i64* %10, align 8
  %12 = load i64*, i64** %3, align 8
  store i64 %11, i64* %12, align 8
  %13 = call dereferenceable(8) i64* @_ZSt4moveIRlEONSt16remove_referenceIT_E4typeEOS2_(i64* dereferenceable(8) %5) #3
  %14 = load i64, i64* %13, align 8
  %15 = load i64*, i64** %4, align 8
  store i64 %14, i64* %15, align 8
  ret void
}

; Function Attrs: noinline nounwind optnone uwtable
define linkonce_odr void @_ZSt4swapIcSt11char_traitsIcESaIcEEvRNSt7__cxx1112basic_stringIT_T0_T1_EES9_(%"class.std::__cxx11::basic_string"* dereferenceable(32) %0, %"class.std::__cxx11::basic_string"* dereferenceable(32) %1) #1 comdat {
  %3 = alloca %"class.std::__cxx11::basic_string"*, align 8
  %4 = alloca %"class.std::__cxx11::basic_string"*, align 8
  store %"class.std::__cxx11::basic_string"* %0, %"class.std::__cxx11::basic_string"** %3, align 8
  store %"class.std::__cxx11::basic_string"* %1, %"class.std::__cxx11::basic_string"** %4, align 8
  %5 = load %"class.std::__cxx11::basic_string"*, %"class.std::__cxx11::basic_string"** %3, align 8
  %6 = load %"class.std::__cxx11::basic_string"*, %"class.std::__cxx11::basic_string"** %4, align 8
  call void @_ZNSt7__cxx1112basic_stringIcSt11char_traitsIcESaIcEE4swapERS4_(%"class.std::__cxx11::basic_string"* %5, %"class.std::__cxx11::basic_string"* dereferenceable(32) %6) #3
  ret void
}

; Function Attrs: noinline nounwind optnone uwtable
define linkonce_odr void @_ZSt4swapIN14social_network12_User__issetEENSt9enable_ifIXsr6__and_ISt6__not_ISt15__is_tuple_likeIT_EESt21is_move_constructibleIS5_ESt18is_move_assignableIS5_EEE5valueEvE4typeERS5_SE_(%"struct.social_network::_User__isset"* dereferenceable(1) %0, %"struct.social_network::_User__isset"* dereferenceable(1) %1) #1 comdat {
  %3 = alloca %"struct.social_network::_User__isset"*, align 8
  %4 = alloca %"struct.social_network::_User__isset"*, align 8
  %5 = alloca %"struct.social_network::_User__isset", align 1
  store %"struct.social_network::_User__isset"* %0, %"struct.social_network::_User__isset"** %3, align 8
  store %"struct.social_network::_User__isset"* %1, %"struct.social_network::_User__isset"** %4, align 8
  %6 = load %"struct.social_network::_User__isset"*, %"struct.social_network::_User__isset"** %3, align 8
  %7 = call dereferenceable(1) %"struct.social_network::_User__isset"* @_ZSt4moveIRN14social_network12_User__issetEEONSt16remove_referenceIT_E4typeEOS4_(%"struct.social_network::_User__isset"* dereferenceable(1) %6) #3
  %8 = bitcast %"struct.social_network::_User__isset"* %5 to i8*
  %9 = bitcast %"struct.social_network::_User__isset"* %7 to i8*
  call void @llvm.memcpy.p0i8.p0i8.i64(i8* align 1 %8, i8* align 1 %9, i64 1, i1 false)
  %10 = load %"struct.social_network::_User__isset"*, %"struct.social_network::_User__isset"** %4, align 8
  %11 = call dereferenceable(1) %"struct.social_network::_User__isset"* @_ZSt4moveIRN14social_network12_User__issetEEONSt16remove_referenceIT_E4typeEOS4_(%"struct.social_network::_User__isset"* dereferenceable(1) %10) #3
  %12 = load %"struct.social_network::_User__isset"*, %"struct.social_network::_User__isset"** %3, align 8
  %13 = bitcast %"struct.social_network::_User__isset"* %12 to i8*
  %14 = bitcast %"struct.social_network::_User__isset"* %11 to i8*
  call void @llvm.memcpy.p0i8.p0i8.i64(i8* align 1 %13, i8* align 1 %14, i64 1, i1 false)
  %15 = call dereferenceable(1) %"struct.social_network::_User__isset"* @_ZSt4moveIRN14social_network12_User__issetEEONSt16remove_referenceIT_E4typeEOS4_(%"struct.social_network::_User__isset"* dereferenceable(1) %5) #3
  %16 = load %"struct.social_network::_User__isset"*, %"struct.social_network::_User__isset"** %4, align 8
  %17 = bitcast %"struct.social_network::_User__isset"* %16 to i8*
  %18 = bitcast %"struct.social_network::_User__isset"* %15 to i8*
  call void @llvm.memcpy.p0i8.p0i8.i64(i8* align 1 %17, i8* align 1 %18, i64 1, i1 false)
  ret void
}

; Function Attrs: noinline optnone uwtable
define void @_ZN14social_network4UserC2ERKS0_(%"class.social_network::User"* %0, i8** %1, %"class.social_network::User"* dereferenceable(184) %2) unnamed_addr #2 align 2 personality i8* bitcast (i32 (...)* @__gxx_personality_v0 to i8*) {
  %4 = alloca %"class.social_network::User"*, align 8
  %5 = alloca i8**, align 8
  %6 = alloca %"class.social_network::User"*, align 8
  %7 = alloca i8*
  %8 = alloca i32
  store %"class.social_network::User"* %0, %"class.social_network::User"** %4, align 8
  store i8** %1, i8*** %5, align 8
  store %"class.social_network::User"* %2, %"class.social_network::User"** %6, align 8
  %9 = load %"class.social_network::User"*, %"class.social_network::User"** %4, align 8
  %10 = load i8**, i8*** %5, align 8
  %11 = load i8*, i8** %10, align 8
  %12 = bitcast %"class.social_network::User"* %9 to i32 (...)***
  %13 = bitcast i8* %11 to i32 (...)**
  store i32 (...)** %13, i32 (...)*** %12, align 8
  %14 = getelementptr inbounds i8*, i8** %10, i64 1
  %15 = load i8*, i8** %14, align 8
  %16 = bitcast %"class.social_network::User"* %9 to i8**
  %17 = load i8*, i8** %16, align 8
  %18 = getelementptr i8, i8* %17, i64 -48
  %19 = bitcast i8* %18 to i64*
  %20 = load i64, i64* %19, align 8
  %21 = bitcast %"class.social_network::User"* %9 to i8*
  %22 = getelementptr inbounds i8, i8* %21, i64 %20
  %23 = bitcast i8* %22 to i32 (...)***
  %24 = bitcast i8* %15 to i32 (...)**
  store i32 (...)** %24, i32 (...)*** %23, align 8
  %25 = getelementptr inbounds %"class.social_network::User", %"class.social_network::User"* %9, i32 0, i32 2
  call void @_ZNSt7__cxx1112basic_stringIcSt11char_traitsIcESaIcEEC1Ev(%"class.std::__cxx11::basic_string"* %25) #3
  %26 = getelementptr inbounds %"class.social_network::User", %"class.social_network::User"* %9, i32 0, i32 3
  call void @_ZNSt7__cxx1112basic_stringIcSt11char_traitsIcESaIcEEC1Ev(%"class.std::__cxx11::basic_string"* %26) #3
  %27 = getelementptr inbounds %"class.social_network::User", %"class.social_network::User"* %9, i32 0, i32 4
  call void @_ZNSt7__cxx1112basic_stringIcSt11char_traitsIcESaIcEEC1Ev(%"class.std::__cxx11::basic_string"* %27) #3
  %28 = getelementptr inbounds %"class.social_network::User", %"class.social_network::User"* %9, i32 0, i32 5
  call void @_ZNSt7__cxx1112basic_stringIcSt11char_traitsIcESaIcEEC1Ev(%"class.std::__cxx11::basic_string"* %28) #3
  %29 = getelementptr inbounds %"class.social_network::User", %"class.social_network::User"* %9, i32 0, i32 6
  call void @_ZNSt7__cxx1112basic_stringIcSt11char_traitsIcESaIcEEC1Ev(%"class.std::__cxx11::basic_string"* %29) #3
  %30 = getelementptr inbounds %"class.social_network::User", %"class.social_network::User"* %9, i32 0, i32 7
  invoke void @_ZN14social_network12_User__issetC2Ev(%"struct.social_network::_User__isset"* %30)
          to label %31 unwind label %66

31:                                               ; preds = %3
  %32 = load %"class.social_network::User"*, %"class.social_network::User"** %6, align 8
  %33 = getelementptr inbounds %"class.social_network::User", %"class.social_network::User"* %32, i32 0, i32 1
  %34 = load i64, i64* %33, align 8
  %35 = getelementptr inbounds %"class.social_network::User", %"class.social_network::User"* %9, i32 0, i32 1
  store i64 %34, i64* %35, align 8
  %36 = load %"class.social_network::User"*, %"class.social_network::User"** %6, align 8
  %37 = getelementptr inbounds %"class.social_network::User", %"class.social_network::User"* %36, i32 0, i32 2
  %38 = getelementptr inbounds %"class.social_network::User", %"class.social_network::User"* %9, i32 0, i32 2
  %39 = invoke dereferenceable(32) %"class.std::__cxx11::basic_string"* @_ZNSt7__cxx1112basic_stringIcSt11char_traitsIcESaIcEEaSERKS4_(%"class.std::__cxx11::basic_string"* %38, %"class.std::__cxx11::basic_string"* dereferenceable(32) %37)
          to label %40 unwind label %66

40:                                               ; preds = %31
  %41 = load %"class.social_network::User"*, %"class.social_network::User"** %6, align 8
  %42 = getelementptr inbounds %"class.social_network::User", %"class.social_network::User"* %41, i32 0, i32 3
  %43 = getelementptr inbounds %"class.social_network::User", %"class.social_network::User"* %9, i32 0, i32 3
  %44 = invoke dereferenceable(32) %"class.std::__cxx11::basic_string"* @_ZNSt7__cxx1112basic_stringIcSt11char_traitsIcESaIcEEaSERKS4_(%"class.std::__cxx11::basic_string"* %43, %"class.std::__cxx11::basic_string"* dereferenceable(32) %42)
          to label %45 unwind label %66

45:                                               ; preds = %40
  %46 = load %"class.social_network::User"*, %"class.social_network::User"** %6, align 8
  %47 = getelementptr inbounds %"class.social_network::User", %"class.social_network::User"* %46, i32 0, i32 4
  %48 = getelementptr inbounds %"class.social_network::User", %"class.social_network::User"* %9, i32 0, i32 4
  %49 = invoke dereferenceable(32) %"class.std::__cxx11::basic_string"* @_ZNSt7__cxx1112basic_stringIcSt11char_traitsIcESaIcEEaSERKS4_(%"class.std::__cxx11::basic_string"* %48, %"class.std::__cxx11::basic_string"* dereferenceable(32) %47)
          to label %50 unwind label %66

50:                                               ; preds = %45
  %51 = load %"class.social_network::User"*, %"class.social_network::User"** %6, align 8
  %52 = getelementptr inbounds %"class.social_network::User", %"class.social_network::User"* %51, i32 0, i32 5
  %53 = getelementptr inbounds %"class.social_network::User", %"class.social_network::User"* %9, i32 0, i32 5
  %54 = invoke dereferenceable(32) %"class.std::__cxx11::basic_string"* @_ZNSt7__cxx1112basic_stringIcSt11char_traitsIcESaIcEEaSERKS4_(%"class.std::__cxx11::basic_string"* %53, %"class.std::__cxx11::basic_string"* dereferenceable(32) %52)
          to label %55 unwind label %66

55:                                               ; preds = %50
  %56 = load %"class.social_network::User"*, %"class.social_network::User"** %6, align 8
  %57 = getelementptr inbounds %"class.social_network::User", %"class.social_network::User"* %56, i32 0, i32 6
  %58 = getelementptr inbounds %"class.social_network::User", %"class.social_network::User"* %9, i32 0, i32 6
  %59 = invoke dereferenceable(32) %"class.std::__cxx11::basic_string"* @_ZNSt7__cxx1112basic_stringIcSt11char_traitsIcESaIcEEaSERKS4_(%"class.std::__cxx11::basic_string"* %58, %"class.std::__cxx11::basic_string"* dereferenceable(32) %57)
          to label %60 unwind label %66

60:                                               ; preds = %55
  %61 = load %"class.social_network::User"*, %"class.social_network::User"** %6, align 8
  %62 = getelementptr inbounds %"class.social_network::User", %"class.social_network::User"* %61, i32 0, i32 7
  %63 = getelementptr inbounds %"class.social_network::User", %"class.social_network::User"* %9, i32 0, i32 7
  %64 = bitcast %"struct.social_network::_User__isset"* %63 to i8*
  %65 = bitcast %"struct.social_network::_User__isset"* %62 to i8*
  call void @llvm.memcpy.p0i8.p0i8.i64(i8* align 8 %64, i8* align 8 %65, i64 1, i1 false)
  ret void

66:                                               ; preds = %55, %50, %45, %40, %31, %3
  %67 = landingpad { i8*, i32 }
          cleanup
  %68 = extractvalue { i8*, i32 } %67, 0
  store i8* %68, i8** %7, align 8
  %69 = extractvalue { i8*, i32 } %67, 1
  store i32 %69, i32* %8, align 4
  call void @_ZNSt7__cxx1112basic_stringIcSt11char_traitsIcESaIcEED1Ev(%"class.std::__cxx11::basic_string"* %29) #3
  call void @_ZNSt7__cxx1112basic_stringIcSt11char_traitsIcESaIcEED1Ev(%"class.std::__cxx11::basic_string"* %28) #3
  call void @_ZNSt7__cxx1112basic_stringIcSt11char_traitsIcESaIcEED1Ev(%"class.std::__cxx11::basic_string"* %27) #3
  call void @_ZNSt7__cxx1112basic_stringIcSt11char_traitsIcESaIcEED1Ev(%"class.std::__cxx11::basic_string"* %26) #3
  call void @_ZNSt7__cxx1112basic_stringIcSt11char_traitsIcESaIcEED1Ev(%"class.std::__cxx11::basic_string"* %25) #3
  br label %70

70:                                               ; preds = %66
  %71 = load i8*, i8** %7, align 8
  %72 = load i32, i32* %8, align 4
  %73 = insertvalue { i8*, i32 } undef, i8* %71, 0
  %74 = insertvalue { i8*, i32 } %73, i32 %72, 1
  resume { i8*, i32 } %74
}

; Function Attrs: noinline nounwind optnone uwtable
define linkonce_odr void @_ZN14social_network12_User__issetC2Ev(%"struct.social_network::_User__isset"* %0) unnamed_addr #1 comdat align 2 {
  %2 = alloca %"struct.social_network::_User__isset"*, align 8
  store %"struct.social_network::_User__isset"* %0, %"struct.social_network::_User__isset"** %2, align 8
  %3 = load %"struct.social_network::_User__isset"*, %"struct.social_network::_User__isset"** %2, align 8
  %4 = bitcast %"struct.social_network::_User__isset"* %3 to i8*
  %5 = load i8, i8* %4, align 1
  %6 = and i8 %5, -2
  store i8 %6, i8* %4, align 1
  %7 = bitcast %"struct.social_network::_User__isset"* %3 to i8*
  %8 = load i8, i8* %7, align 1
  %9 = and i8 %8, -3
  store i8 %9, i8* %7, align 1
  %10 = bitcast %"struct.social_network::_User__isset"* %3 to i8*
  %11 = load i8, i8* %10, align 1
  %12 = and i8 %11, -5
  store i8 %12, i8* %10, align 1
  %13 = bitcast %"struct.social_network::_User__isset"* %3 to i8*
  %14 = load i8, i8* %13, align 1
  %15 = and i8 %14, -9
  store i8 %15, i8* %13, align 1
  %16 = bitcast %"struct.social_network::_User__isset"* %3 to i8*
  %17 = load i8, i8* %16, align 1
  %18 = and i8 %17, -17
  store i8 %18, i8* %16, align 1
  %19 = bitcast %"struct.social_network::_User__isset"* %3 to i8*
  %20 = load i8, i8* %19, align 1
  %21 = and i8 %20, -33
  store i8 %21, i8* %19, align 1
  ret void
}

; Function Attrs: argmemonly nounwind willreturn
declare void @llvm.memcpy.p0i8.p0i8.i64(i8* noalias nocapture writeonly, i8* noalias nocapture readonly, i64, i1 immarg) #7

; Function Attrs: noinline optnone uwtable
define void @_ZN14social_network4UserC1ERKS0_(%"class.social_network::User"* %0, %"class.social_network::User"* dereferenceable(184) %1) unnamed_addr #2 align 2 personality i8* bitcast (i32 (...)* @__gxx_personality_v0 to i8*) {
  %3 = alloca %"class.social_network::User"*, align 8
  %4 = alloca %"class.social_network::User"*, align 8
  %5 = alloca i8*
  %6 = alloca i32
  store %"class.social_network::User"* %0, %"class.social_network::User"** %3, align 8
  store %"class.social_network::User"* %1, %"class.social_network::User"** %4, align 8
  %7 = load %"class.social_network::User"*, %"class.social_network::User"** %3, align 8
  %8 = bitcast %"class.social_network::User"* %7 to %"class.apache::thrift::TBase"*
  call void @_ZN6apache6thrift5TBaseC2Ev(%"class.apache::thrift::TBase"* %8) #3
  %9 = bitcast %"class.social_network::User"* %7 to i32 (...)***
  store i32 (...)** bitcast (i8** getelementptr inbounds ({ [11 x i8*] }, { [11 x i8*] }* @_ZTVN14social_network4UserE, i32 0, inrange i32 0, i32 6) to i32 (...)**), i32 (...)*** %9, align 8
  %10 = bitcast %"class.social_network::User"* %7 to i32 (...)***
  store i32 (...)** bitcast (i8** getelementptr inbounds ({ [11 x i8*] }, { [11 x i8*] }* @_ZTVN14social_network4UserE, i32 0, inrange i32 0, i32 6) to i32 (...)**), i32 (...)*** %10, align 8
  %11 = getelementptr inbounds %"class.social_network::User", %"class.social_network::User"* %7, i32 0, i32 2
  call void @_ZNSt7__cxx1112basic_stringIcSt11char_traitsIcESaIcEEC1Ev(%"class.std::__cxx11::basic_string"* %11) #3
  %12 = getelementptr inbounds %"class.social_network::User", %"class.social_network::User"* %7, i32 0, i32 3
  call void @_ZNSt7__cxx1112basic_stringIcSt11char_traitsIcESaIcEEC1Ev(%"class.std::__cxx11::basic_string"* %12) #3
  %13 = getelementptr inbounds %"class.social_network::User", %"class.social_network::User"* %7, i32 0, i32 4
  call void @_ZNSt7__cxx1112basic_stringIcSt11char_traitsIcESaIcEEC1Ev(%"class.std::__cxx11::basic_string"* %13) #3
  %14 = getelementptr inbounds %"class.social_network::User", %"class.social_network::User"* %7, i32 0, i32 5
  call void @_ZNSt7__cxx1112basic_stringIcSt11char_traitsIcESaIcEEC1Ev(%"class.std::__cxx11::basic_string"* %14) #3
  %15 = getelementptr inbounds %"class.social_network::User", %"class.social_network::User"* %7, i32 0, i32 6
  call void @_ZNSt7__cxx1112basic_stringIcSt11char_traitsIcESaIcEEC1Ev(%"class.std::__cxx11::basic_string"* %15) #3
  %16 = getelementptr inbounds %"class.social_network::User", %"class.social_network::User"* %7, i32 0, i32 7
  invoke void @_ZN14social_network12_User__issetC2Ev(%"struct.social_network::_User__isset"* %16)
          to label %17 unwind label %52

17:                                               ; preds = %2
  %18 = load %"class.social_network::User"*, %"class.social_network::User"** %4, align 8
  %19 = getelementptr inbounds %"class.social_network::User", %"class.social_network::User"* %18, i32 0, i32 1
  %20 = load i64, i64* %19, align 8
  %21 = getelementptr inbounds %"class.social_network::User", %"class.social_network::User"* %7, i32 0, i32 1
  store i64 %20, i64* %21, align 8
  %22 = load %"class.social_network::User"*, %"class.social_network::User"** %4, align 8
  %23 = getelementptr inbounds %"class.social_network::User", %"class.social_network::User"* %22, i32 0, i32 2
  %24 = getelementptr inbounds %"class.social_network::User", %"class.social_network::User"* %7, i32 0, i32 2
  %25 = invoke dereferenceable(32) %"class.std::__cxx11::basic_string"* @_ZNSt7__cxx1112basic_stringIcSt11char_traitsIcESaIcEEaSERKS4_(%"class.std::__cxx11::basic_string"* %24, %"class.std::__cxx11::basic_string"* dereferenceable(32) %23)
          to label %26 unwind label %52

26:                                               ; preds = %17
  %27 = load %"class.social_network::User"*, %"class.social_network::User"** %4, align 8
  %28 = getelementptr inbounds %"class.social_network::User", %"class.social_network::User"* %27, i32 0, i32 3
  %29 = getelementptr inbounds %"class.social_network::User", %"class.social_network::User"* %7, i32 0, i32 3
  %30 = invoke dereferenceable(32) %"class.std::__cxx11::basic_string"* @_ZNSt7__cxx1112basic_stringIcSt11char_traitsIcESaIcEEaSERKS4_(%"class.std::__cxx11::basic_string"* %29, %"class.std::__cxx11::basic_string"* dereferenceable(32) %28)
          to label %31 unwind label %52

31:                                               ; preds = %26
  %32 = load %"class.social_network::User"*, %"class.social_network::User"** %4, align 8
  %33 = getelementptr inbounds %"class.social_network::User", %"class.social_network::User"* %32, i32 0, i32 4
  %34 = getelementptr inbounds %"class.social_network::User", %"class.social_network::User"* %7, i32 0, i32 4
  %35 = invoke dereferenceable(32) %"class.std::__cxx11::basic_string"* @_ZNSt7__cxx1112basic_stringIcSt11char_traitsIcESaIcEEaSERKS4_(%"class.std::__cxx11::basic_string"* %34, %"class.std::__cxx11::basic_string"* dereferenceable(32) %33)
          to label %36 unwind label %52

36:                                               ; preds = %31
  %37 = load %"class.social_network::User"*, %"class.social_network::User"** %4, align 8
  %38 = getelementptr inbounds %"class.social_network::User", %"class.social_network::User"* %37, i32 0, i32 5
  %39 = getelementptr inbounds %"class.social_network::User", %"class.social_network::User"* %7, i32 0, i32 5
  %40 = invoke dereferenceable(32) %"class.std::__cxx11::basic_string"* @_ZNSt7__cxx1112basic_stringIcSt11char_traitsIcESaIcEEaSERKS4_(%"class.std::__cxx11::basic_string"* %39, %"class.std::__cxx11::basic_string"* dereferenceable(32) %38)
          to label %41 unwind label %52

41:                                               ; preds = %36
  %42 = load %"class.social_network::User"*, %"class.social_network::User"** %4, align 8
  %43 = getelementptr inbounds %"class.social_network::User", %"class.social_network::User"* %42, i32 0, i32 6
  %44 = getelementptr inbounds %"class.social_network::User", %"class.social_network::User"* %7, i32 0, i32 6
  %45 = invoke dereferenceable(32) %"class.std::__cxx11::basic_string"* @_ZNSt7__cxx1112basic_stringIcSt11char_traitsIcESaIcEEaSERKS4_(%"class.std::__cxx11::basic_string"* %44, %"class.std::__cxx11::basic_string"* dereferenceable(32) %43)
          to label %46 unwind label %52

46:                                               ; preds = %41
  %47 = load %"class.social_network::User"*, %"class.social_network::User"** %4, align 8
  %48 = getelementptr inbounds %"class.social_network::User", %"class.social_network::User"* %47, i32 0, i32 7
  %49 = getelementptr inbounds %"class.social_network::User", %"class.social_network::User"* %7, i32 0, i32 7
  %50 = bitcast %"struct.social_network::_User__isset"* %49 to i8*
  %51 = bitcast %"struct.social_network::_User__isset"* %48 to i8*
  call void @llvm.memcpy.p0i8.p0i8.i64(i8* align 8 %50, i8* align 8 %51, i64 1, i1 false)
  ret void

52:                                               ; preds = %41, %36, %31, %26, %17, %2
  %53 = landingpad { i8*, i32 }
          cleanup
  %54 = extractvalue { i8*, i32 } %53, 0
  store i8* %54, i8** %5, align 8
  %55 = extractvalue { i8*, i32 } %53, 1
  store i32 %55, i32* %6, align 4
  call void @_ZNSt7__cxx1112basic_stringIcSt11char_traitsIcESaIcEED1Ev(%"class.std::__cxx11::basic_string"* %15) #3
  call void @_ZNSt7__cxx1112basic_stringIcSt11char_traitsIcESaIcEED1Ev(%"class.std::__cxx11::basic_string"* %14) #3
  call void @_ZNSt7__cxx1112basic_stringIcSt11char_traitsIcESaIcEED1Ev(%"class.std::__cxx11::basic_string"* %13) #3
  call void @_ZNSt7__cxx1112basic_stringIcSt11char_traitsIcESaIcEED1Ev(%"class.std::__cxx11::basic_string"* %12) #3
  call void @_ZNSt7__cxx1112basic_stringIcSt11char_traitsIcESaIcEED1Ev(%"class.std::__cxx11::basic_string"* %11) #3
  %56 = bitcast %"class.social_network::User"* %7 to %"class.apache::thrift::TBase"*
  call void @_ZN6apache6thrift5TBaseD2Ev(%"class.apache::thrift::TBase"* %56) #3
  br label %57

57:                                               ; preds = %52
  %58 = load i8*, i8** %5, align 8
  %59 = load i32, i32* %6, align 4
  %60 = insertvalue { i8*, i32 } undef, i8* %58, 0
  %61 = insertvalue { i8*, i32 } %60, i32 %59, 1
  resume { i8*, i32 } %61
}

; Function Attrs: noinline nounwind optnone uwtable
define linkonce_odr void @_ZN6apache6thrift5TBaseC2Ev(%"class.apache::thrift::TBase"* %0) unnamed_addr #1 comdat align 2 {
  %2 = alloca %"class.apache::thrift::TBase"*, align 8
  store %"class.apache::thrift::TBase"* %0, %"class.apache::thrift::TBase"** %2, align 8
  %3 = load %"class.apache::thrift::TBase"*, %"class.apache::thrift::TBase"** %2, align 8
  %4 = bitcast %"class.apache::thrift::TBase"* %3 to i32 (...)***
  store i32 (...)** bitcast (i8** getelementptr inbounds ({ [6 x i8*] }, { [6 x i8*] }* @_ZTVN6apache6thrift5TBaseE, i32 0, inrange i32 0, i32 2) to i32 (...)**), i32 (...)*** %4, align 8
  ret void
}

; Function Attrs: noinline optnone uwtable
define dereferenceable(184) %"class.social_network::User"* @_ZN14social_network4UseraSERKS0_(%"class.social_network::User"* %0, %"class.social_network::User"* dereferenceable(184) %1) #2 align 2 {
  %3 = alloca %"class.social_network::User"*, align 8
  %4 = alloca %"class.social_network::User"*, align 8
  store %"class.social_network::User"* %0, %"class.social_network::User"** %3, align 8
  store %"class.social_network::User"* %1, %"class.social_network::User"** %4, align 8
  %5 = load %"class.social_network::User"*, %"class.social_network::User"** %3, align 8
  %6 = load %"class.social_network::User"*, %"class.social_network::User"** %4, align 8
  %7 = getelementptr inbounds %"class.social_network::User", %"class.social_network::User"* %6, i32 0, i32 1
  %8 = load i64, i64* %7, align 8
  %9 = getelementptr inbounds %"class.social_network::User", %"class.social_network::User"* %5, i32 0, i32 1
  store i64 %8, i64* %9, align 8
  %10 = load %"class.social_network::User"*, %"class.social_network::User"** %4, align 8
  %11 = getelementptr inbounds %"class.social_network::User", %"class.social_network::User"* %10, i32 0, i32 2
  %12 = getelementptr inbounds %"class.social_network::User", %"class.social_network::User"* %5, i32 0, i32 2
  %13 = call dereferenceable(32) %"class.std::__cxx11::basic_string"* @_ZNSt7__cxx1112basic_stringIcSt11char_traitsIcESaIcEEaSERKS4_(%"class.std::__cxx11::basic_string"* %12, %"class.std::__cxx11::basic_string"* dereferenceable(32) %11)
  %14 = load %"class.social_network::User"*, %"class.social_network::User"** %4, align 8
  %15 = getelementptr inbounds %"class.social_network::User", %"class.social_network::User"* %14, i32 0, i32 3
  %16 = getelementptr inbounds %"class.social_network::User", %"class.social_network::User"* %5, i32 0, i32 3
  %17 = call dereferenceable(32) %"class.std::__cxx11::basic_string"* @_ZNSt7__cxx1112basic_stringIcSt11char_traitsIcESaIcEEaSERKS4_(%"class.std::__cxx11::basic_string"* %16, %"class.std::__cxx11::basic_string"* dereferenceable(32) %15)
  %18 = load %"class.social_network::User"*, %"class.social_network::User"** %4, align 8
  %19 = getelementptr inbounds %"class.social_network::User", %"class.social_network::User"* %18, i32 0, i32 4
  %20 = getelementptr inbounds %"class.social_network::User", %"class.social_network::User"* %5, i32 0, i32 4
  %21 = call dereferenceable(32) %"class.std::__cxx11::basic_string"* @_ZNSt7__cxx1112basic_stringIcSt11char_traitsIcESaIcEEaSERKS4_(%"class.std::__cxx11::basic_string"* %20, %"class.std::__cxx11::basic_string"* dereferenceable(32) %19)
  %22 = load %"class.social_network::User"*, %"class.social_network::User"** %4, align 8
  %23 = getelementptr inbounds %"class.social_network::User", %"class.social_network::User"* %22, i32 0, i32 5
  %24 = getelementptr inbounds %"class.social_network::User", %"class.social_network::User"* %5, i32 0, i32 5
  %25 = call dereferenceable(32) %"class.std::__cxx11::basic_string"* @_ZNSt7__cxx1112basic_stringIcSt11char_traitsIcESaIcEEaSERKS4_(%"class.std::__cxx11::basic_string"* %24, %"class.std::__cxx11::basic_string"* dereferenceable(32) %23)
  %26 = load %"class.social_network::User"*, %"class.social_network::User"** %4, align 8
  %27 = getelementptr inbounds %"class.social_network::User", %"class.social_network::User"* %26, i32 0, i32 6
  %28 = getelementptr inbounds %"class.social_network::User", %"class.social_network::User"* %5, i32 0, i32 6
  %29 = call dereferenceable(32) %"class.std::__cxx11::basic_string"* @_ZNSt7__cxx1112basic_stringIcSt11char_traitsIcESaIcEEaSERKS4_(%"class.std::__cxx11::basic_string"* %28, %"class.std::__cxx11::basic_string"* dereferenceable(32) %27)
  %30 = load %"class.social_network::User"*, %"class.social_network::User"** %4, align 8
  %31 = getelementptr inbounds %"class.social_network::User", %"class.social_network::User"* %30, i32 0, i32 7
  %32 = getelementptr inbounds %"class.social_network::User", %"class.social_network::User"* %5, i32 0, i32 7
  %33 = bitcast %"struct.social_network::_User__isset"* %32 to i8*
  %34 = bitcast %"struct.social_network::_User__isset"* %31 to i8*
  call void @llvm.memcpy.p0i8.p0i8.i64(i8* align 8 %33, i8* align 8 %34, i64 1, i1 false)
  ret %"class.social_network::User"* %5
}

; Function Attrs: noinline optnone uwtable
define void @_ZNK14social_network4User7printToERSo(%"class.social_network::User"* %0, %"class.std::basic_ostream"* dereferenceable(272) %1) unnamed_addr #2 align 2 personality i8* bitcast (i32 (...)* @__gxx_personality_v0 to i8*) {
  %3 = alloca %"class.social_network::User"*, align 8
  %4 = alloca %"class.std::basic_ostream"*, align 8
  %5 = alloca %"class.std::__cxx11::basic_string", align 8
  %6 = alloca i8*
  %7 = alloca i32
  %8 = alloca %"class.std::__cxx11::basic_string", align 8
  %9 = alloca %"class.std::__cxx11::basic_string", align 8
  %10 = alloca %"class.std::__cxx11::basic_string", align 8
  %11 = alloca %"class.std::__cxx11::basic_string", align 8
  %12 = alloca %"class.std::__cxx11::basic_string", align 8
  store %"class.social_network::User"* %0, %"class.social_network::User"** %3, align 8
  store %"class.std::basic_ostream"* %1, %"class.std::basic_ostream"** %4, align 8
  %13 = load %"class.social_network::User"*, %"class.social_network::User"** %3, align 8
  %14 = load %"class.std::basic_ostream"*, %"class.std::basic_ostream"** %4, align 8
  %15 = call dereferenceable(272) %"class.std::basic_ostream"* @_ZStlsISt11char_traitsIcEERSt13basic_ostreamIcT_ES5_PKc(%"class.std::basic_ostream"* dereferenceable(272) %14, i8* getelementptr inbounds ([6 x i8], [6 x i8]* @.str.20, i64 0, i64 0))
  %16 = load %"class.std::basic_ostream"*, %"class.std::basic_ostream"** %4, align 8
  %17 = call dereferenceable(272) %"class.std::basic_ostream"* @_ZStlsISt11char_traitsIcEERSt13basic_ostreamIcT_ES5_PKc(%"class.std::basic_ostream"* dereferenceable(272) %16, i8* getelementptr inbounds ([9 x i8], [9 x i8]* @.str.21, i64 0, i64 0))
  %18 = getelementptr inbounds %"class.social_network::User", %"class.social_network::User"* %13, i32 0, i32 1
  call void @_ZN6apache6thrift9to_stringIlEENSt7__cxx1112basic_stringIcSt11char_traitsIcESaIcEEERKT_(%"class.std::__cxx11::basic_string"* sret %5, i64* dereferenceable(8) %18)
  %19 = invoke dereferenceable(272) %"class.std::basic_ostream"* @_ZStlsIcSt11char_traitsIcESaIcEERSt13basic_ostreamIT_T0_ES7_RKNSt7__cxx1112basic_stringIS4_S5_T1_EE(%"class.std::basic_ostream"* dereferenceable(272) %17, %"class.std::__cxx11::basic_string"* dereferenceable(32) %5)
          to label %20 unwind label %53

20:                                               ; preds = %2
  call void @_ZNSt7__cxx1112basic_stringIcSt11char_traitsIcESaIcEED1Ev(%"class.std::__cxx11::basic_string"* %5) #3
  %21 = load %"class.std::basic_ostream"*, %"class.std::basic_ostream"** %4, align 8
  %22 = call dereferenceable(272) %"class.std::basic_ostream"* @_ZStlsISt11char_traitsIcEERSt13basic_ostreamIcT_ES5_PKc(%"class.std::basic_ostream"* dereferenceable(272) %21, i8* getelementptr inbounds ([3 x i8], [3 x i8]* @.str.22, i64 0, i64 0))
  %23 = call dereferenceable(272) %"class.std::basic_ostream"* @_ZStlsISt11char_traitsIcEERSt13basic_ostreamIcT_ES5_PKc(%"class.std::basic_ostream"* dereferenceable(272) %22, i8* getelementptr inbounds ([12 x i8], [12 x i8]* @.str.23, i64 0, i64 0))
  %24 = getelementptr inbounds %"class.social_network::User", %"class.social_network::User"* %13, i32 0, i32 2
  call void @_ZN6apache6thrift9to_stringINSt7__cxx1112basic_stringIcSt11char_traitsIcESaIcEEEEES7_RKT_(%"class.std::__cxx11::basic_string"* sret %8, %"class.std::__cxx11::basic_string"* dereferenceable(32) %24)
  %25 = invoke dereferenceable(272) %"class.std::basic_ostream"* @_ZStlsIcSt11char_traitsIcESaIcEERSt13basic_ostreamIT_T0_ES7_RKNSt7__cxx1112basic_stringIS4_S5_T1_EE(%"class.std::basic_ostream"* dereferenceable(272) %23, %"class.std::__cxx11::basic_string"* dereferenceable(32) %8)
          to label %26 unwind label %57

26:                                               ; preds = %20
  call void @_ZNSt7__cxx1112basic_stringIcSt11char_traitsIcESaIcEED1Ev(%"class.std::__cxx11::basic_string"* %8) #3
  %27 = load %"class.std::basic_ostream"*, %"class.std::basic_ostream"** %4, align 8
  %28 = call dereferenceable(272) %"class.std::basic_ostream"* @_ZStlsISt11char_traitsIcEERSt13basic_ostreamIcT_ES5_PKc(%"class.std::basic_ostream"* dereferenceable(272) %27, i8* getelementptr inbounds ([3 x i8], [3 x i8]* @.str.22, i64 0, i64 0))
  %29 = call dereferenceable(272) %"class.std::basic_ostream"* @_ZStlsISt11char_traitsIcEERSt13basic_ostreamIcT_ES5_PKc(%"class.std::basic_ostream"* dereferenceable(272) %28, i8* getelementptr inbounds ([11 x i8], [11 x i8]* @.str.24, i64 0, i64 0))
  %30 = getelementptr inbounds %"class.social_network::User", %"class.social_network::User"* %13, i32 0, i32 3
  call void @_ZN6apache6thrift9to_stringINSt7__cxx1112basic_stringIcSt11char_traitsIcESaIcEEEEES7_RKT_(%"class.std::__cxx11::basic_string"* sret %9, %"class.std::__cxx11::basic_string"* dereferenceable(32) %30)
  %31 = invoke dereferenceable(272) %"class.std::basic_ostream"* @_ZStlsIcSt11char_traitsIcESaIcEERSt13basic_ostreamIT_T0_ES7_RKNSt7__cxx1112basic_stringIS4_S5_T1_EE(%"class.std::basic_ostream"* dereferenceable(272) %29, %"class.std::__cxx11::basic_string"* dereferenceable(32) %9)
          to label %32 unwind label %61

32:                                               ; preds = %26
  call void @_ZNSt7__cxx1112basic_stringIcSt11char_traitsIcESaIcEED1Ev(%"class.std::__cxx11::basic_string"* %9) #3
  %33 = load %"class.std::basic_ostream"*, %"class.std::basic_ostream"** %4, align 8
  %34 = call dereferenceable(272) %"class.std::basic_ostream"* @_ZStlsISt11char_traitsIcEERSt13basic_ostreamIcT_ES5_PKc(%"class.std::basic_ostream"* dereferenceable(272) %33, i8* getelementptr inbounds ([3 x i8], [3 x i8]* @.str.22, i64 0, i64 0))
  %35 = call dereferenceable(272) %"class.std::basic_ostream"* @_ZStlsISt11char_traitsIcEERSt13basic_ostreamIcT_ES5_PKc(%"class.std::basic_ostream"* dereferenceable(272) %34, i8* getelementptr inbounds ([10 x i8], [10 x i8]* @.str.25, i64 0, i64 0))
  %36 = getelementptr inbounds %"class.social_network::User", %"class.social_network::User"* %13, i32 0, i32 4
  call void @_ZN6apache6thrift9to_stringINSt7__cxx1112basic_stringIcSt11char_traitsIcESaIcEEEEES7_RKT_(%"class.std::__cxx11::basic_string"* sret %10, %"class.std::__cxx11::basic_string"* dereferenceable(32) %36)
  %37 = invoke dereferenceable(272) %"class.std::basic_ostream"* @_ZStlsIcSt11char_traitsIcESaIcEERSt13basic_ostreamIT_T0_ES7_RKNSt7__cxx1112basic_stringIS4_S5_T1_EE(%"class.std::basic_ostream"* dereferenceable(272) %35, %"class.std::__cxx11::basic_string"* dereferenceable(32) %10)
          to label %38 unwind label %65

38:                                               ; preds = %32
  call void @_ZNSt7__cxx1112basic_stringIcSt11char_traitsIcESaIcEED1Ev(%"class.std::__cxx11::basic_string"* %10) #3
  %39 = load %"class.std::basic_ostream"*, %"class.std::basic_ostream"** %4, align 8
  %40 = call dereferenceable(272) %"class.std::basic_ostream"* @_ZStlsISt11char_traitsIcEERSt13basic_ostreamIcT_ES5_PKc(%"class.std::basic_ostream"* dereferenceable(272) %39, i8* getelementptr inbounds ([3 x i8], [3 x i8]* @.str.22, i64 0, i64 0))
  %41 = call dereferenceable(272) %"class.std::basic_ostream"* @_ZStlsISt11char_traitsIcEERSt13basic_ostreamIcT_ES5_PKc(%"class.std::basic_ostream"* dereferenceable(272) %40, i8* getelementptr inbounds ([17 x i8], [17 x i8]* @.str.26, i64 0, i64 0))
  %42 = getelementptr inbounds %"class.social_network::User", %"class.social_network::User"* %13, i32 0, i32 5
  call void @_ZN6apache6thrift9to_stringINSt7__cxx1112basic_stringIcSt11char_traitsIcESaIcEEEEES7_RKT_(%"class.std::__cxx11::basic_string"* sret %11, %"class.std::__cxx11::basic_string"* dereferenceable(32) %42)
  %43 = invoke dereferenceable(272) %"class.std::basic_ostream"* @_ZStlsIcSt11char_traitsIcESaIcEERSt13basic_ostreamIT_T0_ES7_RKNSt7__cxx1112basic_stringIS4_S5_T1_EE(%"class.std::basic_ostream"* dereferenceable(272) %41, %"class.std::__cxx11::basic_string"* dereferenceable(32) %11)
          to label %44 unwind label %69

44:                                               ; preds = %38
  call void @_ZNSt7__cxx1112basic_stringIcSt11char_traitsIcESaIcEED1Ev(%"class.std::__cxx11::basic_string"* %11) #3
  %45 = load %"class.std::basic_ostream"*, %"class.std::basic_ostream"** %4, align 8
  %46 = call dereferenceable(272) %"class.std::basic_ostream"* @_ZStlsISt11char_traitsIcEERSt13basic_ostreamIcT_ES5_PKc(%"class.std::basic_ostream"* dereferenceable(272) %45, i8* getelementptr inbounds ([3 x i8], [3 x i8]* @.str.22, i64 0, i64 0))
  %47 = call dereferenceable(272) %"class.std::basic_ostream"* @_ZStlsISt11char_traitsIcEERSt13basic_ostreamIcT_ES5_PKc(%"class.std::basic_ostream"* dereferenceable(272) %46, i8* getelementptr inbounds ([6 x i8], [6 x i8]* @.str.27, i64 0, i64 0))
  %48 = getelementptr inbounds %"class.social_network::User", %"class.social_network::User"* %13, i32 0, i32 6
  call void @_ZN6apache6thrift9to_stringINSt7__cxx1112basic_stringIcSt11char_traitsIcESaIcEEEEES7_RKT_(%"class.std::__cxx11::basic_string"* sret %12, %"class.std::__cxx11::basic_string"* dereferenceable(32) %48)
  %49 = invoke dereferenceable(272) %"class.std::basic_ostream"* @_ZStlsIcSt11char_traitsIcESaIcEERSt13basic_ostreamIT_T0_ES7_RKNSt7__cxx1112basic_stringIS4_S5_T1_EE(%"class.std::basic_ostream"* dereferenceable(272) %47, %"class.std::__cxx11::basic_string"* dereferenceable(32) %12)
          to label %50 unwind label %73

50:                                               ; preds = %44
  call void @_ZNSt7__cxx1112basic_stringIcSt11char_traitsIcESaIcEED1Ev(%"class.std::__cxx11::basic_string"* %12) #3
  %51 = load %"class.std::basic_ostream"*, %"class.std::basic_ostream"** %4, align 8
  %52 = call dereferenceable(272) %"class.std::basic_ostream"* @_ZStlsISt11char_traitsIcEERSt13basic_ostreamIcT_ES5_PKc(%"class.std::basic_ostream"* dereferenceable(272) %51, i8* getelementptr inbounds ([2 x i8], [2 x i8]* @.str.28, i64 0, i64 0))
  ret void

53:                                               ; preds = %2
  %54 = landingpad { i8*, i32 }
          cleanup
  %55 = extractvalue { i8*, i32 } %54, 0
  store i8* %55, i8** %6, align 8
  %56 = extractvalue { i8*, i32 } %54, 1
  store i32 %56, i32* %7, align 4
  call void @_ZNSt7__cxx1112basic_stringIcSt11char_traitsIcESaIcEED1Ev(%"class.std::__cxx11::basic_string"* %5) #3
  br label %77

57:                                               ; preds = %20
  %58 = landingpad { i8*, i32 }
          cleanup
  %59 = extractvalue { i8*, i32 } %58, 0
  store i8* %59, i8** %6, align 8
  %60 = extractvalue { i8*, i32 } %58, 1
  store i32 %60, i32* %7, align 4
  call void @_ZNSt7__cxx1112basic_stringIcSt11char_traitsIcESaIcEED1Ev(%"class.std::__cxx11::basic_string"* %8) #3
  br label %77

61:                                               ; preds = %26
  %62 = landingpad { i8*, i32 }
          cleanup
  %63 = extractvalue { i8*, i32 } %62, 0
  store i8* %63, i8** %6, align 8
  %64 = extractvalue { i8*, i32 } %62, 1
  store i32 %64, i32* %7, align 4
  call void @_ZNSt7__cxx1112basic_stringIcSt11char_traitsIcESaIcEED1Ev(%"class.std::__cxx11::basic_string"* %9) #3
  br label %77

65:                                               ; preds = %32
  %66 = landingpad { i8*, i32 }
          cleanup
  %67 = extractvalue { i8*, i32 } %66, 0
  store i8* %67, i8** %6, align 8
  %68 = extractvalue { i8*, i32 } %66, 1
  store i32 %68, i32* %7, align 4
  call void @_ZNSt7__cxx1112basic_stringIcSt11char_traitsIcESaIcEED1Ev(%"class.std::__cxx11::basic_string"* %10) #3
  br label %77

69:                                               ; preds = %38
  %70 = landingpad { i8*, i32 }
          cleanup
  %71 = extractvalue { i8*, i32 } %70, 0
  store i8* %71, i8** %6, align 8
  %72 = extractvalue { i8*, i32 } %70, 1
  store i32 %72, i32* %7, align 4
  call void @_ZNSt7__cxx1112basic_stringIcSt11char_traitsIcESaIcEED1Ev(%"class.std::__cxx11::basic_string"* %11) #3
  br label %77

73:                                               ; preds = %44
  %74 = landingpad { i8*, i32 }
          cleanup
  %75 = extractvalue { i8*, i32 } %74, 0
  store i8* %75, i8** %6, align 8
  %76 = extractvalue { i8*, i32 } %74, 1
  store i32 %76, i32* %7, align 4
  call void @_ZNSt7__cxx1112basic_stringIcSt11char_traitsIcESaIcEED1Ev(%"class.std::__cxx11::basic_string"* %12) #3
  br label %77

77:                                               ; preds = %73, %69, %65, %61, %57, %53
  %78 = load i8*, i8** %6, align 8
  %79 = load i32, i32* %7, align 4
  %80 = insertvalue { i8*, i32 } undef, i8* %78, 0
  %81 = insertvalue { i8*, i32 } %80, i32 %79, 1
  resume { i8*, i32 } %81
}

declare dereferenceable(272) %"class.std::basic_ostream"* @_ZStlsIcSt11char_traitsIcESaIcEERSt13basic_ostreamIT_T0_ES7_RKNSt7__cxx1112basic_stringIS4_S5_T1_EE(%"class.std::basic_ostream"* dereferenceable(272), %"class.std::__cxx11::basic_string"* dereferenceable(32)) #4

; Function Attrs: noinline optnone uwtable
define linkonce_odr void @_ZN6apache6thrift9to_stringIlEENSt7__cxx1112basic_stringIcSt11char_traitsIcESaIcEEERKT_(%"class.std::__cxx11::basic_string"* noalias sret %0, i64* dereferenceable(8) %1) #2 comdat personality i8* bitcast (i32 (...)* @__gxx_personality_v0 to i8*) {
  %3 = alloca i8*, align 8
  %4 = alloca i64*, align 8
  %5 = alloca %"class.std::__cxx11::basic_ostringstream", align 8
  %6 = alloca i8*
  %7 = alloca i32
  %8 = bitcast %"class.std::__cxx11::basic_string"* %0 to i8*
  store i8* %8, i8** %3, align 8
  store i64* %1, i64** %4, align 8
  call void @_ZNSt7__cxx1119basic_ostringstreamIcSt11char_traitsIcESaIcEEC1Ev(%"class.std::__cxx11::basic_ostringstream"* %5)
  %9 = bitcast %"class.std::__cxx11::basic_ostringstream"* %5 to %"class.std::basic_ostream"*
  %10 = load i64*, i64** %4, align 8
  %11 = load i64, i64* %10, align 8
  %12 = invoke dereferenceable(272) %"class.std::basic_ostream"* @_ZNSolsEl(%"class.std::basic_ostream"* %9, i64 %11)
          to label %13 unwind label %15

13:                                               ; preds = %2
  invoke void @_ZNKSt7__cxx1119basic_ostringstreamIcSt11char_traitsIcESaIcEE3strEv(%"class.std::__cxx11::basic_string"* sret %0, %"class.std::__cxx11::basic_ostringstream"* %5)
          to label %14 unwind label %15

14:                                               ; preds = %13
  call void @_ZNSt7__cxx1119basic_ostringstreamIcSt11char_traitsIcESaIcEED1Ev(%"class.std::__cxx11::basic_ostringstream"* %5) #3
  ret void

15:                                               ; preds = %13, %2
  %16 = landingpad { i8*, i32 }
          cleanup
  %17 = extractvalue { i8*, i32 } %16, 0
  store i8* %17, i8** %6, align 8
  %18 = extractvalue { i8*, i32 } %16, 1
  store i32 %18, i32* %7, align 4
  call void @_ZNSt7__cxx1119basic_ostringstreamIcSt11char_traitsIcESaIcEED1Ev(%"class.std::__cxx11::basic_ostringstream"* %5) #3
  br label %19

19:                                               ; preds = %15
  %20 = load i8*, i8** %6, align 8
  %21 = load i32, i32* %7, align 4
  %22 = insertvalue { i8*, i32 } undef, i8* %20, 0
  %23 = insertvalue { i8*, i32 } %22, i32 %21, 1
  resume { i8*, i32 } %23
}

; Function Attrs: noinline optnone uwtable
define linkonce_odr void @_ZN6apache6thrift9to_stringINSt7__cxx1112basic_stringIcSt11char_traitsIcESaIcEEEEES7_RKT_(%"class.std::__cxx11::basic_string"* noalias sret %0, %"class.std::__cxx11::basic_string"* dereferenceable(32) %1) #2 comdat personality i8* bitcast (i32 (...)* @__gxx_personality_v0 to i8*) {
  %3 = alloca i8*, align 8
  %4 = alloca %"class.std::__cxx11::basic_string"*, align 8
  %5 = alloca %"class.std::__cxx11::basic_ostringstream", align 8
  %6 = alloca i8*
  %7 = alloca i32
  %8 = bitcast %"class.std::__cxx11::basic_string"* %0 to i8*
  store i8* %8, i8** %3, align 8
  store %"class.std::__cxx11::basic_string"* %1, %"class.std::__cxx11::basic_string"** %4, align 8
  call void @_ZNSt7__cxx1119basic_ostringstreamIcSt11char_traitsIcESaIcEEC1Ev(%"class.std::__cxx11::basic_ostringstream"* %5)
  %9 = bitcast %"class.std::__cxx11::basic_ostringstream"* %5 to %"class.std::basic_ostream"*
  %10 = load %"class.std::__cxx11::basic_string"*, %"class.std::__cxx11::basic_string"** %4, align 8
  %11 = invoke dereferenceable(272) %"class.std::basic_ostream"* @_ZStlsIcSt11char_traitsIcESaIcEERSt13basic_ostreamIT_T0_ES7_RKNSt7__cxx1112basic_stringIS4_S5_T1_EE(%"class.std::basic_ostream"* dereferenceable(272) %9, %"class.std::__cxx11::basic_string"* dereferenceable(32) %10)
          to label %12 unwind label %14

12:                                               ; preds = %2
  invoke void @_ZNKSt7__cxx1119basic_ostringstreamIcSt11char_traitsIcESaIcEE3strEv(%"class.std::__cxx11::basic_string"* sret %0, %"class.std::__cxx11::basic_ostringstream"* %5)
          to label %13 unwind label %14

13:                                               ; preds = %12
  call void @_ZNSt7__cxx1119basic_ostringstreamIcSt11char_traitsIcESaIcEED1Ev(%"class.std::__cxx11::basic_ostringstream"* %5) #3
  ret void

14:                                               ; preds = %12, %2
  %15 = landingpad { i8*, i32 }
          cleanup
  %16 = extractvalue { i8*, i32 } %15, 0
  store i8* %16, i8** %6, align 8
  %17 = extractvalue { i8*, i32 } %15, 1
  store i32 %17, i32* %7, align 4
  call void @_ZNSt7__cxx1119basic_ostringstreamIcSt11char_traitsIcESaIcEED1Ev(%"class.std::__cxx11::basic_ostringstream"* %5) #3
  br label %18

18:                                               ; preds = %14
  %19 = load i8*, i8** %6, align 8
  %20 = load i32, i32* %7, align 4
  %21 = insertvalue { i8*, i32 } undef, i8* %19, 0
  %22 = insertvalue { i8*, i32 } %21, i32 %20, 1
  resume { i8*, i32 } %22
}

; Function Attrs: noinline nounwind optnone uwtable
define void @_ZN14social_network16ServiceExceptionD2Ev(%"class.social_network::ServiceException"* %0) unnamed_addr #1 align 2 {
  %2 = alloca %"class.social_network::ServiceException"*, align 8
  store %"class.social_network::ServiceException"* %0, %"class.social_network::ServiceException"** %2, align 8
  %3 = load %"class.social_network::ServiceException"*, %"class.social_network::ServiceException"** %2, align 8
  %4 = bitcast %"class.social_network::ServiceException"* %3 to i32 (...)***
  store i32 (...)** bitcast (i8** getelementptr inbounds ({ [6 x i8*] }, { [6 x i8*] }* @_ZTVN14social_network16ServiceExceptionE, i32 0, inrange i32 0, i32 2) to i32 (...)**), i32 (...)*** %4, align 8
  %5 = getelementptr inbounds %"class.social_network::ServiceException", %"class.social_network::ServiceException"* %3, i32 0, i32 4
  call void @_ZNSt7__cxx1112basic_stringIcSt11char_traitsIcESaIcEED1Ev(%"class.std::__cxx11::basic_string"* %5) #3
  %6 = getelementptr inbounds %"class.social_network::ServiceException", %"class.social_network::ServiceException"* %3, i32 0, i32 2
  call void @_ZNSt7__cxx1112basic_stringIcSt11char_traitsIcESaIcEED1Ev(%"class.std::__cxx11::basic_string"* %6) #3
  %7 = bitcast %"class.social_network::ServiceException"* %3 to %"class.apache::thrift::TException"*
  call void @_ZN6apache6thrift10TExceptionD2Ev(%"class.apache::thrift::TException"* %7) #3
  ret void
}

; Function Attrs: noinline nounwind optnone uwtable
define void @_ZN14social_network16ServiceExceptionD0Ev(%"class.social_network::ServiceException"* %0) unnamed_addr #1 align 2 {
  %2 = alloca %"class.social_network::ServiceException"*, align 8
  store %"class.social_network::ServiceException"* %0, %"class.social_network::ServiceException"** %2, align 8
  %3 = load %"class.social_network::ServiceException"*, %"class.social_network::ServiceException"** %2, align 8
  call void @_ZN14social_network16ServiceExceptionD1Ev(%"class.social_network::ServiceException"* %3) #3
  %4 = bitcast %"class.social_network::ServiceException"* %3 to i8*
  call void @_ZdlPv(i8* %4) #16
  ret void
}

; Function Attrs: noinline nounwind optnone uwtable
define void @_ZN14social_network16ServiceException15__set_errorCodeENS_9ErrorCode4typeE(%"class.social_network::ServiceException"* %0, i32 %1) #1 align 2 {
  %3 = alloca %"class.social_network::ServiceException"*, align 8
  %4 = alloca i32, align 4
  store %"class.social_network::ServiceException"* %0, %"class.social_network::ServiceException"** %3, align 8
  store i32 %1, i32* %4, align 4
  %5 = load %"class.social_network::ServiceException"*, %"class.social_network::ServiceException"** %3, align 8
  %6 = load i32, i32* %4, align 4
  %7 = getelementptr inbounds %"class.social_network::ServiceException", %"class.social_network::ServiceException"* %5, i32 0, i32 1
  store i32 %6, i32* %7, align 8
  ret void
}

; Function Attrs: noinline optnone uwtable
define void @_ZN14social_network16ServiceException13__set_messageERKNSt7__cxx1112basic_stringIcSt11char_traitsIcESaIcEEE(%"class.social_network::ServiceException"* %0, %"class.std::__cxx11::basic_string"* dereferenceable(32) %1) #2 align 2 {
  %3 = alloca %"class.social_network::ServiceException"*, align 8
  %4 = alloca %"class.std::__cxx11::basic_string"*, align 8
  store %"class.social_network::ServiceException"* %0, %"class.social_network::ServiceException"** %3, align 8
  store %"class.std::__cxx11::basic_string"* %1, %"class.std::__cxx11::basic_string"** %4, align 8
  %5 = load %"class.social_network::ServiceException"*, %"class.social_network::ServiceException"** %3, align 8
  %6 = load %"class.std::__cxx11::basic_string"*, %"class.std::__cxx11::basic_string"** %4, align 8
  %7 = getelementptr inbounds %"class.social_network::ServiceException", %"class.social_network::ServiceException"* %5, i32 0, i32 2
  %8 = call dereferenceable(32) %"class.std::__cxx11::basic_string"* @_ZNSt7__cxx1112basic_stringIcSt11char_traitsIcESaIcEEaSERKS4_(%"class.std::__cxx11::basic_string"* %7, %"class.std::__cxx11::basic_string"* dereferenceable(32) %6)
  ret void
}

; Function Attrs: noinline optnone uwtable
define dereferenceable(272) %"class.std::basic_ostream"* @_ZN14social_networklsERSoRKNS_16ServiceExceptionE(%"class.std::basic_ostream"* dereferenceable(272) %0, %"class.social_network::ServiceException"* dereferenceable(120) %1) #2 {
  %3 = alloca %"class.std::basic_ostream"*, align 8
  %4 = alloca %"class.social_network::ServiceException"*, align 8
  store %"class.std::basic_ostream"* %0, %"class.std::basic_ostream"** %3, align 8
  store %"class.social_network::ServiceException"* %1, %"class.social_network::ServiceException"** %4, align 8
  %5 = load %"class.social_network::ServiceException"*, %"class.social_network::ServiceException"** %4, align 8
  %6 = load %"class.std::basic_ostream"*, %"class.std::basic_ostream"** %3, align 8
  %7 = bitcast %"class.social_network::ServiceException"* %5 to void (%"class.social_network::ServiceException"*, %"class.std::basic_ostream"*)***
  %8 = load void (%"class.social_network::ServiceException"*, %"class.std::basic_ostream"*)**, void (%"class.social_network::ServiceException"*, %"class.std::basic_ostream"*)*** %7, align 8
  %9 = getelementptr inbounds void (%"class.social_network::ServiceException"*, %"class.std::basic_ostream"*)*, void (%"class.social_network::ServiceException"*, %"class.std::basic_ostream"*)** %8, i64 3
  %10 = load void (%"class.social_network::ServiceException"*, %"class.std::basic_ostream"*)*, void (%"class.social_network::ServiceException"*, %"class.std::basic_ostream"*)** %9, align 8
  call void %10(%"class.social_network::ServiceException"* %5, %"class.std::basic_ostream"* dereferenceable(272) %6)
  %11 = load %"class.std::basic_ostream"*, %"class.std::basic_ostream"** %3, align 8
  ret %"class.std::basic_ostream"* %11
}

; Function Attrs: noinline optnone uwtable
define i32 @_ZN14social_network16ServiceException4readEPN6apache6thrift8protocol9TProtocolE(%"class.social_network::ServiceException"* %0, %"class.apache::thrift::protocol::TProtocol"* %1) #2 align 2 personality i8* bitcast (i32 (...)* @__gxx_personality_v0 to i8*) {
  %3 = alloca %"class.social_network::ServiceException"*, align 8
  %4 = alloca %"class.apache::thrift::protocol::TProtocol"*, align 8
  %5 = alloca %"struct.apache::thrift::protocol::TInputRecursionTracker", align 8
  %6 = alloca i32, align 4
  %7 = alloca %"class.std::__cxx11::basic_string", align 8
  %8 = alloca i32, align 4
  %9 = alloca i16, align 2
  %10 = alloca i8*
  %11 = alloca i32
  %12 = alloca i32, align 4
  store %"class.social_network::ServiceException"* %0, %"class.social_network::ServiceException"** %3, align 8
  store %"class.apache::thrift::protocol::TProtocol"* %1, %"class.apache::thrift::protocol::TProtocol"** %4, align 8
  %13 = load %"class.social_network::ServiceException"*, %"class.social_network::ServiceException"** %3, align 8
  %14 = load %"class.apache::thrift::protocol::TProtocol"*, %"class.apache::thrift::protocol::TProtocol"** %4, align 8
  call void @_ZN6apache6thrift8protocol22TInputRecursionTrackerC2ERNS1_9TProtocolE(%"struct.apache::thrift::protocol::TInputRecursionTracker"* %5, %"class.apache::thrift::protocol::TProtocol"* dereferenceable(40) %14)
  store i32 0, i32* %6, align 4
  call void @_ZNSt7__cxx1112basic_stringIcSt11char_traitsIcESaIcEEC1Ev(%"class.std::__cxx11::basic_string"* %7) #3
  %15 = load %"class.apache::thrift::protocol::TProtocol"*, %"class.apache::thrift::protocol::TProtocol"** %4, align 8
  %16 = invoke i32 @_ZN6apache6thrift8protocol9TProtocol15readStructBeginERNSt7__cxx1112basic_stringIcSt11char_traitsIcESaIcEEE(%"class.apache::thrift::protocol::TProtocol"* %15, %"class.std::__cxx11::basic_string"* dereferenceable(32) %7)
          to label %17 unwind label %30

17:                                               ; preds = %2
  %18 = load i32, i32* %6, align 4
  %19 = add i32 %18, %16
  store i32 %19, i32* %6, align 4
  br label %20

20:                                               ; preds = %94, %17
  br label %21

21:                                               ; preds = %20
  %22 = load %"class.apache::thrift::protocol::TProtocol"*, %"class.apache::thrift::protocol::TProtocol"** %4, align 8
  %23 = invoke i32 @_ZN6apache6thrift8protocol9TProtocol14readFieldBeginERNSt7__cxx1112basic_stringIcSt11char_traitsIcESaIcEEERNS1_5TTypeERs(%"class.apache::thrift::protocol::TProtocol"* %22, %"class.std::__cxx11::basic_string"* dereferenceable(32) %7, i32* dereferenceable(4) %8, i16* dereferenceable(2) %9)
          to label %24 unwind label %30

24:                                               ; preds = %21
  %25 = load i32, i32* %6, align 4
  %26 = add i32 %25, %23
  store i32 %26, i32* %6, align 4
  %27 = load i32, i32* %8, align 4
  %28 = icmp eq i32 %27, 0
  br i1 %28, label %29, label %34

29:                                               ; preds = %24
  br label %97

30:                                               ; preds = %97, %91, %84, %76, %64, %53, %40, %21, %2
  %31 = landingpad { i8*, i32 }
          cleanup
  %32 = extractvalue { i8*, i32 } %31, 0
  store i8* %32, i8** %10, align 8
  %33 = extractvalue { i8*, i32 } %31, 1
  store i32 %33, i32* %11, align 4
  call void @_ZNSt7__cxx1112basic_stringIcSt11char_traitsIcESaIcEED1Ev(%"class.std::__cxx11::basic_string"* %7) #3
  call void @_ZN6apache6thrift8protocol22TInputRecursionTrackerD2Ev(%"struct.apache::thrift::protocol::TInputRecursionTracker"* %5) #3
  br label %104

34:                                               ; preds = %24
  %35 = load i16, i16* %9, align 2
  %36 = sext i16 %35 to i32
  switch i32 %36, label %84 [
    i32 1, label %37
    i32 2, label %61
  ]

37:                                               ; preds = %34
  %38 = load i32, i32* %8, align 4
  %39 = icmp eq i32 %38, 8
  br i1 %39, label %40, label %53

40:                                               ; preds = %37
  %41 = load %"class.apache::thrift::protocol::TProtocol"*, %"class.apache::thrift::protocol::TProtocol"** %4, align 8
  %42 = invoke i32 @_ZN6apache6thrift8protocol9TProtocol7readI32ERi(%"class.apache::thrift::protocol::TProtocol"* %41, i32* dereferenceable(4) %12)
          to label %43 unwind label %30

43:                                               ; preds = %40
  %44 = load i32, i32* %6, align 4
  %45 = add i32 %44, %42
  store i32 %45, i32* %6, align 4
  %46 = load i32, i32* %12, align 4
  %47 = getelementptr inbounds %"class.social_network::ServiceException", %"class.social_network::ServiceException"* %13, i32 0, i32 1
  store i32 %46, i32* %47, align 8
  %48 = getelementptr inbounds %"class.social_network::ServiceException", %"class.social_network::ServiceException"* %13, i32 0, i32 3
  %49 = bitcast %"struct.social_network::_ServiceException__isset"* %48 to i8*
  %50 = load i8, i8* %49, align 8
  %51 = and i8 %50, -2
  %52 = or i8 %51, 1
  store i8 %52, i8* %49, align 8
  br label %60

53:                                               ; preds = %37
  %54 = load %"class.apache::thrift::protocol::TProtocol"*, %"class.apache::thrift::protocol::TProtocol"** %4, align 8
  %55 = load i32, i32* %8, align 4
  %56 = invoke i32 @_ZN6apache6thrift8protocol9TProtocol4skipENS1_5TTypeE(%"class.apache::thrift::protocol::TProtocol"* %54, i32 %55)
          to label %57 unwind label %30

57:                                               ; preds = %53
  %58 = load i32, i32* %6, align 4
  %59 = add i32 %58, %56
  store i32 %59, i32* %6, align 4
  br label %60

60:                                               ; preds = %57, %43
  br label %91

61:                                               ; preds = %34
  %62 = load i32, i32* %8, align 4
  %63 = icmp eq i32 %62, 11
  br i1 %63, label %64, label %76

64:                                               ; preds = %61
  %65 = load %"class.apache::thrift::protocol::TProtocol"*, %"class.apache::thrift::protocol::TProtocol"** %4, align 8
  %66 = getelementptr inbounds %"class.social_network::ServiceException", %"class.social_network::ServiceException"* %13, i32 0, i32 2
  %67 = invoke i32 @_ZN6apache6thrift8protocol9TProtocol10readStringERNSt7__cxx1112basic_stringIcSt11char_traitsIcESaIcEEE(%"class.apache::thrift::protocol::TProtocol"* %65, %"class.std::__cxx11::basic_string"* dereferenceable(32) %66)
          to label %68 unwind label %30

68:                                               ; preds = %64
  %69 = load i32, i32* %6, align 4
  %70 = add i32 %69, %67
  store i32 %70, i32* %6, align 4
  %71 = getelementptr inbounds %"class.social_network::ServiceException", %"class.social_network::ServiceException"* %13, i32 0, i32 3
  %72 = bitcast %"struct.social_network::_ServiceException__isset"* %71 to i8*
  %73 = load i8, i8* %72, align 8
  %74 = and i8 %73, -3
  %75 = or i8 %74, 2
  store i8 %75, i8* %72, align 8
  br label %83

76:                                               ; preds = %61
  %77 = load %"class.apache::thrift::protocol::TProtocol"*, %"class.apache::thrift::protocol::TProtocol"** %4, align 8
  %78 = load i32, i32* %8, align 4
  %79 = invoke i32 @_ZN6apache6thrift8protocol9TProtocol4skipENS1_5TTypeE(%"class.apache::thrift::protocol::TProtocol"* %77, i32 %78)
          to label %80 unwind label %30

80:                                               ; preds = %76
  %81 = load i32, i32* %6, align 4
  %82 = add i32 %81, %79
  store i32 %82, i32* %6, align 4
  br label %83

83:                                               ; preds = %80, %68
  br label %91

84:                                               ; preds = %34
  %85 = load %"class.apache::thrift::protocol::TProtocol"*, %"class.apache::thrift::protocol::TProtocol"** %4, align 8
  %86 = load i32, i32* %8, align 4
  %87 = invoke i32 @_ZN6apache6thrift8protocol9TProtocol4skipENS1_5TTypeE(%"class.apache::thrift::protocol::TProtocol"* %85, i32 %86)
          to label %88 unwind label %30

88:                                               ; preds = %84
  %89 = load i32, i32* %6, align 4
  %90 = add i32 %89, %87
  store i32 %90, i32* %6, align 4
  br label %91

91:                                               ; preds = %88, %83, %60
  %92 = load %"class.apache::thrift::protocol::TProtocol"*, %"class.apache::thrift::protocol::TProtocol"** %4, align 8
  %93 = invoke i32 @_ZN6apache6thrift8protocol9TProtocol12readFieldEndEv(%"class.apache::thrift::protocol::TProtocol"* %92)
          to label %94 unwind label %30

94:                                               ; preds = %91
  %95 = load i32, i32* %6, align 4
  %96 = add i32 %95, %93
  store i32 %96, i32* %6, align 4
  br label %20

97:                                               ; preds = %29
  %98 = load %"class.apache::thrift::protocol::TProtocol"*, %"class.apache::thrift::protocol::TProtocol"** %4, align 8
  %99 = invoke i32 @_ZN6apache6thrift8protocol9TProtocol13readStructEndEv(%"class.apache::thrift::protocol::TProtocol"* %98)
          to label %100 unwind label %30

100:                                              ; preds = %97
  %101 = load i32, i32* %6, align 4
  %102 = add i32 %101, %99
  store i32 %102, i32* %6, align 4
  %103 = load i32, i32* %6, align 4
  call void @_ZNSt7__cxx1112basic_stringIcSt11char_traitsIcESaIcEED1Ev(%"class.std::__cxx11::basic_string"* %7) #3
  call void @_ZN6apache6thrift8protocol22TInputRecursionTrackerD2Ev(%"struct.apache::thrift::protocol::TInputRecursionTracker"* %5) #3
  ret i32 %103

104:                                              ; preds = %30
  %105 = load i8*, i8** %10, align 8
  %106 = load i32, i32* %11, align 4
  %107 = insertvalue { i8*, i32 } undef, i8* %105, 0
  %108 = insertvalue { i8*, i32 } %107, i32 %106, 1
  resume { i8*, i32 } %108
}

; Function Attrs: noinline optnone uwtable
define linkonce_odr i32 @_ZN6apache6thrift8protocol9TProtocol7readI32ERi(%"class.apache::thrift::protocol::TProtocol"* %0, i32* dereferenceable(4) %1) #2 comdat align 2 {
  %3 = alloca %"class.apache::thrift::protocol::TProtocol"*, align 8
  %4 = alloca i32*, align 8
  store %"class.apache::thrift::protocol::TProtocol"* %0, %"class.apache::thrift::protocol::TProtocol"** %3, align 8
  store i32* %1, i32** %4, align 8
  %5 = load %"class.apache::thrift::protocol::TProtocol"*, %"class.apache::thrift::protocol::TProtocol"** %3, align 8
  %6 = load i32*, i32** %4, align 8
  %7 = bitcast %"class.apache::thrift::protocol::TProtocol"* %5 to i32 (%"class.apache::thrift::protocol::TProtocol"*, i32*)***
  %8 = load i32 (%"class.apache::thrift::protocol::TProtocol"*, i32*)**, i32 (%"class.apache::thrift::protocol::TProtocol"*, i32*)*** %7, align 8
  %9 = getelementptr inbounds i32 (%"class.apache::thrift::protocol::TProtocol"*, i32*)*, i32 (%"class.apache::thrift::protocol::TProtocol"*, i32*)** %8, i64 39
  %10 = load i32 (%"class.apache::thrift::protocol::TProtocol"*, i32*)*, i32 (%"class.apache::thrift::protocol::TProtocol"*, i32*)** %9, align 8
  %11 = call i32 %10(%"class.apache::thrift::protocol::TProtocol"* %5, i32* dereferenceable(4) %6)
  ret i32 %11
}

; Function Attrs: noinline optnone uwtable
define i32 @_ZNK14social_network16ServiceException5writeEPN6apache6thrift8protocol9TProtocolE(%"class.social_network::ServiceException"* %0, %"class.apache::thrift::protocol::TProtocol"* %1) #2 align 2 personality i8* bitcast (i32 (...)* @__gxx_personality_v0 to i8*) {
  %3 = alloca %"class.social_network::ServiceException"*, align 8
  %4 = alloca %"class.apache::thrift::protocol::TProtocol"*, align 8
  %5 = alloca i32, align 4
  %6 = alloca %"struct.apache::thrift::protocol::TOutputRecursionTracker", align 8
  %7 = alloca i8*
  %8 = alloca i32
  store %"class.social_network::ServiceException"* %0, %"class.social_network::ServiceException"** %3, align 8
  store %"class.apache::thrift::protocol::TProtocol"* %1, %"class.apache::thrift::protocol::TProtocol"** %4, align 8
  %9 = load %"class.social_network::ServiceException"*, %"class.social_network::ServiceException"** %3, align 8
  store i32 0, i32* %5, align 4
  %10 = load %"class.apache::thrift::protocol::TProtocol"*, %"class.apache::thrift::protocol::TProtocol"** %4, align 8
  call void @_ZN6apache6thrift8protocol23TOutputRecursionTrackerC2ERNS1_9TProtocolE(%"struct.apache::thrift::protocol::TOutputRecursionTracker"* %6, %"class.apache::thrift::protocol::TProtocol"* dereferenceable(40) %10)
  %11 = load %"class.apache::thrift::protocol::TProtocol"*, %"class.apache::thrift::protocol::TProtocol"** %4, align 8
  %12 = invoke i32 @_ZN6apache6thrift8protocol9TProtocol16writeStructBeginEPKc(%"class.apache::thrift::protocol::TProtocol"* %11, i8* getelementptr inbounds ([17 x i8], [17 x i8]* @.str.29, i64 0, i64 0))
          to label %13 unwind label %60

13:                                               ; preds = %2
  %14 = load i32, i32* %5, align 4
  %15 = add i32 %14, %12
  store i32 %15, i32* %5, align 4
  %16 = load %"class.apache::thrift::protocol::TProtocol"*, %"class.apache::thrift::protocol::TProtocol"** %4, align 8
  %17 = invoke i32 @_ZN6apache6thrift8protocol9TProtocol15writeFieldBeginEPKcNS1_5TTypeEs(%"class.apache::thrift::protocol::TProtocol"* %16, i8* getelementptr inbounds ([10 x i8], [10 x i8]* @.str.30, i64 0, i64 0), i32 8, i16 signext 1)
          to label %18 unwind label %60

18:                                               ; preds = %13
  %19 = load i32, i32* %5, align 4
  %20 = add i32 %19, %17
  store i32 %20, i32* %5, align 4
  %21 = load %"class.apache::thrift::protocol::TProtocol"*, %"class.apache::thrift::protocol::TProtocol"** %4, align 8
  %22 = getelementptr inbounds %"class.social_network::ServiceException", %"class.social_network::ServiceException"* %9, i32 0, i32 1
  %23 = load i32, i32* %22, align 8
  %24 = invoke i32 @_ZN6apache6thrift8protocol9TProtocol8writeI32Ei(%"class.apache::thrift::protocol::TProtocol"* %21, i32 %23)
          to label %25 unwind label %60

25:                                               ; preds = %18
  %26 = load i32, i32* %5, align 4
  %27 = add i32 %26, %24
  store i32 %27, i32* %5, align 4
  %28 = load %"class.apache::thrift::protocol::TProtocol"*, %"class.apache::thrift::protocol::TProtocol"** %4, align 8
  %29 = invoke i32 @_ZN6apache6thrift8protocol9TProtocol13writeFieldEndEv(%"class.apache::thrift::protocol::TProtocol"* %28)
          to label %30 unwind label %60

30:                                               ; preds = %25
  %31 = load i32, i32* %5, align 4
  %32 = add i32 %31, %29
  store i32 %32, i32* %5, align 4
  %33 = load %"class.apache::thrift::protocol::TProtocol"*, %"class.apache::thrift::protocol::TProtocol"** %4, align 8
  %34 = invoke i32 @_ZN6apache6thrift8protocol9TProtocol15writeFieldBeginEPKcNS1_5TTypeEs(%"class.apache::thrift::protocol::TProtocol"* %33, i8* getelementptr inbounds ([8 x i8], [8 x i8]* @.str.31, i64 0, i64 0), i32 11, i16 signext 2)
          to label %35 unwind label %60

35:                                               ; preds = %30
  %36 = load i32, i32* %5, align 4
  %37 = add i32 %36, %34
  store i32 %37, i32* %5, align 4
  %38 = load %"class.apache::thrift::protocol::TProtocol"*, %"class.apache::thrift::protocol::TProtocol"** %4, align 8
  %39 = getelementptr inbounds %"class.social_network::ServiceException", %"class.social_network::ServiceException"* %9, i32 0, i32 2
  %40 = invoke i32 @_ZN6apache6thrift8protocol9TProtocol11writeStringERKNSt7__cxx1112basic_stringIcSt11char_traitsIcESaIcEEE(%"class.apache::thrift::protocol::TProtocol"* %38, %"class.std::__cxx11::basic_string"* dereferenceable(32) %39)
          to label %41 unwind label %60

41:                                               ; preds = %35
  %42 = load i32, i32* %5, align 4
  %43 = add i32 %42, %40
  store i32 %43, i32* %5, align 4
  %44 = load %"class.apache::thrift::protocol::TProtocol"*, %"class.apache::thrift::protocol::TProtocol"** %4, align 8
  %45 = invoke i32 @_ZN6apache6thrift8protocol9TProtocol13writeFieldEndEv(%"class.apache::thrift::protocol::TProtocol"* %44)
          to label %46 unwind label %60

46:                                               ; preds = %41
  %47 = load i32, i32* %5, align 4
  %48 = add i32 %47, %45
  store i32 %48, i32* %5, align 4
  %49 = load %"class.apache::thrift::protocol::TProtocol"*, %"class.apache::thrift::protocol::TProtocol"** %4, align 8
  %50 = invoke i32 @_ZN6apache6thrift8protocol9TProtocol14writeFieldStopEv(%"class.apache::thrift::protocol::TProtocol"* %49)
          to label %51 unwind label %60

51:                                               ; preds = %46
  %52 = load i32, i32* %5, align 4
  %53 = add i32 %52, %50
  store i32 %53, i32* %5, align 4
  %54 = load %"class.apache::thrift::protocol::TProtocol"*, %"class.apache::thrift::protocol::TProtocol"** %4, align 8
  %55 = invoke i32 @_ZN6apache6thrift8protocol9TProtocol14writeStructEndEv(%"class.apache::thrift::protocol::TProtocol"* %54)
          to label %56 unwind label %60

56:                                               ; preds = %51
  %57 = load i32, i32* %5, align 4
  %58 = add i32 %57, %55
  store i32 %58, i32* %5, align 4
  %59 = load i32, i32* %5, align 4
  call void @_ZN6apache6thrift8protocol23TOutputRecursionTrackerD2Ev(%"struct.apache::thrift::protocol::TOutputRecursionTracker"* %6) #3
  ret i32 %59

60:                                               ; preds = %51, %46, %41, %35, %30, %25, %18, %13, %2
  %61 = landingpad { i8*, i32 }
          cleanup
  %62 = extractvalue { i8*, i32 } %61, 0
  store i8* %62, i8** %7, align 8
  %63 = extractvalue { i8*, i32 } %61, 1
  store i32 %63, i32* %8, align 4
  call void @_ZN6apache6thrift8protocol23TOutputRecursionTrackerD2Ev(%"struct.apache::thrift::protocol::TOutputRecursionTracker"* %6) #3
  br label %64

64:                                               ; preds = %60
  %65 = load i8*, i8** %7, align 8
  %66 = load i32, i32* %8, align 4
  %67 = insertvalue { i8*, i32 } undef, i8* %65, 0
  %68 = insertvalue { i8*, i32 } %67, i32 %66, 1
  resume { i8*, i32 } %68
}

; Function Attrs: noinline optnone uwtable
define linkonce_odr i32 @_ZN6apache6thrift8protocol9TProtocol8writeI32Ei(%"class.apache::thrift::protocol::TProtocol"* %0, i32 %1) #2 comdat align 2 {
  %3 = alloca %"class.apache::thrift::protocol::TProtocol"*, align 8
  %4 = alloca i32, align 4
  store %"class.apache::thrift::protocol::TProtocol"* %0, %"class.apache::thrift::protocol::TProtocol"** %3, align 8
  store i32 %1, i32* %4, align 4
  %5 = load %"class.apache::thrift::protocol::TProtocol"*, %"class.apache::thrift::protocol::TProtocol"** %3, align 8
  %6 = load i32, i32* %4, align 4
  %7 = bitcast %"class.apache::thrift::protocol::TProtocol"* %5 to i32 (%"class.apache::thrift::protocol::TProtocol"*, i32)***
  %8 = load i32 (%"class.apache::thrift::protocol::TProtocol"*, i32)**, i32 (%"class.apache::thrift::protocol::TProtocol"*, i32)*** %7, align 8
  %9 = getelementptr inbounds i32 (%"class.apache::thrift::protocol::TProtocol"*, i32)*, i32 (%"class.apache::thrift::protocol::TProtocol"*, i32)** %8, i64 18
  %10 = load i32 (%"class.apache::thrift::protocol::TProtocol"*, i32)*, i32 (%"class.apache::thrift::protocol::TProtocol"*, i32)** %9, align 8
  %11 = call i32 %10(%"class.apache::thrift::protocol::TProtocol"* %5, i32 %6)
  ret i32 %11
}

; Function Attrs: noinline nounwind optnone uwtable
define void @_ZN14social_network4swapERNS_16ServiceExceptionES1_(%"class.social_network::ServiceException"* dereferenceable(120) %0, %"class.social_network::ServiceException"* dereferenceable(120) %1) #1 {
  %3 = alloca %"class.social_network::ServiceException"*, align 8
  %4 = alloca %"class.social_network::ServiceException"*, align 8
  store %"class.social_network::ServiceException"* %0, %"class.social_network::ServiceException"** %3, align 8
  store %"class.social_network::ServiceException"* %1, %"class.social_network::ServiceException"** %4, align 8
  %5 = load %"class.social_network::ServiceException"*, %"class.social_network::ServiceException"** %3, align 8
  %6 = getelementptr inbounds %"class.social_network::ServiceException", %"class.social_network::ServiceException"* %5, i32 0, i32 1
  %7 = load %"class.social_network::ServiceException"*, %"class.social_network::ServiceException"** %4, align 8
  %8 = getelementptr inbounds %"class.social_network::ServiceException", %"class.social_network::ServiceException"* %7, i32 0, i32 1
  call void @_ZSt4swapIN14social_network9ErrorCode4typeEENSt9enable_ifIXsr6__and_ISt6__not_ISt15__is_tuple_likeIT_EESt21is_move_constructibleIS6_ESt18is_move_assignableIS6_EEE5valueEvE4typeERS6_SF_(i32* dereferenceable(4) %6, i32* dereferenceable(4) %8) #3
  %9 = load %"class.social_network::ServiceException"*, %"class.social_network::ServiceException"** %3, align 8
  %10 = getelementptr inbounds %"class.social_network::ServiceException", %"class.social_network::ServiceException"* %9, i32 0, i32 2
  %11 = load %"class.social_network::ServiceException"*, %"class.social_network::ServiceException"** %4, align 8
  %12 = getelementptr inbounds %"class.social_network::ServiceException", %"class.social_network::ServiceException"* %11, i32 0, i32 2
  call void @_ZSt4swapIcSt11char_traitsIcESaIcEEvRNSt7__cxx1112basic_stringIT_T0_T1_EES9_(%"class.std::__cxx11::basic_string"* dereferenceable(32) %10, %"class.std::__cxx11::basic_string"* dereferenceable(32) %12) #3
  %13 = load %"class.social_network::ServiceException"*, %"class.social_network::ServiceException"** %3, align 8
  %14 = getelementptr inbounds %"class.social_network::ServiceException", %"class.social_network::ServiceException"* %13, i32 0, i32 3
  %15 = load %"class.social_network::ServiceException"*, %"class.social_network::ServiceException"** %4, align 8
  %16 = getelementptr inbounds %"class.social_network::ServiceException", %"class.social_network::ServiceException"* %15, i32 0, i32 3
