; ModuleID = 'libc.7a53854ec7447607-cgu.0'
source_filename = "libc.7a53854ec7447607-cgu.0"
target datalayout = "e-m:e-p270:32:32-p271:32:32-p272:64:64-i64:64-f80:128-n8:16:32:64-S128"
target triple = "x86_64-unknown-linux-gnu"

%"unix::group" = type { ptr, ptr, i32, [1 x i32], ptr }
%"unix::rusage" = type { %"unix::timeval", %"unix::timeval", i64, i64, i64, i64, i64, i64, i64, i64, i64, i64, i64, i64, i64, i64 }
%"unix::timeval" = type { i64, i64 }
%"unix::ipv6_mreq" = type { %"unix::align::in6_addr", i32 }
%"unix::align::in6_addr" = type { [16 x i8] }
%"unix::hostent" = type { ptr, ptr, i32, i32, ptr }
%"unix::pollfd" = type { i32, i16, i16 }
%"unix::winsize" = type { i16, i16, i16, i16 }
%"unix::sigval" = type { ptr }
%"unix::itimerval" = type { %"unix::timeval", %"unix::timeval" }
%"unix::tms" = type { i64, i64, i64, i64 }
%"unix::servent" = type { ptr, ptr, i32, [1 x i32], ptr }
%"unix::protoent" = type { ptr, ptr, i32, [1 x i32] }
%"unix::linux_like::in_addr" = type { i32 }
%"unix::linux_like::ip_mreq" = type { %"unix::linux_like::in_addr", %"unix::linux_like::in_addr" }
%"unix::linux_like::ip_mreqn" = type { %"unix::linux_like::in_addr", %"unix::linux_like::in_addr", i32 }
%"unix::linux_like::ip_mreq_source" = type { %"unix::linux_like::in_addr", %"unix::linux_like::in_addr", %"unix::linux_like::in_addr" }
%"unix::linux_like::sockaddr" = type { i16, [14 x i8] }
%"unix::linux_like::sockaddr_in" = type { i16, i16, %"unix::linux_like::in_addr", [8 x i8] }
%"unix::linux_like::sockaddr_in6" = type { i16, i16, i32, %"unix::align::in6_addr", i32 }
%"unix::linux_like::addrinfo" = type { i32, i32, i32, i32, i32, [1 x i32], ptr, ptr, ptr }
%"unix::linux_like::sockaddr_ll" = type { i16, i16, i32, i16, i8, i8, [8 x i8] }
%"unix::linux_like::fd_set" = type { [16 x i64] }
%"unix::linux_like::tm" = type { i32, i32, i32, i32, i32, i32, i32, i32, i32, [1 x i32], i64, ptr }
%"unix::linux_like::sched_param" = type { i32 }
%"unix::linux_like::Dl_info" = type { ptr, ptr, ptr, ptr }
%"unix::linux_like::lconv" = type { ptr, ptr, ptr, ptr, ptr, ptr, ptr, ptr, ptr, ptr, i8, i8, i8, i8, i8, i8, i8, i8, i8, i8, i8, i8, i8, i8, [2 x i8] }
%"unix::linux_like::in_pktinfo" = type { i32, %"unix::linux_like::in_addr", %"unix::linux_like::in_addr" }
%"unix::linux_like::ifaddrs" = type { ptr, ptr, i32, [1 x i32], ptr, ptr, ptr, ptr }
%"unix::linux_like::in6_rtmsg" = type { %"unix::align::in6_addr", %"unix::align::in6_addr", %"unix::align::in6_addr", i32, i16, i16, i32, [1 x i32], i64, i32, i32 }
%"unix::linux_like::arpreq" = type { %"unix::linux_like::sockaddr", %"unix::linux_like::sockaddr", i32, %"unix::linux_like::sockaddr", [16 x i8] }
%"unix::linux_like::arpreq_old" = type { %"unix::linux_like::sockaddr", %"unix::linux_like::sockaddr", i32, %"unix::linux_like::sockaddr" }
%"unix::linux_like::arphdr" = type { i16, i16, i8, i8, i16 }
%"unix::linux_like::mmsghdr" = type { %"unix::linux_like::linux::gnu::msghdr", i32, [1 x i32] }
%"unix::linux_like::linux::gnu::msghdr" = type { ptr, i32, [1 x i32], ptr, i64, ptr, i64, i32, [1 x i32] }
%"unix::linux_like::epoll_event" = type <{ i32, i64 }>
%"unix::linux_like::sockaddr_un" = type { i16, [108 x i8] }
%"unix::linux_like::sockaddr_storage" = type { i16, [118 x i8], i64 }
%"unix::linux_like::utsname" = type { [65 x i8], [65 x i8], [65 x i8], [65 x i8], [65 x i8], [65 x i8] }
%"unix::linux_like::sigevent" = type { %"unix::sigval", i32, i32, i32, [11 x i32] }
%"unix::linux_like::linux::glob_t" = type { i64, ptr, i64, i32, [1 x i32], ptr, ptr, ptr, ptr, ptr }
%"unix::linux_like::linux::passwd" = type { ptr, ptr, i32, i32, ptr, ptr, ptr }
%"unix::linux_like::linux::spwd" = type { ptr, ptr, i64, i64, i64, i64, i64, i64, i64 }
%"unix::linux_like::linux::dqblk" = type { i64, i64, i64, i64, i64, i64, i64, i64, i32, [1 x i32] }
%"unix::linux_like::linux::signalfd_siginfo" = type { i32, i32, i32, i32, i32, i32, i32, i32, i32, i32, i32, i32, i64, i64, i64, i64, i16, i16, i32, i64, i32, [28 x i8] }
%"unix::linux_like::linux::itimerspec" = type { %"unix::timespec", %"unix::timespec" }
%"unix::timespec" = type { i64, i64 }
%"unix::linux_like::linux::fsid_t" = type { [2 x i32] }
%"unix::linux_like::linux::packet_mreq" = type { i32, i16, i16, [8 x i8] }
%"unix::linux_like::linux::cpu_set_t" = type { [16 x i64] }
%"unix::linux_like::linux::msginfo" = type { i32, i32, i32, i32, i32, i32, i32, i16, [1 x i16] }
%"unix::linux_like::linux::sembuf" = type { i16, i16, i16 }
%"unix::linux_like::linux::input_event" = type { %"unix::timeval", i16, i16, i32 }
%"unix::linux_like::linux::input_id" = type { i16, i16, i16, i16 }
%"unix::linux_like::linux::input_absinfo" = type { i32, i32, i32, i32, i32, i32 }
%"unix::linux_like::linux::input_keymap_entry" = type { i8, i8, i16, i32, [32 x i8] }
%"unix::linux_like::linux::input_mask" = type { i32, i32, i64 }
%"unix::linux_like::linux::ff_envelope" = type { i16, i16, i16, i16 }
%"unix::linux_like::linux::ff_constant_effect" = type { i16, %"unix::linux_like::linux::ff_envelope" }
%"unix::linux_like::linux::ff_ramp_effect" = type { i16, i16, %"unix::linux_like::linux::ff_envelope" }
%"unix::linux_like::linux::ff_condition_effect" = type { i16, i16, i16, i16, i16, i16 }
%"unix::linux_like::linux::ff_periodic_effect" = type { i16, i16, i16, i16, i16, %"unix::linux_like::linux::ff_envelope", [1 x i16], i32, ptr }
%"unix::linux_like::linux::ff_effect" = type { i16, i16, i16, %"unix::linux_like::linux::ff_trigger", %"unix::linux_like::linux::ff_replay", [1 x i16], [4 x i64] }
%"unix::linux_like::linux::ff_trigger" = type { i16, i16 }
%"unix::linux_like::linux::ff_replay" = type { i16, i16 }
%"unix::linux_like::linux::uinput_ff_upload" = type { i32, i32, %"unix::linux_like::linux::ff_effect", %"unix::linux_like::linux::ff_effect" }
%"unix::linux_like::linux::uinput_ff_erase" = type { i32, i32, i32 }
%"unix::linux_like::linux::uinput_abs_setup" = type { i16, [1 x i16], %"unix::linux_like::linux::input_absinfo" }
%"unix::linux_like::linux::dl_phdr_info" = type { i64, ptr, ptr, i16, [3 x i16], i64, i64, i64, ptr }
%"unix::linux_like::linux::Elf32_Ehdr" = type { [16 x i8], i16, i16, i32, i32, i32, i32, i32, i16, i16, i16, i16, i16, i16 }
%"unix::linux_like::linux::Elf64_Ehdr" = type { [16 x i8], i16, i16, i32, i64, i64, i64, i32, i16, i16, i16, i16, i16, i16 }
%"unix::linux_like::linux::Elf32_Sym" = type { i32, i32, i32, i8, i8, i16 }
%"unix::linux_like::linux::Elf64_Sym" = type { i32, i8, i8, i16, i64, i64 }
%"unix::linux_like::linux::Elf32_Phdr" = type { i32, i32, i32, i32, i32, i32, i32, i32 }
%"unix::linux_like::linux::Elf64_Phdr" = type { i32, i32, i64, i64, i64, i64, i64, i64 }
%"unix::linux_like::linux::Elf32_Shdr" = type { i32, i32, i32, i32, i32, i32, i32, i32, i32, i32 }
%"unix::linux_like::linux::Elf64_Shdr" = type { i32, i32, i64, i64, i64, i64, i32, i32, i64, i64 }
%"unix::linux_like::linux::ucred" = type { i32, i32, i32 }
%"unix::linux_like::linux::mntent" = type { ptr, ptr, ptr, ptr, i32, i32 }
%"unix::linux_like::linux::posix_spawn_file_actions_t" = type { i32, i32, ptr, [16 x i32] }
%"unix::linux_like::linux::posix_spawnattr_t" = type { i16, [1 x i16], i32, %"unix::linux_like::linux::gnu::b64::sigset_t", %"unix::linux_like::linux::gnu::b64::sigset_t", %"unix::linux_like::sched_param", i32, [16 x i32] }
%"unix::linux_like::linux::gnu::b64::sigset_t" = type { [16 x i64] }
%"unix::linux_like::linux::genlmsghdr" = type { i8, i8, i16 }
%"unix::linux_like::linux::in6_pktinfo" = type { %"unix::align::in6_addr", i32 }
%"unix::linux_like::linux::arpd_request" = type { i16, [1 x i16], i32, i64, i64, i64, [7 x i8], [1 x i8] }
%"unix::linux_like::linux::inotify_event" = type { i32, i32, i32, i32 }
%"unix::linux_like::linux::sockaddr_vm" = type { i16, i16, i32, i32, [4 x i8] }
%"unix::linux_like::linux::sock_extended_err" = type { i32, i8, i8, i8, i8, i32, i32 }
%"unix::linux_like::linux::__c_anonymous_sockaddr_can_j1939" = type { i64, i32, i8, [3 x i8] }
%"unix::linux_like::linux::j1939_filter" = type { i64, i64, i32, i32, i8, i8, [6 x i8] }
%"unix::linux_like::linux::sock_filter" = type { i16, i8, i8, i32 }
%"unix::linux_like::linux::seccomp_data" = type { i32, i32, i64, [6 x i64] }
%"unix::linux_like::linux::seccomp_notif_sizes" = type { i16, i16, i16 }
%"unix::linux_like::linux::seccomp_notif" = type { i64, i32, i32, %"unix::linux_like::linux::seccomp_data" }
%"unix::linux_like::linux::seccomp_notif_resp" = type { i64, i64, i32, i32 }
%"unix::linux_like::linux::seccomp_notif_addfd" = type { i64, i32, i32, i32, i32 }
%"unix::linux_like::linux::nlmsghdr" = type { i32, i16, i16, i32, i32 }
%"unix::linux_like::linux::nlmsgerr" = type { i32, %"unix::linux_like::linux::nlmsghdr" }
%"unix::linux_like::linux::file_clone_range" = type { i64, i64, i64, i64 }
%"unix::linux_like::linux::__c_anonymous_ifru_map" = type { i64, i64, i16, i8, i8, i8, [3 x i8] }
%"unix::linux_like::linux::in6_ifreq" = type { %"unix::align::in6_addr", i32, i32 }
%"unix::linux_like::linux::option" = type { ptr, i32, [1 x i32], ptr, i32, [1 x i32] }
%"unix::linux_like::linux::sctp_initmsg" = type { i16, i16, i16, i16 }
%"unix::linux_like::linux::sctp_sndrcvinfo" = type { i16, i16, i16, [1 x i16], i32, i32, i32, i32, i32, i32 }
%"unix::linux_like::linux::sctp_sndinfo" = type { i16, i16, i32, i32, i32 }
%"unix::linux_like::linux::sctp_rcvinfo" = type { i16, i16, i16, [1 x i16], i32, i32, i32, i32, i32 }
%"unix::linux_like::linux::sctp_nxtinfo" = type { i16, i16, i32, i32, i32 }
%"unix::linux_like::linux::sctp_authinfo" = type { i16 }
%"unix::linux_like::linux::tls12_crypto_info_aes_gcm_128" = type { %"unix::linux_like::linux::tls_crypto_info", [8 x i8], [16 x i8], [4 x i8], [8 x i8] }
%"unix::linux_like::linux::tls_crypto_info" = type { i16, i16 }
%"unix::linux_like::linux::tls12_crypto_info_aes_gcm_256" = type { %"unix::linux_like::linux::tls_crypto_info", [8 x i8], [32 x i8], [4 x i8], [8 x i8] }
%"unix::linux_like::linux::tls12_crypto_info_chacha20_poly1305" = type { %"unix::linux_like::linux::tls_crypto_info", [12 x i8], [32 x i8], [0 x i8], [8 x i8] }
%"unix::linux_like::linux::sockaddr_nl" = type { i16, i16, i32, i32 }
%"unix::linux_like::linux::dirent" = type { i64, i64, i16, i8, [256 x i8], [5 x i8] }
%"unix::linux_like::linux::sockaddr_alg" = type { i16, [14 x i8], i32, i32, [64 x i8] }
%"unix::linux_like::linux::uinput_setup" = type { %"unix::linux_like::linux::input_id", [80 x i8], i32 }
%"unix::linux_like::linux::uinput_user_dev" = type { [80 x i8], %"unix::linux_like::linux::input_id", i32, [64 x i32], [64 x i32], [64 x i32], [64 x i32] }
%"unix::linux_like::linux::af_alg_iv" = type { i32, [0 x i8] }
%"unix::linux_like::linux::mq_attr" = type { i64, i64, i64, i64, [4 x i64] }
%"unix::linux_like::linux::__c_anonymous_ifr_ifru" = type { [3 x i64] }
%"unix::linux_like::linux::ifreq" = type { [16 x i8], %"unix::linux_like::linux::__c_anonymous_ifr_ifru" }
%"unix::linux_like::linux::__c_anonymous_ifc_ifcu" = type { [1 x i64] }
%"unix::linux_like::linux::ifconf" = type { i32, [1 x i32], %"unix::linux_like::linux::__c_anonymous_ifc_ifcu" }
%"unix::linux_like::linux::hwtstamp_config" = type { i32, i32, i32 }
%"unix::linux_like::linux::dirent64" = type { i64, i64, i16, i8, [256 x i8], [5 x i8] }
%"unix::linux_like::linux::sched_attr" = type { i32, i32, i64, i32, i32, i64, i64, i64 }
%"unix::linux_like::linux::__c_anonymous_sockaddr_can_can_addr" = type { [2 x i64] }
%"unix::linux_like::linux::sockaddr_can" = type { i16, [1 x i16], i32, %"unix::linux_like::linux::__c_anonymous_sockaddr_can_can_addr" }
%"unix::linux_like::linux::gnu::<impl unix::linux_like::linux::gnu::b64::x86_64::siginfo_t>::si_addr::siginfo_sigfault" = type { i32, i32, i32, [1 x i32], ptr }
%"unix::linux_like::linux::gnu::<impl unix::linux_like::linux::gnu::b64::x86_64::siginfo_t>::si_value::siginfo_timer" = type { i32, i32, i32, i32, i32, [1 x i32], %"unix::sigval" }
%"unix::linux_like::linux::gnu::statx" = type { i32, i32, i64, i32, i32, i32, i16, [1 x i16], i64, i64, i64, i64, %"unix::linux_like::linux::gnu::statx_timestamp", %"unix::linux_like::linux::gnu::statx_timestamp", %"unix::linux_like::linux::gnu::statx_timestamp", %"unix::linux_like::linux::gnu::statx_timestamp", i32, i32, i32, i32, i64, i32, i32, [12 x i64] }
%"unix::linux_like::linux::gnu::statx_timestamp" = type { i64, i32, [1 x i32] }
%"unix::linux_like::linux::gnu::aiocb" = type { i32, i32, i32, [1 x i32], ptr, i64, %"unix::linux_like::sigevent", ptr, i32, i32, i32, [1 x i32], i64, i64, [32 x i8] }
%"unix::linux_like::linux::gnu::glob64_t" = type { i64, ptr, i64, i32, [1 x i32], ptr, ptr, ptr, ptr, ptr }
%"unix::linux_like::linux::gnu::cmsghdr" = type { i64, i32, i32 }
%"unix::linux_like::linux::gnu::termios" = type { i32, i32, i32, i32, i8, [32 x i8], [3 x i8], i32, i32 }
%"unix::linux_like::linux::gnu::mallinfo" = type { i32, i32, i32, i32, i32, i32, i32, i32, i32, i32 }
%"unix::linux_like::linux::gnu::mallinfo2" = type { i64, i64, i64, i64, i64, i64, i64, i64, i64, i64 }
%"unix::linux_like::linux::gnu::nl_pktinfo" = type { i32 }
%"unix::linux_like::linux::gnu::nl_mmap_req" = type { i32, i32, i32, i32 }
%"unix::linux_like::linux::gnu::nl_mmap_hdr" = type { i32, i32, i32, i32, i32, i32 }
%"unix::linux_like::linux::gnu::rtentry" = type { i64, %"unix::linux_like::sockaddr", %"unix::linux_like::sockaddr", %"unix::linux_like::sockaddr", i16, i16, [2 x i16], i64, i8, i8, [3 x i16], i16, [3 x i16], ptr, i64, i64, i16, [3 x i16] }
%"unix::linux_like::linux::gnu::timex" = type { i32, [1 x i32], i64, i64, i64, i64, i32, [1 x i32], i64, i64, i64, %"unix::timeval", i64, i64, i64, i32, [1 x i32], i64, i64, i64, i64, i64, i32, i32, i32, i32, i32, i32, i32, i32, i32, i32, i32, i32 }
%"unix::linux_like::linux::gnu::ntptimeval" = type { %"unix::timeval", i64, i64, i64, i64, i64, i64, i64 }
%"unix::linux_like::linux::gnu::regex_t" = type { ptr, i64, i64, i64, ptr, ptr, i64, i8, [7 x i8] }
%"unix::linux_like::linux::gnu::Elf64_Chdr" = type { i32, i32, i64, i64 }
%"unix::linux_like::linux::gnu::Elf32_Chdr" = type { i32, i32, i32 }
%"unix::linux_like::linux::gnu::seminfo" = type { i32, i32, i32, i32, i32, i32, i32, i32, i32, i32 }
%"unix::linux_like::linux::gnu::ptrace_peeksiginfo_args" = type { i64, i32, i32 }
%"unix::linux_like::linux::gnu::__c_anonymous_ptrace_syscall_info_entry" = type { i64, [6 x i64] }
%"unix::linux_like::linux::gnu::__c_anonymous_ptrace_syscall_info_seccomp" = type { i64, [6 x i64], i32, [1 x i32] }
%"unix::linux_like::linux::gnu::ptrace_syscall_info" = type { i8, [3 x i8], i32, i64, i64, %"unix::linux_like::linux::gnu::__c_anonymous_ptrace_syscall_info_data" }
%"unix::linux_like::linux::gnu::__c_anonymous_ptrace_syscall_info_data" = type { [8 x i64] }
%"unix::linux_like::linux::gnu::sockaddr_xdp" = type { i16, i16, i32, i32, i32 }
%"unix::linux_like::linux::gnu::xdp_ring_offset" = type { i64, i64, i64, i64 }
%"unix::linux_like::linux::gnu::xdp_mmap_offsets" = type { %"unix::linux_like::linux::gnu::xdp_ring_offset", %"unix::linux_like::linux::gnu::xdp_ring_offset", %"unix::linux_like::linux::gnu::xdp_ring_offset", %"unix::linux_like::linux::gnu::xdp_ring_offset" }
%"unix::linux_like::linux::gnu::xdp_ring_offset_v1" = type { i64, i64, i64 }
%"unix::linux_like::linux::gnu::xdp_mmap_offsets_v1" = type { %"unix::linux_like::linux::gnu::xdp_ring_offset_v1", %"unix::linux_like::linux::gnu::xdp_ring_offset_v1", %"unix::linux_like::linux::gnu::xdp_ring_offset_v1", %"unix::linux_like::linux::gnu::xdp_ring_offset_v1" }
%"unix::linux_like::linux::gnu::xdp_umem_reg" = type { i64, i64, i32, i32, i32, [1 x i32] }
%"unix::linux_like::linux::gnu::xdp_umem_reg_v1" = type { i64, i64, i32, i32 }
%"unix::linux_like::linux::gnu::xdp_statistics" = type { i64, i64, i64, i64, i64, i64 }
%"unix::linux_like::linux::gnu::xdp_statistics_v1" = type { i64, i64, i64 }
%"unix::linux_like::linux::gnu::xdp_options" = type { i32 }
%"unix::linux_like::linux::gnu::xdp_desc" = type { i64, i32, i32 }
%"unix::linux_like::linux::gnu::iocb" = type { i64, i32, i32, i16, i16, i32, i64, i64, i64, i64, i32, i32 }
%"unix::linux_like::linux::gnu::sifields_sigchld" = type { i32, i32, i32, [1 x i32], i64, i64 }
%"unix::linux_like::linux::gnu::siginfo_f" = type { [3 x i32], [1 x i32], %"unix::linux_like::linux::gnu::sifields" }
%"unix::linux_like::linux::gnu::sifields" = type { [4 x i64] }
%"unix::linux_like::linux::gnu::utmpx" = type { i16, [1 x i16], i32, [32 x i8], [4 x i8], [32 x i8], [256 x i8], %"unix::linux_like::linux::gnu::__exit_status", i32, %"unix::linux_like::linux::gnu::__timeval", [4 x i32], [20 x i8] }
%"unix::linux_like::linux::gnu::__exit_status" = type { i16, i16 }
%"unix::linux_like::linux::gnu::__timeval" = type { i32, i32 }
%"unix::linux_like::linux::gnu::b64::sysinfo" = type { i64, [3 x i64], i64, i64, i64, i64, i64, i64, i16, i16, [2 x i16], i64, i64, i32, [0 x i8], [4 x i8] }
%"unix::linux_like::linux::gnu::b64::msqid_ds" = type { %"unix::linux_like::linux::gnu::b64::x86_64::ipc_perm", i64, i64, i64, i64, i64, i64, i32, i32, i64, i64 }
%"unix::linux_like::linux::gnu::b64::x86_64::ipc_perm" = type { i32, i32, i32, i32, i32, i16, i16, i16, i16, [2 x i16], i64, i64 }
%"unix::linux_like::linux::gnu::b64::semid_ds" = type { %"unix::linux_like::linux::gnu::b64::x86_64::ipc_perm", i64, i64, i64, i64, i64, i64, i64 }
%"unix::linux_like::linux::gnu::b64::x86_64::sigaction" = type { i64, %"unix::linux_like::linux::gnu::b64::sigset_t", i32, [1 x i32], ptr }
%"unix::linux_like::linux::gnu::b64::x86_64::statfs" = type { i64, i64, i64, i64, i64, i64, i64, %"unix::linux_like::linux::fsid_t", i64, i64, [5 x i64] }
%"unix::linux_like::linux::gnu::b64::x86_64::flock" = type { i16, i16, [2 x i16], i64, i64, i32, [1 x i32] }
%"unix::linux_like::linux::gnu::b64::x86_64::flock64" = type { i16, i16, [2 x i16], i64, i64, i32, [1 x i32] }
%"unix::linux_like::linux::gnu::b64::x86_64::siginfo_t" = type { i32, i32, i32, [29 x i32], [0 x i64] }
%"unix::linux_like::linux::gnu::b64::x86_64::stack_t" = type { ptr, i32, [1 x i32], i64 }
%"unix::linux_like::linux::gnu::b64::x86_64::stat" = type { i64, i64, i64, i32, i32, i32, i32, i64, i64, i64, i64, i64, i64, i64, i64, i64, i64, [3 x i64] }
%"unix::linux_like::linux::gnu::b64::x86_64::stat64" = type { i64, i64, i64, i32, i32, i32, i32, i64, i64, i64, i64, i64, i64, i64, i64, i64, i64, [3 x i64] }
%"unix::linux_like::linux::gnu::b64::x86_64::statfs64" = type { i64, i64, i64, i64, i64, i64, i64, %"unix::linux_like::linux::fsid_t", i64, i64, i64, [4 x i64] }
%"unix::linux_like::linux::gnu::b64::x86_64::statvfs64" = type { i64, i64, i64, i64, i64, i64, i64, i64, i64, i64, i64, [6 x i32] }
%"unix::linux_like::linux::gnu::b64::x86_64::pthread_attr_t" = type { [7 x i64] }
%"unix::linux_like::linux::gnu::b64::x86_64::_libc_fpxreg" = type { [4 x i16], i16, [3 x i16] }
%"unix::linux_like::linux::gnu::b64::x86_64::_libc_xmmreg" = type { [4 x i32] }
%"unix::linux_like::linux::gnu::b64::x86_64::_libc_fpstate" = type { i16, i16, i16, i16, i64, i64, i32, i32, [8 x %"unix::linux_like::linux::gnu::b64::x86_64::_libc_fpxreg"], [16 x %"unix::linux_like::linux::gnu::b64::x86_64::_libc_xmmreg"], [12 x i64] }
%"unix::linux_like::linux::gnu::b64::x86_64::user_regs_struct" = type { i64, i64, i64, i64, i64, i64, i64, i64, i64, i64, i64, i64, i64, i64, i64, i64, i64, i64, i64, i64, i64, i64, i64, i64, i64, i64, i64 }
%"unix::linux_like::linux::gnu::b64::x86_64::user" = type { %"unix::linux_like::linux::gnu::b64::x86_64::user_regs_struct", i32, [1 x i32], %"unix::linux_like::linux::gnu::b64::x86_64::user_fpregs_struct", i64, i64, i64, i64, i64, i64, i32, [1 x i32], ptr, ptr, i64, [32 x i8], [8 x i64] }
%"unix::linux_like::linux::gnu::b64::x86_64::user_fpregs_struct" = type { i16, i16, i16, i16, i64, i64, i32, i32, [32 x i32], [64 x i32], [24 x i32] }
%"unix::linux_like::linux::gnu::b64::x86_64::mcontext_t" = type { [23 x i64], ptr, [8 x i64] }
%"unix::linux_like::linux::gnu::b64::x86_64::shmid_ds" = type { %"unix::linux_like::linux::gnu::b64::x86_64::ipc_perm", i64, i64, i64, i64, i32, i32, i64, i64, i64 }
%"unix::linux_like::linux::gnu::b64::x86_64::ptrace_rseq_configuration" = type { i64, i32, i32, i32, i32 }
%"unix::linux_like::linux::gnu::b64::x86_64::ucontext_t" = type { i64, ptr, %"unix::linux_like::linux::gnu::b64::x86_64::stack_t", %"unix::linux_like::linux::gnu::b64::x86_64::mcontext_t", %"unix::linux_like::linux::gnu::b64::sigset_t", [512 x i8] }
%"unix::linux_like::linux::gnu::b64::x86_64::not_x32::statvfs" = type { i64, i64, i64, i64, i64, i64, i64, i64, i64, i64, i64, [6 x i32] }
%"unix::linux_like::linux::gnu::b64::x86_64::align::max_align_t" = type { [4 x double] }
%"unix::linux_like::linux::gnu::b64::x86_64::align::clone_args" = type { i64, i64, i64, i64, i64, i64, i64, i64, i64, i64, i64 }
%"unix::linux_like::linux::gnu::align::sem_t" = type { [32 x i8] }
%"unix::linux_like::linux::arch::generic::termios2" = type { i32, i32, i32, i32, i8, [19 x i8], i32, i32 }
%"unix::linux_like::linux::pthread_mutexattr_t" = type { [4 x i8] }
%"unix::linux_like::linux::pthread_rwlockattr_t" = type { [8 x i8] }
%"unix::linux_like::linux::pthread_condattr_t" = type { [4 x i8] }
%"unix::linux_like::linux::pthread_barrierattr_t" = type { [4 x i8] }
%"unix::linux_like::linux::fanotify_event_metadata" = type { i32, i8, i8, i16, i64, i32, i32 }
%"unix::linux_like::linux::pthread_cond_t" = type { [48 x i8] }
%"unix::linux_like::linux::pthread_mutex_t" = type { [40 x i8] }
%"unix::linux_like::linux::pthread_rwlock_t" = type { [56 x i8] }
%"unix::linux_like::linux::pthread_barrier_t" = type { [32 x i8] }
%"unix::linux_like::linux::can_frame" = type { i32, i8, i8, i8, i8, [8 x i8] }
%"unix::linux_like::linux::canfd_frame" = type { i32, i8, i8, i8, i8, [64 x i8] }
%"unix::linux_like::linux::canxl_frame" = type { i32, i8, i8, i16, i32, [2048 x i8], [4 x i8] }
%"unix::linux_like::linux::non_exhaustive::open_how" = type { i64, i64, i64 }

; <libc::unix::group as core::clone::Clone>::clone
; Function Attrs: nonlazybind uwtable
define void @"_ZN56_$LT$libc..unix..group$u20$as$u20$core..clone..Clone$GT$5clone17h244c1cb8665fe950E"(ptr sret(%"unix::group") align 8 %_0, ptr align 8 %self) unnamed_addr #0 !dbg !16 {
start:
  %self.dbg.spill = alloca ptr, align 8
  store ptr %self, ptr %self.dbg.spill, align 8
  call void @llvm.dbg.declare(metadata ptr %self.dbg.spill, metadata !36, metadata !DIExpression()), !dbg !37
  call void @llvm.memcpy.p0.p0.i64(ptr align 8 %_0, ptr align 8 %self, i64 32, i1 false), !dbg !38
  ret void, !dbg !39
}

; <libc::unix::utimbuf as core::clone::Clone>::clone
; Function Attrs: nonlazybind uwtable
define { i64, i64 } @"_ZN58_$LT$libc..unix..utimbuf$u20$as$u20$core..clone..Clone$GT$5clone17h68dc581f98bcc704E"(ptr align 8 %self) unnamed_addr #0 !dbg !40 {
start:
  %self.dbg.spill = alloca ptr, align 8
  store ptr %self, ptr %self.dbg.spill, align 8
  call void @llvm.dbg.declare(metadata ptr %self.dbg.spill, metadata !51, metadata !DIExpression()), !dbg !52
  %_0.0 = load i64, ptr %self, align 8, !dbg !53, !noundef !33
  %0 = getelementptr inbounds i8, ptr %self, i64 8, !dbg !53
  %_0.1 = load i64, ptr %0, align 8, !dbg !53, !noundef !33
  %1 = insertvalue { i64, i64 } poison, i64 %_0.0, 0, !dbg !54
  %2 = insertvalue { i64, i64 } %1, i64 %_0.1, 1, !dbg !54
  ret { i64, i64 } %2, !dbg !54
}

; <libc::unix::timeval as core::clone::Clone>::clone
; Function Attrs: nonlazybind uwtable
define { i64, i64 } @"_ZN58_$LT$libc..unix..timeval$u20$as$u20$core..clone..Clone$GT$5clone17h2d70929b22373a38E"(ptr align 8 %self) unnamed_addr #0 !dbg !55 {
start:
  %self.dbg.spill = alloca ptr, align 8
  store ptr %self, ptr %self.dbg.spill, align 8
  call void @llvm.dbg.declare(metadata ptr %self.dbg.spill, metadata !65, metadata !DIExpression()), !dbg !66
  %_0.0 = load i64, ptr %self, align 8, !dbg !67, !noundef !33
  %0 = getelementptr inbounds i8, ptr %self, i64 8, !dbg !67
  %_0.1 = load i64, ptr %0, align 8, !dbg !67, !noundef !33
  %1 = insertvalue { i64, i64 } poison, i64 %_0.0, 0, !dbg !68
  %2 = insertvalue { i64, i64 } %1, i64 %_0.1, 1, !dbg !68
  ret { i64, i64 } %2, !dbg !68
}

; <libc::unix::timespec as core::clone::Clone>::clone
; Function Attrs: nonlazybind uwtable
define { i64, i64 } @"_ZN59_$LT$libc..unix..timespec$u20$as$u20$core..clone..Clone$GT$5clone17h1d559fcb683e27aaE"(ptr align 8 %self) unnamed_addr #0 !dbg !69 {
start:
  %self.dbg.spill = alloca ptr, align 8
  store ptr %self, ptr %self.dbg.spill, align 8
  call void @llvm.dbg.declare(metadata ptr %self.dbg.spill, metadata !79, metadata !DIExpression()), !dbg !80
  %_0.0 = load i64, ptr %self, align 8, !dbg !81, !noundef !33
  %0 = getelementptr inbounds i8, ptr %self, i64 8, !dbg !81
  %_0.1 = load i64, ptr %0, align 8, !dbg !81, !noundef !33
  %1 = insertvalue { i64, i64 } poison, i64 %_0.0, 0, !dbg !82
  %2 = insertvalue { i64, i64 } %1, i64 %_0.1, 1, !dbg !82
  ret { i64, i64 } %2, !dbg !82
}

; <libc::unix::rlimit as core::clone::Clone>::clone
; Function Attrs: nonlazybind uwtable
define { i64, i64 } @"_ZN57_$LT$libc..unix..rlimit$u20$as$u20$core..clone..Clone$GT$5clone17hb6d1c8233824c8fbE"(ptr align 8 %self) unnamed_addr #0 !dbg !83 {
start:
  %self.dbg.spill = alloca ptr, align 8
  store ptr %self, ptr %self.dbg.spill, align 8
  call void @llvm.dbg.declare(metadata ptr %self.dbg.spill, metadata !94, metadata !DIExpression()), !dbg !95
  %_0.0 = load i64, ptr %self, align 8, !dbg !96, !noundef !33
  %0 = getelementptr inbounds i8, ptr %self, i64 8, !dbg !96
  %_0.1 = load i64, ptr %0, align 8, !dbg !96, !noundef !33
  %1 = insertvalue { i64, i64 } poison, i64 %_0.0, 0, !dbg !97
  %2 = insertvalue { i64, i64 } %1, i64 %_0.1, 1, !dbg !97
  ret { i64, i64 } %2, !dbg !97
}

; <libc::unix::rusage as core::clone::Clone>::clone
; Function Attrs: nonlazybind uwtable
define void @"_ZN57_$LT$libc..unix..rusage$u20$as$u20$core..clone..Clone$GT$5clone17h6840675990037ea1E"(ptr sret(%"unix::rusage") align 8 %_0, ptr align 8 %self) unnamed_addr #0 !dbg !98 {
start:
  %self.dbg.spill = alloca ptr, align 8
  store ptr %self, ptr %self.dbg.spill, align 8
  call void @llvm.dbg.declare(metadata ptr %self.dbg.spill, metadata !122, metadata !DIExpression()), !dbg !123
  call void @llvm.memcpy.p0.p0.i64(ptr align 8 %_0, ptr align 8 %self, i64 144, i1 false), !dbg !124
  ret void, !dbg !125
}

; <libc::unix::ipv6_mreq as core::clone::Clone>::clone
; Function Attrs: nonlazybind uwtable
define void @"_ZN60_$LT$libc..unix..ipv6_mreq$u20$as$u20$core..clone..Clone$GT$5clone17hae8c47b1ff2debeeE"(ptr sret(%"unix::ipv6_mreq") align 4 %_0, ptr align 4 %self) unnamed_addr #0 !dbg !126 {
start:
  %self.dbg.spill = alloca ptr, align 8
  store ptr %self, ptr %self.dbg.spill, align 8
  call void @llvm.dbg.declare(metadata ptr %self.dbg.spill, metadata !143, metadata !DIExpression()), !dbg !144
  call void @llvm.memcpy.p0.p0.i64(ptr align 4 %_0, ptr align 4 %self, i64 20, i1 false), !dbg !145
  ret void, !dbg !146
}

; <libc::unix::hostent as core::clone::Clone>::clone
; Function Attrs: nonlazybind uwtable
define void @"_ZN58_$LT$libc..unix..hostent$u20$as$u20$core..clone..Clone$GT$5clone17h660bbb8b5ddda4faE"(ptr sret(%"unix::hostent") align 8 %_0, ptr align 8 %self) unnamed_addr #0 !dbg !147 {
start:
  %self.dbg.spill = alloca ptr, align 8
  store ptr %self, ptr %self.dbg.spill, align 8
  call void @llvm.dbg.declare(metadata ptr %self.dbg.spill, metadata !161, metadata !DIExpression()), !dbg !162
  call void @llvm.memcpy.p0.p0.i64(ptr align 8 %_0, ptr align 8 %self, i64 32, i1 false), !dbg !163
  ret void, !dbg !164
}

; <libc::unix::iovec as core::clone::Clone>::clone
; Function Attrs: nonlazybind uwtable
define { ptr, i64 } @"_ZN56_$LT$libc..unix..iovec$u20$as$u20$core..clone..Clone$GT$5clone17h89220a5f7458e816E"(ptr align 8 %self) unnamed_addr #0 !dbg !165 {
start:
  %self.dbg.spill = alloca ptr, align 8
  store ptr %self, ptr %self.dbg.spill, align 8
  call void @llvm.dbg.declare(metadata ptr %self.dbg.spill, metadata !177, metadata !DIExpression()), !dbg !178
  %_0.0 = load ptr, ptr %self, align 8, !dbg !179, !noundef !33
  %0 = getelementptr inbounds i8, ptr %self, i64 8, !dbg !179
  %_0.1 = load i64, ptr %0, align 8, !dbg !179, !noundef !33
  %1 = insertvalue { ptr, i64 } poison, ptr %_0.0, 0, !dbg !180
  %2 = insertvalue { ptr, i64 } %1, i64 %_0.1, 1, !dbg !180
  ret { ptr, i64 } %2, !dbg !180
}

; <libc::unix::pollfd as core::clone::Clone>::clone
; Function Attrs: nonlazybind uwtable
define i64 @"_ZN57_$LT$libc..unix..pollfd$u20$as$u20$core..clone..Clone$GT$5clone17hb9df20627461a5c6E"(ptr align 4 %self) unnamed_addr #0 !dbg !181 {
start:
  %self.dbg.spill = alloca ptr, align 8
  %_0 = alloca %"unix::pollfd", align 4
  store ptr %self, ptr %self.dbg.spill, align 8
  call void @llvm.dbg.declare(metadata ptr %self.dbg.spill, metadata !193, metadata !DIExpression()), !dbg !194
  call void @llvm.memcpy.p0.p0.i64(ptr align 4 %_0, ptr align 4 %self, i64 8, i1 false), !dbg !195
  %0 = load i64, ptr %_0, align 4, !dbg !196
  ret i64 %0, !dbg !196
}

; <libc::unix::winsize as core::clone::Clone>::clone
; Function Attrs: nonlazybind uwtable
define i64 @"_ZN58_$LT$libc..unix..winsize$u20$as$u20$core..clone..Clone$GT$5clone17h3474fee6fbdac1d3E"(ptr align 2 %self) unnamed_addr #0 !dbg !197 {
start:
  %self.dbg.spill = alloca ptr, align 8
  %_0 = alloca %"unix::winsize", align 2
  store ptr %self, ptr %self.dbg.spill, align 8
  call void @llvm.dbg.declare(metadata ptr %self.dbg.spill, metadata !210, metadata !DIExpression()), !dbg !211
  call void @llvm.memcpy.p0.p0.i64(ptr align 2 %_0, ptr align 2 %self, i64 8, i1 false), !dbg !212
  %0 = load i64, ptr %_0, align 2, !dbg !213
  ret i64 %0, !dbg !213
}

; <libc::unix::linger as core::clone::Clone>::clone
; Function Attrs: nonlazybind uwtable
define { i32, i32 } @"_ZN57_$LT$libc..unix..linger$u20$as$u20$core..clone..Clone$GT$5clone17hc6b95756537d32a7E"(ptr align 4 %self) unnamed_addr #0 !dbg !214 {
start:
  %self.dbg.spill = alloca ptr, align 8
  store ptr %self, ptr %self.dbg.spill, align 8
  call void @llvm.dbg.declare(metadata ptr %self.dbg.spill, metadata !224, metadata !DIExpression()), !dbg !225
  %_0.0 = load i32, ptr %self, align 4, !dbg !226, !noundef !33
  %0 = getelementptr inbounds i8, ptr %self, i64 4, !dbg !226
  %_0.1 = load i32, ptr %0, align 4, !dbg !226, !noundef !33
  %1 = insertvalue { i32, i32 } poison, i32 %_0.0, 0, !dbg !227
  %2 = insertvalue { i32, i32 } %1, i32 %_0.1, 1, !dbg !227
  ret { i32, i32 } %2, !dbg !227
}

; <libc::unix::sigval as core::clone::Clone>::clone
; Function Attrs: nonlazybind uwtable
define i64 @"_ZN57_$LT$libc..unix..sigval$u20$as$u20$core..clone..Clone$GT$5clone17h86bfbe239a8bddccE"(ptr align 8 %self) unnamed_addr #0 !dbg !228 {
start:
  %self.dbg.spill = alloca ptr, align 8
  %_0 = alloca %"unix::sigval", align 8
  store ptr %self, ptr %self.dbg.spill, align 8
  call void @llvm.dbg.declare(metadata ptr %self.dbg.spill, metadata !237, metadata !DIExpression()), !dbg !238
  call void @llvm.memcpy.p0.p0.i64(ptr align 8 %_0, ptr align 8 %self, i64 8, i1 false), !dbg !239
  %0 = load i64, ptr %_0, align 8, !dbg !240
  ret i64 %0, !dbg !240
}

; <libc::unix::itimerval as core::clone::Clone>::clone
; Function Attrs: nonlazybind uwtable
define void @"_ZN60_$LT$libc..unix..itimerval$u20$as$u20$core..clone..Clone$GT$5clone17h4e64efac44b8c938E"(ptr sret(%"unix::itimerval") align 8 %_0, ptr align 8 %self) unnamed_addr #0 !dbg !241 {
start:
  %self.dbg.spill = alloca ptr, align 8
  store ptr %self, ptr %self.dbg.spill, align 8
  call void @llvm.dbg.declare(metadata ptr %self.dbg.spill, metadata !251, metadata !DIExpression()), !dbg !252
  call void @llvm.memcpy.p0.p0.i64(ptr align 8 %_0, ptr align 8 %self, i64 32, i1 false), !dbg !253
  ret void, !dbg !254
}

; <libc::unix::tms as core::clone::Clone>::clone
; Function Attrs: nonlazybind uwtable
define void @"_ZN54_$LT$libc..unix..tms$u20$as$u20$core..clone..Clone$GT$5clone17hdfe11705de206575E"(ptr sret(%"unix::tms") align 8 %_0, ptr align 8 %self) unnamed_addr #0 !dbg !255 {
start:
  %self.dbg.spill = alloca ptr, align 8
  store ptr %self, ptr %self.dbg.spill, align 8
  call void @llvm.dbg.declare(metadata ptr %self.dbg.spill, metadata !267, metadata !DIExpression()), !dbg !268
  call void @llvm.memcpy.p0.p0.i64(ptr align 8 %_0, ptr align 8 %self, i64 32, i1 false), !dbg !269
  ret void, !dbg !270
}

; <libc::unix::servent as core::clone::Clone>::clone
; Function Attrs: nonlazybind uwtable
define void @"_ZN58_$LT$libc..unix..servent$u20$as$u20$core..clone..Clone$GT$5clone17h9748f1cc49782a2fE"(ptr sret(%"unix::servent") align 8 %_0, ptr align 8 %self) unnamed_addr #0 !dbg !271 {
start:
  %self.dbg.spill = alloca ptr, align 8
  store ptr %self, ptr %self.dbg.spill, align 8
  call void @llvm.dbg.declare(metadata ptr %self.dbg.spill, metadata !283, metadata !DIExpression()), !dbg !284
  call void @llvm.memcpy.p0.p0.i64(ptr align 8 %_0, ptr align 8 %self, i64 32, i1 false), !dbg !285
  ret void, !dbg !286
}

; <libc::unix::protoent as core::clone::Clone>::clone
; Function Attrs: nonlazybind uwtable
define void @"_ZN59_$LT$libc..unix..protoent$u20$as$u20$core..clone..Clone$GT$5clone17hd641fccfe35ebef0E"(ptr sret(%"unix::protoent") align 8 %_0, ptr align 8 %self) unnamed_addr #0 !dbg !287 {
start:
  %self.dbg.spill = alloca ptr, align 8
  store ptr %self, ptr %self.dbg.spill, align 8
  call void @llvm.dbg.declare(metadata ptr %self.dbg.spill, metadata !298, metadata !DIExpression()), !dbg !299
  call void @llvm.memcpy.p0.p0.i64(ptr align 8 %_0, ptr align 8 %self, i64 24, i1 false), !dbg !300
  ret void, !dbg !301
}

; <libc::unix::linux_like::in_addr as core::clone::Clone>::clone
; Function Attrs: nonlazybind uwtable
define i32 @"_ZN70_$LT$libc..unix..linux_like..in_addr$u20$as$u20$core..clone..Clone$GT$5clone17h2e494273789ea04aE"(ptr align 4 %self) unnamed_addr #0 !dbg !302 {
start:
  %self.dbg.spill = alloca ptr, align 8
  %_0 = alloca %"unix::linux_like::in_addr", align 4
  store ptr %self, ptr %self.dbg.spill, align 8
  call void @llvm.dbg.declare(metadata ptr %self.dbg.spill, metadata !312, metadata !DIExpression()), !dbg !313
  call void @llvm.memcpy.p0.p0.i64(ptr align 4 %_0, ptr align 4 %self, i64 4, i1 false), !dbg !314
  %0 = load i32, ptr %_0, align 4, !dbg !315
  ret i32 %0, !dbg !315
}

; <libc::unix::linux_like::ip_mreq as core::clone::Clone>::clone
; Function Attrs: nonlazybind uwtable
define i64 @"_ZN70_$LT$libc..unix..linux_like..ip_mreq$u20$as$u20$core..clone..Clone$GT$5clone17h1c85230011c15beaE"(ptr align 4 %self) unnamed_addr #0 !dbg !316 {
start:
  %self.dbg.spill = alloca ptr, align 8
  %_0 = alloca %"unix::linux_like::ip_mreq", align 4
  store ptr %self, ptr %self.dbg.spill, align 8
  call void @llvm.dbg.declare(metadata ptr %self.dbg.spill, metadata !326, metadata !DIExpression()), !dbg !327
  call void @llvm.memcpy.p0.p0.i64(ptr align 4 %_0, ptr align 4 %self, i64 8, i1 false), !dbg !328
  %0 = load i64, ptr %_0, align 4, !dbg !329
  ret i64 %0, !dbg !329
}

; <libc::unix::linux_like::ip_mreqn as core::clone::Clone>::clone
; Function Attrs: nonlazybind uwtable
define void @"_ZN71_$LT$libc..unix..linux_like..ip_mreqn$u20$as$u20$core..clone..Clone$GT$5clone17hfa09e70a4cfd76faE"(ptr sret(%"unix::linux_like::ip_mreqn") align 4 %_0, ptr align 4 %self) unnamed_addr #0 !dbg !330 {
start:
  %self.dbg.spill = alloca ptr, align 8
  store ptr %self, ptr %self.dbg.spill, align 8
  call void @llvm.dbg.declare(metadata ptr %self.dbg.spill, metadata !341, metadata !DIExpression()), !dbg !342
  call void @llvm.memcpy.p0.p0.i64(ptr align 4 %_0, ptr align 4 %self, i64 12, i1 false), !dbg !343
  ret void, !dbg !344
}

; <libc::unix::linux_like::ip_mreq_source as core::clone::Clone>::clone
; Function Attrs: nonlazybind uwtable
define void @"_ZN77_$LT$libc..unix..linux_like..ip_mreq_source$u20$as$u20$core..clone..Clone$GT$5clone17h5ca3dac7c1600377E"(ptr sret(%"unix::linux_like::ip_mreq_source") align 4 %_0, ptr align 4 %self) unnamed_addr #0 !dbg !345 {
start:
  %self.dbg.spill = alloca ptr, align 8
  store ptr %self, ptr %self.dbg.spill, align 8
  call void @llvm.dbg.declare(metadata ptr %self.dbg.spill, metadata !356, metadata !DIExpression()), !dbg !357
  call void @llvm.memcpy.p0.p0.i64(ptr align 4 %_0, ptr align 4 %self, i64 12, i1 false), !dbg !358
  ret void, !dbg !359
}

; <libc::unix::linux_like::sockaddr as core::clone::Clone>::clone
; Function Attrs: nonlazybind uwtable
define void @"_ZN71_$LT$libc..unix..linux_like..sockaddr$u20$as$u20$core..clone..Clone$GT$5clone17hdfaabb3a224c98ffE"(ptr sret(%"unix::linux_like::sockaddr") align 2 %_0, ptr align 2 %self) unnamed_addr #0 !dbg !360 {
start:
  %self.dbg.spill = alloca ptr, align 8
  store ptr %self, ptr %self.dbg.spill, align 8
  call void @llvm.dbg.declare(metadata ptr %self.dbg.spill, metadata !373, metadata !DIExpression()), !dbg !374
  call void @llvm.memcpy.p0.p0.i64(ptr align 2 %_0, ptr align 2 %self, i64 16, i1 false), !dbg !375
  ret void, !dbg !376
}

; <libc::unix::linux_like::sockaddr_in as core::clone::Clone>::clone
; Function Attrs: nonlazybind uwtable
define void @"_ZN74_$LT$libc..unix..linux_like..sockaddr_in$u20$as$u20$core..clone..Clone$GT$5clone17h5d13b251cd2dbecdE"(ptr sret(%"unix::linux_like::sockaddr_in") align 4 %_0, ptr align 4 %self) unnamed_addr #0 !dbg !377 {
start:
  %self.dbg.spill = alloca ptr, align 8
  store ptr %self, ptr %self.dbg.spill, align 8
  call void @llvm.dbg.declare(metadata ptr %self.dbg.spill, metadata !392, metadata !DIExpression()), !dbg !393
  call void @llvm.memcpy.p0.p0.i64(ptr align 4 %_0, ptr align 4 %self, i64 16, i1 false), !dbg !394
  ret void, !dbg !395
}

; <libc::unix::linux_like::sockaddr_in6 as core::clone::Clone>::clone
; Function Attrs: nonlazybind uwtable
define void @"_ZN75_$LT$libc..unix..linux_like..sockaddr_in6$u20$as$u20$core..clone..Clone$GT$5clone17hda5f5bb53fd578bdE"(ptr sret(%"unix::linux_like::sockaddr_in6") align 4 %_0, ptr align 4 %self) unnamed_addr #0 !dbg !396 {
start:
  %self.dbg.spill = alloca ptr, align 8
  store ptr %self, ptr %self.dbg.spill, align 8
  call void @llvm.dbg.declare(metadata ptr %self.dbg.spill, metadata !409, metadata !DIExpression()), !dbg !410
  call void @llvm.memcpy.p0.p0.i64(ptr align 4 %_0, ptr align 4 %self, i64 28, i1 false), !dbg !411
  ret void, !dbg !412
}

; <libc::unix::linux_like::addrinfo as core::clone::Clone>::clone
; Function Attrs: nonlazybind uwtable
define void @"_ZN71_$LT$libc..unix..linux_like..addrinfo$u20$as$u20$core..clone..Clone$GT$5clone17h23a4ddfd611ea590E"(ptr sret(%"unix::linux_like::addrinfo") align 8 %_0, ptr align 8 %self) unnamed_addr #0 !dbg !413 {
start:
  %self.dbg.spill = alloca ptr, align 8
  store ptr %self, ptr %self.dbg.spill, align 8
  call void @llvm.dbg.declare(metadata ptr %self.dbg.spill, metadata !431, metadata !DIExpression()), !dbg !432
  call void @llvm.memcpy.p0.p0.i64(ptr align 8 %_0, ptr align 8 %self, i64 48, i1 false), !dbg !433
  ret void, !dbg !434
}

; <libc::unix::linux_like::sockaddr_ll as core::clone::Clone>::clone
; Function Attrs: nonlazybind uwtable
define void @"_ZN74_$LT$libc..unix..linux_like..sockaddr_ll$u20$as$u20$core..clone..Clone$GT$5clone17hc3afa2b79145214dE"(ptr sret(%"unix::linux_like::sockaddr_ll") align 4 %_0, ptr align 4 %self) unnamed_addr #0 !dbg !435 {
start:
  %self.dbg.spill = alloca ptr, align 8
  store ptr %self, ptr %self.dbg.spill, align 8
  call void @llvm.dbg.declare(metadata ptr %self.dbg.spill, metadata !450, metadata !DIExpression()), !dbg !451
  call void @llvm.memcpy.p0.p0.i64(ptr align 4 %_0, ptr align 4 %self, i64 20, i1 false), !dbg !452
  ret void, !dbg !453
}

; <libc::unix::linux_like::fd_set as core::clone::Clone>::clone
; Function Attrs: nonlazybind uwtable
define void @"_ZN69_$LT$libc..unix..linux_like..fd_set$u20$as$u20$core..clone..Clone$GT$5clone17h9892aec1a603f5b2E"(ptr sret(%"unix::linux_like::fd_set") align 8 %_0, ptr align 8 %self) unnamed_addr #0 !dbg !454 {
start:
  %self.dbg.spill = alloca ptr, align 8
  store ptr %self, ptr %self.dbg.spill, align 8
  call void @llvm.dbg.declare(metadata ptr %self.dbg.spill, metadata !464, metadata !DIExpression()), !dbg !465
  call void @llvm.memcpy.p0.p0.i64(ptr align 8 %_0, ptr align 8 %self, i64 128, i1 false), !dbg !466
  ret void, !dbg !467
}

; <libc::unix::linux_like::tm as core::clone::Clone>::clone
; Function Attrs: nonlazybind uwtable
define void @"_ZN65_$LT$libc..unix..linux_like..tm$u20$as$u20$core..clone..Clone$GT$5clone17h5f2ccfdfeb56a0a0E"(ptr sret(%"unix::linux_like::tm") align 8 %_0, ptr align 8 %self) unnamed_addr #0 !dbg !468 {
start:
  %self.dbg.spill = alloca ptr, align 8
  store ptr %self, ptr %self.dbg.spill, align 8
  call void @llvm.dbg.declare(metadata ptr %self.dbg.spill, metadata !488, metadata !DIExpression()), !dbg !489
  call void @llvm.memcpy.p0.p0.i64(ptr align 8 %_0, ptr align 8 %self, i64 56, i1 false), !dbg !490
  ret void, !dbg !491
}

; <libc::unix::linux_like::sched_param as core::clone::Clone>::clone
; Function Attrs: nonlazybind uwtable
define i32 @"_ZN74_$LT$libc..unix..linux_like..sched_param$u20$as$u20$core..clone..Clone$GT$5clone17hf6574159e0186fafE"(ptr align 4 %self) unnamed_addr #0 !dbg !492 {
start:
  %self.dbg.spill = alloca ptr, align 8
  %_0 = alloca %"unix::linux_like::sched_param", align 4
  store ptr %self, ptr %self.dbg.spill, align 8
  call void @llvm.dbg.declare(metadata ptr %self.dbg.spill, metadata !501, metadata !DIExpression()), !dbg !502
  call void @llvm.memcpy.p0.p0.i64(ptr align 4 %_0, ptr align 4 %self, i64 4, i1 false), !dbg !503
  %0 = load i32, ptr %_0, align 4, !dbg !504
  ret i32 %0, !dbg !504
}

; <libc::unix::linux_like::Dl_info as core::clone::Clone>::clone
; Function Attrs: nonlazybind uwtable
define void @"_ZN70_$LT$libc..unix..linux_like..Dl_info$u20$as$u20$core..clone..Clone$GT$5clone17hc214689aa67eac78E"(ptr sret(%"unix::linux_like::Dl_info") align 8 %_0, ptr align 8 %self) unnamed_addr #0 !dbg !505 {
start:
  %self.dbg.spill = alloca ptr, align 8
  store ptr %self, ptr %self.dbg.spill, align 8
  call void @llvm.dbg.declare(metadata ptr %self.dbg.spill, metadata !517, metadata !DIExpression()), !dbg !518
  call void @llvm.memcpy.p0.p0.i64(ptr align 8 %_0, ptr align 8 %self, i64 32, i1 false), !dbg !519
  ret void, !dbg !520
}

; <libc::unix::linux_like::lconv as core::clone::Clone>::clone
; Function Attrs: nonlazybind uwtable
define void @"_ZN68_$LT$libc..unix..linux_like..lconv$u20$as$u20$core..clone..Clone$GT$5clone17hba1341670469f395E"(ptr sret(%"unix::linux_like::lconv") align 8 %_0, ptr align 8 %self) unnamed_addr #0 !dbg !521 {
start:
  %self.dbg.spill = alloca ptr, align 8
  store ptr %self, ptr %self.dbg.spill, align 8
  call void @llvm.dbg.declare(metadata ptr %self.dbg.spill, metadata !553, metadata !DIExpression()), !dbg !554
  call void @llvm.memcpy.p0.p0.i64(ptr align 8 %_0, ptr align 8 %self, i64 96, i1 false), !dbg !555
  ret void, !dbg !556
}

; <libc::unix::linux_like::in_pktinfo as core::clone::Clone>::clone
; Function Attrs: nonlazybind uwtable
define void @"_ZN73_$LT$libc..unix..linux_like..in_pktinfo$u20$as$u20$core..clone..Clone$GT$5clone17h9585e67db8ebe73dE"(ptr sret(%"unix::linux_like::in_pktinfo") align 4 %_0, ptr align 4 %self) unnamed_addr #0 !dbg !557 {
start:
  %self.dbg.spill = alloca ptr, align 8
  store ptr %self, ptr %self.dbg.spill, align 8
  call void @llvm.dbg.declare(metadata ptr %self.dbg.spill, metadata !568, metadata !DIExpression()), !dbg !569
  call void @llvm.memcpy.p0.p0.i64(ptr align 4 %_0, ptr align 4 %self, i64 12, i1 false), !dbg !570
  ret void, !dbg !571
}

; <libc::unix::linux_like::ifaddrs as core::clone::Clone>::clone
; Function Attrs: nonlazybind uwtable
define void @"_ZN70_$LT$libc..unix..linux_like..ifaddrs$u20$as$u20$core..clone..Clone$GT$5clone17he6920648f9d28625E"(ptr sret(%"unix::linux_like::ifaddrs") align 8 %_0, ptr align 8 %self) unnamed_addr #0 !dbg !572 {
start:
  %self.dbg.spill = alloca ptr, align 8
  store ptr %self, ptr %self.dbg.spill, align 8
  call void @llvm.dbg.declare(metadata ptr %self.dbg.spill, metadata !588, metadata !DIExpression()), !dbg !589
  call void @llvm.memcpy.p0.p0.i64(ptr align 8 %_0, ptr align 8 %self, i64 56, i1 false), !dbg !590
  ret void, !dbg !591
}

; <libc::unix::linux_like::in6_rtmsg as core::clone::Clone>::clone
; Function Attrs: nonlazybind uwtable
define void @"_ZN72_$LT$libc..unix..linux_like..in6_rtmsg$u20$as$u20$core..clone..Clone$GT$5clone17hbd2ab36291bb65d5E"(ptr sret(%"unix::linux_like::in6_rtmsg") align 8 %_0, ptr align 8 %self) unnamed_addr #0 !dbg !592 {
start:
  %self.dbg.spill = alloca ptr, align 8
  store ptr %self, ptr %self.dbg.spill, align 8
  call void @llvm.dbg.declare(metadata ptr %self.dbg.spill, metadata !610, metadata !DIExpression()), !dbg !611
  call void @llvm.memcpy.p0.p0.i64(ptr align 8 %_0, ptr align 8 %self, i64 80, i1 false), !dbg !612
  ret void, !dbg !613
}

; <libc::unix::linux_like::arpreq as core::clone::Clone>::clone
; Function Attrs: nonlazybind uwtable
define void @"_ZN69_$LT$libc..unix..linux_like..arpreq$u20$as$u20$core..clone..Clone$GT$5clone17hc243e3493794030bE"(ptr sret(%"unix::linux_like::arpreq") align 4 %_0, ptr align 4 %self) unnamed_addr #0 !dbg !614 {
start:
  %self.dbg.spill = alloca ptr, align 8
  store ptr %self, ptr %self.dbg.spill, align 8
  call void @llvm.dbg.declare(metadata ptr %self.dbg.spill, metadata !628, metadata !DIExpression()), !dbg !629
  call void @llvm.memcpy.p0.p0.i64(ptr align 4 %_0, ptr align 4 %self, i64 68, i1 false), !dbg !630
  ret void, !dbg !631
}

; <libc::unix::linux_like::arpreq_old as core::clone::Clone>::clone
; Function Attrs: nonlazybind uwtable
define void @"_ZN73_$LT$libc..unix..linux_like..arpreq_old$u20$as$u20$core..clone..Clone$GT$5clone17ha8e0db60d69a2a5bE"(ptr sret(%"unix::linux_like::arpreq_old") align 4 %_0, ptr align 4 %self) unnamed_addr #0 !dbg !632 {
start:
  %self.dbg.spill = alloca ptr, align 8
  store ptr %self, ptr %self.dbg.spill, align 8
  call void @llvm.dbg.declare(metadata ptr %self.dbg.spill, metadata !644, metadata !DIExpression()), !dbg !645
  call void @llvm.memcpy.p0.p0.i64(ptr align 4 %_0, ptr align 4 %self, i64 52, i1 false), !dbg !646
  ret void, !dbg !647
}

; <libc::unix::linux_like::arphdr as core::clone::Clone>::clone
; Function Attrs: nonlazybind uwtable
define i64 @"_ZN69_$LT$libc..unix..linux_like..arphdr$u20$as$u20$core..clone..Clone$GT$5clone17hb18c12de39441bb7E"(ptr align 2 %self) unnamed_addr #0 !dbg !648 {
start:
  %self.dbg.spill = alloca ptr, align 8
  %_0 = alloca %"unix::linux_like::arphdr", align 2
  store ptr %self, ptr %self.dbg.spill, align 8
  call void @llvm.dbg.declare(metadata ptr %self.dbg.spill, metadata !661, metadata !DIExpression()), !dbg !662
  call void @llvm.memcpy.p0.p0.i64(ptr align 2 %_0, ptr align 2 %self, i64 8, i1 false), !dbg !663
  %0 = load i64, ptr %_0, align 2, !dbg !664
  ret i64 %0, !dbg !664
}

; <libc::unix::linux_like::mmsghdr as core::clone::Clone>::clone
; Function Attrs: nonlazybind uwtable
define void @"_ZN70_$LT$libc..unix..linux_like..mmsghdr$u20$as$u20$core..clone..Clone$GT$5clone17h5bc8357bcac08600E"(ptr sret(%"unix::linux_like::mmsghdr") align 8 %_0, ptr align 8 %self) unnamed_addr #0 !dbg !665 {
start:
  %self.dbg.spill = alloca ptr, align 8
  store ptr %self, ptr %self.dbg.spill, align 8
  call void @llvm.dbg.declare(metadata ptr %self.dbg.spill, metadata !687, metadata !DIExpression()), !dbg !688
  call void @llvm.memcpy.p0.p0.i64(ptr align 8 %_0, ptr align 8 %self, i64 64, i1 false), !dbg !689
  ret void, !dbg !690
}

; <libc::unix::linux_like::epoll_event as core::clone::Clone>::clone
; Function Attrs: nonlazybind uwtable
define void @"_ZN74_$LT$libc..unix..linux_like..epoll_event$u20$as$u20$core..clone..Clone$GT$5clone17hf02d9702ce41446cE"(ptr sret(%"unix::linux_like::epoll_event") align 1 %_0, ptr align 1 %self) unnamed_addr #0 !dbg !691 {
start:
  %self.dbg.spill = alloca ptr, align 8
  store ptr %self, ptr %self.dbg.spill, align 8
  call void @llvm.dbg.declare(metadata ptr %self.dbg.spill, metadata !701, metadata !DIExpression()), !dbg !702
  call void @llvm.memcpy.p0.p0.i64(ptr align 1 %_0, ptr align 1 %self, i64 12, i1 false), !dbg !703
  ret void, !dbg !704
}

; <libc::unix::linux_like::sockaddr_un as core::clone::Clone>::clone
; Function Attrs: nonlazybind uwtable
define void @"_ZN74_$LT$libc..unix..linux_like..sockaddr_un$u20$as$u20$core..clone..Clone$GT$5clone17h795dc6dcf8f67fb5E"(ptr sret(%"unix::linux_like::sockaddr_un") align 2 %_0, ptr align 2 %self) unnamed_addr #0 !dbg !705 {
start:
  %self.dbg.spill = alloca ptr, align 8
  store ptr %self, ptr %self.dbg.spill, align 8
  call void @llvm.dbg.declare(metadata ptr %self.dbg.spill, metadata !718, metadata !DIExpression()), !dbg !719
  call void @llvm.memcpy.p0.p0.i64(ptr align 2 %_0, ptr align 2 %self, i64 110, i1 false), !dbg !720
  ret void, !dbg !721
}

; <libc::unix::linux_like::sockaddr_storage as core::clone::Clone>::clone
; Function Attrs: nonlazybind uwtable
define void @"_ZN79_$LT$libc..unix..linux_like..sockaddr_storage$u20$as$u20$core..clone..Clone$GT$5clone17hb333e922579ac25dE"(ptr sret(%"unix::linux_like::sockaddr_storage") align 8 %_0, ptr align 8 %self) unnamed_addr #0 !dbg !722 {
start:
  %self.dbg.spill = alloca ptr, align 8
  store ptr %self, ptr %self.dbg.spill, align 8
  call void @llvm.dbg.declare(metadata ptr %self.dbg.spill, metadata !736, metadata !DIExpression()), !dbg !737
  call void @llvm.memcpy.p0.p0.i64(ptr align 8 %_0, ptr align 8 %self, i64 128, i1 false), !dbg !738
  ret void, !dbg !739
}

; <libc::unix::linux_like::utsname as core::clone::Clone>::clone
; Function Attrs: nonlazybind uwtable
define void @"_ZN70_$LT$libc..unix..linux_like..utsname$u20$as$u20$core..clone..Clone$GT$5clone17h8d56abda66a10287E"(ptr sret(%"unix::linux_like::utsname") align 1 %_0, ptr align 1 %self) unnamed_addr #0 !dbg !740 {
start:
  %self.dbg.spill = alloca ptr, align 8
  store ptr %self, ptr %self.dbg.spill, align 8
  call void @llvm.dbg.declare(metadata ptr %self.dbg.spill, metadata !757, metadata !DIExpression()), !dbg !758
  call void @llvm.memcpy.p0.p0.i64(ptr align 1 %_0, ptr align 1 %self, i64 390, i1 false), !dbg !759
  ret void, !dbg !760
}

; <libc::unix::linux_like::sigevent as core::clone::Clone>::clone
; Function Attrs: nonlazybind uwtable
define void @"_ZN71_$LT$libc..unix..linux_like..sigevent$u20$as$u20$core..clone..Clone$GT$5clone17h975a6bf1e3f52f6dE"(ptr sret(%"unix::linux_like::sigevent") align 8 %_0, ptr align 8 %self) unnamed_addr #0 !dbg !761 {
start:
  %self.dbg.spill = alloca ptr, align 8
  store ptr %self, ptr %self.dbg.spill, align 8
  call void @llvm.dbg.declare(metadata ptr %self.dbg.spill, metadata !777, metadata !DIExpression()), !dbg !778
  call void @llvm.memcpy.p0.p0.i64(ptr align 8 %_0, ptr align 8 %self, i64 64, i1 false), !dbg !779
  ret void, !dbg !780
}

; libc::unix::linux_like::linux::FUTEX_OP
; Function Attrs: nonlazybind uwtable
define i32 @_ZN4libc4unix10linux_like5linux8FUTEX_OP17h1a86bcf29f5df91dE(i32 %op, i32 %oparg, i32 %cmp, i32 %cmparg) unnamed_addr #0 !dbg !781 {
start:
  %cmparg.dbg.spill = alloca i32, align 4
  %cmp.dbg.spill = alloca i32, align 4
  %oparg.dbg.spill = alloca i32, align 4
  %op.dbg.spill = alloca i32, align 4
  store i32 %op, ptr %op.dbg.spill, align 4
  call void @llvm.dbg.declare(metadata ptr %op.dbg.spill, metadata !786, metadata !DIExpression()), !dbg !790
  store i32 %oparg, ptr %oparg.dbg.spill, align 4
  call void @llvm.dbg.declare(metadata ptr %oparg.dbg.spill, metadata !787, metadata !DIExpression()), !dbg !791
  store i32 %cmp, ptr %cmp.dbg.spill, align 4
  call void @llvm.dbg.declare(metadata ptr %cmp.dbg.spill, metadata !788, metadata !DIExpression()), !dbg !792
  store i32 %cmparg, ptr %cmparg.dbg.spill, align 4
  call void @llvm.dbg.declare(metadata ptr %cmparg.dbg.spill, metadata !789, metadata !DIExpression()), !dbg !793
  %_8 = and i32 %op, 15, !dbg !794
  %_7 = shl i32 %_8, 28, !dbg !795
  %_12 = and i32 %cmp, 15, !dbg !796
  %_11 = shl i32 %_12, 24, !dbg !797
  %_6 = or i32 %_7, %_11, !dbg !795
  %_16 = and i32 %oparg, 4095, !dbg !798
  %_15 = shl i32 %_16, 12, !dbg !799
  %_5 = or i32 %_6, %_15, !dbg !795
  %_19 = and i32 %cmparg, 4095, !dbg !800
  %_0 = or i32 %_5, %_19, !dbg !795
  ret i32 %_0, !dbg !801
}

; <libc::unix::linux_like::linux::glob_t as core::clone::Clone>::clone
; Function Attrs: nonlazybind uwtable
define void @"_ZN76_$LT$libc..unix..linux_like..linux..glob_t$u20$as$u20$core..clone..Clone$GT$5clone17had27f29b7dd65fe5E"(ptr sret(%"unix::linux_like::linux::glob_t") align 8 %_0, ptr align 8 %self) unnamed_addr #0 !dbg !802 {
start:
  %self.dbg.spill = alloca ptr, align 8
  store ptr %self, ptr %self.dbg.spill, align 8
  call void @llvm.dbg.declare(metadata ptr %self.dbg.spill, metadata !819, metadata !DIExpression()), !dbg !820
  call void @llvm.memcpy.p0.p0.i64(ptr align 8 %_0, ptr align 8 %self, i64 72, i1 false), !dbg !821
  ret void, !dbg !822
}

; <libc::unix::linux_like::linux::passwd as core::clone::Clone>::clone
; Function Attrs: nonlazybind uwtable
define void @"_ZN76_$LT$libc..unix..linux_like..linux..passwd$u20$as$u20$core..clone..Clone$GT$5clone17h018f9ac6641788feE"(ptr sret(%"unix::linux_like::linux::passwd") align 8 %_0, ptr align 8 %self) unnamed_addr #0 !dbg !823 {
start:
  %self.dbg.spill = alloca ptr, align 8
  store ptr %self, ptr %self.dbg.spill, align 8
  call void @llvm.dbg.declare(metadata ptr %self.dbg.spill, metadata !838, metadata !DIExpression()), !dbg !839
  call void @llvm.memcpy.p0.p0.i64(ptr align 8 %_0, ptr align 8 %self, i64 48, i1 false), !dbg !840
  ret void, !dbg !841
}

; <libc::unix::linux_like::linux::spwd as core::clone::Clone>::clone
; Function Attrs: nonlazybind uwtable
define void @"_ZN74_$LT$libc..unix..linux_like..linux..spwd$u20$as$u20$core..clone..Clone$GT$5clone17h8d03e5e8f91e7fcdE"(ptr sret(%"unix::linux_like::linux::spwd") align 8 %_0, ptr align 8 %self) unnamed_addr #0 !dbg !842 {
start:
  %self.dbg.spill = alloca ptr, align 8
  store ptr %self, ptr %self.dbg.spill, align 8
  call void @llvm.dbg.declare(metadata ptr %self.dbg.spill, metadata !859, metadata !DIExpression()), !dbg !860
  call void @llvm.memcpy.p0.p0.i64(ptr align 8 %_0, ptr align 8 %self, i64 72, i1 false), !dbg !861
  ret void, !dbg !862
}

; <libc::unix::linux_like::linux::dqblk as core::clone::Clone>::clone
; Function Attrs: nonlazybind uwtable
define void @"_ZN75_$LT$libc..unix..linux_like..linux..dqblk$u20$as$u20$core..clone..Clone$GT$5clone17h4b79593550c55ba2E"(ptr sret(%"unix::linux_like::linux::dqblk") align 8 %_0, ptr align 8 %self) unnamed_addr #0 !dbg !863 {
start:
  %self.dbg.spill = alloca ptr, align 8
  store ptr %self, ptr %self.dbg.spill, align 8
  call void @llvm.dbg.declare(metadata ptr %self.dbg.spill, metadata !880, metadata !DIExpression()), !dbg !881
  call void @llvm.memcpy.p0.p0.i64(ptr align 8 %_0, ptr align 8 %self, i64 72, i1 false), !dbg !882
  ret void, !dbg !883
}

; <libc::unix::linux_like::linux::signalfd_siginfo as core::clone::Clone>::clone
; Function Attrs: nonlazybind uwtable
define void @"_ZN86_$LT$libc..unix..linux_like..linux..signalfd_siginfo$u20$as$u20$core..clone..Clone$GT$5clone17h640d5518f1a97e93E"(ptr sret(%"unix::linux_like::linux::signalfd_siginfo") align 8 %_0, ptr align 8 %self) unnamed_addr #0 !dbg !884 {
start:
  %self.dbg.spill = alloca ptr, align 8
  store ptr %self, ptr %self.dbg.spill, align 8
  call void @llvm.dbg.declare(metadata ptr %self.dbg.spill, metadata !917, metadata !DIExpression()), !dbg !918
  call void @llvm.memcpy.p0.p0.i64(ptr align 8 %_0, ptr align 8 %self, i64 128, i1 false), !dbg !919
  ret void, !dbg !920
}

; <libc::unix::linux_like::linux::itimerspec as core::clone::Clone>::clone
; Function Attrs: nonlazybind uwtable
define void @"_ZN80_$LT$libc..unix..linux_like..linux..itimerspec$u20$as$u20$core..clone..Clone$GT$5clone17hdec6cf1ffa6dea4fE"(ptr sret(%"unix::linux_like::linux::itimerspec") align 8 %_0, ptr align 8 %self) unnamed_addr #0 !dbg !921 {
start:
  %self.dbg.spill = alloca ptr, align 8
  store ptr %self, ptr %self.dbg.spill, align 8
  call void @llvm.dbg.declare(metadata ptr %self.dbg.spill, metadata !931, metadata !DIExpression()), !dbg !932
  call void @llvm.memcpy.p0.p0.i64(ptr align 8 %_0, ptr align 8 %self, i64 32, i1 false), !dbg !933
  ret void, !dbg !934
}

; <libc::unix::linux_like::linux::fsid_t as core::clone::Clone>::clone
; Function Attrs: nonlazybind uwtable
define i64 @"_ZN76_$LT$libc..unix..linux_like..linux..fsid_t$u20$as$u20$core..clone..Clone$GT$5clone17haf84f0d3a40336feE"(ptr align 4 %self) unnamed_addr #0 !dbg !935 {
start:
  %self.dbg.spill = alloca ptr, align 8
  %_0 = alloca %"unix::linux_like::linux::fsid_t", align 4
  store ptr %self, ptr %self.dbg.spill, align 8
  call void @llvm.dbg.declare(metadata ptr %self.dbg.spill, metadata !947, metadata !DIExpression()), !dbg !948
  call void @llvm.memcpy.p0.p0.i64(ptr align 4 %_0, ptr align 4 %self, i64 8, i1 false), !dbg !949
  %0 = load i64, ptr %_0, align 4, !dbg !950
  ret i64 %0, !dbg !950
}

; <libc::unix::linux_like::linux::packet_mreq as core::clone::Clone>::clone
; Function Attrs: nonlazybind uwtable
define void @"_ZN81_$LT$libc..unix..linux_like..linux..packet_mreq$u20$as$u20$core..clone..Clone$GT$5clone17h3485e89a45c4f3d6E"(ptr sret(%"unix::linux_like::linux::packet_mreq") align 4 %_0, ptr align 4 %self) unnamed_addr #0 !dbg !951 {
start:
  %self.dbg.spill = alloca ptr, align 8
  store ptr %self, ptr %self.dbg.spill, align 8
  call void @llvm.dbg.declare(metadata ptr %self.dbg.spill, metadata !963, metadata !DIExpression()), !dbg !964
  call void @llvm.memcpy.p0.p0.i64(ptr align 4 %_0, ptr align 4 %self, i64 16, i1 false), !dbg !965
  ret void, !dbg !966
}

; <libc::unix::linux_like::linux::cpu_set_t as core::clone::Clone>::clone
; Function Attrs: nonlazybind uwtable
define void @"_ZN79_$LT$libc..unix..linux_like..linux..cpu_set_t$u20$as$u20$core..clone..Clone$GT$5clone17h0b84e59c783ea1d7E"(ptr sret(%"unix::linux_like::linux::cpu_set_t") align 8 %_0, ptr align 8 %self) unnamed_addr #0 !dbg !967 {
start:
  %self.dbg.spill = alloca ptr, align 8
  store ptr %self, ptr %self.dbg.spill, align 8
  call void @llvm.dbg.declare(metadata ptr %self.dbg.spill, metadata !976, metadata !DIExpression()), !dbg !977
  call void @llvm.memcpy.p0.p0.i64(ptr align 8 %_0, ptr align 8 %self, i64 128, i1 false), !dbg !978
  ret void, !dbg !979
}

; <libc::unix::linux_like::linux::if_nameindex as core::clone::Clone>::clone
; Function Attrs: nonlazybind uwtable
define { i32, ptr } @"_ZN82_$LT$libc..unix..linux_like..linux..if_nameindex$u20$as$u20$core..clone..Clone$GT$5clone17hdceac18694cd625aE"(ptr align 8 %self) unnamed_addr #0 !dbg !980 {
start:
  %self.dbg.spill = alloca ptr, align 8
  store ptr %self, ptr %self.dbg.spill, align 8
  call void @llvm.dbg.declare(metadata ptr %self.dbg.spill, metadata !990, metadata !DIExpression()), !dbg !991
  %_0.0 = load i32, ptr %self, align 8, !dbg !992, !noundef !33
  %0 = getelementptr inbounds i8, ptr %self, i64 8, !dbg !992
  %_0.1 = load ptr, ptr %0, align 8, !dbg !992, !noundef !33
  %1 = insertvalue { i32, ptr } poison, i32 %_0.0, 0, !dbg !993
  %2 = insertvalue { i32, ptr } %1, ptr %_0.1, 1, !dbg !993
  ret { i32, ptr } %2, !dbg !993
}

; <libc::unix::linux_like::linux::msginfo as core::clone::Clone>::clone
; Function Attrs: nonlazybind uwtable
define void @"_ZN77_$LT$libc..unix..linux_like..linux..msginfo$u20$as$u20$core..clone..Clone$GT$5clone17hb69a4f9c3fae23baE"(ptr sret(%"unix::linux_like::linux::msginfo") align 4 %_0, ptr align 4 %self) unnamed_addr #0 !dbg !994 {
start:
  %self.dbg.spill = alloca ptr, align 8
  store ptr %self, ptr %self.dbg.spill, align 8
  call void @llvm.dbg.declare(metadata ptr %self.dbg.spill, metadata !1010, metadata !DIExpression()), !dbg !1011
  call void @llvm.memcpy.p0.p0.i64(ptr align 4 %_0, ptr align 4 %self, i64 32, i1 false), !dbg !1012
  ret void, !dbg !1013
}

; <libc::unix::linux_like::linux::sembuf as core::clone::Clone>::clone
; Function Attrs: nonlazybind uwtable
define i48 @"_ZN76_$LT$libc..unix..linux_like..linux..sembuf$u20$as$u20$core..clone..Clone$GT$5clone17h11e9792b59f80090E"(ptr align 2 %self) unnamed_addr #0 !dbg !1014 {
start:
  %self.dbg.spill = alloca ptr, align 8
  %_0 = alloca %"unix::linux_like::linux::sembuf", align 2
  store ptr %self, ptr %self.dbg.spill, align 8
  call void @llvm.dbg.declare(metadata ptr %self.dbg.spill, metadata !1025, metadata !DIExpression()), !dbg !1026
  call void @llvm.memcpy.p0.p0.i64(ptr align 2 %_0, ptr align 2 %self, i64 6, i1 false), !dbg !1027
  %0 = load i48, ptr %_0, align 2, !dbg !1028
  ret i48 %0, !dbg !1028
}

; <libc::unix::linux_like::linux::input_event as core::clone::Clone>::clone
; Function Attrs: nonlazybind uwtable
define void @"_ZN81_$LT$libc..unix..linux_like..linux..input_event$u20$as$u20$core..clone..Clone$GT$5clone17h18e27df807bf74daE"(ptr sret(%"unix::linux_like::linux::input_event") align 8 %_0, ptr align 8 %self) unnamed_addr #0 !dbg !1029 {
start:
  %self.dbg.spill = alloca ptr, align 8
  store ptr %self, ptr %self.dbg.spill, align 8
  call void @llvm.dbg.declare(metadata ptr %self.dbg.spill, metadata !1041, metadata !DIExpression()), !dbg !1042
  call void @llvm.memcpy.p0.p0.i64(ptr align 8 %_0, ptr align 8 %self, i64 24, i1 false), !dbg !1043
  ret void, !dbg !1044
}

; <libc::unix::linux_like::linux::input_id as core::clone::Clone>::clone
; Function Attrs: nonlazybind uwtable
define i64 @"_ZN78_$LT$libc..unix..linux_like..linux..input_id$u20$as$u20$core..clone..Clone$GT$5clone17h705824bf47a1296cE"(ptr align 2 %self) unnamed_addr #0 !dbg !1045 {
start:
  %self.dbg.spill = alloca ptr, align 8
  %_0 = alloca %"unix::linux_like::linux::input_id", align 2
  store ptr %self, ptr %self.dbg.spill, align 8
  call void @llvm.dbg.declare(metadata ptr %self.dbg.spill, metadata !1057, metadata !DIExpression()), !dbg !1058
  call void @llvm.memcpy.p0.p0.i64(ptr align 2 %_0, ptr align 2 %self, i64 8, i1 false), !dbg !1059
  %0 = load i64, ptr %_0, align 2, !dbg !1060
  ret i64 %0, !dbg !1060
}

; <libc::unix::linux_like::linux::input_absinfo as core::clone::Clone>::clone
; Function Attrs: nonlazybind uwtable
define void @"_ZN83_$LT$libc..unix..linux_like..linux..input_absinfo$u20$as$u20$core..clone..Clone$GT$5clone17h8f55274ac1b27d06E"(ptr sret(%"unix::linux_like::linux::input_absinfo") align 4 %_0, ptr align 4 %self) unnamed_addr #0 !dbg !1061 {
start:
  %self.dbg.spill = alloca ptr, align 8
  store ptr %self, ptr %self.dbg.spill, align 8
  call void @llvm.dbg.declare(metadata ptr %self.dbg.spill, metadata !1075, metadata !DIExpression()), !dbg !1076
  call void @llvm.memcpy.p0.p0.i64(ptr align 4 %_0, ptr align 4 %self, i64 24, i1 false), !dbg !1077
  ret void, !dbg !1078
}

; <libc::unix::linux_like::linux::input_keymap_entry as core::clone::Clone>::clone
; Function Attrs: nonlazybind uwtable
define void @"_ZN88_$LT$libc..unix..linux_like..linux..input_keymap_entry$u20$as$u20$core..clone..Clone$GT$5clone17h5ee7dc174f9459b4E"(ptr sret(%"unix::linux_like::linux::input_keymap_entry") align 4 %_0, ptr align 4 %self) unnamed_addr #0 !dbg !1079 {
start:
  %self.dbg.spill = alloca ptr, align 8
  store ptr %self, ptr %self.dbg.spill, align 8
  call void @llvm.dbg.declare(metadata ptr %self.dbg.spill, metadata !1095, metadata !DIExpression()), !dbg !1096
  call void @llvm.memcpy.p0.p0.i64(ptr align 4 %_0, ptr align 4 %self, i64 40, i1 false), !dbg !1097
  ret void, !dbg !1098
}

; <libc::unix::linux_like::linux::input_mask as core::clone::Clone>::clone
; Function Attrs: nonlazybind uwtable
define void @"_ZN80_$LT$libc..unix..linux_like..linux..input_mask$u20$as$u20$core..clone..Clone$GT$5clone17hc2a35e57891ad1cfE"(ptr sret(%"unix::linux_like::linux::input_mask") align 8 %_0, ptr align 8 %self) unnamed_addr #0 !dbg !1099 {
start:
  %self.dbg.spill = alloca ptr, align 8
  store ptr %self, ptr %self.dbg.spill, align 8
  call void @llvm.dbg.declare(metadata ptr %self.dbg.spill, metadata !1110, metadata !DIExpression()), !dbg !1111
  call void @llvm.memcpy.p0.p0.i64(ptr align 8 %_0, ptr align 8 %self, i64 16, i1 false), !dbg !1112
  ret void, !dbg !1113
}

; <libc::unix::linux_like::linux::ff_replay as core::clone::Clone>::clone
; Function Attrs: nonlazybind uwtable
define { i16, i16 } @"_ZN79_$LT$libc..unix..linux_like..linux..ff_replay$u20$as$u20$core..clone..Clone$GT$5clone17h6809b721f44aa8c8E"(ptr align 2 %self) unnamed_addr #0 !dbg !1114 {
start:
  %self.dbg.spill = alloca ptr, align 8
  store ptr %self, ptr %self.dbg.spill, align 8
  call void @llvm.dbg.declare(metadata ptr %self.dbg.spill, metadata !1124, metadata !DIExpression()), !dbg !1125
  %_0.0 = load i16, ptr %self, align 2, !dbg !1126, !noundef !33
  %0 = getelementptr inbounds i8, ptr %self, i64 2, !dbg !1126
  %_0.1 = load i16, ptr %0, align 2, !dbg !1126, !noundef !33
  %1 = insertvalue { i16, i16 } poison, i16 %_0.0, 0, !dbg !1127
  %2 = insertvalue { i16, i16 } %1, i16 %_0.1, 1, !dbg !1127
  ret { i16, i16 } %2, !dbg !1127
}

; <libc::unix::linux_like::linux::ff_trigger as core::clone::Clone>::clone
; Function Attrs: nonlazybind uwtable
define { i16, i16 } @"_ZN80_$LT$libc..unix..linux_like..linux..ff_trigger$u20$as$u20$core..clone..Clone$GT$5clone17hde424ee93414ef1dE"(ptr align 2 %self) unnamed_addr #0 !dbg !1128 {
start:
  %self.dbg.spill = alloca ptr, align 8
  store ptr %self, ptr %self.dbg.spill, align 8
  call void @llvm.dbg.declare(metadata ptr %self.dbg.spill, metadata !1138, metadata !DIExpression()), !dbg !1139
  %_0.0 = load i16, ptr %self, align 2, !dbg !1140, !noundef !33
  %0 = getelementptr inbounds i8, ptr %self, i64 2, !dbg !1140
  %_0.1 = load i16, ptr %0, align 2, !dbg !1140, !noundef !33
  %1 = insertvalue { i16, i16 } poison, i16 %_0.0, 0, !dbg !1141
  %2 = insertvalue { i16, i16 } %1, i16 %_0.1, 1, !dbg !1141
  ret { i16, i16 } %2, !dbg !1141
}

; <libc::unix::linux_like::linux::ff_envelope as core::clone::Clone>::clone
; Function Attrs: nonlazybind uwtable
define i64 @"_ZN81_$LT$libc..unix..linux_like..linux..ff_envelope$u20$as$u20$core..clone..Clone$GT$5clone17h2726241dad897710E"(ptr align 2 %self) unnamed_addr #0 !dbg !1142 {
start:
  %self.dbg.spill = alloca ptr, align 8
  %_0 = alloca %"unix::linux_like::linux::ff_envelope", align 2
  store ptr %self, ptr %self.dbg.spill, align 8
  call void @llvm.dbg.declare(metadata ptr %self.dbg.spill, metadata !1154, metadata !DIExpression()), !dbg !1155
  call void @llvm.memcpy.p0.p0.i64(ptr align 2 %_0, ptr align 2 %self, i64 8, i1 false), !dbg !1156
  %0 = load i64, ptr %_0, align 2, !dbg !1157
  ret i64 %0, !dbg !1157
}

; <libc::unix::linux_like::linux::ff_constant_effect as core::clone::Clone>::clone
; Function Attrs: nonlazybind uwtable
define void @"_ZN88_$LT$libc..unix..linux_like..linux..ff_constant_effect$u20$as$u20$core..clone..Clone$GT$5clone17habf9acb83c4707c9E"(ptr sret(%"unix::linux_like::linux::ff_constant_effect") align 2 %_0, ptr align 2 %self) unnamed_addr #0 !dbg !1158 {
start:
  %self.dbg.spill = alloca ptr, align 8
  store ptr %self, ptr %self.dbg.spill, align 8
  call void @llvm.dbg.declare(metadata ptr %self.dbg.spill, metadata !1168, metadata !DIExpression()), !dbg !1169
  call void @llvm.memcpy.p0.p0.i64(ptr align 2 %_0, ptr align 2 %self, i64 10, i1 false), !dbg !1170
  ret void, !dbg !1171
}

; <libc::unix::linux_like::linux::ff_ramp_effect as core::clone::Clone>::clone
; Function Attrs: nonlazybind uwtable
define void @"_ZN84_$LT$libc..unix..linux_like..linux..ff_ramp_effect$u20$as$u20$core..clone..Clone$GT$5clone17h20be38c59e0a2941E"(ptr sret(%"unix::linux_like::linux::ff_ramp_effect") align 2 %_0, ptr align 2 %self) unnamed_addr #0 !dbg !1172 {
start:
  %self.dbg.spill = alloca ptr, align 8
  store ptr %self, ptr %self.dbg.spill, align 8
  call void @llvm.dbg.declare(metadata ptr %self.dbg.spill, metadata !1183, metadata !DIExpression()), !dbg !1184
  call void @llvm.memcpy.p0.p0.i64(ptr align 2 %_0, ptr align 2 %self, i64 12, i1 false), !dbg !1185
  ret void, !dbg !1186
}

; <libc::unix::linux_like::linux::ff_condition_effect as core::clone::Clone>::clone
; Function Attrs: nonlazybind uwtable
define void @"_ZN89_$LT$libc..unix..linux_like..linux..ff_condition_effect$u20$as$u20$core..clone..Clone$GT$5clone17hb2485770c83b37a2E"(ptr sret(%"unix::linux_like::linux::ff_condition_effect") align 2 %_0, ptr align 2 %self) unnamed_addr #0 !dbg !1187 {
start:
  %self.dbg.spill = alloca ptr, align 8
  store ptr %self, ptr %self.dbg.spill, align 8
  call void @llvm.dbg.declare(metadata ptr %self.dbg.spill, metadata !1201, metadata !DIExpression()), !dbg !1202
  call void @llvm.memcpy.p0.p0.i64(ptr align 2 %_0, ptr align 2 %self, i64 12, i1 false), !dbg !1203
  ret void, !dbg !1204
}

; <libc::unix::linux_like::linux::ff_periodic_effect as core::clone::Clone>::clone
; Function Attrs: nonlazybind uwtable
define void @"_ZN88_$LT$libc..unix..linux_like..linux..ff_periodic_effect$u20$as$u20$core..clone..Clone$GT$5clone17hac8cc89b91add1e0E"(ptr sret(%"unix::linux_like::linux::ff_periodic_effect") align 8 %_0, ptr align 8 %self) unnamed_addr #0 !dbg !1205 {
start:
  %self.dbg.spill = alloca ptr, align 8
  store ptr %self, ptr %self.dbg.spill, align 8
  call void @llvm.dbg.declare(metadata ptr %self.dbg.spill, metadata !1222, metadata !DIExpression()), !dbg !1223
  call void @llvm.memcpy.p0.p0.i64(ptr align 8 %_0, ptr align 8 %self, i64 32, i1 false), !dbg !1224
  ret void, !dbg !1225
}

; <libc::unix::linux_like::linux::ff_rumble_effect as core::clone::Clone>::clone
; Function Attrs: nonlazybind uwtable
define { i16, i16 } @"_ZN86_$LT$libc..unix..linux_like..linux..ff_rumble_effect$u20$as$u20$core..clone..Clone$GT$5clone17h424f7d77765274f9E"(ptr align 2 %self) unnamed_addr #0 !dbg !1226 {
start:
  %self.dbg.spill = alloca ptr, align 8
  store ptr %self, ptr %self.dbg.spill, align 8
  call void @llvm.dbg.declare(metadata ptr %self.dbg.spill, metadata !1236, metadata !DIExpression()), !dbg !1237
  %_0.0 = load i16, ptr %self, align 2, !dbg !1238, !noundef !33
  %0 = getelementptr inbounds i8, ptr %self, i64 2, !dbg !1238
  %_0.1 = load i16, ptr %0, align 2, !dbg !1238, !noundef !33
  %1 = insertvalue { i16, i16 } poison, i16 %_0.0, 0, !dbg !1239
  %2 = insertvalue { i16, i16 } %1, i16 %_0.1, 1, !dbg !1239
  ret { i16, i16 } %2, !dbg !1239
}

; <libc::unix::linux_like::linux::ff_effect as core::clone::Clone>::clone
; Function Attrs: nonlazybind uwtable
define void @"_ZN79_$LT$libc..unix..linux_like..linux..ff_effect$u20$as$u20$core..clone..Clone$GT$5clone17he47b23713013c1a9E"(ptr sret(%"unix::linux_like::linux::ff_effect") align 8 %_0, ptr align 8 %self) unnamed_addr #0 !dbg !1240 {
start:
  %self.dbg.spill = alloca ptr, align 8
  store ptr %self, ptr %self.dbg.spill, align 8
  call void @llvm.dbg.declare(metadata ptr %self.dbg.spill, metadata !1257, metadata !DIExpression()), !dbg !1258
  call void @llvm.memcpy.p0.p0.i64(ptr align 8 %_0, ptr align 8 %self, i64 48, i1 false), !dbg !1259
  ret void, !dbg !1260
}

; <libc::unix::linux_like::linux::uinput_ff_upload as core::clone::Clone>::clone
; Function Attrs: nonlazybind uwtable
define void @"_ZN86_$LT$libc..unix..linux_like..linux..uinput_ff_upload$u20$as$u20$core..clone..Clone$GT$5clone17h8a3eaa058f83a865E"(ptr sret(%"unix::linux_like::linux::uinput_ff_upload") align 8 %_0, ptr align 8 %self) unnamed_addr #0 !dbg !1261 {
start:
  %self.dbg.spill = alloca ptr, align 8
  store ptr %self, ptr %self.dbg.spill, align 8
  call void @llvm.dbg.declare(metadata ptr %self.dbg.spill, metadata !1273, metadata !DIExpression()), !dbg !1274
  call void @llvm.memcpy.p0.p0.i64(ptr align 8 %_0, ptr align 8 %self, i64 104, i1 false), !dbg !1275
  ret void, !dbg !1276
}

; <libc::unix::linux_like::linux::uinput_ff_erase as core::clone::Clone>::clone
; Function Attrs: nonlazybind uwtable
define void @"_ZN85_$LT$libc..unix..linux_like..linux..uinput_ff_erase$u20$as$u20$core..clone..Clone$GT$5clone17hfa3a7227c83d1336E"(ptr sret(%"unix::linux_like::linux::uinput_ff_erase") align 4 %_0, ptr align 4 %self) unnamed_addr #0 !dbg !1277 {
start:
  %self.dbg.spill = alloca ptr, align 8
  store ptr %self, ptr %self.dbg.spill, align 8
  call void @llvm.dbg.declare(metadata ptr %self.dbg.spill, metadata !1288, metadata !DIExpression()), !dbg !1289
  call void @llvm.memcpy.p0.p0.i64(ptr align 4 %_0, ptr align 4 %self, i64 12, i1 false), !dbg !1290
  ret void, !dbg !1291
}

; <libc::unix::linux_like::linux::uinput_abs_setup as core::clone::Clone>::clone
; Function Attrs: nonlazybind uwtable
define void @"_ZN86_$LT$libc..unix..linux_like..linux..uinput_abs_setup$u20$as$u20$core..clone..Clone$GT$5clone17h7905773cd02817efE"(ptr sret(%"unix::linux_like::linux::uinput_abs_setup") align 4 %_0, ptr align 4 %self) unnamed_addr #0 !dbg !1292 {
start:
  %self.dbg.spill = alloca ptr, align 8
  store ptr %self, ptr %self.dbg.spill, align 8
  call void @llvm.dbg.declare(metadata ptr %self.dbg.spill, metadata !1302, metadata !DIExpression()), !dbg !1303
  call void @llvm.memcpy.p0.p0.i64(ptr align 4 %_0, ptr align 4 %self, i64 28, i1 false), !dbg !1304
  ret void, !dbg !1305
}

; <libc::unix::linux_like::linux::dl_phdr_info as core::clone::Clone>::clone
; Function Attrs: nonlazybind uwtable
define void @"_ZN82_$LT$libc..unix..linux_like..linux..dl_phdr_info$u20$as$u20$core..clone..Clone$GT$5clone17h6a370f7bfd298f9fE"(ptr sret(%"unix::linux_like::linux::dl_phdr_info") align 8 %_0, ptr align 8 %self) unnamed_addr #0 !dbg !1306 {
start:
  %self.dbg.spill = alloca ptr, align 8
  store ptr %self, ptr %self.dbg.spill, align 8
  call void @llvm.dbg.declare(metadata ptr %self.dbg.spill, metadata !1333, metadata !DIExpression()), !dbg !1334
  call void @llvm.memcpy.p0.p0.i64(ptr align 8 %_0, ptr align 8 %self, i64 64, i1 false), !dbg !1335
  ret void, !dbg !1336
}

; <libc::unix::linux_like::linux::Elf32_Ehdr as core::clone::Clone>::clone
; Function Attrs: nonlazybind uwtable
define void @"_ZN80_$LT$libc..unix..linux_like..linux..Elf32_Ehdr$u20$as$u20$core..clone..Clone$GT$5clone17hf8192b690b1ac904E"(ptr sret(%"unix::linux_like::linux::Elf32_Ehdr") align 4 %_0, ptr align 4 %self) unnamed_addr #0 !dbg !1337 {
start:
  %self.dbg.spill = alloca ptr, align 8
  store ptr %self, ptr %self.dbg.spill, align 8
  call void @llvm.dbg.declare(metadata ptr %self.dbg.spill, metadata !1359, metadata !DIExpression()), !dbg !1360
  call void @llvm.memcpy.p0.p0.i64(ptr align 4 %_0, ptr align 4 %self, i64 52, i1 false), !dbg !1361
  ret void, !dbg !1362
}

; <libc::unix::linux_like::linux::Elf64_Ehdr as core::clone::Clone>::clone
; Function Attrs: nonlazybind uwtable
define void @"_ZN80_$LT$libc..unix..linux_like..linux..Elf64_Ehdr$u20$as$u20$core..clone..Clone$GT$5clone17h6e5d6296d8bfac4cE"(ptr sret(%"unix::linux_like::linux::Elf64_Ehdr") align 8 %_0, ptr align 8 %self) unnamed_addr #0 !dbg !1363 {
start:
  %self.dbg.spill = alloca ptr, align 8
  store ptr %self, ptr %self.dbg.spill, align 8
  call void @llvm.dbg.declare(metadata ptr %self.dbg.spill, metadata !1385, metadata !DIExpression()), !dbg !1386
  call void @llvm.memcpy.p0.p0.i64(ptr align 8 %_0, ptr align 8 %self, i64 64, i1 false), !dbg !1387
  ret void, !dbg !1388
}

; <libc::unix::linux_like::linux::Elf32_Sym as core::clone::Clone>::clone
; Function Attrs: nonlazybind uwtable
define void @"_ZN79_$LT$libc..unix..linux_like..linux..Elf32_Sym$u20$as$u20$core..clone..Clone$GT$5clone17h7c819dd49e77c8bcE"(ptr sret(%"unix::linux_like::linux::Elf32_Sym") align 4 %_0, ptr align 4 %self) unnamed_addr #0 !dbg !1389 {
start:
  %self.dbg.spill = alloca ptr, align 8
  store ptr %self, ptr %self.dbg.spill, align 8
  call void @llvm.dbg.declare(metadata ptr %self.dbg.spill, metadata !1403, metadata !DIExpression()), !dbg !1404
  call void @llvm.memcpy.p0.p0.i64(ptr align 4 %_0, ptr align 4 %self, i64 16, i1 false), !dbg !1405
  ret void, !dbg !1406
}

; <libc::unix::linux_like::linux::Elf64_Sym as core::clone::Clone>::clone
; Function Attrs: nonlazybind uwtable
define void @"_ZN79_$LT$libc..unix..linux_like..linux..Elf64_Sym$u20$as$u20$core..clone..Clone$GT$5clone17hf87dcd345a2853fdE"(ptr sret(%"unix::linux_like::linux::Elf64_Sym") align 8 %_0, ptr align 8 %self) unnamed_addr #0 !dbg !1407 {
start:
  %self.dbg.spill = alloca ptr, align 8
  store ptr %self, ptr %self.dbg.spill, align 8
  call void @llvm.dbg.declare(metadata ptr %self.dbg.spill, metadata !1421, metadata !DIExpression()), !dbg !1422
  call void @llvm.memcpy.p0.p0.i64(ptr align 8 %_0, ptr align 8 %self, i64 24, i1 false), !dbg !1423
  ret void, !dbg !1424
}

; <libc::unix::linux_like::linux::Elf32_Phdr as core::clone::Clone>::clone
; Function Attrs: nonlazybind uwtable
define void @"_ZN80_$LT$libc..unix..linux_like..linux..Elf32_Phdr$u20$as$u20$core..clone..Clone$GT$5clone17hc1313abefedaa46cE"(ptr sret(%"unix::linux_like::linux::Elf32_Phdr") align 4 %_0, ptr align 4 %self) unnamed_addr #0 !dbg !1425 {
start:
  %self.dbg.spill = alloca ptr, align 8
  store ptr %self, ptr %self.dbg.spill, align 8
  call void @llvm.dbg.declare(metadata ptr %self.dbg.spill, metadata !1441, metadata !DIExpression()), !dbg !1442
  call void @llvm.memcpy.p0.p0.i64(ptr align 4 %_0, ptr align 4 %self, i64 32, i1 false), !dbg !1443
  ret void, !dbg !1444
}

; <libc::unix::linux_like::linux::Elf64_Phdr as core::clone::Clone>::clone
; Function Attrs: nonlazybind uwtable
define void @"_ZN80_$LT$libc..unix..linux_like..linux..Elf64_Phdr$u20$as$u20$core..clone..Clone$GT$5clone17h95701a8360ea557bE"(ptr sret(%"unix::linux_like::linux::Elf64_Phdr") align 8 %_0, ptr align 8 %self) unnamed_addr #0 !dbg !1445 {
start:
  %self.dbg.spill = alloca ptr, align 8
  store ptr %self, ptr %self.dbg.spill, align 8
  call void @llvm.dbg.declare(metadata ptr %self.dbg.spill, metadata !1451, metadata !DIExpression()), !dbg !1452
  call void @llvm.memcpy.p0.p0.i64(ptr align 8 %_0, ptr align 8 %self, i64 56, i1 false), !dbg !1453
  ret void, !dbg !1454
}

; <libc::unix::linux_like::linux::Elf32_Shdr as core::clone::Clone>::clone
; Function Attrs: nonlazybind uwtable
define void @"_ZN80_$LT$libc..unix..linux_like..linux..Elf32_Shdr$u20$as$u20$core..clone..Clone$GT$5clone17h6711fb2b4edc5581E"(ptr sret(%"unix::linux_like::linux::Elf32_Shdr") align 4 %_0, ptr align 4 %self) unnamed_addr #0 !dbg !1455 {
start:
  %self.dbg.spill = alloca ptr, align 8
  store ptr %self, ptr %self.dbg.spill, align 8
  call void @llvm.dbg.declare(metadata ptr %self.dbg.spill, metadata !1473, metadata !DIExpression()), !dbg !1474
  call void @llvm.memcpy.p0.p0.i64(ptr align 4 %_0, ptr align 4 %self, i64 40, i1 false), !dbg !1475
  ret void, !dbg !1476
}

; <libc::unix::linux_like::linux::Elf64_Shdr as core::clone::Clone>::clone
; Function Attrs: nonlazybind uwtable
define void @"_ZN80_$LT$libc..unix..linux_like..linux..Elf64_Shdr$u20$as$u20$core..clone..Clone$GT$5clone17h9f5ec5669f5fa604E"(ptr sret(%"unix::linux_like::linux::Elf64_Shdr") align 8 %_0, ptr align 8 %self) unnamed_addr #0 !dbg !1477 {
start:
  %self.dbg.spill = alloca ptr, align 8
  store ptr %self, ptr %self.dbg.spill, align 8
  call void @llvm.dbg.declare(metadata ptr %self.dbg.spill, metadata !1495, metadata !DIExpression()), !dbg !1496
  call void @llvm.memcpy.p0.p0.i64(ptr align 8 %_0, ptr align 8 %self, i64 64, i1 false), !dbg !1497
  ret void, !dbg !1498
}

; <libc::unix::linux_like::linux::ucred as core::clone::Clone>::clone
; Function Attrs: nonlazybind uwtable
define void @"_ZN75_$LT$libc..unix..linux_like..linux..ucred$u20$as$u20$core..clone..Clone$GT$5clone17ha1eba60d985dbb4dE"(ptr sret(%"unix::linux_like::linux::ucred") align 4 %_0, ptr align 4 %self) unnamed_addr #0 !dbg !1499 {
start:
  %self.dbg.spill = alloca ptr, align 8
  store ptr %self, ptr %self.dbg.spill, align 8
  call void @llvm.dbg.declare(metadata ptr %self.dbg.spill, metadata !1510, metadata !DIExpression()), !dbg !1511
  call void @llvm.memcpy.p0.p0.i64(ptr align 4 %_0, ptr align 4 %self, i64 12, i1 false), !dbg !1512
  ret void, !dbg !1513
}

; <libc::unix::linux_like::linux::mntent as core::clone::Clone>::clone
; Function Attrs: nonlazybind uwtable
define void @"_ZN76_$LT$libc..unix..linux_like..linux..mntent$u20$as$u20$core..clone..Clone$GT$5clone17hf865551a2727e517E"(ptr sret(%"unix::linux_like::linux::mntent") align 8 %_0, ptr align 8 %self) unnamed_addr #0 !dbg !1514 {
start:
  %self.dbg.spill = alloca ptr, align 8
  store ptr %self, ptr %self.dbg.spill, align 8
  call void @llvm.dbg.declare(metadata ptr %self.dbg.spill, metadata !1528, metadata !DIExpression()), !dbg !1529
  call void @llvm.memcpy.p0.p0.i64(ptr align 8 %_0, ptr align 8 %self, i64 40, i1 false), !dbg !1530
  ret void, !dbg !1531
}

; <libc::unix::linux_like::linux::posix_spawn_file_actions_t as core::clone::Clone>::clone
; Function Attrs: nonlazybind uwtable
define void @"_ZN96_$LT$libc..unix..linux_like..linux..posix_spawn_file_actions_t$u20$as$u20$core..clone..Clone$GT$5clone17h89d67a03c1779171E"(ptr sret(%"unix::linux_like::linux::posix_spawn_file_actions_t") align 8 %_0, ptr align 8 %self) unnamed_addr #0 !dbg !1532 {
start:
  %self.dbg.spill = alloca ptr, align 8
  store ptr %self, ptr %self.dbg.spill, align 8
  call void @llvm.dbg.declare(metadata ptr %self.dbg.spill, metadata !1546, metadata !DIExpression()), !dbg !1547
  call void @llvm.memcpy.p0.p0.i64(ptr align 8 %_0, ptr align 8 %self, i64 80, i1 false), !dbg !1548
  ret void, !dbg !1549
}

; <libc::unix::linux_like::linux::posix_spawnattr_t as core::clone::Clone>::clone
; Function Attrs: nonlazybind uwtable
define void @"_ZN87_$LT$libc..unix..linux_like..linux..posix_spawnattr_t$u20$as$u20$core..clone..Clone$GT$5clone17hee99cefa2850664bE"(ptr sret(%"unix::linux_like::linux::posix_spawnattr_t") align 8 %_0, ptr align 8 %self) unnamed_addr #0 !dbg !1550 {
start:
  %self.dbg.spill = alloca ptr, align 8
  store ptr %self, ptr %self.dbg.spill, align 8
  call void @llvm.dbg.declare(metadata ptr %self.dbg.spill, metadata !1569, metadata !DIExpression()), !dbg !1570
  call void @llvm.memcpy.p0.p0.i64(ptr align 8 %_0, ptr align 8 %self, i64 336, i1 false), !dbg !1571
  ret void, !dbg !1572
}

; <libc::unix::linux_like::linux::genlmsghdr as core::clone::Clone>::clone
; Function Attrs: nonlazybind uwtable
define i32 @"_ZN80_$LT$libc..unix..linux_like..linux..genlmsghdr$u20$as$u20$core..clone..Clone$GT$5clone17h164b260f44a5a960E"(ptr align 2 %self) unnamed_addr #0 !dbg !1573 {
start:
  %self.dbg.spill = alloca ptr, align 8
  %_0 = alloca %"unix::linux_like::linux::genlmsghdr", align 2
  store ptr %self, ptr %self.dbg.spill, align 8
  call void @llvm.dbg.declare(metadata ptr %self.dbg.spill, metadata !1584, metadata !DIExpression()), !dbg !1585
  call void @llvm.memcpy.p0.p0.i64(ptr align 2 %_0, ptr align 2 %self, i64 4, i1 false), !dbg !1586
  %0 = load i32, ptr %_0, align 2, !dbg !1587
  ret i32 %0, !dbg !1587
}

; <libc::unix::linux_like::linux::in6_pktinfo as core::clone::Clone>::clone
; Function Attrs: nonlazybind uwtable
define void @"_ZN81_$LT$libc..unix..linux_like..linux..in6_pktinfo$u20$as$u20$core..clone..Clone$GT$5clone17h59012b9d6494f835E"(ptr sret(%"unix::linux_like::linux::in6_pktinfo") align 4 %_0, ptr align 4 %self) unnamed_addr #0 !dbg !1588 {
start:
  %self.dbg.spill = alloca ptr, align 8
  store ptr %self, ptr %self.dbg.spill, align 8
  call void @llvm.dbg.declare(metadata ptr %self.dbg.spill, metadata !1598, metadata !DIExpression()), !dbg !1599
  call void @llvm.memcpy.p0.p0.i64(ptr align 4 %_0, ptr align 4 %self, i64 20, i1 false), !dbg !1600
  ret void, !dbg !1601
}

; <libc::unix::linux_like::linux::arpd_request as core::clone::Clone>::clone
; Function Attrs: nonlazybind uwtable
define void @"_ZN82_$LT$libc..unix..linux_like..linux..arpd_request$u20$as$u20$core..clone..Clone$GT$5clone17hcebcb0786d55c46aE"(ptr sret(%"unix::linux_like::linux::arpd_request") align 8 %_0, ptr align 8 %self) unnamed_addr #0 !dbg !1602 {
start:
  %self.dbg.spill = alloca ptr, align 8
  store ptr %self, ptr %self.dbg.spill, align 8
  call void @llvm.dbg.declare(metadata ptr %self.dbg.spill, metadata !1619, metadata !DIExpression()), !dbg !1620
  call void @llvm.memcpy.p0.p0.i64(ptr align 8 %_0, ptr align 8 %self, i64 40, i1 false), !dbg !1621
  ret void, !dbg !1622
}

; <libc::unix::linux_like::linux::inotify_event as core::clone::Clone>::clone
; Function Attrs: nonlazybind uwtable
define void @"_ZN83_$LT$libc..unix..linux_like..linux..inotify_event$u20$as$u20$core..clone..Clone$GT$5clone17h68d0d6fa4c5482dcE"(ptr sret(%"unix::linux_like::linux::inotify_event") align 4 %_0, ptr align 4 %self) unnamed_addr #0 !dbg !1623 {
start:
  %self.dbg.spill = alloca ptr, align 8
  store ptr %self, ptr %self.dbg.spill, align 8
  call void @llvm.dbg.declare(metadata ptr %self.dbg.spill, metadata !1635, metadata !DIExpression()), !dbg !1636
  call void @llvm.memcpy.p0.p0.i64(ptr align 4 %_0, ptr align 4 %self, i64 16, i1 false), !dbg !1637
  ret void, !dbg !1638
}

; <libc::unix::linux_like::linux::fanotify_response as core::clone::Clone>::clone
; Function Attrs: nonlazybind uwtable
define { i32, i32 } @"_ZN87_$LT$libc..unix..linux_like..linux..fanotify_response$u20$as$u20$core..clone..Clone$GT$5clone17h3692804d362d3be9E"(ptr align 4 %self) unnamed_addr #0 !dbg !1639 {
start:
  %self.dbg.spill = alloca ptr, align 8
  store ptr %self, ptr %self.dbg.spill, align 8
  call void @llvm.dbg.declare(metadata ptr %self.dbg.spill, metadata !1649, metadata !DIExpression()), !dbg !1650
  %_0.0 = load i32, ptr %self, align 4, !dbg !1651, !noundef !33
  %0 = getelementptr inbounds i8, ptr %self, i64 4, !dbg !1651
  %_0.1 = load i32, ptr %0, align 4, !dbg !1651, !noundef !33
  %1 = insertvalue { i32, i32 } poison, i32 %_0.0, 0, !dbg !1652
  %2 = insertvalue { i32, i32 } %1, i32 %_0.1, 1, !dbg !1652
  ret { i32, i32 } %2, !dbg !1652
}

; <libc::unix::linux_like::linux::sockaddr_vm as core::clone::Clone>::clone
; Function Attrs: nonlazybind uwtable
define void @"_ZN81_$LT$libc..unix..linux_like..linux..sockaddr_vm$u20$as$u20$core..clone..Clone$GT$5clone17h1c33dd861b516418E"(ptr sret(%"unix::linux_like::linux::sockaddr_vm") align 4 %_0, ptr align 4 %self) unnamed_addr #0 !dbg !1653 {
start:
  %self.dbg.spill = alloca ptr, align 8
  store ptr %self, ptr %self.dbg.spill, align 8
  call void @llvm.dbg.declare(metadata ptr %self.dbg.spill, metadata !1667, metadata !DIExpression()), !dbg !1668
  call void @llvm.memcpy.p0.p0.i64(ptr align 4 %_0, ptr align 4 %self, i64 16, i1 false), !dbg !1669
  ret void, !dbg !1670
}

; <libc::unix::linux_like::linux::regmatch_t as core::clone::Clone>::clone
; Function Attrs: nonlazybind uwtable
define { i32, i32 } @"_ZN80_$LT$libc..unix..linux_like..linux..regmatch_t$u20$as$u20$core..clone..Clone$GT$5clone17hb9494dbca3c017bcE"(ptr align 4 %self) unnamed_addr #0 !dbg !1671 {
start:
  %self.dbg.spill = alloca ptr, align 8
  store ptr %self, ptr %self.dbg.spill, align 8
  call void @llvm.dbg.declare(metadata ptr %self.dbg.spill, metadata !1681, metadata !DIExpression()), !dbg !1682
  %_0.0 = load i32, ptr %self, align 4, !dbg !1683, !noundef !33
  %0 = getelementptr inbounds i8, ptr %self, i64 4, !dbg !1683
  %_0.1 = load i32, ptr %0, align 4, !dbg !1683, !noundef !33
  %1 = insertvalue { i32, i32 } poison, i32 %_0.0, 0, !dbg !1684
  %2 = insertvalue { i32, i32 } %1, i32 %_0.1, 1, !dbg !1684
  ret { i32, i32 } %2, !dbg !1684
}

; <libc::unix::linux_like::linux::sock_extended_err as core::clone::Clone>::clone
; Function Attrs: nonlazybind uwtable
define void @"_ZN87_$LT$libc..unix..linux_like..linux..sock_extended_err$u20$as$u20$core..clone..Clone$GT$5clone17h47bdd871369a3017E"(ptr sret(%"unix::linux_like::linux::sock_extended_err") align 4 %_0, ptr align 4 %self) unnamed_addr #0 !dbg !1685 {
start:
  %self.dbg.spill = alloca ptr, align 8
  store ptr %self, ptr %self.dbg.spill, align 8
  call void @llvm.dbg.declare(metadata ptr %self.dbg.spill, metadata !1700, metadata !DIExpression()), !dbg !1701
  call void @llvm.memcpy.p0.p0.i64(ptr align 4 %_0, ptr align 4 %self, i64 16, i1 false), !dbg !1702
  ret void, !dbg !1703
}

; <libc::unix::linux_like::linux::__c_anonymous_sockaddr_can_tp as core::clone::Clone>::clone
; Function Attrs: nonlazybind uwtable
define { i32, i32 } @"_ZN99_$LT$libc..unix..linux_like..linux..__c_anonymous_sockaddr_can_tp$u20$as$u20$core..clone..Clone$GT$5clone17h4e541ecde95531b8E"(ptr align 4 %self) unnamed_addr #0 !dbg !1704 {
start:
  %self.dbg.spill = alloca ptr, align 8
  store ptr %self, ptr %self.dbg.spill, align 8
  call void @llvm.dbg.declare(metadata ptr %self.dbg.spill, metadata !1714, metadata !DIExpression()), !dbg !1715
  %_0.0 = load i32, ptr %self, align 4, !dbg !1716, !noundef !33
  %0 = getelementptr inbounds i8, ptr %self, i64 4, !dbg !1716
  %_0.1 = load i32, ptr %0, align 4, !dbg !1716, !noundef !33
  %1 = insertvalue { i32, i32 } poison, i32 %_0.0, 0, !dbg !1717
  %2 = insertvalue { i32, i32 } %1, i32 %_0.1, 1, !dbg !1717
  ret { i32, i32 } %2, !dbg !1717
}

; <libc::unix::linux_like::linux::__c_anonymous_sockaddr_can_j1939 as core::clone::Clone>::clone
; Function Attrs: nonlazybind uwtable
define void @"_ZN102_$LT$libc..unix..linux_like..linux..__c_anonymous_sockaddr_can_j1939$u20$as$u20$core..clone..Clone$GT$5clone17h992d42a6974ee1daE"(ptr sret(%"unix::linux_like::linux::__c_anonymous_sockaddr_can_j1939") align 8 %_0, ptr align 8 %self) unnamed_addr #0 !dbg !1718 {
start:
  %self.dbg.spill = alloca ptr, align 8
  store ptr %self, ptr %self.dbg.spill, align 8
  call void @llvm.dbg.declare(metadata ptr %self.dbg.spill, metadata !1729, metadata !DIExpression()), !dbg !1730
  call void @llvm.memcpy.p0.p0.i64(ptr align 8 %_0, ptr align 8 %self, i64 16, i1 false), !dbg !1731
  ret void, !dbg !1732
}

; <libc::unix::linux_like::linux::can_filter as core::clone::Clone>::clone
; Function Attrs: nonlazybind uwtable
define { i32, i32 } @"_ZN80_$LT$libc..unix..linux_like..linux..can_filter$u20$as$u20$core..clone..Clone$GT$5clone17ha64f30e8827b713dE"(ptr align 4 %self) unnamed_addr #0 !dbg !1733 {
start:
  %self.dbg.spill = alloca ptr, align 8
  store ptr %self, ptr %self.dbg.spill, align 8
  call void @llvm.dbg.declare(metadata ptr %self.dbg.spill, metadata !1743, metadata !DIExpression()), !dbg !1744
  %_0.0 = load i32, ptr %self, align 4, !dbg !1745, !noundef !33
  %0 = getelementptr inbounds i8, ptr %self, i64 4, !dbg !1745
  %_0.1 = load i32, ptr %0, align 4, !dbg !1745, !noundef !33
  %1 = insertvalue { i32, i32 } poison, i32 %_0.0, 0, !dbg !1746
  %2 = insertvalue { i32, i32 } %1, i32 %_0.1, 1, !dbg !1746
  ret { i32, i32 } %2, !dbg !1746
}

; <libc::unix::linux_like::linux::j1939_filter as core::clone::Clone>::clone
; Function Attrs: nonlazybind uwtable
define void @"_ZN82_$LT$libc..unix..linux_like..linux..j1939_filter$u20$as$u20$core..clone..Clone$GT$5clone17h44abcb41f5efc9cbE"(ptr sret(%"unix::linux_like::linux::j1939_filter") align 8 %_0, ptr align 8 %self) unnamed_addr #0 !dbg !1747 {
start:
  %self.dbg.spill = alloca ptr, align 8
  store ptr %self, ptr %self.dbg.spill, align 8
  call void @llvm.dbg.declare(metadata ptr %self.dbg.spill, metadata !1761, metadata !DIExpression()), !dbg !1762
  call void @llvm.memcpy.p0.p0.i64(ptr align 8 %_0, ptr align 8 %self, i64 32, i1 false), !dbg !1763
  ret void, !dbg !1764
}

; <libc::unix::linux_like::linux::sock_filter as core::clone::Clone>::clone
; Function Attrs: nonlazybind uwtable
define i64 @"_ZN81_$LT$libc..unix..linux_like..linux..sock_filter$u20$as$u20$core..clone..Clone$GT$5clone17hac54549b3551cd7aE"(ptr align 4 %self) unnamed_addr #0 !dbg !1765 {
start:
  %self.dbg.spill = alloca ptr, align 8
  %_0 = alloca %"unix::linux_like::linux::sock_filter", align 4
  store ptr %self, ptr %self.dbg.spill, align 8
  call void @llvm.dbg.declare(metadata ptr %self.dbg.spill, metadata !1777, metadata !DIExpression()), !dbg !1778
  call void @llvm.memcpy.p0.p0.i64(ptr align 4 %_0, ptr align 4 %self, i64 8, i1 false), !dbg !1779
  %0 = load i64, ptr %_0, align 4, !dbg !1780
  ret i64 %0, !dbg !1780
}

; <libc::unix::linux_like::linux::sock_fprog as core::clone::Clone>::clone
; Function Attrs: nonlazybind uwtable
define { i16, ptr } @"_ZN80_$LT$libc..unix..linux_like..linux..sock_fprog$u20$as$u20$core..clone..Clone$GT$5clone17h2002f267eeb6772dE"(ptr align 8 %self) unnamed_addr #0 !dbg !1781 {
start:
  %self.dbg.spill = alloca ptr, align 8
  store ptr %self, ptr %self.dbg.spill, align 8
  call void @llvm.dbg.declare(metadata ptr %self.dbg.spill, metadata !1792, metadata !DIExpression()), !dbg !1793
  %_0.0 = load i16, ptr %self, align 8, !dbg !1794, !noundef !33
  %0 = getelementptr inbounds i8, ptr %self, i64 8, !dbg !1794
  %_0.1 = load ptr, ptr %0, align 8, !dbg !1794, !noundef !33
  %1 = insertvalue { i16, ptr } poison, i16 %_0.0, 0, !dbg !1795
  %2 = insertvalue { i16, ptr } %1, ptr %_0.1, 1, !dbg !1795
  ret { i16, ptr } %2, !dbg !1795
}

; <libc::unix::linux_like::linux::seccomp_data as core::clone::Clone>::clone
; Function Attrs: nonlazybind uwtable
define void @"_ZN82_$LT$libc..unix..linux_like..linux..seccomp_data$u20$as$u20$core..clone..Clone$GT$5clone17h1035fc36f47c86ebE"(ptr sret(%"unix::linux_like::linux::seccomp_data") align 8 %_0, ptr align 8 %self) unnamed_addr #0 !dbg !1796 {
start:
  %self.dbg.spill = alloca ptr, align 8
  store ptr %self, ptr %self.dbg.spill, align 8
  call void @llvm.dbg.declare(metadata ptr %self.dbg.spill, metadata !1811, metadata !DIExpression()), !dbg !1812
  call void @llvm.memcpy.p0.p0.i64(ptr align 8 %_0, ptr align 8 %self, i64 64, i1 false), !dbg !1813
  ret void, !dbg !1814
}

; <libc::unix::linux_like::linux::seccomp_notif_sizes as core::clone::Clone>::clone
; Function Attrs: nonlazybind uwtable
define i48 @"_ZN89_$LT$libc..unix..linux_like..linux..seccomp_notif_sizes$u20$as$u20$core..clone..Clone$GT$5clone17hcd8c35897db0da93E"(ptr align 2 %self) unnamed_addr #0 !dbg !1815 {
start:
  %self.dbg.spill = alloca ptr, align 8
  %_0 = alloca %"unix::linux_like::linux::seccomp_notif_sizes", align 2
  store ptr %self, ptr %self.dbg.spill, align 8
  call void @llvm.dbg.declare(metadata ptr %self.dbg.spill, metadata !1826, metadata !DIExpression()), !dbg !1827
  call void @llvm.memcpy.p0.p0.i64(ptr align 2 %_0, ptr align 2 %self, i64 6, i1 false), !dbg !1828
  %0 = load i48, ptr %_0, align 2, !dbg !1829
  ret i48 %0, !dbg !1829
}

; <libc::unix::linux_like::linux::seccomp_notif as core::clone::Clone>::clone
; Function Attrs: nonlazybind uwtable
define void @"_ZN83_$LT$libc..unix..linux_like..linux..seccomp_notif$u20$as$u20$core..clone..Clone$GT$5clone17h5fa944e30928d469E"(ptr sret(%"unix::linux_like::linux::seccomp_notif") align 8 %_0, ptr align 8 %self) unnamed_addr #0 !dbg !1830 {
start:
  %self.dbg.spill = alloca ptr, align 8
  store ptr %self, ptr %self.dbg.spill, align 8
  call void @llvm.dbg.declare(metadata ptr %self.dbg.spill, metadata !1842, metadata !DIExpression()), !dbg !1843
  call void @llvm.memcpy.p0.p0.i64(ptr align 8 %_0, ptr align 8 %self, i64 80, i1 false), !dbg !1844
  ret void, !dbg !1845
}

; <libc::unix::linux_like::linux::seccomp_notif_resp as core::clone::Clone>::clone
; Function Attrs: nonlazybind uwtable
define void @"_ZN88_$LT$libc..unix..linux_like..linux..seccomp_notif_resp$u20$as$u20$core..clone..Clone$GT$5clone17h1179be880eef3c90E"(ptr sret(%"unix::linux_like::linux::seccomp_notif_resp") align 8 %_0, ptr align 8 %self) unnamed_addr #0 !dbg !1846 {
start:
  %self.dbg.spill = alloca ptr, align 8
  store ptr %self, ptr %self.dbg.spill, align 8
  call void @llvm.dbg.declare(metadata ptr %self.dbg.spill, metadata !1858, metadata !DIExpression()), !dbg !1859
  call void @llvm.memcpy.p0.p0.i64(ptr align 8 %_0, ptr align 8 %self, i64 24, i1 false), !dbg !1860
  ret void, !dbg !1861
}

; <libc::unix::linux_like::linux::seccomp_notif_addfd as core::clone::Clone>::clone
; Function Attrs: nonlazybind uwtable
define void @"_ZN89_$LT$libc..unix..linux_like..linux..seccomp_notif_addfd$u20$as$u20$core..clone..Clone$GT$5clone17h85c644ed89b4b506E"(ptr sret(%"unix::linux_like::linux::seccomp_notif_addfd") align 8 %_0, ptr align 8 %self) unnamed_addr #0 !dbg !1862 {
start:
  %self.dbg.spill = alloca ptr, align 8
  store ptr %self, ptr %self.dbg.spill, align 8
  call void @llvm.dbg.declare(metadata ptr %self.dbg.spill, metadata !1875, metadata !DIExpression()), !dbg !1876
  call void @llvm.memcpy.p0.p0.i64(ptr align 8 %_0, ptr align 8 %self, i64 24, i1 false), !dbg !1877
  ret void, !dbg !1878
}

; <libc::unix::linux_like::linux::nlmsghdr as core::clone::Clone>::clone
; Function Attrs: nonlazybind uwtable
define void @"_ZN78_$LT$libc..unix..linux_like..linux..nlmsghdr$u20$as$u20$core..clone..Clone$GT$5clone17h413937c9fb8852ecE"(ptr sret(%"unix::linux_like::linux::nlmsghdr") align 4 %_0, ptr align 4 %self) unnamed_addr #0 !dbg !1879 {
start:
  %self.dbg.spill = alloca ptr, align 8
  store ptr %self, ptr %self.dbg.spill, align 8
  call void @llvm.dbg.declare(metadata ptr %self.dbg.spill, metadata !1892, metadata !DIExpression()), !dbg !1893
  call void @llvm.memcpy.p0.p0.i64(ptr align 4 %_0, ptr align 4 %self, i64 16, i1 false), !dbg !1894
  ret void, !dbg !1895
}

; <libc::unix::linux_like::linux::nlmsgerr as core::clone::Clone>::clone
; Function Attrs: nonlazybind uwtable
define void @"_ZN78_$LT$libc..unix..linux_like..linux..nlmsgerr$u20$as$u20$core..clone..Clone$GT$5clone17h151ba667d56e856fE"(ptr sret(%"unix::linux_like::linux::nlmsgerr") align 4 %_0, ptr align 4 %self) unnamed_addr #0 !dbg !1896 {
start:
  %self.dbg.spill = alloca ptr, align 8
  store ptr %self, ptr %self.dbg.spill, align 8
  call void @llvm.dbg.declare(metadata ptr %self.dbg.spill, metadata !1906, metadata !DIExpression()), !dbg !1907
  call void @llvm.memcpy.p0.p0.i64(ptr align 4 %_0, ptr align 4 %self, i64 20, i1 false), !dbg !1908
  ret void, !dbg !1909
}

; <libc::unix::linux_like::linux::nlattr as core::clone::Clone>::clone
; Function Attrs: nonlazybind uwtable
define { i16, i16 } @"_ZN76_$LT$libc..unix..linux_like..linux..nlattr$u20$as$u20$core..clone..Clone$GT$5clone17h4bfb830c506155fcE"(ptr align 2 %self) unnamed_addr #0 !dbg !1910 {
start:
  %self.dbg.spill = alloca ptr, align 8
  store ptr %self, ptr %self.dbg.spill, align 8
  call void @llvm.dbg.declare(metadata ptr %self.dbg.spill, metadata !1920, metadata !DIExpression()), !dbg !1921
  %_0.0 = load i16, ptr %self, align 2, !dbg !1922, !noundef !33
  %0 = getelementptr inbounds i8, ptr %self, i64 2, !dbg !1922
  %_0.1 = load i16, ptr %0, align 2, !dbg !1922, !noundef !33
  %1 = insertvalue { i16, i16 } poison, i16 %_0.0, 0, !dbg !1923
  %2 = insertvalue { i16, i16 } %1, i16 %_0.1, 1, !dbg !1923
  ret { i16, i16 } %2, !dbg !1923
}

; <libc::unix::linux_like::linux::file_clone_range as core::clone::Clone>::clone
; Function Attrs: nonlazybind uwtable
define void @"_ZN86_$LT$libc..unix..linux_like..linux..file_clone_range$u20$as$u20$core..clone..Clone$GT$5clone17he81a13e921efeb3cE"(ptr sret(%"unix::linux_like::linux::file_clone_range") align 8 %_0, ptr align 8 %self) unnamed_addr #0 !dbg !1924 {
start:
  %self.dbg.spill = alloca ptr, align 8
  store ptr %self, ptr %self.dbg.spill, align 8
  call void @llvm.dbg.declare(metadata ptr %self.dbg.spill, metadata !1936, metadata !DIExpression()), !dbg !1937
  call void @llvm.memcpy.p0.p0.i64(ptr align 8 %_0, ptr align 8 %self, i64 32, i1 false), !dbg !1938
  ret void, !dbg !1939
}

; <libc::unix::linux_like::linux::__c_anonymous_ifru_map as core::clone::Clone>::clone
; Function Attrs: nonlazybind uwtable
define void @"_ZN92_$LT$libc..unix..linux_like..linux..__c_anonymous_ifru_map$u20$as$u20$core..clone..Clone$GT$5clone17h28f507aceaee8da9E"(ptr sret(%"unix::linux_like::linux::__c_anonymous_ifru_map") align 8 %_0, ptr align 8 %self) unnamed_addr #0 !dbg !1940 {
start:
  %self.dbg.spill = alloca ptr, align 8
  store ptr %self, ptr %self.dbg.spill, align 8
  call void @llvm.dbg.declare(metadata ptr %self.dbg.spill, metadata !1954, metadata !DIExpression()), !dbg !1955
  call void @llvm.memcpy.p0.p0.i64(ptr align 8 %_0, ptr align 8 %self, i64 24, i1 false), !dbg !1956
  ret void, !dbg !1957
}

; <libc::unix::linux_like::linux::in6_ifreq as core::clone::Clone>::clone
; Function Attrs: nonlazybind uwtable
define void @"_ZN79_$LT$libc..unix..linux_like..linux..in6_ifreq$u20$as$u20$core..clone..Clone$GT$5clone17h9e7550211771aaa4E"(ptr sret(%"unix::linux_like::linux::in6_ifreq") align 4 %_0, ptr align 4 %self) unnamed_addr #0 !dbg !1958 {
start:
  %self.dbg.spill = alloca ptr, align 8
  store ptr %self, ptr %self.dbg.spill, align 8
  call void @llvm.dbg.declare(metadata ptr %self.dbg.spill, metadata !1969, metadata !DIExpression()), !dbg !1970
  call void @llvm.memcpy.p0.p0.i64(ptr align 4 %_0, ptr align 4 %self, i64 24, i1 false), !dbg !1971
  ret void, !dbg !1972
}

; <libc::unix::linux_like::linux::option as core::clone::Clone>::clone
; Function Attrs: nonlazybind uwtable
define void @"_ZN76_$LT$libc..unix..linux_like..linux..option$u20$as$u20$core..clone..Clone$GT$5clone17h66aec4d17344842dE"(ptr sret(%"unix::linux_like::linux::option") align 8 %_0, ptr align 8 %self) unnamed_addr #0 !dbg !1973 {
start:
  %self.dbg.spill = alloca ptr, align 8
  store ptr %self, ptr %self.dbg.spill, align 8
  call void @llvm.dbg.declare(metadata ptr %self.dbg.spill, metadata !1985, metadata !DIExpression()), !dbg !1986
  call void @llvm.memcpy.p0.p0.i64(ptr align 8 %_0, ptr align 8 %self, i64 32, i1 false), !dbg !1987
  ret void, !dbg !1988
}

; <libc::unix::linux_like::linux::sctp_initmsg as core::clone::Clone>::clone
; Function Attrs: nonlazybind uwtable
define i64 @"_ZN82_$LT$libc..unix..linux_like..linux..sctp_initmsg$u20$as$u20$core..clone..Clone$GT$5clone17h65cae20134e8f0a8E"(ptr align 2 %self) unnamed_addr #0 !dbg !1989 {
start:
  %self.dbg.spill = alloca ptr, align 8
  %_0 = alloca %"unix::linux_like::linux::sctp_initmsg", align 2
  store ptr %self, ptr %self.dbg.spill, align 8
  call void @llvm.dbg.declare(metadata ptr %self.dbg.spill, metadata !2001, metadata !DIExpression()), !dbg !2002
  call void @llvm.memcpy.p0.p0.i64(ptr align 2 %_0, ptr align 2 %self, i64 8, i1 false), !dbg !2003
  %0 = load i64, ptr %_0, align 2, !dbg !2004
  ret i64 %0, !dbg !2004
}

; <libc::unix::linux_like::linux::sctp_sndrcvinfo as core::clone::Clone>::clone
; Function Attrs: nonlazybind uwtable
define void @"_ZN85_$LT$libc..unix..linux_like..linux..sctp_sndrcvinfo$u20$as$u20$core..clone..Clone$GT$5clone17h5237a9ee21042600E"(ptr sret(%"unix::linux_like::linux::sctp_sndrcvinfo") align 4 %_0, ptr align 4 %self) unnamed_addr #0 !dbg !2005 {
start:
  %self.dbg.spill = alloca ptr, align 8
  store ptr %self, ptr %self.dbg.spill, align 8
  call void @llvm.dbg.declare(metadata ptr %self.dbg.spill, metadata !2022, metadata !DIExpression()), !dbg !2023
  call void @llvm.memcpy.p0.p0.i64(ptr align 4 %_0, ptr align 4 %self, i64 32, i1 false), !dbg !2024
  ret void, !dbg !2025
}

; <libc::unix::linux_like::linux::sctp_sndinfo as core::clone::Clone>::clone
; Function Attrs: nonlazybind uwtable
define void @"_ZN82_$LT$libc..unix..linux_like..linux..sctp_sndinfo$u20$as$u20$core..clone..Clone$GT$5clone17h1261c6e16c7b5949E"(ptr sret(%"unix::linux_like::linux::sctp_sndinfo") align 4 %_0, ptr align 4 %self) unnamed_addr #0 !dbg !2026 {
start:
  %self.dbg.spill = alloca ptr, align 8
  store ptr %self, ptr %self.dbg.spill, align 8
  call void @llvm.dbg.declare(metadata ptr %self.dbg.spill, metadata !2039, metadata !DIExpression()), !dbg !2040
  call void @llvm.memcpy.p0.p0.i64(ptr align 4 %_0, ptr align 4 %self, i64 16, i1 false), !dbg !2041
  ret void, !dbg !2042
}

; <libc::unix::linux_like::linux::sctp_rcvinfo as core::clone::Clone>::clone
; Function Attrs: nonlazybind uwtable
define void @"_ZN82_$LT$libc..unix..linux_like..linux..sctp_rcvinfo$u20$as$u20$core..clone..Clone$GT$5clone17ha87a882fe097ab56E"(ptr sret(%"unix::linux_like::linux::sctp_rcvinfo") align 4 %_0, ptr align 4 %self) unnamed_addr #0 !dbg !2043 {
start:
  %self.dbg.spill = alloca ptr, align 8
  store ptr %self, ptr %self.dbg.spill, align 8
  call void @llvm.dbg.declare(metadata ptr %self.dbg.spill, metadata !2059, metadata !DIExpression()), !dbg !2060
  call void @llvm.memcpy.p0.p0.i64(ptr align 4 %_0, ptr align 4 %self, i64 28, i1 false), !dbg !2061
  ret void, !dbg !2062
}

; <libc::unix::linux_like::linux::sctp_nxtinfo as core::clone::Clone>::clone
; Function Attrs: nonlazybind uwtable
define void @"_ZN82_$LT$libc..unix..linux_like..linux..sctp_nxtinfo$u20$as$u20$core..clone..Clone$GT$5clone17hed50716d8731de80E"(ptr sret(%"unix::linux_like::linux::sctp_nxtinfo") align 4 %_0, ptr align 4 %self) unnamed_addr #0 !dbg !2063 {
start:
  %self.dbg.spill = alloca ptr, align 8
  store ptr %self, ptr %self.dbg.spill, align 8
  call void @llvm.dbg.declare(metadata ptr %self.dbg.spill, metadata !2076, metadata !DIExpression()), !dbg !2077
  call void @llvm.memcpy.p0.p0.i64(ptr align 4 %_0, ptr align 4 %self, i64 16, i1 false), !dbg !2078
  ret void, !dbg !2079
}

; <libc::unix::linux_like::linux::sctp_prinfo as core::clone::Clone>::clone
; Function Attrs: nonlazybind uwtable
define { i16, i32 } @"_ZN81_$LT$libc..unix..linux_like..linux..sctp_prinfo$u20$as$u20$core..clone..Clone$GT$5clone17h6360ff04315bf996E"(ptr align 4 %self) unnamed_addr #0 !dbg !2080 {
start:
  %self.dbg.spill = alloca ptr, align 8
  store ptr %self, ptr %self.dbg.spill, align 8
  call void @llvm.dbg.declare(metadata ptr %self.dbg.spill, metadata !2090, metadata !DIExpression()), !dbg !2091
  %_0.0 = load i16, ptr %self, align 4, !dbg !2092, !noundef !33
  %0 = getelementptr inbounds i8, ptr %self, i64 4, !dbg !2092
  %_0.1 = load i32, ptr %0, align 4, !dbg !2092, !noundef !33
  %1 = insertvalue { i16, i32 } poison, i16 %_0.0, 0, !dbg !2093
  %2 = insertvalue { i16, i32 } %1, i32 %_0.1, 1, !dbg !2093
  ret { i16, i32 } %2, !dbg !2093
}

; <libc::unix::linux_like::linux::sctp_authinfo as core::clone::Clone>::clone
; Function Attrs: nonlazybind uwtable
define i16 @"_ZN83_$LT$libc..unix..linux_like..linux..sctp_authinfo$u20$as$u20$core..clone..Clone$GT$5clone17h202b3467309f89d9E"(ptr align 2 %self) unnamed_addr #0 !dbg !2094 {
start:
  %self.dbg.spill = alloca ptr, align 8
  %_0 = alloca %"unix::linux_like::linux::sctp_authinfo", align 2
  store ptr %self, ptr %self.dbg.spill, align 8
  call void @llvm.dbg.declare(metadata ptr %self.dbg.spill, metadata !2103, metadata !DIExpression()), !dbg !2104
  call void @llvm.memcpy.p0.p0.i64(ptr align 2 %_0, ptr align 2 %self, i64 2, i1 false), !dbg !2105
  %0 = load i16, ptr %_0, align 2, !dbg !2106
  ret i16 %0, !dbg !2106
}

; <libc::unix::linux_like::linux::rlimit64 as core::clone::Clone>::clone
; Function Attrs: nonlazybind uwtable
define { i64, i64 } @"_ZN78_$LT$libc..unix..linux_like..linux..rlimit64$u20$as$u20$core..clone..Clone$GT$5clone17h68b320d4ae29b1a6E"(ptr align 8 %self) unnamed_addr #0 !dbg !2107 {
start:
  %self.dbg.spill = alloca ptr, align 8
  store ptr %self, ptr %self.dbg.spill, align 8
  call void @llvm.dbg.declare(metadata ptr %self.dbg.spill, metadata !2117, metadata !DIExpression()), !dbg !2118
  %_0.0 = load i64, ptr %self, align 8, !dbg !2119, !noundef !33
  %0 = getelementptr inbounds i8, ptr %self, i64 8, !dbg !2119
  %_0.1 = load i64, ptr %0, align 8, !dbg !2119, !noundef !33
  %1 = insertvalue { i64, i64 } poison, i64 %_0.0, 0, !dbg !2120
  %2 = insertvalue { i64, i64 } %1, i64 %_0.1, 1, !dbg !2120
  ret { i64, i64 } %2, !dbg !2120
}

; <libc::unix::linux_like::linux::tls_crypto_info as core::clone::Clone>::clone
; Function Attrs: nonlazybind uwtable
define { i16, i16 } @"_ZN85_$LT$libc..unix..linux_like..linux..tls_crypto_info$u20$as$u20$core..clone..Clone$GT$5clone17h392fcee38bf7e5c1E"(ptr align 2 %self) unnamed_addr #0 !dbg !2121 {
start:
  %self.dbg.spill = alloca ptr, align 8
  store ptr %self, ptr %self.dbg.spill, align 8
  call void @llvm.dbg.declare(metadata ptr %self.dbg.spill, metadata !2131, metadata !DIExpression()), !dbg !2132
  %_0.0 = load i16, ptr %self, align 2, !dbg !2133, !noundef !33
  %0 = getelementptr inbounds i8, ptr %self, i64 2, !dbg !2133
  %_0.1 = load i16, ptr %0, align 2, !dbg !2133, !noundef !33
  %1 = insertvalue { i16, i16 } poison, i16 %_0.0, 0, !dbg !2134
  %2 = insertvalue { i16, i16 } %1, i16 %_0.1, 1, !dbg !2134
  ret { i16, i16 } %2, !dbg !2134
}

; <libc::unix::linux_like::linux::tls12_crypto_info_aes_gcm_128 as core::clone::Clone>::clone
; Function Attrs: nonlazybind uwtable
define void @"_ZN99_$LT$libc..unix..linux_like..linux..tls12_crypto_info_aes_gcm_128$u20$as$u20$core..clone..Clone$GT$5clone17h6220633f97ff2646E"(ptr sret(%"unix::linux_like::linux::tls12_crypto_info_aes_gcm_128") align 2 %_0, ptr align 2 %self) unnamed_addr #0 !dbg !2135 {
start:
  %self.dbg.spill = alloca ptr, align 8
  store ptr %self, ptr %self.dbg.spill, align 8
  call void @llvm.dbg.declare(metadata ptr %self.dbg.spill, metadata !2148, metadata !DIExpression()), !dbg !2149
  call void @llvm.memcpy.p0.p0.i64(ptr align 2 %_0, ptr align 2 %self, i64 40, i1 false), !dbg !2150
  ret void, !dbg !2151
}

; <libc::unix::linux_like::linux::tls12_crypto_info_aes_gcm_256 as core::clone::Clone>::clone
; Function Attrs: nonlazybind uwtable
define void @"_ZN99_$LT$libc..unix..linux_like..linux..tls12_crypto_info_aes_gcm_256$u20$as$u20$core..clone..Clone$GT$5clone17h42ea1151bd4b8babE"(ptr sret(%"unix::linux_like::linux::tls12_crypto_info_aes_gcm_256") align 2 %_0, ptr align 2 %self) unnamed_addr #0 !dbg !2152 {
start:
  %self.dbg.spill = alloca ptr, align 8
  store ptr %self, ptr %self.dbg.spill, align 8
  call void @llvm.dbg.declare(metadata ptr %self.dbg.spill, metadata !2165, metadata !DIExpression()), !dbg !2166
  call void @llvm.memcpy.p0.p0.i64(ptr align 2 %_0, ptr align 2 %self, i64 56, i1 false), !dbg !2167
  ret void, !dbg !2168
}

; <libc::unix::linux_like::linux::tls12_crypto_info_chacha20_poly1305 as core::clone::Clone>::clone
; Function Attrs: nonlazybind uwtable
define void @"_ZN105_$LT$libc..unix..linux_like..linux..tls12_crypto_info_chacha20_poly1305$u20$as$u20$core..clone..Clone$GT$5clone17h2662574d43f3fc19E"(ptr sret(%"unix::linux_like::linux::tls12_crypto_info_chacha20_poly1305") align 2 %_0, ptr align 2 %self) unnamed_addr #0 !dbg !2169 {
start:
  %self.dbg.spill = alloca ptr, align 8
  store ptr %self, ptr %self.dbg.spill, align 8
  call void @llvm.dbg.declare(metadata ptr %self.dbg.spill, metadata !2188, metadata !DIExpression()), !dbg !2189
  call void @llvm.memcpy.p0.p0.i64(ptr align 2 %_0, ptr align 2 %self, i64 56, i1 false), !dbg !2190
  ret void, !dbg !2191
}

; <libc::unix::linux_like::linux::sockaddr_nl as core::clone::Clone>::clone
; Function Attrs: nonlazybind uwtable
define void @"_ZN81_$LT$libc..unix..linux_like..linux..sockaddr_nl$u20$as$u20$core..clone..Clone$GT$5clone17he22da436815704dbE"(ptr sret(%"unix::linux_like::linux::sockaddr_nl") align 4 %_0, ptr align 4 %self) unnamed_addr #0 !dbg !2192 {
start:
  %self.dbg.spill = alloca ptr, align 8
  store ptr %self, ptr %self.dbg.spill, align 8
  call void @llvm.dbg.declare(metadata ptr %self.dbg.spill, metadata !2204, metadata !DIExpression()), !dbg !2205
  call void @llvm.memcpy.p0.p0.i64(ptr align 4 %_0, ptr align 4 %self, i64 12, i1 false), !dbg !2206
  ret void, !dbg !2207
}

; <libc::unix::linux_like::linux::dirent as core::clone::Clone>::clone
; Function Attrs: nonlazybind uwtable
define void @"_ZN76_$LT$libc..unix..linux_like..linux..dirent$u20$as$u20$core..clone..Clone$GT$5clone17h812928ec2e079cceE"(ptr sret(%"unix::linux_like::linux::dirent") align 8 %_0, ptr align 8 %self) unnamed_addr #0 !dbg !2208 {
start:
  %self.dbg.spill = alloca ptr, align 8
  store ptr %self, ptr %self.dbg.spill, align 8
  call void @llvm.dbg.declare(metadata ptr %self.dbg.spill, metadata !2224, metadata !DIExpression()), !dbg !2225
  call void @llvm.memcpy.p0.p0.i64(ptr align 8 %_0, ptr align 8 %self, i64 280, i1 false), !dbg !2226
  ret void, !dbg !2227
}

; <libc::unix::linux_like::linux::sockaddr_alg as core::clone::Clone>::clone
; Function Attrs: nonlazybind uwtable
define void @"_ZN82_$LT$libc..unix..linux_like..linux..sockaddr_alg$u20$as$u20$core..clone..Clone$GT$5clone17hb70476a41d31083cE"(ptr sret(%"unix::linux_like::linux::sockaddr_alg") align 4 %_0, ptr align 4 %self) unnamed_addr #0 !dbg !2228 {
start:
  %self.dbg.spill = alloca ptr, align 8
  store ptr %self, ptr %self.dbg.spill, align 8
  call void @llvm.dbg.declare(metadata ptr %self.dbg.spill, metadata !2245, metadata !DIExpression()), !dbg !2246
  call void @llvm.memcpy.p0.p0.i64(ptr align 4 %_0, ptr align 4 %self, i64 88, i1 false), !dbg !2247
  ret void, !dbg !2248
}

; <libc::unix::linux_like::linux::uinput_setup as core::clone::Clone>::clone
; Function Attrs: nonlazybind uwtable
define void @"_ZN82_$LT$libc..unix..linux_like..linux..uinput_setup$u20$as$u20$core..clone..Clone$GT$5clone17h0dd718012f372258E"(ptr sret(%"unix::linux_like::linux::uinput_setup") align 4 %_0, ptr align 4 %self) unnamed_addr #0 !dbg !2249 {
start:
  %self.dbg.spill = alloca ptr, align 8
  store ptr %self, ptr %self.dbg.spill, align 8
  call void @llvm.dbg.declare(metadata ptr %self.dbg.spill, metadata !2263, metadata !DIExpression()), !dbg !2264
  call void @llvm.memcpy.p0.p0.i64(ptr align 4 %_0, ptr align 4 %self, i64 92, i1 false), !dbg !2265
  ret void, !dbg !2266
}

; <libc::unix::linux_like::linux::uinput_user_dev as core::clone::Clone>::clone
; Function Attrs: nonlazybind uwtable
define void @"_ZN85_$LT$libc..unix..linux_like..linux..uinput_user_dev$u20$as$u20$core..clone..Clone$GT$5clone17hc9267897c8c39991E"(ptr sret(%"unix::linux_like::linux::uinput_user_dev") align 4 %_0, ptr align 4 %self) unnamed_addr #0 !dbg !2267 {
start:
  %self.dbg.spill = alloca ptr, align 8
  store ptr %self, ptr %self.dbg.spill, align 8
  call void @llvm.dbg.declare(metadata ptr %self.dbg.spill, metadata !2283, metadata !DIExpression()), !dbg !2284
  call void @llvm.memcpy.p0.p0.i64(ptr align 4 %_0, ptr align 4 %self, i64 1116, i1 false), !dbg !2285
  ret void, !dbg !2286
}

; <libc::unix::linux_like::linux::af_alg_iv as core::clone::Clone>::clone
; Function Attrs: nonlazybind uwtable
define i32 @"_ZN79_$LT$libc..unix..linux_like..linux..af_alg_iv$u20$as$u20$core..clone..Clone$GT$5clone17h93f1d073723b6c5eE"(ptr align 4 %self) unnamed_addr #0 !dbg !2287 {
start:
  %self.dbg.spill = alloca ptr, align 8
  %_0 = alloca %"unix::linux_like::linux::af_alg_iv", align 4
  store ptr %self, ptr %self.dbg.spill, align 8
  call void @llvm.dbg.declare(metadata ptr %self.dbg.spill, metadata !2297, metadata !DIExpression()), !dbg !2298
  call void @llvm.memcpy.p0.p0.i64(ptr align 4 %_0, ptr align 4 %self, i64 4, i1 false), !dbg !2299
  %0 = load i32, ptr %_0, align 4, !dbg !2300
  ret i32 %0, !dbg !2300
}

; <libc::unix::linux_like::linux::mq_attr as core::clone::Clone>::clone
; Function Attrs: nonlazybind uwtable
define void @"_ZN77_$LT$libc..unix..linux_like..linux..mq_attr$u20$as$u20$core..clone..Clone$GT$5clone17he588f39f2ca2ddd1E"(ptr sret(%"unix::linux_like::linux::mq_attr") align 8 %_0, ptr align 8 %self) unnamed_addr #0 !dbg !2301 {
start:
  %self.dbg.spill = alloca ptr, align 8
  store ptr %self, ptr %self.dbg.spill, align 8
  call void @llvm.dbg.declare(metadata ptr %self.dbg.spill, metadata !2315, metadata !DIExpression()), !dbg !2316
  call void @llvm.memcpy.p0.p0.i64(ptr align 8 %_0, ptr align 8 %self, i64 64, i1 false), !dbg !2317
  ret void, !dbg !2318
}

; <libc::unix::linux_like::linux::__c_anonymous_ifr_ifru as core::clone::Clone>::clone
; Function Attrs: nonlazybind uwtable
define void @"_ZN92_$LT$libc..unix..linux_like..linux..__c_anonymous_ifr_ifru$u20$as$u20$core..clone..Clone$GT$5clone17h7a259c803bcd7340E"(ptr sret(%"unix::linux_like::linux::__c_anonymous_ifr_ifru") align 8 %_0, ptr align 8 %self) unnamed_addr #0 !dbg !2319 {
start:
  %self.dbg.spill = alloca ptr, align 8
  store ptr %self, ptr %self.dbg.spill, align 8
  call void @llvm.dbg.declare(metadata ptr %self.dbg.spill, metadata !2340, metadata !DIExpression()), !dbg !2341
  call void @llvm.memcpy.p0.p0.i64(ptr align 8 %_0, ptr align 8 %self, i64 24, i1 false), !dbg !2342
  ret void, !dbg !2343
}

; <libc::unix::linux_like::linux::ifreq as core::clone::Clone>::clone
; Function Attrs: nonlazybind uwtable
define void @"_ZN75_$LT$libc..unix..linux_like..linux..ifreq$u20$as$u20$core..clone..Clone$GT$5clone17h5060440bfd44963cE"(ptr sret(%"unix::linux_like::linux::ifreq") align 8 %_0, ptr align 8 %self) unnamed_addr #0 !dbg !2344 {
start:
  %self.dbg.spill = alloca ptr, align 8
  store ptr %self, ptr %self.dbg.spill, align 8
  call void @llvm.dbg.declare(metadata ptr %self.dbg.spill, metadata !2354, metadata !DIExpression()), !dbg !2355
  call void @llvm.memcpy.p0.p0.i64(ptr align 8 %_0, ptr align 8 %self, i64 40, i1 false), !dbg !2356
  ret void, !dbg !2357
}

; <libc::unix::linux_like::linux::__c_anonymous_ifc_ifcu as core::clone::Clone>::clone
; Function Attrs: nonlazybind uwtable
define i64 @"_ZN92_$LT$libc..unix..linux_like..linux..__c_anonymous_ifc_ifcu$u20$as$u20$core..clone..Clone$GT$5clone17h3f6e53c63cbc5f1cE"(ptr align 8 %self) unnamed_addr #0 !dbg !2358 {
start:
  %self.dbg.spill = alloca ptr, align 8
  %_0 = alloca %"unix::linux_like::linux::__c_anonymous_ifc_ifcu", align 8
  store ptr %self, ptr %self.dbg.spill, align 8
  call void @llvm.dbg.declare(metadata ptr %self.dbg.spill, metadata !2369, metadata !DIExpression()), !dbg !2370
  call void @llvm.memcpy.p0.p0.i64(ptr align 8 %_0, ptr align 8 %self, i64 8, i1 false), !dbg !2371
  %0 = load i64, ptr %_0, align 8, !dbg !2372
  ret i64 %0, !dbg !2372
}

; <libc::unix::linux_like::linux::ifconf as core::clone::Clone>::clone
; Function Attrs: nonlazybind uwtable
define void @"_ZN76_$LT$libc..unix..linux_like..linux..ifconf$u20$as$u20$core..clone..Clone$GT$5clone17hc80d29f2b7e50f8dE"(ptr sret(%"unix::linux_like::linux::ifconf") align 8 %_0, ptr align 8 %self) unnamed_addr #0 !dbg !2373 {
start:
  %self.dbg.spill = alloca ptr, align 8
  store ptr %self, ptr %self.dbg.spill, align 8
  call void @llvm.dbg.declare(metadata ptr %self.dbg.spill, metadata !2383, metadata !DIExpression()), !dbg !2384
  call void @llvm.memcpy.p0.p0.i64(ptr align 8 %_0, ptr align 8 %self, i64 16, i1 false), !dbg !2385
  ret void, !dbg !2386
}

; <libc::unix::linux_like::linux::hwtstamp_config as core::clone::Clone>::clone
; Function Attrs: nonlazybind uwtable
define void @"_ZN85_$LT$libc..unix..linux_like..linux..hwtstamp_config$u20$as$u20$core..clone..Clone$GT$5clone17h5ad2080e34933787E"(ptr sret(%"unix::linux_like::linux::hwtstamp_config") align 4 %_0, ptr align 4 %self) unnamed_addr #0 !dbg !2387 {
start:
  %self.dbg.spill = alloca ptr, align 8
  store ptr %self, ptr %self.dbg.spill, align 8
  call void @llvm.dbg.declare(metadata ptr %self.dbg.spill, metadata !2398, metadata !DIExpression()), !dbg !2399
  call void @llvm.memcpy.p0.p0.i64(ptr align 4 %_0, ptr align 4 %self, i64 12, i1 false), !dbg !2400
  ret void, !dbg !2401
}

; <libc::unix::linux_like::linux::dirent64 as core::clone::Clone>::clone
; Function Attrs: nonlazybind uwtable
define void @"_ZN78_$LT$libc..unix..linux_like..linux..dirent64$u20$as$u20$core..clone..Clone$GT$5clone17h74469083be126649E"(ptr sret(%"unix::linux_like::linux::dirent64") align 8 %_0, ptr align 8 %self) unnamed_addr #0 !dbg !2402 {
start:
  %self.dbg.spill = alloca ptr, align 8
  store ptr %self, ptr %self.dbg.spill, align 8
  call void @llvm.dbg.declare(metadata ptr %self.dbg.spill, metadata !2415, metadata !DIExpression()), !dbg !2416
  call void @llvm.memcpy.p0.p0.i64(ptr align 8 %_0, ptr align 8 %self, i64 280, i1 false), !dbg !2417
  ret void, !dbg !2418
}

; <libc::unix::linux_like::linux::sched_attr as core::clone::Clone>::clone
; Function Attrs: nonlazybind uwtable
define void @"_ZN80_$LT$libc..unix..linux_like..linux..sched_attr$u20$as$u20$core..clone..Clone$GT$5clone17h38fe1c3522ab5277E"(ptr sret(%"unix::linux_like::linux::sched_attr") align 8 %_0, ptr align 8 %self) unnamed_addr #0 !dbg !2419 {
start:
  %self.dbg.spill = alloca ptr, align 8
  store ptr %self, ptr %self.dbg.spill, align 8
  call void @llvm.dbg.declare(metadata ptr %self.dbg.spill, metadata !2435, metadata !DIExpression()), !dbg !2436
  call void @llvm.memcpy.p0.p0.i64(ptr align 8 %_0, ptr align 8 %self, i64 48, i1 false), !dbg !2437
  ret void, !dbg !2438
}

; <libc::unix::linux_like::linux::sock_txtime as core::clone::Clone>::clone
; Function Attrs: nonlazybind uwtable
define { i32, i32 } @"_ZN81_$LT$libc..unix..linux_like..linux..sock_txtime$u20$as$u20$core..clone..Clone$GT$5clone17h869fb625b7642ecaE"(ptr align 4 %self) unnamed_addr #0 !dbg !2439 {
start:
  %self.dbg.spill = alloca ptr, align 8
  store ptr %self, ptr %self.dbg.spill, align 8
  call void @llvm.dbg.declare(metadata ptr %self.dbg.spill, metadata !2449, metadata !DIExpression()), !dbg !2450
  %_0.0 = load i32, ptr %self, align 4, !dbg !2451, !noundef !33
  %0 = getelementptr inbounds i8, ptr %self, i64 4, !dbg !2451
  %_0.1 = load i32, ptr %0, align 4, !dbg !2451, !noundef !33
  %1 = insertvalue { i32, i32 } poison, i32 %_0.0, 0, !dbg !2452
  %2 = insertvalue { i32, i32 } %1, i32 %_0.1, 1, !dbg !2452
  ret { i32, i32 } %2, !dbg !2452
}

; <libc::unix::linux_like::linux::__c_anonymous_sockaddr_can_can_addr as core::clone::Clone>::clone
; Function Attrs: nonlazybind uwtable
define void @"_ZN105_$LT$libc..unix..linux_like..linux..__c_anonymous_sockaddr_can_can_addr$u20$as$u20$core..clone..Clone$GT$5clone17h42283e00cb0cc73eE"(ptr sret(%"unix::linux_like::linux::__c_anonymous_sockaddr_can_can_addr") align 8 %_0, ptr align 8 %self) unnamed_addr #0 !dbg !2453 {
start:
  %self.dbg.spill = alloca ptr, align 8
  store ptr %self, ptr %self.dbg.spill, align 8
  call void @llvm.dbg.declare(metadata ptr %self.dbg.spill, metadata !2463, metadata !DIExpression()), !dbg !2464
  call void @llvm.memcpy.p0.p0.i64(ptr align 8 %_0, ptr align 8 %self, i64 16, i1 false), !dbg !2465
  ret void, !dbg !2466
}

; <libc::unix::linux_like::linux::sockaddr_can as core::clone::Clone>::clone
; Function Attrs: nonlazybind uwtable
define void @"_ZN82_$LT$libc..unix..linux_like..linux..sockaddr_can$u20$as$u20$core..clone..Clone$GT$5clone17h58ad01c8f409d8eaE"(ptr sret(%"unix::linux_like::linux::sockaddr_can") align 8 %_0, ptr align 8 %self) unnamed_addr #0 !dbg !2467 {
start:
  %self.dbg.spill = alloca ptr, align 8
  store ptr %self, ptr %self.dbg.spill, align 8
  call void @llvm.dbg.declare(metadata ptr %self.dbg.spill, metadata !2478, metadata !DIExpression()), !dbg !2479
  call void @llvm.memcpy.p0.p0.i64(ptr align 8 %_0, ptr align 8 %self, i64 24, i1 false), !dbg !2480
  ret void, !dbg !2481
}

; libc::unix::linux_like::linux::gnu::<impl libc::unix::linux_like::linux::gnu::b64::x86_64::siginfo_t>::si_addr
; Function Attrs: nonlazybind uwtable
define ptr @"_ZN4libc4unix10linux_like5linux3gnu76_$LT$impl$u20$libc..unix..linux_like..linux..gnu..b64..x86_64..siginfo_t$GT$7si_addr17hc5127aaedaa35e0cE"(ptr align 8 %self) unnamed_addr #0 !dbg !2482 {
start:
  %self.dbg.spill = alloca ptr, align 8
  store ptr %self, ptr %self.dbg.spill, align 8
  call void @llvm.dbg.declare(metadata ptr %self.dbg.spill, metadata !2501, metadata !DIExpression()), !dbg !2502
  %0 = getelementptr inbounds %"unix::linux_like::linux::gnu::<impl unix::linux_like::linux::gnu::b64::x86_64::siginfo_t>::si_addr::siginfo_sigfault", ptr %self, i32 0, i32 4, !dbg !2503
  %_0 = load ptr, ptr %0, align 8, !dbg !2503, !noundef !33
  ret ptr %_0, !dbg !2504
}

; libc::unix::linux_like::linux::gnu::<impl libc::unix::linux_like::linux::gnu::b64::x86_64::siginfo_t>::si_value
; Function Attrs: nonlazybind uwtable
define i64 @"_ZN4libc4unix10linux_like5linux3gnu76_$LT$impl$u20$libc..unix..linux_like..linux..gnu..b64..x86_64..siginfo_t$GT$8si_value17h526664e211a98b01E"(ptr align 8 %self) unnamed_addr #0 !dbg !2505 {
start:
  %self.dbg.spill = alloca ptr, align 8
  %_0 = alloca %"unix::sigval", align 8
  store ptr %self, ptr %self.dbg.spill, align 8
  call void @llvm.dbg.declare(metadata ptr %self.dbg.spill, metadata !2510, metadata !DIExpression()), !dbg !2511
  %0 = getelementptr inbounds %"unix::linux_like::linux::gnu::<impl unix::linux_like::linux::gnu::b64::x86_64::siginfo_t>::si_value::siginfo_timer", ptr %self, i32 0, i32 6, !dbg !2512
  call void @llvm.memcpy.p0.p0.i64(ptr align 8 %_0, ptr align 8 %0, i64 8, i1 false), !dbg !2512
  %1 = load i64, ptr %_0, align 8, !dbg !2513
  ret i64 %1, !dbg !2513
}

; <libc::unix::linux_like::linux::gnu::statx as core::clone::Clone>::clone
; Function Attrs: nonlazybind uwtable
define void @"_ZN80_$LT$libc..unix..linux_like..linux..gnu..statx$u20$as$u20$core..clone..Clone$GT$5clone17h18d61e91fa6ab31dE"(ptr sret(%"unix::linux_like::linux::gnu::statx") align 8 %_0, ptr align 8 %self) unnamed_addr #0 !dbg !2514 {
start:
  %self.dbg.spill = alloca ptr, align 8
  store ptr %self, ptr %self.dbg.spill, align 8
  call void @llvm.dbg.declare(metadata ptr %self.dbg.spill, metadata !2556, metadata !DIExpression()), !dbg !2557
  call void @llvm.memcpy.p0.p0.i64(ptr align 8 %_0, ptr align 8 %self, i64 256, i1 false), !dbg !2558
  ret void, !dbg !2559
}

; <libc::unix::linux_like::linux::gnu::statx_timestamp as core::clone::Clone>::clone
; Function Attrs: nonlazybind uwtable
define void @"_ZN90_$LT$libc..unix..linux_like..linux..gnu..statx_timestamp$u20$as$u20$core..clone..Clone$GT$5clone17hd25112f132fbbcd4E"(ptr sret(%"unix::linux_like::linux::gnu::statx_timestamp") align 8 %_0, ptr align 8 %self) unnamed_addr #0 !dbg !2560 {
start:
  %self.dbg.spill = alloca ptr, align 8
  store ptr %self, ptr %self.dbg.spill, align 8
  call void @llvm.dbg.declare(metadata ptr %self.dbg.spill, metadata !2566, metadata !DIExpression()), !dbg !2567
  call void @llvm.memcpy.p0.p0.i64(ptr align 8 %_0, ptr align 8 %self, i64 16, i1 false), !dbg !2568
  ret void, !dbg !2569
}

; <libc::unix::linux_like::linux::gnu::aiocb as core::clone::Clone>::clone
; Function Attrs: nonlazybind uwtable
define void @"_ZN80_$LT$libc..unix..linux_like..linux..gnu..aiocb$u20$as$u20$core..clone..Clone$GT$5clone17h056c6c41416209b4E"(ptr sret(%"unix::linux_like::linux::gnu::aiocb") align 8 %_0, ptr align 8 %self) unnamed_addr #0 !dbg !2570 {
start:
  %self.dbg.spill = alloca ptr, align 8
  store ptr %self, ptr %self.dbg.spill, align 8
  call void @llvm.dbg.declare(metadata ptr %self.dbg.spill, metadata !2594, metadata !DIExpression()), !dbg !2595
  call void @llvm.memcpy.p0.p0.i64(ptr align 8 %_0, ptr align 8 %self, i64 168, i1 false), !dbg !2596
  ret void, !dbg !2597
}

; <libc::unix::linux_like::linux::gnu::__exit_status as core::clone::Clone>::clone
; Function Attrs: nonlazybind uwtable
define { i16, i16 } @"_ZN88_$LT$libc..unix..linux_like..linux..gnu..__exit_status$u20$as$u20$core..clone..Clone$GT$5clone17h359d8b0bc6234398E"(ptr align 2 %self) unnamed_addr #0 !dbg !2598 {
start:
  %self.dbg.spill = alloca ptr, align 8
  store ptr %self, ptr %self.dbg.spill, align 8
  call void @llvm.dbg.declare(metadata ptr %self.dbg.spill, metadata !2608, metadata !DIExpression()), !dbg !2609
  %_0.0 = load i16, ptr %self, align 2, !dbg !2610, !noundef !33
  %0 = getelementptr inbounds i8, ptr %self, i64 2, !dbg !2610
  %_0.1 = load i16, ptr %0, align 2, !dbg !2610, !noundef !33
  %1 = insertvalue { i16, i16 } poison, i16 %_0.0, 0, !dbg !2611
  %2 = insertvalue { i16, i16 } %1, i16 %_0.1, 1, !dbg !2611
  ret { i16, i16 } %2, !dbg !2611
}

; <libc::unix::linux_like::linux::gnu::__timeval as core::clone::Clone>::clone
; Function Attrs: nonlazybind uwtable
define { i32, i32 } @"_ZN84_$LT$libc..unix..linux_like..linux..gnu..__timeval$u20$as$u20$core..clone..Clone$GT$5clone17h77805551ce576030E"(ptr align 4 %self) unnamed_addr #0 !dbg !2612 {
start:
  %self.dbg.spill = alloca ptr, align 8
  store ptr %self, ptr %self.dbg.spill, align 8
  call void @llvm.dbg.declare(metadata ptr %self.dbg.spill, metadata !2622, metadata !DIExpression()), !dbg !2623
  %_0.0 = load i32, ptr %self, align 4, !dbg !2624, !noundef !33
  %0 = getelementptr inbounds i8, ptr %self, i64 4, !dbg !2624
  %_0.1 = load i32, ptr %0, align 4, !dbg !2624, !noundef !33
  %1 = insertvalue { i32, i32 } poison, i32 %_0.0, 0, !dbg !2625
  %2 = insertvalue { i32, i32 } %1, i32 %_0.1, 1, !dbg !2625
  ret { i32, i32 } %2, !dbg !2625
}

; <libc::unix::linux_like::linux::gnu::glob64_t as core::clone::Clone>::clone
; Function Attrs: nonlazybind uwtable
define void @"_ZN83_$LT$libc..unix..linux_like..linux..gnu..glob64_t$u20$as$u20$core..clone..Clone$GT$5clone17h7c8c8fc944efc29aE"(ptr sret(%"unix::linux_like::linux::gnu::glob64_t") align 8 %_0, ptr align 8 %self) unnamed_addr #0 !dbg !2626 {
start:
  %self.dbg.spill = alloca ptr, align 8
  store ptr %self, ptr %self.dbg.spill, align 8
  call void @llvm.dbg.declare(metadata ptr %self.dbg.spill, metadata !2643, metadata !DIExpression()), !dbg !2644
  call void @llvm.memcpy.p0.p0.i64(ptr align 8 %_0, ptr align 8 %self, i64 72, i1 false), !dbg !2645
  ret void, !dbg !2646
}

; <libc::unix::linux_like::linux::gnu::msghdr as core::clone::Clone>::clone
; Function Attrs: nonlazybind uwtable
define void @"_ZN81_$LT$libc..unix..linux_like..linux..gnu..msghdr$u20$as$u20$core..clone..Clone$GT$5clone17h5cc4c50358bc6c4eE"(ptr sret(%"unix::linux_like::linux::gnu::msghdr") align 8 %_0, ptr align 8 %self) unnamed_addr #0 !dbg !2647 {
start:
  %self.dbg.spill = alloca ptr, align 8
  store ptr %self, ptr %self.dbg.spill, align 8
  call void @llvm.dbg.declare(metadata ptr %self.dbg.spill, metadata !2653, metadata !DIExpression()), !dbg !2654
  call void @llvm.memcpy.p0.p0.i64(ptr align 8 %_0, ptr align 8 %self, i64 56, i1 false), !dbg !2655
  ret void, !dbg !2656
}

; <libc::unix::linux_like::linux::gnu::cmsghdr as core::clone::Clone>::clone
; Function Attrs: nonlazybind uwtable
define void @"_ZN82_$LT$libc..unix..linux_like..linux..gnu..cmsghdr$u20$as$u20$core..clone..Clone$GT$5clone17h165d236c8647ded9E"(ptr sret(%"unix::linux_like::linux::gnu::cmsghdr") align 8 %_0, ptr align 8 %self) unnamed_addr #0 !dbg !2657 {
start:
  %self.dbg.spill = alloca ptr, align 8
  store ptr %self, ptr %self.dbg.spill, align 8
  call void @llvm.dbg.declare(metadata ptr %self.dbg.spill, metadata !2668, metadata !DIExpression()), !dbg !2669
  call void @llvm.memcpy.p0.p0.i64(ptr align 8 %_0, ptr align 8 %self, i64 16, i1 false), !dbg !2670
  ret void, !dbg !2671
}

; <libc::unix::linux_like::linux::gnu::termios as core::clone::Clone>::clone
; Function Attrs: nonlazybind uwtable
define void @"_ZN82_$LT$libc..unix..linux_like..linux..gnu..termios$u20$as$u20$core..clone..Clone$GT$5clone17ha53abf590f8af3d0E"(ptr sret(%"unix::linux_like::linux::gnu::termios") align 4 %_0, ptr align 4 %self) unnamed_addr #0 !dbg !2672 {
start:
  %self.dbg.spill = alloca ptr, align 8
  store ptr %self, ptr %self.dbg.spill, align 8
  call void @llvm.dbg.declare(metadata ptr %self.dbg.spill, metadata !2688, metadata !DIExpression()), !dbg !2689
  call void @llvm.memcpy.p0.p0.i64(ptr align 4 %_0, ptr align 4 %self, i64 60, i1 false), !dbg !2690
  ret void, !dbg !2691
}

; <libc::unix::linux_like::linux::gnu::mallinfo as core::clone::Clone>::clone
; Function Attrs: nonlazybind uwtable
define void @"_ZN83_$LT$libc..unix..linux_like..linux..gnu..mallinfo$u20$as$u20$core..clone..Clone$GT$5clone17h813d36f4231310d8E"(ptr sret(%"unix::linux_like::linux::gnu::mallinfo") align 4 %_0, ptr align 4 %self) unnamed_addr #0 !dbg !2692 {
start:
  %self.dbg.spill = alloca ptr, align 8
  store ptr %self, ptr %self.dbg.spill, align 8
  call void @llvm.dbg.declare(metadata ptr %self.dbg.spill, metadata !2710, metadata !DIExpression()), !dbg !2711
  call void @llvm.memcpy.p0.p0.i64(ptr align 4 %_0, ptr align 4 %self, i64 40, i1 false), !dbg !2712
  ret void, !dbg !2713
}

; <libc::unix::linux_like::linux::gnu::mallinfo2 as core::clone::Clone>::clone
; Function Attrs: nonlazybind uwtable
define void @"_ZN84_$LT$libc..unix..linux_like..linux..gnu..mallinfo2$u20$as$u20$core..clone..Clone$GT$5clone17h7f5c40644f1f3045E"(ptr sret(%"unix::linux_like::linux::gnu::mallinfo2") align 8 %_0, ptr align 8 %self) unnamed_addr #0 !dbg !2714 {
start:
  %self.dbg.spill = alloca ptr, align 8
  store ptr %self, ptr %self.dbg.spill, align 8
  call void @llvm.dbg.declare(metadata ptr %self.dbg.spill, metadata !2732, metadata !DIExpression()), !dbg !2733
  call void @llvm.memcpy.p0.p0.i64(ptr align 8 %_0, ptr align 8 %self, i64 80, i1 false), !dbg !2734
  ret void, !dbg !2735
}

; <libc::unix::linux_like::linux::gnu::nl_pktinfo as core::clone::Clone>::clone
; Function Attrs: nonlazybind uwtable
define i32 @"_ZN85_$LT$libc..unix..linux_like..linux..gnu..nl_pktinfo$u20$as$u20$core..clone..Clone$GT$5clone17h103a1b41d5790a6cE"(ptr align 4 %self) unnamed_addr #0 !dbg !2736 {
start:
  %self.dbg.spill = alloca ptr, align 8
  %_0 = alloca %"unix::linux_like::linux::gnu::nl_pktinfo", align 4
  store ptr %self, ptr %self.dbg.spill, align 8
  call void @llvm.dbg.declare(metadata ptr %self.dbg.spill, metadata !2745, metadata !DIExpression()), !dbg !2746
  call void @llvm.memcpy.p0.p0.i64(ptr align 4 %_0, ptr align 4 %self, i64 4, i1 false), !dbg !2747
  %0 = load i32, ptr %_0, align 4, !dbg !2748
  ret i32 %0, !dbg !2748
}

; <libc::unix::linux_like::linux::gnu::nl_mmap_req as core::clone::Clone>::clone
; Function Attrs: nonlazybind uwtable
define void @"_ZN86_$LT$libc..unix..linux_like..linux..gnu..nl_mmap_req$u20$as$u20$core..clone..Clone$GT$5clone17he790a05bf7b4b11eE"(ptr sret(%"unix::linux_like::linux::gnu::nl_mmap_req") align 4 %_0, ptr align 4 %self) unnamed_addr #0 !dbg !2749 {
start:
  %self.dbg.spill = alloca ptr, align 8
  store ptr %self, ptr %self.dbg.spill, align 8
  call void @llvm.dbg.declare(metadata ptr %self.dbg.spill, metadata !2761, metadata !DIExpression()), !dbg !2762
  call void @llvm.memcpy.p0.p0.i64(ptr align 4 %_0, ptr align 4 %self, i64 16, i1 false), !dbg !2763
  ret void, !dbg !2764
}

; <libc::unix::linux_like::linux::gnu::nl_mmap_hdr as core::clone::Clone>::clone
; Function Attrs: nonlazybind uwtable
define void @"_ZN86_$LT$libc..unix..linux_like..linux..gnu..nl_mmap_hdr$u20$as$u20$core..clone..Clone$GT$5clone17h8254cd8ba27820dfE"(ptr sret(%"unix::linux_like::linux::gnu::nl_mmap_hdr") align 4 %_0, ptr align 4 %self) unnamed_addr #0 !dbg !2765 {
start:
  %self.dbg.spill = alloca ptr, align 8
  store ptr %self, ptr %self.dbg.spill, align 8
  call void @llvm.dbg.declare(metadata ptr %self.dbg.spill, metadata !2779, metadata !DIExpression()), !dbg !2780
  call void @llvm.memcpy.p0.p0.i64(ptr align 4 %_0, ptr align 4 %self, i64 24, i1 false), !dbg !2781
  ret void, !dbg !2782
}

; <libc::unix::linux_like::linux::gnu::rtentry as core::clone::Clone>::clone
; Function Attrs: nonlazybind uwtable
define void @"_ZN82_$LT$libc..unix..linux_like..linux..gnu..rtentry$u20$as$u20$core..clone..Clone$GT$5clone17hdf7c6e594ada31c7E"(ptr sret(%"unix::linux_like::linux::gnu::rtentry") align 8 %_0, ptr align 8 %self) unnamed_addr #0 !dbg !2783 {
start:
  %self.dbg.spill = alloca ptr, align 8
  store ptr %self, ptr %self.dbg.spill, align 8
  call void @llvm.dbg.declare(metadata ptr %self.dbg.spill, metadata !2809, metadata !DIExpression()), !dbg !2810
  call void @llvm.memcpy.p0.p0.i64(ptr align 8 %_0, ptr align 8 %self, i64 120, i1 false), !dbg !2811
  ret void, !dbg !2812
}

; <libc::unix::linux_like::linux::gnu::timex as core::clone::Clone>::clone
; Function Attrs: nonlazybind uwtable
define void @"_ZN80_$LT$libc..unix..linux_like..linux..gnu..timex$u20$as$u20$core..clone..Clone$GT$5clone17h540365fa671ecb5fE"(ptr sret(%"unix::linux_like::linux::gnu::timex") align 8 %_0, ptr align 8 %self) unnamed_addr #0 !dbg !2813 {
start:
  %self.dbg.spill = alloca ptr, align 8
  store ptr %self, ptr %self.dbg.spill, align 8
  call void @llvm.dbg.declare(metadata ptr %self.dbg.spill, metadata !2852, metadata !DIExpression()), !dbg !2853
  call void @llvm.memcpy.p0.p0.i64(ptr align 8 %_0, ptr align 8 %self, i64 208, i1 false), !dbg !2854
  ret void, !dbg !2855
}

; <libc::unix::linux_like::linux::gnu::ntptimeval as core::clone::Clone>::clone
; Function Attrs: nonlazybind uwtable
define void @"_ZN85_$LT$libc..unix..linux_like..linux..gnu..ntptimeval$u20$as$u20$core..clone..Clone$GT$5clone17h36cd499e8a41c668E"(ptr sret(%"unix::linux_like::linux::gnu::ntptimeval") align 8 %_0, ptr align 8 %self) unnamed_addr #0 !dbg !2856 {
start:
  %self.dbg.spill = alloca ptr, align 8
  store ptr %self, ptr %self.dbg.spill, align 8
  call void @llvm.dbg.declare(metadata ptr %self.dbg.spill, metadata !2872, metadata !DIExpression()), !dbg !2873
  call void @llvm.memcpy.p0.p0.i64(ptr align 8 %_0, ptr align 8 %self, i64 72, i1 false), !dbg !2874
  ret void, !dbg !2875
}

; <libc::unix::linux_like::linux::gnu::regex_t as core::clone::Clone>::clone
; Function Attrs: nonlazybind uwtable
define void @"_ZN82_$LT$libc..unix..linux_like..linux..gnu..regex_t$u20$as$u20$core..clone..Clone$GT$5clone17h204cf23181c033bdE"(ptr sret(%"unix::linux_like::linux::gnu::regex_t") align 8 %_0, ptr align 8 %self) unnamed_addr #0 !dbg !2876 {
start:
  %self.dbg.spill = alloca ptr, align 8
  store ptr %self, ptr %self.dbg.spill, align 8
  call void @llvm.dbg.declare(metadata ptr %self.dbg.spill, metadata !2892, metadata !DIExpression()), !dbg !2893
  call void @llvm.memcpy.p0.p0.i64(ptr align 8 %_0, ptr align 8 %self, i64 64, i1 false), !dbg !2894
  ret void, !dbg !2895
}

; <libc::unix::linux_like::linux::gnu::Elf64_Chdr as core::clone::Clone>::clone
; Function Attrs: nonlazybind uwtable
define void @"_ZN85_$LT$libc..unix..linux_like..linux..gnu..Elf64_Chdr$u20$as$u20$core..clone..Clone$GT$5clone17hbca79ea480e8832dE"(ptr sret(%"unix::linux_like::linux::gnu::Elf64_Chdr") align 8 %_0, ptr align 8 %self) unnamed_addr #0 !dbg !2896 {
start:
  %self.dbg.spill = alloca ptr, align 8
  store ptr %self, ptr %self.dbg.spill, align 8
  call void @llvm.dbg.declare(metadata ptr %self.dbg.spill, metadata !2908, metadata !DIExpression()), !dbg !2909
  call void @llvm.memcpy.p0.p0.i64(ptr align 8 %_0, ptr align 8 %self, i64 24, i1 false), !dbg !2910
  ret void, !dbg !2911
}

; <libc::unix::linux_like::linux::gnu::Elf32_Chdr as core::clone::Clone>::clone
; Function Attrs: nonlazybind uwtable
define void @"_ZN85_$LT$libc..unix..linux_like..linux..gnu..Elf32_Chdr$u20$as$u20$core..clone..Clone$GT$5clone17h75fa5af457dc135bE"(ptr sret(%"unix::linux_like::linux::gnu::Elf32_Chdr") align 4 %_0, ptr align 4 %self) unnamed_addr #0 !dbg !2912 {
start:
  %self.dbg.spill = alloca ptr, align 8
  store ptr %self, ptr %self.dbg.spill, align 8
  call void @llvm.dbg.declare(metadata ptr %self.dbg.spill, metadata !2923, metadata !DIExpression()), !dbg !2924
  call void @llvm.memcpy.p0.p0.i64(ptr align 4 %_0, ptr align 4 %self, i64 12, i1 false), !dbg !2925
  ret void, !dbg !2926
}

; <libc::unix::linux_like::linux::gnu::seminfo as core::clone::Clone>::clone
; Function Attrs: nonlazybind uwtable
define void @"_ZN82_$LT$libc..unix..linux_like..linux..gnu..seminfo$u20$as$u20$core..clone..Clone$GT$5clone17h6b9d5f27fa2fbf56E"(ptr sret(%"unix::linux_like::linux::gnu::seminfo") align 4 %_0, ptr align 4 %self) unnamed_addr #0 !dbg !2927 {
start:
  %self.dbg.spill = alloca ptr, align 8
  store ptr %self, ptr %self.dbg.spill, align 8
  call void @llvm.dbg.declare(metadata ptr %self.dbg.spill, metadata !2945, metadata !DIExpression()), !dbg !2946
  call void @llvm.memcpy.p0.p0.i64(ptr align 4 %_0, ptr align 4 %self, i64 40, i1 false), !dbg !2947
  ret void, !dbg !2948
}

; <libc::unix::linux_like::linux::gnu::ptrace_peeksiginfo_args as core::clone::Clone>::clone
; Function Attrs: nonlazybind uwtable
define void @"_ZN98_$LT$libc..unix..linux_like..linux..gnu..ptrace_peeksiginfo_args$u20$as$u20$core..clone..Clone$GT$5clone17h03115b20a6c90342E"(ptr sret(%"unix::linux_like::linux::gnu::ptrace_peeksiginfo_args") align 8 %_0, ptr align 8 %self) unnamed_addr #0 !dbg !2949 {
start:
  %self.dbg.spill = alloca ptr, align 8
  store ptr %self, ptr %self.dbg.spill, align 8
  call void @llvm.dbg.declare(metadata ptr %self.dbg.spill, metadata !2960, metadata !DIExpression()), !dbg !2961
  call void @llvm.memcpy.p0.p0.i64(ptr align 8 %_0, ptr align 8 %self, i64 16, i1 false), !dbg !2962
  ret void, !dbg !2963
}

; <libc::unix::linux_like::linux::gnu::__c_anonymous_ptrace_syscall_info_entry as core::clone::Clone>::clone
; Function Attrs: nonlazybind uwtable
define void @"_ZN114_$LT$libc..unix..linux_like..linux..gnu..__c_anonymous_ptrace_syscall_info_entry$u20$as$u20$core..clone..Clone$GT$5clone17hc9bd72af70d38927E"(ptr sret(%"unix::linux_like::linux::gnu::__c_anonymous_ptrace_syscall_info_entry") align 8 %_0, ptr align 8 %self) unnamed_addr #0 !dbg !2964 {
start:
  %self.dbg.spill = alloca ptr, align 8
  store ptr %self, ptr %self.dbg.spill, align 8
  call void @llvm.dbg.declare(metadata ptr %self.dbg.spill, metadata !2974, metadata !DIExpression()), !dbg !2975
  call void @llvm.memcpy.p0.p0.i64(ptr align 8 %_0, ptr align 8 %self, i64 56, i1 false), !dbg !2976
  ret void, !dbg !2977
}

; <libc::unix::linux_like::linux::gnu::__c_anonymous_ptrace_syscall_info_exit as core::clone::Clone>::clone
; Function Attrs: nonlazybind uwtable
define { i64, i8 } @"_ZN113_$LT$libc..unix..linux_like..linux..gnu..__c_anonymous_ptrace_syscall_info_exit$u20$as$u20$core..clone..Clone$GT$5clone17hf1da4fb817c29dbaE"(ptr align 8 %self) unnamed_addr #0 !dbg !2978 {
start:
  %self.dbg.spill = alloca ptr, align 8
  store ptr %self, ptr %self.dbg.spill, align 8
  call void @llvm.dbg.declare(metadata ptr %self.dbg.spill, metadata !2988, metadata !DIExpression()), !dbg !2989
  %_0.0 = load i64, ptr %self, align 8, !dbg !2990, !noundef !33
  %0 = getelementptr inbounds i8, ptr %self, i64 8, !dbg !2990
  %_0.1 = load i8, ptr %0, align 8, !dbg !2990, !noundef !33
  %1 = insertvalue { i64, i8 } poison, i64 %_0.0, 0, !dbg !2991
  %2 = insertvalue { i64, i8 } %1, i8 %_0.1, 1, !dbg !2991
  ret { i64, i8 } %2, !dbg !2991
}

; <libc::unix::linux_like::linux::gnu::__c_anonymous_ptrace_syscall_info_seccomp as core::clone::Clone>::clone
; Function Attrs: nonlazybind uwtable
define void @"_ZN116_$LT$libc..unix..linux_like..linux..gnu..__c_anonymous_ptrace_syscall_info_seccomp$u20$as$u20$core..clone..Clone$GT$5clone17h1dd7f949fd4c9973E"(ptr sret(%"unix::linux_like::linux::gnu::__c_anonymous_ptrace_syscall_info_seccomp") align 8 %_0, ptr align 8 %self) unnamed_addr #0 !dbg !2992 {
start:
  %self.dbg.spill = alloca ptr, align 8
  store ptr %self, ptr %self.dbg.spill, align 8
  call void @llvm.dbg.declare(metadata ptr %self.dbg.spill, metadata !3003, metadata !DIExpression()), !dbg !3004
  call void @llvm.memcpy.p0.p0.i64(ptr align 8 %_0, ptr align 8 %self, i64 64, i1 false), !dbg !3005
  ret void, !dbg !3006
}

; <libc::unix::linux_like::linux::gnu::ptrace_syscall_info as core::clone::Clone>::clone
; Function Attrs: nonlazybind uwtable
define void @"_ZN94_$LT$libc..unix..linux_like..linux..gnu..ptrace_syscall_info$u20$as$u20$core..clone..Clone$GT$5clone17hdcf94b0bfd374020E"(ptr sret(%"unix::linux_like::linux::gnu::ptrace_syscall_info") align 8 %_0, ptr align 8 %self) unnamed_addr #0 !dbg !3007 {
start:
  %self.dbg.spill = alloca ptr, align 8
  store ptr %self, ptr %self.dbg.spill, align 8
  call void @llvm.dbg.declare(metadata ptr %self.dbg.spill, metadata !3027, metadata !DIExpression()), !dbg !3028
  call void @llvm.memcpy.p0.p0.i64(ptr align 8 %_0, ptr align 8 %self, i64 88, i1 false), !dbg !3029
  ret void, !dbg !3030
}

; <libc::unix::linux_like::linux::gnu::sockaddr_xdp as core::clone::Clone>::clone
; Function Attrs: nonlazybind uwtable
define void @"_ZN87_$LT$libc..unix..linux_like..linux..gnu..sockaddr_xdp$u20$as$u20$core..clone..Clone$GT$5clone17hdb8499bcbae1e1e9E"(ptr sret(%"unix::linux_like::linux::gnu::sockaddr_xdp") align 4 %_0, ptr align 4 %self) unnamed_addr #0 !dbg !3031 {
start:
  %self.dbg.spill = alloca ptr, align 8
  store ptr %self, ptr %self.dbg.spill, align 8
  call void @llvm.dbg.declare(metadata ptr %self.dbg.spill, metadata !3044, metadata !DIExpression()), !dbg !3045
  call void @llvm.memcpy.p0.p0.i64(ptr align 4 %_0, ptr align 4 %self, i64 16, i1 false), !dbg !3046
  ret void, !dbg !3047
}

; <libc::unix::linux_like::linux::gnu::xdp_ring_offset as core::clone::Clone>::clone
; Function Attrs: nonlazybind uwtable
define void @"_ZN90_$LT$libc..unix..linux_like..linux..gnu..xdp_ring_offset$u20$as$u20$core..clone..Clone$GT$5clone17h7ed2bf2df63e9fa3E"(ptr sret(%"unix::linux_like::linux::gnu::xdp_ring_offset") align 8 %_0, ptr align 8 %self) unnamed_addr #0 !dbg !3048 {
start:
  %self.dbg.spill = alloca ptr, align 8
  store ptr %self, ptr %self.dbg.spill, align 8
  call void @llvm.dbg.declare(metadata ptr %self.dbg.spill, metadata !3060, metadata !DIExpression()), !dbg !3061
  call void @llvm.memcpy.p0.p0.i64(ptr align 8 %_0, ptr align 8 %self, i64 32, i1 false), !dbg !3062
  ret void, !dbg !3063
}

; <libc::unix::linux_like::linux::gnu::xdp_mmap_offsets as core::clone::Clone>::clone
; Function Attrs: nonlazybind uwtable
define void @"_ZN91_$LT$libc..unix..linux_like..linux..gnu..xdp_mmap_offsets$u20$as$u20$core..clone..Clone$GT$5clone17ha82c78191a2a637cE"(ptr sret(%"unix::linux_like::linux::gnu::xdp_mmap_offsets") align 8 %_0, ptr align 8 %self) unnamed_addr #0 !dbg !3064 {
start:
  %self.dbg.spill = alloca ptr, align 8
  store ptr %self, ptr %self.dbg.spill, align 8
  call void @llvm.dbg.declare(metadata ptr %self.dbg.spill, metadata !3076, metadata !DIExpression()), !dbg !3077
  call void @llvm.memcpy.p0.p0.i64(ptr align 8 %_0, ptr align 8 %self, i64 128, i1 false), !dbg !3078
  ret void, !dbg !3079
}

; <libc::unix::linux_like::linux::gnu::xdp_ring_offset_v1 as core::clone::Clone>::clone
; Function Attrs: nonlazybind uwtable
define void @"_ZN93_$LT$libc..unix..linux_like..linux..gnu..xdp_ring_offset_v1$u20$as$u20$core..clone..Clone$GT$5clone17h70c5dcf455b03ff1E"(ptr sret(%"unix::linux_like::linux::gnu::xdp_ring_offset_v1") align 8 %_0, ptr align 8 %self) unnamed_addr #0 !dbg !3080 {
start:
  %self.dbg.spill = alloca ptr, align 8
  store ptr %self, ptr %self.dbg.spill, align 8
  call void @llvm.dbg.declare(metadata ptr %self.dbg.spill, metadata !3091, metadata !DIExpression()), !dbg !3092
  call void @llvm.memcpy.p0.p0.i64(ptr align 8 %_0, ptr align 8 %self, i64 24, i1 false), !dbg !3093
  ret void, !dbg !3094
}

; <libc::unix::linux_like::linux::gnu::xdp_mmap_offsets_v1 as core::clone::Clone>::clone
; Function Attrs: nonlazybind uwtable
define void @"_ZN94_$LT$libc..unix..linux_like..linux..gnu..xdp_mmap_offsets_v1$u20$as$u20$core..clone..Clone$GT$5clone17h63be7ecba2368768E"(ptr sret(%"unix::linux_like::linux::gnu::xdp_mmap_offsets_v1") align 8 %_0, ptr align 8 %self) unnamed_addr #0 !dbg !3095 {
start:
  %self.dbg.spill = alloca ptr, align 8
  store ptr %self, ptr %self.dbg.spill, align 8
  call void @llvm.dbg.declare(metadata ptr %self.dbg.spill, metadata !3107, metadata !DIExpression()), !dbg !3108
  call void @llvm.memcpy.p0.p0.i64(ptr align 8 %_0, ptr align 8 %self, i64 96, i1 false), !dbg !3109
  ret void, !dbg !3110
}

; <libc::unix::linux_like::linux::gnu::xdp_umem_reg as core::clone::Clone>::clone
; Function Attrs: nonlazybind uwtable
define void @"_ZN87_$LT$libc..unix..linux_like..linux..gnu..xdp_umem_reg$u20$as$u20$core..clone..Clone$GT$5clone17h40ab6ce6115086b5E"(ptr sret(%"unix::linux_like::linux::gnu::xdp_umem_reg") align 8 %_0, ptr align 8 %self) unnamed_addr #0 !dbg !3111 {
start:
  %self.dbg.spill = alloca ptr, align 8
  store ptr %self, ptr %self.dbg.spill, align 8
  call void @llvm.dbg.declare(metadata ptr %self.dbg.spill, metadata !3124, metadata !DIExpression()), !dbg !3125
  call void @llvm.memcpy.p0.p0.i64(ptr align 8 %_0, ptr align 8 %self, i64 32, i1 false), !dbg !3126
  ret void, !dbg !3127
}

; <libc::unix::linux_like::linux::gnu::xdp_umem_reg_v1 as core::clone::Clone>::clone
; Function Attrs: nonlazybind uwtable
define void @"_ZN90_$LT$libc..unix..linux_like..linux..gnu..xdp_umem_reg_v1$u20$as$u20$core..clone..Clone$GT$5clone17hdcd926618762084bE"(ptr sret(%"unix::linux_like::linux::gnu::xdp_umem_reg_v1") align 8 %_0, ptr align 8 %self) unnamed_addr #0 !dbg !3128 {
start:
  %self.dbg.spill = alloca ptr, align 8
  store ptr %self, ptr %self.dbg.spill, align 8
  call void @llvm.dbg.declare(metadata ptr %self.dbg.spill, metadata !3140, metadata !DIExpression()), !dbg !3141
  call void @llvm.memcpy.p0.p0.i64(ptr align 8 %_0, ptr align 8 %self, i64 24, i1 false), !dbg !3142
  ret void, !dbg !3143
}

; <libc::unix::linux_like::linux::gnu::xdp_statistics as core::clone::Clone>::clone
; Function Attrs: nonlazybind uwtable
define void @"_ZN89_$LT$libc..unix..linux_like..linux..gnu..xdp_statistics$u20$as$u20$core..clone..Clone$GT$5clone17h0fec0d62f3858d87E"(ptr sret(%"unix::linux_like::linux::gnu::xdp_statistics") align 8 %_0, ptr align 8 %self) unnamed_addr #0 !dbg !3144 {
start:
  %self.dbg.spill = alloca ptr, align 8
  store ptr %self, ptr %self.dbg.spill, align 8
  call void @llvm.dbg.declare(metadata ptr %self.dbg.spill, metadata !3158, metadata !DIExpression()), !dbg !3159
  call void @llvm.memcpy.p0.p0.i64(ptr align 8 %_0, ptr align 8 %self, i64 48, i1 false), !dbg !3160
  ret void, !dbg !3161
}

; <libc::unix::linux_like::linux::gnu::xdp_statistics_v1 as core::clone::Clone>::clone
; Function Attrs: nonlazybind uwtable
define void @"_ZN92_$LT$libc..unix..linux_like..linux..gnu..xdp_statistics_v1$u20$as$u20$core..clone..Clone$GT$5clone17hb793deb1dd9a30a5E"(ptr sret(%"unix::linux_like::linux::gnu::xdp_statistics_v1") align 8 %_0, ptr align 8 %self) unnamed_addr #0 !dbg !3162 {
start:
  %self.dbg.spill = alloca ptr, align 8
  store ptr %self, ptr %self.dbg.spill, align 8
  call void @llvm.dbg.declare(metadata ptr %self.dbg.spill, metadata !3173, metadata !DIExpression()), !dbg !3174
  call void @llvm.memcpy.p0.p0.i64(ptr align 8 %_0, ptr align 8 %self, i64 24, i1 false), !dbg !3175
  ret void, !dbg !3176
}

; <libc::unix::linux_like::linux::gnu::xdp_options as core::clone::Clone>::clone
; Function Attrs: nonlazybind uwtable
define i32 @"_ZN86_$LT$libc..unix..linux_like..linux..gnu..xdp_options$u20$as$u20$core..clone..Clone$GT$5clone17hcf868f5e6b7e0337E"(ptr align 4 %self) unnamed_addr #0 !dbg !3177 {
start:
  %self.dbg.spill = alloca ptr, align 8
  %_0 = alloca %"unix::linux_like::linux::gnu::xdp_options", align 4
  store ptr %self, ptr %self.dbg.spill, align 8
  call void @llvm.dbg.declare(metadata ptr %self.dbg.spill, metadata !3186, metadata !DIExpression()), !dbg !3187
  call void @llvm.memcpy.p0.p0.i64(ptr align 4 %_0, ptr align 4 %self, i64 4, i1 false), !dbg !3188
  %0 = load i32, ptr %_0, align 4, !dbg !3189
  ret i32 %0, !dbg !3189
}

; <libc::unix::linux_like::linux::gnu::xdp_desc as core::clone::Clone>::clone
; Function Attrs: nonlazybind uwtable
define void @"_ZN83_$LT$libc..unix..linux_like..linux..gnu..xdp_desc$u20$as$u20$core..clone..Clone$GT$5clone17hf593b20d9ebbdfd6E"(ptr sret(%"unix::linux_like::linux::gnu::xdp_desc") align 8 %_0, ptr align 8 %self) unnamed_addr #0 !dbg !3190 {
start:
  %self.dbg.spill = alloca ptr, align 8
  store ptr %self, ptr %self.dbg.spill, align 8
  call void @llvm.dbg.declare(metadata ptr %self.dbg.spill, metadata !3201, metadata !DIExpression()), !dbg !3202
  call void @llvm.memcpy.p0.p0.i64(ptr align 8 %_0, ptr align 8 %self, i64 16, i1 false), !dbg !3203
  ret void, !dbg !3204
}

; <libc::unix::linux_like::linux::gnu::iocb as core::clone::Clone>::clone
; Function Attrs: nonlazybind uwtable
define void @"_ZN79_$LT$libc..unix..linux_like..linux..gnu..iocb$u20$as$u20$core..clone..Clone$GT$5clone17h9238f35c6e0ae0a0E"(ptr sret(%"unix::linux_like::linux::gnu::iocb") align 8 %_0, ptr align 8 %self) unnamed_addr #0 !dbg !3205 {
start:
  %self.dbg.spill = alloca ptr, align 8
  store ptr %self, ptr %self.dbg.spill, align 8
  call void @llvm.dbg.declare(metadata ptr %self.dbg.spill, metadata !3225, metadata !DIExpression()), !dbg !3226
  call void @llvm.memcpy.p0.p0.i64(ptr align 8 %_0, ptr align 8 %self, i64 64, i1 false), !dbg !3227
  ret void, !dbg !3228
}

; <libc::unix::linux_like::linux::gnu::sifields_sigchld as core::clone::Clone>::clone
; Function Attrs: nonlazybind uwtable
define void @"_ZN91_$LT$libc..unix..linux_like..linux..gnu..sifields_sigchld$u20$as$u20$core..clone..Clone$GT$5clone17hb9e8542a2558a586E"(ptr sret(%"unix::linux_like::linux::gnu::sifields_sigchld") align 8 %_0, ptr align 8 %self) unnamed_addr #0 !dbg !3229 {
start:
  %self.dbg.spill = alloca ptr, align 8
  store ptr %self, ptr %self.dbg.spill, align 8
  call void @llvm.dbg.declare(metadata ptr %self.dbg.spill, metadata !3242, metadata !DIExpression()), !dbg !3243
  call void @llvm.memcpy.p0.p0.i64(ptr align 8 %_0, ptr align 8 %self, i64 32, i1 false), !dbg !3244
  ret void, !dbg !3245
}

; libc::unix::linux_like::linux::gnu::<impl libc::unix::linux_like::linux::gnu::b64::x86_64::siginfo_t>::sifields
; Function Attrs: nonlazybind uwtable
define internal align 8 ptr @"_ZN4libc4unix10linux_like5linux3gnu76_$LT$impl$u20$libc..unix..linux_like..linux..gnu..b64..x86_64..siginfo_t$GT$8sifields17hf79db86f7bbaa740E"(ptr align 8 %self) unnamed_addr #0 !dbg !3246 {
start:
  %self.dbg.spill = alloca ptr, align 8
  store ptr %self, ptr %self.dbg.spill, align 8
  call void @llvm.dbg.declare(metadata ptr %self.dbg.spill, metadata !3256, metadata !DIExpression()), !dbg !3257
  %_0 = getelementptr inbounds %"unix::linux_like::linux::gnu::siginfo_f", ptr %self, i32 0, i32 2, !dbg !3258
  ret ptr %_0, !dbg !3259
}

; libc::unix::linux_like::linux::gnu::<impl libc::unix::linux_like::linux::gnu::b64::x86_64::siginfo_t>::si_pid
; Function Attrs: nonlazybind uwtable
define i32 @"_ZN4libc4unix10linux_like5linux3gnu76_$LT$impl$u20$libc..unix..linux_like..linux..gnu..b64..x86_64..siginfo_t$GT$6si_pid17h95c7266da91dcc36E"(ptr align 8 %self) unnamed_addr #0 !dbg !3260 {
start:
  %self.dbg.spill = alloca ptr, align 8
  store ptr %self, ptr %self.dbg.spill, align 8
  call void @llvm.dbg.declare(metadata ptr %self.dbg.spill, metadata !3265, metadata !DIExpression()), !dbg !3266
; call libc::unix::linux_like::linux::gnu::<impl libc::unix::linux_like::linux::gnu::b64::x86_64::siginfo_t>::sifields
  %_2 = call align 8 ptr @"_ZN4libc4unix10linux_like5linux3gnu76_$LT$impl$u20$libc..unix..linux_like..linux..gnu..b64..x86_64..siginfo_t$GT$8sifields17hf79db86f7bbaa740E"(ptr align 8 %self), !dbg !3267
  %_0 = load i32, ptr %_2, align 8, !dbg !3267, !noundef !33
  ret i32 %_0, !dbg !3268
}

; libc::unix::linux_like::linux::gnu::<impl libc::unix::linux_like::linux::gnu::b64::x86_64::siginfo_t>::si_uid
; Function Attrs: nonlazybind uwtable
define i32 @"_ZN4libc4unix10linux_like5linux3gnu76_$LT$impl$u20$libc..unix..linux_like..linux..gnu..b64..x86_64..siginfo_t$GT$6si_uid17hd82f45acaf2d3bfcE"(ptr align 8 %self) unnamed_addr #0 !dbg !3269 {
start:
  %self.dbg.spill = alloca ptr, align 8
  store ptr %self, ptr %self.dbg.spill, align 8
  call void @llvm.dbg.declare(metadata ptr %self.dbg.spill, metadata !3274, metadata !DIExpression()), !dbg !3275
; call libc::unix::linux_like::linux::gnu::<impl libc::unix::linux_like::linux::gnu::b64::x86_64::siginfo_t>::sifields
  %_2 = call align 8 ptr @"_ZN4libc4unix10linux_like5linux3gnu76_$LT$impl$u20$libc..unix..linux_like..linux..gnu..b64..x86_64..siginfo_t$GT$8sifields17hf79db86f7bbaa740E"(ptr align 8 %self), !dbg !3276
  %0 = getelementptr inbounds %"unix::linux_like::linux::gnu::sifields_sigchld", ptr %_2, i32 0, i32 1, !dbg !3276
  %_0 = load i32, ptr %0, align 4, !dbg !3276, !noundef !33
  ret i32 %_0, !dbg !3277
}

; libc::unix::linux_like::linux::gnu::<impl libc::unix::linux_like::linux::gnu::b64::x86_64::siginfo_t>::si_status
; Function Attrs: nonlazybind uwtable
define i32 @"_ZN4libc4unix10linux_like5linux3gnu76_$LT$impl$u20$libc..unix..linux_like..linux..gnu..b64..x86_64..siginfo_t$GT$9si_status17hf78330e7efeff333E"(ptr align 8 %self) unnamed_addr #0 !dbg !3278 {
start:
  %self.dbg.spill = alloca ptr, align 8
  store ptr %self, ptr %self.dbg.spill, align 8
  call void @llvm.dbg.declare(metadata ptr %self.dbg.spill, metadata !3281, metadata !DIExpression()), !dbg !3282
; call libc::unix::linux_like::linux::gnu::<impl libc::unix::linux_like::linux::gnu::b64::x86_64::siginfo_t>::sifields
  %_2 = call align 8 ptr @"_ZN4libc4unix10linux_like5linux3gnu76_$LT$impl$u20$libc..unix..linux_like..linux..gnu..b64..x86_64..siginfo_t$GT$8sifields17hf79db86f7bbaa740E"(ptr align 8 %self), !dbg !3283
  %0 = getelementptr inbounds %"unix::linux_like::linux::gnu::sifields_sigchld", ptr %_2, i32 0, i32 2, !dbg !3283
  %_0 = load i32, ptr %0, align 8, !dbg !3283, !noundef !33
  ret i32 %_0, !dbg !3284
}

; libc::unix::linux_like::linux::gnu::<impl libc::unix::linux_like::linux::gnu::b64::x86_64::siginfo_t>::si_utime
; Function Attrs: nonlazybind uwtable
define i64 @"_ZN4libc4unix10linux_like5linux3gnu76_$LT$impl$u20$libc..unix..linux_like..linux..gnu..b64..x86_64..siginfo_t$GT$8si_utime17he618cebdfd760425E"(ptr align 8 %self) unnamed_addr #0 !dbg !3285 {
start:
  %self.dbg.spill = alloca ptr, align 8
  store ptr %self, ptr %self.dbg.spill, align 8
  call void @llvm.dbg.declare(metadata ptr %self.dbg.spill, metadata !3290, metadata !DIExpression()), !dbg !3291
; call libc::unix::linux_like::linux::gnu::<impl libc::unix::linux_like::linux::gnu::b64::x86_64::siginfo_t>::sifields
  %_2 = call align 8 ptr @"_ZN4libc4unix10linux_like5linux3gnu76_$LT$impl$u20$libc..unix..linux_like..linux..gnu..b64..x86_64..siginfo_t$GT$8sifields17hf79db86f7bbaa740E"(ptr align 8 %self), !dbg !3292
  %0 = getelementptr inbounds %"unix::linux_like::linux::gnu::sifields_sigchld", ptr %_2, i32 0, i32 4, !dbg !3292
  %_0 = load i64, ptr %0, align 8, !dbg !3292, !noundef !33
  ret i64 %_0, !dbg !3293
}

; libc::unix::linux_like::linux::gnu::<impl libc::unix::linux_like::linux::gnu::b64::x86_64::siginfo_t>::si_stime
; Function Attrs: nonlazybind uwtable
define i64 @"_ZN4libc4unix10linux_like5linux3gnu76_$LT$impl$u20$libc..unix..linux_like..linux..gnu..b64..x86_64..siginfo_t$GT$8si_stime17h931dc6ec8b85f4a1E"(ptr align 8 %self) unnamed_addr #0 !dbg !3294 {
start:
  %self.dbg.spill = alloca ptr, align 8
  store ptr %self, ptr %self.dbg.spill, align 8
  call void @llvm.dbg.declare(metadata ptr %self.dbg.spill, metadata !3297, metadata !DIExpression()), !dbg !3298
; call libc::unix::linux_like::linux::gnu::<impl libc::unix::linux_like::linux::gnu::b64::x86_64::siginfo_t>::sifields
  %_2 = call align 8 ptr @"_ZN4libc4unix10linux_like5linux3gnu76_$LT$impl$u20$libc..unix..linux_like..linux..gnu..b64..x86_64..siginfo_t$GT$8sifields17hf79db86f7bbaa740E"(ptr align 8 %self), !dbg !3299
  %0 = getelementptr inbounds %"unix::linux_like::linux::gnu::sifields_sigchld", ptr %_2, i32 0, i32 5, !dbg !3299
  %_0 = load i64, ptr %0, align 8, !dbg !3299, !noundef !33
  ret i64 %_0, !dbg !3300
}

; <libc::unix::linux_like::linux::gnu::__c_anonymous_ptrace_syscall_info_data as core::clone::Clone>::clone
; Function Attrs: nonlazybind uwtable
define void @"_ZN113_$LT$libc..unix..linux_like..linux..gnu..__c_anonymous_ptrace_syscall_info_data$u20$as$u20$core..clone..Clone$GT$5clone17h780a33bf35631150E"(ptr sret(%"unix::linux_like::linux::gnu::__c_anonymous_ptrace_syscall_info_data") align 8 %_0, ptr align 8 %self) unnamed_addr #0 !dbg !3301 {
start:
  %self.dbg.spill = alloca ptr, align 8
  store ptr %self, ptr %self.dbg.spill, align 8
  call void @llvm.dbg.declare(metadata ptr %self.dbg.spill, metadata !3307, metadata !DIExpression()), !dbg !3308
  call void @llvm.memcpy.p0.p0.i64(ptr align 8 %_0, ptr align 8 %self, i64 64, i1 false), !dbg !3309
  ret void, !dbg !3310
}

; <libc::unix::linux_like::linux::gnu::utmpx as core::clone::Clone>::clone
; Function Attrs: nonlazybind uwtable
define void @"_ZN80_$LT$libc..unix..linux_like..linux..gnu..utmpx$u20$as$u20$core..clone..Clone$GT$5clone17hf48c17dd5ad480afE"(ptr sret(%"unix::linux_like::linux::gnu::utmpx") align 4 %_0, ptr align 4 %self) unnamed_addr #0 !dbg !3311 {
start:
  %self.dbg.spill = alloca ptr, align 8
  store ptr %self, ptr %self.dbg.spill, align 8
  call void @llvm.dbg.declare(metadata ptr %self.dbg.spill, metadata !3335, metadata !DIExpression()), !dbg !3336
  call void @llvm.memcpy.p0.p0.i64(ptr align 4 %_0, ptr align 4 %self, i64 384, i1 false), !dbg !3337
  ret void, !dbg !3338
}

; <libc::unix::linux_like::linux::gnu::b64::sigset_t as core::clone::Clone>::clone
; Function Attrs: nonlazybind uwtable
define void @"_ZN88_$LT$libc..unix..linux_like..linux..gnu..b64..sigset_t$u20$as$u20$core..clone..Clone$GT$5clone17h1a984bc41b357759E"(ptr sret(%"unix::linux_like::linux::gnu::b64::sigset_t") align 8 %_0, ptr align 8 %self) unnamed_addr #0 !dbg !3339 {
start:
  %self.dbg.spill = alloca ptr, align 8
  store ptr %self, ptr %self.dbg.spill, align 8
  call void @llvm.dbg.declare(metadata ptr %self.dbg.spill, metadata !3345, metadata !DIExpression()), !dbg !3346
  call void @llvm.memcpy.p0.p0.i64(ptr align 8 %_0, ptr align 8 %self, i64 128, i1 false), !dbg !3347
  ret void, !dbg !3348
}

; <libc::unix::linux_like::linux::gnu::b64::sysinfo as core::clone::Clone>::clone
; Function Attrs: nonlazybind uwtable
define void @"_ZN87_$LT$libc..unix..linux_like..linux..gnu..b64..sysinfo$u20$as$u20$core..clone..Clone$GT$5clone17h0266c2a4a3a12f3fE"(ptr sret(%"unix::linux_like::linux::gnu::b64::sysinfo") align 8 %_0, ptr align 8 %self) unnamed_addr #0 !dbg !3349 {
start:
  %self.dbg.spill = alloca ptr, align 8
  store ptr %self, ptr %self.dbg.spill, align 8
  call void @llvm.dbg.declare(metadata ptr %self.dbg.spill, metadata !3373, metadata !DIExpression()), !dbg !3374
  call void @llvm.memcpy.p0.p0.i64(ptr align 8 %_0, ptr align 8 %self, i64 112, i1 false), !dbg !3375
  ret void, !dbg !3376
}

; <libc::unix::linux_like::linux::gnu::b64::msqid_ds as core::clone::Clone>::clone
; Function Attrs: nonlazybind uwtable
define void @"_ZN88_$LT$libc..unix..linux_like..linux..gnu..b64..msqid_ds$u20$as$u20$core..clone..Clone$GT$5clone17h4885eb0df7d3c378E"(ptr sret(%"unix::linux_like::linux::gnu::b64::msqid_ds") align 8 %_0, ptr align 8 %self) unnamed_addr #0 !dbg !3377 {
start:
  %self.dbg.spill = alloca ptr, align 8
  store ptr %self, ptr %self.dbg.spill, align 8
  call void @llvm.dbg.declare(metadata ptr %self.dbg.spill, metadata !3409, metadata !DIExpression()), !dbg !3410
  call void @llvm.memcpy.p0.p0.i64(ptr align 8 %_0, ptr align 8 %self, i64 120, i1 false), !dbg !3411
  ret void, !dbg !3412
}

; <libc::unix::linux_like::linux::gnu::b64::semid_ds as core::clone::Clone>::clone
; Function Attrs: nonlazybind uwtable
define void @"_ZN88_$LT$libc..unix..linux_like..linux..gnu..b64..semid_ds$u20$as$u20$core..clone..Clone$GT$5clone17h0a05b44a614deb0fE"(ptr sret(%"unix::linux_like::linux::gnu::b64::semid_ds") align 8 %_0, ptr align 8 %self) unnamed_addr #0 !dbg !3413 {
start:
  %self.dbg.spill = alloca ptr, align 8
  store ptr %self, ptr %self.dbg.spill, align 8
  call void @llvm.dbg.declare(metadata ptr %self.dbg.spill, metadata !3429, metadata !DIExpression()), !dbg !3430
  call void @llvm.memcpy.p0.p0.i64(ptr align 8 %_0, ptr align 8 %self, i64 104, i1 false), !dbg !3431
  ret void, !dbg !3432
}

; <libc::unix::linux_like::linux::gnu::b64::x86_64::sigaction as core::clone::Clone>::clone
; Function Attrs: nonlazybind uwtable
define void @"_ZN97_$LT$libc..unix..linux_like..linux..gnu..b64..x86_64..sigaction$u20$as$u20$core..clone..Clone$GT$5clone17h82685165a146daa4E"(ptr sret(%"unix::linux_like::linux::gnu::b64::x86_64::sigaction") align 8 %_0, ptr align 8 %self) unnamed_addr #0 !dbg !3433 {
start:
  %self.dbg.spill = alloca ptr, align 8
  store ptr %self, ptr %self.dbg.spill, align 8
  call void @llvm.dbg.declare(metadata ptr %self.dbg.spill, metadata !3462, metadata !DIExpression()), !dbg !3463
  call void @llvm.memcpy.p0.p0.i64(ptr align 8 %_0, ptr align 8 %self, i64 152, i1 false), !dbg !3464
  ret void, !dbg !3465
}

; <libc::unix::linux_like::linux::gnu::b64::x86_64::statfs as core::clone::Clone>::clone
; Function Attrs: nonlazybind uwtable
define void @"_ZN94_$LT$libc..unix..linux_like..linux..gnu..b64..x86_64..statfs$u20$as$u20$core..clone..Clone$GT$5clone17hdca555e0c18522a3E"(ptr sret(%"unix::linux_like::linux::gnu::b64::x86_64::statfs") align 8 %_0, ptr align 8 %self) unnamed_addr #0 !dbg !3466 {
start:
  %self.dbg.spill = alloca ptr, align 8
  store ptr %self, ptr %self.dbg.spill, align 8
  call void @llvm.dbg.declare(metadata ptr %self.dbg.spill, metadata !3488, metadata !DIExpression()), !dbg !3489
  call void @llvm.memcpy.p0.p0.i64(ptr align 8 %_0, ptr align 8 %self, i64 120, i1 false), !dbg !3490
  ret void, !dbg !3491
}

; <libc::unix::linux_like::linux::gnu::b64::x86_64::flock as core::clone::Clone>::clone
; Function Attrs: nonlazybind uwtable
define void @"_ZN93_$LT$libc..unix..linux_like..linux..gnu..b64..x86_64..flock$u20$as$u20$core..clone..Clone$GT$5clone17h13aaee9f068608ccE"(ptr sret(%"unix::linux_like::linux::gnu::b64::x86_64::flock") align 8 %_0, ptr align 8 %self) unnamed_addr #0 !dbg !3492 {
start:
  %self.dbg.spill = alloca ptr, align 8
  store ptr %self, ptr %self.dbg.spill, align 8
  call void @llvm.dbg.declare(metadata ptr %self.dbg.spill, metadata !3505, metadata !DIExpression()), !dbg !3506
  call void @llvm.memcpy.p0.p0.i64(ptr align 8 %_0, ptr align 8 %self, i64 32, i1 false), !dbg !3507
  ret void, !dbg !3508
}

; <libc::unix::linux_like::linux::gnu::b64::x86_64::flock64 as core::clone::Clone>::clone
; Function Attrs: nonlazybind uwtable
define void @"_ZN95_$LT$libc..unix..linux_like..linux..gnu..b64..x86_64..flock64$u20$as$u20$core..clone..Clone$GT$5clone17h266ba6123a0df9e2E"(ptr sret(%"unix::linux_like::linux::gnu::b64::x86_64::flock64") align 8 %_0, ptr align 8 %self) unnamed_addr #0 !dbg !3509 {
start:
  %self.dbg.spill = alloca ptr, align 8
  store ptr %self, ptr %self.dbg.spill, align 8
  call void @llvm.dbg.declare(metadata ptr %self.dbg.spill, metadata !3522, metadata !DIExpression()), !dbg !3523
  call void @llvm.memcpy.p0.p0.i64(ptr align 8 %_0, ptr align 8 %self, i64 32, i1 false), !dbg !3524
  ret void, !dbg !3525
}

; <libc::unix::linux_like::linux::gnu::b64::x86_64::siginfo_t as core::clone::Clone>::clone
; Function Attrs: nonlazybind uwtable
define void @"_ZN97_$LT$libc..unix..linux_like..linux..gnu..b64..x86_64..siginfo_t$u20$as$u20$core..clone..Clone$GT$5clone17h77fdb14d9a4f823bE"(ptr sret(%"unix::linux_like::linux::gnu::b64::x86_64::siginfo_t") align 8 %_0, ptr align 8 %self) unnamed_addr #0 !dbg !3526 {
start:
  %self.dbg.spill = alloca ptr, align 8
  store ptr %self, ptr %self.dbg.spill, align 8
  call void @llvm.dbg.declare(metadata ptr %self.dbg.spill, metadata !3531, metadata !DIExpression()), !dbg !3532
  call void @llvm.memcpy.p0.p0.i64(ptr align 8 %_0, ptr align 8 %self, i64 128, i1 false), !dbg !3533
  ret void, !dbg !3534
}

; <libc::unix::linux_like::linux::gnu::b64::x86_64::stack_t as core::clone::Clone>::clone
; Function Attrs: nonlazybind uwtable
define void @"_ZN95_$LT$libc..unix..linux_like..linux..gnu..b64..x86_64..stack_t$u20$as$u20$core..clone..Clone$GT$5clone17h34d310599d37ea6fE"(ptr sret(%"unix::linux_like::linux::gnu::b64::x86_64::stack_t") align 8 %_0, ptr align 8 %self) unnamed_addr #0 !dbg !3535 {
start:
  %self.dbg.spill = alloca ptr, align 8
  store ptr %self, ptr %self.dbg.spill, align 8
  call void @llvm.dbg.declare(metadata ptr %self.dbg.spill, metadata !3546, metadata !DIExpression()), !dbg !3547
  call void @llvm.memcpy.p0.p0.i64(ptr align 8 %_0, ptr align 8 %self, i64 24, i1 false), !dbg !3548
  ret void, !dbg !3549
}

; <libc::unix::linux_like::linux::gnu::b64::x86_64::stat as core::clone::Clone>::clone
; Function Attrs: nonlazybind uwtable
define void @"_ZN92_$LT$libc..unix..linux_like..linux..gnu..b64..x86_64..stat$u20$as$u20$core..clone..Clone$GT$5clone17h6e6c8dc022b87a7dE"(ptr sret(%"unix::linux_like::linux::gnu::b64::x86_64::stat") align 8 %_0, ptr align 8 %self) unnamed_addr #0 !dbg !3550 {
start:
  %self.dbg.spill = alloca ptr, align 8
  store ptr %self, ptr %self.dbg.spill, align 8
  call void @llvm.dbg.declare(metadata ptr %self.dbg.spill, metadata !3577, metadata !DIExpression()), !dbg !3578
  call void @llvm.memcpy.p0.p0.i64(ptr align 8 %_0, ptr align 8 %self, i64 144, i1 false), !dbg !3579
  ret void, !dbg !3580
}

; <libc::unix::linux_like::linux::gnu::b64::x86_64::stat64 as core::clone::Clone>::clone
; Function Attrs: nonlazybind uwtable
define void @"_ZN94_$LT$libc..unix..linux_like..linux..gnu..b64..x86_64..stat64$u20$as$u20$core..clone..Clone$GT$5clone17hb4e6cc34b2ab5433E"(ptr sret(%"unix::linux_like::linux::gnu::b64::x86_64::stat64") align 8 %_0, ptr align 8 %self) unnamed_addr #0 !dbg !3581 {
start:
  %self.dbg.spill = alloca ptr, align 8
  store ptr %self, ptr %self.dbg.spill, align 8
  call void @llvm.dbg.declare(metadata ptr %self.dbg.spill, metadata !3607, metadata !DIExpression()), !dbg !3608
  call void @llvm.memcpy.p0.p0.i64(ptr align 8 %_0, ptr align 8 %self, i64 144, i1 false), !dbg !3609
  ret void, !dbg !3610
}

; <libc::unix::linux_like::linux::gnu::b64::x86_64::statfs64 as core::clone::Clone>::clone
; Function Attrs: nonlazybind uwtable
define void @"_ZN96_$LT$libc..unix..linux_like..linux..gnu..b64..x86_64..statfs64$u20$as$u20$core..clone..Clone$GT$5clone17hac0131b430531e20E"(ptr sret(%"unix::linux_like::linux::gnu::b64::x86_64::statfs64") align 8 %_0, ptr align 8 %self) unnamed_addr #0 !dbg !3611 {
start:
  %self.dbg.spill = alloca ptr, align 8
  store ptr %self, ptr %self.dbg.spill, align 8
  call void @llvm.dbg.declare(metadata ptr %self.dbg.spill, metadata !3631, metadata !DIExpression()), !dbg !3632
  call void @llvm.memcpy.p0.p0.i64(ptr align 8 %_0, ptr align 8 %self, i64 120, i1 false), !dbg !3633
  ret void, !dbg !3634
}

; <libc::unix::linux_like::linux::gnu::b64::x86_64::statvfs64 as core::clone::Clone>::clone
; Function Attrs: nonlazybind uwtable
define void @"_ZN97_$LT$libc..unix..linux_like..linux..gnu..b64..x86_64..statvfs64$u20$as$u20$core..clone..Clone$GT$5clone17hbf139ebdc6b0fdafE"(ptr sret(%"unix::linux_like::linux::gnu::b64::x86_64::statvfs64") align 8 %_0, ptr align 8 %self) unnamed_addr #0 !dbg !3635 {
start:
  %self.dbg.spill = alloca ptr, align 8
  store ptr %self, ptr %self.dbg.spill, align 8
  call void @llvm.dbg.declare(metadata ptr %self.dbg.spill, metadata !3656, metadata !DIExpression()), !dbg !3657
  call void @llvm.memcpy.p0.p0.i64(ptr align 8 %_0, ptr align 8 %self, i64 112, i1 false), !dbg !3658
  ret void, !dbg !3659
}

; <libc::unix::linux_like::linux::gnu::b64::x86_64::pthread_attr_t as core::clone::Clone>::clone
; Function Attrs: nonlazybind uwtable
define void @"_ZN102_$LT$libc..unix..linux_like..linux..gnu..b64..x86_64..pthread_attr_t$u20$as$u20$core..clone..Clone$GT$5clone17h63d8fe738747749aE"(ptr sret(%"unix::linux_like::linux::gnu::b64::x86_64::pthread_attr_t") align 8 %_0, ptr align 8 %self) unnamed_addr #0 !dbg !3660 {
start:
  %self.dbg.spill = alloca ptr, align 8
  store ptr %self, ptr %self.dbg.spill, align 8
  call void @llvm.dbg.declare(metadata ptr %self.dbg.spill, metadata !3670, metadata !DIExpression()), !dbg !3671
  call void @llvm.memcpy.p0.p0.i64(ptr align 8 %_0, ptr align 8 %self, i64 56, i1 false), !dbg !3672
  ret void, !dbg !3673
}

; <libc::unix::linux_like::linux::gnu::b64::x86_64::_libc_fpxreg as core::clone::Clone>::clone
; Function Attrs: nonlazybind uwtable
define void @"_ZN100_$LT$libc..unix..linux_like..linux..gnu..b64..x86_64.._libc_fpxreg$u20$as$u20$core..clone..Clone$GT$5clone17h11e608dc2223f32dE"(ptr sret(%"unix::linux_like::linux::gnu::b64::x86_64::_libc_fpxreg") align 2 %_0, ptr align 2 %self) unnamed_addr #0 !dbg !3674 {
start:
  %self.dbg.spill = alloca ptr, align 8
  store ptr %self, ptr %self.dbg.spill, align 8
  call void @llvm.dbg.declare(metadata ptr %self.dbg.spill, metadata !3687, metadata !DIExpression()), !dbg !3688
  call void @llvm.memcpy.p0.p0.i64(ptr align 2 %_0, ptr align 2 %self, i64 16, i1 false), !dbg !3689
  ret void, !dbg !3690
}

; <libc::unix::linux_like::linux::gnu::b64::x86_64::_libc_xmmreg as core::clone::Clone>::clone
; Function Attrs: nonlazybind uwtable
define void @"_ZN100_$LT$libc..unix..linux_like..linux..gnu..b64..x86_64.._libc_xmmreg$u20$as$u20$core..clone..Clone$GT$5clone17h0bc9e6d14c1b82c6E"(ptr sret(%"unix::linux_like::linux::gnu::b64::x86_64::_libc_xmmreg") align 4 %_0, ptr align 4 %self) unnamed_addr #0 !dbg !3691 {
start:
  %self.dbg.spill = alloca ptr, align 8
  store ptr %self, ptr %self.dbg.spill, align 8
  call void @llvm.dbg.declare(metadata ptr %self.dbg.spill, metadata !3701, metadata !DIExpression()), !dbg !3702
  call void @llvm.memcpy.p0.p0.i64(ptr align 4 %_0, ptr align 4 %self, i64 16, i1 false), !dbg !3703
  ret void, !dbg !3704
}

; <libc::unix::linux_like::linux::gnu::b64::x86_64::_libc_fpstate as core::clone::Clone>::clone
; Function Attrs: nonlazybind uwtable
define void @"_ZN101_$LT$libc..unix..linux_like..linux..gnu..b64..x86_64.._libc_fpstate$u20$as$u20$core..clone..Clone$GT$5clone17hb7970a2dd0462ef1E"(ptr sret(%"unix::linux_like::linux::gnu::b64::x86_64::_libc_fpstate") align 8 %_0, ptr align 8 %self) unnamed_addr #0 !dbg !3705 {
start:
  %self.dbg.spill = alloca ptr, align 8
  store ptr %self, ptr %self.dbg.spill, align 8
  call void @llvm.dbg.declare(metadata ptr %self.dbg.spill, metadata !3726, metadata !DIExpression()), !dbg !3727
  call void @llvm.memcpy.p0.p0.i64(ptr align 8 %_0, ptr align 8 %self, i64 512, i1 false), !dbg !3728
  ret void, !dbg !3729
}

; <libc::unix::linux_like::linux::gnu::b64::x86_64::user_regs_struct as core::clone::Clone>::clone
; Function Attrs: nonlazybind uwtable
define void @"_ZN104_$LT$libc..unix..linux_like..linux..gnu..b64..x86_64..user_regs_struct$u20$as$u20$core..clone..Clone$GT$5clone17h47893d50e6b34138E"(ptr sret(%"unix::linux_like::linux::gnu::b64::x86_64::user_regs_struct") align 8 %_0, ptr align 8 %self) unnamed_addr #0 !dbg !3730 {
start:
  %self.dbg.spill = alloca ptr, align 8
  store ptr %self, ptr %self.dbg.spill, align 8
  call void @llvm.dbg.declare(metadata ptr %self.dbg.spill, metadata !3765, metadata !DIExpression()), !dbg !3766
  call void @llvm.memcpy.p0.p0.i64(ptr align 8 %_0, ptr align 8 %self, i64 216, i1 false), !dbg !3767
  ret void, !dbg !3768
}

; <libc::unix::linux_like::linux::gnu::b64::x86_64::user as core::clone::Clone>::clone
; Function Attrs: nonlazybind uwtable
define void @"_ZN92_$LT$libc..unix..linux_like..linux..gnu..b64..x86_64..user$u20$as$u20$core..clone..Clone$GT$5clone17hc735b92ddc5507daE"(ptr sret(%"unix::linux_like::linux::gnu::b64::x86_64::user") align 8 %_0, ptr align 8 %self) unnamed_addr #0 !dbg !3769 {
start:
  %self.dbg.spill = alloca ptr, align 8
  store ptr %self, ptr %self.dbg.spill, align 8
  call void @llvm.dbg.declare(metadata ptr %self.dbg.spill, metadata !3813, metadata !DIExpression()), !dbg !3814
  call void @llvm.memcpy.p0.p0.i64(ptr align 8 %_0, ptr align 8 %self, i64 912, i1 false), !dbg !3815
  ret void, !dbg !3816
}

; <libc::unix::linux_like::linux::gnu::b64::x86_64::mcontext_t as core::clone::Clone>::clone
; Function Attrs: nonlazybind uwtable
define void @"_ZN98_$LT$libc..unix..linux_like..linux..gnu..b64..x86_64..mcontext_t$u20$as$u20$core..clone..Clone$GT$5clone17hb16d6cc922413ff2E"(ptr sret(%"unix::linux_like::linux::gnu::b64::x86_64::mcontext_t") align 8 %_0, ptr align 8 %self) unnamed_addr #0 !dbg !3817 {
start:
  %self.dbg.spill = alloca ptr, align 8
  store ptr %self, ptr %self.dbg.spill, align 8
  call void @llvm.dbg.declare(metadata ptr %self.dbg.spill, metadata !3832, metadata !DIExpression()), !dbg !3833
  call void @llvm.memcpy.p0.p0.i64(ptr align 8 %_0, ptr align 8 %self, i64 256, i1 false), !dbg !3834
  ret void, !dbg !3835
}

; <libc::unix::linux_like::linux::gnu::b64::x86_64::ipc_perm as core::clone::Clone>::clone
; Function Attrs: nonlazybind uwtable
define void @"_ZN96_$LT$libc..unix..linux_like..linux..gnu..b64..x86_64..ipc_perm$u20$as$u20$core..clone..Clone$GT$5clone17h60ce5c29e86bf162E"(ptr sret(%"unix::linux_like::linux::gnu::b64::x86_64::ipc_perm") align 8 %_0, ptr align 8 %self) unnamed_addr #0 !dbg !3836 {
start:
  %self.dbg.spill = alloca ptr, align 8
  store ptr %self, ptr %self.dbg.spill, align 8
  call void @llvm.dbg.declare(metadata ptr %self.dbg.spill, metadata !3842, metadata !DIExpression()), !dbg !3843
  call void @llvm.memcpy.p0.p0.i64(ptr align 8 %_0, ptr align 8 %self, i64 48, i1 false), !dbg !3844
  ret void, !dbg !3845
}

; <libc::unix::linux_like::linux::gnu::b64::x86_64::shmid_ds as core::clone::Clone>::clone
; Function Attrs: nonlazybind uwtable
define void @"_ZN96_$LT$libc..unix..linux_like..linux..gnu..b64..x86_64..shmid_ds$u20$as$u20$core..clone..Clone$GT$5clone17h6fdbfb0be8afdb79E"(ptr sret(%"unix::linux_like::linux::gnu::b64::x86_64::shmid_ds") align 8 %_0, ptr align 8 %self) unnamed_addr #0 !dbg !3846 {
start:
  %self.dbg.spill = alloca ptr, align 8
  store ptr %self, ptr %self.dbg.spill, align 8
  call void @llvm.dbg.declare(metadata ptr %self.dbg.spill, metadata !3864, metadata !DIExpression()), !dbg !3865
  call void @llvm.memcpy.p0.p0.i64(ptr align 8 %_0, ptr align 8 %self, i64 112, i1 false), !dbg !3866
  ret void, !dbg !3867
}

; <libc::unix::linux_like::linux::gnu::b64::x86_64::ptrace_rseq_configuration as core::clone::Clone>::clone
; Function Attrs: nonlazybind uwtable
define void @"_ZN113_$LT$libc..unix..linux_like..linux..gnu..b64..x86_64..ptrace_rseq_configuration$u20$as$u20$core..clone..Clone$GT$5clone17h6b5d529424fc41edE"(ptr sret(%"unix::linux_like::linux::gnu::b64::x86_64::ptrace_rseq_configuration") align 8 %_0, ptr align 8 %self) unnamed_addr #0 !dbg !3868 {
start:
  %self.dbg.spill = alloca ptr, align 8
  store ptr %self, ptr %self.dbg.spill, align 8
  call void @llvm.dbg.declare(metadata ptr %self.dbg.spill, metadata !3881, metadata !DIExpression()), !dbg !3882
  call void @llvm.memcpy.p0.p0.i64(ptr align 8 %_0, ptr align 8 %self, i64 24, i1 false), !dbg !3883
  ret void, !dbg !3884
}

; <libc::unix::linux_like::linux::gnu::b64::x86_64::user_fpregs_struct as core::clone::Clone>::clone
; Function Attrs: nonlazybind uwtable
define void @"_ZN106_$LT$libc..unix..linux_like..linux..gnu..b64..x86_64..user_fpregs_struct$u20$as$u20$core..clone..Clone$GT$5clone17h69ac9a6422a0329dE"(ptr sret(%"unix::linux_like::linux::gnu::b64::x86_64::user_fpregs_struct") align 8 %_0, ptr align 8 %self) unnamed_addr #0 !dbg !3885 {
start:
  %self.dbg.spill = alloca ptr, align 8
  store ptr %self, ptr %self.dbg.spill, align 8
  call void @llvm.dbg.declare(metadata ptr %self.dbg.spill, metadata !3891, metadata !DIExpression()), !dbg !3892
  call void @llvm.memcpy.p0.p0.i64(ptr align 8 %_0, ptr align 8 %self, i64 512, i1 false), !dbg !3893
  ret void, !dbg !3894
}

; <libc::unix::linux_like::linux::gnu::b64::x86_64::ucontext_t as core::clone::Clone>::clone
; Function Attrs: nonlazybind uwtable
define void @"_ZN98_$LT$libc..unix..linux_like..linux..gnu..b64..x86_64..ucontext_t$u20$as$u20$core..clone..Clone$GT$5clone17h8ac0b437f551ad83E"(ptr sret(%"unix::linux_like::linux::gnu::b64::x86_64::ucontext_t") align 8 %_0, ptr align 8 %self) unnamed_addr #0 !dbg !3895 {
start:
  %self.dbg.spill = alloca ptr, align 8
  store ptr %self, ptr %self.dbg.spill, align 8
  call void @llvm.dbg.declare(metadata ptr %self.dbg.spill, metadata !3913, metadata !DIExpression()), !dbg !3914
  call void @llvm.memcpy.p0.p0.i64(ptr align 8 %_0, ptr align 8 %self, i64 936, i1 false), !dbg !3915
  ret void, !dbg !3916
}

; <libc::unix::linux_like::linux::gnu::b64::x86_64::not_x32::statvfs as core::clone::Clone>::clone
; Function Attrs: nonlazybind uwtable
define void @"_ZN104_$LT$libc..unix..linux_like..linux..gnu..b64..x86_64..not_x32..statvfs$u20$as$u20$core..clone..Clone$GT$5clone17h0ae0dfafc0d81d34E"(ptr sret(%"unix::linux_like::linux::gnu::b64::x86_64::not_x32::statvfs") align 8 %_0, ptr align 8 %self) unnamed_addr #0 !dbg !3917 {
start:
  %self.dbg.spill = alloca ptr, align 8
  store ptr %self, ptr %self.dbg.spill, align 8
  call void @llvm.dbg.declare(metadata ptr %self.dbg.spill, metadata !3938, metadata !DIExpression()), !dbg !3939
  call void @llvm.memcpy.p0.p0.i64(ptr align 8 %_0, ptr align 8 %self, i64 112, i1 false), !dbg !3940
  ret void, !dbg !3941
}

; <libc::unix::linux_like::linux::gnu::b64::x86_64::align::max_align_t as core::clone::Clone>::clone
; Function Attrs: nonlazybind uwtable
define void @"_ZN106_$LT$libc..unix..linux_like..linux..gnu..b64..x86_64..align..max_align_t$u20$as$u20$core..clone..Clone$GT$5clone17h9a15b016a8c226b9E"(ptr sret(%"unix::linux_like::linux::gnu::b64::x86_64::align::max_align_t") align 16 %_0, ptr align 16 %self) unnamed_addr #0 !dbg !3942 {
start:
  %self.dbg.spill = alloca ptr, align 8
  store ptr %self, ptr %self.dbg.spill, align 8
  call void @llvm.dbg.declare(metadata ptr %self.dbg.spill, metadata !3954, metadata !DIExpression()), !dbg !3955
  call void @llvm.memcpy.p0.p0.i64(ptr align 16 %_0, ptr align 16 %self, i64 32, i1 false), !dbg !3956
  ret void, !dbg !3957
}

; <libc::unix::linux_like::linux::gnu::b64::x86_64::align::clone_args as core::clone::Clone>::clone
; Function Attrs: nonlazybind uwtable
define void @"_ZN105_$LT$libc..unix..linux_like..linux..gnu..b64..x86_64..align..clone_args$u20$as$u20$core..clone..Clone$GT$5clone17haf66fc14db743187E"(ptr sret(%"unix::linux_like::linux::gnu::b64::x86_64::align::clone_args") align 8 %_0, ptr align 8 %self) unnamed_addr #0 !dbg !3958 {
start:
  %self.dbg.spill = alloca ptr, align 8
  store ptr %self, ptr %self.dbg.spill, align 8
  call void @llvm.dbg.declare(metadata ptr %self.dbg.spill, metadata !3977, metadata !DIExpression()), !dbg !3978
  call void @llvm.memcpy.p0.p0.i64(ptr align 8 %_0, ptr align 8 %self, i64 88, i1 false), !dbg !3979
  ret void, !dbg !3980
}

; <libc::unix::linux_like::linux::gnu::align::sem_t as core::clone::Clone>::clone
; Function Attrs: nonlazybind uwtable
define void @"_ZN87_$LT$libc..unix..linux_like..linux..gnu..align..sem_t$u20$as$u20$core..clone..Clone$GT$5clone17h7d2ad92aa440648aE"(ptr sret(%"unix::linux_like::linux::gnu::align::sem_t") align 8 %_0, ptr align 8 %self) unnamed_addr #0 !dbg !3981 {
start:
  %self.dbg.spill = alloca ptr, align 8
  store ptr %self, ptr %self.dbg.spill, align 8
  call void @llvm.dbg.declare(metadata ptr %self.dbg.spill, metadata !3991, metadata !DIExpression()), !dbg !3992
  call void @llvm.memcpy.p0.p0.i64(ptr align 8 %_0, ptr align 8 %self, i64 32, i1 false), !dbg !3993
  ret void, !dbg !3994
}

; <libc::unix::linux_like::linux::arch::generic::termios2 as core::clone::Clone>::clone
; Function Attrs: nonlazybind uwtable
define void @"_ZN93_$LT$libc..unix..linux_like..linux..arch..generic..termios2$u20$as$u20$core..clone..Clone$GT$5clone17h4fb11b66d4aabda4E"(ptr sret(%"unix::linux_like::linux::arch::generic::termios2") align 4 %_0, ptr align 4 %self) unnamed_addr #0 !dbg !3995 {
start:
  %self.dbg.spill = alloca ptr, align 8
  store ptr %self, ptr %self.dbg.spill, align 8
  call void @llvm.dbg.declare(metadata ptr %self.dbg.spill, metadata !4016, metadata !DIExpression()), !dbg !4017
  call void @llvm.memcpy.p0.p0.i64(ptr align 4 %_0, ptr align 4 %self, i64 44, i1 false), !dbg !4018
  ret void, !dbg !4019
}

; <libc::unix::linux_like::linux::pthread_mutexattr_t as core::clone::Clone>::clone
; Function Attrs: nonlazybind uwtable
define i32 @"_ZN89_$LT$libc..unix..linux_like..linux..pthread_mutexattr_t$u20$as$u20$core..clone..Clone$GT$5clone17hf71c30e64a5b3052E"(ptr align 4 %self) unnamed_addr #0 !dbg !4020 {
start:
  %self.dbg.spill = alloca ptr, align 8
  %_0 = alloca %"unix::linux_like::linux::pthread_mutexattr_t", align 4
  store ptr %self, ptr %self.dbg.spill, align 8
  call void @llvm.dbg.declare(metadata ptr %self.dbg.spill, metadata !4029, metadata !DIExpression()), !dbg !4030
  call void @llvm.memcpy.p0.p0.i64(ptr align 4 %_0, ptr align 4 %self, i64 4, i1 false), !dbg !4031
  %0 = load i32, ptr %_0, align 4, !dbg !4032
  ret i32 %0, !dbg !4032
}

; <libc::unix::linux_like::linux::pthread_rwlockattr_t as core::clone::Clone>::clone
; Function Attrs: nonlazybind uwtable
define i64 @"_ZN90_$LT$libc..unix..linux_like..linux..pthread_rwlockattr_t$u20$as$u20$core..clone..Clone$GT$5clone17ha37b130599e6afd2E"(ptr align 8 %self) unnamed_addr #0 !dbg !4033 {
start:
  %self.dbg.spill = alloca ptr, align 8
  %_0 = alloca %"unix::linux_like::linux::pthread_rwlockattr_t", align 8
  store ptr %self, ptr %self.dbg.spill, align 8
  call void @llvm.dbg.declare(metadata ptr %self.dbg.spill, metadata !4042, metadata !DIExpression()), !dbg !4043
  call void @llvm.memcpy.p0.p0.i64(ptr align 8 %_0, ptr align 8 %self, i64 8, i1 false), !dbg !4044
  %0 = load i64, ptr %_0, align 8, !dbg !4045
  ret i64 %0, !dbg !4045
}

; <libc::unix::linux_like::linux::pthread_condattr_t as core::clone::Clone>::clone
; Function Attrs: nonlazybind uwtable
define i32 @"_ZN88_$LT$libc..unix..linux_like..linux..pthread_condattr_t$u20$as$u20$core..clone..Clone$GT$5clone17ha59d213ef02b73fbE"(ptr align 4 %self) unnamed_addr #0 !dbg !4046 {
start:
  %self.dbg.spill = alloca ptr, align 8
  %_0 = alloca %"unix::linux_like::linux::pthread_condattr_t", align 4
  store ptr %self, ptr %self.dbg.spill, align 8
  call void @llvm.dbg.declare(metadata ptr %self.dbg.spill, metadata !4055, metadata !DIExpression()), !dbg !4056
  call void @llvm.memcpy.p0.p0.i64(ptr align 4 %_0, ptr align 4 %self, i64 4, i1 false), !dbg !4057
  %0 = load i32, ptr %_0, align 4, !dbg !4058
  ret i32 %0, !dbg !4058
}

; <libc::unix::linux_like::linux::pthread_barrierattr_t as core::clone::Clone>::clone
; Function Attrs: nonlazybind uwtable
define i32 @"_ZN91_$LT$libc..unix..linux_like..linux..pthread_barrierattr_t$u20$as$u20$core..clone..Clone$GT$5clone17hc190bee7133bd77aE"(ptr align 4 %self) unnamed_addr #0 !dbg !4059 {
start:
  %self.dbg.spill = alloca ptr, align 8
  %_0 = alloca %"unix::linux_like::linux::pthread_barrierattr_t", align 4
  store ptr %self, ptr %self.dbg.spill, align 8
  call void @llvm.dbg.declare(metadata ptr %self.dbg.spill, metadata !4068, metadata !DIExpression()), !dbg !4069
  call void @llvm.memcpy.p0.p0.i64(ptr align 4 %_0, ptr align 4 %self, i64 4, i1 false), !dbg !4070
  %0 = load i32, ptr %_0, align 4, !dbg !4071
  ret i32 %0, !dbg !4071
}

; <libc::unix::linux_like::linux::fanotify_event_metadata as core::clone::Clone>::clone
; Function Attrs: nonlazybind uwtable
define void @"_ZN93_$LT$libc..unix..linux_like..linux..fanotify_event_metadata$u20$as$u20$core..clone..Clone$GT$5clone17hd3e61fd8ff12c12bE"(ptr sret(%"unix::linux_like::linux::fanotify_event_metadata") align 8 %_0, ptr align 8 %self) unnamed_addr #0 !dbg !4072 {
start:
  %self.dbg.spill = alloca ptr, align 8
  store ptr %self, ptr %self.dbg.spill, align 8
  call void @llvm.dbg.declare(metadata ptr %self.dbg.spill, metadata !4087, metadata !DIExpression()), !dbg !4088
  call void @llvm.memcpy.p0.p0.i64(ptr align 8 %_0, ptr align 8 %self, i64 24, i1 false), !dbg !4089
  ret void, !dbg !4090
}

; <libc::unix::linux_like::linux::pthread_cond_t as core::clone::Clone>::clone
; Function Attrs: nonlazybind uwtable
define void @"_ZN84_$LT$libc..unix..linux_like..linux..pthread_cond_t$u20$as$u20$core..clone..Clone$GT$5clone17h6031d50d117b300bE"(ptr sret(%"unix::linux_like::linux::pthread_cond_t") align 8 %_0, ptr align 8 %self) unnamed_addr #0 !dbg !4091 {
start:
  %self.dbg.spill = alloca ptr, align 8
  store ptr %self, ptr %self.dbg.spill, align 8
  call void @llvm.dbg.declare(metadata ptr %self.dbg.spill, metadata !4103, metadata !DIExpression()), !dbg !4104
  call void @llvm.memcpy.p0.p0.i64(ptr align 8 %_0, ptr align 8 %self, i64 48, i1 false), !dbg !4105
  ret void, !dbg !4106
}

; <libc::unix::linux_like::linux::pthread_mutex_t as core::clone::Clone>::clone
; Function Attrs: nonlazybind uwtable
define void @"_ZN85_$LT$libc..unix..linux_like..linux..pthread_mutex_t$u20$as$u20$core..clone..Clone$GT$5clone17h71d8b5e951b13ae7E"(ptr sret(%"unix::linux_like::linux::pthread_mutex_t") align 8 %_0, ptr align 8 %self) unnamed_addr #0 !dbg !4107 {
start:
  %self.dbg.spill = alloca ptr, align 8
  store ptr %self, ptr %self.dbg.spill, align 8
  call void @llvm.dbg.declare(metadata ptr %self.dbg.spill, metadata !4119, metadata !DIExpression()), !dbg !4120
  call void @llvm.memcpy.p0.p0.i64(ptr align 8 %_0, ptr align 8 %self, i64 40, i1 false), !dbg !4121
  ret void, !dbg !4122
}

; <libc::unix::linux_like::linux::pthread_rwlock_t as core::clone::Clone>::clone
; Function Attrs: nonlazybind uwtable
define void @"_ZN86_$LT$libc..unix..linux_like..linux..pthread_rwlock_t$u20$as$u20$core..clone..Clone$GT$5clone17h1efb01f67934d265E"(ptr sret(%"unix::linux_like::linux::pthread_rwlock_t") align 8 %_0, ptr align 8 %self) unnamed_addr #0 !dbg !4123 {
start:
  %self.dbg.spill = alloca ptr, align 8
  store ptr %self, ptr %self.dbg.spill, align 8
  call void @llvm.dbg.declare(metadata ptr %self.dbg.spill, metadata !4135, metadata !DIExpression()), !dbg !4136
  call void @llvm.memcpy.p0.p0.i64(ptr align 8 %_0, ptr align 8 %self, i64 56, i1 false), !dbg !4137
  ret void, !dbg !4138
}

; <libc::unix::linux_like::linux::pthread_barrier_t as core::clone::Clone>::clone
; Function Attrs: nonlazybind uwtable
define void @"_ZN87_$LT$libc..unix..linux_like..linux..pthread_barrier_t$u20$as$u20$core..clone..Clone$GT$5clone17he516b890405813f4E"(ptr sret(%"unix::linux_like::linux::pthread_barrier_t") align 8 %_0, ptr align 8 %self) unnamed_addr #0 !dbg !4139 {
start:
  %self.dbg.spill = alloca ptr, align 8
  store ptr %self, ptr %self.dbg.spill, align 8
  call void @llvm.dbg.declare(metadata ptr %self.dbg.spill, metadata !4148, metadata !DIExpression()), !dbg !4149
  call void @llvm.memcpy.p0.p0.i64(ptr align 8 %_0, ptr align 8 %self, i64 32, i1 false), !dbg !4150
  ret void, !dbg !4151
}

; <libc::unix::linux_like::linux::can_frame as core::clone::Clone>::clone
; Function Attrs: nonlazybind uwtable
define void @"_ZN79_$LT$libc..unix..linux_like..linux..can_frame$u20$as$u20$core..clone..Clone$GT$5clone17h90f4671d3979c32cE"(ptr sret(%"unix::linux_like::linux::can_frame") align 8 %_0, ptr align 8 %self) unnamed_addr #0 !dbg !4152 {
start:
  %self.dbg.spill = alloca ptr, align 8
  store ptr %self, ptr %self.dbg.spill, align 8
  call void @llvm.dbg.declare(metadata ptr %self.dbg.spill, metadata !4166, metadata !DIExpression()), !dbg !4167
  call void @llvm.memcpy.p0.p0.i64(ptr align 8 %_0, ptr align 8 %self, i64 16, i1 false), !dbg !4168
  ret void, !dbg !4169
}

; <libc::unix::linux_like::linux::canfd_frame as core::clone::Clone>::clone
; Function Attrs: nonlazybind uwtable
define void @"_ZN81_$LT$libc..unix..linux_like..linux..canfd_frame$u20$as$u20$core..clone..Clone$GT$5clone17h1b31ca10cf7c0791E"(ptr sret(%"unix::linux_like::linux::canfd_frame") align 8 %_0, ptr align 8 %self) unnamed_addr #0 !dbg !4170 {
start:
  %self.dbg.spill = alloca ptr, align 8
  store ptr %self, ptr %self.dbg.spill, align 8
  call void @llvm.dbg.declare(metadata ptr %self.dbg.spill, metadata !4184, metadata !DIExpression()), !dbg !4185
  call void @llvm.memcpy.p0.p0.i64(ptr align 8 %_0, ptr align 8 %self, i64 72, i1 false), !dbg !4186
  ret void, !dbg !4187
}

; <libc::unix::linux_like::linux::canxl_frame as core::clone::Clone>::clone
; Function Attrs: nonlazybind uwtable
define void @"_ZN81_$LT$libc..unix..linux_like..linux..canxl_frame$u20$as$u20$core..clone..Clone$GT$5clone17h218ad985e4a7c50dE"(ptr sret(%"unix::linux_like::linux::canxl_frame") align 8 %_0, ptr align 8 %self) unnamed_addr #0 !dbg !4188 {
start:
  %self.dbg.spill = alloca ptr, align 8
  store ptr %self, ptr %self.dbg.spill, align 8
  call void @llvm.dbg.declare(metadata ptr %self.dbg.spill, metadata !4205, metadata !DIExpression()), !dbg !4206
  call void @llvm.memcpy.p0.p0.i64(ptr align 8 %_0, ptr align 8 %self, i64 2064, i1 false), !dbg !4207
  ret void, !dbg !4208
}

; <libc::unix::linux_like::linux::non_exhaustive::open_how as core::clone::Clone>::clone
; Function Attrs: nonlazybind uwtable
define void @"_ZN94_$LT$libc..unix..linux_like..linux..non_exhaustive..open_how$u20$as$u20$core..clone..Clone$GT$5clone17h88825550f6226091E"(ptr sret(%"unix::linux_like::linux::non_exhaustive::open_how") align 8 %_0, ptr align 8 %self) unnamed_addr #0 !dbg !4209 {
start:
  %self.dbg.spill = alloca ptr, align 8
  store ptr %self, ptr %self.dbg.spill, align 8
  call void @llvm.dbg.declare(metadata ptr %self.dbg.spill, metadata !4221, metadata !DIExpression()), !dbg !4222
  call void @llvm.memcpy.p0.p0.i64(ptr align 8 %_0, ptr align 8 %self, i64 24, i1 false), !dbg !4223
  ret void, !dbg !4224
}

; <libc::unix::align::in6_addr as core::clone::Clone>::clone
; Function Attrs: nonlazybind uwtable
define void @"_ZN66_$LT$libc..unix..align..in6_addr$u20$as$u20$core..clone..Clone$GT$5clone17h9cce3c3b7fa25c9cE"(ptr sret(%"unix::align::in6_addr") align 4 %_0, ptr align 4 %self) unnamed_addr #0 !dbg !4225 {
start:
  %self.dbg.spill = alloca ptr, align 8
  store ptr %self, ptr %self.dbg.spill, align 8
  call void @llvm.dbg.declare(metadata ptr %self.dbg.spill, metadata !4231, metadata !DIExpression()), !dbg !4232
  call void @llvm.memcpy.p0.p0.i64(ptr align 4 %_0, ptr align 4 %self, i64 16, i1 false), !dbg !4233
  ret void, !dbg !4234
}

; Function Attrs: nocallback nofree nosync nounwind speculatable willreturn memory(none)
declare void @llvm.dbg.declare(metadata, metadata, metadata) #1

; Function Attrs: nocallback nofree nounwind willreturn memory(argmem: readwrite)
declare void @llvm.memcpy.p0.p0.i64(ptr noalias nocapture writeonly, ptr noalias nocapture readonly, i64, i1 immarg) #2

attributes #0 = { nonlazybind uwtable "probe-stack"="inline-asm" "target-cpu"="x86-64" }
attributes #1 = { nocallback nofree nosync nounwind speculatable willreturn memory(none) }
attributes #2 = { nocallback nofree nounwind willreturn memory(argmem: readwrite) }

!llvm.module.flags = !{!0, !1, !2, !3}
!llvm.ident = !{!4}
!llvm.dbg.cu = !{!5}

!0 = !{i32 8, !"PIC Level", i32 2}
!1 = !{i32 2, !"RtLibUseGOT", i32 1}
!2 = !{i32 2, !"Dwarf Version", i32 4}
!3 = !{i32 2, !"Debug Info Version", i32 3}
!4 = !{!"rustc version 1.77.0 (aedd173a2 2024-03-17)"}
!5 = distinct !DICompileUnit(language: DW_LANG_Rust, file: !6, producer: "clang LLVM (rustc version 1.77.0 (aedd173a2 2024-03-17))", isOptimized: false, runtimeVersion: 0, emissionKind: FullDebug, enums: !7, splitDebugInlining: false, nameTableKind: None)
!6 = !DIFile(filename: "/users/zyuxuan/.cargo/registry/src/index.crates.io-6f17d22bba15001f/libc-0.2.153/src/lib.rs/@/libc.7a53854ec7447607-cgu.0", directory: "/users/zyuxuan/.cargo/registry/src/index.crates.io-6f17d22bba15001f/libc-0.2.153")
!7 = !{!8}
!8 = !DICompositeType(tag: DW_TAG_enumeration_type, name: "c_void", scope: !10, file: !9, baseType: !12, size: 8, align: 8, flags: DIFlagEnumClass, elements: !13)
!9 = !DIFile(filename: "<unknown>", directory: "")
!10 = !DINamespace(name: "ffi", scope: !11)
!11 = !DINamespace(name: "core", scope: null)
!12 = !DIBasicType(name: "u8", size: 8, encoding: DW_ATE_unsigned)
!13 = !{!14, !15}
!14 = !DIEnumerator(name: "__variant1", value: 0, isUnsigned: true)
!15 = !DIEnumerator(name: "__variant2", value: 1, isUnsigned: true)
!16 = distinct !DISubprogram(name: "clone", linkageName: "_ZN56_$LT$libc..unix..group$u20$as$u20$core..clone..Clone$GT$5clone17h244c1cb8665fe950E", scope: !18, file: !17, line: 83, type: !21, scopeLine: 83, flags: DIFlagPrototyped, spFlags: DISPFlagDefinition, unit: !5, templateParams: !33, retainedNodes: !35)
!17 = !DIFile(filename: "src/macros.rs", directory: "/users/zyuxuan/.cargo/registry/src/index.crates.io-6f17d22bba15001f/libc-0.2.153", checksumkind: CSK_MD5, checksum: "796806da1a42f7ae26415c7276ee62b1")
!18 = !DINamespace(name: "{impl#1}", scope: !19)
!19 = !DINamespace(name: "unix", scope: !20)
!20 = !DINamespace(name: "libc", scope: null)
!21 = !DISubroutineType(types: !22)
!22 = !{!23, !34}
!23 = !DICompositeType(tag: DW_TAG_structure_type, name: "group", scope: !19, file: !9, size: 256, align: 64, flags: DIFlagPublic, elements: !24, templateParams: !33, identifier: "ec983a55f29fbd0ebcacff16fa3e5f27")
!24 = !{!25, !28, !29, !31}
!25 = !DIDerivedType(tag: DW_TAG_member, name: "gr_name", scope: !23, file: !9, baseType: !26, size: 64, align: 64, flags: DIFlagPublic)
!26 = !DIDerivedType(tag: DW_TAG_pointer_type, name: "*mut i8", baseType: !27, size: 64, align: 64, dwarfAddressSpace: 0)
!27 = !DIBasicType(name: "i8", size: 8, encoding: DW_ATE_signed)
!28 = !DIDerivedType(tag: DW_TAG_member, name: "gr_passwd", scope: !23, file: !9, baseType: !26, size: 64, align: 64, offset: 64, flags: DIFlagPublic)
!29 = !DIDerivedType(tag: DW_TAG_member, name: "gr_gid", scope: !23, file: !9, baseType: !30, size: 32, align: 32, offset: 128, flags: DIFlagPublic)
!30 = !DIBasicType(name: "u32", size: 32, encoding: DW_ATE_unsigned)
!31 = !DIDerivedType(tag: DW_TAG_member, name: "gr_mem", scope: !23, file: !9, baseType: !32, size: 64, align: 64, offset: 192, flags: DIFlagPublic)
!32 = !DIDerivedType(tag: DW_TAG_pointer_type, name: "*mut *mut i8", baseType: !26, size: 64, align: 64, dwarfAddressSpace: 0)
!33 = !{}
!34 = !DIDerivedType(tag: DW_TAG_pointer_type, name: "&libc::unix::group", baseType: !23, size: 64, align: 64, dwarfAddressSpace: 0)
!35 = !{!36}
!36 = !DILocalVariable(name: "self", arg: 1, scope: !16, file: !17, line: 83, type: !34)
!37 = !DILocation(line: 83, column: 22, scope: !16)
!38 = !DILocation(line: 83, column: 37, scope: !16)
!39 = !DILocation(line: 83, column: 44, scope: !16)
!40 = distinct !DISubprogram(name: "clone", linkageName: "_ZN58_$LT$libc..unix..utimbuf$u20$as$u20$core..clone..Clone$GT$5clone17h68dc581f98bcc704E", scope: !41, file: !17, line: 83, type: !42, scopeLine: 83, flags: DIFlagPrototyped, spFlags: DISPFlagDefinition, unit: !5, templateParams: !33, retainedNodes: !50)
!41 = !DINamespace(name: "{impl#3}", scope: !19)
!42 = !DISubroutineType(types: !43)
!43 = !{!44, !49}
!44 = !DICompositeType(tag: DW_TAG_structure_type, name: "utimbuf", scope: !19, file: !9, size: 128, align: 64, flags: DIFlagPublic, elements: !45, templateParams: !33, identifier: "f21325609d257e6fa2ed5ae9f4e5d5b8")
!45 = !{!46, !48}
!46 = !DIDerivedType(tag: DW_TAG_member, name: "actime", scope: !44, file: !9, baseType: !47, size: 64, align: 64, flags: DIFlagPublic)
!47 = !DIBasicType(name: "i64", size: 64, encoding: DW_ATE_signed)
!48 = !DIDerivedType(tag: DW_TAG_member, name: "modtime", scope: !44, file: !9, baseType: !47, size: 64, align: 64, offset: 64, flags: DIFlagPublic)
!49 = !DIDerivedType(tag: DW_TAG_pointer_type, name: "&libc::unix::utimbuf", baseType: !44, size: 64, align: 64, dwarfAddressSpace: 0)
!50 = !{!51}
!51 = !DILocalVariable(name: "self", arg: 1, scope: !40, file: !17, line: 83, type: !49)
!52 = !DILocation(line: 83, column: 22, scope: !40)
!53 = !DILocation(line: 83, column: 37, scope: !40)
!54 = !DILocation(line: 83, column: 44, scope: !40)
!55 = distinct !DISubprogram(name: "clone", linkageName: "_ZN58_$LT$libc..unix..timeval$u20$as$u20$core..clone..Clone$GT$5clone17h2d70929b22373a38E", scope: !56, file: !17, line: 83, type: !57, scopeLine: 83, flags: DIFlagPrototyped, spFlags: DISPFlagDefinition, unit: !5, templateParams: !33, retainedNodes: !64)
!56 = !DINamespace(name: "{impl#5}", scope: !19)
!57 = !DISubroutineType(types: !58)
!58 = !{!59, !63}
!59 = !DICompositeType(tag: DW_TAG_structure_type, name: "timeval", scope: !19, file: !9, size: 128, align: 64, flags: DIFlagPublic, elements: !60, templateParams: !33, identifier: "7e1ea4da4dcb58b1897092dc39bc5742")
!60 = !{!61, !62}
!61 = !DIDerivedType(tag: DW_TAG_member, name: "tv_sec", scope: !59, file: !9, baseType: !47, size: 64, align: 64, flags: DIFlagPublic)
!62 = !DIDerivedType(tag: DW_TAG_member, name: "tv_usec", scope: !59, file: !9, baseType: !47, size: 64, align: 64, offset: 64, flags: DIFlagPublic)
!63 = !DIDerivedType(tag: DW_TAG_pointer_type, name: "&libc::unix::timeval", baseType: !59, size: 64, align: 64, dwarfAddressSpace: 0)
!64 = !{!65}
!65 = !DILocalVariable(name: "self", arg: 1, scope: !55, file: !17, line: 83, type: !63)
!66 = !DILocation(line: 83, column: 22, scope: !55)
!67 = !DILocation(line: 83, column: 37, scope: !55)
!68 = !DILocation(line: 83, column: 44, scope: !55)
!69 = distinct !DISubprogram(name: "clone", linkageName: "_ZN59_$LT$libc..unix..timespec$u20$as$u20$core..clone..Clone$GT$5clone17h1d559fcb683e27aaE", scope: !70, file: !17, line: 83, type: !71, scopeLine: 83, flags: DIFlagPrototyped, spFlags: DISPFlagDefinition, unit: !5, templateParams: !33, retainedNodes: !78)
!70 = !DINamespace(name: "{impl#7}", scope: !19)
!71 = !DISubroutineType(types: !72)
!72 = !{!73, !77}
!73 = !DICompositeType(tag: DW_TAG_structure_type, name: "timespec", scope: !19, file: !9, size: 128, align: 64, flags: DIFlagPublic, elements: !74, templateParams: !33, identifier: "d8f4cfb2a29e6f3fdb87c6b687b53e5b")
!74 = !{!75, !76}
!75 = !DIDerivedType(tag: DW_TAG_member, name: "tv_sec", scope: !73, file: !9, baseType: !47, size: 64, align: 64, flags: DIFlagPublic)
!76 = !DIDerivedType(tag: DW_TAG_member, name: "tv_nsec", scope: !73, file: !9, baseType: !47, size: 64, align: 64, offset: 64, flags: DIFlagPublic)
!77 = !DIDerivedType(tag: DW_TAG_pointer_type, name: "&libc::unix::timespec", baseType: !73, size: 64, align: 64, dwarfAddressSpace: 0)
!78 = !{!79}
!79 = !DILocalVariable(name: "self", arg: 1, scope: !69, file: !17, line: 83, type: !77)
!80 = !DILocation(line: 83, column: 22, scope: !69)
!81 = !DILocation(line: 83, column: 37, scope: !69)
!82 = !DILocation(line: 83, column: 44, scope: !69)
!83 = distinct !DISubprogram(name: "clone", linkageName: "_ZN57_$LT$libc..unix..rlimit$u20$as$u20$core..clone..Clone$GT$5clone17hb6d1c8233824c8fbE", scope: !84, file: !17, line: 83, type: !85, scopeLine: 83, flags: DIFlagPrototyped, spFlags: DISPFlagDefinition, unit: !5, templateParams: !33, retainedNodes: !93)
!84 = !DINamespace(name: "{impl#9}", scope: !19)
!85 = !DISubroutineType(types: !86)
!86 = !{!87, !92}
!87 = !DICompositeType(tag: DW_TAG_structure_type, name: "rlimit", scope: !19, file: !9, size: 128, align: 64, flags: DIFlagPublic, elements: !88, templateParams: !33, identifier: "e13fe41f4bf29c0fc721ada122029eda")
!88 = !{!89, !91}
!89 = !DIDerivedType(tag: DW_TAG_member, name: "rlim_cur", scope: !87, file: !9, baseType: !90, size: 64, align: 64, flags: DIFlagPublic)
!90 = !DIBasicType(name: "u64", size: 64, encoding: DW_ATE_unsigned)
!91 = !DIDerivedType(tag: DW_TAG_member, name: "rlim_max", scope: !87, file: !9, baseType: !90, size: 64, align: 64, offset: 64, flags: DIFlagPublic)
!92 = !DIDerivedType(tag: DW_TAG_pointer_type, name: "&libc::unix::rlimit", baseType: !87, size: 64, align: 64, dwarfAddressSpace: 0)
!93 = !{!94}
!94 = !DILocalVariable(name: "self", arg: 1, scope: !83, file: !17, line: 83, type: !92)
!95 = !DILocation(line: 83, column: 22, scope: !83)
!96 = !DILocation(line: 83, column: 37, scope: !83)
!97 = !DILocation(line: 83, column: 44, scope: !83)
!98 = distinct !DISubprogram(name: "clone", linkageName: "_ZN57_$LT$libc..unix..rusage$u20$as$u20$core..clone..Clone$GT$5clone17h6840675990037ea1E", scope: !99, file: !17, line: 83, type: !100, scopeLine: 83, flags: DIFlagPrototyped, spFlags: DISPFlagDefinition, unit: !5, templateParams: !33, retainedNodes: !121)
!99 = !DINamespace(name: "{impl#11}", scope: !19)
!100 = !DISubroutineType(types: !101)
!101 = !{!102, !120}
!102 = !DICompositeType(tag: DW_TAG_structure_type, name: "rusage", scope: !19, file: !9, size: 1152, align: 64, flags: DIFlagPublic, elements: !103, templateParams: !33, identifier: "e4855fc15c6074084d54d7240d87d0de")
!103 = !{!104, !105, !106, !107, !108, !109, !110, !111, !112, !113, !114, !115, !116, !117, !118, !119}
!104 = !DIDerivedType(tag: DW_TAG_member, name: "ru_utime", scope: !102, file: !9, baseType: !59, size: 128, align: 64, flags: DIFlagPublic)
!105 = !DIDerivedType(tag: DW_TAG_member, name: "ru_stime", scope: !102, file: !9, baseType: !59, size: 128, align: 64, offset: 128, flags: DIFlagPublic)
!106 = !DIDerivedType(tag: DW_TAG_member, name: "ru_maxrss", scope: !102, file: !9, baseType: !47, size: 64, align: 64, offset: 256, flags: DIFlagPublic)
!107 = !DIDerivedType(tag: DW_TAG_member, name: "ru_ixrss", scope: !102, file: !9, baseType: !47, size: 64, align: 64, offset: 320, flags: DIFlagPublic)
!108 = !DIDerivedType(tag: DW_TAG_member, name: "ru_idrss", scope: !102, file: !9, baseType: !47, size: 64, align: 64, offset: 384, flags: DIFlagPublic)
!109 = !DIDerivedType(tag: DW_TAG_member, name: "ru_isrss", scope: !102, file: !9, baseType: !47, size: 64, align: 64, offset: 448, flags: DIFlagPublic)
!110 = !DIDerivedType(tag: DW_TAG_member, name: "ru_minflt", scope: !102, file: !9, baseType: !47, size: 64, align: 64, offset: 512, flags: DIFlagPublic)
!111 = !DIDerivedType(tag: DW_TAG_member, name: "ru_majflt", scope: !102, file: !9, baseType: !47, size: 64, align: 64, offset: 576, flags: DIFlagPublic)
!112 = !DIDerivedType(tag: DW_TAG_member, name: "ru_nswap", scope: !102, file: !9, baseType: !47, size: 64, align: 64, offset: 640, flags: DIFlagPublic)
!113 = !DIDerivedType(tag: DW_TAG_member, name: "ru_inblock", scope: !102, file: !9, baseType: !47, size: 64, align: 64, offset: 704, flags: DIFlagPublic)
!114 = !DIDerivedType(tag: DW_TAG_member, name: "ru_oublock", scope: !102, file: !9, baseType: !47, size: 64, align: 64, offset: 768, flags: DIFlagPublic)
!115 = !DIDerivedType(tag: DW_TAG_member, name: "ru_msgsnd", scope: !102, file: !9, baseType: !47, size: 64, align: 64, offset: 832, flags: DIFlagPublic)
!116 = !DIDerivedType(tag: DW_TAG_member, name: "ru_msgrcv", scope: !102, file: !9, baseType: !47, size: 64, align: 64, offset: 896, flags: DIFlagPublic)
!117 = !DIDerivedType(tag: DW_TAG_member, name: "ru_nsignals", scope: !102, file: !9, baseType: !47, size: 64, align: 64, offset: 960, flags: DIFlagPublic)
!118 = !DIDerivedType(tag: DW_TAG_member, name: "ru_nvcsw", scope: !102, file: !9, baseType: !47, size: 64, align: 64, offset: 1024, flags: DIFlagPublic)
!119 = !DIDerivedType(tag: DW_TAG_member, name: "ru_nivcsw", scope: !102, file: !9, baseType: !47, size: 64, align: 64, offset: 1088, flags: DIFlagPublic)
!120 = !DIDerivedType(tag: DW_TAG_pointer_type, name: "&libc::unix::rusage", baseType: !102, size: 64, align: 64, dwarfAddressSpace: 0)
!121 = !{!122}
!122 = !DILocalVariable(name: "self", arg: 1, scope: !98, file: !17, line: 83, type: !120)
!123 = !DILocation(line: 83, column: 22, scope: !98)
!124 = !DILocation(line: 83, column: 37, scope: !98)
!125 = !DILocation(line: 83, column: 44, scope: !98)
!126 = distinct !DISubprogram(name: "clone", linkageName: "_ZN60_$LT$libc..unix..ipv6_mreq$u20$as$u20$core..clone..Clone$GT$5clone17hae8c47b1ff2debeeE", scope: !127, file: !17, line: 83, type: !128, scopeLine: 83, flags: DIFlagPrototyped, spFlags: DISPFlagDefinition, unit: !5, templateParams: !33, retainedNodes: !142)
!127 = !DINamespace(name: "{impl#13}", scope: !19)
!128 = !DISubroutineType(types: !129)
!129 = !{!130, !141}
!130 = !DICompositeType(tag: DW_TAG_structure_type, name: "ipv6_mreq", scope: !19, file: !9, size: 160, align: 32, flags: DIFlagPublic, elements: !131, templateParams: !33, identifier: "42d1ecf976efb086f0cbcf186d44320c")
!131 = !{!132, !140}
!132 = !DIDerivedType(tag: DW_TAG_member, name: "ipv6mr_multiaddr", scope: !130, file: !9, baseType: !133, size: 128, align: 32, flags: DIFlagPublic)
!133 = !DICompositeType(tag: DW_TAG_structure_type, name: "in6_addr", scope: !134, file: !9, size: 128, align: 32, flags: DIFlagPublic, elements: !135, templateParams: !33, identifier: "b2cc6f36ad68d4788cd1dfa601846657")
!134 = !DINamespace(name: "align", scope: !19)
!135 = !{!136}
!136 = !DIDerivedType(tag: DW_TAG_member, name: "s6_addr", scope: !133, file: !9, baseType: !137, size: 128, align: 8, flags: DIFlagPublic)
!137 = !DICompositeType(tag: DW_TAG_array_type, baseType: !12, size: 128, align: 8, elements: !138)
!138 = !{!139}
!139 = !DISubrange(count: 16, lowerBound: 0)
!140 = !DIDerivedType(tag: DW_TAG_member, name: "ipv6mr_interface", scope: !130, file: !9, baseType: !30, size: 32, align: 32, offset: 128, flags: DIFlagPublic)
!141 = !DIDerivedType(tag: DW_TAG_pointer_type, name: "&libc::unix::ipv6_mreq", baseType: !130, size: 64, align: 64, dwarfAddressSpace: 0)
!142 = !{!143}
!143 = !DILocalVariable(name: "self", arg: 1, scope: !126, file: !17, line: 83, type: !141)
!144 = !DILocation(line: 83, column: 22, scope: !126)
!145 = !DILocation(line: 83, column: 37, scope: !126)
!146 = !DILocation(line: 83, column: 44, scope: !126)
!147 = distinct !DISubprogram(name: "clone", linkageName: "_ZN58_$LT$libc..unix..hostent$u20$as$u20$core..clone..Clone$GT$5clone17h660bbb8b5ddda4faE", scope: !148, file: !17, line: 83, type: !149, scopeLine: 83, flags: DIFlagPrototyped, spFlags: DISPFlagDefinition, unit: !5, templateParams: !33, retainedNodes: !160)
!148 = !DINamespace(name: "{impl#15}", scope: !19)
!149 = !DISubroutineType(types: !150)
!150 = !{!151, !159}
!151 = !DICompositeType(tag: DW_TAG_structure_type, name: "hostent", scope: !19, file: !9, size: 256, align: 64, flags: DIFlagPublic, elements: !152, templateParams: !33, identifier: "6392d84ad03d20ff972030458665af31")
!152 = !{!153, !154, !155, !157, !158}
!153 = !DIDerivedType(tag: DW_TAG_member, name: "h_name", scope: !151, file: !9, baseType: !26, size: 64, align: 64, flags: DIFlagPublic)
!154 = !DIDerivedType(tag: DW_TAG_member, name: "h_aliases", scope: !151, file: !9, baseType: !32, size: 64, align: 64, offset: 64, flags: DIFlagPublic)
!155 = !DIDerivedType(tag: DW_TAG_member, name: "h_addrtype", scope: !151, file: !9, baseType: !156, size: 32, align: 32, offset: 128, flags: DIFlagPublic)
!156 = !DIBasicType(name: "i32", size: 32, encoding: DW_ATE_signed)
!157 = !DIDerivedType(tag: DW_TAG_member, name: "h_length", scope: !151, file: !9, baseType: !156, size: 32, align: 32, offset: 160, flags: DIFlagPublic)
!158 = !DIDerivedType(tag: DW_TAG_member, name: "h_addr_list", scope: !151, file: !9, baseType: !32, size: 64, align: 64, offset: 192, flags: DIFlagPublic)
!159 = !DIDerivedType(tag: DW_TAG_pointer_type, name: "&libc::unix::hostent", baseType: !151, size: 64, align: 64, dwarfAddressSpace: 0)
!160 = !{!161}
!161 = !DILocalVariable(name: "self", arg: 1, scope: !147, file: !17, line: 83, type: !159)
!162 = !DILocation(line: 83, column: 22, scope: !147)
!163 = !DILocation(line: 83, column: 37, scope: !147)
!164 = !DILocation(line: 83, column: 44, scope: !147)
!165 = distinct !DISubprogram(name: "clone", linkageName: "_ZN56_$LT$libc..unix..iovec$u20$as$u20$core..clone..Clone$GT$5clone17h89220a5f7458e816E", scope: !166, file: !17, line: 83, type: !167, scopeLine: 83, flags: DIFlagPrototyped, spFlags: DISPFlagDefinition, unit: !5, templateParams: !33, retainedNodes: !176)
!166 = !DINamespace(name: "{impl#17}", scope: !19)
!167 = !DISubroutineType(types: !168)
!168 = !{!169, !175}
!169 = !DICompositeType(tag: DW_TAG_structure_type, name: "iovec", scope: !19, file: !9, size: 128, align: 64, flags: DIFlagPublic, elements: !170, templateParams: !33, identifier: "f268754b86898d077288efd24d71f580")
!170 = !{!171, !173}
!171 = !DIDerivedType(tag: DW_TAG_member, name: "iov_base", scope: !169, file: !9, baseType: !172, size: 64, align: 64, flags: DIFlagPublic)
!172 = !DIDerivedType(tag: DW_TAG_pointer_type, name: "*mut core::ffi::c_void", baseType: !8, size: 64, align: 64, dwarfAddressSpace: 0)
!173 = !DIDerivedType(tag: DW_TAG_member, name: "iov_len", scope: !169, file: !9, baseType: !174, size: 64, align: 64, offset: 64, flags: DIFlagPublic)
!174 = !DIBasicType(name: "usize", size: 64, encoding: DW_ATE_unsigned)
!175 = !DIDerivedType(tag: DW_TAG_pointer_type, name: "&libc::unix::iovec", baseType: !169, size: 64, align: 64, dwarfAddressSpace: 0)
!176 = !{!177}
!177 = !DILocalVariable(name: "self", arg: 1, scope: !165, file: !17, line: 83, type: !175)
!178 = !DILocation(line: 83, column: 22, scope: !165)
!179 = !DILocation(line: 83, column: 37, scope: !165)
!180 = !DILocation(line: 83, column: 44, scope: !165)
!181 = distinct !DISubprogram(name: "clone", linkageName: "_ZN57_$LT$libc..unix..pollfd$u20$as$u20$core..clone..Clone$GT$5clone17hb9df20627461a5c6E", scope: !182, file: !17, line: 83, type: !183, scopeLine: 83, flags: DIFlagPrototyped, spFlags: DISPFlagDefinition, unit: !5, templateParams: !33, retainedNodes: !192)
!182 = !DINamespace(name: "{impl#19}", scope: !19)
!183 = !DISubroutineType(types: !184)
!184 = !{!185, !191}
!185 = !DICompositeType(tag: DW_TAG_structure_type, name: "pollfd", scope: !19, file: !9, size: 64, align: 32, flags: DIFlagPublic, elements: !186, templateParams: !33, identifier: "cb6ab7240d2ae69ad3c2422bae303128")
!186 = !{!187, !188, !190}
!187 = !DIDerivedType(tag: DW_TAG_member, name: "fd", scope: !185, file: !9, baseType: !156, size: 32, align: 32, flags: DIFlagPublic)
!188 = !DIDerivedType(tag: DW_TAG_member, name: "events", scope: !185, file: !9, baseType: !189, size: 16, align: 16, offset: 32, flags: DIFlagPublic)
!189 = !DIBasicType(name: "i16", size: 16, encoding: DW_ATE_signed)
!190 = !DIDerivedType(tag: DW_TAG_member, name: "revents", scope: !185, file: !9, baseType: !189, size: 16, align: 16, offset: 48, flags: DIFlagPublic)
!191 = !DIDerivedType(tag: DW_TAG_pointer_type, name: "&libc::unix::pollfd", baseType: !185, size: 64, align: 64, dwarfAddressSpace: 0)
!192 = !{!193}
!193 = !DILocalVariable(name: "self", arg: 1, scope: !181, file: !17, line: 83, type: !191)
!194 = !DILocation(line: 83, column: 22, scope: !181)
!195 = !DILocation(line: 83, column: 37, scope: !181)
!196 = !DILocation(line: 83, column: 44, scope: !181)
!197 = distinct !DISubprogram(name: "clone", linkageName: "_ZN58_$LT$libc..unix..winsize$u20$as$u20$core..clone..Clone$GT$5clone17h3474fee6fbdac1d3E", scope: !198, file: !17, line: 83, type: !199, scopeLine: 83, flags: DIFlagPrototyped, spFlags: DISPFlagDefinition, unit: !5, templateParams: !33, retainedNodes: !209)
!198 = !DINamespace(name: "{impl#21}", scope: !19)
!199 = !DISubroutineType(types: !200)
!200 = !{!201, !208}
!201 = !DICompositeType(tag: DW_TAG_structure_type, name: "winsize", scope: !19, file: !9, size: 64, align: 16, flags: DIFlagPublic, elements: !202, templateParams: !33, identifier: "e0afa21ae5573b7f55c891bfe981b859")
!202 = !{!203, !205, !206, !207}
!203 = !DIDerivedType(tag: DW_TAG_member, name: "ws_row", scope: !201, file: !9, baseType: !204, size: 16, align: 16, flags: DIFlagPublic)
!204 = !DIBasicType(name: "u16", size: 16, encoding: DW_ATE_unsigned)
!205 = !DIDerivedType(tag: DW_TAG_member, name: "ws_col", scope: !201, file: !9, baseType: !204, size: 16, align: 16, offset: 16, flags: DIFlagPublic)
!206 = !DIDerivedType(tag: DW_TAG_member, name: "ws_xpixel", scope: !201, file: !9, baseType: !204, size: 16, align: 16, offset: 32, flags: DIFlagPublic)
!207 = !DIDerivedType(tag: DW_TAG_member, name: "ws_ypixel", scope: !201, file: !9, baseType: !204, size: 16, align: 16, offset: 48, flags: DIFlagPublic)
!208 = !DIDerivedType(tag: DW_TAG_pointer_type, name: "&libc::unix::winsize", baseType: !201, size: 64, align: 64, dwarfAddressSpace: 0)
!209 = !{!210}
!210 = !DILocalVariable(name: "self", arg: 1, scope: !197, file: !17, line: 83, type: !208)
!211 = !DILocation(line: 83, column: 22, scope: !197)
!212 = !DILocation(line: 83, column: 37, scope: !197)
!213 = !DILocation(line: 83, column: 44, scope: !197)
!214 = distinct !DISubprogram(name: "clone", linkageName: "_ZN57_$LT$libc..unix..linger$u20$as$u20$core..clone..Clone$GT$5clone17hc6b95756537d32a7E", scope: !215, file: !17, line: 83, type: !216, scopeLine: 83, flags: DIFlagPrototyped, spFlags: DISPFlagDefinition, unit: !5, templateParams: !33, retainedNodes: !223)
!215 = !DINamespace(name: "{impl#23}", scope: !19)
!216 = !DISubroutineType(types: !217)
!217 = !{!218, !222}
!218 = !DICompositeType(tag: DW_TAG_structure_type, name: "linger", scope: !19, file: !9, size: 64, align: 32, flags: DIFlagPublic, elements: !219, templateParams: !33, identifier: "433ff38e447da308c135a0a446c7239f")
!219 = !{!220, !221}
!220 = !DIDerivedType(tag: DW_TAG_member, name: "l_onoff", scope: !218, file: !9, baseType: !156, size: 32, align: 32, flags: DIFlagPublic)
!221 = !DIDerivedType(tag: DW_TAG_member, name: "l_linger", scope: !218, file: !9, baseType: !156, size: 32, align: 32, offset: 32, flags: DIFlagPublic)
!222 = !DIDerivedType(tag: DW_TAG_pointer_type, name: "&libc::unix::linger", baseType: !218, size: 64, align: 64, dwarfAddressSpace: 0)
!223 = !{!224}
!224 = !DILocalVariable(name: "self", arg: 1, scope: !214, file: !17, line: 83, type: !222)
!225 = !DILocation(line: 83, column: 22, scope: !214)
!226 = !DILocation(line: 83, column: 37, scope: !214)
!227 = !DILocation(line: 83, column: 44, scope: !214)
!228 = distinct !DISubprogram(name: "clone", linkageName: "_ZN57_$LT$libc..unix..sigval$u20$as$u20$core..clone..Clone$GT$5clone17h86bfbe239a8bddccE", scope: !229, file: !17, line: 83, type: !230, scopeLine: 83, flags: DIFlagPrototyped, spFlags: DISPFlagDefinition, unit: !5, templateParams: !33, retainedNodes: !236)
!229 = !DINamespace(name: "{impl#25}", scope: !19)
!230 = !DISubroutineType(types: !231)
!231 = !{!232, !235}
!232 = !DICompositeType(tag: DW_TAG_structure_type, name: "sigval", scope: !19, file: !9, size: 64, align: 64, flags: DIFlagPublic, elements: !233, templateParams: !33, identifier: "588f238dd00d5182538032eec15bf809")
!233 = !{!234}
!234 = !DIDerivedType(tag: DW_TAG_member, name: "sival_ptr", scope: !232, file: !9, baseType: !172, size: 64, align: 64, flags: DIFlagPublic)
!235 = !DIDerivedType(tag: DW_TAG_pointer_type, name: "&libc::unix::sigval", baseType: !232, size: 64, align: 64, dwarfAddressSpace: 0)
!236 = !{!237}
!237 = !DILocalVariable(name: "self", arg: 1, scope: !228, file: !17, line: 83, type: !235)
!238 = !DILocation(line: 83, column: 22, scope: !228)
!239 = !DILocation(line: 83, column: 37, scope: !228)
!240 = !DILocation(line: 83, column: 44, scope: !228)
!241 = distinct !DISubprogram(name: "clone", linkageName: "_ZN60_$LT$libc..unix..itimerval$u20$as$u20$core..clone..Clone$GT$5clone17h4e64efac44b8c938E", scope: !242, file: !17, line: 83, type: !243, scopeLine: 83, flags: DIFlagPrototyped, spFlags: DISPFlagDefinition, unit: !5, templateParams: !33, retainedNodes: !250)
!242 = !DINamespace(name: "{impl#27}", scope: !19)
!243 = !DISubroutineType(types: !244)
!244 = !{!245, !249}
!245 = !DICompositeType(tag: DW_TAG_structure_type, name: "itimerval", scope: !19, file: !9, size: 256, align: 64, flags: DIFlagPublic, elements: !246, templateParams: !33, identifier: "455790014dcc19e478baaddb12ab343b")
!246 = !{!247, !248}
!247 = !DIDerivedType(tag: DW_TAG_member, name: "it_interval", scope: !245, file: !9, baseType: !59, size: 128, align: 64, flags: DIFlagPublic)
!248 = !DIDerivedType(tag: DW_TAG_member, name: "it_value", scope: !245, file: !9, baseType: !59, size: 128, align: 64, offset: 128, flags: DIFlagPublic)
!249 = !DIDerivedType(tag: DW_TAG_pointer_type, name: "&libc::unix::itimerval", baseType: !245, size: 64, align: 64, dwarfAddressSpace: 0)
!250 = !{!251}
!251 = !DILocalVariable(name: "self", arg: 1, scope: !241, file: !17, line: 83, type: !249)
!252 = !DILocation(line: 83, column: 22, scope: !241)
!253 = !DILocation(line: 83, column: 37, scope: !241)
!254 = !DILocation(line: 83, column: 44, scope: !241)
!255 = distinct !DISubprogram(name: "clone", linkageName: "_ZN54_$LT$libc..unix..tms$u20$as$u20$core..clone..Clone$GT$5clone17hdfe11705de206575E", scope: !256, file: !17, line: 83, type: !257, scopeLine: 83, flags: DIFlagPrototyped, spFlags: DISPFlagDefinition, unit: !5, templateParams: !33, retainedNodes: !266)
!256 = !DINamespace(name: "{impl#29}", scope: !19)
!257 = !DISubroutineType(types: !258)
!258 = !{!259, !265}
!259 = !DICompositeType(tag: DW_TAG_structure_type, name: "tms", scope: !19, file: !9, size: 256, align: 64, flags: DIFlagPublic, elements: !260, templateParams: !33, identifier: "e92dbee87184a54891dc37d2949d8cbd")
!260 = !{!261, !262, !263, !264}
!261 = !DIDerivedType(tag: DW_TAG_member, name: "tms_utime", scope: !259, file: !9, baseType: !47, size: 64, align: 64, flags: DIFlagPublic)
!262 = !DIDerivedType(tag: DW_TAG_member, name: "tms_stime", scope: !259, file: !9, baseType: !47, size: 64, align: 64, offset: 64, flags: DIFlagPublic)
!263 = !DIDerivedType(tag: DW_TAG_member, name: "tms_cutime", scope: !259, file: !9, baseType: !47, size: 64, align: 64, offset: 128, flags: DIFlagPublic)
!264 = !DIDerivedType(tag: DW_TAG_member, name: "tms_cstime", scope: !259, file: !9, baseType: !47, size: 64, align: 64, offset: 192, flags: DIFlagPublic)
!265 = !DIDerivedType(tag: DW_TAG_pointer_type, name: "&libc::unix::tms", baseType: !259, size: 64, align: 64, dwarfAddressSpace: 0)
!266 = !{!267}
!267 = !DILocalVariable(name: "self", arg: 1, scope: !255, file: !17, line: 83, type: !265)
!268 = !DILocation(line: 83, column: 22, scope: !255)
!269 = !DILocation(line: 83, column: 37, scope: !255)
!270 = !DILocation(line: 83, column: 44, scope: !255)
!271 = distinct !DISubprogram(name: "clone", linkageName: "_ZN58_$LT$libc..unix..servent$u20$as$u20$core..clone..Clone$GT$5clone17h9748f1cc49782a2fE", scope: !272, file: !17, line: 83, type: !273, scopeLine: 83, flags: DIFlagPrototyped, spFlags: DISPFlagDefinition, unit: !5, templateParams: !33, retainedNodes: !282)
!272 = !DINamespace(name: "{impl#31}", scope: !19)
!273 = !DISubroutineType(types: !274)
!274 = !{!275, !281}
!275 = !DICompositeType(tag: DW_TAG_structure_type, name: "servent", scope: !19, file: !9, size: 256, align: 64, flags: DIFlagPublic, elements: !276, templateParams: !33, identifier: "b80062706eb0ae08c3eaea855db3c034")
!276 = !{!277, !278, !279, !280}
!277 = !DIDerivedType(tag: DW_TAG_member, name: "s_name", scope: !275, file: !9, baseType: !26, size: 64, align: 64, flags: DIFlagPublic)
!278 = !DIDerivedType(tag: DW_TAG_member, name: "s_aliases", scope: !275, file: !9, baseType: !32, size: 64, align: 64, offset: 64, flags: DIFlagPublic)
!279 = !DIDerivedType(tag: DW_TAG_member, name: "s_port", scope: !275, file: !9, baseType: !156, size: 32, align: 32, offset: 128, flags: DIFlagPublic)
!280 = !DIDerivedType(tag: DW_TAG_member, name: "s_proto", scope: !275, file: !9, baseType: !26, size: 64, align: 64, offset: 192, flags: DIFlagPublic)
!281 = !DIDerivedType(tag: DW_TAG_pointer_type, name: "&libc::unix::servent", baseType: !275, size: 64, align: 64, dwarfAddressSpace: 0)
!282 = !{!283}
!283 = !DILocalVariable(name: "self", arg: 1, scope: !271, file: !17, line: 83, type: !281)
!284 = !DILocation(line: 83, column: 22, scope: !271)
!285 = !DILocation(line: 83, column: 37, scope: !271)
!286 = !DILocation(line: 83, column: 44, scope: !271)
!287 = distinct !DISubprogram(name: "clone", linkageName: "_ZN59_$LT$libc..unix..protoent$u20$as$u20$core..clone..Clone$GT$5clone17hd641fccfe35ebef0E", scope: !288, file: !17, line: 83, type: !289, scopeLine: 83, flags: DIFlagPrototyped, spFlags: DISPFlagDefinition, unit: !5, templateParams: !33, retainedNodes: !297)
!288 = !DINamespace(name: "{impl#33}", scope: !19)
!289 = !DISubroutineType(types: !290)
!290 = !{!291, !296}
!291 = !DICompositeType(tag: DW_TAG_structure_type, name: "protoent", scope: !19, file: !9, size: 192, align: 64, flags: DIFlagPublic, elements: !292, templateParams: !33, identifier: "ab7f54a1a7ffe81f4b6ad78513202a41")
!292 = !{!293, !294, !295}
!293 = !DIDerivedType(tag: DW_TAG_member, name: "p_name", scope: !291, file: !9, baseType: !26, size: 64, align: 64, flags: DIFlagPublic)
!294 = !DIDerivedType(tag: DW_TAG_member, name: "p_aliases", scope: !291, file: !9, baseType: !32, size: 64, align: 64, offset: 64, flags: DIFlagPublic)
!295 = !DIDerivedType(tag: DW_TAG_member, name: "p_proto", scope: !291, file: !9, baseType: !156, size: 32, align: 32, offset: 128, flags: DIFlagPublic)
!296 = !DIDerivedType(tag: DW_TAG_pointer_type, name: "&libc::unix::protoent", baseType: !291, size: 64, align: 64, dwarfAddressSpace: 0)
!297 = !{!298}
!298 = !DILocalVariable(name: "self", arg: 1, scope: !287, file: !17, line: 83, type: !296)
!299 = !DILocation(line: 83, column: 22, scope: !287)
!300 = !DILocation(line: 83, column: 37, scope: !287)
!301 = !DILocation(line: 83, column: 44, scope: !287)
!302 = distinct !DISubprogram(name: "clone", linkageName: "_ZN70_$LT$libc..unix..linux_like..in_addr$u20$as$u20$core..clone..Clone$GT$5clone17h2e494273789ea04aE", scope: !303, file: !17, line: 83, type: !305, scopeLine: 83, flags: DIFlagPrototyped, spFlags: DISPFlagDefinition, unit: !5, templateParams: !33, retainedNodes: !311)
!303 = !DINamespace(name: "{impl#1}", scope: !304)
!304 = !DINamespace(name: "linux_like", scope: !19)
!305 = !DISubroutineType(types: !306)
!306 = !{!307, !310}
!307 = !DICompositeType(tag: DW_TAG_structure_type, name: "in_addr", scope: !304, file: !9, size: 32, align: 32, flags: DIFlagPublic, elements: !308, templateParams: !33, identifier: "474c8526c54bdc1bec9a80ea4a1492c4")
!308 = !{!309}
!309 = !DIDerivedType(tag: DW_TAG_member, name: "s_addr", scope: !307, file: !9, baseType: !30, size: 32, align: 32, flags: DIFlagPublic)
!310 = !DIDerivedType(tag: DW_TAG_pointer_type, name: "&libc::unix::linux_like::in_addr", baseType: !307, size: 64, align: 64, dwarfAddressSpace: 0)
!311 = !{!312}
!312 = !DILocalVariable(name: "self", arg: 1, scope: !302, file: !17, line: 83, type: !310)
!313 = !DILocation(line: 83, column: 22, scope: !302)
!314 = !DILocation(line: 83, column: 37, scope: !302)
!315 = !DILocation(line: 83, column: 44, scope: !302)
!316 = distinct !DISubprogram(name: "clone", linkageName: "_ZN70_$LT$libc..unix..linux_like..ip_mreq$u20$as$u20$core..clone..Clone$GT$5clone17h1c85230011c15beaE", scope: !317, file: !17, line: 83, type: !318, scopeLine: 83, flags: DIFlagPrototyped, spFlags: DISPFlagDefinition, unit: !5, templateParams: !33, retainedNodes: !325)
!317 = !DINamespace(name: "{impl#3}", scope: !304)
!318 = !DISubroutineType(types: !319)
!319 = !{!320, !324}
!320 = !DICompositeType(tag: DW_TAG_structure_type, name: "ip_mreq", scope: !304, file: !9, size: 64, align: 32, flags: DIFlagPublic, elements: !321, templateParams: !33, identifier: "cf36ea15ab9ea19add13a2d663442dc")
!321 = !{!322, !323}
!322 = !DIDerivedType(tag: DW_TAG_member, name: "imr_multiaddr", scope: !320, file: !9, baseType: !307, size: 32, align: 32, flags: DIFlagPublic)
!323 = !DIDerivedType(tag: DW_TAG_member, name: "imr_interface", scope: !320, file: !9, baseType: !307, size: 32, align: 32, offset: 32, flags: DIFlagPublic)
!324 = !DIDerivedType(tag: DW_TAG_pointer_type, name: "&libc::unix::linux_like::ip_mreq", baseType: !320, size: 64, align: 64, dwarfAddressSpace: 0)
!325 = !{!326}
!326 = !DILocalVariable(name: "self", arg: 1, scope: !316, file: !17, line: 83, type: !324)
!327 = !DILocation(line: 83, column: 22, scope: !316)
!328 = !DILocation(line: 83, column: 37, scope: !316)
!329 = !DILocation(line: 83, column: 44, scope: !316)
!330 = distinct !DISubprogram(name: "clone", linkageName: "_ZN71_$LT$libc..unix..linux_like..ip_mreqn$u20$as$u20$core..clone..Clone$GT$5clone17hfa09e70a4cfd76faE", scope: !331, file: !17, line: 83, type: !332, scopeLine: 83, flags: DIFlagPrototyped, spFlags: DISPFlagDefinition, unit: !5, templateParams: !33, retainedNodes: !340)
!331 = !DINamespace(name: "{impl#5}", scope: !304)
!332 = !DISubroutineType(types: !333)
!333 = !{!334, !339}
!334 = !DICompositeType(tag: DW_TAG_structure_type, name: "ip_mreqn", scope: !304, file: !9, size: 96, align: 32, flags: DIFlagPublic, elements: !335, templateParams: !33, identifier: "a72546a47c65dd98b6ed54ecf3a94dc1")
!335 = !{!336, !337, !338}
!336 = !DIDerivedType(tag: DW_TAG_member, name: "imr_multiaddr", scope: !334, file: !9, baseType: !307, size: 32, align: 32, flags: DIFlagPublic)
!337 = !DIDerivedType(tag: DW_TAG_member, name: "imr_address", scope: !334, file: !9, baseType: !307, size: 32, align: 32, offset: 32, flags: DIFlagPublic)
!338 = !DIDerivedType(tag: DW_TAG_member, name: "imr_ifindex", scope: !334, file: !9, baseType: !156, size: 32, align: 32, offset: 64, flags: DIFlagPublic)
!339 = !DIDerivedType(tag: DW_TAG_pointer_type, name: "&libc::unix::linux_like::ip_mreqn", baseType: !334, size: 64, align: 64, dwarfAddressSpace: 0)
!340 = !{!341}
!341 = !DILocalVariable(name: "self", arg: 1, scope: !330, file: !17, line: 83, type: !339)
!342 = !DILocation(line: 83, column: 22, scope: !330)
!343 = !DILocation(line: 83, column: 37, scope: !330)
!344 = !DILocation(line: 83, column: 44, scope: !330)
!345 = distinct !DISubprogram(name: "clone", linkageName: "_ZN77_$LT$libc..unix..linux_like..ip_mreq_source$u20$as$u20$core..clone..Clone$GT$5clone17h5ca3dac7c1600377E", scope: !346, file: !17, line: 83, type: !347, scopeLine: 83, flags: DIFlagPrototyped, spFlags: DISPFlagDefinition, unit: !5, templateParams: !33, retainedNodes: !355)
!346 = !DINamespace(name: "{impl#7}", scope: !304)
!347 = !DISubroutineType(types: !348)
!348 = !{!349, !354}
!349 = !DICompositeType(tag: DW_TAG_structure_type, name: "ip_mreq_source", scope: !304, file: !9, size: 96, align: 32, flags: DIFlagPublic, elements: !350, templateParams: !33, identifier: "587c4d397e5a4db152b13642a38fd7bf")
!350 = !{!351, !352, !353}
!351 = !DIDerivedType(tag: DW_TAG_member, name: "imr_multiaddr", scope: !349, file: !9, baseType: !307, size: 32, align: 32, flags: DIFlagPublic)
!352 = !DIDerivedType(tag: DW_TAG_member, name: "imr_interface", scope: !349, file: !9, baseType: !307, size: 32, align: 32, offset: 32, flags: DIFlagPublic)
!353 = !DIDerivedType(tag: DW_TAG_member, name: "imr_sourceaddr", scope: !349, file: !9, baseType: !307, size: 32, align: 32, offset: 64, flags: DIFlagPublic)
!354 = !DIDerivedType(tag: DW_TAG_pointer_type, name: "&libc::unix::linux_like::ip_mreq_source", baseType: !349, size: 64, align: 64, dwarfAddressSpace: 0)
!355 = !{!356}
!356 = !DILocalVariable(name: "self", arg: 1, scope: !345, file: !17, line: 83, type: !354)
!357 = !DILocation(line: 83, column: 22, scope: !345)
!358 = !DILocation(line: 83, column: 37, scope: !345)
!359 = !DILocation(line: 83, column: 44, scope: !345)
!360 = distinct !DISubprogram(name: "clone", linkageName: "_ZN71_$LT$libc..unix..linux_like..sockaddr$u20$as$u20$core..clone..Clone$GT$5clone17hdfaabb3a224c98ffE", scope: !361, file: !17, line: 83, type: !362, scopeLine: 83, flags: DIFlagPrototyped, spFlags: DISPFlagDefinition, unit: !5, templateParams: !33, retainedNodes: !372)
!361 = !DINamespace(name: "{impl#9}", scope: !304)
!362 = !DISubroutineType(types: !363)
!363 = !{!364, !371}
!364 = !DICompositeType(tag: DW_TAG_structure_type, name: "sockaddr", scope: !304, file: !9, size: 128, align: 16, flags: DIFlagPublic, elements: !365, templateParams: !33, identifier: "9117d47757db9063e4af8edb3a8c891c")
!365 = !{!366, !367}
!366 = !DIDerivedType(tag: DW_TAG_member, name: "sa_family", scope: !364, file: !9, baseType: !204, size: 16, align: 16, flags: DIFlagPublic)
!367 = !DIDerivedType(tag: DW_TAG_member, name: "sa_data", scope: !364, file: !9, baseType: !368, size: 112, align: 8, offset: 16, flags: DIFlagPublic)
!368 = !DICompositeType(tag: DW_TAG_array_type, baseType: !27, size: 112, align: 8, elements: !369)
!369 = !{!370}
!370 = !DISubrange(count: 14, lowerBound: 0)
!371 = !DIDerivedType(tag: DW_TAG_pointer_type, name: "&libc::unix::linux_like::sockaddr", baseType: !364, size: 64, align: 64, dwarfAddressSpace: 0)
!372 = !{!373}
!373 = !DILocalVariable(name: "self", arg: 1, scope: !360, file: !17, line: 83, type: !371)
!374 = !DILocation(line: 83, column: 22, scope: !360)
!375 = !DILocation(line: 83, column: 37, scope: !360)
!376 = !DILocation(line: 83, column: 44, scope: !360)
!377 = distinct !DISubprogram(name: "clone", linkageName: "_ZN74_$LT$libc..unix..linux_like..sockaddr_in$u20$as$u20$core..clone..Clone$GT$5clone17h5d13b251cd2dbecdE", scope: !378, file: !17, line: 83, type: !379, scopeLine: 83, flags: DIFlagPrototyped, spFlags: DISPFlagDefinition, unit: !5, templateParams: !33, retainedNodes: !391)
!378 = !DINamespace(name: "{impl#11}", scope: !304)
!379 = !DISubroutineType(types: !380)
!380 = !{!381, !390}
!381 = !DICompositeType(tag: DW_TAG_structure_type, name: "sockaddr_in", scope: !304, file: !9, size: 128, align: 32, flags: DIFlagPublic, elements: !382, templateParams: !33, identifier: "d71c0ca606b1a91a22646dff8c22959")
!382 = !{!383, !384, !385, !386}
!383 = !DIDerivedType(tag: DW_TAG_member, name: "sin_family", scope: !381, file: !9, baseType: !204, size: 16, align: 16, flags: DIFlagPublic)
!384 = !DIDerivedType(tag: DW_TAG_member, name: "sin_port", scope: !381, file: !9, baseType: !204, size: 16, align: 16, offset: 16, flags: DIFlagPublic)
!385 = !DIDerivedType(tag: DW_TAG_member, name: "sin_addr", scope: !381, file: !9, baseType: !307, size: 32, align: 32, offset: 32, flags: DIFlagPublic)
!386 = !DIDerivedType(tag: DW_TAG_member, name: "sin_zero", scope: !381, file: !9, baseType: !387, size: 64, align: 8, offset: 64, flags: DIFlagPublic)
!387 = !DICompositeType(tag: DW_TAG_array_type, baseType: !12, size: 64, align: 8, elements: !388)
!388 = !{!389}
!389 = !DISubrange(count: 8, lowerBound: 0)
!390 = !DIDerivedType(tag: DW_TAG_pointer_type, name: "&libc::unix::linux_like::sockaddr_in", baseType: !381, size: 64, align: 64, dwarfAddressSpace: 0)
!391 = !{!392}
!392 = !DILocalVariable(name: "self", arg: 1, scope: !377, file: !17, line: 83, type: !390)
!393 = !DILocation(line: 83, column: 22, scope: !377)
!394 = !DILocation(line: 83, column: 37, scope: !377)
!395 = !DILocation(line: 83, column: 44, scope: !377)
!396 = distinct !DISubprogram(name: "clone", linkageName: "_ZN75_$LT$libc..unix..linux_like..sockaddr_in6$u20$as$u20$core..clone..Clone$GT$5clone17hda5f5bb53fd578bdE", scope: !397, file: !17, line: 83, type: !398, scopeLine: 83, flags: DIFlagPrototyped, spFlags: DISPFlagDefinition, unit: !5, templateParams: !33, retainedNodes: !408)
!397 = !DINamespace(name: "{impl#13}", scope: !304)
!398 = !DISubroutineType(types: !399)
!399 = !{!400, !407}
!400 = !DICompositeType(tag: DW_TAG_structure_type, name: "sockaddr_in6", scope: !304, file: !9, size: 224, align: 32, flags: DIFlagPublic, elements: !401, templateParams: !33, identifier: "d478a60b99cca1760946d6eb48f79d2")
!401 = !{!402, !403, !404, !405, !406}
!402 = !DIDerivedType(tag: DW_TAG_member, name: "sin6_family", scope: !400, file: !9, baseType: !204, size: 16, align: 16, flags: DIFlagPublic)
!403 = !DIDerivedType(tag: DW_TAG_member, name: "sin6_port", scope: !400, file: !9, baseType: !204, size: 16, align: 16, offset: 16, flags: DIFlagPublic)
!404 = !DIDerivedType(tag: DW_TAG_member, name: "sin6_flowinfo", scope: !400, file: !9, baseType: !30, size: 32, align: 32, offset: 32, flags: DIFlagPublic)
!405 = !DIDerivedType(tag: DW_TAG_member, name: "sin6_addr", scope: !400, file: !9, baseType: !133, size: 128, align: 32, offset: 64, flags: DIFlagPublic)
!406 = !DIDerivedType(tag: DW_TAG_member, name: "sin6_scope_id", scope: !400, file: !9, baseType: !30, size: 32, align: 32, offset: 192, flags: DIFlagPublic)
!407 = !DIDerivedType(tag: DW_TAG_pointer_type, name: "&libc::unix::linux_like::sockaddr_in6", baseType: !400, size: 64, align: 64, dwarfAddressSpace: 0)
!408 = !{!409}
!409 = !DILocalVariable(name: "self", arg: 1, scope: !396, file: !17, line: 83, type: !407)
!410 = !DILocation(line: 83, column: 22, scope: !396)
!411 = !DILocation(line: 83, column: 37, scope: !396)
!412 = !DILocation(line: 83, column: 44, scope: !396)
!413 = distinct !DISubprogram(name: "clone", linkageName: "_ZN71_$LT$libc..unix..linux_like..addrinfo$u20$as$u20$core..clone..Clone$GT$5clone17h23a4ddfd611ea590E", scope: !414, file: !17, line: 83, type: !415, scopeLine: 83, flags: DIFlagPrototyped, spFlags: DISPFlagDefinition, unit: !5, templateParams: !33, retainedNodes: !430)
!414 = !DINamespace(name: "{impl#15}", scope: !304)
!415 = !DISubroutineType(types: !416)
!416 = !{!417, !429}
!417 = !DICompositeType(tag: DW_TAG_structure_type, name: "addrinfo", scope: !304, file: !9, size: 384, align: 64, flags: DIFlagPublic, elements: !418, templateParams: !33, identifier: "b28fac1a2476466ffa57fe2d10560a97")
!418 = !{!419, !420, !421, !422, !423, !424, !426, !427}
!419 = !DIDerivedType(tag: DW_TAG_member, name: "ai_flags", scope: !417, file: !9, baseType: !156, size: 32, align: 32, flags: DIFlagPublic)
!420 = !DIDerivedType(tag: DW_TAG_member, name: "ai_family", scope: !417, file: !9, baseType: !156, size: 32, align: 32, offset: 32, flags: DIFlagPublic)
!421 = !DIDerivedType(tag: DW_TAG_member, name: "ai_socktype", scope: !417, file: !9, baseType: !156, size: 32, align: 32, offset: 64, flags: DIFlagPublic)
!422 = !DIDerivedType(tag: DW_TAG_member, name: "ai_protocol", scope: !417, file: !9, baseType: !156, size: 32, align: 32, offset: 96, flags: DIFlagPublic)
!423 = !DIDerivedType(tag: DW_TAG_member, name: "ai_addrlen", scope: !417, file: !9, baseType: !30, size: 32, align: 32, offset: 128, flags: DIFlagPublic)
!424 = !DIDerivedType(tag: DW_TAG_member, name: "ai_addr", scope: !417, file: !9, baseType: !425, size: 64, align: 64, offset: 192, flags: DIFlagPublic)
!425 = !DIDerivedType(tag: DW_TAG_pointer_type, name: "*mut libc::unix::linux_like::sockaddr", baseType: !364, size: 64, align: 64, dwarfAddressSpace: 0)
!426 = !DIDerivedType(tag: DW_TAG_member, name: "ai_canonname", scope: !417, file: !9, baseType: !26, size: 64, align: 64, offset: 256, flags: DIFlagPublic)
!427 = !DIDerivedType(tag: DW_TAG_member, name: "ai_next", scope: !417, file: !9, baseType: !428, size: 64, align: 64, offset: 320, flags: DIFlagPublic)
!428 = !DIDerivedType(tag: DW_TAG_pointer_type, name: "*mut libc::unix::linux_like::addrinfo", baseType: !417, size: 64, align: 64, dwarfAddressSpace: 0)
!429 = !DIDerivedType(tag: DW_TAG_pointer_type, name: "&libc::unix::linux_like::addrinfo", baseType: !417, size: 64, align: 64, dwarfAddressSpace: 0)
!430 = !{!431}
!431 = !DILocalVariable(name: "self", arg: 1, scope: !413, file: !17, line: 83, type: !429)
!432 = !DILocation(line: 83, column: 22, scope: !413)
!433 = !DILocation(line: 83, column: 37, scope: !413)
!434 = !DILocation(line: 83, column: 44, scope: !413)
!435 = distinct !DISubprogram(name: "clone", linkageName: "_ZN74_$LT$libc..unix..linux_like..sockaddr_ll$u20$as$u20$core..clone..Clone$GT$5clone17hc3afa2b79145214dE", scope: !436, file: !17, line: 83, type: !437, scopeLine: 83, flags: DIFlagPrototyped, spFlags: DISPFlagDefinition, unit: !5, templateParams: !33, retainedNodes: !449)
!436 = !DINamespace(name: "{impl#17}", scope: !304)
!437 = !DISubroutineType(types: !438)
!438 = !{!439, !448}
!439 = !DICompositeType(tag: DW_TAG_structure_type, name: "sockaddr_ll", scope: !304, file: !9, size: 160, align: 32, flags: DIFlagPublic, elements: !440, templateParams: !33, identifier: "148d798077ab7e0f2d44dd4fa9d4683f")
!440 = !{!441, !442, !443, !444, !445, !446, !447}
!441 = !DIDerivedType(tag: DW_TAG_member, name: "sll_family", scope: !439, file: !9, baseType: !204, size: 16, align: 16, flags: DIFlagPublic)
!442 = !DIDerivedType(tag: DW_TAG_member, name: "sll_protocol", scope: !439, file: !9, baseType: !204, size: 16, align: 16, offset: 16, flags: DIFlagPublic)
!443 = !DIDerivedType(tag: DW_TAG_member, name: "sll_ifindex", scope: !439, file: !9, baseType: !156, size: 32, align: 32, offset: 32, flags: DIFlagPublic)
!444 = !DIDerivedType(tag: DW_TAG_member, name: "sll_hatype", scope: !439, file: !9, baseType: !204, size: 16, align: 16, offset: 64, flags: DIFlagPublic)
!445 = !DIDerivedType(tag: DW_TAG_member, name: "sll_pkttype", scope: !439, file: !9, baseType: !12, size: 8, align: 8, offset: 80, flags: DIFlagPublic)
!446 = !DIDerivedType(tag: DW_TAG_member, name: "sll_halen", scope: !439, file: !9, baseType: !12, size: 8, align: 8, offset: 88, flags: DIFlagPublic)
!447 = !DIDerivedType(tag: DW_TAG_member, name: "sll_addr", scope: !439, file: !9, baseType: !387, size: 64, align: 8, offset: 96, flags: DIFlagPublic)
!448 = !DIDerivedType(tag: DW_TAG_pointer_type, name: "&libc::unix::linux_like::sockaddr_ll", baseType: !439, size: 64, align: 64, dwarfAddressSpace: 0)
!449 = !{!450}
!450 = !DILocalVariable(name: "self", arg: 1, scope: !435, file: !17, line: 83, type: !448)
!451 = !DILocation(line: 83, column: 22, scope: !435)
!452 = !DILocation(line: 83, column: 37, scope: !435)
!453 = !DILocation(line: 83, column: 44, scope: !435)
!454 = distinct !DISubprogram(name: "clone", linkageName: "_ZN69_$LT$libc..unix..linux_like..fd_set$u20$as$u20$core..clone..Clone$GT$5clone17h9892aec1a603f5b2E", scope: !455, file: !17, line: 83, type: !456, scopeLine: 83, flags: DIFlagPrototyped, spFlags: DISPFlagDefinition, unit: !5, templateParams: !33, retainedNodes: !463)
!455 = !DINamespace(name: "{impl#19}", scope: !304)
!456 = !DISubroutineType(types: !457)
!457 = !{!458, !462}
!458 = !DICompositeType(tag: DW_TAG_structure_type, name: "fd_set", scope: !304, file: !9, size: 1024, align: 64, flags: DIFlagPublic, elements: !459, templateParams: !33, identifier: "ce803cfe2d493ba3707dfc6cd064ad66")
!459 = !{!460}
!460 = !DIDerivedType(tag: DW_TAG_member, name: "fds_bits", scope: !458, file: !9, baseType: !461, size: 1024, align: 64, flags: DIFlagPrivate)
!461 = !DICompositeType(tag: DW_TAG_array_type, baseType: !90, size: 1024, align: 64, elements: !138)
!462 = !DIDerivedType(tag: DW_TAG_pointer_type, name: "&libc::unix::linux_like::fd_set", baseType: !458, size: 64, align: 64, dwarfAddressSpace: 0)
!463 = !{!464}
!464 = !DILocalVariable(name: "self", arg: 1, scope: !454, file: !17, line: 83, type: !462)
!465 = !DILocation(line: 83, column: 22, scope: !454)
!466 = !DILocation(line: 83, column: 37, scope: !454)
!467 = !DILocation(line: 83, column: 44, scope: !454)
!468 = distinct !DISubprogram(name: "clone", linkageName: "_ZN65_$LT$libc..unix..linux_like..tm$u20$as$u20$core..clone..Clone$GT$5clone17h5f2ccfdfeb56a0a0E", scope: !469, file: !17, line: 83, type: !470, scopeLine: 83, flags: DIFlagPrototyped, spFlags: DISPFlagDefinition, unit: !5, templateParams: !33, retainedNodes: !487)
!469 = !DINamespace(name: "{impl#21}", scope: !304)
!470 = !DISubroutineType(types: !471)
!471 = !{!472, !486}
!472 = !DICompositeType(tag: DW_TAG_structure_type, name: "tm", scope: !304, file: !9, size: 448, align: 64, flags: DIFlagPublic, elements: !473, templateParams: !33, identifier: "5d74163d4a7af893eda1e317005f8be4")
!473 = !{!474, !475, !476, !477, !478, !479, !480, !481, !482, !483, !484}
!474 = !DIDerivedType(tag: DW_TAG_member, name: "tm_sec", scope: !472, file: !9, baseType: !156, size: 32, align: 32, flags: DIFlagPublic)
!475 = !DIDerivedType(tag: DW_TAG_member, name: "tm_min", scope: !472, file: !9, baseType: !156, size: 32, align: 32, offset: 32, flags: DIFlagPublic)
!476 = !DIDerivedType(tag: DW_TAG_member, name: "tm_hour", scope: !472, file: !9, baseType: !156, size: 32, align: 32, offset: 64, flags: DIFlagPublic)
!477 = !DIDerivedType(tag: DW_TAG_member, name: "tm_mday", scope: !472, file: !9, baseType: !156, size: 32, align: 32, offset: 96, flags: DIFlagPublic)
!478 = !DIDerivedType(tag: DW_TAG_member, name: "tm_mon", scope: !472, file: !9, baseType: !156, size: 32, align: 32, offset: 128, flags: DIFlagPublic)
!479 = !DIDerivedType(tag: DW_TAG_member, name: "tm_year", scope: !472, file: !9, baseType: !156, size: 32, align: 32, offset: 160, flags: DIFlagPublic)
!480 = !DIDerivedType(tag: DW_TAG_member, name: "tm_wday", scope: !472, file: !9, baseType: !156, size: 32, align: 32, offset: 192, flags: DIFlagPublic)
!481 = !DIDerivedType(tag: DW_TAG_member, name: "tm_yday", scope: !472, file: !9, baseType: !156, size: 32, align: 32, offset: 224, flags: DIFlagPublic)
!482 = !DIDerivedType(tag: DW_TAG_member, name: "tm_isdst", scope: !472, file: !9, baseType: !156, size: 32, align: 32, offset: 256, flags: DIFlagPublic)
!483 = !DIDerivedType(tag: DW_TAG_member, name: "tm_gmtoff", scope: !472, file: !9, baseType: !47, size: 64, align: 64, offset: 320, flags: DIFlagPublic)
!484 = !DIDerivedType(tag: DW_TAG_member, name: "tm_zone", scope: !472, file: !9, baseType: !485, size: 64, align: 64, offset: 384, flags: DIFlagPublic)
!485 = !DIDerivedType(tag: DW_TAG_pointer_type, name: "*const i8", baseType: !27, size: 64, align: 64, dwarfAddressSpace: 0)
!486 = !DIDerivedType(tag: DW_TAG_pointer_type, name: "&libc::unix::linux_like::tm", baseType: !472, size: 64, align: 64, dwarfAddressSpace: 0)
!487 = !{!488}
!488 = !DILocalVariable(name: "self", arg: 1, scope: !468, file: !17, line: 83, type: !486)
!489 = !DILocation(line: 83, column: 22, scope: !468)
!490 = !DILocation(line: 83, column: 37, scope: !468)
!491 = !DILocation(line: 83, column: 44, scope: !468)
!492 = distinct !DISubprogram(name: "clone", linkageName: "_ZN74_$LT$libc..unix..linux_like..sched_param$u20$as$u20$core..clone..Clone$GT$5clone17hf6574159e0186fafE", scope: !493, file: !17, line: 83, type: !494, scopeLine: 83, flags: DIFlagPrototyped, spFlags: DISPFlagDefinition, unit: !5, templateParams: !33, retainedNodes: !500)
!493 = !DINamespace(name: "{impl#23}", scope: !304)
!494 = !DISubroutineType(types: !495)
!495 = !{!496, !499}
!496 = !DICompositeType(tag: DW_TAG_structure_type, name: "sched_param", scope: !304, file: !9, size: 32, align: 32, flags: DIFlagPublic, elements: !497, templateParams: !33, identifier: "1175ffcc9855951e37b5b8b6243b301c")
!497 = !{!498}
!498 = !DIDerivedType(tag: DW_TAG_member, name: "sched_priority", scope: !496, file: !9, baseType: !156, size: 32, align: 32, flags: DIFlagPublic)
!499 = !DIDerivedType(tag: DW_TAG_pointer_type, name: "&libc::unix::linux_like::sched_param", baseType: !496, size: 64, align: 64, dwarfAddressSpace: 0)
!500 = !{!501}
!501 = !DILocalVariable(name: "self", arg: 1, scope: !492, file: !17, line: 83, type: !499)
!502 = !DILocation(line: 83, column: 22, scope: !492)
!503 = !DILocation(line: 83, column: 37, scope: !492)
!504 = !DILocation(line: 83, column: 44, scope: !492)
!505 = distinct !DISubprogram(name: "clone", linkageName: "_ZN70_$LT$libc..unix..linux_like..Dl_info$u20$as$u20$core..clone..Clone$GT$5clone17hc214689aa67eac78E", scope: !506, file: !17, line: 83, type: !507, scopeLine: 83, flags: DIFlagPrototyped, spFlags: DISPFlagDefinition, unit: !5, templateParams: !33, retainedNodes: !516)
!506 = !DINamespace(name: "{impl#25}", scope: !304)
!507 = !DISubroutineType(types: !508)
!508 = !{!509, !515}
!509 = !DICompositeType(tag: DW_TAG_structure_type, name: "Dl_info", scope: !304, file: !9, size: 256, align: 64, flags: DIFlagPublic, elements: !510, templateParams: !33, identifier: "cec9c2077726a8f5687e5236ee8e785c")
!510 = !{!511, !512, !513, !514}
!511 = !DIDerivedType(tag: DW_TAG_member, name: "dli_fname", scope: !509, file: !9, baseType: !485, size: 64, align: 64, flags: DIFlagPublic)
!512 = !DIDerivedType(tag: DW_TAG_member, name: "dli_fbase", scope: !509, file: !9, baseType: !172, size: 64, align: 64, offset: 64, flags: DIFlagPublic)
!513 = !DIDerivedType(tag: DW_TAG_member, name: "dli_sname", scope: !509, file: !9, baseType: !485, size: 64, align: 64, offset: 128, flags: DIFlagPublic)
!514 = !DIDerivedType(tag: DW_TAG_member, name: "dli_saddr", scope: !509, file: !9, baseType: !172, size: 64, align: 64, offset: 192, flags: DIFlagPublic)
!515 = !DIDerivedType(tag: DW_TAG_pointer_type, name: "&libc::unix::linux_like::Dl_info", baseType: !509, size: 64, align: 64, dwarfAddressSpace: 0)
!516 = !{!517}
!517 = !DILocalVariable(name: "self", arg: 1, scope: !505, file: !17, line: 83, type: !515)
!518 = !DILocation(line: 83, column: 22, scope: !505)
!519 = !DILocation(line: 83, column: 37, scope: !505)
!520 = !DILocation(line: 83, column: 44, scope: !505)
!521 = distinct !DISubprogram(name: "clone", linkageName: "_ZN68_$LT$libc..unix..linux_like..lconv$u20$as$u20$core..clone..Clone$GT$5clone17hba1341670469f395E", scope: !522, file: !17, line: 83, type: !523, scopeLine: 83, flags: DIFlagPrototyped, spFlags: DISPFlagDefinition, unit: !5, templateParams: !33, retainedNodes: !552)
!522 = !DINamespace(name: "{impl#27}", scope: !304)
!523 = !DISubroutineType(types: !524)
!524 = !{!525, !551}
!525 = !DICompositeType(tag: DW_TAG_structure_type, name: "lconv", scope: !304, file: !9, size: 768, align: 64, flags: DIFlagPublic, elements: !526, templateParams: !33, identifier: "68ea7d6a9dbbc687be2af9cc718f858a")
!526 = !{!527, !528, !529, !530, !531, !532, !533, !534, !535, !536, !537, !538, !539, !540, !541, !542, !543, !544, !545, !546, !547, !548, !549, !550}
!527 = !DIDerivedType(tag: DW_TAG_member, name: "decimal_point", scope: !525, file: !9, baseType: !26, size: 64, align: 64, flags: DIFlagPublic)
!528 = !DIDerivedType(tag: DW_TAG_member, name: "thousands_sep", scope: !525, file: !9, baseType: !26, size: 64, align: 64, offset: 64, flags: DIFlagPublic)
!529 = !DIDerivedType(tag: DW_TAG_member, name: "grouping", scope: !525, file: !9, baseType: !26, size: 64, align: 64, offset: 128, flags: DIFlagPublic)
!530 = !DIDerivedType(tag: DW_TAG_member, name: "int_curr_symbol", scope: !525, file: !9, baseType: !26, size: 64, align: 64, offset: 192, flags: DIFlagPublic)
!531 = !DIDerivedType(tag: DW_TAG_member, name: "currency_symbol", scope: !525, file: !9, baseType: !26, size: 64, align: 64, offset: 256, flags: DIFlagPublic)
!532 = !DIDerivedType(tag: DW_TAG_member, name: "mon_decimal_point", scope: !525, file: !9, baseType: !26, size: 64, align: 64, offset: 320, flags: DIFlagPublic)
!533 = !DIDerivedType(tag: DW_TAG_member, name: "mon_thousands_sep", scope: !525, file: !9, baseType: !26, size: 64, align: 64, offset: 384, flags: DIFlagPublic)
!534 = !DIDerivedType(tag: DW_TAG_member, name: "mon_grouping", scope: !525, file: !9, baseType: !26, size: 64, align: 64, offset: 448, flags: DIFlagPublic)
!535 = !DIDerivedType(tag: DW_TAG_member, name: "positive_sign", scope: !525, file: !9, baseType: !26, size: 64, align: 64, offset: 512, flags: DIFlagPublic)
!536 = !DIDerivedType(tag: DW_TAG_member, name: "negative_sign", scope: !525, file: !9, baseType: !26, size: 64, align: 64, offset: 576, flags: DIFlagPublic)
!537 = !DIDerivedType(tag: DW_TAG_member, name: "int_frac_digits", scope: !525, file: !9, baseType: !27, size: 8, align: 8, offset: 640, flags: DIFlagPublic)
!538 = !DIDerivedType(tag: DW_TAG_member, name: "frac_digits", scope: !525, file: !9, baseType: !27, size: 8, align: 8, offset: 648, flags: DIFlagPublic)
