; ModuleID = 'openssl_probe.83fc98d86d9c31e2-cgu.0'
source_filename = "openssl_probe.83fc98d86d9c31e2-cgu.0"
target datalayout = "e-m:e-p270:32:32-p271:32:32-p272:64:64-i64:64-f80:128-n8:16:32:64-S128"
target triple = "x86_64-unknown-linux-gnu"

%"core::option::Option<std::path::PathBuf>" = type { i64, [2 x i64] }
%"std::path::PathBuf" = type { %"std::ffi::os_str::OsString" }
%"std::ffi::os_str::OsString" = type { %"std::sys::os_str::bytes::Buf" }
%"std::sys::os_str::bytes::Buf" = type { %"alloc::vec::Vec<u8>" }
%"alloc::vec::Vec<u8>" = type { %"alloc::raw_vec::RawVec<u8>", i64 }
%"alloc::raw_vec::RawVec<u8>" = type { i64, ptr, %"alloc::alloc::Global" }
%"alloc::alloc::Global" = type {}
%"core::option::Option<&std::path::Path>" = type { ptr, [1 x i64] }
%"{closure@core::iter::adapters::map::map_try_fold<'_, &&str, &std::path::Path, (), core::ops::control_flow::ControlFlow<&std::path::Path>, for<'a> fn(&'a &str) -> &'a std::path::Path {std::path::Path::new::<&str>}, {closure@core::iter::traits::iterator::Iterator::find::check<&std::path::Path, &mut {closure@/users/zyuxuan/.cargo/registry/src/index.crates.io-6f17d22bba15001f/openssl-probe-0.1.5/src/lib.rs:44:35: 44:38}>::{closure#0}}>::{closure#0}}" = type { ptr, ptr }
%"core::ops::control_flow::ControlFlow<std::path::PathBuf>" = type { i64, [2 x i64] }
%"{closure@core::iter::traits::iterator::Iterator::find::check<std::path::PathBuf, {closure@/users/zyuxuan/.cargo/registry/src/index.crates.io-6f17d22bba15001f/openssl-probe-0.1.5/src/lib.rs:123:23: 123:26}>::{closure#0}}" = type { %"{closure@/users/zyuxuan/.cargo/registry/src/index.crates.io-6f17d22bba15001f/openssl-probe-0.1.5/src/lib.rs:123:23: 123:26}" }
%"{closure@/users/zyuxuan/.cargo/registry/src/index.crates.io-6f17d22bba15001f/openssl-probe-0.1.5/src/lib.rs:123:23: 123:26}" = type {}
%"core::iter::adapters::map::Map<core::slice::iter::Iter<'_, &str>, {closure@/users/zyuxuan/.cargo/registry/src/index.crates.io-6f17d22bba15001f/openssl-probe-0.1.5/src/lib.rs:122:22: 122:29}>" = type { %"core::slice::iter::Iter<'_, &str>", ptr }
%"core::slice::iter::Iter<'_, &str>" = type { ptr, ptr, %"core::marker::PhantomData<&&str>" }
%"core::marker::PhantomData<&&str>" = type {}
%"core::option::Option<usize>" = type { i64, [1 x i64] }
%"core::ops::control_flow::ControlFlow<&std::path::Path>" = type { ptr, [1 x i64] }
%"core::ops::control_flow::ControlFlow<&std::path::Path, core::convert::Infallible>::Break" = type { { ptr, i64 } }
%"alloc::vec::Vec<std::path::PathBuf>" = type { %"alloc::raw_vec::RawVec<std::path::PathBuf>", i64 }
%"alloc::raw_vec::RawVec<std::path::PathBuf>" = type { i64, ptr, %"alloc::alloc::Global" }
%"core::iter::adapters::map::Map<core::iter::adapters::filter::Filter<core::iter::adapters::map::Map<core::slice::iter::Iter<'_, &str>, for<'a> fn(&'a &str) -> &'a std::path::Path {std::path::Path::new::<&str>}>, {closure@/users/zyuxuan/.cargo/registry/src/index.crates.io-6f17d22bba15001f/openssl-probe-0.1.5/src/lib.rs:44:35: 44:38}>, for<'a> fn(&'a std::path::Path) -> std::path::PathBuf {std::path::Path::to_path_buf}>" = type { %"core::iter::adapters::filter::Filter<core::iter::adapters::map::Map<core::slice::iter::Iter<'_, &str>, for<'a> fn(&'a &str) -> &'a std::path::Path {std::path::Path::new::<&str>}>, {closure@/users/zyuxuan/.cargo/registry/src/index.crates.io-6f17d22bba15001f/openssl-probe-0.1.5/src/lib.rs:44:35: 44:38}>", {} }
%"core::iter::adapters::filter::Filter<core::iter::adapters::map::Map<core::slice::iter::Iter<'_, &str>, for<'a> fn(&'a &str) -> &'a std::path::Path {std::path::Path::new::<&str>}>, {closure@/users/zyuxuan/.cargo/registry/src/index.crates.io-6f17d22bba15001f/openssl-probe-0.1.5/src/lib.rs:44:35: 44:38}>" = type { %"core::iter::adapters::map::Map<core::slice::iter::Iter<'_, &str>, for<'a> fn(&'a &str) -> &'a std::path::Path {std::path::Path::new::<&str>}>", %"{closure@/users/zyuxuan/.cargo/registry/src/index.crates.io-6f17d22bba15001f/openssl-probe-0.1.5/src/lib.rs:44:35: 44:38}" }
%"core::iter::adapters::map::Map<core::slice::iter::Iter<'_, &str>, for<'a> fn(&'a &str) -> &'a std::path::Path {std::path::Path::new::<&str>}>" = type { %"core::slice::iter::Iter<'_, &str>", {} }
%"{closure@/users/zyuxuan/.cargo/registry/src/index.crates.io-6f17d22bba15001f/openssl-probe-0.1.5/src/lib.rs:44:35: 44:38}" = type {}
%"std::fs::Metadata" = type { %"std::sys::pal::unix::fs::FileAttr" }
%"std::sys::pal::unix::fs::FileAttr" = type { %"core::option::Option<std::sys::pal::unix::fs::StatxExtraFields>", %"libc::unix::linux_like::linux::gnu::b64::x86_64::stat64" }
%"core::option::Option<std::sys::pal::unix::fs::StatxExtraFields>" = type { i64, [3 x i64] }
%"libc::unix::linux_like::linux::gnu::b64::x86_64::stat64" = type { i64, i64, i64, i32, i32, i32, i32, i64, i64, i64, i64, i64, i64, i64, i64, i64, i64, [3 x i64] }
%"core::result::Result<std::fs::Metadata, std::io::error::Error>" = type { i64, [21 x i64] }
%"core::result::Result<std::sys::pal::unix::fs::FileAttr, std::io::error::Error>" = type { i64, [21 x i64] }
%"std::io::error::ErrorData<alloc::boxed::Box<std::io::error::Custom>>" = type { i8, [15 x i8] }
%"{closure@<std::io::error::repr_bitpacked::Repr as core::ops::drop::Drop>::drop::{closure#0}}" = type {}
%"core::ptr::metadata::PtrComponents<()>" = type { ptr, {} }
%"core::ptr::metadata::PtrRepr<()>" = type { [1 x i64] }
%"core::fmt::rt::UnsafeArg" = type { {} }
%"core::fmt::rt::Count" = type { i64, [1 x i64] }
%"std::io::error::ErrorData<alloc::boxed::Box<std::io::error::Custom>>::Os" = type { [1 x i32], i32 }
%"std::io::error::ErrorData<alloc::boxed::Box<std::io::error::Custom>>::SimpleMessage" = type { [1 x i64], ptr }
%"std::io::error::ErrorData<alloc::boxed::Box<std::io::error::Custom>>::Simple" = type { [1 x i8], i8 }
%"std::io::error::ErrorData<alloc::boxed::Box<std::io::error::Custom>>::Custom" = type { [1 x i64], ptr }
%"core::option::Option<std::ffi::os_str::OsString>" = type { i64, [2 x i64] }
%ProbeResult = type { %"core::option::Option<std::path::PathBuf>", %"core::option::Option<std::path::PathBuf>" }
%"core::result::Result<std::fs::Metadata, std::io::error::Error>::Err" = type { [1 x i64], ptr }
%"core::ops::control_flow::ControlFlow<std::path::PathBuf, core::convert::Infallible>::Break" = type { %"std::path::PathBuf" }
%"core::ops::control_flow::ControlFlow<core::ops::control_flow::ControlFlow<std::path::PathBuf, core::convert::Infallible>>" = type { i64, [2 x i64] }
%"core::ops::control_flow::ControlFlow<core::ops::control_flow::ControlFlow<&std::path::Path, core::convert::Infallible>>" = type { ptr, [1 x i64] }
%"core::alloc::layout::Layout" = type { i64, i64 }
%"core::result::Result<core::alloc::layout::Layout, core::alloc::layout::LayoutError>" = type { i64, [1 x i64] }
%"{closure@/users/zyuxuan/.cargo/registry/src/index.crates.io-6f17d22bba15001f/openssl-probe-0.1.5/src/lib.rs:94:21: 94:24}" = type {}
%"core::result::Result<std::sys::pal::unix::fs::FileAttr, std::io::error::Error>::Err" = type { [1 x i64], ptr }
%"core::result::Result<core::ptr::non_null::NonNull<[u8]>, alloc::collections::TryReserveError>" = type { i64, [2 x i64] }
%"core::ptr::non_null::NonNull<[u8]>" = type { { ptr, i64 } }
%"core::alloc::AllocError" = type {}
%"core::result::Result<core::ptr::non_null::NonNull<[u8]>, core::alloc::AllocError>" = type { ptr, [1 x i64] }
%"core::result::Result<core::ptr::non_null::NonNull<[u8]>, alloc::collections::TryReserveError>::Ok" = type { [1 x i64], %"core::ptr::non_null::NonNull<[u8]>" }
%"core::result::Result<core::ptr::non_null::NonNull<[u8]>, alloc::collections::TryReserveError>::Err" = type { [1 x i64], %"alloc::collections::TryReserveError" }
%"alloc::collections::TryReserveError" = type { %"alloc::collections::TryReserveErrorKind" }
%"alloc::collections::TryReserveErrorKind" = type { i64, [1 x i64] }
%"core::result::Result<core::alloc::layout::Layout, alloc::collections::TryReserveErrorKind>" = type { i64, [2 x i64] }
%"core::alloc::layout::LayoutError" = type {}
%"{closure@alloc::raw_vec::finish_grow<alloc::alloc::Global>::{closure#0}}" = type {}
%"core::result::Result<core::alloc::layout::Layout, alloc::collections::TryReserveErrorKind>::Ok" = type { [1 x i64], %"core::alloc::layout::Layout" }
%"core::result::Result<core::alloc::layout::Layout, alloc::collections::TryReserveErrorKind>::Err" = type { [1 x i64], %"alloc::collections::TryReserveErrorKind" }
%"{closure@alloc::raw_vec::handle_reserve::{closure#0}}" = type {}
%"core::result::Result<(), alloc::collections::TryReserveErrorKind>" = type { i64, [1 x i64] }
%"core::result::Result<(), alloc::collections::TryReserveError>" = type { i64, [1 x i64] }
%"core::ptr::metadata::PtrComponents<[u8]>" = type { ptr, i64 }
%"core::ptr::metadata::PtrRepr<[u8]>" = type { [2 x i64] }
%"core::result::Result<core::convert::Infallible, core::alloc::AllocError>::Err" = type { %"core::alloc::AllocError" }
%"core::ops::control_flow::ControlFlow<core::result::Result<core::convert::Infallible, core::alloc::AllocError>, core::ptr::non_null::NonNull<[u8]>>" = type { ptr, [1 x i64] }
%"core::result::Result<core::convert::Infallible, alloc::collections::TryReserveErrorKind>::Err" = type { %"alloc::collections::TryReserveErrorKind" }
%"core::result::Result<core::convert::Infallible, alloc::collections::TryReserveError>::Err" = type { %"alloc::collections::TryReserveError" }
%"core::ops::control_flow::ControlFlow<core::result::Result<core::convert::Infallible, alloc::collections::TryReserveError>>" = type { i64, [1 x i64] }
%"core::ops::control_flow::ControlFlow<core::result::Result<core::convert::Infallible, alloc::collections::TryReserveErrorKind>, core::alloc::layout::Layout>" = type { i64, [2 x i64] }
%"core::ops::control_flow::ControlFlow<core::result::Result<core::convert::Infallible, alloc::collections::TryReserveErrorKind>, core::alloc::layout::Layout>::Continue" = type { [1 x i64], %"core::alloc::layout::Layout" }
%"core::ops::control_flow::ControlFlow<core::result::Result<core::convert::Infallible, alloc::collections::TryReserveErrorKind>, core::alloc::layout::Layout>::Break" = type { [1 x i64], %"core::result::Result<core::convert::Infallible, alloc::collections::TryReserveErrorKind>::Err" }
%"core::option::Option<(core::ptr::non_null::NonNull<u8>, core::alloc::layout::Layout)>" = type { [1 x i64], i64, [1 x i64] }
%"core::ops::control_flow::ControlFlow<core::result::Result<core::convert::Infallible, alloc::collections::TryReserveError>, core::ptr::non_null::NonNull<[u8]>>" = type { i64, [2 x i64] }
%"core::result::Result<usize, alloc::collections::TryReserveErrorKind>" = type { i64, [1 x i64] }
%"core::ops::control_flow::ControlFlow<core::result::Result<core::convert::Infallible, alloc::collections::TryReserveErrorKind>, usize>" = type { i64, [1 x i64] }
%"core::result::Result<usize, alloc::collections::TryReserveErrorKind>::Ok" = type { [1 x i64], i64 }
%"core::ops::control_flow::ControlFlow<core::result::Result<core::convert::Infallible, alloc::collections::TryReserveErrorKind>, usize>::Continue" = type { [1 x i64], i64 }
%"core::ops::control_flow::ControlFlow<core::result::Result<core::convert::Infallible, alloc::collections::TryReserveError>, core::ptr::non_null::NonNull<[u8]>>::Continue" = type { [1 x i64], %"core::ptr::non_null::NonNull<[u8]>" }
%"core::ops::control_flow::ControlFlow<core::result::Result<core::convert::Infallible, alloc::collections::TryReserveError>, core::ptr::non_null::NonNull<[u8]>>::Break" = type { [1 x i64], %"core::result::Result<core::convert::Infallible, alloc::collections::TryReserveError>::Err" }
%"core::ops::range::RangeFull" = type {}
%"core::ptr::metadata::PtrComponents<[std::path::PathBuf]>" = type { ptr, i64 }
%"core::ptr::metadata::PtrRepr<[std::path::PathBuf]>" = type { [2 x i64] }
%"core::ptr::non_null::NonNull<dyn core::error::Error + core::marker::Send + core::marker::Sync>" = type { { ptr, ptr } }
%"{closure@/users/zyuxuan/.cargo/registry/src/index.crates.io-6f17d22bba15001f/openssl-probe-0.1.5/src/lib.rs:91:15: 91:21}" = type {}

@0 = private unnamed_addr constant <{ [8 x i8], [8 x i8] }> <{ [8 x i8] c"\02\00\00\00\00\00\00\00", [8 x i8] undef }>, align 8
@1 = private unnamed_addr constant <{ [16 x i8] }> <{ [16 x i8] c"\00\00\00\00\00\00\00\00\12\00\00\00\00\00\00\00" }>, align 8
@alloc_a500d906b91607583596fa15e63c2ada = private unnamed_addr constant <{ [40 x i8] }> <{ [40 x i8] c"internal error: entered unreachable code" }>, align 1
@alloc_4dc3c9a7f2fb38379b849190ec5adafd = private unnamed_addr constant <{ [90 x i8] }> <{ [90 x i8] c"/rustc/aedd173a2c086e558c2b66d3743b344f977621a7/library/std/src/io/error/repr_bitpacked.rs" }>, align 1
@alloc_5f9ca26e4863825896f7978e113f791b = private unnamed_addr constant <{ ptr, [16 x i8] }> <{ ptr @alloc_4dc3c9a7f2fb38379b849190ec5adafd, [16 x i8] c"Z\00\00\00\00\00\00\00\17\01\00\00\0D\00\00\00" }>, align 8
@alloc_4713d75e44433589dc609fdbfa49699b = private unnamed_addr constant <{ [80 x i8] }> <{ [80 x i8] c"/rustc/aedd173a2c086e558c2b66d3743b344f977621a7/library/core/src/alloc/layout.rs" }>, align 1
@alloc_37f08cc86d215bcabda8bef18acdfc7b = private unnamed_addr constant <{ ptr, [16 x i8] }> <{ ptr @alloc_4713d75e44433589dc609fdbfa49699b, [16 x i8] c"P\00\00\00\00\00\00\00\C1\01\00\00)\00\00\00" }>, align 8
@str.0 = internal unnamed_addr constant [25 x i8] c"attempt to divide by zero"
@2 = private unnamed_addr constant <{ [8 x i8], [8 x i8] }> <{ [8 x i8] zeroinitializer, [8 x i8] undef }>, align 8
@__rust_no_alloc_shim_is_unstable = external global i8
@3 = private unnamed_addr constant <{ [8 x i8], [8 x i8] }> <{ [8 x i8] c"\01\00\00\00\00\00\00\80", [8 x i8] undef }>, align 8
@alloc_ec595fc0e82ef92fc59bd74f68296eae = private unnamed_addr constant <{ [73 x i8] }> <{ [73 x i8] c"assertion failed: 0 < pointee_size && pointee_size <= isize::MAX as usize" }>, align 1
@alloc_4932f39bd283994f8d3e764cc620ee52 = private unnamed_addr constant <{ [81 x i8] }> <{ [81 x i8] c"/rustc/aedd173a2c086e558c2b66d3743b344f977621a7/library/core/src/ptr/const_ptr.rs" }>, align 1
@alloc_768f4da2d83915fa9ce0d03164202475 = private unnamed_addr constant <{ ptr, [16 x i8] }> <{ ptr @alloc_4932f39bd283994f8d3e764cc620ee52, [16 x i8] c"Q\00\00\00\00\00\00\004\03\00\00\09\00\00\00" }>, align 8
@alloc_0aaa793f14b71837a2b49c7a7731a08f = private unnamed_addr constant <{ [8 x i8] }> <{ [8 x i8] c"/var/ssl" }>, align 1
@alloc_7072725b4da4eda1ce2e8085f840601c = private unnamed_addr constant <{ [14 x i8] }> <{ [14 x i8] c"/usr/share/ssl" }>, align 1
@alloc_9f178191745026770c0a72f5b6c476a3 = private unnamed_addr constant <{ [14 x i8] }> <{ [14 x i8] c"/usr/local/ssl" }>, align 1
@alloc_499b2518f89a7dbc818cad1f4ed61e10 = private unnamed_addr constant <{ [18 x i8] }> <{ [18 x i8] c"/usr/local/openssl" }>, align 1
@alloc_53ea577903c82d73dfb085973ce051c7 = private unnamed_addr constant <{ [22 x i8] }> <{ [22 x i8] c"/usr/local/etc/openssl" }>, align 1
@alloc_36bb0c4daac6624eb2c27fe1d106038e = private unnamed_addr constant <{ [16 x i8] }> <{ [16 x i8] c"/usr/local/share" }>, align 1
@alloc_09618a7d828a4dc8fad376870e472af2 = private unnamed_addr constant <{ [12 x i8] }> <{ [12 x i8] c"/usr/lib/ssl" }>, align 1
@alloc_6952f062794c6ed8b8f35c67fb97fc9f = private unnamed_addr constant <{ [8 x i8] }> <{ [8 x i8] c"/usr/ssl" }>, align 1
@alloc_ba64521aaa84b593c23fc86ab4ea70b1 = private unnamed_addr constant <{ [12 x i8] }> <{ [12 x i8] c"/etc/openssl" }>, align 1
@alloc_03106fbc3230e776ec7984c582528eab = private unnamed_addr constant <{ [31 x i8] }> <{ [31 x i8] c"/etc/pki/ca-trust/extracted/pem" }>, align 1
@alloc_cae50cb6af4b67e14096aa93461bdd04 = private unnamed_addr constant <{ [12 x i8] }> <{ [12 x i8] c"/etc/pki/tls" }>, align 1
@alloc_27747257b0dc0cfa2766b9aa5ad8845b = private unnamed_addr constant <{ [8 x i8] }> <{ [8 x i8] c"/etc/ssl" }>, align 1
@alloc_e65eee70d52c28fbfdfa80b8addc4ae4 = private unnamed_addr constant <{ [10 x i8] }> <{ [10 x i8] c"/etc/certs" }>, align 1
@alloc_af10d76d145ed94fb84006c08c75dfb3 = private unnamed_addr constant <{ [12 x i8] }> <{ [12 x i8] c"/opt/etc/ssl" }>, align 1
@alloc_3c93351123806a0f350a57d10c59fab9 = private unnamed_addr constant <{ [39 x i8] }> <{ [39 x i8] c"/data/data/com.termux/files/usr/etc/tls" }>, align 1
@alloc_a13f1e546c0cb92b80e832d889943433 = private unnamed_addr constant <{ [21 x i8] }> <{ [21 x i8] c"/boot/system/data/ssl" }>, align 1
@alloc_72e4d89497e27e2f68dca9b61c2e23c5 = private unnamed_addr constant <{ ptr, [8 x i8], ptr, [8 x i8], ptr, [8 x i8], ptr, [8 x i8], ptr, [8 x i8], ptr, [8 x i8], ptr, [8 x i8], ptr, [8 x i8], ptr, [8 x i8], ptr, [8 x i8], ptr, [8 x i8], ptr, [8 x i8], ptr, [8 x i8], ptr, [8 x i8], ptr, [8 x i8], ptr, [8 x i8] }> <{ ptr @alloc_0aaa793f14b71837a2b49c7a7731a08f, [8 x i8] c"\08\00\00\00\00\00\00\00", ptr @alloc_7072725b4da4eda1ce2e8085f840601c, [8 x i8] c"\0E\00\00\00\00\00\00\00", ptr @alloc_9f178191745026770c0a72f5b6c476a3, [8 x i8] c"\0E\00\00\00\00\00\00\00", ptr @alloc_499b2518f89a7dbc818cad1f4ed61e10, [8 x i8] c"\12\00\00\00\00\00\00\00", ptr @alloc_53ea577903c82d73dfb085973ce051c7, [8 x i8] c"\16\00\00\00\00\00\00\00", ptr @alloc_36bb0c4daac6624eb2c27fe1d106038e, [8 x i8] c"\10\00\00\00\00\00\00\00", ptr @alloc_09618a7d828a4dc8fad376870e472af2, [8 x i8] c"\0C\00\00\00\00\00\00\00", ptr @alloc_6952f062794c6ed8b8f35c67fb97fc9f, [8 x i8] c"\08\00\00\00\00\00\00\00", ptr @alloc_ba64521aaa84b593c23fc86ab4ea70b1, [8 x i8] c"\0C\00\00\00\00\00\00\00", ptr @alloc_03106fbc3230e776ec7984c582528eab, [8 x i8] c"\1F\00\00\00\00\00\00\00", ptr @alloc_cae50cb6af4b67e14096aa93461bdd04, [8 x i8] c"\0C\00\00\00\00\00\00\00", ptr @alloc_27747257b0dc0cfa2766b9aa5ad8845b, [8 x i8] c"\08\00\00\00\00\00\00\00", ptr @alloc_e65eee70d52c28fbfdfa80b8addc4ae4, [8 x i8] c"\0A\00\00\00\00\00\00\00", ptr @alloc_af10d76d145ed94fb84006c08c75dfb3, [8 x i8] c"\0C\00\00\00\00\00\00\00", ptr @alloc_3c93351123806a0f350a57d10c59fab9, [8 x i8] c"'\00\00\00\00\00\00\00", ptr @alloc_a13f1e546c0cb92b80e832d889943433, [8 x i8] c"\15\00\00\00\00\00\00\00" }>, align 8
@alloc_4d5b3abc28835ce333de64bd62b7a110 = private unnamed_addr constant <{ [13 x i8] }> <{ [13 x i8] c"SSL_CERT_FILE" }>, align 1
@alloc_89af4c4b5204be89189007fa3aef3004 = private unnamed_addr constant <{ [12 x i8] }> <{ [12 x i8] c"SSL_CERT_DIR" }>, align 1
@alloc_fe9490333e76dfa936696da9e39ebeaf = private unnamed_addr constant <{ [9 x i8] }> <{ [9 x i8] c"certs.pem" }>, align 1
@alloc_e1a6c885e35e1c18363156978a45e838 = private unnamed_addr constant <{ [13 x i8] }> <{ [13 x i8] c"ca-bundle.pem" }>, align 1
@alloc_f673ac9686f226f4a415bec0ec0c42e3 = private unnamed_addr constant <{ [10 x i8] }> <{ [10 x i8] c"cacert.pem" }>, align 1
@alloc_c41f8670b0fcad3cdd5151b0c15834ac = private unnamed_addr constant <{ [19 x i8] }> <{ [19 x i8] c"ca-certificates.crt" }>, align 1
@alloc_aef54dbaa19c0bb6fd33988702e3297b = private unnamed_addr constant <{ [25 x i8] }> <{ [25 x i8] c"certs/ca-certificates.crt" }>, align 1
@alloc_8f0a55cddb91d83e1aa0e944b4f859c5 = private unnamed_addr constant <{ [21 x i8] }> <{ [21 x i8] c"certs/ca-root-nss.crt" }>, align 1
@alloc_368c22d445439c4ea7a405271a165222 = private unnamed_addr constant <{ [19 x i8] }> <{ [19 x i8] c"certs/ca-bundle.crt" }>, align 1
@alloc_b8e640d1054b918985752d973a8d74ae = private unnamed_addr constant <{ [22 x i8] }> <{ [22 x i8] c"CARootCertificates.pem" }>, align 1
@alloc_58e6534a912348faf2b6f4192bbdb5b3 = private unnamed_addr constant <{ [17 x i8] }> <{ [17 x i8] c"tls-ca-bundle.pem" }>, align 1
@alloc_3b516e8959ffbda39ab1cc84dd62ee65 = private unnamed_addr constant <{ [8 x i8] }> <{ [8 x i8] c"cert.pem" }>, align 1
@alloc_0982e80fa4005f06f27a9262b729f11b = private unnamed_addr constant <{ [5 x i8] }> <{ [5 x i8] c"certs" }>, align 1

; <core::iter::adapters::map::Map<I,F> as core::iter::traits::iterator::Iterator>::next
; Function Attrs: inlinehint nonlazybind uwtable
define void @"_ZN102_$LT$core..iter..adapters..map..Map$LT$I$C$F$GT$$u20$as$u20$core..iter..traits..iterator..Iterator$GT$4next17h7c94f29abff23b72E"(ptr sret(%"core::option::Option<std::path::PathBuf>") align 8 %_0, ptr align 8 %self) unnamed_addr #0 !dbg !153 {
start:
  %x.dbg.spill = alloca { ptr, i64 }, align 8
  %f.dbg.spill = alloca ptr, align 8
  %self.dbg.spill = alloca ptr, align 8
  %_8 = alloca { { ptr, i64 } }, align 8
  %_7 = alloca %"std::path::PathBuf", align 8
  %self1 = alloca %"core::option::Option<&std::path::Path>", align 8
  store ptr %self, ptr %self.dbg.spill, align 8
  call void @llvm.dbg.declare(metadata ptr %self.dbg.spill, metadata !292, metadata !DIExpression()), !dbg !295
  call void @llvm.dbg.declare(metadata ptr %self1, metadata !296, metadata !DIExpression()), !dbg !324
; call <core::iter::adapters::filter::Filter<I,P> as core::iter::traits::iterator::Iterator>::next
  %0 = call { ptr, i64 } @"_ZN108_$LT$core..iter..adapters..filter..Filter$LT$I$C$P$GT$$u20$as$u20$core..iter..traits..iterator..Iterator$GT$4next17h3ffe2f22b2b24bbdE"(ptr align 8 %self), !dbg !326
  %1 = extractvalue { ptr, i64 } %0, 0, !dbg !326
  %2 = extractvalue { ptr, i64 } %0, 1, !dbg !326
  store ptr %1, ptr %self1, align 8, !dbg !326
  %3 = getelementptr inbounds i8, ptr %self1, i64 8, !dbg !326
  store i64 %2, ptr %3, align 8, !dbg !326
  %f = getelementptr inbounds i8, ptr %self, i64 16, !dbg !327
  store ptr %f, ptr %f.dbg.spill, align 8, !dbg !327
  call void @llvm.dbg.declare(metadata ptr %f.dbg.spill, metadata !321, metadata !DIExpression()), !dbg !328
  %4 = load ptr, ptr %self1, align 8, !dbg !329, !noundef !168
  %5 = ptrtoint ptr %4 to i64, !dbg !329
  %6 = icmp eq i64 %5, 0, !dbg !329
  %_5 = select i1 %6, i64 0, i64 1, !dbg !329
  %7 = icmp eq i64 %_5, 0, !dbg !330
  br i1 %7, label %bb2, label %bb4, !dbg !330

bb2:                                              ; preds = %start
  store i64 -9223372036854775808, ptr %_0, align 8, !dbg !331
  br label %bb6, !dbg !331

bb4:                                              ; preds = %start
  %x.0 = load ptr, ptr %self1, align 8, !dbg !332, !nonnull !168, !align !333, !noundef !168
  %8 = getelementptr inbounds i8, ptr %self1, i64 8, !dbg !332
  %x.1 = load i64, ptr %8, align 8, !dbg !332, !noundef !168
  store ptr %x.0, ptr %x.dbg.spill, align 8, !dbg !332
  %9 = getelementptr inbounds i8, ptr %x.dbg.spill, i64 8, !dbg !332
  store i64 %x.1, ptr %9, align 8, !dbg !332
  call void @llvm.dbg.declare(metadata ptr %x.dbg.spill, metadata !322, metadata !DIExpression()), !dbg !334
  store ptr %x.0, ptr %_8, align 8, !dbg !335
  %10 = getelementptr inbounds i8, ptr %_8, i64 8, !dbg !335
  store i64 %x.1, ptr %10, align 8, !dbg !335
  %11 = load ptr, ptr %_8, align 8, !dbg !335, !nonnull !168, !align !333, !noundef !168
  %12 = getelementptr inbounds i8, ptr %_8, i64 8, !dbg !335
  %13 = load i64, ptr %12, align 8, !dbg !335, !noundef !168
; call core::ops::function::impls::<impl core::ops::function::FnOnce<A> for &mut F>::call_once
  call void @"_ZN4core3ops8function5impls80_$LT$impl$u20$core..ops..function..FnOnce$LT$A$GT$$u20$for$u20$$RF$mut$u20$F$GT$9call_once17hc4c4c011a599c2e8E"(ptr sret(%"std::path::PathBuf") align 8 %_7, ptr align 1 %f, ptr align 1 %11, i64 %13), !dbg !335
  call void @llvm.memcpy.p0.p0.i64(ptr align 8 %_0, ptr align 8 %_7, i64 24, i1 false), !dbg !336
  br label %bb6, !dbg !337

bb6:                                              ; preds = %bb4, %bb2
  ret void, !dbg !338

bb3:                                              ; No predecessors!
  unreachable, !dbg !329
}

; <core::iter::adapters::map::Map<I,F> as core::iter::traits::iterator::Iterator>::try_fold
; Function Attrs: nonlazybind uwtable
define { ptr, i64 } @"_ZN102_$LT$core..iter..adapters..map..Map$LT$I$C$F$GT$$u20$as$u20$core..iter..traits..iterator..Iterator$GT$8try_fold17h234d206d6f7094a8E"(ptr align 8 %self, ptr align 1 %g) unnamed_addr #1 !dbg !339 {
start:
  %f.dbg.spill = alloca ptr, align 8
  %g.dbg.spill = alloca ptr, align 8
  %init.dbg.spill = alloca {}, align 1
  %self.dbg.spill = alloca ptr, align 8
  %_5 = alloca %"{closure@core::iter::adapters::map::map_try_fold<'_, &&str, &std::path::Path, (), core::ops::control_flow::ControlFlow<&std::path::Path>, for<'a> fn(&'a &str) -> &'a std::path::Path {std::path::Path::new::<&str>}, {closure@core::iter::traits::iterator::Iterator::find::check<&std::path::Path, &mut {closure@/users/zyuxuan/.cargo/registry/src/index.crates.io-6f17d22bba15001f/openssl-probe-0.1.5/src/lib.rs:44:35: 44:38}>::{closure#0}}>::{closure#0}}", align 8
  store ptr %self, ptr %self.dbg.spill, align 8
  call void @llvm.dbg.declare(metadata ptr %self.dbg.spill, metadata !372, metadata !DIExpression()), !dbg !379
  call void @llvm.dbg.declare(metadata ptr %init.dbg.spill, metadata !373, metadata !DIExpression()), !dbg !380
  store ptr %g, ptr %g.dbg.spill, align 8
  call void @llvm.dbg.declare(metadata ptr %g.dbg.spill, metadata !374, metadata !DIExpression()), !dbg !381
  call void @llvm.dbg.declare(metadata ptr %g.dbg.spill, metadata !382, metadata !DIExpression()), !dbg !398
  %f = getelementptr inbounds i8, ptr %self, i64 16, !dbg !400
  store ptr %f, ptr %f.dbg.spill, align 8, !dbg !400
  call void @llvm.dbg.declare(metadata ptr %f.dbg.spill, metadata !394, metadata !DIExpression()), !dbg !401
  store ptr %g, ptr %_5, align 8, !dbg !402
  %0 = getelementptr inbounds i8, ptr %_5, i64 8, !dbg !402
  store ptr %f, ptr %0, align 8, !dbg !402
  %1 = load ptr, ptr %_5, align 8, !dbg !403, !nonnull !168, !align !333, !noundef !168
  %2 = getelementptr inbounds i8, ptr %_5, i64 8, !dbg !403
  %3 = load ptr, ptr %2, align 8, !dbg !403, !nonnull !168, !align !333, !noundef !168
; call core::iter::traits::iterator::Iterator::try_fold
  %4 = call { ptr, i64 } @_ZN4core4iter6traits8iterator8Iterator8try_fold17hb4b6bb2cdbb20184E(ptr align 8 %self, ptr align 1 %1, ptr align 1 %3), !dbg !403
  %_0.0 = extractvalue { ptr, i64 } %4, 0, !dbg !403
  %_0.1 = extractvalue { ptr, i64 } %4, 1, !dbg !403
  %5 = insertvalue { ptr, i64 } poison, ptr %_0.0, 0, !dbg !404
  %6 = insertvalue { ptr, i64 } %5, i64 %_0.1, 1, !dbg !404
  ret { ptr, i64 } %6, !dbg !404
}

; <core::iter::adapters::map::Map<I,F> as core::iter::traits::iterator::Iterator>::try_fold
; Function Attrs: nonlazybind uwtable
define void @"_ZN102_$LT$core..iter..adapters..map..Map$LT$I$C$F$GT$$u20$as$u20$core..iter..traits..iterator..Iterator$GT$8try_fold17he5dc50d363cd171cE"(ptr sret(%"core::ops::control_flow::ControlFlow<std::path::PathBuf>") align 8 %_0, ptr align 8 %self) unnamed_addr #1 !dbg !405 {
start:
  %f.dbg.spill = alloca ptr, align 8
  %g.dbg.spill = alloca %"{closure@core::iter::traits::iterator::Iterator::find::check<std::path::PathBuf, {closure@/users/zyuxuan/.cargo/registry/src/index.crates.io-6f17d22bba15001f/openssl-probe-0.1.5/src/lib.rs:123:23: 123:26}>::{closure#0}}", align 1
  %init.dbg.spill = alloca {}, align 1
  %self.dbg.spill = alloca ptr, align 8
  %_5 = alloca ptr, align 8
  store ptr %self, ptr %self.dbg.spill, align 8
  call void @llvm.dbg.declare(metadata ptr %self.dbg.spill, metadata !439, metadata !DIExpression()), !dbg !445
  call void @llvm.dbg.declare(metadata ptr %init.dbg.spill, metadata !440, metadata !DIExpression()), !dbg !446
  call void @llvm.dbg.declare(metadata ptr %g.dbg.spill, metadata !441, metadata !DIExpression()), !dbg !447
  call void @llvm.dbg.declare(metadata ptr %g.dbg.spill, metadata !448, metadata !DIExpression()), !dbg !463
  %f = getelementptr inbounds %"core::iter::adapters::map::Map<core::slice::iter::Iter<'_, &str>, {closure@/users/zyuxuan/.cargo/registry/src/index.crates.io-6f17d22bba15001f/openssl-probe-0.1.5/src/lib.rs:122:22: 122:29}>", ptr %self, i32 0, i32 1, !dbg !465
  store ptr %f, ptr %f.dbg.spill, align 8, !dbg !465
  call void @llvm.dbg.declare(metadata ptr %f.dbg.spill, metadata !459, metadata !DIExpression()), !dbg !466
  store ptr %f, ptr %_5, align 8, !dbg !467
  %0 = load ptr, ptr %_5, align 8, !dbg !468, !nonnull !168, !align !469, !noundef !168
; call core::iter::traits::iterator::Iterator::try_fold
  call void @_ZN4core4iter6traits8iterator8Iterator8try_fold17h478732c487de3fc6E(ptr sret(%"core::ops::control_flow::ControlFlow<std::path::PathBuf>") align 8 %_0, ptr align 8 %self, ptr align 8 %0), !dbg !468
  ret void, !dbg !470
}

; <core::iter::adapters::map::Map<I,F> as core::iter::traits::iterator::Iterator>::size_hint
; Function Attrs: inlinehint nonlazybind uwtable
define void @"_ZN102_$LT$core..iter..adapters..map..Map$LT$I$C$F$GT$$u20$as$u20$core..iter..traits..iterator..Iterator$GT$9size_hint17h8fa1c98cca050b4dE"(ptr sret({ i64, %"core::option::Option<usize>" }) align 8 %_0, ptr align 8 %self) unnamed_addr #0 !dbg !471 {
start:
  %self.dbg.spill = alloca ptr, align 8
  store ptr %self, ptr %self.dbg.spill, align 8
  call void @llvm.dbg.declare(metadata ptr %self.dbg.spill, metadata !493, metadata !DIExpression()), !dbg !494
; call <core::iter::adapters::filter::Filter<I,P> as core::iter::traits::iterator::Iterator>::size_hint
  call void @"_ZN108_$LT$core..iter..adapters..filter..Filter$LT$I$C$P$GT$$u20$as$u20$core..iter..traits..iterator..Iterator$GT$9size_hint17h90e2c10bca69c82eE"(ptr sret({ i64, %"core::option::Option<usize>" }) align 8 %_0, ptr align 8 %self), !dbg !495
  ret void, !dbg !496
}

; <core::iter::adapters::map::Map<I,F> as core::iter::traits::iterator::Iterator>::size_hint
; Function Attrs: inlinehint nonlazybind uwtable
define void @"_ZN102_$LT$core..iter..adapters..map..Map$LT$I$C$F$GT$$u20$as$u20$core..iter..traits..iterator..Iterator$GT$9size_hint17he5d1db28871375ecE"(ptr sret({ i64, %"core::option::Option<usize>" }) align 8 %_0, ptr align 8 %self) unnamed_addr #0 !dbg !497 {
start:
  %self.dbg.spill = alloca ptr, align 8
  store ptr %self, ptr %self.dbg.spill, align 8
  call void @llvm.dbg.declare(metadata ptr %self.dbg.spill, metadata !502, metadata !DIExpression()), !dbg !504
; call <core::slice::iter::Iter<T> as core::iter::traits::iterator::Iterator>::size_hint
  call void @"_ZN91_$LT$core..slice..iter..Iter$LT$T$GT$$u20$as$u20$core..iter..traits..iterator..Iterator$GT$9size_hint17h003e40c373371d08E"(ptr sret({ i64, %"core::option::Option<usize>" }) align 8 %_0, ptr align 8 %self), !dbg !505
  ret void, !dbg !506
}

; <core::ops::control_flow::ControlFlow<B,C> as core::ops::try_trait::FromResidual>::from_residual
; Function Attrs: inlinehint nonlazybind uwtable
define { ptr, i64 } @"_ZN104_$LT$core..ops..control_flow..ControlFlow$LT$B$C$C$GT$$u20$as$u20$core..ops..try_trait..FromResidual$GT$13from_residual17h03281c423b484fa4E"(ptr align 1 %0, i64 %1) unnamed_addr #0 !dbg !507 {
start:
  %b.dbg.spill = alloca { ptr, i64 }, align 8
  %_0 = alloca %"core::ops::control_flow::ControlFlow<&std::path::Path>", align 8
  %residual = alloca %"core::ops::control_flow::ControlFlow<&std::path::Path, core::convert::Infallible>::Break", align 8
  store ptr %0, ptr %residual, align 8
  %2 = getelementptr inbounds i8, ptr %residual, i64 8
  store i64 %1, ptr %2, align 8
  call void @llvm.dbg.declare(metadata ptr %residual, metadata !531, metadata !DIExpression()), !dbg !534
  %b.0 = load ptr, ptr %residual, align 8, !dbg !535, !nonnull !168, !align !333, !noundef !168
  %3 = getelementptr inbounds i8, ptr %residual, i64 8, !dbg !535
  %b.1 = load i64, ptr %3, align 8, !dbg !535, !noundef !168
  store ptr %b.0, ptr %b.dbg.spill, align 8, !dbg !535
  %4 = getelementptr inbounds i8, ptr %b.dbg.spill, i64 8, !dbg !535
  store i64 %b.1, ptr %4, align 8, !dbg !535
  call void @llvm.dbg.declare(metadata ptr %b.dbg.spill, metadata !532, metadata !DIExpression()), !dbg !536
  store ptr %b.0, ptr %_0, align 8, !dbg !537
  %5 = getelementptr inbounds i8, ptr %_0, i64 8, !dbg !537
  store i64 %b.1, ptr %5, align 8, !dbg !537
  %6 = load ptr, ptr %_0, align 8, !dbg !538, !align !333, !noundef !168
  %7 = getelementptr inbounds i8, ptr %_0, i64 8, !dbg !538
  %8 = load i64, ptr %7, align 8, !dbg !538
  %9 = insertvalue { ptr, i64 } poison, ptr %6, 0, !dbg !538
  %10 = insertvalue { ptr, i64 } %9, i64 %8, 1, !dbg !538
  ret { ptr, i64 } %10, !dbg !538
}

; <core::ops::control_flow::ControlFlow<B,C> as core::ops::try_trait::FromResidual>::from_residual
; Function Attrs: inlinehint nonlazybind uwtable
define void @"_ZN104_$LT$core..ops..control_flow..ControlFlow$LT$B$C$C$GT$$u20$as$u20$core..ops..try_trait..FromResidual$GT$13from_residual17hd0e7d64dfd160a44E"(ptr sret(%"core::ops::control_flow::ControlFlow<std::path::PathBuf>") align 8 %_0, ptr align 8 %residual) unnamed_addr #0 !dbg !539 {
start:
  %b = alloca %"std::path::PathBuf", align 8
  call void @llvm.dbg.declare(metadata ptr %residual, metadata !556, metadata !DIExpression()), !dbg !559
  call void @llvm.dbg.declare(metadata ptr %b, metadata !557, metadata !DIExpression()), !dbg !560
  call void @llvm.memcpy.p0.p0.i64(ptr align 8 %b, ptr align 8 %residual, i64 24, i1 false), !dbg !561
  call void @llvm.memcpy.p0.p0.i64(ptr align 8 %_0, ptr align 8 %b, i64 24, i1 false), !dbg !562
  ret void, !dbg !563
}

; <core::iter::adapters::filter::Filter<I,P> as core::iter::traits::iterator::Iterator>::next
; Function Attrs: inlinehint nonlazybind uwtable
define { ptr, i64 } @"_ZN108_$LT$core..iter..adapters..filter..Filter$LT$I$C$P$GT$$u20$as$u20$core..iter..traits..iterator..Iterator$GT$4next17h3ffe2f22b2b24bbdE"(ptr align 8 %self) unnamed_addr #0 !dbg !564 {
start:
  %self.dbg.spill = alloca ptr, align 8
  store ptr %self, ptr %self.dbg.spill, align 8
  call void @llvm.dbg.declare(metadata ptr %self.dbg.spill, metadata !571, metadata !DIExpression()), !dbg !572
  %_3 = getelementptr inbounds i8, ptr %self, i64 16, !dbg !573
; call core::iter::traits::iterator::Iterator::find
  %0 = call { ptr, i64 } @_ZN4core4iter6traits8iterator8Iterator4find17hea5fb85bed9a8c46E(ptr align 8 %self, ptr align 1 %_3), !dbg !574
  %_0.0 = extractvalue { ptr, i64 } %0, 0, !dbg !574
  %_0.1 = extractvalue { ptr, i64 } %0, 1, !dbg !574
  %1 = insertvalue { ptr, i64 } poison, ptr %_0.0, 0, !dbg !575
  %2 = insertvalue { ptr, i64 } %1, i64 %_0.1, 1, !dbg !575
  ret { ptr, i64 } %2, !dbg !575
}

; <core::iter::adapters::filter::Filter<I,P> as core::iter::traits::iterator::Iterator>::size_hint
; Function Attrs: inlinehint nonlazybind uwtable
define void @"_ZN108_$LT$core..iter..adapters..filter..Filter$LT$I$C$P$GT$$u20$as$u20$core..iter..traits..iterator..Iterator$GT$9size_hint17h90e2c10bca69c82eE"(ptr sret({ i64, %"core::option::Option<usize>" }) align 8 %_0, ptr align 8 %self) unnamed_addr #0 !dbg !576 {
start:
  %upper.dbg.spill = alloca %"core::option::Option<usize>", align 8
  %self.dbg.spill = alloca ptr, align 8
  %_3 = alloca { i64, %"core::option::Option<usize>" }, align 8
  store ptr %self, ptr %self.dbg.spill, align 8
  call void @llvm.dbg.declare(metadata ptr %self.dbg.spill, metadata !581, metadata !DIExpression()), !dbg !584
; call <core::iter::adapters::map::Map<I,F> as core::iter::traits::iterator::Iterator>::size_hint
  call void @"_ZN102_$LT$core..iter..adapters..map..Map$LT$I$C$F$GT$$u20$as$u20$core..iter..traits..iterator..Iterator$GT$9size_hint17he5d1db28871375ecE"(ptr sret({ i64, %"core::option::Option<usize>" }) align 8 %_3, ptr align 8 %self), !dbg !585
  %0 = getelementptr inbounds { i64, %"core::option::Option<usize>" }, ptr %_3, i32 0, i32 1, !dbg !586
  %upper.0 = load i64, ptr %0, align 8, !dbg !586, !range !587, !noundef !168
  %1 = getelementptr inbounds i8, ptr %0, i64 8, !dbg !586
  %upper.1 = load i64, ptr %1, align 8, !dbg !586
  store i64 %upper.0, ptr %upper.dbg.spill, align 8, !dbg !586
  %2 = getelementptr inbounds i8, ptr %upper.dbg.spill, i64 8, !dbg !586
  store i64 %upper.1, ptr %2, align 8, !dbg !586
  call void @llvm.dbg.declare(metadata ptr %upper.dbg.spill, metadata !582, metadata !DIExpression()), !dbg !588
  store i64 0, ptr %_0, align 8, !dbg !589
  %3 = getelementptr inbounds { i64, %"core::option::Option<usize>" }, ptr %_0, i32 0, i32 1, !dbg !589
  store i64 %upper.0, ptr %3, align 8, !dbg !589
  %4 = getelementptr inbounds i8, ptr %3, i64 8, !dbg !589
  store i64 %upper.1, ptr %4, align 8, !dbg !589
  ret void, !dbg !590
}

; <alloc::vec::Vec<T> as alloc::vec::spec_from_iter_nested::SpecFromIterNested<T,I>>::from_iter
; Function Attrs: nonlazybind uwtable
define void @"_ZN111_$LT$alloc..vec..Vec$LT$T$GT$$u20$as$u20$alloc..vec..spec_from_iter_nested..SpecFromIterNested$LT$T$C$I$GT$$GT$9from_iter17h70c24d18d0dd955cE"(ptr sret(%"alloc::vec::Vec<std::path::PathBuf>") align 8 %_0, ptr %0, ptr %1) unnamed_addr #1 personality ptr @rust_eh_personality !dbg !591 {
start:
  %self.dbg.spill7 = alloca ptr, align 8
  %dst.dbg.spill = alloca ptr, align 8
  %self.dbg.spill6 = alloca ptr, align 8
  %self.dbg.spill5 = alloca ptr, align 8
  %self.dbg.spill4 = alloca ptr, align 8
  %initial_capacity.dbg.spill = alloca i64, align 8
  %v2.dbg.spill = alloca i64, align 8
  %2 = alloca i64, align 8
  %lower.dbg.spill = alloca i64, align 8
  %3 = alloca { ptr, i32, [1 x i32] }, align 8
  %_20 = alloca i8, align 1
  %src = alloca %"std::path::PathBuf", align 8
  %vector2 = alloca %"alloc::vec::Vec<std::path::PathBuf>", align 8
  %_8 = alloca { i64, %"core::option::Option<usize>" }, align 8
  %element = alloca %"std::path::PathBuf", align 8
  %_3 = alloca %"core::option::Option<std::path::PathBuf>", align 8
  %vector = alloca %"alloc::vec::Vec<std::path::PathBuf>", align 8
  %iterator = alloca %"core::iter::adapters::map::Map<core::iter::adapters::filter::Filter<core::iter::adapters::map::Map<core::slice::iter::Iter<'_, &str>, for<'a> fn(&'a &str) -> &'a std::path::Path {std::path::Path::new::<&str>}>, {closure@/users/zyuxuan/.cargo/registry/src/index.crates.io-6f17d22bba15001f/openssl-probe-0.1.5/src/lib.rs:44:35: 44:38}>, for<'a> fn(&'a std::path::Path) -> std::path::PathBuf {std::path::Path::to_path_buf}>", align 8
  %new_len.dbg.spill = alloca i64, align 8
  %alloc.dbg.spill1 = alloca %"alloc::alloc::Global", align 1
  %alloc.dbg.spill = alloca %"alloc::alloc::Global", align 1
  %self.dbg.spill = alloca i64, align 8
  %v1.dbg.spill = alloca i64, align 8
  %rhs.dbg.spill = alloca i64, align 8
  store i64 1, ptr %rhs.dbg.spill, align 8, !dbg !630
  call void @llvm.dbg.declare(metadata ptr %rhs.dbg.spill, metadata !642, metadata !DIExpression()), !dbg !630
  store i64 4, ptr %v1.dbg.spill, align 8, !dbg !644
  call void @llvm.dbg.declare(metadata ptr %v1.dbg.spill, metadata !649, metadata !DIExpression()), !dbg !644
  store i64 4, ptr %self.dbg.spill, align 8, !dbg !652
  call void @llvm.dbg.declare(metadata ptr %self.dbg.spill, metadata !657, metadata !DIExpression()), !dbg !652
  call void @llvm.dbg.declare(metadata ptr %alloc.dbg.spill, metadata !662, metadata !DIExpression()), !dbg !671
  call void @llvm.dbg.declare(metadata ptr %alloc.dbg.spill1, metadata !681, metadata !DIExpression()), !dbg !690
  store i64 1, ptr %new_len.dbg.spill, align 8, !dbg !692
  call void @llvm.dbg.declare(metadata ptr %new_len.dbg.spill, metadata !701, metadata !DIExpression()), !dbg !692
  store ptr %0, ptr %iterator, align 8, !dbg !692
  %4 = getelementptr inbounds i8, ptr %iterator, i64 8, !dbg !692
  store ptr %1, ptr %4, align 8, !dbg !692
  call void @llvm.dbg.declare(metadata ptr %iterator, metadata !617, metadata !DIExpression()), !dbg !703
  call void @llvm.dbg.declare(metadata ptr %vector, metadata !618, metadata !DIExpression()), !dbg !704
  call void @llvm.dbg.declare(metadata ptr %element, metadata !620, metadata !DIExpression()), !dbg !705
  call void @llvm.dbg.declare(metadata ptr %vector2, metadata !626, metadata !DIExpression()), !dbg !706
  call void @llvm.dbg.declare(metadata ptr %src, metadata !707, metadata !DIExpression()), !dbg !716
  store i8 1, ptr %_20, align 1, !dbg !718
; invoke <core::iter::adapters::map::Map<I,F> as core::iter::traits::iterator::Iterator>::next
  invoke void @"_ZN102_$LT$core..iter..adapters..map..Map$LT$I$C$F$GT$$u20$as$u20$core..iter..traits..iterator..Iterator$GT$4next17h7c94f29abff23b72E"(ptr sret(%"core::option::Option<std::path::PathBuf>") align 8 %_3, ptr align 8 %iterator)
          to label %bb1 unwind label %cleanup, !dbg !719

bb11:                                             ; preds = %bb9, %bb7, %cleanup
  %5 = load i8, ptr %_20, align 1, !dbg !720, !range !721, !noundef !168
  %6 = trunc i8 %5 to i1, !dbg !720
  br i1 %6, label %bb10, label %bb8, !dbg !720

cleanup:                                          ; preds = %start
  %7 = landingpad { ptr, i32 }
          cleanup
  %8 = extractvalue { ptr, i32 } %7, 0
  %9 = extractvalue { ptr, i32 } %7, 1
  store ptr %8, ptr %3, align 8
  %10 = getelementptr inbounds i8, ptr %3, i64 8
  store i32 %9, ptr %10, align 8
  br label %bb11

bb1:                                              ; preds = %start
  %11 = load i64, ptr %_3, align 8, !dbg !719, !range !722, !noundef !168
  %12 = icmp eq i64 %11, -9223372036854775808, !dbg !719
  %_5 = select i1 %12, i64 0, i64 1, !dbg !719
  %13 = icmp eq i64 %_5, 0, !dbg !723
  br i1 %13, label %bb12, label %bb2, !dbg !723

bb12:                                             ; preds = %bb1
  store i64 0, ptr %_0, align 8, !dbg !724
  %14 = getelementptr inbounds i8, ptr %_0, i64 8, !dbg !724
  store ptr inttoptr (i64 8 to ptr), ptr %14, align 8, !dbg !724
  %15 = getelementptr inbounds %"alloc::vec::Vec<std::path::PathBuf>", ptr %_0, i32 0, i32 1, !dbg !724
  store i64 0, ptr %15, align 8, !dbg !724
  br label %bb6, !dbg !720

bb2:                                              ; preds = %bb1
  call void @llvm.memcpy.p0.p0.i64(ptr align 8 %element, ptr align 8 %_3, i64 24, i1 false), !dbg !731
; invoke <core::iter::adapters::map::Map<I,F> as core::iter::traits::iterator::Iterator>::size_hint
  invoke void @"_ZN102_$LT$core..iter..adapters..map..Map$LT$I$C$F$GT$$u20$as$u20$core..iter..traits..iterator..Iterator$GT$9size_hint17h8fa1c98cca050b4dE"(ptr sret({ i64, %"core::option::Option<usize>" }) align 8 %_8, ptr align 8 %iterator)
          to label %bb4 unwind label %cleanup3, !dbg !732

bb6:                                              ; preds = %bb5, %bb12
  ret void, !dbg !733

bb9:                                              ; preds = %cleanup3
; invoke core::ptr::drop_in_place<std::path::PathBuf>
  invoke void @"_ZN4core3ptr39drop_in_place$LT$std..path..PathBuf$GT$17hca850d7b97c87f5eE"(ptr align 8 %element) #17
          to label %bb11 unwind label %terminate, !dbg !734

cleanup3:                                         ; preds = %bb14, %bb4, %bb2
  %16 = landingpad { ptr, i32 }
          cleanup
  %17 = extractvalue { ptr, i32 } %16, 0
  %18 = extractvalue { ptr, i32 } %16, 1
  store ptr %17, ptr %3, align 8
  %19 = getelementptr inbounds i8, ptr %3, i64 8
  store i32 %18, ptr %19, align 8
  br label %bb9

bb4:                                              ; preds = %bb2
  %lower = load i64, ptr %_8, align 8, !dbg !735, !noundef !168
  store i64 %lower, ptr %lower.dbg.spill, align 8, !dbg !735
  call void @llvm.dbg.declare(metadata ptr %lower.dbg.spill, metadata !622, metadata !DIExpression()), !dbg !736
  call void @llvm.dbg.declare(metadata ptr %lower.dbg.spill, metadata !641, metadata !DIExpression()), !dbg !630
  %20 = call i64 @llvm.uadd.sat.i64(i64 %lower, i64 1), !dbg !630
  store i64 %20, ptr %2, align 8, !dbg !630
  %v2 = load i64, ptr %2, align 8, !dbg !630, !noundef !168
  store i64 %v2, ptr %v2.dbg.spill, align 8, !dbg !630
  call void @llvm.dbg.declare(metadata ptr %v2.dbg.spill, metadata !650, metadata !DIExpression()), !dbg !737
  call void @llvm.dbg.declare(metadata ptr %v2.dbg.spill, metadata !658, metadata !DIExpression()), !dbg !738
; invoke core::cmp::max_by
  %initial_capacity = invoke i64 @_ZN4core3cmp6max_by17h324b7c1d1f486602E(i64 4, i64 %v2)
          to label %bb14 unwind label %cleanup3, !dbg !739

bb14:                                             ; preds = %bb4
  store i64 %initial_capacity, ptr %initial_capacity.dbg.spill, align 8, !dbg !739
  call void @llvm.dbg.declare(metadata ptr %initial_capacity.dbg.spill, metadata !624, metadata !DIExpression()), !dbg !740
  call void @llvm.dbg.declare(metadata ptr %initial_capacity.dbg.spill, metadata !679, metadata !DIExpression()), !dbg !741
  call void @llvm.dbg.declare(metadata ptr %initial_capacity.dbg.spill, metadata !670, metadata !DIExpression()), !dbg !742
  call void @llvm.dbg.declare(metadata ptr %initial_capacity.dbg.spill, metadata !689, metadata !DIExpression()), !dbg !743
; invoke alloc::raw_vec::RawVec<T,A>::allocate_in
  %21 = invoke { i64, ptr } @"_ZN5alloc7raw_vec19RawVec$LT$T$C$A$GT$11allocate_in17h1b91bdf379dd0467E"(i64 %initial_capacity, i1 zeroext false)
          to label %bb15 unwind label %cleanup3, !dbg !744

bb15:                                             ; preds = %bb14
  %_23.0 = extractvalue { i64, ptr } %21, 0, !dbg !744
  %_23.1 = extractvalue { i64, ptr } %21, 1, !dbg !744
  store i64 %_23.0, ptr %vector2, align 8, !dbg !745
  %22 = getelementptr inbounds i8, ptr %vector2, i64 8, !dbg !745
  store ptr %_23.1, ptr %22, align 8, !dbg !745
  %23 = getelementptr inbounds %"alloc::vec::Vec<std::path::PathBuf>", ptr %vector2, i32 0, i32 1, !dbg !745
  store i64 0, ptr %23, align 8, !dbg !745
  store ptr %vector2, ptr %self.dbg.spill4, align 8, !dbg !746
  call void @llvm.dbg.declare(metadata ptr %self.dbg.spill4, metadata !747, metadata !DIExpression()), !dbg !754
  store ptr %vector2, ptr %self.dbg.spill5, align 8, !dbg !756
  call void @llvm.dbg.declare(metadata ptr %self.dbg.spill5, metadata !757, metadata !DIExpression()), !dbg !765
  %24 = getelementptr inbounds i8, ptr %vector2, i64 8, !dbg !767
  %self = load ptr, ptr %24, align 8, !dbg !767, !nonnull !168, !noundef !168
  store ptr %self, ptr %self.dbg.spill6, align 8, !dbg !767
  call void @llvm.dbg.declare(metadata ptr %self.dbg.spill6, metadata !768, metadata !DIExpression()), !dbg !776
  call void @llvm.dbg.declare(metadata ptr %self.dbg.spill6, metadata !778, metadata !DIExpression()), !dbg !786
  store ptr %self, ptr %dst.dbg.spill, align 8, !dbg !788
  call void @llvm.dbg.declare(metadata ptr %dst.dbg.spill, metadata !715, metadata !DIExpression()), !dbg !789
  call void @llvm.memcpy.p0.p0.i64(ptr align 8 %src, ptr align 8 %element, i64 24, i1 false), !dbg !790
  call void @llvm.memcpy.p0.p0.i64(ptr align 8 %self, ptr align 8 %src, i64 24, i1 false), !dbg !791
  store ptr %vector2, ptr %self.dbg.spill7, align 8, !dbg !792
  call void @llvm.dbg.declare(metadata ptr %self.dbg.spill7, metadata !700, metadata !DIExpression()), !dbg !793
  call void @llvm.dbg.declare(metadata ptr %self.dbg.spill7, metadata !794, metadata !DIExpression()), !dbg !802
  %25 = getelementptr inbounds %"alloc::vec::Vec<std::path::PathBuf>", ptr %vector2, i32 0, i32 1, !dbg !804
  store i64 1, ptr %25, align 8, !dbg !804
  call void @llvm.memcpy.p0.p0.i64(ptr align 8 %vector, ptr align 8 %vector2, i64 24, i1 false), !dbg !805
  store i8 0, ptr %_20, align 1, !dbg !806
  %_19.0 = load ptr, ptr %iterator, align 8, !dbg !806, !nonnull !168, !noundef !168
  %26 = getelementptr inbounds i8, ptr %iterator, i64 8, !dbg !806
  %_19.1 = load ptr, ptr %26, align 8, !dbg !806, !noundef !168
; invoke <alloc::vec::Vec<T,A> as alloc::vec::spec_extend::SpecExtend<T,I>>::spec_extend
  invoke void @"_ZN97_$LT$alloc..vec..Vec$LT$T$C$A$GT$$u20$as$u20$alloc..vec..spec_extend..SpecExtend$LT$T$C$I$GT$$GT$11spec_extend17h05d8a082ea35b776E"(ptr align 8 %vector, ptr %_19.0, ptr %_19.1)
          to label %bb5 unwind label %cleanup8, !dbg !807

bb7:                                              ; preds = %cleanup8
; invoke core::ptr::drop_in_place<alloc::vec::Vec<std::path::PathBuf>>
  invoke void @"_ZN4core3ptr62drop_in_place$LT$alloc..vec..Vec$LT$std..path..PathBuf$GT$$GT$17hdca10addd8387c55E"(ptr align 8 %vector) #17
          to label %bb11 unwind label %terminate, !dbg !720

cleanup8:                                         ; preds = %bb15
  %27 = landingpad { ptr, i32 }
          cleanup
  %28 = extractvalue { ptr, i32 } %27, 0
  %29 = extractvalue { ptr, i32 } %27, 1
  store ptr %28, ptr %3, align 8
  %30 = getelementptr inbounds i8, ptr %3, i64 8
  store i32 %29, ptr %30, align 8
  br label %bb7

bb5:                                              ; preds = %bb15
  call void @llvm.memcpy.p0.p0.i64(ptr align 8 %_0, ptr align 8 %vector, i64 24, i1 false), !dbg !808
  br label %bb6, !dbg !720

terminate:                                        ; preds = %bb9, %bb7
  %31 = landingpad { ptr, i32 }
          filter [0 x ptr] zeroinitializer
  %32 = extractvalue { ptr, i32 } %31, 0
  %33 = extractvalue { ptr, i32 } %31, 1
; call core::panicking::panic_in_cleanup
  call void @_ZN4core9panicking16panic_in_cleanup17h803841cec7522372E() #18, !dbg !809
  unreachable, !dbg !809

bb3:                                              ; No predecessors!
  unreachable, !dbg !719

bb8:                                              ; preds = %bb10, %bb11
  %34 = load ptr, ptr %3, align 8, !dbg !809, !noundef !168
  %35 = getelementptr inbounds i8, ptr %3, i64 8, !dbg !809
  %36 = load i32, ptr %35, align 8, !dbg !809, !noundef !168
  %37 = insertvalue { ptr, i32 } poison, ptr %34, 0, !dbg !809
  %38 = insertvalue { ptr, i32 } %37, i32 %36, 1, !dbg !809
  resume { ptr, i32 } %38, !dbg !809

bb10:                                             ; preds = %bb11
  br label %bb8, !dbg !720
}

; std::fs::Metadata
; Function Attrs: inlinehint nonlazybind uwtable
define internal void @_ZN3std2fs8Metadata17hc47a3675e2d0dea1E(ptr sret(%"std::fs::Metadata") align 8 %_0, ptr align 8 %_1) unnamed_addr #0 !dbg !810 {
start:
  call void @llvm.dbg.declare(metadata ptr %_1, metadata !885, metadata !DIExpression()), !dbg !886
  call void @llvm.memcpy.p0.p0.i64(ptr align 8 %_0, ptr align 8 %_1, i64 176, i1 false), !dbg !886
  ret void, !dbg !886
}

; std::fs::metadata
; Function Attrs: nonlazybind uwtable
define void @_ZN3std2fs8metadata17h9993f40b0d1f1b79E(ptr sret(%"core::result::Result<std::fs::Metadata, std::io::error::Error>") align 8 %_0, ptr align 1 %0, i64 %1) unnamed_addr #1 personality ptr @rust_eh_personality !dbg !887 {
start:
  %2 = alloca { ptr, i32, [1 x i32] }, align 8
  %_2 = alloca %"core::result::Result<std::sys::pal::unix::fs::FileAttr, std::io::error::Error>", align 8
  %path = alloca { ptr, i64 }, align 8
  store ptr %0, ptr %path, align 8
  %3 = getelementptr inbounds i8, ptr %path, i64 8
  store i64 %1, ptr %3, align 8
  call void @llvm.dbg.declare(metadata ptr %path, metadata !966, metadata !DIExpression()), !dbg !969
; invoke <&T as core::convert::AsRef<U>>::as_ref
  %4 = invoke { ptr, i64 } @"_ZN55_$LT$$RF$T$u20$as$u20$core..convert..AsRef$LT$U$GT$$GT$6as_ref17h681ee5986d81e939E"(ptr align 8 %path)
          to label %bb1 unwind label %cleanup, !dbg !970

bb5:                                              ; preds = %cleanup
  %5 = load ptr, ptr %2, align 8, !dbg !971, !noundef !168
  %6 = getelementptr inbounds i8, ptr %2, i64 8, !dbg !971
  %7 = load i32, ptr %6, align 8, !dbg !971, !noundef !168
  %8 = insertvalue { ptr, i32 } poison, ptr %5, 0, !dbg !971
  %9 = insertvalue { ptr, i32 } %8, i32 %7, 1, !dbg !971
  resume { ptr, i32 } %9, !dbg !971

cleanup:                                          ; preds = %bb2, %bb1, %start
  %10 = landingpad { ptr, i32 }
          cleanup
  %11 = extractvalue { ptr, i32 } %10, 0
  %12 = extractvalue { ptr, i32 } %10, 1
  store ptr %11, ptr %2, align 8
  %13 = getelementptr inbounds i8, ptr %2, i64 8
  store i32 %12, ptr %13, align 8
  br label %bb5

bb1:                                              ; preds = %start
  %_3.0 = extractvalue { ptr, i64 } %4, 0, !dbg !970
  %_3.1 = extractvalue { ptr, i64 } %4, 1, !dbg !970
; invoke std::sys::pal::unix::fs::stat
  invoke void @_ZN3std3sys3pal4unix2fs4stat17hf684e63aa6a8db72E(ptr sret(%"core::result::Result<std::sys::pal::unix::fs::FileAttr, std::io::error::Error>") align 8 %_2, ptr align 1 %_3.0, i64 %_3.1)
          to label %bb2 unwind label %cleanup, !dbg !972

bb2:                                              ; preds = %bb1
; invoke core::result::Result<T,E>::map
  invoke void @"_ZN4core6result19Result$LT$T$C$E$GT$3map17h196a6b6d35acba91E"(ptr sret(%"core::result::Result<std::fs::Metadata, std::io::error::Error>") align 8 %_0, ptr align 8 %_2)
          to label %bb3 unwind label %cleanup, !dbg !972

bb3:                                              ; preds = %bb2
  ret void, !dbg !973
}

; std::io::error::repr_bitpacked::decode_repr
; Function Attrs: inlinehint nonlazybind uwtable
define void @_ZN3std2io5error14repr_bitpacked11decode_repr17h984e25f0cd653fecE(ptr sret(%"std::io::error::ErrorData<alloc::boxed::Box<std::io::error::Custom>>") align 8 %_0, ptr %ptr) unnamed_addr #0 personality ptr @rust_eh_personality !dbg !974 {
start:
  %custom.dbg.spill = alloca ptr, align 8
  %self.dbg.spill10 = alloca ptr, align 8
  %data_pointer.dbg.spill = alloca ptr, align 8
  %meta.dbg.spill = alloca ptr, align 8
  %self.dbg.spill8 = alloca ptr, align 8
  %0 = alloca ptr, align 8
  %self.dbg.spill7 = alloca ptr, align 8
  %ptr.dbg.spill6 = alloca ptr, align 8
  %kind.dbg.spill = alloca i8, align 1
  %f.dbg.spill = alloca ptr, align 8
  %1 = alloca { ptr, i32, [1 x i32] }, align 8
  %kind_bits.dbg.spill = alloca i32, align 4
  %code.dbg.spill = alloca i32, align 4
  %self.dbg.spill5 = alloca ptr, align 8
  %make_custom.dbg.spill = alloca %"{closure@<std::io::error::repr_bitpacked::Repr as core::ops::drop::Drop>::drop::{closure#0}}", align 1
  %ptr.dbg.spill = alloca ptr, align 8
  %_45 = alloca %"core::ptr::metadata::PtrComponents<()>", align 8
  %_44 = alloca %"core::ptr::metadata::PtrRepr<()>", align 8
  %_25 = alloca i8, align 1
  %_23 = alloca ptr, align 8
  %self4 = alloca ptr, align 8
  %self = alloca i8, align 1
  %bits = alloca i64, align 8
  %metadata.dbg.spill = alloca {}, align 1
  %count.dbg.spill3 = alloca i64, align 8
  %rhs.dbg.spill = alloca i64, align 8
  %self.dbg.spill2 = alloca i64, align 8
  %self.dbg.spill = alloca i64, align 8
  %count.dbg.spill1 = alloca i64, align 8
  %count.dbg.spill = alloca i64, align 8
  %_unsafe_arg.dbg.spill = alloca %"core::fmt::rt::UnsafeArg", align 1
  %width.dbg.spill = alloca %"core::fmt::rt::Count", align 8
  %precision.dbg.spill = alloca %"core::fmt::rt::Count", align 8
  %flags.dbg.spill = alloca i32, align 4
  %align.dbg.spill = alloca i8, align 1
  %fill.dbg.spill = alloca i32, align 4
  %position.dbg.spill = alloca i64, align 8
  store i64 0, ptr %position.dbg.spill, align 8, !dbg !997
  call void @llvm.dbg.declare(metadata ptr %position.dbg.spill, metadata !1029, metadata !DIExpression()), !dbg !997
  store i32 32, ptr %fill.dbg.spill, align 4, !dbg !1084
  call void @llvm.dbg.declare(metadata ptr %fill.dbg.spill, metadata !1030, metadata !DIExpression()), !dbg !1084
  store i8 3, ptr %align.dbg.spill, align 1, !dbg !1085
  call void @llvm.dbg.declare(metadata ptr %align.dbg.spill, metadata !1031, metadata !DIExpression()), !dbg !1085
  store i32 12, ptr %flags.dbg.spill, align 4, !dbg !1086
  call void @llvm.dbg.declare(metadata ptr %flags.dbg.spill, metadata !1032, metadata !DIExpression()), !dbg !1086
  %2 = load i64, ptr @0, align 8, !dbg !1086, !range !1087, !noundef !168
  %3 = load i64, ptr getelementptr inbounds (i8, ptr @0, i64 8), align 8, !dbg !1086
  store i64 %2, ptr %precision.dbg.spill, align 8, !dbg !1088
  %4 = getelementptr inbounds i8, ptr %precision.dbg.spill, i64 8, !dbg !1088
  store i64 %3, ptr %4, align 8, !dbg !1088
  call void @llvm.dbg.declare(metadata ptr %precision.dbg.spill, metadata !1033, metadata !DIExpression()), !dbg !1088
  %5 = load i64, ptr @1, align 8, !dbg !1088, !range !1087, !noundef !168
  %6 = load i64, ptr getelementptr inbounds (i8, ptr @1, i64 8), align 8, !dbg !1088
  store i64 %5, ptr %width.dbg.spill, align 8, !dbg !1089
  %7 = getelementptr inbounds i8, ptr %width.dbg.spill, i64 8, !dbg !1089
  store i64 %6, ptr %7, align 8, !dbg !1089
  call void @llvm.dbg.declare(metadata ptr %width.dbg.spill, metadata !1034, metadata !DIExpression()), !dbg !1089
  call void @llvm.dbg.declare(metadata ptr %_unsafe_arg.dbg.spill, metadata !1090, metadata !DIExpression()), !dbg !1178
  store i64 1, ptr %count.dbg.spill, align 8, !dbg !1179
  call void @llvm.dbg.declare(metadata ptr %count.dbg.spill, metadata !1190, metadata !DIExpression()), !dbg !1179
  store i64 1, ptr %count.dbg.spill1, align 8, !dbg !1192
  call void @llvm.dbg.declare(metadata ptr %count.dbg.spill1, metadata !1200, metadata !DIExpression()), !dbg !1192
  store i64 1, ptr %self.dbg.spill, align 8, !dbg !1202
  call void @llvm.dbg.declare(metadata ptr %self.dbg.spill, metadata !1212, metadata !DIExpression()), !dbg !1202
  store i64 0, ptr %self.dbg.spill2, align 8, !dbg !1214
  call void @llvm.dbg.declare(metadata ptr %self.dbg.spill2, metadata !1221, metadata !DIExpression()), !dbg !1214
  store i64 1, ptr %rhs.dbg.spill, align 8, !dbg !1214
  call void @llvm.dbg.declare(metadata ptr %rhs.dbg.spill, metadata !1222, metadata !DIExpression()), !dbg !1214
  store i64 -1, ptr %count.dbg.spill3, align 8, !dbg !1224
  call void @llvm.dbg.declare(metadata ptr %count.dbg.spill3, metadata !1231, metadata !DIExpression()), !dbg !1224
  call void @llvm.dbg.declare(metadata ptr %metadata.dbg.spill, metadata !1233, metadata !DIExpression()), !dbg !1242
  store ptr %ptr, ptr %ptr.dbg.spill, align 8, !dbg !1242
  call void @llvm.dbg.declare(metadata ptr %ptr.dbg.spill, metadata !982, metadata !DIExpression()), !dbg !1254
  call void @llvm.dbg.declare(metadata ptr %ptr.dbg.spill, metadata !1255, metadata !DIExpression()), !dbg !1266
  call void @llvm.dbg.declare(metadata ptr %ptr.dbg.spill, metadata !1268, metadata !DIExpression()), !dbg !1283
  call void @llvm.dbg.declare(metadata ptr %ptr.dbg.spill, metadata !1262, metadata !DIExpression()), !dbg !1285
  call void @llvm.dbg.declare(metadata ptr %ptr.dbg.spill, metadata !1264, metadata !DIExpression()), !dbg !1287
  call void @llvm.dbg.declare(metadata ptr %make_custom.dbg.spill, metadata !983, metadata !DIExpression()), !dbg !1289
  call void @llvm.dbg.declare(metadata ptr %bits, metadata !984, metadata !DIExpression()), !dbg !1290
  call void @llvm.dbg.declare(metadata ptr %self, metadata !1079, metadata !DIExpression()), !dbg !1291
  call void @llvm.dbg.declare(metadata ptr %self4, metadata !1292, metadata !DIExpression()), !dbg !1300
  store i8 1, ptr %_25, align 1, !dbg !1302
  store ptr %ptr, ptr %self.dbg.spill5, align 8, !dbg !1303
  call void @llvm.dbg.declare(metadata ptr %self.dbg.spill5, metadata !1304, metadata !DIExpression()), !dbg !1310
  call void @llvm.dbg.declare(metadata ptr %self.dbg.spill5, metadata !1312, metadata !DIExpression()), !dbg !1319
  call void @llvm.dbg.declare(metadata ptr %self.dbg.spill5, metadata !1189, metadata !DIExpression()), !dbg !1321
  call void @llvm.dbg.declare(metadata ptr %self.dbg.spill5, metadata !1322, metadata !DIExpression()), !dbg !1330
  %8 = ptrtoint ptr %ptr to i64, !dbg !1332
  store i64 %8, ptr %bits, align 8, !dbg !1332
  %_6 = load i64, ptr %bits, align 8, !dbg !1333, !noundef !168
  %_5 = and i64 %_6, 3, !dbg !1333
  switch i64 %_5, label %bb1 [
    i64 2, label %bb2
    i64 3, label %bb3
    i64 0, label %bb5
    i64 1, label %bb6
  ], !dbg !1334

bb1:                                              ; preds = %start
; invoke core::panicking::panic
  invoke void @_ZN4core9panicking5panic17h59297120e85ea178E(ptr align 1 @alloc_a500d906b91607583596fa15e63c2ada, i64 40, ptr align 8 @alloc_5f9ca26e4863825896f7978e113f791b) #19
          to label %unreachable unwind label %cleanup, !dbg !1335

bb2:                                              ; preds = %start
  %_10 = load i64, ptr %bits, align 8, !dbg !1336, !noundef !168
  %_8 = ashr i64 %_10, 32, !dbg !1337
  %code = trunc i64 %_8 to i32, !dbg !1337
  store i32 %code, ptr %code.dbg.spill, align 4, !dbg !1337
  call void @llvm.dbg.declare(metadata ptr %code.dbg.spill, metadata !986, metadata !DIExpression()), !dbg !1338
  %9 = getelementptr inbounds %"std::io::error::ErrorData<alloc::boxed::Box<std::io::error::Custom>>::Os", ptr %_0, i32 0, i32 1, !dbg !1339
  store i32 %code, ptr %9, align 4, !dbg !1339
  store i8 0, ptr %_0, align 8, !dbg !1339
  br label %bb8, !dbg !1340

bb3:                                              ; preds = %start
  %_13 = load i64, ptr %bits, align 8, !dbg !1341, !noundef !168
  %_12 = lshr i64 %_13, 32, !dbg !1342
  %kind_bits = trunc i64 %_12 to i32, !dbg !1342
  store i32 %kind_bits, ptr %kind_bits.dbg.spill, align 4, !dbg !1342
  call void @llvm.dbg.declare(metadata ptr %kind_bits.dbg.spill, metadata !988, metadata !DIExpression()), !dbg !1343
; invoke std::io::error::repr_bitpacked::kind_from_prim
  %10 = invoke i8 @_ZN3std2io5error14repr_bitpacked14kind_from_prim17h39f8509033c70086E(i32 %kind_bits)
          to label %bb4 unwind label %cleanup, !dbg !1344, !range !1345

bb5:                                              ; preds = %start
  store ptr %ptr, ptr %ptr.dbg.spill6, align 8, !dbg !1346
  call void @llvm.dbg.declare(metadata ptr %ptr.dbg.spill6, metadata !1347, metadata !DIExpression()), !dbg !1354
  store ptr %ptr, ptr %self4, align 8, !dbg !1356
  %11 = getelementptr inbounds %"std::io::error::ErrorData<alloc::boxed::Box<std::io::error::Custom>>::SimpleMessage", ptr %_0, i32 0, i32 1, !dbg !1357
  store ptr %ptr, ptr %11, align 8, !dbg !1357
  store i8 2, ptr %_0, align 8, !dbg !1357
  br label %bb8, !dbg !1358

bb6:                                              ; preds = %start
  store ptr %ptr, ptr %self.dbg.spill7, align 8, !dbg !1359
  call void @llvm.dbg.declare(metadata ptr %self.dbg.spill7, metadata !1199, metadata !DIExpression()), !dbg !1360
  call void @llvm.dbg.declare(metadata ptr %self.dbg.spill7, metadata !1230, metadata !DIExpression()), !dbg !1361
  %12 = getelementptr i8, ptr %ptr, i64 -1, !dbg !1362
  store ptr %12, ptr %0, align 8, !dbg !1362
  %_41 = load ptr, ptr %0, align 8, !dbg !1362, !noundef !168
  store ptr %_41, ptr %self.dbg.spill8, align 8, !dbg !1362
  call void @llvm.dbg.declare(metadata ptr %self.dbg.spill8, metadata !1249, metadata !DIExpression()), !dbg !1363
  store ptr %ptr, ptr %meta.dbg.spill, align 8, !dbg !1364
  call void @llvm.dbg.declare(metadata ptr %meta.dbg.spill, metadata !1250, metadata !DIExpression()), !dbg !1365
  call void @llvm.dbg.declare(metadata ptr %meta.dbg.spill, metadata !1366, metadata !DIExpression()), !dbg !1372
  store ptr %_41, ptr %data_pointer.dbg.spill, align 8, !dbg !1374
  call void @llvm.dbg.declare(metadata ptr %data_pointer.dbg.spill, metadata !1241, metadata !DIExpression()), !dbg !1375
  store ptr %_41, ptr %_45, align 8, !dbg !1376
  call void @llvm.memcpy.p0.p0.i64(ptr align 8 %_44, ptr align 8 %_45, i64 8, i1 false), !dbg !1377
  %self9 = load ptr, ptr %_44, align 8, !dbg !1377, !noundef !168
  store ptr %self9, ptr %self.dbg.spill10, align 8, !dbg !1377
  call void @llvm.dbg.declare(metadata ptr %self.dbg.spill10, metadata !1378, metadata !DIExpression()), !dbg !1386
  store ptr %self9, ptr %custom.dbg.spill, align 8, !dbg !1388
  call void @llvm.dbg.declare(metadata ptr %custom.dbg.spill, metadata !992, metadata !DIExpression()), !dbg !1389
  store i8 0, ptr %_25, align 1, !dbg !1390
  store ptr %self9, ptr %_23, align 8, !dbg !1390
  %13 = load ptr, ptr %_23, align 8, !dbg !1390, !noundef !168
; invoke <std::io::error::repr_bitpacked::Repr as core::ops::drop::Drop>::drop::{{closure}}
  %_21 = invoke align 8 ptr @"_ZN78_$LT$std..io..error..repr_bitpacked..Repr$u20$as$u20$core..ops..drop..Drop$GT$4drop28_$u7b$$u7b$closure$u7d$$u7d$17hb7b0ada094f762a7E"(ptr %13)
          to label %bb7 unwind label %cleanup, !dbg !1390

bb8:                                              ; preds = %bb7, %bb5, %bb4, %bb2
  %14 = load i8, ptr %_25, align 1, !dbg !1391, !range !721, !noundef !168
  %15 = trunc i8 %14 to i1, !dbg !1391
  br i1 %15, label %bb11, label %bb9, !dbg !1391

bb13:                                             ; preds = %cleanup
  %16 = load i8, ptr %_25, align 1, !dbg !1391, !range !721, !noundef !168
  %17 = trunc i8 %16 to i1, !dbg !1391
  br i1 %17, label %bb12, label %bb10, !dbg !1391

cleanup:                                          ; preds = %bb1, %bb6, %bb3
  %18 = landingpad { ptr, i32 }
          cleanup
  %19 = extractvalue { ptr, i32 } %18, 0
  %20 = extractvalue { ptr, i32 } %18, 1
  store ptr %19, ptr %1, align 8
  %21 = getelementptr inbounds i8, ptr %1, i64 8
  store i32 %20, ptr %21, align 8
  br label %bb13

bb4:                                              ; preds = %bb3
  store i8 %10, ptr %self, align 1, !dbg !1344
  store ptr %bits, ptr %f.dbg.spill, align 8, !dbg !1392
  call void @llvm.dbg.declare(metadata ptr %f.dbg.spill, metadata !1080, metadata !DIExpression()), !dbg !1393
  %22 = load i8, ptr %self, align 1, !dbg !1394, !range !1345, !noundef !168
  %23 = icmp eq i8 %22, 41, !dbg !1394
  %_27 = select i1 %23, i64 0, i64 1, !dbg !1394
  %_47 = icmp eq i64 %_27, 1, !dbg !1395
  call void @llvm.assume(i1 %_47), !dbg !1395
  %kind = load i8, ptr %self, align 1, !dbg !1396, !range !1397, !noundef !168
  store i8 %kind, ptr %kind.dbg.spill, align 1, !dbg !1396
  call void @llvm.dbg.declare(metadata ptr %kind.dbg.spill, metadata !990, metadata !DIExpression()), !dbg !1398
  call void @llvm.dbg.declare(metadata ptr %kind.dbg.spill, metadata !1081, metadata !DIExpression()), !dbg !1399
  %24 = getelementptr inbounds %"std::io::error::ErrorData<alloc::boxed::Box<std::io::error::Custom>>::Simple", ptr %_0, i32 0, i32 1, !dbg !1400
  store i8 %kind, ptr %24, align 1, !dbg !1400
  store i8 1, ptr %_0, align 8, !dbg !1400
  br label %bb8, !dbg !1401

bb7:                                              ; preds = %bb6
  %25 = getelementptr inbounds %"std::io::error::ErrorData<alloc::boxed::Box<std::io::error::Custom>>::Custom", ptr %_0, i32 0, i32 1, !dbg !1402
  store ptr %_21, ptr %25, align 8, !dbg !1402
  store i8 3, ptr %_0, align 8, !dbg !1402
  br label %bb8, !dbg !1403

bb9:                                              ; preds = %bb11, %bb8
  ret void, !dbg !1404

bb11:                                             ; preds = %bb8
  br label %bb9, !dbg !1391

unreachable:                                      ; preds = %bb1
  unreachable

bb10:                                             ; preds = %bb12, %bb13
  %26 = load ptr, ptr %1, align 8, !dbg !1405, !noundef !168
  %27 = getelementptr inbounds i8, ptr %1, i64 8, !dbg !1405
  %28 = load i32, ptr %27, align 8, !dbg !1405, !noundef !168
  %29 = insertvalue { ptr, i32 } poison, ptr %26, 0, !dbg !1405
  %30 = insertvalue { ptr, i32 } %29, i32 %28, 1, !dbg !1405
  resume { ptr, i32 } %30, !dbg !1405

bb12:                                             ; preds = %bb13
  br label %bb10, !dbg !1391
}

; std::io::error::repr_bitpacked::kind_from_prim
; Function Attrs: inlinehint nonlazybind uwtable
define internal i8 @_ZN3std2io5error14repr_bitpacked14kind_from_prim17h39f8509033c70086E(i32 %0) unnamed_addr #0 !dbg !1406 {
start:
  %v.dbg.spill121 = alloca i32, align 4
  %v.dbg.spill119 = alloca ptr, align 8
  %v.dbg.spill118 = alloca i32, align 4
  %v.dbg.spill116 = alloca ptr, align 8
  %v.dbg.spill115 = alloca i32, align 4
  %v.dbg.spill113 = alloca ptr, align 8
  %v.dbg.spill112 = alloca i32, align 4
  %v.dbg.spill110 = alloca ptr, align 8
  %v.dbg.spill109 = alloca i32, align 4
  %v.dbg.spill107 = alloca ptr, align 8
  %v.dbg.spill106 = alloca i32, align 4
  %v.dbg.spill104 = alloca ptr, align 8
  %v.dbg.spill103 = alloca i32, align 4
  %v.dbg.spill101 = alloca ptr, align 8
  %v.dbg.spill100 = alloca i32, align 4
  %v.dbg.spill98 = alloca ptr, align 8
  %v.dbg.spill97 = alloca i32, align 4
  %v.dbg.spill95 = alloca ptr, align 8
  %v.dbg.spill94 = alloca i32, align 4
  %v.dbg.spill92 = alloca ptr, align 8
  %v.dbg.spill91 = alloca i32, align 4
  %v.dbg.spill89 = alloca ptr, align 8
  %v.dbg.spill88 = alloca i32, align 4
  %v.dbg.spill86 = alloca ptr, align 8
  %v.dbg.spill85 = alloca i32, align 4
  %v.dbg.spill83 = alloca ptr, align 8
  %v.dbg.spill82 = alloca i32, align 4
  %v.dbg.spill80 = alloca ptr, align 8
  %v.dbg.spill79 = alloca i32, align 4
  %v.dbg.spill77 = alloca ptr, align 8
  %v.dbg.spill76 = alloca i32, align 4
  %v.dbg.spill74 = alloca ptr, align 8
  %v.dbg.spill73 = alloca i32, align 4
  %v.dbg.spill71 = alloca ptr, align 8
  %v.dbg.spill70 = alloca i32, align 4
  %v.dbg.spill68 = alloca ptr, align 8
  %v.dbg.spill67 = alloca i32, align 4
  %v.dbg.spill65 = alloca ptr, align 8
  %v.dbg.spill64 = alloca i32, align 4
  %v.dbg.spill62 = alloca ptr, align 8
  %v.dbg.spill61 = alloca i32, align 4
  %v.dbg.spill59 = alloca ptr, align 8
  %v.dbg.spill58 = alloca i32, align 4
  %v.dbg.spill56 = alloca ptr, align 8
  %v.dbg.spill55 = alloca i32, align 4
  %v.dbg.spill53 = alloca ptr, align 8
  %v.dbg.spill52 = alloca i32, align 4
  %v.dbg.spill50 = alloca ptr, align 8
  %v.dbg.spill49 = alloca i32, align 4
  %v.dbg.spill47 = alloca ptr, align 8
  %v.dbg.spill46 = alloca i32, align 4
  %v.dbg.spill44 = alloca ptr, align 8
  %v.dbg.spill43 = alloca i32, align 4
  %v.dbg.spill41 = alloca ptr, align 8
  %v.dbg.spill40 = alloca i32, align 4
  %v.dbg.spill38 = alloca ptr, align 8
  %v.dbg.spill37 = alloca i32, align 4
  %v.dbg.spill35 = alloca ptr, align 8
  %v.dbg.spill34 = alloca i32, align 4
  %v.dbg.spill32 = alloca ptr, align 8
  %v.dbg.spill31 = alloca i32, align 4
  %v.dbg.spill29 = alloca ptr, align 8
  %v.dbg.spill28 = alloca i32, align 4
  %v.dbg.spill26 = alloca ptr, align 8
  %v.dbg.spill25 = alloca i32, align 4
  %v.dbg.spill23 = alloca ptr, align 8
  %v.dbg.spill22 = alloca i32, align 4
  %v.dbg.spill20 = alloca ptr, align 8
  %v.dbg.spill19 = alloca i32, align 4
  %v.dbg.spill17 = alloca ptr, align 8
  %v.dbg.spill16 = alloca i32, align 4
  %v.dbg.spill14 = alloca ptr, align 8
  %v.dbg.spill13 = alloca i32, align 4
  %v.dbg.spill11 = alloca ptr, align 8
  %v.dbg.spill10 = alloca i32, align 4
  %v.dbg.spill8 = alloca ptr, align 8
  %v.dbg.spill7 = alloca i32, align 4
  %v.dbg.spill5 = alloca ptr, align 8
  %v.dbg.spill4 = alloca i32, align 4
  %v.dbg.spill2 = alloca ptr, align 8
  %v.dbg.spill1 = alloca i32, align 4
  %v.dbg.spill = alloca ptr, align 8
  %_0 = alloca i8, align 1
  %ek = alloca i32, align 4
  store i32 %0, ptr %ek, align 4
  call void @llvm.dbg.declare(metadata ptr %ek, metadata !1410, metadata !DIExpression()), !dbg !1535
  store ptr %ek, ptr %v.dbg.spill, align 8, !dbg !1536
  call void @llvm.dbg.declare(metadata ptr %v.dbg.spill, metadata !1413, metadata !DIExpression()), !dbg !1537
  %_4 = load i32, ptr %ek, align 4, !dbg !1536, !noundef !168
  %1 = icmp eq i32 %_4, 0, !dbg !1536
  br i1 %1, label %bb1, label %bb2, !dbg !1536

bb1:                                              ; preds = %start
  %v = load i32, ptr %ek, align 4, !dbg !1536, !noundef !168
  store i32 %v, ptr %v.dbg.spill1, align 4, !dbg !1536
  call void @llvm.dbg.declare(metadata ptr %v.dbg.spill1, metadata !1411, metadata !DIExpression()), !dbg !1537
  store i8 0, ptr %_0, align 1, !dbg !1537
  br label %bb83, !dbg !1536

bb2:                                              ; preds = %start
  store ptr %ek, ptr %v.dbg.spill2, align 8, !dbg !1536
  call void @llvm.dbg.declare(metadata ptr %v.dbg.spill2, metadata !1417, metadata !DIExpression()), !dbg !1538
  %_7 = load i32, ptr %ek, align 4, !dbg !1536, !noundef !168
  %2 = icmp eq i32 %_7, 1, !dbg !1536
  br i1 %2, label %bb3, label %bb4, !dbg !1536

bb83:                                             ; preds = %bb82, %bb81, %bb79, %bb77, %bb75, %bb73, %bb71, %bb69, %bb67, %bb65, %bb63, %bb61, %bb59, %bb57, %bb55, %bb53, %bb51, %bb49, %bb47, %bb45, %bb43, %bb41, %bb39, %bb37, %bb35, %bb33, %bb31, %bb29, %bb27, %bb25, %bb23, %bb21, %bb19, %bb17, %bb15, %bb13, %bb11, %bb9, %bb7, %bb5, %bb3, %bb1
  %3 = load i8, ptr %_0, align 1, !dbg !1539, !range !1345, !noundef !168
  ret i8 %3, !dbg !1539

bb3:                                              ; preds = %bb2
  %v3 = load i32, ptr %ek, align 4, !dbg !1536, !noundef !168
  store i32 %v3, ptr %v.dbg.spill4, align 4, !dbg !1536
  call void @llvm.dbg.declare(metadata ptr %v.dbg.spill4, metadata !1415, metadata !DIExpression()), !dbg !1538
  store i8 1, ptr %_0, align 1, !dbg !1538
  br label %bb83, !dbg !1536

bb4:                                              ; preds = %bb2
  store ptr %ek, ptr %v.dbg.spill5, align 8, !dbg !1536
  call void @llvm.dbg.declare(metadata ptr %v.dbg.spill5, metadata !1420, metadata !DIExpression()), !dbg !1540
  %_10 = load i32, ptr %ek, align 4, !dbg !1536, !noundef !168
  %4 = icmp eq i32 %_10, 2, !dbg !1536
  br i1 %4, label %bb5, label %bb6, !dbg !1536

bb5:                                              ; preds = %bb4
  %v6 = load i32, ptr %ek, align 4, !dbg !1536, !noundef !168
  store i32 %v6, ptr %v.dbg.spill7, align 4, !dbg !1536
  call void @llvm.dbg.declare(metadata ptr %v.dbg.spill7, metadata !1418, metadata !DIExpression()), !dbg !1540
  store i8 2, ptr %_0, align 1, !dbg !1540
  br label %bb83, !dbg !1536

bb6:                                              ; preds = %bb4
  store ptr %ek, ptr %v.dbg.spill8, align 8, !dbg !1536
  call void @llvm.dbg.declare(metadata ptr %v.dbg.spill8, metadata !1423, metadata !DIExpression()), !dbg !1541
  %_13 = load i32, ptr %ek, align 4, !dbg !1536, !noundef !168
  %5 = icmp eq i32 %_13, 3, !dbg !1536
  br i1 %5, label %bb7, label %bb8, !dbg !1536

bb7:                                              ; preds = %bb6
  %v9 = load i32, ptr %ek, align 4, !dbg !1536, !noundef !168
  store i32 %v9, ptr %v.dbg.spill10, align 4, !dbg !1536
  call void @llvm.dbg.declare(metadata ptr %v.dbg.spill10, metadata !1421, metadata !DIExpression()), !dbg !1541
  store i8 3, ptr %_0, align 1, !dbg !1541
  br label %bb83, !dbg !1536

bb8:                                              ; preds = %bb6
  store ptr %ek, ptr %v.dbg.spill11, align 8, !dbg !1536
  call void @llvm.dbg.declare(metadata ptr %v.dbg.spill11, metadata !1426, metadata !DIExpression()), !dbg !1542
  %_16 = load i32, ptr %ek, align 4, !dbg !1536, !noundef !168
  %6 = icmp eq i32 %_16, 4, !dbg !1536
  br i1 %6, label %bb9, label %bb10, !dbg !1536

bb9:                                              ; preds = %bb8
  %v12 = load i32, ptr %ek, align 4, !dbg !1536, !noundef !168
  store i32 %v12, ptr %v.dbg.spill13, align 4, !dbg !1536
  call void @llvm.dbg.declare(metadata ptr %v.dbg.spill13, metadata !1424, metadata !DIExpression()), !dbg !1542
  store i8 4, ptr %_0, align 1, !dbg !1542
  br label %bb83, !dbg !1536

bb10:                                             ; preds = %bb8
  store ptr %ek, ptr %v.dbg.spill14, align 8, !dbg !1536
  call void @llvm.dbg.declare(metadata ptr %v.dbg.spill14, metadata !1429, metadata !DIExpression()), !dbg !1543
  %_19 = load i32, ptr %ek, align 4, !dbg !1536, !noundef !168
  %7 = icmp eq i32 %_19, 5, !dbg !1536
  br i1 %7, label %bb11, label %bb12, !dbg !1536

bb11:                                             ; preds = %bb10
  %v15 = load i32, ptr %ek, align 4, !dbg !1536, !noundef !168
  store i32 %v15, ptr %v.dbg.spill16, align 4, !dbg !1536
  call void @llvm.dbg.declare(metadata ptr %v.dbg.spill16, metadata !1427, metadata !DIExpression()), !dbg !1543
  store i8 5, ptr %_0, align 1, !dbg !1543
  br label %bb83, !dbg !1536

bb12:                                             ; preds = %bb10
  store ptr %ek, ptr %v.dbg.spill17, align 8, !dbg !1536
  call void @llvm.dbg.declare(metadata ptr %v.dbg.spill17, metadata !1432, metadata !DIExpression()), !dbg !1544
  %_22 = load i32, ptr %ek, align 4, !dbg !1536, !noundef !168
  %8 = icmp eq i32 %_22, 6, !dbg !1536
  br i1 %8, label %bb13, label %bb14, !dbg !1536

bb13:                                             ; preds = %bb12
  %v18 = load i32, ptr %ek, align 4, !dbg !1536, !noundef !168
  store i32 %v18, ptr %v.dbg.spill19, align 4, !dbg !1536
  call void @llvm.dbg.declare(metadata ptr %v.dbg.spill19, metadata !1430, metadata !DIExpression()), !dbg !1544
  store i8 6, ptr %_0, align 1, !dbg !1544
  br label %bb83, !dbg !1536

bb14:                                             ; preds = %bb12
  store ptr %ek, ptr %v.dbg.spill20, align 8, !dbg !1536
  call void @llvm.dbg.declare(metadata ptr %v.dbg.spill20, metadata !1435, metadata !DIExpression()), !dbg !1545
  %_25 = load i32, ptr %ek, align 4, !dbg !1536, !noundef !168
  %9 = icmp eq i32 %_25, 7, !dbg !1536
  br i1 %9, label %bb15, label %bb16, !dbg !1536

bb15:                                             ; preds = %bb14
  %v21 = load i32, ptr %ek, align 4, !dbg !1536, !noundef !168
  store i32 %v21, ptr %v.dbg.spill22, align 4, !dbg !1536
  call void @llvm.dbg.declare(metadata ptr %v.dbg.spill22, metadata !1433, metadata !DIExpression()), !dbg !1545
  store i8 7, ptr %_0, align 1, !dbg !1545
  br label %bb83, !dbg !1536

bb16:                                             ; preds = %bb14
  store ptr %ek, ptr %v.dbg.spill23, align 8, !dbg !1536
  call void @llvm.dbg.declare(metadata ptr %v.dbg.spill23, metadata !1438, metadata !DIExpression()), !dbg !1546
  %_28 = load i32, ptr %ek, align 4, !dbg !1536, !noundef !168
  %10 = icmp eq i32 %_28, 8, !dbg !1536
  br i1 %10, label %bb17, label %bb18, !dbg !1536

bb17:                                             ; preds = %bb16
  %v24 = load i32, ptr %ek, align 4, !dbg !1536, !noundef !168
  store i32 %v24, ptr %v.dbg.spill25, align 4, !dbg !1536
  call void @llvm.dbg.declare(metadata ptr %v.dbg.spill25, metadata !1436, metadata !DIExpression()), !dbg !1546
  store i8 8, ptr %_0, align 1, !dbg !1546
  br label %bb83, !dbg !1536

bb18:                                             ; preds = %bb16
  store ptr %ek, ptr %v.dbg.spill26, align 8, !dbg !1536
  call void @llvm.dbg.declare(metadata ptr %v.dbg.spill26, metadata !1441, metadata !DIExpression()), !dbg !1547
  %_31 = load i32, ptr %ek, align 4, !dbg !1536, !noundef !168
  %11 = icmp eq i32 %_31, 9, !dbg !1536
  br i1 %11, label %bb19, label %bb20, !dbg !1536

bb19:                                             ; preds = %bb18
  %v27 = load i32, ptr %ek, align 4, !dbg !1536, !noundef !168
  store i32 %v27, ptr %v.dbg.spill28, align 4, !dbg !1536
  call void @llvm.dbg.declare(metadata ptr %v.dbg.spill28, metadata !1439, metadata !DIExpression()), !dbg !1547
  store i8 9, ptr %_0, align 1, !dbg !1547
  br label %bb83, !dbg !1536

bb20:                                             ; preds = %bb18
  store ptr %ek, ptr %v.dbg.spill29, align 8, !dbg !1536
  call void @llvm.dbg.declare(metadata ptr %v.dbg.spill29, metadata !1444, metadata !DIExpression()), !dbg !1548
  %_34 = load i32, ptr %ek, align 4, !dbg !1536, !noundef !168
  %12 = icmp eq i32 %_34, 10, !dbg !1536
  br i1 %12, label %bb21, label %bb22, !dbg !1536

bb21:                                             ; preds = %bb20
  %v30 = load i32, ptr %ek, align 4, !dbg !1536, !noundef !168
  store i32 %v30, ptr %v.dbg.spill31, align 4, !dbg !1536
  call void @llvm.dbg.declare(metadata ptr %v.dbg.spill31, metadata !1442, metadata !DIExpression()), !dbg !1548
  store i8 10, ptr %_0, align 1, !dbg !1548
  br label %bb83, !dbg !1536

bb22:                                             ; preds = %bb20
  store ptr %ek, ptr %v.dbg.spill32, align 8, !dbg !1536
  call void @llvm.dbg.declare(metadata ptr %v.dbg.spill32, metadata !1447, metadata !DIExpression()), !dbg !1549
  %_37 = load i32, ptr %ek, align 4, !dbg !1536, !noundef !168
  %13 = icmp eq i32 %_37, 11, !dbg !1536
  br i1 %13, label %bb23, label %bb24, !dbg !1536

bb23:                                             ; preds = %bb22
  %v33 = load i32, ptr %ek, align 4, !dbg !1536, !noundef !168
  store i32 %v33, ptr %v.dbg.spill34, align 4, !dbg !1536
  call void @llvm.dbg.declare(metadata ptr %v.dbg.spill34, metadata !1445, metadata !DIExpression()), !dbg !1549
  store i8 11, ptr %_0, align 1, !dbg !1549
  br label %bb83, !dbg !1536

bb24:                                             ; preds = %bb22
  store ptr %ek, ptr %v.dbg.spill35, align 8, !dbg !1536
  call void @llvm.dbg.declare(metadata ptr %v.dbg.spill35, metadata !1450, metadata !DIExpression()), !dbg !1550
  %_40 = load i32, ptr %ek, align 4, !dbg !1536, !noundef !168
  %14 = icmp eq i32 %_40, 12, !dbg !1536
  br i1 %14, label %bb25, label %bb26, !dbg !1536

bb25:                                             ; preds = %bb24
  %v36 = load i32, ptr %ek, align 4, !dbg !1536, !noundef !168
  store i32 %v36, ptr %v.dbg.spill37, align 4, !dbg !1536
  call void @llvm.dbg.declare(metadata ptr %v.dbg.spill37, metadata !1448, metadata !DIExpression()), !dbg !1550
  store i8 12, ptr %_0, align 1, !dbg !1550
  br label %bb83, !dbg !1536

bb26:                                             ; preds = %bb24
  store ptr %ek, ptr %v.dbg.spill38, align 8, !dbg !1536
  call void @llvm.dbg.declare(metadata ptr %v.dbg.spill38, metadata !1453, metadata !DIExpression()), !dbg !1551
  %_43 = load i32, ptr %ek, align 4, !dbg !1536, !noundef !168
  %15 = icmp eq i32 %_43, 13, !dbg !1536
  br i1 %15, label %bb27, label %bb28, !dbg !1536

bb27:                                             ; preds = %bb26
  %v39 = load i32, ptr %ek, align 4, !dbg !1536, !noundef !168
  store i32 %v39, ptr %v.dbg.spill40, align 4, !dbg !1536
  call void @llvm.dbg.declare(metadata ptr %v.dbg.spill40, metadata !1451, metadata !DIExpression()), !dbg !1551
  store i8 13, ptr %_0, align 1, !dbg !1551
  br label %bb83, !dbg !1536

bb28:                                             ; preds = %bb26
  store ptr %ek, ptr %v.dbg.spill41, align 8, !dbg !1536
  call void @llvm.dbg.declare(metadata ptr %v.dbg.spill41, metadata !1456, metadata !DIExpression()), !dbg !1552
  %_46 = load i32, ptr %ek, align 4, !dbg !1536, !noundef !168
  %16 = icmp eq i32 %_46, 14, !dbg !1536
  br i1 %16, label %bb29, label %bb30, !dbg !1536

bb29:                                             ; preds = %bb28
  %v42 = load i32, ptr %ek, align 4, !dbg !1536, !noundef !168
  store i32 %v42, ptr %v.dbg.spill43, align 4, !dbg !1536
  call void @llvm.dbg.declare(metadata ptr %v.dbg.spill43, metadata !1454, metadata !DIExpression()), !dbg !1552
  store i8 14, ptr %_0, align 1, !dbg !1552
  br label %bb83, !dbg !1536

bb30:                                             ; preds = %bb28
  store ptr %ek, ptr %v.dbg.spill44, align 8, !dbg !1536
  call void @llvm.dbg.declare(metadata ptr %v.dbg.spill44, metadata !1459, metadata !DIExpression()), !dbg !1553
  %_49 = load i32, ptr %ek, align 4, !dbg !1536, !noundef !168
  %17 = icmp eq i32 %_49, 15, !dbg !1536
  br i1 %17, label %bb31, label %bb32, !dbg !1536

bb31:                                             ; preds = %bb30
  %v45 = load i32, ptr %ek, align 4, !dbg !1536, !noundef !168
  store i32 %v45, ptr %v.dbg.spill46, align 4, !dbg !1536
  call void @llvm.dbg.declare(metadata ptr %v.dbg.spill46, metadata !1457, metadata !DIExpression()), !dbg !1553
  store i8 15, ptr %_0, align 1, !dbg !1553
  br label %bb83, !dbg !1536

bb32:                                             ; preds = %bb30
  store ptr %ek, ptr %v.dbg.spill47, align 8, !dbg !1536
  call void @llvm.dbg.declare(metadata ptr %v.dbg.spill47, metadata !1462, metadata !DIExpression()), !dbg !1554
  %_52 = load i32, ptr %ek, align 4, !dbg !1536, !noundef !168
  %18 = icmp eq i32 %_52, 16, !dbg !1536
  br i1 %18, label %bb33, label %bb34, !dbg !1536

bb33:                                             ; preds = %bb32
  %v48 = load i32, ptr %ek, align 4, !dbg !1536, !noundef !168
  store i32 %v48, ptr %v.dbg.spill49, align 4, !dbg !1536
  call void @llvm.dbg.declare(metadata ptr %v.dbg.spill49, metadata !1460, metadata !DIExpression()), !dbg !1554
  store i8 16, ptr %_0, align 1, !dbg !1554
  br label %bb83, !dbg !1536

bb34:                                             ; preds = %bb32
  store ptr %ek, ptr %v.dbg.spill50, align 8, !dbg !1536
  call void @llvm.dbg.declare(metadata ptr %v.dbg.spill50, metadata !1465, metadata !DIExpression()), !dbg !1555
  %_55 = load i32, ptr %ek, align 4, !dbg !1536, !noundef !168
  %19 = icmp eq i32 %_55, 17, !dbg !1536
  br i1 %19, label %bb35, label %bb36, !dbg !1536

bb35:                                             ; preds = %bb34
  %v51 = load i32, ptr %ek, align 4, !dbg !1536, !noundef !168
  store i32 %v51, ptr %v.dbg.spill52, align 4, !dbg !1536
  call void @llvm.dbg.declare(metadata ptr %v.dbg.spill52, metadata !1463, metadata !DIExpression()), !dbg !1555
  store i8 17, ptr %_0, align 1, !dbg !1555
  br label %bb83, !dbg !1536

bb36:                                             ; preds = %bb34
  store ptr %ek, ptr %v.dbg.spill53, align 8, !dbg !1536
  call void @llvm.dbg.declare(metadata ptr %v.dbg.spill53, metadata !1468, metadata !DIExpression()), !dbg !1556
  %_58 = load i32, ptr %ek, align 4, !dbg !1536, !noundef !168
  %20 = icmp eq i32 %_58, 18, !dbg !1536
  br i1 %20, label %bb37, label %bb38, !dbg !1536

bb37:                                             ; preds = %bb36
  %v54 = load i32, ptr %ek, align 4, !dbg !1536, !noundef !168
  store i32 %v54, ptr %v.dbg.spill55, align 4, !dbg !1536
  call void @llvm.dbg.declare(metadata ptr %v.dbg.spill55, metadata !1466, metadata !DIExpression()), !dbg !1556
  store i8 18, ptr %_0, align 1, !dbg !1556
  br label %bb83, !dbg !1536

bb38:                                             ; preds = %bb36
  store ptr %ek, ptr %v.dbg.spill56, align 8, !dbg !1536
  call void @llvm.dbg.declare(metadata ptr %v.dbg.spill56, metadata !1471, metadata !DIExpression()), !dbg !1557
  %_61 = load i32, ptr %ek, align 4, !dbg !1536, !noundef !168
  %21 = icmp eq i32 %_61, 19, !dbg !1536
  br i1 %21, label %bb39, label %bb40, !dbg !1536

bb39:                                             ; preds = %bb38
  %v57 = load i32, ptr %ek, align 4, !dbg !1536, !noundef !168
  store i32 %v57, ptr %v.dbg.spill58, align 4, !dbg !1536
  call void @llvm.dbg.declare(metadata ptr %v.dbg.spill58, metadata !1469, metadata !DIExpression()), !dbg !1557
  store i8 19, ptr %_0, align 1, !dbg !1557
  br label %bb83, !dbg !1536

bb40:                                             ; preds = %bb38
  store ptr %ek, ptr %v.dbg.spill59, align 8, !dbg !1536
  call void @llvm.dbg.declare(metadata ptr %v.dbg.spill59, metadata !1474, metadata !DIExpression()), !dbg !1558
  %_64 = load i32, ptr %ek, align 4, !dbg !1536, !noundef !168
  %22 = icmp eq i32 %_64, 20, !dbg !1536
  br i1 %22, label %bb41, label %bb42, !dbg !1536

bb41:                                             ; preds = %bb40
  %v60 = load i32, ptr %ek, align 4, !dbg !1536, !noundef !168
  store i32 %v60, ptr %v.dbg.spill61, align 4, !dbg !1536
  call void @llvm.dbg.declare(metadata ptr %v.dbg.spill61, metadata !1472, metadata !DIExpression()), !dbg !1558
  store i8 20, ptr %_0, align 1, !dbg !1558
  br label %bb83, !dbg !1536

bb42:                                             ; preds = %bb40
  store ptr %ek, ptr %v.dbg.spill62, align 8, !dbg !1536
  call void @llvm.dbg.declare(metadata ptr %v.dbg.spill62, metadata !1477, metadata !DIExpression()), !dbg !1559
  %_67 = load i32, ptr %ek, align 4, !dbg !1536, !noundef !168
  %23 = icmp eq i32 %_67, 21, !dbg !1536
  br i1 %23, label %bb43, label %bb44, !dbg !1536

bb43:                                             ; preds = %bb42
  %v63 = load i32, ptr %ek, align 4, !dbg !1536, !noundef !168
  store i32 %v63, ptr %v.dbg.spill64, align 4, !dbg !1536
  call void @llvm.dbg.declare(metadata ptr %v.dbg.spill64, metadata !1475, metadata !DIExpression()), !dbg !1559
  store i8 21, ptr %_0, align 1, !dbg !1559
  br label %bb83, !dbg !1536

bb44:                                             ; preds = %bb42
  store ptr %ek, ptr %v.dbg.spill65, align 8, !dbg !1536
  call void @llvm.dbg.declare(metadata ptr %v.dbg.spill65, metadata !1480, metadata !DIExpression()), !dbg !1560
  %_70 = load i32, ptr %ek, align 4, !dbg !1536, !noundef !168
  %24 = icmp eq i32 %_70, 22, !dbg !1536
  br i1 %24, label %bb45, label %bb46, !dbg !1536

bb45:                                             ; preds = %bb44
  %v66 = load i32, ptr %ek, align 4, !dbg !1536, !noundef !168
  store i32 %v66, ptr %v.dbg.spill67, align 4, !dbg !1536
  call void @llvm.dbg.declare(metadata ptr %v.dbg.spill67, metadata !1478, metadata !DIExpression()), !dbg !1560
  store i8 22, ptr %_0, align 1, !dbg !1560
  br label %bb83, !dbg !1536

bb46:                                             ; preds = %bb44
  store ptr %ek, ptr %v.dbg.spill68, align 8, !dbg !1536
  call void @llvm.dbg.declare(metadata ptr %v.dbg.spill68, metadata !1483, metadata !DIExpression()), !dbg !1561
  %_73 = load i32, ptr %ek, align 4, !dbg !1536, !noundef !168
  %25 = icmp eq i32 %_73, 23, !dbg !1536
  br i1 %25, label %bb47, label %bb48, !dbg !1536

bb47:                                             ; preds = %bb46
  %v69 = load i32, ptr %ek, align 4, !dbg !1536, !noundef !168
  store i32 %v69, ptr %v.dbg.spill70, align 4, !dbg !1536
  call void @llvm.dbg.declare(metadata ptr %v.dbg.spill70, metadata !1481, metadata !DIExpression()), !dbg !1561
  store i8 23, ptr %_0, align 1, !dbg !1561
  br label %bb83, !dbg !1536

bb48:                                             ; preds = %bb46
  store ptr %ek, ptr %v.dbg.spill71, align 8, !dbg !1536
  call void @llvm.dbg.declare(metadata ptr %v.dbg.spill71, metadata !1486, metadata !DIExpression()), !dbg !1562
  %_76 = load i32, ptr %ek, align 4, !dbg !1536, !noundef !168
  %26 = icmp eq i32 %_76, 24, !dbg !1536
  br i1 %26, label %bb49, label %bb50, !dbg !1536

bb49:                                             ; preds = %bb48
  %v72 = load i32, ptr %ek, align 4, !dbg !1536, !noundef !168
  store i32 %v72, ptr %v.dbg.spill73, align 4, !dbg !1536
  call void @llvm.dbg.declare(metadata ptr %v.dbg.spill73, metadata !1484, metadata !DIExpression()), !dbg !1562
  store i8 24, ptr %_0, align 1, !dbg !1562
  br label %bb83, !dbg !1536

bb50:                                             ; preds = %bb48
  store ptr %ek, ptr %v.dbg.spill74, align 8, !dbg !1536
  call void @llvm.dbg.declare(metadata ptr %v.dbg.spill74, metadata !1489, metadata !DIExpression()), !dbg !1563
  %_79 = load i32, ptr %ek, align 4, !dbg !1536, !noundef !168
  %27 = icmp eq i32 %_79, 25, !dbg !1536
  br i1 %27, label %bb51, label %bb52, !dbg !1536

bb51:                                             ; preds = %bb50
  %v75 = load i32, ptr %ek, align 4, !dbg !1536, !noundef !168
  store i32 %v75, ptr %v.dbg.spill76, align 4, !dbg !1536
  call void @llvm.dbg.declare(metadata ptr %v.dbg.spill76, metadata !1487, metadata !DIExpression()), !dbg !1563
  store i8 25, ptr %_0, align 1, !dbg !1563
  br label %bb83, !dbg !1536

bb52:                                             ; preds = %bb50
  store ptr %ek, ptr %v.dbg.spill77, align 8, !dbg !1536
  call void @llvm.dbg.declare(metadata ptr %v.dbg.spill77, metadata !1492, metadata !DIExpression()), !dbg !1564
  %_82 = load i32, ptr %ek, align 4, !dbg !1536, !noundef !168
  %28 = icmp eq i32 %_82, 26, !dbg !1536
  br i1 %28, label %bb53, label %bb54, !dbg !1536

bb53:                                             ; preds = %bb52
  %v78 = load i32, ptr %ek, align 4, !dbg !1536, !noundef !168
  store i32 %v78, ptr %v.dbg.spill79, align 4, !dbg !1536
  call void @llvm.dbg.declare(metadata ptr %v.dbg.spill79, metadata !1490, metadata !DIExpression()), !dbg !1564
  store i8 26, ptr %_0, align 1, !dbg !1564
  br label %bb83, !dbg !1536

bb54:                                             ; preds = %bb52
  store ptr %ek, ptr %v.dbg.spill80, align 8, !dbg !1536
  call void @llvm.dbg.declare(metadata ptr %v.dbg.spill80, metadata !1495, metadata !DIExpression()), !dbg !1565
  %_85 = load i32, ptr %ek, align 4, !dbg !1536, !noundef !168
  %29 = icmp eq i32 %_85, 27, !dbg !1536
  br i1 %29, label %bb55, label %bb56, !dbg !1536

bb55:                                             ; preds = %bb54
  %v81 = load i32, ptr %ek, align 4, !dbg !1536, !noundef !168
  store i32 %v81, ptr %v.dbg.spill82, align 4, !dbg !1536
  call void @llvm.dbg.declare(metadata ptr %v.dbg.spill82, metadata !1493, metadata !DIExpression()), !dbg !1565
  store i8 27, ptr %_0, align 1, !dbg !1565
  br label %bb83, !dbg !1536

bb56:                                             ; preds = %bb54
  store ptr %ek, ptr %v.dbg.spill83, align 8, !dbg !1536
  call void @llvm.dbg.declare(metadata ptr %v.dbg.spill83, metadata !1498, metadata !DIExpression()), !dbg !1566
  %_88 = load i32, ptr %ek, align 4, !dbg !1536, !noundef !168
  %30 = icmp eq i32 %_88, 28, !dbg !1536
  br i1 %30, label %bb57, label %bb58, !dbg !1536

bb57:                                             ; preds = %bb56
  %v84 = load i32, ptr %ek, align 4, !dbg !1536, !noundef !168
  store i32 %v84, ptr %v.dbg.spill85, align 4, !dbg !1536
  call void @llvm.dbg.declare(metadata ptr %v.dbg.spill85, metadata !1496, metadata !DIExpression()), !dbg !1566
  store i8 28, ptr %_0, align 1, !dbg !1566
  br label %bb83, !dbg !1536

bb58:                                             ; preds = %bb56
  store ptr %ek, ptr %v.dbg.spill86, align 8, !dbg !1536
  call void @llvm.dbg.declare(metadata ptr %v.dbg.spill86, metadata !1501, metadata !DIExpression()), !dbg !1567
  %_91 = load i32, ptr %ek, align 4, !dbg !1536, !noundef !168
  %31 = icmp eq i32 %_91, 29, !dbg !1536
  br i1 %31, label %bb59, label %bb60, !dbg !1536

bb59:                                             ; preds = %bb58
  %v87 = load i32, ptr %ek, align 4, !dbg !1536, !noundef !168
  store i32 %v87, ptr %v.dbg.spill88, align 4, !dbg !1536
  call void @llvm.dbg.declare(metadata ptr %v.dbg.spill88, metadata !1499, metadata !DIExpression()), !dbg !1567
  store i8 29, ptr %_0, align 1, !dbg !1567
  br label %bb83, !dbg !1536

bb60:                                             ; preds = %bb58
  store ptr %ek, ptr %v.dbg.spill89, align 8, !dbg !1536
  call void @llvm.dbg.declare(metadata ptr %v.dbg.spill89, metadata !1504, metadata !DIExpression()), !dbg !1568
  %_94 = load i32, ptr %ek, align 4, !dbg !1536, !noundef !168
  %32 = icmp eq i32 %_94, 30, !dbg !1536
  br i1 %32, label %bb61, label %bb62, !dbg !1536

bb61:                                             ; preds = %bb60
  %v90 = load i32, ptr %ek, align 4, !dbg !1536, !noundef !168
  store i32 %v90, ptr %v.dbg.spill91, align 4, !dbg !1536
  call void @llvm.dbg.declare(metadata ptr %v.dbg.spill91, metadata !1502, metadata !DIExpression()), !dbg !1568
  store i8 30, ptr %_0, align 1, !dbg !1568
  br label %bb83, !dbg !1536

bb62:                                             ; preds = %bb60
  store ptr %ek, ptr %v.dbg.spill92, align 8, !dbg !1536
  call void @llvm.dbg.declare(metadata ptr %v.dbg.spill92, metadata !1507, metadata !DIExpression()), !dbg !1569
  %_97 = load i32, ptr %ek, align 4, !dbg !1536, !noundef !168
  %33 = icmp eq i32 %_97, 31, !dbg !1536
  br i1 %33, label %bb63, label %bb64, !dbg !1536

bb63:                                             ; preds = %bb62
  %v93 = load i32, ptr %ek, align 4, !dbg !1536, !noundef !168
  store i32 %v93, ptr %v.dbg.spill94, align 4, !dbg !1536
  call void @llvm.dbg.declare(metadata ptr %v.dbg.spill94, metadata !1505, metadata !DIExpression()), !dbg !1569
  store i8 31, ptr %_0, align 1, !dbg !1569
  br label %bb83, !dbg !1536

bb64:                                             ; preds = %bb62
  store ptr %ek, ptr %v.dbg.spill95, align 8, !dbg !1536
  call void @llvm.dbg.declare(metadata ptr %v.dbg.spill95, metadata !1510, metadata !DIExpression()), !dbg !1570
  %_100 = load i32, ptr %ek, align 4, !dbg !1536, !noundef !168
  %34 = icmp eq i32 %_100, 32, !dbg !1536
  br i1 %34, label %bb65, label %bb66, !dbg !1536

bb65:                                             ; preds = %bb64
  %v96 = load i32, ptr %ek, align 4, !dbg !1536, !noundef !168
  store i32 %v96, ptr %v.dbg.spill97, align 4, !dbg !1536
  call void @llvm.dbg.declare(metadata ptr %v.dbg.spill97, metadata !1508, metadata !DIExpression()), !dbg !1570
  store i8 32, ptr %_0, align 1, !dbg !1570
  br label %bb83, !dbg !1536

bb66:                                             ; preds = %bb64
  store ptr %ek, ptr %v.dbg.spill98, align 8, !dbg !1536
  call void @llvm.dbg.declare(metadata ptr %v.dbg.spill98, metadata !1513, metadata !DIExpression()), !dbg !1571
  %_103 = load i32, ptr %ek, align 4, !dbg !1536, !noundef !168
  %35 = icmp eq i32 %_103, 33, !dbg !1536
  br i1 %35, label %bb67, label %bb68, !dbg !1536

bb67:                                             ; preds = %bb66
  %v99 = load i32, ptr %ek, align 4, !dbg !1536, !noundef !168
  store i32 %v99, ptr %v.dbg.spill100, align 4, !dbg !1536
  call void @llvm.dbg.declare(metadata ptr %v.dbg.spill100, metadata !1511, metadata !DIExpression()), !dbg !1571
  store i8 33, ptr %_0, align 1, !dbg !1571
  br label %bb83, !dbg !1536

bb68:                                             ; preds = %bb66
  store ptr %ek, ptr %v.dbg.spill101, align 8, !dbg !1536
  call void @llvm.dbg.declare(metadata ptr %v.dbg.spill101, metadata !1516, metadata !DIExpression()), !dbg !1572
  %_106 = load i32, ptr %ek, align 4, !dbg !1536, !noundef !168
  %36 = icmp eq i32 %_106, 34, !dbg !1536
  br i1 %36, label %bb69, label %bb70, !dbg !1536

bb69:                                             ; preds = %bb68
  %v102 = load i32, ptr %ek, align 4, !dbg !1536, !noundef !168
  store i32 %v102, ptr %v.dbg.spill103, align 4, !dbg !1536
  call void @llvm.dbg.declare(metadata ptr %v.dbg.spill103, metadata !1514, metadata !DIExpression()), !dbg !1572
  store i8 34, ptr %_0, align 1, !dbg !1572
  br label %bb83, !dbg !1536

bb70:                                             ; preds = %bb68
  store ptr %ek, ptr %v.dbg.spill104, align 8, !dbg !1536
  call void @llvm.dbg.declare(metadata ptr %v.dbg.spill104, metadata !1519, metadata !DIExpression()), !dbg !1573
  %_109 = load i32, ptr %ek, align 4, !dbg !1536, !noundef !168
  %37 = icmp eq i32 %_109, 35, !dbg !1536
  br i1 %37, label %bb71, label %bb72, !dbg !1536

bb71:                                             ; preds = %bb70
  %v105 = load i32, ptr %ek, align 4, !dbg !1536, !noundef !168
  store i32 %v105, ptr %v.dbg.spill106, align 4, !dbg !1536
  call void @llvm.dbg.declare(metadata ptr %v.dbg.spill106, metadata !1517, metadata !DIExpression()), !dbg !1573
  store i8 35, ptr %_0, align 1, !dbg !1573
  br label %bb83, !dbg !1536

bb72:                                             ; preds = %bb70
  store ptr %ek, ptr %v.dbg.spill107, align 8, !dbg !1536
  call void @llvm.dbg.declare(metadata ptr %v.dbg.spill107, metadata !1522, metadata !DIExpression()), !dbg !1574
  %_112 = load i32, ptr %ek, align 4, !dbg !1536, !noundef !168
  %38 = icmp eq i32 %_112, 39, !dbg !1536
  br i1 %38, label %bb73, label %bb74, !dbg !1536

bb73:                                             ; preds = %bb72
  %v108 = load i32, ptr %ek, align 4, !dbg !1536, !noundef !168
  store i32 %v108, ptr %v.dbg.spill109, align 4, !dbg !1536
  call void @llvm.dbg.declare(metadata ptr %v.dbg.spill109, metadata !1520, metadata !DIExpression()), !dbg !1574
  store i8 39, ptr %_0, align 1, !dbg !1574
  br label %bb83, !dbg !1536

bb74:                                             ; preds = %bb72
  store ptr %ek, ptr %v.dbg.spill110, align 8, !dbg !1536
  call void @llvm.dbg.declare(metadata ptr %v.dbg.spill110, metadata !1525, metadata !DIExpression()), !dbg !1575
  %_115 = load i32, ptr %ek, align 4, !dbg !1536, !noundef !168
  %39 = icmp eq i32 %_115, 37, !dbg !1536
  br i1 %39, label %bb75, label %bb76, !dbg !1536

bb75:                                             ; preds = %bb74
  %v111 = load i32, ptr %ek, align 4, !dbg !1536, !noundef !168
  store i32 %v111, ptr %v.dbg.spill112, align 4, !dbg !1536
  call void @llvm.dbg.declare(metadata ptr %v.dbg.spill112, metadata !1523, metadata !DIExpression()), !dbg !1575
  store i8 37, ptr %_0, align 1, !dbg !1575
  br label %bb83, !dbg !1536

bb76:                                             ; preds = %bb74
  store ptr %ek, ptr %v.dbg.spill113, align 8, !dbg !1536
  call void @llvm.dbg.declare(metadata ptr %v.dbg.spill113, metadata !1528, metadata !DIExpression()), !dbg !1576
  %_118 = load i32, ptr %ek, align 4, !dbg !1536, !noundef !168
  %40 = icmp eq i32 %_118, 36, !dbg !1536
  br i1 %40, label %bb77, label %bb78, !dbg !1536

bb77:                                             ; preds = %bb76
  %v114 = load i32, ptr %ek, align 4, !dbg !1536, !noundef !168
  store i32 %v114, ptr %v.dbg.spill115, align 4, !dbg !1536
  call void @llvm.dbg.declare(metadata ptr %v.dbg.spill115, metadata !1526, metadata !DIExpression()), !dbg !1576
  store i8 36, ptr %_0, align 1, !dbg !1576
  br label %bb83, !dbg !1536

bb78:                                             ; preds = %bb76
  store ptr %ek, ptr %v.dbg.spill116, align 8, !dbg !1536
  call void @llvm.dbg.declare(metadata ptr %v.dbg.spill116, metadata !1531, metadata !DIExpression()), !dbg !1577
  %_121 = load i32, ptr %ek, align 4, !dbg !1536, !noundef !168
  %41 = icmp eq i32 %_121, 38, !dbg !1536
  br i1 %41, label %bb79, label %bb80, !dbg !1536

bb79:                                             ; preds = %bb78
  %v117 = load i32, ptr %ek, align 4, !dbg !1536, !noundef !168
  store i32 %v117, ptr %v.dbg.spill118, align 4, !dbg !1536
  call void @llvm.dbg.declare(metadata ptr %v.dbg.spill118, metadata !1529, metadata !DIExpression()), !dbg !1577
  store i8 38, ptr %_0, align 1, !dbg !1577
  br label %bb83, !dbg !1536

bb80:                                             ; preds = %bb78
  store ptr %ek, ptr %v.dbg.spill119, align 8, !dbg !1536
  call void @llvm.dbg.declare(metadata ptr %v.dbg.spill119, metadata !1534, metadata !DIExpression()), !dbg !1578
  %_124 = load i32, ptr %ek, align 4, !dbg !1536, !noundef !168
  %42 = icmp eq i32 %_124, 40, !dbg !1536
  br i1 %42, label %bb81, label %bb82, !dbg !1536

bb81:                                             ; preds = %bb80
  %v120 = load i32, ptr %ek, align 4, !dbg !1536, !noundef !168
  store i32 %v120, ptr %v.dbg.spill121, align 4, !dbg !1536
  call void @llvm.dbg.declare(metadata ptr %v.dbg.spill121, metadata !1532, metadata !DIExpression()), !dbg !1578
  store i8 40, ptr %_0, align 1, !dbg !1578
  br label %bb83, !dbg !1536

bb82:                                             ; preds = %bb80
  store i8 41, ptr %_0, align 1, !dbg !1536
  br label %bb83, !dbg !1536
}

; std::env::var_os
; Function Attrs: nonlazybind uwtable
define void @_ZN3std3env6var_os17he55fe81e8dc77f1aE(ptr sret(%"core::option::Option<std::ffi::os_str::OsString>") align 8 %_0, ptr align 1 %0, i64 %1) unnamed_addr #1 personality ptr @rust_eh_personality !dbg !1579 {
start:
  %2 = alloca { ptr, i32, [1 x i32] }, align 8
  %key = alloca { ptr, i64 }, align 8
  store ptr %0, ptr %key, align 8
  %3 = getelementptr inbounds i8, ptr %key, i64 8
  store i64 %1, ptr %3, align 8
  call void @llvm.dbg.declare(metadata ptr %key, metadata !1598, metadata !DIExpression()), !dbg !1601
; invoke <&T as core::convert::AsRef<U>>::as_ref
  %4 = invoke { ptr, i64 } @"_ZN55_$LT$$RF$T$u20$as$u20$core..convert..AsRef$LT$U$GT$$GT$6as_ref17h6ce6c7400490edc9E"(ptr align 8 %key)
          to label %bb1 unwind label %cleanup, !dbg !1602

bb4:                                              ; preds = %cleanup
  %5 = load ptr, ptr %2, align 8, !dbg !1603, !noundef !168
  %6 = getelementptr inbounds i8, ptr %2, i64 8, !dbg !1603
  %7 = load i32, ptr %6, align 8, !dbg !1603, !noundef !168
  %8 = insertvalue { ptr, i32 } poison, ptr %5, 0, !dbg !1603
  %9 = insertvalue { ptr, i32 } %8, i32 %7, 1, !dbg !1603
  resume { ptr, i32 } %9, !dbg !1603

cleanup:                                          ; preds = %bb1, %start
  %10 = landingpad { ptr, i32 }
          cleanup
  %11 = extractvalue { ptr, i32 } %10, 0
  %12 = extractvalue { ptr, i32 } %10, 1
  store ptr %11, ptr %2, align 8
  %13 = getelementptr inbounds i8, ptr %2, i64 8
  store i32 %12, ptr %13, align 8
  br label %bb4

bb1:                                              ; preds = %start
  %_2.0 = extractvalue { ptr, i64 } %4, 0, !dbg !1602
  %_2.1 = extractvalue { ptr, i64 } %4, 1, !dbg !1602
; invoke std::env::_var_os
  invoke void @_ZN3std3env7_var_os17h2aab7dfe7e2cd591E(ptr sret(%"core::option::Option<std::ffi::os_str::OsString>") align 8 %_0, ptr align 1 %_2.0, i64 %_2.1)
          to label %bb2 unwind label %cleanup, !dbg !1604

bb2:                                              ; preds = %bb1
  ret void, !dbg !1605
}

; std::env::set_var
; Function Attrs: nonlazybind uwtable
define void @_ZN3std3env7set_var17h272d649e865d0a43E(ptr align 1 %0, i64 %1, ptr align 8 %2) unnamed_addr #1 personality ptr @rust_eh_personality !dbg !1606 {
start:
  %3 = alloca { ptr, i32, [1 x i32] }, align 8
  %value = alloca ptr, align 8
  %key = alloca { ptr, i64 }, align 8
  store ptr %0, ptr %key, align 8
  %4 = getelementptr inbounds i8, ptr %key, i64 8
  store i64 %1, ptr %4, align 8
  store ptr %2, ptr %value, align 8
  call void @llvm.dbg.declare(metadata ptr %key, metadata !1611, metadata !DIExpression()), !dbg !1615
  call void @llvm.dbg.declare(metadata ptr %value, metadata !1612, metadata !DIExpression()), !dbg !1616
; invoke <&T as core::convert::AsRef<U>>::as_ref
  %5 = invoke { ptr, i64 } @"_ZN55_$LT$$RF$T$u20$as$u20$core..convert..AsRef$LT$U$GT$$GT$6as_ref17h6ce6c7400490edc9E"(ptr align 8 %key)
          to label %bb1 unwind label %cleanup, !dbg !1617

bb6:                                              ; preds = %cleanup
  br label %bb7, !dbg !1618

cleanup:                                          ; preds = %bb2, %bb1, %start
  %6 = landingpad { ptr, i32 }
          cleanup
  %7 = extractvalue { ptr, i32 } %6, 0
  %8 = extractvalue { ptr, i32 } %6, 1
  store ptr %7, ptr %3, align 8
  %9 = getelementptr inbounds i8, ptr %3, i64 8
  store i32 %8, ptr %9, align 8
  br label %bb6

bb1:                                              ; preds = %start
  %_3.0 = extractvalue { ptr, i64 } %5, 0, !dbg !1617
  %_3.1 = extractvalue { ptr, i64 } %5, 1, !dbg !1617
; invoke <&T as core::convert::AsRef<U>>::as_ref
  %10 = invoke { ptr, i64 } @"_ZN55_$LT$$RF$T$u20$as$u20$core..convert..AsRef$LT$U$GT$$GT$6as_ref17haae3b1371396e716E"(ptr align 8 %value)
          to label %bb2 unwind label %cleanup, !dbg !1619

bb2:                                              ; preds = %bb1
  %_5.0 = extractvalue { ptr, i64 } %10, 0, !dbg !1619
  %_5.1 = extractvalue { ptr, i64 } %10, 1, !dbg !1619
; invoke std::env::_set_var
  invoke void @_ZN3std3env8_set_var17hc622bde95540d676E(ptr align 1 %_3.0, i64 %_3.1, ptr align 1 %_5.0, i64 %_5.1)
          to label %bb3 unwind label %cleanup, !dbg !1620

bb3:                                              ; preds = %bb2
  br label %bb4, !dbg !1618

bb4:                                              ; preds = %bb3
  ret void, !dbg !1621

bb7:                                              ; preds = %bb6
  %11 = load ptr, ptr %3, align 8, !dbg !1622, !noundef !168
  %12 = getelementptr inbounds i8, ptr %3, i64 8, !dbg !1622
  %13 = load i32, ptr %12, align 8, !dbg !1622, !noundef !168
  %14 = insertvalue { ptr, i32 } poison, ptr %11, 0, !dbg !1622
  %15 = insertvalue { ptr, i32 } %14, i32 %13, 1, !dbg !1622
  resume { ptr, i32 } %15, !dbg !1622
}

; std::ffi::os_str::<impl core::convert::AsRef<std::ffi::os_str::OsStr> for str>::as_ref
; Function Attrs: inlinehint nonlazybind uwtable
define internal { ptr, i64 } @"_ZN3std3ffi6os_str85_$LT$impl$u20$core..convert..AsRef$LT$std..ffi..os_str..OsStr$GT$$u20$for$u20$str$GT$6as_ref17h4b9a7dfd981e781dE"(ptr align 1 %self.0, i64 %self.1) unnamed_addr #0 !dbg !1623 {
start:
  %inner.dbg.spill = alloca { ptr, i64 }, align 8
  %s.dbg.spill = alloca { ptr, i64 }, align 8
  %self.dbg.spill = alloca { ptr, i64 }, align 8
  store ptr %self.0, ptr %self.dbg.spill, align 8
  %0 = getelementptr inbounds i8, ptr %self.dbg.spill, i64 8
  store i64 %self.1, ptr %0, align 8
  call void @llvm.dbg.declare(metadata ptr %self.dbg.spill, metadata !1634, metadata !DIExpression()), !dbg !1635
  call void @llvm.dbg.declare(metadata ptr %self.dbg.spill, metadata !1636, metadata !DIExpression()), !dbg !1649
  call void @llvm.dbg.declare(metadata ptr %self.dbg.spill, metadata !1651, metadata !DIExpression()), !dbg !1664
  store ptr %self.0, ptr %s.dbg.spill, align 8, !dbg !1666
  %1 = getelementptr inbounds i8, ptr %s.dbg.spill, i64 8, !dbg !1666
  store i64 %self.1, ptr %1, align 8, !dbg !1666
  call void @llvm.dbg.declare(metadata ptr %s.dbg.spill, metadata !1667, metadata !DIExpression()), !dbg !1674
  store ptr %self.0, ptr %inner.dbg.spill, align 8, !dbg !1676
  %2 = getelementptr inbounds i8, ptr %inner.dbg.spill, i64 8, !dbg !1676
  store i64 %self.1, ptr %2, align 8, !dbg !1676
  call void @llvm.dbg.declare(metadata ptr %inner.dbg.spill, metadata !1677, metadata !DIExpression()), !dbg !1684
  %3 = insertvalue { ptr, i64 } poison, ptr %self.0, 0, !dbg !1686
  %4 = insertvalue { ptr, i64 } %3, i64 %self.1, 1, !dbg !1686
  ret { ptr, i64 } %4, !dbg !1686
}

; std::path::Path::new
; Function Attrs: nonlazybind uwtable
define { ptr, i64 } @_ZN3std4path4Path3new17h8aa8e6ec848e278bE(ptr align 8 %s) unnamed_addr #1 !dbg !1687 {
start:
  %s.dbg.spill = alloca ptr, align 8
  store ptr %s, ptr %s.dbg.spill, align 8
  call void @llvm.dbg.declare(metadata ptr %s.dbg.spill, metadata !1693, metadata !DIExpression()), !dbg !1694
; call <&T as core::convert::AsRef<U>>::as_ref
  %0 = call { ptr, i64 } @"_ZN55_$LT$$RF$T$u20$as$u20$core..convert..AsRef$LT$U$GT$$GT$6as_ref17h6ce6c7400490edc9E"(ptr align 8 %s), !dbg !1695
  %_4.0 = extractvalue { ptr, i64 } %0, 0, !dbg !1695
  %_4.1 = extractvalue { ptr, i64 } %0, 1, !dbg !1695
  %1 = insertvalue { ptr, i64 } poison, ptr %_4.0, 0, !dbg !1696
  %2 = insertvalue { ptr, i64 } %1, i64 %_4.1, 1, !dbg !1696
  ret { ptr, i64 } %2, !dbg !1696
}

; std::path::Path::join
; Function Attrs: nonlazybind uwtable
define void @_ZN3std4path4Path4join17h399450aaaae5a671E(ptr sret(%"std::path::PathBuf") align 8 %_0, ptr align 1 %self.0, i64 %self.1, ptr align 8 %0) unnamed_addr #1 personality ptr @rust_eh_personality !dbg !1697 {
start:
  %1 = alloca { ptr, i32, [1 x i32] }, align 8
  %self.dbg.spill = alloca { ptr, i64 }, align 8
  %path = alloca ptr, align 8
  store ptr %0, ptr %path, align 8
  store ptr %self.0, ptr %self.dbg.spill, align 8
  %2 = getelementptr inbounds i8, ptr %self.dbg.spill, i64 8
  store i64 %self.1, ptr %2, align 8
  call void @llvm.dbg.declare(metadata ptr %self.dbg.spill, metadata !1704, metadata !DIExpression()), !dbg !1706
  call void @llvm.dbg.declare(metadata ptr %path, metadata !1705, metadata !DIExpression()), !dbg !1707
; invoke <&T as core::convert::AsRef<U>>::as_ref
  %3 = invoke { ptr, i64 } @"_ZN55_$LT$$RF$T$u20$as$u20$core..convert..AsRef$LT$U$GT$$GT$6as_ref17hdaa7e109d7728f77E"(ptr align 8 %path)
          to label %bb1 unwind label %cleanup, !dbg !1708

bb4:                                              ; preds = %cleanup
  %4 = load ptr, ptr %1, align 8, !dbg !1709, !noundef !168
  %5 = getelementptr inbounds i8, ptr %1, i64 8, !dbg !1709
  %6 = load i32, ptr %5, align 8, !dbg !1709, !noundef !168
  %7 = insertvalue { ptr, i32 } poison, ptr %4, 0, !dbg !1709
  %8 = insertvalue { ptr, i32 } %7, i32 %6, 1, !dbg !1709
  resume { ptr, i32 } %8, !dbg !1709

cleanup:                                          ; preds = %bb1, %start
  %9 = landingpad { ptr, i32 }
          cleanup
  %10 = extractvalue { ptr, i32 } %9, 0
  %11 = extractvalue { ptr, i32 } %9, 1
  store ptr %10, ptr %1, align 8
  %12 = getelementptr inbounds i8, ptr %1, i64 8
  store i32 %11, ptr %12, align 8
  br label %bb4

bb1:                                              ; preds = %start
  %_3.0 = extractvalue { ptr, i64 } %3, 0, !dbg !1708
  %_3.1 = extractvalue { ptr, i64 } %3, 1, !dbg !1708
; invoke std::path::Path::_join
  invoke void @_ZN3std4path4Path5_join17hec75aca45f8136f8E(ptr sret(%"std::path::PathBuf") align 8 %_0, ptr align 1 %self.0, i64 %self.1, ptr align 1 %_3.0, i64 %_3.1)
          to label %bb2 unwind label %cleanup, !dbg !1710

bb2:                                              ; preds = %bb1
  ret void, !dbg !1711
}

; std::path::Path::join
; Function Attrs: nonlazybind uwtable
define void @_ZN3std4path4Path4join17ha7784a77cfe280bcE(ptr sret(%"std::path::PathBuf") align 8 %_0, ptr align 1 %self.0, i64 %self.1, ptr align 1 %0, i64 %1) unnamed_addr #1 personality ptr @rust_eh_personality !dbg !1712 {
start:
  %2 = alloca { ptr, i32, [1 x i32] }, align 8
  %self.dbg.spill = alloca { ptr, i64 }, align 8
  %path = alloca { ptr, i64 }, align 8
  store ptr %0, ptr %path, align 8
  %3 = getelementptr inbounds i8, ptr %path, i64 8
  store i64 %1, ptr %3, align 8
  store ptr %self.0, ptr %self.dbg.spill, align 8
  %4 = getelementptr inbounds i8, ptr %self.dbg.spill, i64 8
  store i64 %self.1, ptr %4, align 8
  call void @llvm.dbg.declare(metadata ptr %self.dbg.spill, metadata !1719, metadata !DIExpression()), !dbg !1721
  call void @llvm.dbg.declare(metadata ptr %path, metadata !1720, metadata !DIExpression()), !dbg !1722
; invoke <&T as core::convert::AsRef<U>>::as_ref
  %5 = invoke { ptr, i64 } @"_ZN55_$LT$$RF$T$u20$as$u20$core..convert..AsRef$LT$U$GT$$GT$6as_ref17ha191238fcf9263b4E"(ptr align 8 %path)
          to label %bb1 unwind label %cleanup, !dbg !1723

bb4:                                              ; preds = %cleanup
  %6 = load ptr, ptr %2, align 8, !dbg !1724, !noundef !168
  %7 = getelementptr inbounds i8, ptr %2, i64 8, !dbg !1724
  %8 = load i32, ptr %7, align 8, !dbg !1724, !noundef !168
  %9 = insertvalue { ptr, i32 } poison, ptr %6, 0, !dbg !1724
  %10 = insertvalue { ptr, i32 } %9, i32 %8, 1, !dbg !1724
  resume { ptr, i32 } %10, !dbg !1724

cleanup:                                          ; preds = %bb1, %start
  %11 = landingpad { ptr, i32 }
          cleanup
  %12 = extractvalue { ptr, i32 } %11, 0
  %13 = extractvalue { ptr, i32 } %11, 1
  store ptr %12, ptr %2, align 8
  %14 = getelementptr inbounds i8, ptr %2, i64 8
  store i32 %13, ptr %14, align 8
  br label %bb4

bb1:                                              ; preds = %start
  %_3.0 = extractvalue { ptr, i64 } %5, 0, !dbg !1723
  %_3.1 = extractvalue { ptr, i64 } %5, 1, !dbg !1723
; invoke std::path::Path::_join
  invoke void @_ZN3std4path4Path5_join17hec75aca45f8136f8E(ptr sret(%"std::path::PathBuf") align 8 %_0, ptr align 1 %self.0, i64 %self.1, ptr align 1 %_3.0, i64 %_3.1)
          to label %bb2 unwind label %cleanup, !dbg !1725

bb2:                                              ; preds = %bb1
  ret void, !dbg !1726
}

; std::path::Path::exists
; Function Attrs: inlinehint nonlazybind uwtable
define internal zeroext i1 @_ZN3std4path4Path6exists17h92323510cd68607eE(ptr align 1 %self.0, i64 %self.1) unnamed_addr #0 !dbg !1727 {
start:
  %self.dbg.spill1 = alloca ptr, align 8
  %self.dbg.spill = alloca { ptr, i64 }, align 8
  %_3 = alloca %"core::result::Result<std::fs::Metadata, std::io::error::Error>", align 8
  store ptr %self.0, ptr %self.dbg.spill, align 8
  %0 = getelementptr inbounds i8, ptr %self.dbg.spill, i64 8
  store i64 %self.1, ptr %0, align 8
  call void @llvm.dbg.declare(metadata ptr %self.dbg.spill, metadata !1733, metadata !DIExpression()), !dbg !1734
; call std::fs::metadata
  call void @_ZN3std2fs8metadata17h9993f40b0d1f1b79E(ptr sret(%"core::result::Result<std::fs::Metadata, std::io::error::Error>") align 8 %_3, ptr align 1 %self.0, i64 %self.1), !dbg !1735
  store ptr %_3, ptr %self.dbg.spill1, align 8, !dbg !1735
  call void @llvm.dbg.declare(metadata ptr %self.dbg.spill1, metadata !1736, metadata !DIExpression()), !dbg !1745
  %1 = load i64, ptr %_3, align 8, !dbg !1747, !range !1087, !noundef !168
  %2 = icmp eq i64 %1, 2, !dbg !1747
  %_4 = select i1 %2, i64 1, i64 0, !dbg !1747
  %_0 = icmp eq i64 %_4, 0, !dbg !1748
; call core::ptr::drop_in_place<core::result::Result<std::fs::Metadata,std::io::error::Error>>
  call void @"_ZN4core3ptr90drop_in_place$LT$core..result..Result$LT$std..fs..Metadata$C$std..io..error..Error$GT$$GT$17he655053566819f3dE"(ptr align 8 %_3), !dbg !1749
  ret i1 %_0, !dbg !1750
}

; std::path::<impl core::convert::AsRef<std::path::Path> for str>::as_ref
; Function Attrs: inlinehint nonlazybind uwtable
define internal { ptr, i64 } @"_ZN3std4path77_$LT$impl$u20$core..convert..AsRef$LT$std..path..Path$GT$$u20$for$u20$str$GT$6as_ref17h75fb459f11974c60E"(ptr align 1 %self.0, i64 %self.1) unnamed_addr #0 !dbg !1751 {
start:
  %inner.dbg.spill = alloca { ptr, i64 }, align 8
  %s.dbg.spill = alloca { ptr, i64 }, align 8
  %self.dbg.spill = alloca { ptr, i64 }, align 8
  store ptr %self.0, ptr %self.dbg.spill, align 8
  %0 = getelementptr inbounds i8, ptr %self.dbg.spill, i64 8
  store i64 %self.1, ptr %0, align 8
  call void @llvm.dbg.declare(metadata ptr %self.dbg.spill, metadata !1756, metadata !DIExpression()), !dbg !1757
  call void @llvm.dbg.declare(metadata ptr %self.dbg.spill, metadata !1758, metadata !DIExpression()), !dbg !1765
  call void @llvm.dbg.declare(metadata ptr %self.dbg.spill, metadata !1767, metadata !DIExpression()), !dbg !1771
  call void @llvm.dbg.declare(metadata ptr %self.dbg.spill, metadata !1773, metadata !DIExpression()), !dbg !1777
  call void @llvm.dbg.declare(metadata ptr %self.dbg.spill, metadata !1779, metadata !DIExpression()), !dbg !1783
  store ptr %self.0, ptr %s.dbg.spill, align 8, !dbg !1785
  %1 = getelementptr inbounds i8, ptr %s.dbg.spill, i64 8, !dbg !1785
  store i64 %self.1, ptr %1, align 8, !dbg !1785
  call void @llvm.dbg.declare(metadata ptr %s.dbg.spill, metadata !1786, metadata !DIExpression()), !dbg !1790
  store ptr %self.0, ptr %inner.dbg.spill, align 8, !dbg !1792
  %2 = getelementptr inbounds i8, ptr %inner.dbg.spill, i64 8, !dbg !1792
  store i64 %self.1, ptr %2, align 8, !dbg !1792
  call void @llvm.dbg.declare(metadata ptr %inner.dbg.spill, metadata !1793, metadata !DIExpression()), !dbg !1797
  %3 = insertvalue { ptr, i64 } poison, ptr %self.0, 0, !dbg !1799
  %4 = insertvalue { ptr, i64 } %3, i64 %self.1, 1, !dbg !1799
  ret { ptr, i64 } %4, !dbg !1799
}

; core::cmp::impls::<impl core::cmp::Ord for usize>::cmp
; Function Attrs: inlinehint nonlazybind uwtable
define internal i8 @"_ZN4core3cmp5impls50_$LT$impl$u20$core..cmp..Ord$u20$for$u20$usize$GT$3cmp17h24f8b019e04f78d8E"(ptr align 8 %self, ptr align 8 %other) unnamed_addr #0 !dbg !1800 {
start:
  %other.dbg.spill = alloca ptr, align 8
  %self.dbg.spill = alloca ptr, align 8
  %_0 = alloca i8, align 1
  store ptr %self, ptr %self.dbg.spill, align 8
  call void @llvm.dbg.declare(metadata ptr %self.dbg.spill, metadata !1806, metadata !DIExpression()), !dbg !1808
  store ptr %other, ptr %other.dbg.spill, align 8
  call void @llvm.dbg.declare(metadata ptr %other.dbg.spill, metadata !1807, metadata !DIExpression()), !dbg !1809
  %_4 = load i64, ptr %self, align 8, !dbg !1810, !noundef !168
  %_5 = load i64, ptr %other, align 8, !dbg !1811, !noundef !168
  %_3 = icmp ult i64 %_4, %_5, !dbg !1810
  br i1 %_3, label %bb1, label %bb2, !dbg !1810

bb2:                                              ; preds = %start
  %_6 = icmp eq i64 %_4, %_5, !dbg !1812
  br i1 %_6, label %bb3, label %bb4, !dbg !1812

bb1:                                              ; preds = %start
  store i8 -1, ptr %_0, align 1, !dbg !1813
  br label %bb6, !dbg !1814

bb4:                                              ; preds = %bb2
  store i8 1, ptr %_0, align 1, !dbg !1815
  br label %bb5, !dbg !1816

bb3:                                              ; preds = %bb2
  store i8 0, ptr %_0, align 1, !dbg !1817
  br label %bb5, !dbg !1816

bb5:                                              ; preds = %bb3, %bb4
  br label %bb6, !dbg !1814

bb6:                                              ; preds = %bb1, %bb5
  %0 = load i8, ptr %_0, align 1, !dbg !1818, !range !1819, !noundef !168
  ret i8 %0, !dbg !1818
}

; core::cmp::max_by
; Function Attrs: inlinehint nonlazybind uwtable
define i64 @_ZN4core3cmp6max_by17h324b7c1d1f486602E(i64 %0, i64 %1) unnamed_addr #0 personality ptr @rust_eh_personality !dbg !1820 {
start:
  %2 = alloca { ptr, i32, [1 x i32] }, align 8
  %compare.dbg.spill = alloca {}, align 1
  %_10 = alloca i8, align 1
  %_9 = alloca i8, align 1
  %_5 = alloca { ptr, ptr }, align 8
  %_4 = alloca i8, align 1
  %_0 = alloca i64, align 8
  %v2 = alloca i64, align 8
  %v1 = alloca i64, align 8
  store i64 %0, ptr %v1, align 8
  store i64 %1, ptr %v2, align 8
  call void @llvm.dbg.declare(metadata ptr %v1, metadata !1825, metadata !DIExpression()), !dbg !1830
  call void @llvm.dbg.declare(metadata ptr %v2, metadata !1826, metadata !DIExpression()), !dbg !1831
  call void @llvm.dbg.declare(metadata ptr %compare.dbg.spill, metadata !1827, metadata !DIExpression()), !dbg !1832
  store i8 1, ptr %_10, align 1, !dbg !1833
  store i8 1, ptr %_9, align 1, !dbg !1833
  store ptr %v1, ptr %_5, align 8, !dbg !1833
  %3 = getelementptr inbounds i8, ptr %_5, i64 8, !dbg !1833
  store ptr %v2, ptr %3, align 8, !dbg !1833
  %4 = load ptr, ptr %_5, align 8, !dbg !1833, !nonnull !168, !align !469, !noundef !168
  %5 = getelementptr inbounds i8, ptr %_5, i64 8, !dbg !1833
  %6 = load ptr, ptr %5, align 8, !dbg !1833, !nonnull !168, !align !469, !noundef !168
; invoke core::ops::function::FnOnce::call_once
  %7 = invoke i8 @_ZN4core3ops8function6FnOnce9call_once17h957342e082ca1be5E(ptr align 8 %4, ptr align 8 %6)
          to label %bb1 unwind label %cleanup, !dbg !1833, !range !1819

bb7:                                              ; preds = %cleanup
  br label %bb12, !dbg !1834

cleanup:                                          ; preds = %start
  %8 = landingpad { ptr, i32 }
          cleanup
  %9 = extractvalue { ptr, i32 } %8, 0
  %10 = extractvalue { ptr, i32 } %8, 1
  store ptr %9, ptr %2, align 8
  %11 = getelementptr inbounds i8, ptr %2, i64 8
  store i32 %10, ptr %11, align 8
  br label %bb7

bb1:                                              ; preds = %start
  store i8 %7, ptr %_4, align 1, !dbg !1833
  %_8 = load i8, ptr %_4, align 1, !dbg !1833, !range !1819, !noundef !168
  switch i8 %_8, label %bb13 [
    i8 -1, label %bb3
    i8 0, label %bb3
    i8 1, label %bb2
  ], !dbg !1835

bb13:                                             ; preds = %bb1
  unreachable, !dbg !1835

bb3:                                              ; preds = %bb1, %bb1
  store i8 0, ptr %_9, align 1, !dbg !1836
  %12 = load i64, ptr %v2, align 8, !dbg !1836, !noundef !168
  store i64 %12, ptr %_0, align 8, !dbg !1836
  br label %bb4, !dbg !1836

bb2:                                              ; preds = %bb1
  store i8 0, ptr %_10, align 1, !dbg !1837
  %13 = load i64, ptr %v1, align 8, !dbg !1837, !noundef !168
  store i64 %13, ptr %_0, align 8, !dbg !1837
  br label %bb4, !dbg !1837

bb4:                                              ; preds = %bb2, %bb3
  %14 = load i8, ptr %_9, align 1, !dbg !1834, !range !721, !noundef !168
  %15 = trunc i8 %14 to i1, !dbg !1834
  br i1 %15, label %bb9, label %bb5, !dbg !1834

bb5:                                              ; preds = %bb9, %bb4
  %16 = load i8, ptr %_10, align 1, !dbg !1834, !range !721, !noundef !168
  %17 = trunc i8 %16 to i1, !dbg !1834
  br i1 %17, label %bb10, label %bb6, !dbg !1834

bb9:                                              ; preds = %bb4
  br label %bb5, !dbg !1834

bb6:                                              ; preds = %bb10, %bb5
  %18 = load i64, ptr %_0, align 8, !dbg !1838, !noundef !168
  ret i64 %18, !dbg !1838

bb10:                                             ; preds = %bb5
  br label %bb6, !dbg !1834

bb12:                                             ; preds = %bb7
  %19 = load i8, ptr %_10, align 1, !dbg !1834, !range !721, !noundef !168
  %20 = trunc i8 %19 to i1, !dbg !1834
  br i1 %20, label %bb11, label %bb8, !dbg !1834

bb8:                                              ; preds = %bb11, %bb12
  %21 = load ptr, ptr %2, align 8, !dbg !1839, !noundef !168
  %22 = getelementptr inbounds i8, ptr %2, i64 8, !dbg !1839
  %23 = load i32, ptr %22, align 8, !dbg !1839, !noundef !168
  %24 = insertvalue { ptr, i32 } poison, ptr %21, 0, !dbg !1839
  %25 = insertvalue { ptr, i32 } %24, i32 %23, 1, !dbg !1839
  resume { ptr, i32 } %25, !dbg !1839

bb11:                                             ; preds = %bb12
  br label %bb8, !dbg !1834
}

; core::ops::function::FnMut::call_mut
; Function Attrs: inlinehint nonlazybind uwtable
define internal { ptr, i64 } @_ZN4core3ops8function5FnMut8call_mut17h81aa4186a626fffaE(ptr align 1 %_1, ptr align 8 %0) unnamed_addr #0 !dbg !1840 {
start:
  %_1.dbg.spill = alloca ptr, align 8
  %_2 = alloca ptr, align 8
  store ptr %0, ptr %_2, align 8
  store ptr %_1, ptr %_1.dbg.spill, align 8
  call void @llvm.dbg.declare(metadata ptr %_1.dbg.spill, metadata !1847, metadata !DIExpression()), !dbg !1855
  call void @llvm.dbg.declare(metadata ptr %_2, metadata !1848, metadata !DIExpression()), !dbg !1855
  %1 = load ptr, ptr %_2, align 8, !dbg !1855, !nonnull !168, !align !469, !noundef !168
; call std::path::Path::new
  %2 = call { ptr, i64 } @_ZN3std4path4Path3new17h8aa8e6ec848e278bE(ptr align 8 %1), !dbg !1855
  %_0.0 = extractvalue { ptr, i64 } %2, 0, !dbg !1855
  %_0.1 = extractvalue { ptr, i64 } %2, 1, !dbg !1855
  %3 = insertvalue { ptr, i64 } poison, ptr %_0.0, 0, !dbg !1855
  %4 = insertvalue { ptr, i64 } %3, i64 %_0.1, 1, !dbg !1855
  ret { ptr, i64 } %4, !dbg !1855
}

; core::ops::function::FnMut::call_mut
; Function Attrs: inlinehint nonlazybind uwtable
define internal void @_ZN4core3ops8function5FnMut8call_mut17hbb1b965ae940275fE(ptr sret(%"std::path::PathBuf") align 8 %_0, ptr align 1 %_1, ptr align 1 %0, i64 %1) unnamed_addr #0 !dbg !1856 {
start:
  %_1.dbg.spill = alloca ptr, align 8
  %_2 = alloca { { ptr, i64 } }, align 8
  store ptr %0, ptr %_2, align 8
  %2 = getelementptr inbounds i8, ptr %_2, i64 8
  store i64 %1, ptr %2, align 8
  store ptr %_1, ptr %_1.dbg.spill, align 8
  call void @llvm.dbg.declare(metadata ptr %_1.dbg.spill, metadata !1860, metadata !DIExpression()), !dbg !1868
  call void @llvm.dbg.declare(metadata ptr %_2, metadata !1861, metadata !DIExpression()), !dbg !1868
  %3 = load ptr, ptr %_2, align 8, !dbg !1868, !nonnull !168, !align !333, !noundef !168
  %4 = getelementptr inbounds i8, ptr %_2, i64 8, !dbg !1868
  %5 = load i64, ptr %4, align 8, !dbg !1868, !noundef !168
; call std::path::Path::to_path_buf
  call void @_ZN3std4path4Path11to_path_buf17h20a106fd8f4510ebE(ptr sret(%"std::path::PathBuf") align 8 %_0, ptr align 1 %3, i64 %5), !dbg !1868
  ret void, !dbg !1868
}

; core::ops::function::impls::<impl core::ops::function::FnMut<A> for &mut F>::call_mut
; Function Attrs: nonlazybind uwtable
define zeroext i1 @"_ZN4core3ops8function5impls79_$LT$impl$u20$core..ops..function..FnMut$LT$A$GT$$u20$for$u20$$RF$mut$u20$F$GT$8call_mut17h0139bfb7eee5ceedE"(ptr align 8 %self, ptr align 8 %0) unnamed_addr #1 !dbg !1869 {
start:
  %self.dbg.spill = alloca ptr, align 8
  %args = alloca ptr, align 8
  store ptr %0, ptr %args, align 8
  store ptr %self, ptr %self.dbg.spill, align 8
  call void @llvm.dbg.declare(metadata ptr %self.dbg.spill, metadata !1876, metadata !DIExpression()), !dbg !1884
  call void @llvm.dbg.declare(metadata ptr %args, metadata !1877, metadata !DIExpression()), !dbg !1885
  %_3 = load ptr, ptr %self, align 8, !dbg !1886, !nonnull !168, !align !333, !noundef !168
  %1 = load ptr, ptr %args, align 8, !dbg !1886, !nonnull !168, !align !469, !noundef !168
; call openssl_probe::cert_dirs_iter::{{closure}}
  %_0 = call zeroext i1 @"_ZN13openssl_probe14cert_dirs_iter28_$u7b$$u7b$closure$u7d$$u7d$17h65f9848419c0e3b7E"(ptr align 1 %_3, ptr align 8 %1), !dbg !1886
  ret i1 %_0, !dbg !1887
}

; core::ops::function::impls::<impl core::ops::function::FnOnce<A> for &mut F>::call_once
; Function Attrs: nonlazybind uwtable
define void @"_ZN4core3ops8function5impls80_$LT$impl$u20$core..ops..function..FnOnce$LT$A$GT$$u20$for$u20$$RF$mut$u20$F$GT$9call_once17hc4c4c011a599c2e8E"(ptr sret(%"std::path::PathBuf") align 8 %_0, ptr align 1 %self, ptr align 1 %0, i64 %1) unnamed_addr #1 !dbg !1888 {
start:
  %self.dbg.spill = alloca ptr, align 8
  %args = alloca { { ptr, i64 } }, align 8
  store ptr %0, ptr %args, align 8
  %2 = getelementptr inbounds i8, ptr %args, i64 8
  store i64 %1, ptr %2, align 8
  store ptr %self, ptr %self.dbg.spill, align 8
  call void @llvm.dbg.declare(metadata ptr %self.dbg.spill, metadata !1891, metadata !DIExpression()), !dbg !1895
  call void @llvm.dbg.declare(metadata ptr %args, metadata !1892, metadata !DIExpression()), !dbg !1896
  %3 = load ptr, ptr %args, align 8, !dbg !1897, !nonnull !168, !align !333, !noundef !168
  %4 = getelementptr inbounds i8, ptr %args, i64 8, !dbg !1897
  %5 = load i64, ptr %4, align 8, !dbg !1897, !noundef !168
; call core::ops::function::FnMut::call_mut
  call void @_ZN4core3ops8function5FnMut8call_mut17hbb1b965ae940275fE(ptr sret(%"std::path::PathBuf") align 8 %_0, ptr align 1 %self, ptr align 1 %3, i64 %5), !dbg !1897
  ret void, !dbg !1898
}

; core::ops::function::FnOnce::call_once
; Function Attrs: inlinehint nonlazybind uwtable
define internal void @_ZN4core3ops8function6FnOnce9call_once17h49d38398448f97d3E(ptr sret(%"std::path::PathBuf") align 8 %_0, ptr align 8 %0) unnamed_addr #0 !dbg !1899 {
start:
  %_1.dbg.spill = alloca {}, align 1
  %_2 = alloca { %"std::ffi::os_str::OsString" }, align 8
  call void @llvm.memcpy.p0.p0.i64(ptr align 8 %_2, ptr align 8 %0, i64 24, i1 false)
  call void @llvm.dbg.declare(metadata ptr %_1.dbg.spill, metadata !1907, metadata !DIExpression()), !dbg !1915
  call void @llvm.dbg.declare(metadata ptr %_2, metadata !1908, metadata !DIExpression()), !dbg !1915
; call <std::path::PathBuf as core::convert::From<std::ffi::os_str::OsString>>::from
  call void @"_ZN92_$LT$std..path..PathBuf$u20$as$u20$core..convert..From$LT$std..ffi..os_str..OsString$GT$$GT$4from17h38b02eb0628eb6c0E"(ptr sret(%"std::path::PathBuf") align 8 %_0, ptr align 8 %_2), !dbg !1915
  ret void, !dbg !1915
}

; core::ops::function::FnOnce::call_once
; Function Attrs: inlinehint nonlazybind uwtable
define internal void @_ZN4core3ops8function6FnOnce9call_once17h6b5175bb11e98e09E(ptr sret(%"std::fs::Metadata") align 8 %_0, ptr align 8 %0) unnamed_addr #0 !dbg !1916 {
start:
  %_1.dbg.spill = alloca {}, align 1
  %_2 = alloca { %"std::sys::pal::unix::fs::FileAttr" }, align 8
  call void @llvm.memcpy.p0.p0.i64(ptr align 8 %_2, ptr align 8 %0, i64 176, i1 false)
  call void @llvm.dbg.declare(metadata ptr %_1.dbg.spill, metadata !1921, metadata !DIExpression()), !dbg !1929
  call void @llvm.dbg.declare(metadata ptr %_2, metadata !1922, metadata !DIExpression()), !dbg !1929
; call std::fs::Metadata
  call void @_ZN3std2fs8Metadata17hc47a3675e2d0dea1E(ptr sret(%"std::fs::Metadata") align 8 %_0, ptr align 8 %_2), !dbg !1929
  ret void, !dbg !1929
}

; core::ops::function::FnOnce::call_once
; Function Attrs: inlinehint nonlazybind uwtable
define internal i8 @_ZN4core3ops8function6FnOnce9call_once17h957342e082ca1be5E(ptr align 8 %0, ptr align 8 %1) unnamed_addr #0 !dbg !1930 {
start:
  %_1.dbg.spill = alloca {}, align 1
  %_2 = alloca { ptr, ptr }, align 8
  store ptr %0, ptr %_2, align 8
  %2 = getelementptr inbounds i8, ptr %_2, i64 8
  store ptr %1, ptr %2, align 8
  call void @llvm.dbg.declare(metadata ptr %_1.dbg.spill, metadata !1934, metadata !DIExpression()), !dbg !1943
  call void @llvm.dbg.declare(metadata ptr %_2, metadata !1935, metadata !DIExpression()), !dbg !1943
  %3 = load ptr, ptr %_2, align 8, !dbg !1943, !nonnull !168, !align !469, !noundef !168
  %4 = getelementptr inbounds i8, ptr %_2, i64 8, !dbg !1943
  %5 = load ptr, ptr %4, align 8, !dbg !1943, !nonnull !168, !align !469, !noundef !168
; call core::cmp::impls::<impl core::cmp::Ord for usize>::cmp
  %_0 = call i8 @"_ZN4core3cmp5impls50_$LT$impl$u20$core..cmp..Ord$u20$for$u20$usize$GT$3cmp17h24f8b019e04f78d8E"(ptr align 8 %3, ptr align 8 %5), !dbg !1943, !range !1819
  ret i8 %_0, !dbg !1943
}

; core::ptr::drop_in_place<std::io::error::ErrorData<alloc::boxed::Box<std::io::error::Custom>>>
; Function Attrs: nonlazybind uwtable
define void @"_ZN4core3ptr101drop_in_place$LT$std..io..error..ErrorData$LT$alloc..boxed..Box$LT$std..io..error..Custom$GT$$GT$$GT$17h9bcd19300ceac499E"(ptr align 8 %_1) unnamed_addr #1 !dbg !1944 {
start:
  %_1.dbg.spill = alloca ptr, align 8
  store ptr %_1, ptr %_1.dbg.spill, align 8
  call void @llvm.dbg.declare(metadata ptr %_1.dbg.spill, metadata !1949, metadata !DIExpression()), !dbg !1950
  %0 = load i8, ptr %_1, align 8, !dbg !1950, !range !1951, !noundef !168
  %_2 = zext i8 %0 to i64, !dbg !1950
  switch i64 %_2, label %bb2 [
    i64 0, label %bb1
    i64 1, label %bb1
    i64 2, label %bb1
  ], !dbg !1950

bb2:                                              ; preds = %start
  %1 = getelementptr inbounds %"std::io::error::ErrorData<alloc::boxed::Box<std::io::error::Custom>>::Custom", ptr %_1, i32 0, i32 1, !dbg !1950
; call core::ptr::drop_in_place<alloc::boxed::Box<std::io::error::Custom>>
  call void @"_ZN4core3ptr68drop_in_place$LT$alloc..boxed..Box$LT$std..io..error..Custom$GT$$GT$17hfb806dd6bb50dbcbE"(ptr align 8 %1), !dbg !1950
  br label %bb1, !dbg !1950

bb1:                                              ; preds = %bb2, %start, %start, %start
  ret void, !dbg !1950
}

; core::ptr::drop_in_place<alloc::boxed::Box<dyn core::error::Error+core::marker::Send+core::marker::Sync>>
; Function Attrs: nonlazybind uwtable
define void @"_ZN4core3ptr118drop_in_place$LT$alloc..boxed..Box$LT$dyn$u20$core..error..Error$u2b$core..marker..Send$u2b$core..marker..Sync$GT$$GT$17hd268ce29c3352c26E"(ptr align 8 %_1) unnamed_addr #1 personality ptr @rust_eh_personality !dbg !1952 {
start:
  %0 = alloca { ptr, i32, [1 x i32] }, align 8
  %_1.dbg.spill = alloca ptr, align 8
  store ptr %_1, ptr %_1.dbg.spill, align 8
  call void @llvm.dbg.declare(metadata ptr %_1.dbg.spill, metadata !1957, metadata !DIExpression()), !dbg !1960
  %_6.0 = load ptr, ptr %_1, align 8, !dbg !1960, !noundef !168
  %1 = getelementptr inbounds i8, ptr %_1, i64 8, !dbg !1960
  %_6.1 = load ptr, ptr %1, align 8, !dbg !1960, !nonnull !168, !align !469, !noundef !168
  %2 = getelementptr inbounds ptr, ptr %_6.1, i64 0, !dbg !1960
  %3 = load ptr, ptr %2, align 8, !dbg !1960, !invariant.load !168, !nonnull !168
  invoke void %3(ptr align 1 %_6.0)
          to label %bb3 unwind label %cleanup, !dbg !1960

bb4:                                              ; preds = %cleanup
; invoke <alloc::boxed::Box<T,A> as core::ops::drop::Drop>::drop
  invoke void @"_ZN72_$LT$alloc..boxed..Box$LT$T$C$A$GT$$u20$as$u20$core..ops..drop..Drop$GT$4drop17hf63132e83b86cd61E"(ptr align 8 %_1) #17
          to label %bb1 unwind label %terminate, !dbg !1960

cleanup:                                          ; preds = %start
  %4 = landingpad { ptr, i32 }
          cleanup
  %5 = extractvalue { ptr, i32 } %4, 0
  %6 = extractvalue { ptr, i32 } %4, 1
  store ptr %5, ptr %0, align 8
  %7 = getelementptr inbounds i8, ptr %0, i64 8
  store i32 %6, ptr %7, align 8
  br label %bb4

bb3:                                              ; preds = %start
; call <alloc::boxed::Box<T,A> as core::ops::drop::Drop>::drop
  call void @"_ZN72_$LT$alloc..boxed..Box$LT$T$C$A$GT$$u20$as$u20$core..ops..drop..Drop$GT$4drop17hf63132e83b86cd61E"(ptr align 8 %_1), !dbg !1960
  ret void, !dbg !1960

terminate:                                        ; preds = %bb4
  %8 = landingpad { ptr, i32 }
          filter [0 x ptr] zeroinitializer
  %9 = extractvalue { ptr, i32 } %8, 0
  %10 = extractvalue { ptr, i32 } %8, 1
; call core::panicking::panic_in_cleanup
  call void @_ZN4core9panicking16panic_in_cleanup17h803841cec7522372E() #18, !dbg !1960
  unreachable, !dbg !1960

bb1:                                              ; preds = %bb4
  %11 = load ptr, ptr %0, align 8, !dbg !1960, !noundef !168
  %12 = getelementptr inbounds i8, ptr %0, i64 8, !dbg !1960
  %13 = load i32, ptr %12, align 8, !dbg !1960, !noundef !168
  %14 = insertvalue { ptr, i32 } poison, ptr %11, 0, !dbg !1960
  %15 = insertvalue { ptr, i32 } %14, i32 %13, 1, !dbg !1960
  resume { ptr, i32 } %15, !dbg !1960
}

; core::ptr::drop_in_place<std::path::PathBuf>
; Function Attrs: nonlazybind uwtable
define void @"_ZN4core3ptr39drop_in_place$LT$std..path..PathBuf$GT$17hca850d7b97c87f5eE"(ptr align 8 %_1) unnamed_addr #1 !dbg !1961 {
start:
  %_1.dbg.spill = alloca ptr, align 8
  store ptr %_1, ptr %_1.dbg.spill, align 8
  call void @llvm.dbg.declare(metadata ptr %_1.dbg.spill, metadata !1965, metadata !DIExpression()), !dbg !1966
; call core::ptr::drop_in_place<std::ffi::os_str::OsString>
  call void @"_ZN4core3ptr47drop_in_place$LT$std..ffi..os_str..OsString$GT$17hd98a90ad9b794cc7E"(ptr align 8 %_1), !dbg !1966
  ret void, !dbg !1966
}

; core::ptr::drop_in_place<std::io::error::Error>
; Function Attrs: nonlazybind uwtable
define void @"_ZN4core3ptr42drop_in_place$LT$std..io..error..Error$GT$17h57b7bf4e12c779bfE"(ptr align 8 %_1) unnamed_addr #1 !dbg !1967 {
start:
  %_1.dbg.spill = alloca ptr, align 8
  store ptr %_1, ptr %_1.dbg.spill, align 8
  call void @llvm.dbg.declare(metadata ptr %_1.dbg.spill, metadata !1972, metadata !DIExpression()), !dbg !1975
; call core::ptr::drop_in_place<std::io::error::repr_bitpacked::Repr>
  call void @"_ZN4core3ptr57drop_in_place$LT$std..io..error..repr_bitpacked..Repr$GT$17h1772ed98bc41beedE"(ptr align 8 %_1), !dbg !1975
  ret void, !dbg !1975
}

; core::ptr::drop_in_place<std::io::error::Custom>
; Function Attrs: nonlazybind uwtable
define void @"_ZN4core3ptr43drop_in_place$LT$std..io..error..Custom$GT$17h445ec6383308daadE"(ptr align 8 %_1) unnamed_addr #1 !dbg !1976 {
start:
  %_1.dbg.spill = alloca ptr, align 8
  store ptr %_1, ptr %_1.dbg.spill, align 8
  call void @llvm.dbg.declare(metadata ptr %_1.dbg.spill, metadata !1980, metadata !DIExpression()), !dbg !1983
; call core::ptr::drop_in_place<alloc::boxed::Box<dyn core::error::Error+core::marker::Send+core::marker::Sync>>
  call void @"_ZN4core3ptr118drop_in_place$LT$alloc..boxed..Box$LT$dyn$u20$core..error..Error$u2b$core..marker..Send$u2b$core..marker..Sync$GT$$GT$17hd268ce29c3352c26E"(ptr align 8 %_1), !dbg !1983
  ret void, !dbg !1983
}

; core::ptr::drop_in_place<alloc::vec::Vec<u8>>
; Function Attrs: nonlazybind uwtable
define void @"_ZN4core3ptr46drop_in_place$LT$alloc..vec..Vec$LT$u8$GT$$GT$17h4a84f0e91713a9f2E"(ptr align 8 %_1) unnamed_addr #1 personality ptr @rust_eh_personality !dbg !1984 {
start:
  %0 = alloca { ptr, i32, [1 x i32] }, align 8
  %_1.dbg.spill = alloca ptr, align 8
  store ptr %_1, ptr %_1.dbg.spill, align 8
  call void @llvm.dbg.declare(metadata ptr %_1.dbg.spill, metadata !1989, metadata !DIExpression()), !dbg !1992
; invoke <alloc::vec::Vec<T,A> as core::ops::drop::Drop>::drop
  invoke void @"_ZN70_$LT$alloc..vec..Vec$LT$T$C$A$GT$$u20$as$u20$core..ops..drop..Drop$GT$4drop17h9690dd2391ed4f45E"(ptr align 8 %_1)
          to label %bb4 unwind label %cleanup, !dbg !1992

bb3:                                              ; preds = %cleanup
; invoke core::ptr::drop_in_place<alloc::raw_vec::RawVec<u8>>
  invoke void @"_ZN4core3ptr53drop_in_place$LT$alloc..raw_vec..RawVec$LT$u8$GT$$GT$17h2f2db4e7b5f7ea95E"(ptr align 8 %_1) #17
          to label %bb1 unwind label %terminate, !dbg !1992

cleanup:                                          ; preds = %start
  %1 = landingpad { ptr, i32 }
          cleanup
  %2 = extractvalue { ptr, i32 } %1, 0
  %3 = extractvalue { ptr, i32 } %1, 1
  store ptr %2, ptr %0, align 8
  %4 = getelementptr inbounds i8, ptr %0, i64 8
  store i32 %3, ptr %4, align 8
  br label %bb3

bb4:                                              ; preds = %start
; call core::ptr::drop_in_place<alloc::raw_vec::RawVec<u8>>
  call void @"_ZN4core3ptr53drop_in_place$LT$alloc..raw_vec..RawVec$LT$u8$GT$$GT$17h2f2db4e7b5f7ea95E"(ptr align 8 %_1), !dbg !1992
  ret void, !dbg !1992

terminate:                                        ; preds = %bb3
  %5 = landingpad { ptr, i32 }
          filter [0 x ptr] zeroinitializer
  %6 = extractvalue { ptr, i32 } %5, 0
  %7 = extractvalue { ptr, i32 } %5, 1
; call core::panicking::panic_in_cleanup
  call void @_ZN4core9panicking16panic_in_cleanup17h803841cec7522372E() #18, !dbg !1992
  unreachable, !dbg !1992

bb1:                                              ; preds = %bb3
  %8 = load ptr, ptr %0, align 8, !dbg !1992, !noundef !168
  %9 = getelementptr inbounds i8, ptr %0, i64 8, !dbg !1992
  %10 = load i32, ptr %9, align 8, !dbg !1992, !noundef !168
  %11 = insertvalue { ptr, i32 } poison, ptr %8, 0, !dbg !1992
  %12 = insertvalue { ptr, i32 } %11, i32 %10, 1, !dbg !1992
  resume { ptr, i32 } %12, !dbg !1992
}

; core::ptr::drop_in_place<openssl_probe::ProbeResult>
; Function Attrs: nonlazybind uwtable
define void @"_ZN4core3ptr47drop_in_place$LT$openssl_probe..ProbeResult$GT$17hfe0826ad02b08f60E"(ptr align 8 %_1) unnamed_addr #1 personality ptr @rust_eh_personality !dbg !1993 {
start:
  %0 = alloca { ptr, i32, [1 x i32] }, align 8
  %_1.dbg.spill = alloca ptr, align 8
  store ptr %_1, ptr %_1.dbg.spill, align 8
  call void @llvm.dbg.declare(metadata ptr %_1.dbg.spill, metadata !2002, metadata !DIExpression()), !dbg !2005
; invoke core::ptr::drop_in_place<core::option::Option<std::path::PathBuf>>
  invoke void @"_ZN4core3ptr67drop_in_place$LT$core..option..Option$LT$std..path..PathBuf$GT$$GT$17he95412007b045f2dE"(ptr align 8 %_1)
          to label %bb4 unwind label %cleanup, !dbg !2005

bb3:                                              ; preds = %cleanup
  %1 = getelementptr inbounds %ProbeResult, ptr %_1, i32 0, i32 1, !dbg !2005
; invoke core::ptr::drop_in_place<core::option::Option<std::path::PathBuf>>
  invoke void @"_ZN4core3ptr67drop_in_place$LT$core..option..Option$LT$std..path..PathBuf$GT$$GT$17he95412007b045f2dE"(ptr align 8 %1) #17
          to label %bb1 unwind label %terminate, !dbg !2005

cleanup:                                          ; preds = %start
  %2 = landingpad { ptr, i32 }
          cleanup
  %3 = extractvalue { ptr, i32 } %2, 0
  %4 = extractvalue { ptr, i32 } %2, 1
  store ptr %3, ptr %0, align 8
  %5 = getelementptr inbounds i8, ptr %0, i64 8
  store i32 %4, ptr %5, align 8
  br label %bb3

bb4:                                              ; preds = %start
  %6 = getelementptr inbounds %ProbeResult, ptr %_1, i32 0, i32 1, !dbg !2005
; call core::ptr::drop_in_place<core::option::Option<std::path::PathBuf>>
  call void @"_ZN4core3ptr67drop_in_place$LT$core..option..Option$LT$std..path..PathBuf$GT$$GT$17he95412007b045f2dE"(ptr align 8 %6), !dbg !2005
  ret void, !dbg !2005

terminate:                                        ; preds = %bb3
  %7 = landingpad { ptr, i32 }
          filter [0 x ptr] zeroinitializer
  %8 = extractvalue { ptr, i32 } %7, 0
  %9 = extractvalue { ptr, i32 } %7, 1
; call core::panicking::panic_in_cleanup
  call void @_ZN4core9panicking16panic_in_cleanup17h803841cec7522372E() #18, !dbg !2005
  unreachable, !dbg !2005

bb1:                                              ; preds = %bb3
  %10 = load ptr, ptr %0, align 8, !dbg !2005, !noundef !168
  %11 = getelementptr inbounds i8, ptr %0, i64 8, !dbg !2005
  %12 = load i32, ptr %11, align 8, !dbg !2005, !noundef !168
  %13 = insertvalue { ptr, i32 } poison, ptr %10, 0, !dbg !2005
  %14 = insertvalue { ptr, i32 } %13, i32 %12, 1, !dbg !2005
  resume { ptr, i32 } %14, !dbg !2005
}

; core::ptr::drop_in_place<std::ffi::os_str::OsString>
; Function Attrs: nonlazybind uwtable
define void @"_ZN4core3ptr47drop_in_place$LT$std..ffi..os_str..OsString$GT$17hd98a90ad9b794cc7E"(ptr align 8 %_1) unnamed_addr #1 !dbg !2006 {
start:
  %_1.dbg.spill = alloca ptr, align 8
  store ptr %_1, ptr %_1.dbg.spill, align 8
  call void @llvm.dbg.declare(metadata ptr %_1.dbg.spill, metadata !2011, metadata !DIExpression()), !dbg !2012
; call core::ptr::drop_in_place<std::sys::os_str::bytes::Buf>
  call void @"_ZN4core3ptr49drop_in_place$LT$std..sys..os_str..bytes..Buf$GT$17h9c7b56233c9aa833E"(ptr align 8 %_1), !dbg !2012
  ret void, !dbg !2012
}

; core::ptr::drop_in_place<[std::path::PathBuf]>
; Function Attrs: nonlazybind uwtable
define void @"_ZN4core3ptr49drop_in_place$LT$$u5b$std..path..PathBuf$u5d$$GT$17h013dceefc9bba120E"(ptr align 8 %_1.0, i64 %_1.1) unnamed_addr #1 personality ptr @rust_eh_personality !dbg !2013 {
start:
  %0 = alloca { ptr, i32, [1 x i32] }, align 8
  %_1.dbg.spill = alloca { ptr, i64 }, align 8
  %_3 = alloca i64, align 8
  store ptr %_1.0, ptr %_1.dbg.spill, align 8
  %1 = getelementptr inbounds i8, ptr %_1.dbg.spill, i64 8
  store i64 %_1.1, ptr %1, align 8
  call void @llvm.dbg.declare(metadata ptr %_1.dbg.spill, metadata !2022, metadata !DIExpression()), !dbg !2023
  store i64 0, ptr %_3, align 8, !dbg !2023
  br label %bb6, !dbg !2023

bb6:                                              ; preds = %bb5, %start
  %2 = load i64, ptr %_3, align 8, !dbg !2023, !noundef !168
  %_7 = icmp eq i64 %2, %_1.1, !dbg !2023
  br i1 %_7, label %bb1, label %bb5, !dbg !2023

bb5:                                              ; preds = %bb6
  %3 = load i64, ptr %_3, align 8, !dbg !2023, !noundef !168
  %_6 = getelementptr inbounds [0 x %"std::path::PathBuf"], ptr %_1.0, i64 0, i64 %3, !dbg !2023
  %4 = load i64, ptr %_3, align 8, !dbg !2023, !noundef !168
  %5 = add i64 %4, 1, !dbg !2023
  store i64 %5, ptr %_3, align 8, !dbg !2023
; invoke core::ptr::drop_in_place<std::path::PathBuf>
  invoke void @"_ZN4core3ptr39drop_in_place$LT$std..path..PathBuf$GT$17hca850d7b97c87f5eE"(ptr align 8 %_6)
          to label %bb6 unwind label %cleanup, !dbg !2023

bb1:                                              ; preds = %bb6
  ret void, !dbg !2023

bb4:                                              ; preds = %bb3, %cleanup
  %6 = load i64, ptr %_3, align 8, !dbg !2023, !noundef !168
  %_5 = icmp eq i64 %6, %_1.1, !dbg !2023
  br i1 %_5, label %bb2, label %bb3, !dbg !2023

cleanup:                                          ; preds = %bb5
  %7 = landingpad { ptr, i32 }
          cleanup
  %8 = extractvalue { ptr, i32 } %7, 0
  %9 = extractvalue { ptr, i32 } %7, 1
  store ptr %8, ptr %0, align 8
  %10 = getelementptr inbounds i8, ptr %0, i64 8
  store i32 %9, ptr %10, align 8
  br label %bb4

bb3:                                              ; preds = %bb4
  %11 = load i64, ptr %_3, align 8, !dbg !2023, !noundef !168
  %_4 = getelementptr inbounds [0 x %"std::path::PathBuf"], ptr %_1.0, i64 0, i64 %11, !dbg !2023
  %12 = load i64, ptr %_3, align 8, !dbg !2023, !noundef !168
  %13 = add i64 %12, 1, !dbg !2023
  store i64 %13, ptr %_3, align 8, !dbg !2023
; invoke core::ptr::drop_in_place<std::path::PathBuf>
  invoke void @"_ZN4core3ptr39drop_in_place$LT$std..path..PathBuf$GT$17hca850d7b97c87f5eE"(ptr align 8 %_4) #17
          to label %bb4 unwind label %terminate, !dbg !2023

bb2:                                              ; preds = %bb4
  %14 = load ptr, ptr %0, align 8, !dbg !2023, !noundef !168
  %15 = getelementptr inbounds i8, ptr %0, i64 8, !dbg !2023
  %16 = load i32, ptr %15, align 8, !dbg !2023, !noundef !168
  %17 = insertvalue { ptr, i32 } poison, ptr %14, 0, !dbg !2023
  %18 = insertvalue { ptr, i32 } %17, i32 %16, 1, !dbg !2023
  resume { ptr, i32 } %18, !dbg !2023

terminate:                                        ; preds = %bb3
  %19 = landingpad { ptr, i32 }
          filter [0 x ptr] zeroinitializer
  %20 = extractvalue { ptr, i32 } %19, 0
  %21 = extractvalue { ptr, i32 } %19, 1
; call core::panicking::panic_in_cleanup
  call void @_ZN4core9panicking16panic_in_cleanup17h803841cec7522372E() #18, !dbg !2023
  unreachable, !dbg !2023
}

; core::ptr::drop_in_place<std::sys::os_str::bytes::Buf>
; Function Attrs: nonlazybind uwtable
define void @"_ZN4core3ptr49drop_in_place$LT$std..sys..os_str..bytes..Buf$GT$17h9c7b56233c9aa833E"(ptr align 8 %_1) unnamed_addr #1 !dbg !2024 {
start:
  %_1.dbg.spill = alloca ptr, align 8
  store ptr %_1, ptr %_1.dbg.spill, align 8
  call void @llvm.dbg.declare(metadata ptr %_1.dbg.spill, metadata !2029, metadata !DIExpression()), !dbg !2032
; call core::ptr::drop_in_place<alloc::vec::Vec<u8>>
  call void @"_ZN4core3ptr46drop_in_place$LT$alloc..vec..Vec$LT$u8$GT$$GT$17h4a84f0e91713a9f2E"(ptr align 8 %_1), !dbg !2032
  ret void, !dbg !2032
}

; core::ptr::drop_in_place<alloc::raw_vec::RawVec<u8>>
; Function Attrs: nonlazybind uwtable
define void @"_ZN4core3ptr53drop_in_place$LT$alloc..raw_vec..RawVec$LT$u8$GT$$GT$17h2f2db4e7b5f7ea95E"(ptr align 8 %_1) unnamed_addr #1 !dbg !2033 {
start:
  %_1.dbg.spill = alloca ptr, align 8
  store ptr %_1, ptr %_1.dbg.spill, align 8
  call void @llvm.dbg.declare(metadata ptr %_1.dbg.spill, metadata !2038, metadata !DIExpression()), !dbg !2041
; call <alloc::raw_vec::RawVec<T,A> as core::ops::drop::Drop>::drop
  call void @"_ZN77_$LT$alloc..raw_vec..RawVec$LT$T$C$A$GT$$u20$as$u20$core..ops..drop..Drop$GT$4drop17hdfe96f53e020efb8E"(ptr align 8 %_1), !dbg !2041
  ret void, !dbg !2041
}

; core::ptr::drop_in_place<std::io::error::repr_bitpacked::Repr>
; Function Attrs: nonlazybind uwtable
define void @"_ZN4core3ptr57drop_in_place$LT$std..io..error..repr_bitpacked..Repr$GT$17h1772ed98bc41beedE"(ptr align 8 %_1) unnamed_addr #1 !dbg !2042 {
start:
  %_1.dbg.spill = alloca ptr, align 8
  store ptr %_1, ptr %_1.dbg.spill, align 8
  call void @llvm.dbg.declare(metadata ptr %_1.dbg.spill, metadata !2047, metadata !DIExpression()), !dbg !2050
; call <std::io::error::repr_bitpacked::Repr as core::ops::drop::Drop>::drop
  call void @"_ZN78_$LT$std..io..error..repr_bitpacked..Repr$u20$as$u20$core..ops..drop..Drop$GT$4drop17ha5b0116bdc8bcf04E"(ptr align 8 %_1), !dbg !2050
  ret void, !dbg !2050
}

; core::ptr::drop_in_place<alloc::vec::Vec<std::path::PathBuf>>
; Function Attrs: nonlazybind uwtable
define void @"_ZN4core3ptr62drop_in_place$LT$alloc..vec..Vec$LT$std..path..PathBuf$GT$$GT$17hdca10addd8387c55E"(ptr align 8 %_1) unnamed_addr #1 personality ptr @rust_eh_personality !dbg !2051 {
start:
  %0 = alloca { ptr, i32, [1 x i32] }, align 8
  %_1.dbg.spill = alloca ptr, align 8
  store ptr %_1, ptr %_1.dbg.spill, align 8
  call void @llvm.dbg.declare(metadata ptr %_1.dbg.spill, metadata !2056, metadata !DIExpression()), !dbg !2059
; invoke <alloc::vec::Vec<T,A> as core::ops::drop::Drop>::drop
  invoke void @"_ZN70_$LT$alloc..vec..Vec$LT$T$C$A$GT$$u20$as$u20$core..ops..drop..Drop$GT$4drop17hb23df86a7fac042fE"(ptr align 8 %_1)
          to label %bb4 unwind label %cleanup, !dbg !2059

bb3:                                              ; preds = %cleanup
; invoke core::ptr::drop_in_place<alloc::raw_vec::RawVec<std::path::PathBuf>>
  invoke void @"_ZN4core3ptr69drop_in_place$LT$alloc..raw_vec..RawVec$LT$std..path..PathBuf$GT$$GT$17h75afedaa1a39a8eeE"(ptr align 8 %_1) #17
          to label %bb1 unwind label %terminate, !dbg !2059

cleanup:                                          ; preds = %start
  %1 = landingpad { ptr, i32 }
          cleanup
  %2 = extractvalue { ptr, i32 } %1, 0
  %3 = extractvalue { ptr, i32 } %1, 1
  store ptr %2, ptr %0, align 8
  %4 = getelementptr inbounds i8, ptr %0, i64 8
  store i32 %3, ptr %4, align 8
  br label %bb3

bb4:                                              ; preds = %start
; call core::ptr::drop_in_place<alloc::raw_vec::RawVec<std::path::PathBuf>>
  call void @"_ZN4core3ptr69drop_in_place$LT$alloc..raw_vec..RawVec$LT$std..path..PathBuf$GT$$GT$17h75afedaa1a39a8eeE"(ptr align 8 %_1), !dbg !2059
  ret void, !dbg !2059

terminate:                                        ; preds = %bb3
  %5 = landingpad { ptr, i32 }
          filter [0 x ptr] zeroinitializer
  %6 = extractvalue { ptr, i32 } %5, 0
  %7 = extractvalue { ptr, i32 } %5, 1
; call core::panicking::panic_in_cleanup
  call void @_ZN4core9panicking16panic_in_cleanup17h803841cec7522372E() #18, !dbg !2059
  unreachable, !dbg !2059

bb1:                                              ; preds = %bb3
  %8 = load ptr, ptr %0, align 8, !dbg !2059, !noundef !168
  %9 = getelementptr inbounds i8, ptr %0, i64 8, !dbg !2059
  %10 = load i32, ptr %9, align 8, !dbg !2059, !noundef !168
  %11 = insertvalue { ptr, i32 } poison, ptr %8, 0, !dbg !2059
  %12 = insertvalue { ptr, i32 } %11, i32 %10, 1, !dbg !2059
  resume { ptr, i32 } %12, !dbg !2059
}

; core::ptr::drop_in_place<core::option::Option<std::path::PathBuf>>
; Function Attrs: nonlazybind uwtable
define void @"_ZN4core3ptr67drop_in_place$LT$core..option..Option$LT$std..path..PathBuf$GT$$GT$17he95412007b045f2dE"(ptr align 8 %_1) unnamed_addr #1 !dbg !2060 {
start:
  %_1.dbg.spill = alloca ptr, align 8
  store ptr %_1, ptr %_1.dbg.spill, align 8
  call void @llvm.dbg.declare(metadata ptr %_1.dbg.spill, metadata !2065, metadata !DIExpression()), !dbg !2068
  %0 = load i64, ptr %_1, align 8, !dbg !2068, !range !722, !noundef !168
  %1 = icmp eq i64 %0, -9223372036854775808, !dbg !2068
  %_2 = select i1 %1, i64 0, i64 1, !dbg !2068
  %2 = icmp eq i64 %_2, 0, !dbg !2068
  br i1 %2, label %bb1, label %bb2, !dbg !2068

bb1:                                              ; preds = %bb2, %start
  ret void, !dbg !2068

bb2:                                              ; preds = %start
; call core::ptr::drop_in_place<std::path::PathBuf>
  call void @"_ZN4core3ptr39drop_in_place$LT$std..path..PathBuf$GT$17hca850d7b97c87f5eE"(ptr align 8 %_1), !dbg !2068
  br label %bb1, !dbg !2068
}

; core::ptr::drop_in_place<alloc::boxed::Box<std::io::error::Custom>>
; Function Attrs: nonlazybind uwtable
define void @"_ZN4core3ptr68drop_in_place$LT$alloc..boxed..Box$LT$std..io..error..Custom$GT$$GT$17hfb806dd6bb50dbcbE"(ptr align 8 %_1) unnamed_addr #1 personality ptr @rust_eh_personality !dbg !2069 {
start:
  %0 = alloca { ptr, i32, [1 x i32] }, align 8
  %_1.dbg.spill = alloca ptr, align 8
  store ptr %_1, ptr %_1.dbg.spill, align 8
  call void @llvm.dbg.declare(metadata ptr %_1.dbg.spill, metadata !2074, metadata !DIExpression()), !dbg !2077
  %_6 = load ptr, ptr %_1, align 8, !dbg !2077, !noundef !168
; invoke core::ptr::drop_in_place<std::io::error::Custom>
  invoke void @"_ZN4core3ptr43drop_in_place$LT$std..io..error..Custom$GT$17h445ec6383308daadE"(ptr align 8 %_6)
          to label %bb3 unwind label %cleanup, !dbg !2077

bb4:                                              ; preds = %cleanup
; invoke <alloc::boxed::Box<T,A> as core::ops::drop::Drop>::drop
  invoke void @"_ZN72_$LT$alloc..boxed..Box$LT$T$C$A$GT$$u20$as$u20$core..ops..drop..Drop$GT$4drop17h2b7a78ae9ce2cca3E"(ptr align 8 %_1) #17
          to label %bb1 unwind label %terminate, !dbg !2077

cleanup:                                          ; preds = %start
  %1 = landingpad { ptr, i32 }
          cleanup
  %2 = extractvalue { ptr, i32 } %1, 0
  %3 = extractvalue { ptr, i32 } %1, 1
  store ptr %2, ptr %0, align 8
  %4 = getelementptr inbounds i8, ptr %0, i64 8
  store i32 %3, ptr %4, align 8
  br label %bb4

bb3:                                              ; preds = %start
; call <alloc::boxed::Box<T,A> as core::ops::drop::Drop>::drop
  call void @"_ZN72_$LT$alloc..boxed..Box$LT$T$C$A$GT$$u20$as$u20$core..ops..drop..Drop$GT$4drop17h2b7a78ae9ce2cca3E"(ptr align 8 %_1), !dbg !2077
  ret void, !dbg !2077

terminate:                                        ; preds = %bb4
  %5 = landingpad { ptr, i32 }
          filter [0 x ptr] zeroinitializer
  %6 = extractvalue { ptr, i32 } %5, 0
  %7 = extractvalue { ptr, i32 } %5, 1
; call core::panicking::panic_in_cleanup
  call void @_ZN4core9panicking16panic_in_cleanup17h803841cec7522372E() #18, !dbg !2077
  unreachable, !dbg !2077

bb1:                                              ; preds = %bb4
  %8 = load ptr, ptr %0, align 8, !dbg !2077, !noundef !168
  %9 = getelementptr inbounds i8, ptr %0, i64 8, !dbg !2077
  %10 = load i32, ptr %9, align 8, !dbg !2077, !noundef !168
  %11 = insertvalue { ptr, i32 } poison, ptr %8, 0, !dbg !2077
  %12 = insertvalue { ptr, i32 } %11, i32 %10, 1, !dbg !2077
  resume { ptr, i32 } %12, !dbg !2077
}

; core::ptr::drop_in_place<alloc::raw_vec::RawVec<std::path::PathBuf>>
; Function Attrs: nonlazybind uwtable
define void @"_ZN4core3ptr69drop_in_place$LT$alloc..raw_vec..RawVec$LT$std..path..PathBuf$GT$$GT$17h75afedaa1a39a8eeE"(ptr align 8 %_1) unnamed_addr #1 !dbg !2078 {
start:
  %_1.dbg.spill = alloca ptr, align 8
  store ptr %_1, ptr %_1.dbg.spill, align 8
  call void @llvm.dbg.declare(metadata ptr %_1.dbg.spill, metadata !2083, metadata !DIExpression()), !dbg !2086
; call <alloc::raw_vec::RawVec<T,A> as core::ops::drop::Drop>::drop
  call void @"_ZN77_$LT$alloc..raw_vec..RawVec$LT$T$C$A$GT$$u20$as$u20$core..ops..drop..Drop$GT$4drop17h4c23b0e9762b1d5eE"(ptr align 8 %_1), !dbg !2086
  ret void, !dbg !2086
}

; core::ptr::drop_in_place<core::ops::control_flow::ControlFlow<std::path::PathBuf>>
; Function Attrs: nonlazybind uwtable
define void @"_ZN4core3ptr83drop_in_place$LT$core..ops..control_flow..ControlFlow$LT$std..path..PathBuf$GT$$GT$17h91db56d92943032bE"(ptr align 8 %_1) unnamed_addr #1 !dbg !2087 {
start:
  %_1.dbg.spill = alloca ptr, align 8
  store ptr %_1, ptr %_1.dbg.spill, align 8
  call void @llvm.dbg.declare(metadata ptr %_1.dbg.spill, metadata !2092, metadata !DIExpression()), !dbg !2095
  %0 = load i64, ptr %_1, align 8, !dbg !2095, !range !722, !noundef !168
  %1 = icmp eq i64 %0, -9223372036854775808, !dbg !2095
  %_2 = select i1 %1, i64 0, i64 1, !dbg !2095
  %2 = icmp eq i64 %_2, 0, !dbg !2095
  br i1 %2, label %bb1, label %bb2, !dbg !2095

bb1:                                              ; preds = %bb2, %start
  ret void, !dbg !2095

bb2:                                              ; preds = %start
; call core::ptr::drop_in_place<std::path::PathBuf>
  call void @"_ZN4core3ptr39drop_in_place$LT$std..path..PathBuf$GT$17hca850d7b97c87f5eE"(ptr align 8 %_1), !dbg !2095
  br label %bb1, !dbg !2095
}

; core::ptr::drop_in_place<core::result::Result<std::fs::Metadata,std::io::error::Error>>
; Function Attrs: nonlazybind uwtable
define void @"_ZN4core3ptr90drop_in_place$LT$core..result..Result$LT$std..fs..Metadata$C$std..io..error..Error$GT$$GT$17he655053566819f3dE"(ptr align 8 %_1) unnamed_addr #1 !dbg !2096 {
start:
  %_1.dbg.spill = alloca ptr, align 8
  store ptr %_1, ptr %_1.dbg.spill, align 8
  call void @llvm.dbg.declare(metadata ptr %_1.dbg.spill, metadata !2101, metadata !DIExpression()), !dbg !2104
  %0 = load i64, ptr %_1, align 8, !dbg !2104, !range !1087, !noundef !168
  %1 = icmp eq i64 %0, 2, !dbg !2104
  %_2 = select i1 %1, i64 1, i64 0, !dbg !2104
  %2 = icmp eq i64 %_2, 0, !dbg !2104
  br i1 %2, label %bb1, label %bb2, !dbg !2104

bb1:                                              ; preds = %bb2, %start
  ret void, !dbg !2104

bb2:                                              ; preds = %start
  %3 = getelementptr inbounds %"core::result::Result<std::fs::Metadata, std::io::error::Error>::Err", ptr %_1, i32 0, i32 1, !dbg !2104
; call core::ptr::drop_in_place<std::io::error::Error>
  call void @"_ZN4core3ptr42drop_in_place$LT$std..io..error..Error$GT$17h57b7bf4e12c779bfE"(ptr align 8 %3), !dbg !2104
  br label %bb1, !dbg !2104
}

; core::ptr::drop_in_place<dyn core::error::Error+core::marker::Send+core::marker::Sync>
; Function Attrs: nonlazybind uwtable
define void @"_ZN4core3ptr93drop_in_place$LT$dyn$u20$core..error..Error$u2b$core..marker..Send$u2b$core..marker..Sync$GT$17hba9584fd945441adE"(ptr align 1 %_1.0, ptr align 8 %_1.1) unnamed_addr #1 !dbg !2105 {
start:
  %_1.dbg.spill = alloca { ptr, ptr }, align 8
  store ptr %_1.0, ptr %_1.dbg.spill, align 8
  %0 = getelementptr inbounds i8, ptr %_1.dbg.spill, i64 8
  store ptr %_1.1, ptr %0, align 8
  call void @llvm.dbg.declare(metadata ptr %_1.dbg.spill, metadata !2113, metadata !DIExpression()), !dbg !2116
  %1 = getelementptr inbounds ptr, ptr %_1.1, i64 0, !dbg !2116
  %2 = load ptr, ptr %1, align 8, !dbg !2116, !invariant.load !168, !nonnull !168
  call void %2(ptr align 1 %_1.0), !dbg !2116
  ret void, !dbg !2116
}

; core::iter::traits::iterator::Iterator::map
; Function Attrs: inlinehint nonlazybind uwtable
define { ptr, ptr } @_ZN4core4iter6traits8iterator8Iterator3map17h04644a5d75a4dd17E(ptr %self.0, ptr %self.1) unnamed_addr #0 !dbg !2117 {
start:
  %f.dbg.spill = alloca {}, align 1
  %self.dbg.spill = alloca %"core::slice::iter::Iter<'_, &str>", align 8
  %_0 = alloca %"core::iter::adapters::map::Map<core::slice::iter::Iter<'_, &str>, for<'a> fn(&'a &str) -> &'a std::path::Path {std::path::Path::new::<&str>}>", align 8
  store ptr %self.0, ptr %self.dbg.spill, align 8
  %0 = getelementptr inbounds i8, ptr %self.dbg.spill, i64 8
  store ptr %self.1, ptr %0, align 8
  call void @llvm.dbg.declare(metadata ptr %self.dbg.spill, metadata !2122, metadata !DIExpression()), !dbg !2126
  call void @llvm.dbg.declare(metadata ptr %self.dbg.spill, metadata !2127, metadata !DIExpression()), !dbg !2133
  call void @llvm.dbg.declare(metadata ptr %f.dbg.spill, metadata !2123, metadata !DIExpression()), !dbg !2135
  call void @llvm.dbg.declare(metadata ptr %f.dbg.spill, metadata !2132, metadata !DIExpression()), !dbg !2136
  store ptr %self.0, ptr %_0, align 8, !dbg !2137
  %1 = getelementptr inbounds i8, ptr %_0, i64 8, !dbg !2137
  store ptr %self.1, ptr %1, align 8, !dbg !2137
  %2 = load ptr, ptr %_0, align 8, !dbg !2138, !nonnull !168, !noundef !168
  %3 = getelementptr inbounds i8, ptr %_0, i64 8, !dbg !2138
  %4 = load ptr, ptr %3, align 8, !dbg !2138, !noundef !168
  %5 = insertvalue { ptr, ptr } poison, ptr %2, 0, !dbg !2138
  %6 = insertvalue { ptr, ptr } %5, ptr %4, 1, !dbg !2138
  ret { ptr, ptr } %6, !dbg !2138
}

; core::iter::traits::iterator::Iterator::map
; Function Attrs: inlinehint nonlazybind uwtable
define { ptr, ptr } @_ZN4core4iter6traits8iterator8Iterator3map17h052f3df48dc30e2aE(ptr %self.0, ptr %self.1) unnamed_addr #0 !dbg !2139 {
start:
  %f.dbg.spill = alloca {}, align 1
  %self.dbg.spill = alloca %"core::iter::adapters::filter::Filter<core::iter::adapters::map::Map<core::slice::iter::Iter<'_, &str>, for<'a> fn(&'a &str) -> &'a std::path::Path {std::path::Path::new::<&str>}>, {closure@/users/zyuxuan/.cargo/registry/src/index.crates.io-6f17d22bba15001f/openssl-probe-0.1.5/src/lib.rs:44:35: 44:38}>", align 8
  %_0 = alloca %"core::iter::adapters::map::Map<core::iter::adapters::filter::Filter<core::iter::adapters::map::Map<core::slice::iter::Iter<'_, &str>, for<'a> fn(&'a &str) -> &'a std::path::Path {std::path::Path::new::<&str>}>, {closure@/users/zyuxuan/.cargo/registry/src/index.crates.io-6f17d22bba15001f/openssl-probe-0.1.5/src/lib.rs:44:35: 44:38}>, for<'a> fn(&'a std::path::Path) -> std::path::PathBuf {std::path::Path::to_path_buf}>", align 8
  store ptr %self.0, ptr %self.dbg.spill, align 8
  %0 = getelementptr inbounds i8, ptr %self.dbg.spill, i64 8
  store ptr %self.1, ptr %0, align 8
  call void @llvm.dbg.declare(metadata ptr %self.dbg.spill, metadata !2143, metadata !DIExpression()), !dbg !2147
  call void @llvm.dbg.declare(metadata ptr %self.dbg.spill, metadata !2148, metadata !DIExpression()), !dbg !2154
  call void @llvm.dbg.declare(metadata ptr %f.dbg.spill, metadata !2144, metadata !DIExpression()), !dbg !2156
  call void @llvm.dbg.declare(metadata ptr %f.dbg.spill, metadata !2153, metadata !DIExpression()), !dbg !2157
  store ptr %self.0, ptr %_0, align 8, !dbg !2158
  %1 = getelementptr inbounds i8, ptr %_0, i64 8, !dbg !2158
  store ptr %self.1, ptr %1, align 8, !dbg !2158
  %2 = load ptr, ptr %_0, align 8, !dbg !2159, !nonnull !168, !noundef !168
  %3 = getelementptr inbounds i8, ptr %_0, i64 8, !dbg !2159
  %4 = load ptr, ptr %3, align 8, !dbg !2159, !noundef !168
  %5 = insertvalue { ptr, ptr } poison, ptr %2, 0, !dbg !2159
  %6 = insertvalue { ptr, ptr } %5, ptr %4, 1, !dbg !2159
  ret { ptr, ptr } %6, !dbg !2159
}

; core::iter::traits::iterator::Iterator::map
; Function Attrs: inlinehint nonlazybind uwtable
define void @_ZN4core4iter6traits8iterator8Iterator3map17h359f86dc80cc1500E(ptr sret(%"core::iter::adapters::map::Map<core::slice::iter::Iter<'_, &str>, {closure@/users/zyuxuan/.cargo/registry/src/index.crates.io-6f17d22bba15001f/openssl-probe-0.1.5/src/lib.rs:122:22: 122:29}>") align 8 %_0, ptr %self.0, ptr %self.1, ptr align 8 %f) unnamed_addr #0 !dbg !2160 {
start:
  %f.dbg.spill = alloca ptr, align 8
  %self.dbg.spill = alloca %"core::slice::iter::Iter<'_, &str>", align 8
  store ptr %self.0, ptr %self.dbg.spill, align 8
  %0 = getelementptr inbounds i8, ptr %self.dbg.spill, i64 8
  store ptr %self.1, ptr %0, align 8
  call void @llvm.dbg.declare(metadata ptr %self.dbg.spill, metadata !2164, metadata !DIExpression()), !dbg !2167
  call void @llvm.dbg.declare(metadata ptr %self.dbg.spill, metadata !2168, metadata !DIExpression()), !dbg !2174
  store ptr %f, ptr %f.dbg.spill, align 8
  call void @llvm.dbg.declare(metadata ptr %f.dbg.spill, metadata !2165, metadata !DIExpression()), !dbg !2176
  call void @llvm.dbg.declare(metadata ptr %f.dbg.spill, metadata !2173, metadata !DIExpression()), !dbg !2177
  store ptr %self.0, ptr %_0, align 8, !dbg !2178
  %1 = getelementptr inbounds i8, ptr %_0, i64 8, !dbg !2178
  store ptr %self.1, ptr %1, align 8, !dbg !2178
  %2 = getelementptr inbounds %"core::iter::adapters::map::Map<core::slice::iter::Iter<'_, &str>, {closure@/users/zyuxuan/.cargo/registry/src/index.crates.io-6f17d22bba15001f/openssl-probe-0.1.5/src/lib.rs:122:22: 122:29}>", ptr %_0, i32 0, i32 1, !dbg !2178
  store ptr %f, ptr %2, align 8, !dbg !2178
  ret void, !dbg !2179
}

; core::iter::traits::iterator::Iterator::find
; Function Attrs: inlinehint nonlazybind uwtable
define void @_ZN4core4iter6traits8iterator8Iterator4find17h18f5dd41c8a2775aE(ptr sret(%"core::option::Option<std::path::PathBuf>") align 8 %_0, ptr align 8 %self) unnamed_addr #0 !dbg !2180 {
start:
  %predicate.dbg.spill = alloca %"{closure@/users/zyuxuan/.cargo/registry/src/index.crates.io-6f17d22bba15001f/openssl-probe-0.1.5/src/lib.rs:123:23: 123:26}", align 1
  %self.dbg.spill = alloca ptr, align 8
  %x = alloca %"std::path::PathBuf", align 8
  %self1 = alloca %"core::ops::control_flow::ControlFlow<std::path::PathBuf>", align 8
  store ptr %self, ptr %self.dbg.spill, align 8
  call void @llvm.dbg.declare(metadata ptr %self.dbg.spill, metadata !2184, metadata !DIExpression()), !dbg !2189
  call void @llvm.dbg.declare(metadata ptr %predicate.dbg.spill, metadata !2185, metadata !DIExpression()), !dbg !2190
  call void @llvm.dbg.declare(metadata ptr %predicate.dbg.spill, metadata !2191, metadata !DIExpression()), !dbg !2199
  call void @llvm.dbg.declare(metadata ptr %self1, metadata !2201, metadata !DIExpression()), !dbg !2210
  call void @llvm.dbg.declare(metadata ptr %x, metadata !2208, metadata !DIExpression()), !dbg !2212
; call <core::iter::adapters::map::Map<I,F> as core::iter::traits::iterator::Iterator>::try_fold
  call void @"_ZN102_$LT$core..iter..adapters..map..Map$LT$I$C$F$GT$$u20$as$u20$core..iter..traits..iterator..Iterator$GT$8try_fold17he5dc50d363cd171cE"(ptr sret(%"core::ops::control_flow::ControlFlow<std::path::PathBuf>") align 8 %self1, ptr align 8 %self), !dbg !2213
  %0 = load i64, ptr %self1, align 8, !dbg !2214, !range !722, !noundef !168
  %1 = icmp eq i64 %0, -9223372036854775808, !dbg !2214
  %_5 = select i1 %1, i64 0, i64 1, !dbg !2214
  %2 = icmp eq i64 %_5, 0, !dbg !2215
  br i1 %2, label %bb4, label %bb2, !dbg !2215

bb4:                                              ; preds = %start
  store i64 -9223372036854775808, ptr %_0, align 8, !dbg !2216
  br label %bb7, !dbg !2216

bb2:                                              ; preds = %start
  call void @llvm.memcpy.p0.p0.i64(ptr align 8 %x, ptr align 8 %self1, i64 24, i1 false), !dbg !2217
  call void @llvm.memcpy.p0.p0.i64(ptr align 8 %_0, ptr align 8 %x, i64 24, i1 false), !dbg !2218
  br label %bb7, !dbg !2219

bb7:                                              ; preds = %bb2, %bb4
  %3 = load i64, ptr %self1, align 8, !dbg !2220, !range !722, !noundef !168
  %4 = icmp eq i64 %3, -9223372036854775808, !dbg !2220
  %_7 = select i1 %4, i64 0, i64 1, !dbg !2220
  %5 = icmp eq i64 %_7, 1, !dbg !2220
  br i1 %5, label %bb5, label %bb6, !dbg !2220

bb5:                                              ; preds = %bb6, %bb7
  ret void, !dbg !2221

bb6:                                              ; preds = %bb7
; call core::ptr::drop_in_place<core::ops::control_flow::ControlFlow<std::path::PathBuf>>
  call void @"_ZN4core3ptr83drop_in_place$LT$core..ops..control_flow..ControlFlow$LT$std..path..PathBuf$GT$$GT$17h91db56d92943032bE"(ptr align 8 %self1), !dbg !2220
  br label %bb5, !dbg !2220

bb3:                                              ; No predecessors!
  unreachable, !dbg !2214
}

; core::iter::traits::iterator::Iterator::find
; Function Attrs: inlinehint nonlazybind uwtable
define { ptr, i64 } @_ZN4core4iter6traits8iterator8Iterator4find17hea5fb85bed9a8c46E(ptr align 8 %self, ptr align 1 %predicate) unnamed_addr #0 !dbg !2222 {
start:
  %x.dbg.spill = alloca { ptr, i64 }, align 8
  %predicate.dbg.spill = alloca ptr, align 8
  %self.dbg.spill = alloca ptr, align 8
  %_4 = alloca ptr, align 8
  %self1 = alloca %"core::ops::control_flow::ControlFlow<&std::path::Path>", align 8
  %_0 = alloca %"core::option::Option<&std::path::Path>", align 8
  store ptr %self, ptr %self.dbg.spill, align 8
  call void @llvm.dbg.declare(metadata ptr %self.dbg.spill, metadata !2226, metadata !DIExpression()), !dbg !2231
  store ptr %predicate, ptr %predicate.dbg.spill, align 8
  call void @llvm.dbg.declare(metadata ptr %predicate.dbg.spill, metadata !2227, metadata !DIExpression()), !dbg !2232
  call void @llvm.dbg.declare(metadata ptr %predicate.dbg.spill, metadata !2233, metadata !DIExpression()), !dbg !2241
  call void @llvm.dbg.declare(metadata ptr %self1, metadata !2243, metadata !DIExpression()), !dbg !2252
  store ptr %predicate, ptr %_4, align 8, !dbg !2254
  %0 = load ptr, ptr %_4, align 8, !dbg !2255, !nonnull !168, !align !333, !noundef !168
; call <core::iter::adapters::map::Map<I,F> as core::iter::traits::iterator::Iterator>::try_fold
  %1 = call { ptr, i64 } @"_ZN102_$LT$core..iter..adapters..map..Map$LT$I$C$F$GT$$u20$as$u20$core..iter..traits..iterator..Iterator$GT$8try_fold17h234d206d6f7094a8E"(ptr align 8 %self, ptr align 1 %0), !dbg !2255
  %2 = extractvalue { ptr, i64 } %1, 0, !dbg !2255
  %3 = extractvalue { ptr, i64 } %1, 1, !dbg !2255
  store ptr %2, ptr %self1, align 8, !dbg !2255
  %4 = getelementptr inbounds i8, ptr %self1, i64 8, !dbg !2255
  store i64 %3, ptr %4, align 8, !dbg !2255
  %5 = load ptr, ptr %self1, align 8, !dbg !2256, !noundef !168
  %6 = ptrtoint ptr %5 to i64, !dbg !2256
  %7 = icmp eq i64 %6, 0, !dbg !2256
  %_5 = select i1 %7, i64 0, i64 1, !dbg !2256
  %8 = icmp eq i64 %_5, 0, !dbg !2257
  br i1 %8, label %bb4, label %bb2, !dbg !2257

bb4:                                              ; preds = %start
  store ptr null, ptr %_0, align 8, !dbg !2258
  br label %bb7, !dbg !2258

bb2:                                              ; preds = %start
  %x.0 = load ptr, ptr %self1, align 8, !dbg !2259, !nonnull !168, !align !333, !noundef !168
  %9 = getelementptr inbounds i8, ptr %self1, i64 8, !dbg !2259
  %x.1 = load i64, ptr %9, align 8, !dbg !2259, !noundef !168
  store ptr %x.0, ptr %x.dbg.spill, align 8, !dbg !2259
  %10 = getelementptr inbounds i8, ptr %x.dbg.spill, i64 8, !dbg !2259
  store i64 %x.1, ptr %10, align 8, !dbg !2259
  call void @llvm.dbg.declare(metadata ptr %x.dbg.spill, metadata !2250, metadata !DIExpression()), !dbg !2260
  store ptr %x.0, ptr %_0, align 8, !dbg !2261
  %11 = getelementptr inbounds i8, ptr %_0, i64 8, !dbg !2261
  store i64 %x.1, ptr %11, align 8, !dbg !2261
  br label %bb7, !dbg !2262

bb7:                                              ; preds = %bb2, %bb4
  %12 = load ptr, ptr %self1, align 8, !dbg !2263, !noundef !168
  %13 = ptrtoint ptr %12 to i64, !dbg !2263
  %14 = icmp eq i64 %13, 0, !dbg !2263
  %_7 = select i1 %14, i64 0, i64 1, !dbg !2263
  %15 = icmp eq i64 %_7, 1, !dbg !2263
  br i1 %15, label %bb5, label %bb6, !dbg !2263

bb5:                                              ; preds = %bb6, %bb7
  %16 = load ptr, ptr %_0, align 8, !dbg !2264, !align !333, !noundef !168
  %17 = getelementptr inbounds i8, ptr %_0, i64 8, !dbg !2264
  %18 = load i64, ptr %17, align 8, !dbg !2264
  %19 = insertvalue { ptr, i64 } poison, ptr %16, 0, !dbg !2264
  %20 = insertvalue { ptr, i64 } %19, i64 %18, 1, !dbg !2264
  ret { ptr, i64 } %20, !dbg !2264

bb6:                                              ; preds = %bb7
  br label %bb5, !dbg !2263

bb3:                                              ; No predecessors!
  unreachable, !dbg !2256
}

; core::iter::traits::iterator::Iterator::find::check::{{closure}}
; Function Attrs: inlinehint nonlazybind uwtable
define void @"_ZN4core4iter6traits8iterator8Iterator4find5check28_$u7b$$u7b$closure$u7d$$u7d$17h16cbc149d35a53ccE"(ptr sret(%"core::ops::control_flow::ControlFlow<std::path::PathBuf>") align 8 %_0, ptr align 1 %_1, ptr align 8 %x) unnamed_addr #0 personality ptr @rust_eh_personality !dbg !2265 {
start:
  %0 = alloca { ptr, i32, [1 x i32] }, align 8
  %_2.dbg.spill = alloca {}, align 1
  %_1.dbg.spill = alloca ptr, align 8
  %_9 = alloca i8, align 1
  %_8 = alloca %"std::path::PathBuf", align 8
  %_6 = alloca ptr, align 8
  store ptr %_1, ptr %_1.dbg.spill, align 8
  call void @llvm.dbg.declare(metadata ptr %_1.dbg.spill, metadata !2271, metadata !DIExpression(DW_OP_deref)), !dbg !2273
  call void @llvm.dbg.declare(metadata ptr %_2.dbg.spill, metadata !2272, metadata !DIExpression()), !dbg !2274
  call void @llvm.dbg.declare(metadata ptr %x, metadata !2270, metadata !DIExpression()), !dbg !2275
  store i8 1, ptr %_9, align 1, !dbg !2276
  store ptr %x, ptr %_6, align 8, !dbg !2276
  %1 = load ptr, ptr %_6, align 8, !dbg !2276, !nonnull !168, !align !469, !noundef !168
; invoke openssl_probe::probe::{{closure}}
  %_4 = invoke zeroext i1 @"_ZN13openssl_probe5probe28_$u7b$$u7b$closure$u7d$$u7d$17h207eca9fe150d00bE"(ptr align 1 %_1, ptr align 8 %1)
          to label %bb1 unwind label %cleanup, !dbg !2276

bb6:                                              ; preds = %cleanup
; invoke core::ptr::drop_in_place<std::path::PathBuf>
  invoke void @"_ZN4core3ptr39drop_in_place$LT$std..path..PathBuf$GT$17hca850d7b97c87f5eE"(ptr align 8 %x) #17
          to label %bb7 unwind label %terminate, !dbg !2277

cleanup:                                          ; preds = %start
  %2 = landingpad { ptr, i32 }
          cleanup
  %3 = extractvalue { ptr, i32 } %2, 0
  %4 = extractvalue { ptr, i32 } %2, 1
  store ptr %3, ptr %0, align 8
  %5 = getelementptr inbounds i8, ptr %0, i64 8
  store i32 %4, ptr %5, align 8
  br label %bb6

bb1:                                              ; preds = %start
  br i1 %_4, label %bb2, label %bb3, !dbg !2276

bb3:                                              ; preds = %bb1
  store i64 -9223372036854775808, ptr %_0, align 8, !dbg !2278
  br label %bb4, !dbg !2279

bb2:                                              ; preds = %bb1
  store i8 0, ptr %_9, align 1, !dbg !2280
  call void @llvm.memcpy.p0.p0.i64(ptr align 8 %_8, ptr align 8 %x, i64 24, i1 false), !dbg !2280
  call void @llvm.memcpy.p0.p0.i64(ptr align 8 %_0, ptr align 8 %_8, i64 24, i1 false), !dbg !2281
  br label %bb4, !dbg !2279

bb4:                                              ; preds = %bb2, %bb3
  %6 = load i8, ptr %_9, align 1, !dbg !2277, !range !721, !noundef !168
  %7 = trunc i8 %6 to i1, !dbg !2277
  br i1 %7, label %bb8, label %bb5, !dbg !2277

bb5:                                              ; preds = %bb8, %bb4
  ret void, !dbg !2282

bb8:                                              ; preds = %bb4
; call core::ptr::drop_in_place<std::path::PathBuf>
  call void @"_ZN4core3ptr39drop_in_place$LT$std..path..PathBuf$GT$17hca850d7b97c87f5eE"(ptr align 8 %x), !dbg !2277
  br label %bb5, !dbg !2277

terminate:                                        ; preds = %bb6
  %8 = landingpad { ptr, i32 }
          filter [0 x ptr] zeroinitializer
  %9 = extractvalue { ptr, i32 } %8, 0
  %10 = extractvalue { ptr, i32 } %8, 1
; call core::panicking::panic_in_cleanup
  call void @_ZN4core9panicking16panic_in_cleanup17h803841cec7522372E() #18, !dbg !2283
  unreachable, !dbg !2283

bb7:                                              ; preds = %bb6
  %11 = load ptr, ptr %0, align 8, !dbg !2283, !noundef !168
  %12 = getelementptr inbounds i8, ptr %0, i64 8, !dbg !2283
  %13 = load i32, ptr %12, align 8, !dbg !2283, !noundef !168
  %14 = insertvalue { ptr, i32 } poison, ptr %11, 0, !dbg !2283
  %15 = insertvalue { ptr, i32 } %14, i32 %13, 1, !dbg !2283
  resume { ptr, i32 } %15, !dbg !2283
}

; core::iter::traits::iterator::Iterator::find::check::{{closure}}
; Function Attrs: inlinehint nonlazybind uwtable
define { ptr, i64 } @"_ZN4core4iter6traits8iterator8Iterator4find5check28_$u7b$$u7b$closure$u7d$$u7d$17hdc63c58a369fe04cE"(ptr align 8 %_1, ptr align 1 %0, i64 %1) unnamed_addr #0 personality ptr @rust_eh_personality !dbg !2284 {
start:
  %2 = alloca { ptr, i32, [1 x i32] }, align 8
  %_2.dbg.spill = alloca {}, align 1
  %_1.dbg.spill = alloca ptr, align 8
  %_9 = alloca i8, align 1
  %_6 = alloca ptr, align 8
  %_0 = alloca %"core::ops::control_flow::ControlFlow<&std::path::Path>", align 8
  %x = alloca { ptr, i64 }, align 8
  store ptr %0, ptr %x, align 8
  %3 = getelementptr inbounds i8, ptr %x, i64 8
  store i64 %1, ptr %3, align 8
  store ptr %_1, ptr %_1.dbg.spill, align 8
  call void @llvm.dbg.declare(metadata ptr %_1.dbg.spill, metadata !2290, metadata !DIExpression(DW_OP_deref)), !dbg !2292
  call void @llvm.dbg.declare(metadata ptr %_2.dbg.spill, metadata !2291, metadata !DIExpression()), !dbg !2293
  call void @llvm.dbg.declare(metadata ptr %x, metadata !2289, metadata !DIExpression()), !dbg !2294
  store i8 1, ptr %_9, align 1, !dbg !2295
  store ptr %x, ptr %_6, align 8, !dbg !2295
  %4 = load ptr, ptr %_6, align 8, !dbg !2295, !nonnull !168, !align !469, !noundef !168
; invoke core::ops::function::impls::<impl core::ops::function::FnMut<A> for &mut F>::call_mut
  %_4 = invoke zeroext i1 @"_ZN4core3ops8function5impls79_$LT$impl$u20$core..ops..function..FnMut$LT$A$GT$$u20$for$u20$$RF$mut$u20$F$GT$8call_mut17h0139bfb7eee5ceedE"(ptr align 8 %_1, ptr align 8 %4)
          to label %bb1 unwind label %cleanup, !dbg !2295

bb6:                                              ; preds = %cleanup
  %5 = load ptr, ptr %2, align 8, !dbg !2296, !noundef !168
  %6 = getelementptr inbounds i8, ptr %2, i64 8, !dbg !2296
  %7 = load i32, ptr %6, align 8, !dbg !2296, !noundef !168
  %8 = insertvalue { ptr, i32 } poison, ptr %5, 0, !dbg !2296
  %9 = insertvalue { ptr, i32 } %8, i32 %7, 1, !dbg !2296
  resume { ptr, i32 } %9, !dbg !2296

cleanup:                                          ; preds = %start
  %10 = landingpad { ptr, i32 }
          cleanup
  %11 = extractvalue { ptr, i32 } %10, 0
  %12 = extractvalue { ptr, i32 } %10, 1
  store ptr %11, ptr %2, align 8
  %13 = getelementptr inbounds i8, ptr %2, i64 8
  store i32 %12, ptr %13, align 8
  br label %bb6

bb1:                                              ; preds = %start
  br i1 %_4, label %bb2, label %bb3, !dbg !2295

bb3:                                              ; preds = %bb1
  store ptr null, ptr %_0, align 8, !dbg !2297
  br label %bb4, !dbg !2298

bb2:                                              ; preds = %bb1
  store i8 0, ptr %_9, align 1, !dbg !2299
  %_8.0 = load ptr, ptr %x, align 8, !dbg !2299, !nonnull !168, !align !333, !noundef !168
  %14 = getelementptr inbounds i8, ptr %x, i64 8, !dbg !2299
  %_8.1 = load i64, ptr %14, align 8, !dbg !2299, !noundef !168
  store ptr %_8.0, ptr %_0, align 8, !dbg !2300
  %15 = getelementptr inbounds i8, ptr %_0, i64 8, !dbg !2300
  store i64 %_8.1, ptr %15, align 8, !dbg !2300
  br label %bb4, !dbg !2298

bb4:                                              ; preds = %bb2, %bb3
  %16 = load i8, ptr %_9, align 1, !dbg !2301, !range !721, !noundef !168
  %17 = trunc i8 %16 to i1, !dbg !2301
  br i1 %17, label %bb8, label %bb5, !dbg !2301

bb5:                                              ; preds = %bb8, %bb4
  %18 = load ptr, ptr %_0, align 8, !dbg !2302, !align !333, !noundef !168
  %19 = getelementptr inbounds i8, ptr %_0, i64 8, !dbg !2302
  %20 = load i64, ptr %19, align 8, !dbg !2302
  %21 = insertvalue { ptr, i64 } poison, ptr %18, 0, !dbg !2302
  %22 = insertvalue { ptr, i64 } %21, i64 %20, 1, !dbg !2302
  ret { ptr, i64 } %22, !dbg !2302

bb8:                                              ; preds = %bb4
  br label %bb5, !dbg !2301
}

; core::iter::traits::iterator::Iterator::filter
; Function Attrs: inlinehint nonlazybind uwtable
define { ptr, ptr } @_ZN4core4iter6traits8iterator8Iterator6filter17hf576b458a05d3e1fE(ptr %self.0, ptr %self.1) unnamed_addr #0 !dbg !2303 {
start:
  %predicate.dbg.spill = alloca %"{closure@/users/zyuxuan/.cargo/registry/src/index.crates.io-6f17d22bba15001f/openssl-probe-0.1.5/src/lib.rs:44:35: 44:38}", align 1
  %self.dbg.spill = alloca %"core::iter::adapters::map::Map<core::slice::iter::Iter<'_, &str>, for<'a> fn(&'a &str) -> &'a std::path::Path {std::path::Path::new::<&str>}>", align 8
  %_0 = alloca %"core::iter::adapters::filter::Filter<core::iter::adapters::map::Map<core::slice::iter::Iter<'_, &str>, for<'a> fn(&'a &str) -> &'a std::path::Path {std::path::Path::new::<&str>}>, {closure@/users/zyuxuan/.cargo/registry/src/index.crates.io-6f17d22bba15001f/openssl-probe-0.1.5/src/lib.rs:44:35: 44:38}>", align 8
  store ptr %self.0, ptr %self.dbg.spill, align 8
  %0 = getelementptr inbounds i8, ptr %self.dbg.spill, i64 8
  store ptr %self.1, ptr %0, align 8
  call void @llvm.dbg.declare(metadata ptr %self.dbg.spill, metadata !2307, metadata !DIExpression()), !dbg !2310
  call void @llvm.dbg.declare(metadata ptr %self.dbg.spill, metadata !2311, metadata !DIExpression()), !dbg !2317
  call void @llvm.dbg.declare(metadata ptr %predicate.dbg.spill, metadata !2308, metadata !DIExpression()), !dbg !2319
  call void @llvm.dbg.declare(metadata ptr %predicate.dbg.spill, metadata !2316, metadata !DIExpression()), !dbg !2320
  store ptr %self.0, ptr %_0, align 8, !dbg !2321
  %1 = getelementptr inbounds i8, ptr %_0, i64 8, !dbg !2321
  store ptr %self.1, ptr %1, align 8, !dbg !2321
  %2 = load ptr, ptr %_0, align 8, !dbg !2322, !nonnull !168, !noundef !168
  %3 = getelementptr inbounds i8, ptr %_0, i64 8, !dbg !2322
  %4 = load ptr, ptr %3, align 8, !dbg !2322, !noundef !168
  %5 = insertvalue { ptr, ptr } poison, ptr %2, 0, !dbg !2322
  %6 = insertvalue { ptr, ptr } %5, ptr %4, 1, !dbg !2322
  ret { ptr, ptr } %6, !dbg !2322
}

; core::iter::traits::iterator::Iterator::collect
; Function Attrs: inlinehint nonlazybind uwtable
define void @_ZN4core4iter6traits8iterator8Iterator7collect17ha65dcc6e7e7412c5E(ptr sret(%"alloc::vec::Vec<std::path::PathBuf>") align 8 %_0, ptr %self.0, ptr %self.1) unnamed_addr #0 !dbg !2323 {
start:
  %self.dbg.spill = alloca %"core::iter::adapters::map::Map<core::iter::adapters::filter::Filter<core::iter::adapters::map::Map<core::slice::iter::Iter<'_, &str>, for<'a> fn(&'a &str) -> &'a std::path::Path {std::path::Path::new::<&str>}>, {closure@/users/zyuxuan/.cargo/registry/src/index.crates.io-6f17d22bba15001f/openssl-probe-0.1.5/src/lib.rs:44:35: 44:38}>, for<'a> fn(&'a std::path::Path) -> std::path::PathBuf {std::path::Path::to_path_buf}>", align 8
  store ptr %self.0, ptr %self.dbg.spill, align 8
  %0 = getelementptr inbounds i8, ptr %self.dbg.spill, i64 8
  store ptr %self.1, ptr %0, align 8
  call void @llvm.dbg.declare(metadata ptr %self.dbg.spill, metadata !2325, metadata !DIExpression()), !dbg !2329
; call <alloc::vec::Vec<T> as core::iter::traits::collect::FromIterator<T>>::from_iter
  call void @"_ZN95_$LT$alloc..vec..Vec$LT$T$GT$$u20$as$u20$core..iter..traits..collect..FromIterator$LT$T$GT$$GT$9from_iter17h857c79ff091610b8E"(ptr sret(%"alloc::vec::Vec<std::path::PathBuf>") align 8 %_0, ptr %self.0, ptr %self.1), !dbg !2330
  ret void, !dbg !2331
}

; core::iter::traits::iterator::Iterator::try_fold
; Function Attrs: inlinehint nonlazybind uwtable
define void @_ZN4core4iter6traits8iterator8Iterator8try_fold17h478732c487de3fc6E(ptr sret(%"core::ops::control_flow::ControlFlow<std::path::PathBuf>") align 8 %_0, ptr align 8 %self, ptr align 8 %0) unnamed_addr #0 personality ptr @rust_eh_personality !dbg !2332 {
start:
  %x.dbg.spill = alloca ptr, align 8
  %1 = alloca { ptr, i32, [1 x i32] }, align 8
  %val.dbg.spill = alloca {}, align 1
  %accum.dbg.spill = alloca {}, align 1
  %init.dbg.spill = alloca {}, align 1
  %self.dbg.spill = alloca ptr, align 8
  %_17 = alloca i8, align 1
  %residual = alloca %"core::ops::control_flow::ControlFlow<std::path::PathBuf, core::convert::Infallible>::Break", align 8
  %_11 = alloca ptr, align 8
  %_9 = alloca %"core::ops::control_flow::ControlFlow<std::path::PathBuf>", align 8
  %_8 = alloca %"core::ops::control_flow::ControlFlow<core::ops::control_flow::ControlFlow<std::path::PathBuf, core::convert::Infallible>>", align 8
  %_5 = alloca ptr, align 8
  %f = alloca ptr, align 8
  store ptr %0, ptr %f, align 8
  store ptr %self, ptr %self.dbg.spill, align 8
  call void @llvm.dbg.declare(metadata ptr %self.dbg.spill, metadata !2337, metadata !DIExpression()), !dbg !2351
  call void @llvm.dbg.declare(metadata ptr %init.dbg.spill, metadata !2338, metadata !DIExpression()), !dbg !2352
  call void @llvm.dbg.declare(metadata ptr %f, metadata !2339, metadata !DIExpression()), !dbg !2353
  call void @llvm.dbg.declare(metadata ptr %accum.dbg.spill, metadata !2340, metadata !DIExpression()), !dbg !2354
  call void @llvm.dbg.declare(metadata ptr %residual, metadata !2344, metadata !DIExpression()), !dbg !2355
  call void @llvm.dbg.declare(metadata ptr %val.dbg.spill, metadata !2346, metadata !DIExpression()), !dbg !2356
  store i8 1, ptr %_17, align 1, !dbg !2357
  br label %bb1, !dbg !2358

bb1:                                              ; preds = %bb6, %start
; invoke <core::slice::iter::Iter<T> as core::iter::traits::iterator::Iterator>::next
  %2 = invoke align 8 ptr @"_ZN91_$LT$core..slice..iter..Iter$LT$T$GT$$u20$as$u20$core..iter..traits..iterator..Iterator$GT$4next17h89d9150df2e9e818E"(ptr align 8 %self)
          to label %bb2 unwind label %cleanup, !dbg !2359

bb17:                                             ; preds = %cleanup
  %3 = load i8, ptr %_17, align 1, !dbg !2360, !range !721, !noundef !168
  %4 = trunc i8 %3 to i1, !dbg !2360
  br i1 %4, label %bb16, label %bb14, !dbg !2360

cleanup:                                          ; preds = %bb11, %bb8, %bb4, %bb3, %bb1
  %5 = landingpad { ptr, i32 }
          cleanup
  %6 = extractvalue { ptr, i32 } %5, 0
  %7 = extractvalue { ptr, i32 } %5, 1
  store ptr %6, ptr %1, align 8
  %8 = getelementptr inbounds i8, ptr %1, i64 8
  store i32 %7, ptr %8, align 8
  br label %bb17

bb2:                                              ; preds = %bb1
  store ptr %2, ptr %_5, align 8, !dbg !2359
  %9 = load ptr, ptr %_5, align 8, !dbg !2361, !noundef !168
  %10 = ptrtoint ptr %9 to i64, !dbg !2361
  %11 = icmp eq i64 %10, 0, !dbg !2361
  %_6 = select i1 %11, i64 0, i64 1, !dbg !2361
  %12 = icmp eq i64 %_6, 1, !dbg !2361
  br i1 %12, label %bb3, label %bb10, !dbg !2361

bb3:                                              ; preds = %bb2
  %x = load ptr, ptr %_5, align 8, !dbg !2362, !nonnull !168, !align !469, !noundef !168
  store ptr %x, ptr %x.dbg.spill, align 8, !dbg !2362
  call void @llvm.dbg.declare(metadata ptr %x.dbg.spill, metadata !2342, metadata !DIExpression()), !dbg !2362
  store i8 0, ptr %_17, align 1, !dbg !2363
  store ptr %x, ptr %_11, align 8, !dbg !2364
  %13 = load ptr, ptr %_11, align 8, !dbg !2364, !nonnull !168, !align !469, !noundef !168
; invoke core::iter::adapters::map::map_try_fold::{{closure}}
  invoke void @"_ZN4core4iter8adapters3map12map_try_fold28_$u7b$$u7b$closure$u7d$$u7d$17h28143c16c6e048baE"(ptr sret(%"core::ops::control_flow::ControlFlow<std::path::PathBuf>") align 8 %_9, ptr align 8 %f, ptr align 8 %13)
          to label %bb4 unwind label %cleanup, !dbg !2364

bb10:                                             ; preds = %bb2
  br label %bb11, !dbg !2358

bb4:                                              ; preds = %bb3
; invoke <core::ops::control_flow::ControlFlow<B,C> as core::ops::try_trait::Try>::branch
  invoke void @"_ZN95_$LT$core..ops..control_flow..ControlFlow$LT$B$C$C$GT$$u20$as$u20$core..ops..try_trait..Try$GT$6branch17h30dbc7a4895bc7d7E"(ptr sret(%"core::ops::control_flow::ControlFlow<core::ops::control_flow::ControlFlow<std::path::PathBuf, core::convert::Infallible>>") align 8 %_8, ptr align 8 %_9)
          to label %bb5 unwind label %cleanup, !dbg !2364

bb5:                                              ; preds = %bb4
  %14 = load i64, ptr %_8, align 8, !dbg !2364, !range !722, !noundef !168
  %15 = icmp eq i64 %14, -9223372036854775808, !dbg !2364
  %_13 = select i1 %15, i64 0, i64 1, !dbg !2364
  %16 = icmp eq i64 %_13, 0, !dbg !2364
  br i1 %16, label %bb6, label %bb8, !dbg !2364

bb6:                                              ; preds = %bb5
  store i8 1, ptr %_17, align 1, !dbg !2365
  br label %bb1, !dbg !2358

bb8:                                              ; preds = %bb5
  call void @llvm.memcpy.p0.p0.i64(ptr align 8 %residual, ptr align 8 %_8, i64 24, i1 false), !dbg !2366
; invoke <core::ops::control_flow::ControlFlow<B,C> as core::ops::try_trait::FromResidual>::from_residual
  invoke void @"_ZN104_$LT$core..ops..control_flow..ControlFlow$LT$B$C$C$GT$$u20$as$u20$core..ops..try_trait..FromResidual$GT$13from_residual17hd0e7d64dfd160a44E"(ptr sret(%"core::ops::control_flow::ControlFlow<std::path::PathBuf>") align 8 %_0, ptr align 8 %residual)
          to label %bb9 unwind label %cleanup, !dbg !2367

bb9:                                              ; preds = %bb8
  br label %bb13, !dbg !2360

bb13:                                             ; preds = %bb12, %bb9
  ret void, !dbg !2368

bb7:                                              ; No predecessors!
  unreachable, !dbg !2364

bb11:                                             ; preds = %bb10
  store i8 0, ptr %_17, align 1, !dbg !2369
; invoke <core::ops::control_flow::ControlFlow<B,C> as core::ops::try_trait::Try>::from_output
  invoke void @"_ZN95_$LT$core..ops..control_flow..ControlFlow$LT$B$C$C$GT$$u20$as$u20$core..ops..try_trait..Try$GT$11from_output17ha5c4c5671f42dfdbE"(ptr sret(%"core::ops::control_flow::ControlFlow<std::path::PathBuf>") align 8 %_0)
          to label %bb12 unwind label %cleanup, !dbg !2369

bb12:                                             ; preds = %bb11
  br label %bb13, !dbg !2360

bb14:                                             ; preds = %bb16, %bb17
  %17 = load ptr, ptr %1, align 8, !dbg !2370, !noundef !168
  %18 = getelementptr inbounds i8, ptr %1, i64 8, !dbg !2370
  %19 = load i32, ptr %18, align 8, !dbg !2370, !noundef !168
  %20 = insertvalue { ptr, i32 } poison, ptr %17, 0, !dbg !2370
  %21 = insertvalue { ptr, i32 } %20, i32 %19, 1, !dbg !2370
  resume { ptr, i32 } %21, !dbg !2370

bb16:                                             ; preds = %bb17
  br label %bb14, !dbg !2360
}

; core::iter::traits::iterator::Iterator::try_fold
; Function Attrs: inlinehint nonlazybind uwtable
define { ptr, i64 } @_ZN4core4iter6traits8iterator8Iterator8try_fold17hb4b6bb2cdbb20184E(ptr align 8 %self, ptr align 1 %0, ptr align 1 %1) unnamed_addr #0 personality ptr @rust_eh_personality !dbg !2371 {
start:
  %residual.dbg.spill = alloca %"core::ops::control_flow::ControlFlow<&std::path::Path, core::convert::Infallible>::Break", align 8
  %x.dbg.spill = alloca ptr, align 8
  %2 = alloca { ptr, i32, [1 x i32] }, align 8
  %val.dbg.spill = alloca {}, align 1
  %accum.dbg.spill = alloca {}, align 1
  %init.dbg.spill = alloca {}, align 1
  %self.dbg.spill = alloca ptr, align 8
  %_17 = alloca i8, align 1
  %_11 = alloca ptr, align 8
  %_8 = alloca %"core::ops::control_flow::ControlFlow<core::ops::control_flow::ControlFlow<&std::path::Path, core::convert::Infallible>>", align 8
  %_5 = alloca ptr, align 8
  %_0 = alloca %"core::ops::control_flow::ControlFlow<&std::path::Path>", align 8
  %f = alloca %"{closure@core::iter::adapters::map::map_try_fold<'_, &&str, &std::path::Path, (), core::ops::control_flow::ControlFlow<&std::path::Path>, for<'a> fn(&'a &str) -> &'a std::path::Path {std::path::Path::new::<&str>}, {closure@core::iter::traits::iterator::Iterator::find::check<&std::path::Path, &mut {closure@/users/zyuxuan/.cargo/registry/src/index.crates.io-6f17d22bba15001f/openssl-probe-0.1.5/src/lib.rs:44:35: 44:38}>::{closure#0}}>::{closure#0}}", align 8
  store ptr %0, ptr %f, align 8
  %3 = getelementptr inbounds i8, ptr %f, i64 8
  store ptr %1, ptr %3, align 8
  store ptr %self, ptr %self.dbg.spill, align 8
  call void @llvm.dbg.declare(metadata ptr %self.dbg.spill, metadata !2375, metadata !DIExpression()), !dbg !2388
  call void @llvm.dbg.declare(metadata ptr %init.dbg.spill, metadata !2376, metadata !DIExpression()), !dbg !2389
  call void @llvm.dbg.declare(metadata ptr %f, metadata !2377, metadata !DIExpression()), !dbg !2390
  call void @llvm.dbg.declare(metadata ptr %accum.dbg.spill, metadata !2378, metadata !DIExpression()), !dbg !2391
  call void @llvm.dbg.declare(metadata ptr %val.dbg.spill, metadata !2384, metadata !DIExpression()), !dbg !2392
  store i8 1, ptr %_17, align 1, !dbg !2393
  br label %bb1, !dbg !2394

bb1:                                              ; preds = %bb6, %start
; invoke <core::slice::iter::Iter<T> as core::iter::traits::iterator::Iterator>::next
  %4 = invoke align 8 ptr @"_ZN91_$LT$core..slice..iter..Iter$LT$T$GT$$u20$as$u20$core..iter..traits..iterator..Iterator$GT$4next17h89d9150df2e9e818E"(ptr align 8 %self)
          to label %bb2 unwind label %cleanup, !dbg !2395

bb17:                                             ; preds = %cleanup
  %5 = load i8, ptr %_17, align 1, !dbg !2396, !range !721, !noundef !168
  %6 = trunc i8 %5 to i1, !dbg !2396
  br i1 %6, label %bb16, label %bb14, !dbg !2396

cleanup:                                          ; preds = %bb11, %bb8, %bb4, %bb3, %bb1
  %7 = landingpad { ptr, i32 }
          cleanup
  %8 = extractvalue { ptr, i32 } %7, 0
  %9 = extractvalue { ptr, i32 } %7, 1
  store ptr %8, ptr %2, align 8
  %10 = getelementptr inbounds i8, ptr %2, i64 8
  store i32 %9, ptr %10, align 8
  br label %bb17

bb2:                                              ; preds = %bb1
  store ptr %4, ptr %_5, align 8, !dbg !2395
  %11 = load ptr, ptr %_5, align 8, !dbg !2397, !noundef !168
  %12 = ptrtoint ptr %11 to i64, !dbg !2397
  %13 = icmp eq i64 %12, 0, !dbg !2397
  %_6 = select i1 %13, i64 0, i64 1, !dbg !2397
  %14 = icmp eq i64 %_6, 1, !dbg !2397
  br i1 %14, label %bb3, label %bb10, !dbg !2397

bb3:                                              ; preds = %bb2
  %x = load ptr, ptr %_5, align 8, !dbg !2398, !nonnull !168, !align !469, !noundef !168
  store ptr %x, ptr %x.dbg.spill, align 8, !dbg !2398
  call void @llvm.dbg.declare(metadata ptr %x.dbg.spill, metadata !2380, metadata !DIExpression()), !dbg !2398
  store i8 0, ptr %_17, align 1, !dbg !2399
  store ptr %x, ptr %_11, align 8, !dbg !2400
  %15 = load ptr, ptr %_11, align 8, !dbg !2400, !nonnull !168, !align !469, !noundef !168
; invoke core::iter::adapters::map::map_try_fold::{{closure}}
  %16 = invoke { ptr, i64 } @"_ZN4core4iter8adapters3map12map_try_fold28_$u7b$$u7b$closure$u7d$$u7d$17he098473ef459f61cE"(ptr align 8 %f, ptr align 8 %15)
          to label %bb4 unwind label %cleanup, !dbg !2400

bb10:                                             ; preds = %bb2
  br label %bb11, !dbg !2394

bb4:                                              ; preds = %bb3
  %_9.0 = extractvalue { ptr, i64 } %16, 0, !dbg !2400
  %_9.1 = extractvalue { ptr, i64 } %16, 1, !dbg !2400
; invoke <core::ops::control_flow::ControlFlow<B,C> as core::ops::try_trait::Try>::branch
  %17 = invoke { ptr, i64 } @"_ZN95_$LT$core..ops..control_flow..ControlFlow$LT$B$C$C$GT$$u20$as$u20$core..ops..try_trait..Try$GT$6branch17h8f6b4c1292833c39E"(ptr align 1 %_9.0, i64 %_9.1)
          to label %bb5 unwind label %cleanup, !dbg !2400

bb5:                                              ; preds = %bb4
  %18 = extractvalue { ptr, i64 } %17, 0, !dbg !2400
  %19 = extractvalue { ptr, i64 } %17, 1, !dbg !2400
  store ptr %18, ptr %_8, align 8, !dbg !2400
  %20 = getelementptr inbounds i8, ptr %_8, i64 8, !dbg !2400
  store i64 %19, ptr %20, align 8, !dbg !2400
  %21 = load ptr, ptr %_8, align 8, !dbg !2400, !noundef !168
  %22 = ptrtoint ptr %21 to i64, !dbg !2400
  %23 = icmp eq i64 %22, 0, !dbg !2400
  %_13 = select i1 %23, i64 0, i64 1, !dbg !2400
  %24 = icmp eq i64 %_13, 0, !dbg !2400
  br i1 %24, label %bb6, label %bb8, !dbg !2400

bb6:                                              ; preds = %bb5
  store i8 1, ptr %_17, align 1, !dbg !2401
  br label %bb1, !dbg !2394

bb8:                                              ; preds = %bb5
  %residual.0 = load ptr, ptr %_8, align 8, !dbg !2402, !nonnull !168, !align !333, !noundef !168
  %25 = getelementptr inbounds i8, ptr %_8, i64 8, !dbg !2402
  %residual.1 = load i64, ptr %25, align 8, !dbg !2402, !noundef !168
  store ptr %residual.0, ptr %residual.dbg.spill, align 8, !dbg !2402
  %26 = getelementptr inbounds i8, ptr %residual.dbg.spill, i64 8, !dbg !2402
  store i64 %residual.1, ptr %26, align 8, !dbg !2402
  call void @llvm.dbg.declare(metadata ptr %residual.dbg.spill, metadata !2382, metadata !DIExpression()), !dbg !2403
; invoke <core::ops::control_flow::ControlFlow<B,C> as core::ops::try_trait::FromResidual>::from_residual
  %27 = invoke { ptr, i64 } @"_ZN104_$LT$core..ops..control_flow..ControlFlow$LT$B$C$C$GT$$u20$as$u20$core..ops..try_trait..FromResidual$GT$13from_residual17h03281c423b484fa4E"(ptr align 1 %residual.0, i64 %residual.1)
          to label %bb9 unwind label %cleanup, !dbg !2404

bb9:                                              ; preds = %bb8
  %28 = extractvalue { ptr, i64 } %27, 0, !dbg !2404
  %29 = extractvalue { ptr, i64 } %27, 1, !dbg !2404
  store ptr %28, ptr %_0, align 8, !dbg !2404
  %30 = getelementptr inbounds i8, ptr %_0, i64 8, !dbg !2404
  store i64 %29, ptr %30, align 8, !dbg !2404
  br label %bb13, !dbg !2396

bb13:                                             ; preds = %bb12, %bb9
  %31 = load ptr, ptr %_0, align 8, !dbg !2405, !align !333, !noundef !168
  %32 = getelementptr inbounds i8, ptr %_0, i64 8, !dbg !2405
  %33 = load i64, ptr %32, align 8, !dbg !2405
  %34 = insertvalue { ptr, i64 } poison, ptr %31, 0, !dbg !2405
  %35 = insertvalue { ptr, i64 } %34, i64 %33, 1, !dbg !2405
  ret { ptr, i64 } %35, !dbg !2405

bb7:                                              ; No predecessors!
  unreachable, !dbg !2400

bb11:                                             ; preds = %bb10
  store i8 0, ptr %_17, align 1, !dbg !2406
; invoke <core::ops::control_flow::ControlFlow<B,C> as core::ops::try_trait::Try>::from_output
  %36 = invoke { ptr, i64 } @"_ZN95_$LT$core..ops..control_flow..ControlFlow$LT$B$C$C$GT$$u20$as$u20$core..ops..try_trait..Try$GT$11from_output17hcbd2f5691f2ffc15E"()
          to label %bb12 unwind label %cleanup, !dbg !2406

bb12:                                             ; preds = %bb11
  %37 = extractvalue { ptr, i64 } %36, 0, !dbg !2406
  %38 = extractvalue { ptr, i64 } %36, 1, !dbg !2406
  store ptr %37, ptr %_0, align 8, !dbg !2406
  %39 = getelementptr inbounds i8, ptr %_0, i64 8, !dbg !2406
  store i64 %38, ptr %39, align 8, !dbg !2406
  br label %bb13, !dbg !2396

bb14:                                             ; preds = %bb16, %bb17
  %40 = load ptr, ptr %2, align 8, !dbg !2407, !noundef !168
  %41 = getelementptr inbounds i8, ptr %2, i64 8, !dbg !2407
  %42 = load i32, ptr %41, align 8, !dbg !2407, !noundef !168
  %43 = insertvalue { ptr, i32 } poison, ptr %40, 0, !dbg !2407
  %44 = insertvalue { ptr, i32 } %43, i32 %42, 1, !dbg !2407
  resume { ptr, i32 } %44, !dbg !2407

bb16:                                             ; preds = %bb17
  br label %bb14, !dbg !2396
}

; core::iter::adapters::map::map_try_fold::{{closure}}
; Function Attrs: inlinehint nonlazybind uwtable
define void @"_ZN4core4iter8adapters3map12map_try_fold28_$u7b$$u7b$closure$u7d$$u7d$17h28143c16c6e048baE"(ptr sret(%"core::ops::control_flow::ControlFlow<std::path::PathBuf>") align 8 %_0, ptr align 8 %_1, ptr align 8 %elt) unnamed_addr #0 personality ptr @rust_eh_personality !dbg !2408 {
start:
  %0 = alloca { ptr, i32, [1 x i32] }, align 8
  %elt.dbg.spill = alloca ptr, align 8
  %acc.dbg.spill = alloca {}, align 1
  %_1.dbg.spill = alloca ptr, align 8
  %_10 = alloca i8, align 1
  %_8 = alloca ptr, align 8
  %_7 = alloca %"std::path::PathBuf", align 8
  %_5 = alloca { {}, %"std::path::PathBuf" }, align 8
  store ptr %_1, ptr %_1.dbg.spill, align 8
  call void @llvm.dbg.declare(metadata ptr %_1.dbg.spill, metadata !2415, metadata !DIExpression(DW_OP_deref, DW_OP_plus_uconst, 8)), !dbg !2417
  call void @llvm.dbg.declare(metadata ptr %_1.dbg.spill, metadata !2416, metadata !DIExpression(DW_OP_deref)), !dbg !2418
  call void @llvm.dbg.declare(metadata ptr %acc.dbg.spill, metadata !2413, metadata !DIExpression()), !dbg !2419
  store ptr %elt, ptr %elt.dbg.spill, align 8
  call void @llvm.dbg.declare(metadata ptr %elt.dbg.spill, metadata !2414, metadata !DIExpression()), !dbg !2420
  %_4 = getelementptr i8, ptr %_1, i64 8, !dbg !2421
  store i8 1, ptr %_10, align 1, !dbg !2422
  %_9 = load ptr, ptr %_1, align 8, !dbg !2423, !nonnull !168, !align !469, !noundef !168
  store ptr %elt, ptr %_8, align 8, !dbg !2423
  %1 = load ptr, ptr %_8, align 8, !dbg !2423, !nonnull !168, !align !469, !noundef !168
; invoke openssl_probe::probe::{{closure}}
  invoke void @"_ZN13openssl_probe5probe28_$u7b$$u7b$closure$u7d$$u7d$17h4c23ee4fb9625849E"(ptr sret(%"std::path::PathBuf") align 8 %_7, ptr align 8 %_9, ptr align 8 %1)
          to label %bb1 unwind label %cleanup, !dbg !2423

bb5:                                              ; preds = %cleanup
  %2 = load i8, ptr %_10, align 1, !dbg !2424, !range !721, !noundef !168
  %3 = trunc i8 %2 to i1, !dbg !2424
  br i1 %3, label %bb4, label %bb3, !dbg !2424

cleanup:                                          ; preds = %bb1, %start
  %4 = landingpad { ptr, i32 }
          cleanup
  %5 = extractvalue { ptr, i32 } %4, 0
  %6 = extractvalue { ptr, i32 } %4, 1
  store ptr %5, ptr %0, align 8
  %7 = getelementptr inbounds i8, ptr %0, i64 8
  store i32 %6, ptr %7, align 8
  br label %bb5

bb1:                                              ; preds = %start
  store i8 0, ptr %_10, align 1, !dbg !2421
  call void @llvm.memcpy.p0.p0.i64(ptr align 8 %_5, ptr align 8 %_7, i64 24, i1 false), !dbg !2421
; invoke core::iter::traits::iterator::Iterator::find::check::{{closure}}
  invoke void @"_ZN4core4iter6traits8iterator8Iterator4find5check28_$u7b$$u7b$closure$u7d$$u7d$17h16cbc149d35a53ccE"(ptr sret(%"core::ops::control_flow::ControlFlow<std::path::PathBuf>") align 8 %_0, ptr align 1 %_4, ptr align 8 %_5)
          to label %bb2 unwind label %cleanup, !dbg !2421

bb2:                                              ; preds = %bb1
  ret void, !dbg !2425

bb3:                                              ; preds = %bb4, %bb5
  %8 = load ptr, ptr %0, align 8, !dbg !2426, !noundef !168
  %9 = getelementptr inbounds i8, ptr %0, i64 8, !dbg !2426
  %10 = load i32, ptr %9, align 8, !dbg !2426, !noundef !168
  %11 = insertvalue { ptr, i32 } poison, ptr %8, 0, !dbg !2426
  %12 = insertvalue { ptr, i32 } %11, i32 %10, 1, !dbg !2426
  resume { ptr, i32 } %12, !dbg !2426

bb4:                                              ; preds = %bb5
  br label %bb3, !dbg !2424
}

; core::iter::adapters::map::map_try_fold::{{closure}}
; Function Attrs: inlinehint nonlazybind uwtable
define { ptr, i64 } @"_ZN4core4iter8adapters3map12map_try_fold28_$u7b$$u7b$closure$u7d$$u7d$17he098473ef459f61cE"(ptr align 8 %_1, ptr align 8 %elt) unnamed_addr #0 personality ptr @rust_eh_personality !dbg !2427 {
start:
  %0 = alloca { ptr, i32, [1 x i32] }, align 8
  %elt.dbg.spill = alloca ptr, align 8
  %acc.dbg.spill = alloca {}, align 1
  %_1.dbg.spill = alloca ptr, align 8
  %_10 = alloca i8, align 1
  %_8 = alloca ptr, align 8
  %_5 = alloca { {}, { ptr, i64 } }, align 8
  store ptr %_1, ptr %_1.dbg.spill, align 8
  call void @llvm.dbg.declare(metadata ptr %_1.dbg.spill, metadata !2434, metadata !DIExpression(DW_OP_deref)), !dbg !2436
  call void @llvm.dbg.declare(metadata ptr %_1.dbg.spill, metadata !2435, metadata !DIExpression(DW_OP_deref, DW_OP_plus_uconst, 8)), !dbg !2437
  call void @llvm.dbg.declare(metadata ptr %acc.dbg.spill, metadata !2432, metadata !DIExpression()), !dbg !2438
  store ptr %elt, ptr %elt.dbg.spill, align 8
  call void @llvm.dbg.declare(metadata ptr %elt.dbg.spill, metadata !2433, metadata !DIExpression()), !dbg !2439
  store i8 1, ptr %_10, align 1, !dbg !2440
  %1 = getelementptr inbounds i8, ptr %_1, i64 8, !dbg !2441
  %_9 = load ptr, ptr %1, align 8, !dbg !2441, !nonnull !168, !align !333, !noundef !168
  store ptr %elt, ptr %_8, align 8, !dbg !2441
  %2 = load ptr, ptr %_8, align 8, !dbg !2441, !nonnull !168, !align !469, !noundef !168
; invoke core::ops::function::FnMut::call_mut
  %3 = invoke { ptr, i64 } @_ZN4core3ops8function5FnMut8call_mut17h81aa4186a626fffaE(ptr align 1 %_9, ptr align 8 %2)
          to label %bb1 unwind label %cleanup, !dbg !2441

bb5:                                              ; preds = %cleanup
  %4 = load i8, ptr %_10, align 1, !dbg !2442, !range !721, !noundef !168
  %5 = trunc i8 %4 to i1, !dbg !2442
  br i1 %5, label %bb4, label %bb3, !dbg !2442

cleanup:                                          ; preds = %bb1, %start
  %6 = landingpad { ptr, i32 }
          cleanup
  %7 = extractvalue { ptr, i32 } %6, 0
  %8 = extractvalue { ptr, i32 } %6, 1
  store ptr %7, ptr %0, align 8
  %9 = getelementptr inbounds i8, ptr %0, i64 8
  store i32 %8, ptr %9, align 8
  br label %bb5

bb1:                                              ; preds = %start
  %_7.0 = extractvalue { ptr, i64 } %3, 0, !dbg !2441
  %_7.1 = extractvalue { ptr, i64 } %3, 1, !dbg !2441
  store i8 0, ptr %_10, align 1, !dbg !2443
  store ptr %_7.0, ptr %_5, align 8, !dbg !2443
  %10 = getelementptr inbounds i8, ptr %_5, i64 8, !dbg !2443
  store i64 %_7.1, ptr %10, align 8, !dbg !2443
  %11 = load ptr, ptr %_5, align 8, !dbg !2443, !nonnull !168, !align !333, !noundef !168
  %12 = getelementptr inbounds i8, ptr %_5, i64 8, !dbg !2443
  %13 = load i64, ptr %12, align 8, !dbg !2443, !noundef !168
; invoke core::iter::traits::iterator::Iterator::find::check::{{closure}}
  %14 = invoke { ptr, i64 } @"_ZN4core4iter6traits8iterator8Iterator4find5check28_$u7b$$u7b$closure$u7d$$u7d$17hdc63c58a369fe04cE"(ptr align 8 %_1, ptr align 1 %11, i64 %13)
          to label %bb2 unwind label %cleanup, !dbg !2443

bb2:                                              ; preds = %bb1
  %_0.0 = extractvalue { ptr, i64 } %14, 0, !dbg !2443
  %_0.1 = extractvalue { ptr, i64 } %14, 1, !dbg !2443
  %15 = insertvalue { ptr, i64 } poison, ptr %_0.0, 0, !dbg !2444
  %16 = insertvalue { ptr, i64 } %15, i64 %_0.1, 1, !dbg !2444
  ret { ptr, i64 } %16, !dbg !2444

bb3:                                              ; preds = %bb4, %bb5
  %17 = load ptr, ptr %0, align 8, !dbg !2445, !noundef !168
  %18 = getelementptr inbounds i8, ptr %0, i64 8, !dbg !2445
  %19 = load i32, ptr %18, align 8, !dbg !2445, !noundef !168
  %20 = insertvalue { ptr, i32 } poison, ptr %17, 0, !dbg !2445
  %21 = insertvalue { ptr, i32 } %20, i32 %19, 1, !dbg !2445
  resume { ptr, i32 } %21, !dbg !2445

bb4:                                              ; preds = %bb5
  br label %bb3, !dbg !2442
}

; core::alloc::layout::Layout::array::inner
; Function Attrs: inlinehint nonlazybind uwtable
define internal { i64, i64 } @_ZN4core5alloc6layout6Layout5array5inner17hc756f992b4169fedE(i64 %element_size, i64 %align, i64 %n) unnamed_addr #0 !dbg !2446 {
start:
  %align.dbg.spill1 = alloca i64, align 8
  %array_size.dbg.spill = alloca i64, align 8
  %n.dbg.spill = alloca i64, align 8
  %align.dbg.spill = alloca i64, align 8
  %element_size.dbg.spill = alloca i64, align 8
  %_18 = alloca i64, align 8
  %_13 = alloca i64, align 8
  %_9 = alloca %"core::alloc::layout::Layout", align 8
  %_0 = alloca %"core::result::Result<core::alloc::layout::Layout, core::alloc::layout::LayoutError>", align 8
  store i64 %element_size, ptr %element_size.dbg.spill, align 8
  call void @llvm.dbg.declare(metadata ptr %element_size.dbg.spill, metadata !2479, metadata !DIExpression()), !dbg !2484
  call void @llvm.dbg.declare(metadata ptr %element_size.dbg.spill, metadata !2485, metadata !DIExpression()), !dbg !2491
  store i64 %align, ptr %align.dbg.spill, align 8
  call void @llvm.dbg.declare(metadata ptr %align.dbg.spill, metadata !2480, metadata !DIExpression()), !dbg !2493
  call void @llvm.dbg.declare(metadata ptr %align.dbg.spill, metadata !2494, metadata !DIExpression()), !dbg !2501
  call void @llvm.dbg.declare(metadata ptr %align.dbg.spill, metadata !2503, metadata !DIExpression()), !dbg !2511
  call void @llvm.dbg.declare(metadata ptr %align.dbg.spill, metadata !2509, metadata !DIExpression()), !dbg !2513
  store i64 %n, ptr %n.dbg.spill, align 8
  call void @llvm.dbg.declare(metadata ptr %n.dbg.spill, metadata !2481, metadata !DIExpression()), !dbg !2515
  call void @llvm.dbg.declare(metadata ptr %n.dbg.spill, metadata !2490, metadata !DIExpression()), !dbg !2491
  %0 = icmp eq i64 %element_size, 0, !dbg !2516
  br i1 %0, label %bb5, label %bb1, !dbg !2516

bb5:                                              ; preds = %bb4, %start
  %array_size = mul nuw i64 %element_size, %n, !dbg !2491
  store i64 %array_size, ptr %array_size.dbg.spill, align 8, !dbg !2491
  call void @llvm.dbg.declare(metadata ptr %array_size.dbg.spill, metadata !2482, metadata !DIExpression()), !dbg !2517
  call void @llvm.dbg.declare(metadata ptr %array_size.dbg.spill, metadata !2518, metadata !DIExpression()), !dbg !2526
  store i64 %align, ptr %_18, align 8, !dbg !2528
  %_19 = load i64, ptr %_18, align 8, !dbg !2528, !range !2529, !noundef !168
  %_20 = icmp uge i64 %_19, 1, !dbg !2528
  %_21 = icmp ule i64 %_19, -9223372036854775808, !dbg !2528
  %_22 = and i1 %_20, %_21, !dbg !2528
  call void @llvm.assume(i1 %_22), !dbg !2528
  store i64 %_19, ptr %align.dbg.spill1, align 8, !dbg !2528
  call void @llvm.dbg.declare(metadata ptr %align.dbg.spill1, metadata !2525, metadata !DIExpression()), !dbg !2530
  call void @llvm.dbg.declare(metadata ptr %align.dbg.spill1, metadata !2531, metadata !DIExpression()), !dbg !2538
  %1 = getelementptr inbounds i8, ptr %_9, i64 8, !dbg !2540
  store i64 %array_size, ptr %1, align 8, !dbg !2540
  store i64 %_19, ptr %_9, align 8, !dbg !2540
  %2 = load i64, ptr %_9, align 8, !dbg !2541, !range !2529, !noundef !168
  %3 = getelementptr inbounds i8, ptr %_9, i64 8, !dbg !2541
  %4 = load i64, ptr %3, align 8, !dbg !2541, !noundef !168
  store i64 %2, ptr %_0, align 8, !dbg !2541
  %5 = getelementptr inbounds i8, ptr %_0, i64 8, !dbg !2541
  store i64 %4, ptr %5, align 8, !dbg !2541
  br label %bb6, !dbg !2542

bb1:                                              ; preds = %start
  store i64 %align, ptr %_13, align 8, !dbg !2543
  %_14 = load i64, ptr %_13, align 8, !dbg !2543, !range !2529, !noundef !168
  %_15 = icmp uge i64 %_14, 1, !dbg !2543
  %_16 = icmp ule i64 %_14, -9223372036854775808, !dbg !2543
  %_17 = and i1 %_15, %_16, !dbg !2543
  call void @llvm.assume(i1 %_17), !dbg !2543
  %_11 = sub i64 %_14, 1, !dbg !2544
  %_6 = sub i64 9223372036854775807, %_11, !dbg !2545
  %_7 = icmp eq i64 %element_size, 0, !dbg !2502
  %6 = call i1 @llvm.expect.i1(i1 %_7, i1 false), !dbg !2502
  br i1 %6, label %panic, label %bb2, !dbg !2502

bb2:                                              ; preds = %bb1
  %_5 = udiv i64 %_6, %element_size, !dbg !2502
  %_4 = icmp ugt i64 %n, %_5, !dbg !2546
  br i1 %_4, label %bb3, label %bb4, !dbg !2546

panic:                                            ; preds = %bb1
; call core::panicking::panic
  call void @_ZN4core9panicking5panic17h59297120e85ea178E(ptr align 1 @str.0, i64 25, ptr align 8 @alloc_37f08cc86d215bcabda8bef18acdfc7b) #19, !dbg !2502
  unreachable, !dbg !2502

bb4:                                              ; preds = %bb2
  br label %bb5, !dbg !2547

bb3:                                              ; preds = %bb2
  %7 = load i64, ptr @2, align 8, !dbg !2550, !range !722, !noundef !168
  %8 = load i64, ptr getelementptr inbounds (i8, ptr @2, i64 8), align 8, !dbg !2550
  store i64 %7, ptr %_0, align 8, !dbg !2550
  %9 = getelementptr inbounds i8, ptr %_0, i64 8, !dbg !2550
  store i64 %8, ptr %9, align 8, !dbg !2550
  br label %bb6, !dbg !2542

bb6:                                              ; preds = %bb3, %bb5
  %10 = load i64, ptr %_0, align 8, !dbg !2542, !range !722, !noundef !168
  %11 = getelementptr inbounds i8, ptr %_0, i64 8, !dbg !2542
  %12 = load i64, ptr %11, align 8, !dbg !2542
  %13 = insertvalue { i64, i64 } poison, i64 %10, 0, !dbg !2542
  %14 = insertvalue { i64, i64 } %13, i64 %12, 1, !dbg !2542
  ret { i64, i64 } %14, !dbg !2542
}

; core::slice::<impl [T]>::iter
; Function Attrs: inlinehint nonlazybind uwtable
define { ptr, ptr } @"_ZN4core5slice29_$LT$impl$u20$$u5b$T$u5d$$GT$4iter17hf80cafc18536cf1dE"(ptr align 8 %self.0, i64 %self.1) unnamed_addr #0 !dbg !2551 {
start:
  %ptr.dbg.spill1 = alloca ptr, align 8
  %addr.dbg.spill = alloca i64, align 8
  %count.dbg.spill = alloca i64, align 8
  %ptr.dbg.spill = alloca ptr, align 8
  %self.dbg.spill = alloca { ptr, i64 }, align 8
  %_7 = alloca ptr, align 8
  %end_or_len = alloca ptr, align 8
  %_0 = alloca %"core::slice::iter::Iter<'_, &str>", align 8
  store ptr %self.0, ptr %self.dbg.spill, align 8
  %0 = getelementptr inbounds i8, ptr %self.dbg.spill, i64 8
  store i64 %self.1, ptr %0, align 8
  call void @llvm.dbg.declare(metadata ptr %self.dbg.spill, metadata !2557, metadata !DIExpression()), !dbg !2558
  call void @llvm.dbg.declare(metadata ptr %self.dbg.spill, metadata !2559, metadata !DIExpression()), !dbg !2569
  call void @llvm.dbg.declare(metadata ptr %self.dbg.spill, metadata !2571, metadata !DIExpression()), !dbg !2577
  call void @llvm.dbg.declare(metadata ptr %end_or_len, metadata !2567, metadata !DIExpression()), !dbg !2579
  store ptr %self.0, ptr %ptr.dbg.spill, align 8, !dbg !2580
  call void @llvm.dbg.declare(metadata ptr %ptr.dbg.spill, metadata !2565, metadata !DIExpression()), !dbg !2581
  call void @llvm.dbg.declare(metadata ptr %ptr.dbg.spill, metadata !2582, metadata !DIExpression()), !dbg !2592
  br i1 false, label %bb1, label %bb2, !dbg !2594

bb2:                                              ; preds = %start
  store i64 %self.1, ptr %count.dbg.spill, align 8, !dbg !2595
  call void @llvm.dbg.declare(metadata ptr %count.dbg.spill, metadata !2591, metadata !DIExpression()), !dbg !2596
  %1 = getelementptr inbounds { ptr, i64 }, ptr %self.0, i64 %self.1, !dbg !2597
  store ptr %1, ptr %end_or_len, align 8, !dbg !2597
  br label %bb3, !dbg !2598

bb1:                                              ; preds = %start
  store i64 %self.1, ptr %addr.dbg.spill, align 8, !dbg !2599
  call void @llvm.dbg.declare(metadata ptr %addr.dbg.spill, metadata !2600, metadata !DIExpression()), !dbg !2606
  %2 = inttoptr i64 %self.1 to ptr, !dbg !2608
  store ptr %2, ptr %end_or_len, align 8, !dbg !2608
  br label %bb3, !dbg !2598

bb3:                                              ; preds = %bb1, %bb2
  store ptr %self.0, ptr %ptr.dbg.spill1, align 8, !dbg !2609
  call void @llvm.dbg.declare(metadata ptr %ptr.dbg.spill1, metadata !2610, metadata !DIExpression()), !dbg !2618
  store ptr %self.0, ptr %_7, align 8, !dbg !2620
  %_9 = load ptr, ptr %end_or_len, align 8, !dbg !2621, !noundef !168
  %3 = load ptr, ptr %_7, align 8, !dbg !2622, !nonnull !168, !noundef !168
  store ptr %3, ptr %_0, align 8, !dbg !2622
  %4 = getelementptr inbounds i8, ptr %_0, i64 8, !dbg !2622
  store ptr %_9, ptr %4, align 8, !dbg !2622
  %5 = load ptr, ptr %_0, align 8, !dbg !2623, !nonnull !168, !noundef !168
  %6 = getelementptr inbounds i8, ptr %_0, i64 8, !dbg !2623
  %7 = load ptr, ptr %6, align 8, !dbg !2623, !noundef !168
  %8 = insertvalue { ptr, ptr } poison, ptr %5, 0, !dbg !2623
  %9 = insertvalue { ptr, ptr } %8, ptr %7, 1, !dbg !2623
  ret { ptr, ptr } %9, !dbg !2623
}

; core::option::Option<T>::map
; Function Attrs: inlinehint nonlazybind uwtable
define void @"_ZN4core6option15Option$LT$T$GT$3map17h3a31ef5cfc14f438E"(ptr sret(%"core::option::Option<std::path::PathBuf>") align 8 %_0, ptr align 8 %self) unnamed_addr #0 !dbg !2624 {
start:
  %f.dbg.spill = alloca {}, align 1
  %_8 = alloca i8, align 1
  %_7 = alloca { %"std::ffi::os_str::OsString" }, align 8
  %_5 = alloca %"std::path::PathBuf", align 8
  %x = alloca %"std::ffi::os_str::OsString", align 8
  call void @llvm.dbg.declare(metadata ptr %self, metadata !2631, metadata !DIExpression()), !dbg !2635
  call void @llvm.dbg.declare(metadata ptr %f.dbg.spill, metadata !2632, metadata !DIExpression()), !dbg !2636
  call void @llvm.dbg.declare(metadata ptr %x, metadata !2633, metadata !DIExpression()), !dbg !2637
  store i8 1, ptr %_8, align 1, !dbg !2638
  %0 = load i64, ptr %self, align 8, !dbg !2638, !range !722, !noundef !168
  %1 = icmp eq i64 %0, -9223372036854775808, !dbg !2638
  %_3 = select i1 %1, i64 0, i64 1, !dbg !2638
  %2 = icmp eq i64 %_3, 0, !dbg !2639
  br i1 %2, label %bb1, label %bb3, !dbg !2639

bb1:                                              ; preds = %start
  store i64 -9223372036854775808, ptr %_0, align 8, !dbg !2640
  br label %bb7, !dbg !2640

bb3:                                              ; preds = %start
  call void @llvm.memcpy.p0.p0.i64(ptr align 8 %x, ptr align 8 %self, i64 24, i1 false), !dbg !2641
  store i8 0, ptr %_8, align 1, !dbg !2642
  call void @llvm.memcpy.p0.p0.i64(ptr align 8 %_7, ptr align 8 %x, i64 24, i1 false), !dbg !2642
; call core::ops::function::FnOnce::call_once
  call void @_ZN4core3ops8function6FnOnce9call_once17h49d38398448f97d3E(ptr sret(%"std::path::PathBuf") align 8 %_5, ptr align 8 %_7), !dbg !2642
  call void @llvm.memcpy.p0.p0.i64(ptr align 8 %_0, ptr align 8 %_5, i64 24, i1 false), !dbg !2643
  br label %bb7, !dbg !2644

bb7:                                              ; preds = %bb3, %bb1
  %3 = load i8, ptr %_8, align 1, !dbg !2645, !range !721, !noundef !168
  %4 = trunc i8 %3 to i1, !dbg !2645
  br i1 %4, label %bb6, label %bb5, !dbg !2645

bb5:                                              ; preds = %bb6, %bb7
  ret void, !dbg !2646

bb6:                                              ; preds = %bb7
  br label %bb5, !dbg !2645

bb2:                                              ; No predecessors!
  unreachable, !dbg !2638
}

; core::option::Option<T>::filter
; Function Attrs: inlinehint nonlazybind uwtable
define void @"_ZN4core6option15Option$LT$T$GT$6filter17h7d3b7d7a8497fce0E"(ptr sret(%"core::option::Option<std::path::PathBuf>") align 8 %_0, ptr align 8 %self) unnamed_addr #0 personality ptr @rust_eh_personality !dbg !2647 {
start:
  %0 = alloca { ptr, i32, [1 x i32] }, align 8
  %predicate.dbg.spill = alloca %"{closure@/users/zyuxuan/.cargo/registry/src/index.crates.io-6f17d22bba15001f/openssl-probe-0.1.5/src/lib.rs:94:21: 94:24}", align 1
  %_11 = alloca i8, align 1
  %_10 = alloca i8, align 1
  %_9 = alloca %"std::path::PathBuf", align 8
  %_7 = alloca ptr, align 8
  %x = alloca %"std::path::PathBuf", align 8
  call void @llvm.dbg.declare(metadata ptr %self, metadata !2657, metadata !DIExpression()), !dbg !2661
  call void @llvm.dbg.declare(metadata ptr %predicate.dbg.spill, metadata !2658, metadata !DIExpression()), !dbg !2662
  call void @llvm.dbg.declare(metadata ptr %x, metadata !2659, metadata !DIExpression()), !dbg !2663
  store i8 1, ptr %_11, align 1, !dbg !2664
  store i8 1, ptr %_10, align 1, !dbg !2664
  %1 = load i64, ptr %self, align 8, !dbg !2665, !range !722, !noundef !168
  %2 = icmp eq i64 %1, -9223372036854775808, !dbg !2665
  %_3 = select i1 %2, i64 0, i64 1, !dbg !2665
  %3 = icmp eq i64 %_3, 1, !dbg !2665
  br i1 %3, label %bb1, label %bb6, !dbg !2665

bb1:                                              ; preds = %start
  store i8 0, ptr %_11, align 1, !dbg !2663
  call void @llvm.memcpy.p0.p0.i64(ptr align 8 %x, ptr align 8 %self, i64 24, i1 false), !dbg !2663
  store i8 0, ptr %_10, align 1, !dbg !2666
  store ptr %x, ptr %_7, align 8, !dbg !2666
  %4 = load ptr, ptr %_7, align 8, !dbg !2666, !nonnull !168, !align !469, !noundef !168
; invoke openssl_probe::probe_from_env::{{closure}}::{{closure}}
  %_5 = invoke zeroext i1 @"_ZN13openssl_probe14probe_from_env28_$u7b$$u7b$closure$u7d$$u7d$28_$u7b$$u7b$closure$u7d$$u7d$17h388f76530a62fdf5E"(ptr align 8 %4)
          to label %bb2 unwind label %cleanup, !dbg !2666

bb6:                                              ; preds = %bb5, %start
  store i64 -9223372036854775808, ptr %_0, align 8, !dbg !2667
  %5 = load i8, ptr %_10, align 1, !dbg !2668, !range !721, !noundef !168
  %6 = trunc i8 %5 to i1, !dbg !2668
  br i1 %6, label %bb11, label %bb7, !dbg !2668

bb9:                                              ; preds = %cleanup
; invoke core::ptr::drop_in_place<std::path::PathBuf>
  invoke void @"_ZN4core3ptr39drop_in_place$LT$std..path..PathBuf$GT$17hca850d7b97c87f5eE"(ptr align 8 %x) #17
          to label %bb16 unwind label %terminate, !dbg !2669

cleanup:                                          ; preds = %bb1
  %7 = landingpad { ptr, i32 }
          cleanup
  %8 = extractvalue { ptr, i32 } %7, 0
  %9 = extractvalue { ptr, i32 } %7, 1
  store ptr %8, ptr %0, align 8
  %10 = getelementptr inbounds i8, ptr %0, i64 8
  store i32 %9, ptr %10, align 8
  br label %bb9

bb2:                                              ; preds = %bb1
  br i1 %_5, label %bb3, label %bb4, !dbg !2666

bb4:                                              ; preds = %bb2
; invoke core::ptr::drop_in_place<std::path::PathBuf>
  invoke void @"_ZN4core3ptr39drop_in_place$LT$std..path..PathBuf$GT$17hca850d7b97c87f5eE"(ptr align 8 %x)
          to label %bb5 unwind label %cleanup1, !dbg !2669

bb3:                                              ; preds = %bb2
  call void @llvm.memcpy.p0.p0.i64(ptr align 8 %_9, ptr align 8 %x, i64 24, i1 false), !dbg !2670
  call void @llvm.memcpy.p0.p0.i64(ptr align 8 %_0, ptr align 8 %_9, i64 24, i1 false), !dbg !2671
  br label %bb8, !dbg !2668

bb16:                                             ; preds = %bb9, %cleanup1
  %11 = load i64, ptr %self, align 8, !dbg !2668, !range !722, !noundef !168
  %12 = icmp eq i64 %11, -9223372036854775808, !dbg !2668
  %_13 = select i1 %12, i64 0, i64 1, !dbg !2668
  %13 = icmp eq i64 %_13, 1, !dbg !2668
  br i1 %13, label %bb14, label %bb10, !dbg !2668

cleanup1:                                         ; preds = %bb4
  %14 = landingpad { ptr, i32 }
          cleanup
  %15 = extractvalue { ptr, i32 } %14, 0
  %16 = extractvalue { ptr, i32 } %14, 1
  store ptr %15, ptr %0, align 8
  %17 = getelementptr inbounds i8, ptr %0, i64 8
  store i32 %16, ptr %17, align 8
  br label %bb16

bb5:                                              ; preds = %bb4
  br label %bb6, !dbg !2664

bb8:                                              ; preds = %bb13, %bb12, %bb7, %bb3
  ret void, !dbg !2672

terminate:                                        ; preds = %bb15, %bb9
  %18 = landingpad { ptr, i32 }
          filter [0 x ptr] zeroinitializer
  %19 = extractvalue { ptr, i32 } %18, 0
  %20 = extractvalue { ptr, i32 } %18, 1
; call core::panicking::panic_in_cleanup
  call void @_ZN4core9panicking16panic_in_cleanup17h803841cec7522372E() #18, !dbg !2673
  unreachable, !dbg !2673

bb7:                                              ; preds = %bb11, %bb6
  %21 = load i64, ptr %self, align 8, !dbg !2668, !range !722, !noundef !168
  %22 = icmp eq i64 %21, -9223372036854775808, !dbg !2668
  %_12 = select i1 %22, i64 0, i64 1, !dbg !2668
  %23 = icmp eq i64 %_12, 1, !dbg !2668
  br i1 %23, label %bb12, label %bb8, !dbg !2668

bb11:                                             ; preds = %bb6
  br label %bb7, !dbg !2668

bb12:                                             ; preds = %bb7
  %24 = load i8, ptr %_11, align 1, !dbg !2668, !range !721, !noundef !168
  %25 = trunc i8 %24 to i1, !dbg !2668
  br i1 %25, label %bb13, label %bb8, !dbg !2668

bb13:                                             ; preds = %bb12
; call core::ptr::drop_in_place<std::path::PathBuf>
  call void @"_ZN4core3ptr39drop_in_place$LT$std..path..PathBuf$GT$17hca850d7b97c87f5eE"(ptr align 8 %self), !dbg !2668
  br label %bb8, !dbg !2668

bb14:                                             ; preds = %bb16
  %26 = load i8, ptr %_11, align 1, !dbg !2668, !range !721, !noundef !168
  %27 = trunc i8 %26 to i1, !dbg !2668
  br i1 %27, label %bb15, label %bb10, !dbg !2668

bb10:                                             ; preds = %bb15, %bb14, %bb16
  %28 = load ptr, ptr %0, align 8, !dbg !2673, !noundef !168
  %29 = getelementptr inbounds i8, ptr %0, i64 8, !dbg !2673
  %30 = load i32, ptr %29, align 8, !dbg !2673, !noundef !168
  %31 = insertvalue { ptr, i32 } poison, ptr %28, 0, !dbg !2673
  %32 = insertvalue { ptr, i32 } %31, i32 %30, 1, !dbg !2673
  resume { ptr, i32 } %32, !dbg !2673

bb15:                                             ; preds = %bb14
; invoke core::ptr::drop_in_place<std::path::PathBuf>
  invoke void @"_ZN4core3ptr39drop_in_place$LT$std..path..PathBuf$GT$17hca850d7b97c87f5eE"(ptr align 8 %self) #17
          to label %bb10 unwind label %terminate, !dbg !2668
}

; core::option::Option<T>::is_none
; Function Attrs: inlinehint nonlazybind uwtable
define zeroext i1 @"_ZN4core6option15Option$LT$T$GT$7is_none17hed787fd0a5b7958cE"(ptr align 8 %self) unnamed_addr #0 !dbg !2674 {
start:
  %self.dbg.spill = alloca ptr, align 8
  store ptr %self, ptr %self.dbg.spill, align 8
  call void @llvm.dbg.declare(metadata ptr %self.dbg.spill, metadata !2680, metadata !DIExpression()), !dbg !2681
  call void @llvm.dbg.declare(metadata ptr %self.dbg.spill, metadata !2682, metadata !DIExpression()), !dbg !2687
  %0 = load i64, ptr %self, align 8, !dbg !2689, !range !722, !noundef !168
  %1 = icmp eq i64 %0, -9223372036854775808, !dbg !2689
  %_3 = select i1 %1, i64 0, i64 1, !dbg !2689
  %_2 = icmp eq i64 %_3, 1, !dbg !2690
  %_0 = xor i1 %_2, true, !dbg !2691
  ret i1 %_0, !dbg !2692
}

; core::option::Option<T>::is_some
; Function Attrs: inlinehint nonlazybind uwtable
define zeroext i1 @"_ZN4core6option15Option$LT$T$GT$7is_some17h41f44e3456d33debE"(ptr align 8 %self) unnamed_addr #0 !dbg !2693 {
start:
  %self.dbg.spill = alloca ptr, align 8
  store ptr %self, ptr %self.dbg.spill, align 8
  call void @llvm.dbg.declare(metadata ptr %self.dbg.spill, metadata !2695, metadata !DIExpression()), !dbg !2696
  %0 = load i64, ptr %self, align 8, !dbg !2697, !range !722, !noundef !168
  %1 = icmp eq i64 %0, -9223372036854775808, !dbg !2697
  %_2 = select i1 %1, i64 0, i64 1, !dbg !2697
  %_0 = icmp eq i64 %_2, 1, !dbg !2698
  ret i1 %_0, !dbg !2699
}

; core::result::Result<T,E>::map
; Function Attrs: inlinehint nonlazybind uwtable
define void @"_ZN4core6result19Result$LT$T$C$E$GT$3map17h196a6b6d35acba91E"(ptr sret(%"core::result::Result<std::fs::Metadata, std::io::error::Error>") align 8 %_0, ptr align 8 %self) unnamed_addr #0 !dbg !2700 {
start:
  %e.dbg.spill = alloca ptr, align 8
  %op.dbg.spill = alloca {}, align 1
  %_9 = alloca i8, align 1
  %_7 = alloca { %"std::sys::pal::unix::fs::FileAttr" }, align 8
  %_5 = alloca %"std::fs::Metadata", align 8
  %t = alloca %"std::sys::pal::unix::fs::FileAttr", align 8
  call void @llvm.dbg.declare(metadata ptr %self, metadata !2723, metadata !DIExpression()), !dbg !2729
  call void @llvm.dbg.declare(metadata ptr %op.dbg.spill, metadata !2724, metadata !DIExpression()), !dbg !2730
  call void @llvm.dbg.declare(metadata ptr %t, metadata !2725, metadata !DIExpression()), !dbg !2731
  store i8 1, ptr %_9, align 1, !dbg !2732
  %0 = load i64, ptr %self, align 8, !dbg !2732, !range !1087, !noundef !168
  %1 = icmp eq i64 %0, 2, !dbg !2732
  %_3 = select i1 %1, i64 1, i64 0, !dbg !2732
  %2 = icmp eq i64 %_3, 0, !dbg !2733
  br i1 %2, label %bb3, label %bb1, !dbg !2733

bb3:                                              ; preds = %start
  call void @llvm.memcpy.p0.p0.i64(ptr align 8 %t, ptr align 8 %self, i64 176, i1 false), !dbg !2734
  store i8 0, ptr %_9, align 1, !dbg !2735
  call void @llvm.memcpy.p0.p0.i64(ptr align 8 %_7, ptr align 8 %t, i64 176, i1 false), !dbg !2735
; call core::ops::function::FnOnce::call_once
  call void @_ZN4core3ops8function6FnOnce9call_once17h6b5175bb11e98e09E(ptr sret(%"std::fs::Metadata") align 8 %_5, ptr align 8 %_7), !dbg !2735
  call void @llvm.memcpy.p0.p0.i64(ptr align 8 %_0, ptr align 8 %_5, i64 176, i1 false), !dbg !2736
  br label %bb7, !dbg !2737

bb1:                                              ; preds = %start
  %3 = getelementptr inbounds %"core::result::Result<std::sys::pal::unix::fs::FileAttr, std::io::error::Error>::Err", ptr %self, i32 0, i32 1, !dbg !2738
  %e = load ptr, ptr %3, align 8, !dbg !2738, !nonnull !168, !noundef !168
  store ptr %e, ptr %e.dbg.spill, align 8, !dbg !2738
  call void @llvm.dbg.declare(metadata ptr %e.dbg.spill, metadata !2727, metadata !DIExpression()), !dbg !2739
  %4 = getelementptr inbounds %"core::result::Result<std::fs::Metadata, std::io::error::Error>::Err", ptr %_0, i32 0, i32 1, !dbg !2740
  store ptr %e, ptr %4, align 8, !dbg !2740
  store i64 2, ptr %_0, align 8, !dbg !2740
  br label %bb7, !dbg !2741

bb7:                                              ; preds = %bb1, %bb3
  %5 = load i8, ptr %_9, align 1, !dbg !2742, !range !721, !noundef !168
  %6 = trunc i8 %5 to i1, !dbg !2742
  br i1 %6, label %bb6, label %bb5, !dbg !2742

bb5:                                              ; preds = %bb6, %bb7
  ret void, !dbg !2743

bb6:                                              ; preds = %bb7
  br label %bb5, !dbg !2742

bb2:                                              ; No predecessors!
  unreachable, !dbg !2732
}

; core::result::Result<T,E>::map_err
; Function Attrs: inlinehint nonlazybind uwtable
define void @"_ZN4core6result19Result$LT$T$C$E$GT$7map_err17h03c5156b8effe53eE"(ptr sret(%"core::result::Result<core::ptr::non_null::NonNull<[u8]>, alloc::collections::TryReserveError>") align 8 %_0, ptr %0, i64 %1, ptr align 8 %op) unnamed_addr #0 !dbg !2744 {
start:
  %t.dbg.spill = alloca %"core::ptr::non_null::NonNull<[u8]>", align 8
  %e.dbg.spill = alloca %"core::alloc::AllocError", align 1
  %op.dbg.spill = alloca ptr, align 8
  %_9 = alloca i8, align 1
  %self = alloca %"core::result::Result<core::ptr::non_null::NonNull<[u8]>, core::alloc::AllocError>", align 8
  store ptr %0, ptr %self, align 8
  %2 = getelementptr inbounds i8, ptr %self, i64 8
  store i64 %1, ptr %2, align 8
  call void @llvm.dbg.declare(metadata ptr %self, metadata !2812, metadata !DIExpression()), !dbg !2818
  store ptr %op, ptr %op.dbg.spill, align 8
  call void @llvm.dbg.declare(metadata ptr %op.dbg.spill, metadata !2813, metadata !DIExpression()), !dbg !2819
  call void @llvm.dbg.declare(metadata ptr %e.dbg.spill, metadata !2816, metadata !DIExpression()), !dbg !2820
  store i8 1, ptr %_9, align 1, !dbg !2821
  %3 = load ptr, ptr %self, align 8, !dbg !2821, !noundef !168
  %4 = ptrtoint ptr %3 to i64, !dbg !2821
  %5 = icmp eq i64 %4, 0, !dbg !2821
  %_3 = select i1 %5, i64 1, i64 0, !dbg !2821
  %6 = icmp eq i64 %_3, 0, !dbg !2822
  br i1 %6, label %bb3, label %bb1, !dbg !2822

bb3:                                              ; preds = %start
  %t.0 = load ptr, ptr %self, align 8, !dbg !2823, !nonnull !168, !noundef !168
  %7 = getelementptr inbounds i8, ptr %self, i64 8, !dbg !2823
  %t.1 = load i64, ptr %7, align 8, !dbg !2823, !noundef !168
  store ptr %t.0, ptr %t.dbg.spill, align 8, !dbg !2823
  %8 = getelementptr inbounds i8, ptr %t.dbg.spill, i64 8, !dbg !2823
  store i64 %t.1, ptr %8, align 8, !dbg !2823
  call void @llvm.dbg.declare(metadata ptr %t.dbg.spill, metadata !2814, metadata !DIExpression()), !dbg !2824
  %9 = getelementptr inbounds %"core::result::Result<core::ptr::non_null::NonNull<[u8]>, alloc::collections::TryReserveError>::Ok", ptr %_0, i32 0, i32 1, !dbg !2825
  store ptr %t.0, ptr %9, align 8, !dbg !2825
  %10 = getelementptr inbounds i8, ptr %9, i64 8, !dbg !2825
  store i64 %t.1, ptr %10, align 8, !dbg !2825
  store i64 0, ptr %_0, align 8, !dbg !2825
  br label %bb7, !dbg !2826

bb1:                                              ; preds = %start
  store i8 0, ptr %_9, align 1, !dbg !2827
; call alloc::raw_vec::finish_grow::{{closure}}
  %11 = call { i64, i64 } @"_ZN5alloc7raw_vec11finish_grow28_$u7b$$u7b$closure$u7d$$u7d$17hbea0561fc0e69669E"(ptr align 8 %op), !dbg !2827
  %_6.0 = extractvalue { i64, i64 } %11, 0, !dbg !2827
  %_6.1 = extractvalue { i64, i64 } %11, 1, !dbg !2827
  %12 = getelementptr inbounds %"core::result::Result<core::ptr::non_null::NonNull<[u8]>, alloc::collections::TryReserveError>::Err", ptr %_0, i32 0, i32 1, !dbg !2828
  store i64 %_6.0, ptr %12, align 8, !dbg !2828
  %13 = getelementptr inbounds i8, ptr %12, i64 8, !dbg !2828
  store i64 %_6.1, ptr %13, align 8, !dbg !2828
  store i64 1, ptr %_0, align 8, !dbg !2828
  br label %bb7, !dbg !2829

bb7:                                              ; preds = %bb1, %bb3
  %14 = load i8, ptr %_9, align 1, !dbg !2830, !range !721, !noundef !168
  %15 = trunc i8 %14 to i1, !dbg !2830
  br i1 %15, label %bb6, label %bb5, !dbg !2830

bb5:                                              ; preds = %bb6, %bb7
  ret void, !dbg !2831

bb6:                                              ; preds = %bb7
  br label %bb5, !dbg !2830

bb2:                                              ; No predecessors!
  unreachable, !dbg !2821
}

; core::result::Result<T,E>::map_err
; Function Attrs: inlinehint nonlazybind uwtable
define void @"_ZN4core6result19Result$LT$T$C$E$GT$7map_err17h7d7fefa965612b67E"(ptr sret(%"core::result::Result<core::alloc::layout::Layout, alloc::collections::TryReserveErrorKind>") align 8 %_0, i64 %0, i64 %1) unnamed_addr #0 !dbg !2832 {
start:
  %t.dbg.spill = alloca %"core::alloc::layout::Layout", align 8
  %e.dbg.spill = alloca %"core::alloc::layout::LayoutError", align 1
  %op.dbg.spill = alloca %"{closure@alloc::raw_vec::finish_grow<alloc::alloc::Global>::{closure#0}}", align 1
  %_9 = alloca i8, align 1
  %self = alloca %"core::result::Result<core::alloc::layout::Layout, core::alloc::layout::LayoutError>", align 8
  store i64 %0, ptr %self, align 8
  %2 = getelementptr inbounds i8, ptr %self, i64 8
  store i64 %1, ptr %2, align 8
  call void @llvm.dbg.declare(metadata ptr %self, metadata !2856, metadata !DIExpression()), !dbg !2862
  call void @llvm.dbg.declare(metadata ptr %op.dbg.spill, metadata !2857, metadata !DIExpression()), !dbg !2863
  call void @llvm.dbg.declare(metadata ptr %e.dbg.spill, metadata !2860, metadata !DIExpression()), !dbg !2864
  store i8 1, ptr %_9, align 1, !dbg !2865
  %3 = load i64, ptr %self, align 8, !dbg !2865, !range !722, !noundef !168
  %4 = icmp eq i64 %3, 0, !dbg !2865
  %_3 = select i1 %4, i64 1, i64 0, !dbg !2865
  %5 = icmp eq i64 %_3, 0, !dbg !2866
  br i1 %5, label %bb3, label %bb1, !dbg !2866

bb3:                                              ; preds = %start
  %t.0 = load i64, ptr %self, align 8, !dbg !2867, !range !2529, !noundef !168
  %6 = getelementptr inbounds i8, ptr %self, i64 8, !dbg !2867
  %t.1 = load i64, ptr %6, align 8, !dbg !2867, !noundef !168
  store i64 %t.0, ptr %t.dbg.spill, align 8, !dbg !2867
  %7 = getelementptr inbounds i8, ptr %t.dbg.spill, i64 8, !dbg !2867
  store i64 %t.1, ptr %7, align 8, !dbg !2867
  call void @llvm.dbg.declare(metadata ptr %t.dbg.spill, metadata !2858, metadata !DIExpression()), !dbg !2868
  %8 = getelementptr inbounds %"core::result::Result<core::alloc::layout::Layout, alloc::collections::TryReserveErrorKind>::Ok", ptr %_0, i32 0, i32 1, !dbg !2869
  store i64 %t.0, ptr %8, align 8, !dbg !2869
  %9 = getelementptr inbounds i8, ptr %8, i64 8, !dbg !2869
  store i64 %t.1, ptr %9, align 8, !dbg !2869
  store i64 0, ptr %_0, align 8, !dbg !2869
  br label %bb7, !dbg !2870

bb1:                                              ; preds = %start
  store i8 0, ptr %_9, align 1, !dbg !2871
; call alloc::raw_vec::finish_grow::{{closure}}
  %10 = call { i64, i64 } @"_ZN5alloc7raw_vec11finish_grow28_$u7b$$u7b$closure$u7d$$u7d$17h74f64e31e1a38edfE"(), !dbg !2871
  %_6.0 = extractvalue { i64, i64 } %10, 0, !dbg !2871
  %_6.1 = extractvalue { i64, i64 } %10, 1, !dbg !2871
  %11 = getelementptr inbounds %"core::result::Result<core::alloc::layout::Layout, alloc::collections::TryReserveErrorKind>::Err", ptr %_0, i32 0, i32 1, !dbg !2872
  store i64 %_6.0, ptr %11, align 8, !dbg !2872
  %12 = getelementptr inbounds i8, ptr %11, i64 8, !dbg !2872
  store i64 %_6.1, ptr %12, align 8, !dbg !2872
  store i64 1, ptr %_0, align 8, !dbg !2872
  br label %bb7, !dbg !2873

bb7:                                              ; preds = %bb1, %bb3
  %13 = load i8, ptr %_9, align 1, !dbg !2874, !range !721, !noundef !168
  %14 = trunc i8 %13 to i1, !dbg !2874
  br i1 %14, label %bb6, label %bb5, !dbg !2874

bb5:                                              ; preds = %bb6, %bb7
  ret void, !dbg !2875

bb6:                                              ; preds = %bb7
  br label %bb5, !dbg !2874

bb2:                                              ; No predecessors!
  unreachable, !dbg !2865
}

; core::result::Result<T,E>::map_err
; Function Attrs: inlinehint nonlazybind uwtable
define { i64, i64 } @"_ZN4core6result19Result$LT$T$C$E$GT$7map_err17h919061a124cf3f56E"(i64 %0, i64 %1) unnamed_addr #0 !dbg !2876 {
start:
  %e.dbg.spill = alloca %"alloc::collections::TryReserveError", align 8
  %t.dbg.spill = alloca {}, align 1
  %op.dbg.spill = alloca %"{closure@alloc::raw_vec::handle_reserve::{closure#0}}", align 1
  %_9 = alloca i8, align 1
  %_8 = alloca { %"alloc::collections::TryReserveError" }, align 8
  %_0 = alloca %"core::result::Result<(), alloc::collections::TryReserveErrorKind>", align 8
  %self = alloca %"core::result::Result<(), alloc::collections::TryReserveError>", align 8
  store i64 %0, ptr %self, align 8
  %2 = getelementptr inbounds i8, ptr %self, i64 8
  store i64 %1, ptr %2, align 8
  call void @llvm.dbg.declare(metadata ptr %self, metadata !2913, metadata !DIExpression()), !dbg !2919
  call void @llvm.dbg.declare(metadata ptr %op.dbg.spill, metadata !2914, metadata !DIExpression()), !dbg !2920
  call void @llvm.dbg.declare(metadata ptr %t.dbg.spill, metadata !2915, metadata !DIExpression()), !dbg !2921
  store i8 1, ptr %_9, align 1, !dbg !2922
  %3 = load i64, ptr %self, align 8, !dbg !2922, !range !2923, !noundef !168
  %4 = icmp eq i64 %3, -9223372036854775807, !dbg !2922
  %_3 = select i1 %4, i64 0, i64 1, !dbg !2922
  %5 = icmp eq i64 %_3, 0, !dbg !2924
  br i1 %5, label %bb3, label %bb1, !dbg !2924

bb3:                                              ; preds = %start
  store i64 -9223372036854775807, ptr %_0, align 8, !dbg !2925
  br label %bb7, !dbg !2926

bb1:                                              ; preds = %start
  %e.0 = load i64, ptr %self, align 8, !dbg !2927, !range !722, !noundef !168
  %6 = getelementptr inbounds i8, ptr %self, i64 8, !dbg !2927
  %e.1 = load i64, ptr %6, align 8, !dbg !2927
  store i64 %e.0, ptr %e.dbg.spill, align 8, !dbg !2927
  %7 = getelementptr inbounds i8, ptr %e.dbg.spill, i64 8, !dbg !2927
  store i64 %e.1, ptr %7, align 8, !dbg !2927
  call void @llvm.dbg.declare(metadata ptr %e.dbg.spill, metadata !2917, metadata !DIExpression()), !dbg !2928
  store i8 0, ptr %_9, align 1, !dbg !2929
  store i64 %e.0, ptr %_8, align 8, !dbg !2929
  %8 = getelementptr inbounds i8, ptr %_8, i64 8, !dbg !2929
  store i64 %e.1, ptr %8, align 8, !dbg !2929
  %9 = load i64, ptr %_8, align 8, !dbg !2929, !range !722, !noundef !168
  %10 = getelementptr inbounds i8, ptr %_8, i64 8, !dbg !2929
  %11 = load i64, ptr %10, align 8, !dbg !2929
; call alloc::raw_vec::handle_reserve::{{closure}}
  %12 = call { i64, i64 } @"_ZN5alloc7raw_vec14handle_reserve28_$u7b$$u7b$closure$u7d$$u7d$17h2c23a39cca54f661E"(i64 %9, i64 %11), !dbg !2929
  %_6.0 = extractvalue { i64, i64 } %12, 0, !dbg !2929
  %_6.1 = extractvalue { i64, i64 } %12, 1, !dbg !2929
  store i64 %_6.0, ptr %_0, align 8, !dbg !2930
  %13 = getelementptr inbounds i8, ptr %_0, i64 8, !dbg !2930
  store i64 %_6.1, ptr %13, align 8, !dbg !2930
  br label %bb7, !dbg !2931

bb7:                                              ; preds = %bb1, %bb3
  %14 = load i8, ptr %_9, align 1, !dbg !2932, !range !721, !noundef !168
  %15 = trunc i8 %14 to i1, !dbg !2932
  br i1 %15, label %bb6, label %bb5, !dbg !2932

bb5:                                              ; preds = %bb6, %bb7
  %16 = load i64, ptr %_0, align 8, !dbg !2933, !range !2923, !noundef !168
  %17 = getelementptr inbounds i8, ptr %_0, i64 8, !dbg !2933
  %18 = load i64, ptr %17, align 8, !dbg !2933
  %19 = insertvalue { i64, i64 } poison, i64 %16, 0, !dbg !2933
  %20 = insertvalue { i64, i64 } %19, i64 %18, 1, !dbg !2933
  ret { i64, i64 } %20, !dbg !2933

bb6:                                              ; preds = %bb7
  br label %bb5, !dbg !2932

bb2:                                              ; No predecessors!
  unreachable, !dbg !2922
}

; <&T as core::convert::AsRef<U>>::as_ref
; Function Attrs: inlinehint nonlazybind uwtable
define { ptr, i64 } @"_ZN55_$LT$$RF$T$u20$as$u20$core..convert..AsRef$LT$U$GT$$GT$6as_ref17h681ee5986d81e939E"(ptr align 8 %self) unnamed_addr #0 !dbg !2934 {
start:
  %self.dbg.spill = alloca ptr, align 8
  store ptr %self, ptr %self.dbg.spill, align 8
  call void @llvm.dbg.declare(metadata ptr %self.dbg.spill, metadata !2940, metadata !DIExpression()), !dbg !2944
  %_2.0 = load ptr, ptr %self, align 8, !dbg !2945, !nonnull !168, !align !333, !noundef !168
  %0 = getelementptr inbounds i8, ptr %self, i64 8, !dbg !2945
  %_2.1 = load i64, ptr %0, align 8, !dbg !2945, !noundef !168
; call <std::path::Path as core::convert::AsRef<std::path::Path>>::as_ref
  %1 = call { ptr, i64 } @"_ZN79_$LT$std..path..Path$u20$as$u20$core..convert..AsRef$LT$std..path..Path$GT$$GT$6as_ref17hcf33bcca2863bb73E"(ptr align 1 %_2.0, i64 %_2.1), !dbg !2946
  %_0.0 = extractvalue { ptr, i64 } %1, 0, !dbg !2946
  %_0.1 = extractvalue { ptr, i64 } %1, 1, !dbg !2946
  %2 = insertvalue { ptr, i64 } poison, ptr %_0.0, 0, !dbg !2947
  %3 = insertvalue { ptr, i64 } %2, i64 %_0.1, 1, !dbg !2947
  ret { ptr, i64 } %3, !dbg !2947
}

; <&T as core::convert::AsRef<U>>::as_ref
; Function Attrs: inlinehint nonlazybind uwtable
define { ptr, i64 } @"_ZN55_$LT$$RF$T$u20$as$u20$core..convert..AsRef$LT$U$GT$$GT$6as_ref17h6ce6c7400490edc9E"(ptr align 8 %self) unnamed_addr #0 !dbg !2948 {
start:
  %self.dbg.spill = alloca ptr, align 8
  store ptr %self, ptr %self.dbg.spill, align 8
  call void @llvm.dbg.declare(metadata ptr %self.dbg.spill, metadata !2952, metadata !DIExpression()), !dbg !2955
  %_2.0 = load ptr, ptr %self, align 8, !dbg !2956, !nonnull !168, !align !333, !noundef !168
  %0 = getelementptr inbounds i8, ptr %self, i64 8, !dbg !2956
  %_2.1 = load i64, ptr %0, align 8, !dbg !2956, !noundef !168
; call std::ffi::os_str::<impl core::convert::AsRef<std::ffi::os_str::OsStr> for str>::as_ref
  %1 = call { ptr, i64 } @"_ZN3std3ffi6os_str85_$LT$impl$u20$core..convert..AsRef$LT$std..ffi..os_str..OsStr$GT$$u20$for$u20$str$GT$6as_ref17h4b9a7dfd981e781dE"(ptr align 1 %_2.0, i64 %_2.1), !dbg !2957
  %_0.0 = extractvalue { ptr, i64 } %1, 0, !dbg !2957
  %_0.1 = extractvalue { ptr, i64 } %1, 1, !dbg !2957
  %2 = insertvalue { ptr, i64 } poison, ptr %_0.0, 0, !dbg !2958
  %3 = insertvalue { ptr, i64 } %2, i64 %_0.1, 1, !dbg !2958
  ret { ptr, i64 } %3, !dbg !2958
}

; <&T as core::convert::AsRef<U>>::as_ref
; Function Attrs: inlinehint nonlazybind uwtable
define { ptr, i64 } @"_ZN55_$LT$$RF$T$u20$as$u20$core..convert..AsRef$LT$U$GT$$GT$6as_ref17ha191238fcf9263b4E"(ptr align 8 %self) unnamed_addr #0 !dbg !2959 {
start:
  %self.dbg.spill = alloca ptr, align 8
  store ptr %self, ptr %self.dbg.spill, align 8
  call void @llvm.dbg.declare(metadata ptr %self.dbg.spill, metadata !2961, metadata !DIExpression()), !dbg !2963
  %_2.0 = load ptr, ptr %self, align 8, !dbg !2964, !nonnull !168, !align !333, !noundef !168
  %0 = getelementptr inbounds i8, ptr %self, i64 8, !dbg !2964
  %_2.1 = load i64, ptr %0, align 8, !dbg !2964, !noundef !168
; call std::path::<impl core::convert::AsRef<std::path::Path> for str>::as_ref
  %1 = call { ptr, i64 } @"_ZN3std4path77_$LT$impl$u20$core..convert..AsRef$LT$std..path..Path$GT$$u20$for$u20$str$GT$6as_ref17h75fb459f11974c60E"(ptr align 1 %_2.0, i64 %_2.1), !dbg !2965
  %_0.0 = extractvalue { ptr, i64 } %1, 0, !dbg !2965
  %_0.1 = extractvalue { ptr, i64 } %1, 1, !dbg !2965
  %2 = insertvalue { ptr, i64 } poison, ptr %_0.0, 0, !dbg !2966
  %3 = insertvalue { ptr, i64 } %2, i64 %_0.1, 1, !dbg !2966
  ret { ptr, i64 } %3, !dbg !2966
}

; <&T as core::convert::AsRef<U>>::as_ref
; Function Attrs: inlinehint nonlazybind uwtable
define { ptr, i64 } @"_ZN55_$LT$$RF$T$u20$as$u20$core..convert..AsRef$LT$U$GT$$GT$6as_ref17haae3b1371396e716E"(ptr align 8 %self) unnamed_addr #0 !dbg !2967 {
start:
  %self.dbg.spill = alloca ptr, align 8
  store ptr %self, ptr %self.dbg.spill, align 8
  call void @llvm.dbg.declare(metadata ptr %self.dbg.spill, metadata !2972, metadata !DIExpression()), !dbg !2974
  %_2 = load ptr, ptr %self, align 8, !dbg !2975, !nonnull !168, !align !469, !noundef !168
; call <std::path::PathBuf as core::convert::AsRef<std::ffi::os_str::OsStr>>::as_ref
  %0 = call { ptr, i64 } @"_ZN90_$LT$std..path..PathBuf$u20$as$u20$core..convert..AsRef$LT$std..ffi..os_str..OsStr$GT$$GT$6as_ref17hab345cded15acae1E"(ptr align 8 %_2), !dbg !2976
  %_0.0 = extractvalue { ptr, i64 } %0, 0, !dbg !2976
  %_0.1 = extractvalue { ptr, i64 } %0, 1, !dbg !2976
  %1 = insertvalue { ptr, i64 } poison, ptr %_0.0, 0, !dbg !2977
  %2 = insertvalue { ptr, i64 } %1, i64 %_0.1, 1, !dbg !2977
  ret { ptr, i64 } %2, !dbg !2977
}

; <&T as core::convert::AsRef<U>>::as_ref
; Function Attrs: inlinehint nonlazybind uwtable
define { ptr, i64 } @"_ZN55_$LT$$RF$T$u20$as$u20$core..convert..AsRef$LT$U$GT$$GT$6as_ref17hdaa7e109d7728f77E"(ptr align 8 %self) unnamed_addr #0 !dbg !2978 {
start:
  %self.dbg.spill = alloca ptr, align 8
  store ptr %self, ptr %self.dbg.spill, align 8
  call void @llvm.dbg.declare(metadata ptr %self.dbg.spill, metadata !2983, metadata !DIExpression()), !dbg !2985
  %_2 = load ptr, ptr %self, align 8, !dbg !2986, !nonnull !168, !align !469, !noundef !168
; call <&T as core::convert::AsRef<U>>::as_ref
  %0 = call { ptr, i64 } @"_ZN55_$LT$$RF$T$u20$as$u20$core..convert..AsRef$LT$U$GT$$GT$6as_ref17ha191238fcf9263b4E"(ptr align 8 %_2), !dbg !2987
  %_0.0 = extractvalue { ptr, i64 } %0, 0, !dbg !2987
  %_0.1 = extractvalue { ptr, i64 } %0, 1, !dbg !2987
  %1 = insertvalue { ptr, i64 } poison, ptr %_0.0, 0, !dbg !2988
  %2 = insertvalue { ptr, i64 } %1, i64 %_0.1, 1, !dbg !2988
  ret { ptr, i64 } %2, !dbg !2988
}

; alloc::vec::Vec<T,A>::extend_desugared
; Function Attrs: nonlazybind uwtable
define void @"_ZN5alloc3vec16Vec$LT$T$C$A$GT$16extend_desugared17h0eec5024230877fbE"(ptr align 8 %self, ptr %0, ptr %1) unnamed_addr #1 personality ptr @rust_eh_personality !dbg !2989 {
start:
  %new_len.dbg.spill = alloca i64, align 8
  %dst.dbg.spill = alloca ptr, align 8
  %self.dbg.spill6 = alloca ptr, align 8
  %self.dbg.spill5 = alloca ptr, align 8
  %self.dbg.spill3 = alloca ptr, align 8
  %2 = alloca i64, align 8
  %lower.dbg.spill = alloca i64, align 8
  %self.dbg.spill1 = alloca ptr, align 8
  %len.dbg.spill = alloca i64, align 8
  %3 = alloca { ptr, i32, [1 x i32] }, align 8
  %self.dbg.spill = alloca ptr, align 8
  %src = alloca %"std::path::PathBuf", align 8
  %_11 = alloca { i64, %"core::option::Option<usize>" }, align 8
  %_9 = alloca i64, align 8
  %element = alloca %"std::path::PathBuf", align 8
  %_3 = alloca %"core::option::Option<std::path::PathBuf>", align 8
  %iterator = alloca %"core::iter::adapters::map::Map<core::iter::adapters::filter::Filter<core::iter::adapters::map::Map<core::slice::iter::Iter<'_, &str>, for<'a> fn(&'a &str) -> &'a std::path::Path {std::path::Path::new::<&str>}>, {closure@/users/zyuxuan/.cargo/registry/src/index.crates.io-6f17d22bba15001f/openssl-probe-0.1.5/src/lib.rs:44:35: 44:38}>, for<'a> fn(&'a std::path::Path) -> std::path::PathBuf {std::path::Path::to_path_buf}>", align 8
  %rhs.dbg.spill = alloca i64, align 8
  store i64 1, ptr %rhs.dbg.spill, align 8, !dbg !3003
  call void @llvm.dbg.declare(metadata ptr %rhs.dbg.spill, metadata !3009, metadata !DIExpression()), !dbg !3003
  store ptr %0, ptr %iterator, align 8, !dbg !3003
  %4 = getelementptr inbounds i8, ptr %iterator, i64 8, !dbg !3003
  store ptr %1, ptr %4, align 8, !dbg !3003
  store ptr %self, ptr %self.dbg.spill, align 8, !dbg !3003
  call void @llvm.dbg.declare(metadata ptr %self.dbg.spill, metadata !2995, metadata !DIExpression()), !dbg !3011
  call void @llvm.dbg.declare(metadata ptr %self.dbg.spill, metadata !3012, metadata !DIExpression()), !dbg !3017
  call void @llvm.dbg.declare(metadata ptr %self.dbg.spill, metadata !3019, metadata !DIExpression()), !dbg !3025
  call void @llvm.dbg.declare(metadata ptr %self.dbg.spill, metadata !3027, metadata !DIExpression()), !dbg !3031
  call void @llvm.dbg.declare(metadata ptr %self.dbg.spill, metadata !3033, metadata !DIExpression()), !dbg !3038
  call void @llvm.dbg.declare(metadata ptr %self.dbg.spill, metadata !3023, metadata !DIExpression()), !dbg !3040
  call void @llvm.dbg.declare(metadata ptr %iterator, metadata !2996, metadata !DIExpression()), !dbg !3042
