; ModuleID = 'socket2.12f0b0fc8491a94d-cgu.0'
source_filename = "socket2.12f0b0fc8491a94d-cgu.0"
target datalayout = "e-m:e-p270:32:32-p271:32:32-p272:64:64-i64:64-f80:128-n8:16:32:64-S128"
target triple = "x86_64-unknown-linux-gnu"

%"core::net::ip_addr::Ipv6Addr" = type { [16 x i8] }
%"<alloc::boxed::Box<(dyn core::error::Error + core::marker::Send + core::marker::Sync + 'static)> as core::convert::From<alloc::string::String>>::from::StringError" = type { %"alloc::string::String" }
%"alloc::string::String" = type { %"alloc::vec::Vec<u8>" }
%"alloc::vec::Vec<u8>" = type { %"alloc::raw_vec::RawVec<u8>", i64 }
%"alloc::raw_vec::RawVec<u8>" = type { i64, ptr, %"alloc::alloc::Global" }
%"alloc::alloc::Global" = type {}
%"core::result::Result<usize, std::io::error::Error>" = type { i64, [1 x i64] }
%"core::result::Result<usize, std::io::error::Error>::Err" = type { [1 x i64], ptr }
%"core::result::Result<(usize, RecvFlags, sockaddr::SockAddr), std::io::error::Error>" = type { i64, [19 x i64] }
%"core::result::Result<(usize, RecvFlags, sockaddr::SockAddr), std::io::error::Error>::Err" = type { [1 x i64], ptr }
%"core::result::Result<(usize, RecvFlags), std::io::error::Error>" = type { i64, [2 x i64] }
%"core::result::Result<(usize, RecvFlags), std::io::error::Error>::Err" = type { [1 x i64], ptr }
%"core::result::Result<sockaddr::SockAddr, std::io::error::Error>" = type { i64, [17 x i64] }
%"core::result::Result<sockaddr::SockAddr, std::io::error::Error>::Err" = type { [1 x i64], ptr }
%"core::ptr::metadata::PtrComponents<[u8]>" = type { ptr, i64 }
%"core::ptr::metadata::PtrRepr<[u8]>" = type { [2 x i64] }
%"std::io::error::ErrorData<alloc::boxed::Box<std::io::error::Custom>>" = type { i8, [15 x i8] }
%"{closure@<std::io::error::repr_bitpacked::Repr as core::ops::drop::Drop>::drop::{closure#0}}" = type {}
%"core::ptr::metadata::PtrComponents<()>" = type { ptr, {} }
%"core::ptr::metadata::PtrRepr<()>" = type { [1 x i64] }
%"core::fmt::rt::UnsafeArg" = type { {} }
%"core::fmt::rt::Count" = type { i64, [1 x i64] }
%"std::io::error::ErrorData<alloc::boxed::Box<std::io::error::Custom>>::Os" = type { [1 x i32], i32 }
%"std::io::error::ErrorData<alloc::boxed::Box<std::io::error::Custom>>::SimpleMessage" = type { [1 x i64], ptr }
%"std::io::error::ErrorData<alloc::boxed::Box<std::io::error::Custom>>::Simple" = type { [1 x i8], i8 }
%"std::io::error::ErrorData<alloc::boxed::Box<std::io::error::Custom>>::Custom" = type { [1 x i64], ptr }
%"std::io::error::ErrorData<&std::io::error::Custom>" = type { i8, [15 x i8] }
%"{closure@std::io::error::repr_bitpacked::Repr::data::{closure#0}}" = type {}
%"std::io::error::ErrorData<&std::io::error::Custom>::Os" = type { [1 x i32], i32 }
%"std::io::error::ErrorData<&std::io::error::Custom>::SimpleMessage" = type { [1 x i64], ptr }
%"std::io::error::ErrorData<&std::io::error::Custom>::Simple" = type { [1 x i8], i8 }
%"std::io::error::ErrorData<&std::io::error::Custom>::Custom" = type { [1 x i64], ptr }
%"core::option::Option<i32>" = type { i32, [1 x i32] }
%"std::io::error::SimpleMessage" = type { { ptr, i64 }, i8, [7 x i8] }
%"std::io::error::Custom" = type { %"alloc::boxed::Box<dyn core::error::Error + core::marker::Send + core::marker::Sync>", i8, [7 x i8] }
%"alloc::boxed::Box<dyn core::error::Error + core::marker::Send + core::marker::Sync>" = type { %"core::ptr::unique::Unique<dyn core::error::Error + core::marker::Send + core::marker::Sync>", %"alloc::alloc::Global" }
%"core::ptr::unique::Unique<dyn core::error::Error + core::marker::Send + core::marker::Sync>" = type { %"core::ptr::non_null::NonNull<dyn core::error::Error + core::marker::Send + core::marker::Sync>", %"core::marker::PhantomData<dyn core::error::Error + core::marker::Send + core::marker::Sync>" }
%"core::ptr::non_null::NonNull<dyn core::error::Error + core::marker::Send + core::marker::Sync>" = type { { ptr, ptr } }
%"core::marker::PhantomData<dyn core::error::Error + core::marker::Send + core::marker::Sync>" = type {}
%"core::option::Option<core::fmt::Arguments<'_>>" = type { ptr, [5 x i64] }
%"core::result::Result<std::os::unix::net::addr::SocketAddr, std::io::error::Error>" = type { i32, [29 x i32] }
%"core::result::Result<(libc::unix::linux_like::sockaddr_un, u32), std::io::error::Error>" = type { i32, [29 x i32] }
%"std::os::unix::net::addr::SocketAddr" = type { i32, %"libc::unix::linux_like::sockaddr_un", [1 x i16] }
%"libc::unix::linux_like::sockaddr_un" = type { i16, [108 x i8] }
%"{closure@std::os::unix::net::addr::SocketAddr::from_pathname<&std::path::Path>::{closure#0}}" = type {}
%"core::slice::iter::Iter<'_, core::mem::maybe_uninit::MaybeUninit<u8>>" = type { ptr, ptr, %"core::marker::PhantomData<&core::mem::maybe_uninit::MaybeUninit<u8>>" }
%"core::marker::PhantomData<&core::mem::maybe_uninit::MaybeUninit<u8>>" = type {}
%"core::fmt::builders::DebugList<'_, '_>" = type { %"core::fmt::builders::DebugInner<'_, '_>" }
%"core::fmt::builders::DebugInner<'_, '_>" = type { ptr, i8, i8, [6 x i8] }
%"core::fmt::Formatter<'_>" = type { %"core::option::Option<usize>", %"core::option::Option<usize>", { ptr, ptr }, i32, i32, i8, [7 x i8] }
%"core::option::Option<usize>" = type { i64, [1 x i64] }
%"core::fmt::Arguments<'_>" = type { { ptr, i64 }, { ptr, i64 }, %"core::option::Option<&[core::fmt::rt::Placeholder]>" }
%"core::option::Option<&[core::fmt::rt::Placeholder]>" = type { ptr, [1 x i64] }
%"core::mem::maybe_uninit::MaybeUninit<libc::unix::linux_like::sockaddr_storage>" = type { [16 x i64] }
%"core::net::socket_addr::SocketAddrV4" = type { %"core::net::ip_addr::Ipv4Addr", i16 }
%"core::net::ip_addr::Ipv4Addr" = type { [4 x i8] }
%"core::net::socket_addr::SocketAddrV6" = type { %"core::net::ip_addr::Ipv6Addr", i32, i32, i16, [1 x i16] }
%"core::result::Result<socket::Socket, std::io::error::Error>" = type { i32, [3 x i32] }
%"core::result::Result<socket::Socket, std::io::error::Error>::Ok" = type { [1 x i32], i32 }
%"libc::unix::timeval" = type { i64, i64 }
%"libc::unix::linux_like::in_addr" = type { i32 }
%"libc::unix::linger" = type { i32, i32 }
%"core::result::Result<i32, std::io::error::Error>::Err" = type { [1 x i64], ptr }
%"{closure@/users/zyuxuan/.cargo/registry/src/index.crates.io-6f17d22bba15001f/socket2-0.5.6/src/sys/unix.rs:818:90: 818:92}" = type { ptr, ptr }
%"core::option::Option<&std::path::Path>" = type { ptr, [1 x i64] }
%"{closure@/users/zyuxuan/.cargo/registry/src/index.crates.io-6f17d22bba15001f/socket2-0.5.6/src/sys/unix.rs:837:27: 837:29}" = type { ptr, ptr }
%"core::option::Option<&[u8]>" = type { ptr, [1 x i64] }
%"core::time::Duration" = type { i64, i32, [1 x i32] }
%"core::option::Option<u64>" = type { i64, [1 x i64] }
%"core::option::Option<core::time::Duration>" = type { [2 x i32], i32, [1 x i32] }
%"core::alloc::layout::Layout" = type { i64, i64 }
%"core::result::Result<core::alloc::layout::Layout, core::alloc::layout::LayoutError>" = type { i64, [1 x i64] }
%"core::error::private::Internal" = type {}
%"core::ptr::metadata::PtrComponents<[core::mem::maybe_uninit::MaybeUninit<u8>]>" = type { ptr, i64 }
%"core::ptr::metadata::PtrRepr<[core::mem::maybe_uninit::MaybeUninit<u8>]>" = type { [2 x i64] }
%"{closure@/users/zyuxuan/.cargo/registry/src/index.crates.io-6f17d22bba15001f/socket2-0.5.6/src/socket.rs:141:43: 141:46}" = type {}
%"core::option::Option<Protocol>" = type { i32, [1 x i32] }
%"core::option::Option<sockaddr::SockAddr>" = type { i64, [17 x i64] }
%"sockaddr::SockAddr" = type { %"libc::unix::linux_like::sockaddr_storage", i32, [1 x i32] }
%"libc::unix::linux_like::sockaddr_storage" = type { i16, [118 x i8], i64 }
%"core::result::Result<sockaddr::SockAddr, std::io::error::Error>::Ok" = type { [1 x i64], %"sockaddr::SockAddr" }
%"core::option::Option<sockaddr::SockAddr>::Some" = type { [1 x i64], %"sockaddr::SockAddr" }
%"core::result::Result<bool, std::io::error::Error>" = type { i8, [15 x i8] }
%"{closure@/users/zyuxuan/.cargo/registry/src/index.crates.io-6f17d22bba15001f/socket2-0.5.6/src/socket.rs:886:22: 886:33}" = type {}
%"core::result::Result<i32, std::io::error::Error>::Ok" = type { [1 x i32], i32 }
%"core::result::Result<bool, std::io::error::Error>::Ok" = type { [1 x i8], i8 }
%"core::result::Result<bool, std::io::error::Error>::Err" = type { [1 x i64], ptr }
%"core::result::Result<libc::unix::timeval, std::io::error::Error>" = type { i64, [2 x i64] }
%"{closure@/users/zyuxuan/.cargo/registry/src/index.crates.io-6f17d22bba15001f/socket2-0.5.6/src/sys/unix.rs:1274:10: 1274:13}" = type { ptr, %"core::mem::maybe_uninit::MaybeUninit<libc::unix::timeval>" }
%"core::mem::maybe_uninit::MaybeUninit<libc::unix::timeval>" = type { [2 x i64] }
%"core::result::Result<libc::unix::timeval, std::io::error::Error>::Ok" = type { [1 x i64], %"libc::unix::timeval" }
%"core::result::Result<libc::unix::timeval, std::io::error::Error>::Err" = type { [1 x i64], ptr }
%"core::result::Result<u32, std::io::error::Error>" = type { i32, [3 x i32] }
%"{closure@/users/zyuxuan/.cargo/registry/src/index.crates.io-6f17d22bba15001f/socket2-0.5.6/src/socket.rs:1744:22: 1744:33}" = type {}
%"core::result::Result<u32, std::io::error::Error>::Ok" = type { [1 x i32], i32 }
%"core::result::Result<u32, std::io::error::Error>::Err" = type { [1 x i64], ptr }
%"{closure@/users/zyuxuan/.cargo/registry/src/index.crates.io-6f17d22bba15001f/socket2-0.5.6/src/sys/unix.rs:995:10: 995:13}" = type {}
%"core::result::Result<isize, std::io::error::Error>::Ok" = type { [1 x i64], i64 }
%"core::result::Result<usize, std::io::error::Error>::Ok" = type { [1 x i64], i64 }
%"core::result::Result<isize, std::io::error::Error>::Err" = type { [1 x i64], ptr }
%"core::result::Result<libc::unix::linux_like::in_addr, std::io::error::Error>" = type { i32, [3 x i32] }
%"{closure@/users/zyuxuan/.cargo/registry/src/index.crates.io-6f17d22bba15001f/socket2-0.5.6/src/sys/unix.rs:1274:10: 1274:13}.0" = type { ptr, %"core::mem::maybe_uninit::MaybeUninit<libc::unix::linux_like::in_addr>", [1 x i32] }
%"core::mem::maybe_uninit::MaybeUninit<libc::unix::linux_like::in_addr>" = type { [1 x i32] }
%"core::result::Result<libc::unix::linux_like::in_addr, std::io::error::Error>::Ok" = type { [1 x i32], %"libc::unix::linux_like::in_addr" }
%"core::result::Result<libc::unix::linux_like::in_addr, std::io::error::Error>::Err" = type { [1 x i64], ptr }
%"{closure@/users/zyuxuan/.cargo/registry/src/index.crates.io-6f17d22bba15001f/socket2-0.5.6/src/sys/unix.rs:1296:10: 1296:13}" = type {}
%"core::result::Result<socket::Socket, std::io::error::Error>::Err" = type { [1 x i64], ptr }
%"{closure@/users/zyuxuan/.cargo/registry/src/index.crates.io-6f17d22bba15001f/socket2-0.5.6/src/sys/unix.rs:1111:50: 1111:53}" = type {}
%"{closure@/users/zyuxuan/.cargo/registry/src/index.crates.io-6f17d22bba15001f/socket2-0.5.6/src/sys/unix.rs:1296:10: 1296:13}.1" = type {}
%"core::result::Result<core::option::Option<core::time::Duration>, std::io::error::Error>" = type { [2 x i32], i32, [1 x i32] }
%"core::result::Result<i32, std::io::error::Error>" = type { i32, [3 x i32] }
%"{closure@/users/zyuxuan/.cargo/registry/src/index.crates.io-6f17d22bba15001f/socket2-0.5.6/src/sys/unix.rs:1274:10: 1274:13}.2" = type { ptr, i32, [1 x i32] }
%"{closure@/users/zyuxuan/.cargo/registry/src/index.crates.io-6f17d22bba15001f/socket2-0.5.6/src/socket.rs:1554:82: 1554:87}" = type {}
%"{closure@/users/zyuxuan/.cargo/registry/src/index.crates.io-6f17d22bba15001f/socket2-0.5.6/src/socket.rs:1047:22: 1047:28}" = type {}
%"{closure@/users/zyuxuan/.cargo/registry/src/index.crates.io-6f17d22bba15001f/socket2-0.5.6/src/socket.rs:2081:22: 2081:31}" = type {}
%"{closure@/users/zyuxuan/.cargo/registry/src/index.crates.io-6f17d22bba15001f/socket2-0.5.6/src/socket.rs:1867:22: 1867:35}" = type {}
%"{closure@/users/zyuxuan/.cargo/registry/src/index.crates.io-6f17d22bba15001f/socket2-0.5.6/src/sys/unix.rs:1095:10: 1095:13}" = type {}
%"core::result::Result<Type, std::io::error::Error>" = type { i32, [3 x i32] }
%"core::result::Result<Type, std::io::error::Error>::Ok" = type { [1 x i32], i32 }
%"core::result::Result<Type, std::io::error::Error>::Err" = type { [1 x i64], ptr }
%"{closure@/users/zyuxuan/.cargo/registry/src/index.crates.io-6f17d22bba15001f/socket2-0.5.6/src/sys/unix.rs:875:58: 875:61}" = type {}
%"{closure@/users/zyuxuan/.cargo/registry/src/index.crates.io-6f17d22bba15001f/socket2-0.5.6/src/socket.rs:1612:22: 1612:32}" = type {}
%"core::result::Result<core::net::ip_addr::Ipv4Addr, std::io::error::Error>" = type { i8, [15 x i8] }
%"core::result::Result<core::net::ip_addr::Ipv4Addr, std::io::error::Error>::Ok" = type { [1 x i8], %"core::net::ip_addr::Ipv4Addr" }
%"core::result::Result<core::net::ip_addr::Ipv4Addr, std::io::error::Error>::Err" = type { [1 x i64], ptr }
%"core::result::Result<(i32, sockaddr::SockAddr), std::io::error::Error>" = type { i64, [18 x i64] }
%"{closure@/users/zyuxuan/.cargo/registry/src/index.crates.io-6f17d22bba15001f/socket2-0.5.6/src/sockaddr.rs:134:50: 134:55}" = type { ptr, ptr }
%"core::result::Result<(i32, sockaddr::SockAddr), std::io::error::Error>::Ok" = type { [1 x i64], { i32, [1 x i32], %"sockaddr::SockAddr" } }
%"core::result::Result<(i32, sockaddr::SockAddr), std::io::error::Error>::Err" = type { [1 x i64], ptr }
%"{closure@/users/zyuxuan/.cargo/registry/src/index.crates.io-6f17d22bba15001f/socket2-0.5.6/src/sys/unix.rs:1014:18: 1014:21}" = type {}
%"{closure@/users/zyuxuan/.cargo/registry/src/index.crates.io-6f17d22bba15001f/socket2-0.5.6/src/socket.rs:1823:22: 1823:31}" = type {}
%"{closure@/users/zyuxuan/.cargo/registry/src/index.crates.io-6f17d22bba15001f/socket2-0.5.6/src/socket.rs:976:22: 976:28}" = type {}
%"{closure@/users/zyuxuan/.cargo/registry/src/index.crates.io-6f17d22bba15001f/socket2-0.5.6/src/socket.rs:945:22: 945:34}" = type {}
%"{closure@/users/zyuxuan/.cargo/registry/src/index.crates.io-6f17d22bba15001f/socket2-0.5.6/src/socket.rs:1679:22: 1679:28}" = type {}
%"{closure@/users/zyuxuan/.cargo/registry/src/index.crates.io-6f17d22bba15001f/socket2-0.5.6/src/socket.rs:2119:38: 2119:46}" = type {}
%"core::result::Result<(usize, RecvFlags), std::io::error::Error>::Ok" = type { [1 x i64], { i64, i32, [1 x i32] } }
%"{closure@/users/zyuxuan/.cargo/registry/src/index.crates.io-6f17d22bba15001f/socket2-0.5.6/src/sockaddr.rs:134:50: 134:55}.3" = type { ptr, ptr }
%"{closure@/users/zyuxuan/.cargo/registry/src/index.crates.io-6f17d22bba15001f/socket2-0.5.6/src/socket.rs:1507:82: 1507:87}" = type {}
%"{closure@/users/zyuxuan/.cargo/registry/src/index.crates.io-6f17d22bba15001f/socket2-0.5.6/src/sys/unix.rs:1296:10: 1296:13}.4" = type {}
%"core::result::Result<libc::unix::linger, std::io::error::Error>::Ok" = type { [1 x i32], %"libc::unix::linger" }
%"core::result::Result<libc::unix::linger, std::io::error::Error>::Err" = type { [1 x i64], ptr }
%"{closure@/users/zyuxuan/.cargo/registry/src/index.crates.io-6f17d22bba15001f/socket2-0.5.6/src/socket.rs:1451:22: 1451:31}" = type {}
%"{closure@/users/zyuxuan/.cargo/registry/src/index.crates.io-6f17d22bba15001f/socket2-0.5.6/src/sys/unix.rs:1296:10: 1296:13}.5" = type {}
%"{closure@/users/zyuxuan/.cargo/registry/src/index.crates.io-6f17d22bba15001f/socket2-0.5.6/src/socket.rs:1019:22: 1019:29}" = type {}
%"core::result::Result<(socket::Socket, sockaddr::SockAddr), std::io::error::Error>" = type { i32, [35 x i32] }
%"{closure@/users/zyuxuan/.cargo/registry/src/index.crates.io-6f17d22bba15001f/socket2-0.5.6/src/sockaddr.rs:134:50: 134:55}.6" = type { ptr, ptr }
%"core::result::Result<(socket::Socket, sockaddr::SockAddr), std::io::error::Error>::Err" = type { [1 x i64], ptr }
%"core::result::Result<(libc::unix::linux_like::sockaddr_un, u32), std::io::error::Error>::Ok" = type { [1 x i32], { %"libc::unix::linux_like::sockaddr_un", [1 x i16], i32 } }
%"core::result::Result<std::os::unix::net::addr::SocketAddr, std::io::error::Error>::Ok" = type { [1 x i32], %"std::os::unix::net::addr::SocketAddr" }
%"core::result::Result<(libc::unix::linux_like::sockaddr_un, u32), std::io::error::Error>::Err" = type { [1 x i64], ptr }
%"core::result::Result<std::os::unix::net::addr::SocketAddr, std::io::error::Error>::Err" = type { [1 x i64], ptr }
%"{closure@/users/zyuxuan/.cargo/registry/src/index.crates.io-6f17d22bba15001f/socket2-0.5.6/src/sys/unix.rs:1296:10: 1296:13}.7" = type {}
%"{closure@/users/zyuxuan/.cargo/registry/src/index.crates.io-6f17d22bba15001f/socket2-0.5.6/src/sys/unix.rs:871:60: 871:63}" = type {}
%"{closure@/users/zyuxuan/.cargo/registry/src/index.crates.io-6f17d22bba15001f/socket2-0.5.6/src/sys/unix.rs:1243:47: 1243:50}" = type {}
%"{closure@/users/zyuxuan/.cargo/registry/src/index.crates.io-6f17d22bba15001f/socket2-0.5.6/src/socket.rs:2134:38: 2134:46}" = type {}
%"{closure@/users/zyuxuan/.cargo/registry/src/index.crates.io-6f17d22bba15001f/socket2-0.5.6/src/sys/unix.rs:1296:10: 1296:13}.8" = type {}
%"{closure@/users/zyuxuan/.cargo/registry/src/index.crates.io-6f17d22bba15001f/socket2-0.5.6/src/socket.rs:846:22: 846:33}" = type {}
%"{closure@/users/zyuxuan/.cargo/registry/src/index.crates.io-6f17d22bba15001f/socket2-0.5.6/src/sys/unix.rs:1296:10: 1296:13}.9" = type {}
%"{closure@/users/zyuxuan/.cargo/registry/src/index.crates.io-6f17d22bba15001f/socket2-0.5.6/src/sys/unix.rs:938:14: 938:25}" = type {}
%"{closure@/users/zyuxuan/.cargo/registry/src/index.crates.io-6f17d22bba15001f/socket2-0.5.6/src/sys/unix.rs:985:37: 985:40}" = type {}
%"core::result::Result<libc::unix::linger, std::io::error::Error>" = type { i32, [3 x i32] }
%"{closure@/users/zyuxuan/.cargo/registry/src/index.crates.io-6f17d22bba15001f/socket2-0.5.6/src/sys/unix.rs:1274:10: 1274:13}.10" = type { ptr, %"core::mem::maybe_uninit::MaybeUninit<libc::unix::linger>" }
%"core::mem::maybe_uninit::MaybeUninit<libc::unix::linger>" = type { [2 x i32] }
%"{closure@/users/zyuxuan/.cargo/registry/src/index.crates.io-6f17d22bba15001f/socket2-0.5.6/src/socket.rs:1797:22: 1797:28}" = type {}
%"{closure@/users/zyuxuan/.cargo/registry/src/index.crates.io-6f17d22bba15001f/socket2-0.5.6/src/sockaddr.rs:134:50: 134:55}.11" = type { ptr, ptr }
%"{closure@/users/zyuxuan/.cargo/registry/src/index.crates.io-6f17d22bba15001f/socket2-0.5.6/src/sys/unix.rs:1067:54: 1067:57}" = type {}
%"{closure@/users/zyuxuan/.cargo/registry/src/index.crates.io-6f17d22bba15001f/socket2-0.5.6/src/sys/unix.rs:932:14: 932:25}" = type {}
%"{closure@/users/zyuxuan/.cargo/registry/src/index.crates.io-6f17d22bba15001f/socket2-0.5.6/src/sys/unix.rs:921:39: 921:42}" = type {}
%"core::result::Result<(usize, sockaddr::SockAddr), std::io::error::Error>" = type { i64, [18 x i64] }
%"{closure@/users/zyuxuan/.cargo/registry/src/index.crates.io-6f17d22bba15001f/socket2-0.5.6/src/sockaddr.rs:134:50: 134:55}.12" = type { ptr, ptr }
%"core::result::Result<(usize, sockaddr::SockAddr), std::io::error::Error>::Ok" = type { [1 x i64], { i64, %"sockaddr::SockAddr" } }
%"core::result::Result<(usize, sockaddr::SockAddr), std::io::error::Error>::Err" = type { [1 x i64], ptr }
%"{closure@/users/zyuxuan/.cargo/registry/src/index.crates.io-6f17d22bba15001f/socket2-0.5.6/src/socket.rs:1478:22: 1478:27}" = type {}
%"{closure@/users/zyuxuan/.cargo/registry/src/index.crates.io-6f17d22bba15001f/socket2-0.5.6/src/sys/unix.rs:1256:47: 1256:50}" = type {}
%"{closure@/users/zyuxuan/.cargo/registry/src/index.crates.io-6f17d22bba15001f/socket2-0.5.6/src/socket.rs:306:40: 306:55}" = type {}
%"{closure@/users/zyuxuan/.cargo/registry/src/index.crates.io-6f17d22bba15001f/socket2-0.5.6/src/sys/unix.rs:1296:10: 1296:13}.13" = type {}
%"{closure@/users/zyuxuan/.cargo/registry/src/index.crates.io-6f17d22bba15001f/socket2-0.5.6/src/socket.rs:1772:22: 1772:31}" = type {}
%"{closure@/users/zyuxuan/.cargo/registry/src/index.crates.io-6f17d22bba15001f/socket2-0.5.6/src/sys/unix.rs:1077:10: 1077:13}" = type {}
%"{closure@/users/zyuxuan/.cargo/registry/src/index.crates.io-6f17d22bba15001f/socket2-0.5.6/src/sockaddr.rs:134:50: 134:55}.14" = type { ptr, ptr }
%"core::ptr::non_null::NonNull<[u8]>" = type { { ptr, i64 } }
%"core::result::Result<core::ptr::non_null::NonNull<[u8]>, core::alloc::AllocError>" = type { ptr, [1 x i64] }
%"core::alloc::AllocError" = type {}
%"core::result::Result<core::convert::Infallible, core::alloc::AllocError>::Err" = type { %"core::alloc::AllocError" }
%"alloc::collections::TryReserveErrorKind" = type { i64, [1 x i64] }
%"core::option::Option<(core::ptr::non_null::NonNull<u8>, core::alloc::layout::Layout)>" = type { [1 x i64], i64, [1 x i64] }
%"core::ops::control_flow::ControlFlow<core::option::Option<core::convert::Infallible>, &std::path::Path>" = type { ptr, [1 x i64] }
%"core::ops::control_flow::ControlFlow<core::result::Result<core::convert::Infallible, std::io::error::Error>, (usize, sockaddr::SockAddr)>" = type { i64, [18 x i64] }
%"core::ops::control_flow::ControlFlow<core::result::Result<core::convert::Infallible, std::io::error::Error>, (usize, sockaddr::SockAddr)>::Continue" = type { [1 x i64], { i64, %"sockaddr::SockAddr" } }
%"core::ops::control_flow::ControlFlow<core::result::Result<core::convert::Infallible, std::io::error::Error>, (usize, sockaddr::SockAddr)>::Break" = type { [1 x i64], ptr }
%"core::ops::control_flow::ControlFlow<core::result::Result<core::convert::Infallible, std::io::error::Error>, usize>" = type { i64, [1 x i64] }
%"core::ops::control_flow::ControlFlow<core::result::Result<core::convert::Infallible, std::io::error::Error>, usize>::Continue" = type { [1 x i64], i64 }
%"core::ops::control_flow::ControlFlow<core::result::Result<core::convert::Infallible, std::io::error::Error>, usize>::Break" = type { [1 x i64], ptr }
%"core::ops::control_flow::ControlFlow<core::result::Result<core::convert::Infallible, std::io::error::Error>, i32>" = type { i32, [3 x i32] }
%"core::ops::control_flow::ControlFlow<core::result::Result<core::convert::Infallible, std::io::error::Error>, i32>::Continue" = type { [1 x i32], i32 }
%"core::ops::control_flow::ControlFlow<core::result::Result<core::convert::Infallible, std::io::error::Error>, i32>::Break" = type { [1 x i64], ptr }
%"core::option::Option<std::os::unix::net::addr::SocketAddr>" = type { i32, [29 x i32] }
%"core::option::Option<core::convert::Infallible>::None" = type {}
%"{closure@/users/zyuxuan/.cargo/registry/src/index.crates.io-6f17d22bba15001f/socket2-0.5.6/src/sys/unix.rs:1049:28: 1049:42}" = type { ptr, ptr, ptr }
%"{closure@/users/zyuxuan/.cargo/registry/src/index.crates.io-6f17d22bba15001f/socket2-0.5.6/src/sys/unix.rs:1408:32: 1408:46}" = type { ptr, ptr }
%"{closure@/users/zyuxuan/.cargo/registry/src/index.crates.io-6f17d22bba15001f/socket2-0.5.6/src/sys/unix.rs:1005:28: 1005:43}" = type { ptr, { ptr, i64 }, ptr }
%"core::mem::manually_drop::ManuallyDrop<libc::unix::linux_like::sockaddr_storage>" = type { %"libc::unix::linux_like::sockaddr_storage" }
%"core::option::Option<core::net::socket_addr::SocketAddr>" = type { i16, [15 x i16] }
%"core::net::socket_addr::SocketAddr" = type { i16, [15 x i16] }
%"libc::unix::align::in6_addr" = type { [16 x i8] }
%"libc::unix::linux_like::sockaddr_in" = type { i16, i16, %"libc::unix::linux_like::in_addr", [8 x i8] }
%"core::net::socket_addr::SocketAddr::V4" = type { [1 x i16], %"core::net::socket_addr::SocketAddrV4" }
%"libc::unix::linux_like::sockaddr_in6" = type { i16, i16, i32, %"libc::unix::align::in6_addr", i32 }
%"core::net::socket_addr::SocketAddr::V6" = type { [1 x i32], %"core::net::socket_addr::SocketAddrV6" }
%"core::option::Option<core::net::socket_addr::SocketAddrV4>" = type { i16, [3 x i16] }
%"core::option::Option<core::net::socket_addr::SocketAddrV4>::Some" = type { [1 x i16], %"core::net::socket_addr::SocketAddrV4" }
%"core::option::Option<core::net::socket_addr::SocketAddrV6>" = type { i32, [7 x i32] }
%"core::option::Option<core::net::socket_addr::SocketAddrV6>::Some" = type { [1 x i32], %"core::net::socket_addr::SocketAddrV6" }
%"core::fmt::builders::DebugStruct<'_, '_>" = type { ptr, i8, i8, [6 x i8] }
%"core::result::Result<core::option::Option<std::io::error::Error>, std::io::error::Error>" = type { i64, [1 x i64] }
%"libc::unix::linux_like::ip_mreq" = type { %"libc::unix::linux_like::in_addr", %"libc::unix::linux_like::in_addr" }
%"libc::unix::linux_like::ip_mreqn" = type { %"libc::unix::linux_like::in_addr", %"libc::unix::linux_like::in_addr", i32 }
%"libc::unix::linux_like::ip_mreq_source" = type { %"libc::unix::linux_like::in_addr", %"libc::unix::linux_like::in_addr", %"libc::unix::linux_like::in_addr" }
%"libc::unix::ipv6_mreq" = type { %"libc::unix::align::in6_addr", i32 }
%"libc::unix::iovec" = type { ptr, i64 }
%"sys::MaybeUninitSlice<'_>" = type { %"libc::unix::iovec", %"core::marker::PhantomData<&mut [core::mem::maybe_uninit::MaybeUninit<u8>]>" }
%"core::marker::PhantomData<&mut [core::mem::maybe_uninit::MaybeUninit<u8>]>" = type {}
%"libc::unix::linux_like::sockaddr_un.15" = type { i16, [108 x i8] }
%"libc::unix::linux_like::linux::gnu::msghdr" = type { ptr, i32, [1 x i32], ptr, i64, ptr, i64, i32, [1 x i32] }
%"core::option::Option<std::os::unix::net::addr::SocketAddr>::Some" = type { [1 x i32], %"std::os::unix::net::addr::SocketAddr" }
%"libc::unix::pollfd" = type { i32, i16, i16 }
%"std::time::Instant" = type { %"std::sys::pal::unix::time::Instant" }
%"std::sys::pal::unix::time::Instant" = type { %"std::sys::pal::unix::time::Timespec" }
%"std::sys::pal::unix::time::Timespec" = type { i64, i32, [1 x i32] }
%"core::result::Result<isize, std::io::error::Error>" = type { i64, [1 x i64] }
%"MsgHdrMut<'_, '_, '_>" = type { %"libc::unix::linux_like::linux::gnu::msghdr", %"core::marker::PhantomData<(&mut sockaddr::SockAddr, &mut MaybeUninitSlice<'_>, &mut [u8])>" }
%"core::marker::PhantomData<(&mut sockaddr::SockAddr, &mut MaybeUninitSlice<'_>, &mut [u8])>" = type {}
%"core::result::Result<(usize, RecvFlags, sockaddr::SockAddr), std::io::error::Error>::Ok" = type { [1 x i64], { i64, i32, [1 x i32], %"sockaddr::SockAddr" } }
%"MsgHdr<'_, '_, '_>" = type { %"libc::unix::linux_like::linux::gnu::msghdr", %"core::marker::PhantomData<(&sockaddr::SockAddr, &std::io::IoSlice<'_>, &[u8])>" }
%"core::marker::PhantomData<(&sockaddr::SockAddr, &std::io::IoSlice<'_>, &[u8])>" = type {}
%TcpKeepalive = type { %"core::option::Option<u32>", %"core::option::Option<core::time::Duration>", %"core::option::Option<core::time::Duration>" }
%"core::option::Option<u32>" = type { i32, [1 x i32] }
%"core::mem::manually_drop::ManuallyDrop<libc::unix::linux_like::in_addr>" = type { %"libc::unix::linux_like::in_addr" }
%"core::mem::manually_drop::ManuallyDrop<libc::unix::timeval>" = type { %"libc::unix::timeval" }
%"core::mem::manually_drop::ManuallyDrop<libc::unix::linger>" = type { %"libc::unix::linger" }
%"socket::InterfaceIndexOrAddress::Index" = type { [1 x i32], i32 }
%"socket::InterfaceIndexOrAddress::Address" = type { [1 x i8], %"core::net::ip_addr::Ipv4Addr" }
%"MaybeUninitSlice<'_>" = type { %"sys::MaybeUninitSlice<'_>" }
%"core::mem::manually_drop::ManuallyDrop<libc::unix::linux_like::linux::gnu::msghdr>" = type { %"libc::unix::linux_like::linux::gnu::msghdr" }
%"core::mem::maybe_uninit::MaybeUninit<libc::unix::linux_like::linux::gnu::msghdr>" = type { [7 x i64] }
%"core::fmt::rt::Argument<'_>" = type { ptr, ptr }

@alloc_c744034eae1afd8407cd6981b7d89e88 = private unnamed_addr constant <{ ptr, [16 x i8], ptr }> <{ ptr @"_ZN4core3ptr205drop_in_place$LT$$LT$alloc..boxed..Box$LT$dyn$u20$core..error..Error$u2b$core..marker..Send$u2b$core..marker..Sync$GT$$u20$as$u20$core..convert..From$LT$alloc..string..String$GT$$GT$..from..StringError$GT$17h913f27c63263b171E", [16 x i8] c"\18\00\00\00\00\00\00\00\08\00\00\00\00\00\00\00", ptr @"_ZN223_$LT$$LT$alloc..boxed..Box$LT$dyn$u20$core..error..Error$u2b$core..marker..Send$u2b$core..marker..Sync$GT$$u20$as$u20$core..convert..From$LT$alloc..string..String$GT$$GT$..from..StringError$u20$as$u20$core..fmt..Display$GT$3fmt17hb866d425ead18f4eE" }>, align 8
@vtable.0 = private constant <{ ptr, [16 x i8], ptr, ptr, ptr, ptr, ptr, ptr, ptr, ptr }> <{ ptr @"_ZN4core3ptr205drop_in_place$LT$$LT$alloc..boxed..Box$LT$dyn$u20$core..error..Error$u2b$core..marker..Send$u2b$core..marker..Sync$GT$$u20$as$u20$core..convert..From$LT$alloc..string..String$GT$$GT$..from..StringError$GT$17h913f27c63263b171E", [16 x i8] c"\18\00\00\00\00\00\00\00\08\00\00\00\00\00\00\00", ptr @"_ZN221_$LT$$LT$alloc..boxed..Box$LT$dyn$u20$core..error..Error$u2b$core..marker..Send$u2b$core..marker..Sync$GT$$u20$as$u20$core..convert..From$LT$alloc..string..String$GT$$GT$..from..StringError$u20$as$u20$core..fmt..Debug$GT$3fmt17hb5f052e2cf0b6edaE", ptr @"_ZN223_$LT$$LT$alloc..boxed..Box$LT$dyn$u20$core..error..Error$u2b$core..marker..Send$u2b$core..marker..Sync$GT$$u20$as$u20$core..convert..From$LT$alloc..string..String$GT$$GT$..from..StringError$u20$as$u20$core..fmt..Display$GT$3fmt17hb866d425ead18f4eE", ptr @alloc_c744034eae1afd8407cd6981b7d89e88, ptr @_ZN4core5error5Error6source17h8e7f0b0fd42be90bE, ptr @_ZN4core5error5Error7type_id17h1abdaf10148cc2b5E, ptr @"_ZN223_$LT$$LT$alloc..boxed..Box$LT$dyn$u20$core..error..Error$u2b$core..marker..Send$u2b$core..marker..Sync$GT$$u20$as$u20$core..convert..From$LT$alloc..string..String$GT$$GT$..from..StringError$u20$as$u20$core..error..Error$GT$11description17h0add4d2966eec15aE", ptr @_ZN4core5error5Error5cause17hcbc863fe4b35f859E, ptr @_ZN4core5error5Error7provide17hdc6230c35c056fffE }>, align 8, !dbg !0
@0 = private unnamed_addr constant <{ [8 x i8], [8 x i8] }> <{ [8 x i8] c"\02\00\00\00\00\00\00\00", [8 x i8] undef }>, align 8
@1 = private unnamed_addr constant <{ [16 x i8] }> <{ [16 x i8] c"\00\00\00\00\00\00\00\00\12\00\00\00\00\00\00\00" }>, align 8
@alloc_a500d906b91607583596fa15e63c2ada = private unnamed_addr constant <{ [40 x i8] }> <{ [40 x i8] c"internal error: entered unreachable code" }>, align 1
@alloc_4dc3c9a7f2fb38379b849190ec5adafd = private unnamed_addr constant <{ [90 x i8] }> <{ [90 x i8] c"/rustc/aedd173a2c086e558c2b66d3743b344f977621a7/library/std/src/io/error/repr_bitpacked.rs" }>, align 1
@alloc_5f9ca26e4863825896f7978e113f791b = private unnamed_addr constant <{ ptr, [16 x i8] }> <{ ptr @alloc_4dc3c9a7f2fb38379b849190ec5adafd, [16 x i8] c"Z\00\00\00\00\00\00\00\17\01\00\00\0D\00\00\00" }>, align 8
@2 = private unnamed_addr constant <{ [4 x i8], [4 x i8] }> <{ [4 x i8] zeroinitializer, [4 x i8] undef }>, align 4
@alloc_4197f4c4e983c7e9fc0ec93d81a7f19b = private unnamed_addr constant <{ [75 x i8] }> <{ [75 x i8] c"/rustc/aedd173a2c086e558c2b66d3743b344f977621a7/library/std/src/io/error.rs" }>, align 1
@alloc_82fe2ea15d0cad6cf90c1cf9f0b7608b = private unnamed_addr constant <{ ptr, [16 x i8] }> <{ ptr @alloc_4197f4c4e983c7e9fc0ec93d81a7f19b, [16 x i8] c"K\00\00\00\00\00\00\00\07\02\00\00 \00\00\00" }>, align 8
@alloc_47c8330ffe7a09bc00d165d03facdeb6 = private unnamed_addr constant <{ [4 x i8] }> <{ [4 x i8] c"\FF\FF\FF\FF" }>, align 4
@alloc_a54cd4c1b841aa01d6d40fe46c52a21e = private unnamed_addr constant <{ [78 x i8] }> <{ [78 x i8] c"/rustc/aedd173a2c086e558c2b66d3743b344f977621a7/library/std/src/os/fd/owned.rs" }>, align 1
@alloc_ff7354ac3642c07a91d102a283133695 = private unnamed_addr constant <{ ptr, [16 x i8] }> <{ ptr @alloc_a54cd4c1b841aa01d6d40fe46c52a21e, [16 x i8] c"N\00\00\00\00\00\00\00\A5\00\00\00\09\00\00\00" }>, align 8
@alloc_49f4817395fcc69bced82142970a6e73 = private unnamed_addr constant <{ [41 x i8] }> <{ [41 x i8] c"assertion failed: fd != u32::MAX as RawFd" }>, align 1
@alloc_b17bdb6961ae77aabbebdfea3544b8b9 = private unnamed_addr constant <{ ptr, [16 x i8] }> <{ ptr @alloc_a54cd4c1b841aa01d6d40fe46c52a21e, [16 x i8] c"N\00\00\00\00\00\00\00L\00\00\00\09\00\00\00" }>, align 8
@alloc_cbeadf0d66a611997eb75acae7c0e0f8 = private unnamed_addr constant <{ [28 x i8] }> <{ [28 x i8] c"assertion failed: min <= max" }>, align 1
@alloc_5653f3798bc52eb7309951dd17c6c8f3 = private unnamed_addr constant <{ [71 x i8] }> <{ [71 x i8] c"/rustc/aedd173a2c086e558c2b66d3743b344f977621a7/library/core/src/cmp.rs" }>, align 1
@alloc_e6c841246b2f116761403296e0436aae = private unnamed_addr constant <{ ptr, [16 x i8] }> <{ ptr @alloc_5653f3798bc52eb7309951dd17c6c8f3, [16 x i8] c"G\00\00\00\00\00\00\00p\03\00\00\09\00\00\00" }>, align 8
@vtable.1 = private constant <{ ptr, [16 x i8], ptr }> <{ ptr @"_ZN4core3ptr71drop_in_place$LT$$RF$core..mem..maybe_uninit..MaybeUninit$LT$u8$GT$$GT$17h51742fb6d427ac00E", [16 x i8] c"\08\00\00\00\00\00\00\00\08\00\00\00\00\00\00\00", ptr @"_ZN42_$LT$$RF$T$u20$as$u20$core..fmt..Debug$GT$3fmt17hde512889d52820f2E" }>, align 8, !dbg !66
@3 = private unnamed_addr constant <{ [8 x i8], [8 x i8] }> <{ [8 x i8] zeroinitializer, [8 x i8] undef }>, align 8
@alloc_91c7fa63c3cfeaa3c795652d5cf060e4 = private unnamed_addr constant <{ [12 x i8] }> <{ [12 x i8] c"invalid args" }>, align 1
@alloc_af99043bc04c419363a7f04d23183506 = private unnamed_addr constant <{ ptr, [8 x i8] }> <{ ptr @alloc_91c7fa63c3cfeaa3c795652d5cf060e4, [8 x i8] c"\0C\00\00\00\00\00\00\00" }>, align 8
@alloc_513570631223a12912d85da2bec3b15a = private unnamed_addr constant <{}> zeroinitializer, align 8
@alloc_6de2818331109612dbb09d5e2073dc73 = private unnamed_addr constant <{ [75 x i8] }> <{ [75 x i8] c"/rustc/aedd173a2c086e558c2b66d3743b344f977621a7/library/core/src/fmt/mod.rs" }>, align 1
@alloc_b96933a8148f906cfb135db9ebeba42b = private unnamed_addr constant <{ ptr, [16 x i8] }> <{ ptr @alloc_6de2818331109612dbb09d5e2073dc73, [16 x i8] c"K\00\00\00\00\00\00\00M\01\00\00\0D\00\00\00" }>, align 8
@alloc_b1c9b46fd6543b9e0f93a51d745efa2a = private unnamed_addr constant <{ ptr, [16 x i8] }> <{ ptr @alloc_6de2818331109612dbb09d5e2073dc73, [16 x i8] c"K\00\00\00\00\00\00\00C\01\00\00\0D\00\00\00" }>, align 8
@4 = private unnamed_addr constant <{ [8 x i8], [4 x i8], [4 x i8] }> <{ [8 x i8] undef, [4 x i8] c"\00\CA\9A;", [4 x i8] undef }>, align 8
@alloc_374c9df73b8540d3e9b0cfbfed1be08c = private unnamed_addr constant <{ [25 x i8] }> <{ [25 x i8] c"overflow in Duration::new" }>, align 1
@alloc_b7c1c22a954085a45dacf7c670d25258 = private unnamed_addr constant <{ ptr, [8 x i8] }> <{ ptr @alloc_374c9df73b8540d3e9b0cfbfed1be08c, [8 x i8] c"\19\00\00\00\00\00\00\00" }>, align 8
@alloc_671f4c6d77378c021ec6aeebe6db62ef = private unnamed_addr constant <{ [72 x i8] }> <{ [72 x i8] c"/rustc/aedd173a2c086e558c2b66d3743b344f977621a7/library/core/src/time.rs" }>, align 1
@alloc_f674c5781fa57db425c001ff3ae33f6c = private unnamed_addr constant <{ ptr, [16 x i8] }> <{ ptr @alloc_671f4c6d77378c021ec6aeebe6db62ef, [16 x i8] c"H\00\00\00\00\00\00\00\CA\00\00\00\15\00\00\00" }>, align 8
@alloc_4713d75e44433589dc609fdbfa49699b = private unnamed_addr constant <{ [80 x i8] }> <{ [80 x i8] c"/rustc/aedd173a2c086e558c2b66d3743b344f977621a7/library/core/src/alloc/layout.rs" }>, align 1
@alloc_37f08cc86d215bcabda8bef18acdfc7b = private unnamed_addr constant <{ ptr, [16 x i8] }> <{ ptr @alloc_4713d75e44433589dc609fdbfa49699b, [16 x i8] c"P\00\00\00\00\00\00\00\C1\01\00\00)\00\00\00" }>, align 8
@str.2 = internal unnamed_addr constant [25 x i8] c"attempt to divide by zero"
@alloc_00ae4b301f7fab8ac9617c03fcbd7274 = private unnamed_addr constant <{ [43 x i8] }> <{ [43 x i8] c"called `Result::unwrap()` on an `Err` value" }>, align 1
@vtable.3 = private constant <{ ptr, [16 x i8], ptr }> <{ ptr @"_ZN4core3ptr42drop_in_place$LT$std..io..error..Error$GT$17hfd03b64205700279E", [16 x i8] c"\08\00\00\00\00\00\00\00\08\00\00\00\00\00\00\00", ptr @"_ZN58_$LT$std..io..error..Error$u20$as$u20$core..fmt..Debug$GT$3fmt17hc3b32420e3f10c71E" }>, align 8, !dbg !85
@vtable.4 = private constant <{ ptr, [16 x i8], ptr }> <{ ptr @"_ZN4core3ptr30drop_in_place$LT$$RF$usize$GT$17hfd669562668ca95bE", [16 x i8] c"\08\00\00\00\00\00\00\00\08\00\00\00\00\00\00\00", ptr @"_ZN42_$LT$$RF$T$u20$as$u20$core..fmt..Debug$GT$3fmt17h03bec07fd08c6995E" }>, align 8, !dbg !204
@vtable.5 = private constant <{ ptr, [16 x i8], ptr }> <{ ptr @"_ZN4core3ptr28drop_in_place$LT$$RF$i32$GT$17hdafeb293a5cc7b84E", [16 x i8] c"\08\00\00\00\00\00\00\00\08\00\00\00\00\00\00\00", ptr @"_ZN42_$LT$$RF$T$u20$as$u20$core..fmt..Debug$GT$3fmt17hae51a72e01c4cf22E" }>, align 8, !dbg !213
@__rust_no_alloc_shim_is_unstable = external global i8
@alloc_4abbd3fe50fa1354cfb764c11cf4a296 = private unnamed_addr constant <{ [35 x i8] }> <{ [35 x i8] c"overflow when subtracting durations" }>, align 1
@alloc_74f26e3ded351ae7020715ee89263450 = private unnamed_addr constant <{ ptr, [16 x i8] }> <{ ptr @alloc_671f4c6d77378c021ec6aeebe6db62ef, [16 x i8] c"H\00\00\00\00\00\00\00\BA\03\00\00\1F\00\00\00" }>, align 8
@alloc_37d2e53432a03a1f90b3e7253015eaf9 = private unnamed_addr constant <{ [4 x i8] }> <{ [4 x i8] c"None" }>, align 1
@alloc_9535bf4c204f3eb9b19ec2c83e446e52 = private unnamed_addr constant <{ [4 x i8] }> <{ [4 x i8] c"Some" }>, align 1
@vtable.6 = private constant <{ ptr, [16 x i8], ptr }> <{ ptr @"_ZN4core3ptr52drop_in_place$LT$$RF$socket2..sockaddr..SockAddr$GT$17h729a6ad089e48447E", [16 x i8] c"\08\00\00\00\00\00\00\00\08\00\00\00\00\00\00\00", ptr @"_ZN42_$LT$$RF$T$u20$as$u20$core..fmt..Debug$GT$3fmt17h908230c49a97b13cE" }>, align 8, !dbg !222
@alloc_7f7401ad8f93f6cb19991b5000cbae6a = private unnamed_addr constant <{ [40 x i8] }> <{ [40 x i8] c"core::mem::maybe_uninit::MaybeUninit<u8>" }>, align 1
@alloc_5a4c57888c096d76ee910ed426cdf090 = private unnamed_addr constant <{ [25 x i8] }> <{ [25 x i8] c"overflown address storage" }>, align 1
@alloc_e8166dbadd06ce6185c2c65c0fbb735b = private unnamed_addr constant <{ ptr, [8 x i8] }> <{ ptr @alloc_5a4c57888c096d76ee910ed426cdf090, [8 x i8] c"\19\00\00\00\00\00\00\00" }>, align 8
@alloc_03e4b3166a181ef7e766d6da459ed95f = private unnamed_addr constant <{ [97 x i8] }> <{ [97 x i8] c"/users/zyuxuan/.cargo/registry/src/index.crates.io-6f17d22bba15001f/socket2-0.5.6/src/sockaddr.rs" }>, align 1
@alloc_955ded213e6001608290108cd88e706f = private unnamed_addr constant <{ ptr, [16 x i8] }> <{ ptr @alloc_03e4b3166a181ef7e766d6da459ed95f, [16 x i8] c"a\00\00\00\00\00\00\00\87\00\00\00\0D\00\00\00" }>, align 8
@alloc_53387dc223cd742a2034dd92e5223c44 = private unnamed_addr constant <{ ptr, [16 x i8] }> <{ ptr @alloc_03e4b3166a181ef7e766d6da459ed95f, [16 x i8] c"a\00\00\00\00\00\00\00\8B\00\00\00\22\00\00\00" }>, align 8
@alloc_4d67023428bda0aac7078518aa21c7db = private unnamed_addr constant <{ ptr, [16 x i8] }> <{ ptr @alloc_03e4b3166a181ef7e766d6da459ed95f, [16 x i8] c"a\00\00\00\00\00\00\00\0E\01\00\00*\00\00\00" }>, align 8
@alloc_93e8e81f2608d57441d9238b14696991 = private unnamed_addr constant <{ ptr, [16 x i8] }> <{ ptr @alloc_03e4b3166a181ef7e766d6da459ed95f, [16 x i8] c"a\00\00\00\00\00\00\00\0F\01\00\00*\00\00\00" }>, align 8
@alloc_e56f4f92749486ddfa07ac2ba9c8af13 = private unnamed_addr constant <{ ptr, [16 x i8] }> <{ ptr @alloc_03e4b3166a181ef7e766d6da459ed95f, [16 x i8] c"a\00\00\00\00\00\00\00\17\01\00\00$\00\00\00" }>, align 8
@alloc_91e9634e3d28e0665b7c959a362c888a = private unnamed_addr constant <{ ptr, [16 x i8] }> <{ ptr @alloc_03e4b3166a181ef7e766d6da459ed95f, [16 x i8] c"a\00\00\00\00\00\00\008\01\00\00$\00\00\00" }>, align 8
@alloc_8a00277f434e8c082405b2fb66199870 = private unnamed_addr constant <{ [8 x i8] }> <{ [8 x i8] c"SockAddr" }>, align 1
@alloc_fb6785a33165154aa15711980e2edbd7 = private unnamed_addr constant <{ [9 x i8] }> <{ [9 x i8] c"ss_family" }>, align 1
@vtable.7 = private constant <{ ptr, [16 x i8], ptr }> <{ ptr @"_ZN4core3ptr24drop_in_place$LT$u16$GT$17ha2113430c9479408E", [16 x i8] c"\02\00\00\00\00\00\00\00\02\00\00\00\00\00\00\00", ptr @"_ZN4core3fmt3num50_$LT$impl$u20$core..fmt..Debug$u20$for$u20$u16$GT$3fmt17h078a049b3ca893ebE" }>, align 8, !dbg !250
@alloc_f92b1a49cd2fef011d7606f6333298f2 = private unnamed_addr constant <{ [3 x i8] }> <{ [3 x i8] c"len" }>, align 1
@vtable.8 = private constant <{ ptr, [16 x i8], ptr }> <{ ptr @"_ZN4core3ptr24drop_in_place$LT$u32$GT$17hebb98c7654f5b888E", [16 x i8] c"\04\00\00\00\00\00\00\00\04\00\00\00\00\00\00\00", ptr @"_ZN4core3fmt3num50_$LT$impl$u20$core..fmt..Debug$u20$for$u20$u32$GT$3fmt17hedc68c221513bd87E" }>, align 8, !dbg !258
@alloc_1e85ccbfda691f44d039a0780a9c4857 = private unnamed_addr constant <{ [45 x i8] }> <{ [45 x i8] c"tried to create a `Socket` with an invalid fd" }>, align 1
@alloc_6cf1e44744270db7371b6db75fcd9d92 = private unnamed_addr constant <{ ptr, [8 x i8] }> <{ ptr @alloc_1e85ccbfda691f44d039a0780a9c4857, [8 x i8] c"-\00\00\00\00\00\00\00" }>, align 8
@alloc_c148decfdbe810d551efd37f30b53958 = private unnamed_addr constant <{ [95 x i8] }> <{ [95 x i8] c"/users/zyuxuan/.cargo/registry/src/index.crates.io-6f17d22bba15001f/socket2-0.5.6/src/socket.rs" }>, align 1
@alloc_20cda1a3011c2e84f6d9e23aeaf66b01 = private unnamed_addr constant <{ ptr, [16 x i8] }> <{ ptr @alloc_c148decfdbe810d551efd37f30b53958, [16 x i8] c"_\00\00\00\00\00\00\00j\00\00\00\11\00\00\00" }>, align 8
@alloc_faf2ef348569f98b52b07497c1b04c5d = private unnamed_addr constant <{ [1 x i8] }> <{ [1 x i8] c"\0D" }>, align 1
@alloc_905a072e8ee944377a0fd451d013fae5 = private unnamed_addr constant <{ [8 x i8] }> <{ [8 x i8] c"\01\00\00\00s\00\00\00" }>, align 4
@alloc_6d05b6a0575773404be0843175166879 = private unnamed_addr constant <{ ptr, [16 x i8] }> <{ ptr @alloc_c148decfdbe810d551efd37f30b53958, [16 x i8] c"_\00\00\00\00\00\00\00\E7\00\00\00\09\00\00\00" }>, align 8
@alloc_25f366f073f388bed4ce382e242ae1db = private unnamed_addr constant <{ ptr, [16 x i8] }> <{ ptr @alloc_c148decfdbe810d551efd37f30b53958, [16 x i8] c"_\00\00\00\00\00\00\00\E5\00\00\00\09\00\00\00" }>, align 8
@alloc_697fc6a693ac26039d5e06bdd00055b7 = private unnamed_addr constant <{ ptr, [16 x i8] }> <{ ptr @alloc_c148decfdbe810d551efd37f30b53958, [16 x i8] c"_\00\00\00\00\00\00\00\15\08\00\00\09\00\00\00" }>, align 8
@alloc_cd65425f0844986badc0bab634c18c6f = private unnamed_addr constant <{ [6 x i8] }> <{ [6 x i8] c"Socket" }>, align 1
@alloc_005de03493e3aaea3890cf93afea4072 = private unnamed_addr constant <{ [3 x i8] }> <{ [3 x i8] c"raw" }>, align 1
@vtable.9 = private constant <{ ptr, [16 x i8], ptr }> <{ ptr @"_ZN4core3ptr24drop_in_place$LT$i32$GT$17h3927e31353f85b49E", [16 x i8] c"\04\00\00\00\00\00\00\00\04\00\00\00\00\00\00\00", ptr @"_ZN4core3fmt3num50_$LT$impl$u20$core..fmt..Debug$u20$for$u20$i32$GT$3fmt17h01abf5b677dc155cE" }>, align 8, !dbg !266
@alloc_2f128326a8a14d1e974b2da0a044e670 = private unnamed_addr constant <{ [10 x i8] }> <{ [10 x i8] c"local_addr" }>, align 1
@vtable.a = private constant <{ ptr, [16 x i8], ptr }> <{ ptr @"_ZN4core3ptr76drop_in_place$LT$core..option..Option$LT$socket2..sockaddr..SockAddr$GT$$GT$17h34f013740c975254E", [16 x i8] c"\90\00\00\00\00\00\00\00\08\00\00\00\00\00\00\00", ptr @"_ZN66_$LT$core..option..Option$LT$T$GT$$u20$as$u20$core..fmt..Debug$GT$3fmt17hbd822cc49c531914E" }>, align 8, !dbg !274
@alloc_0c816a298e00b8bbbc9ecc1da031980a = private unnamed_addr constant <{ [9 x i8] }> <{ [9 x i8] c"peer_addr" }>, align 1
@alloc_1dc86217023d88325d615f8c1a605dc8 = private unnamed_addr constant <{ [7 x i8] }> <{ [7 x i8] c"SockRef" }>, align 1
@alloc_b305ceff02681f1749bf14cb8097cdce = private unnamed_addr constant <{ [9 x i8] }> <{ [9 x i8] c"RecvFlags" }>, align 1
@alloc_d227708a443e2f6a186c48a43ca7f244 = private unnamed_addr constant <{ [16 x i8] }> <{ [16 x i8] c"is_end_of_record" }>, align 1
@vtable.b = private constant <{ ptr, [16 x i8], ptr }> <{ ptr @"_ZN4core3ptr25drop_in_place$LT$bool$GT$17h1a2e16f262764623E", [16 x i8] c"\01\00\00\00\00\00\00\00\01\00\00\00\00\00\00\00", ptr @"_ZN41_$LT$bool$u20$as$u20$core..fmt..Debug$GT$3fmt17hfa4c90811a4b0915E" }>, align 8, !dbg !297
@alloc_aa589aa5b87cfe00a9e443d59ea0fbf4 = private unnamed_addr constant <{ [14 x i8] }> <{ [14 x i8] c"is_out_of_band" }>, align 1
@alloc_7c2d928665f374a8d4ea366f9df4b021 = private unnamed_addr constant <{ [12 x i8] }> <{ [12 x i8] c"is_truncated" }>, align 1
@alloc_a2b40d201c8cbbd490d71741f7e3ede8 = private unnamed_addr constant <{ [97 x i8] }> <{ [97 x i8] c"/users/zyuxuan/.cargo/registry/src/index.crates.io-6f17d22bba15001f/socket2-0.5.6/src/sys/unix.rs" }>, align 1
@alloc_f31ff01ed7fae3c9e77e5e61e18de56b = private unnamed_addr constant <{ ptr, [16 x i8] }> <{ ptr @alloc_a2b40d201c8cbbd490d71741f7e3ede8, [16 x i8] c"a\00\00\00\00\00\00\00q\02\00\00\05\00\00\00" }>, align 8
@str.c = internal unnamed_addr constant [33 x i8] c"attempt to subtract with overflow"
@alloc_72afa2b0e9395c76577d24374a5fbc94 = private unnamed_addr constant <{ ptr, [16 x i8] }> <{ ptr @alloc_a2b40d201c8cbbd490d71741f7e3ede8, [16 x i8] c"a\00\00\00\00\00\00\00w\02\00\00 \00\00\00" }>, align 8
@alloc_43412612f878140c2d166d1aa494a919 = private unnamed_addr constant <{ ptr, [16 x i8] }> <{ ptr @alloc_a2b40d201c8cbbd490d71741f7e3ede8, [16 x i8] c"a\00\00\00\00\00\00\00\97\02\00\00\09\00\00\00" }>, align 8
@str.d = internal unnamed_addr constant [28 x i8] c"attempt to add with overflow"
@alloc_a6cd549558922e299730747164494330 = private unnamed_addr constant <{ [33 x i8] }> <{ [33 x i8] c"path must be shorter than SUN_LEN" }>, align 1
@alloc_a450fbcd67c98297580e18333546c7d2 = private unnamed_addr constant <{ ptr, [16 x i8] }> <{ ptr @alloc_a2b40d201c8cbbd490d71741f7e3ede8, [16 x i8] c"a\00\00\00\00\00\00\00\0E\03\00\00\09\00\00\00" }>, align 8
@alloc_2502c65fd5558dd7571535223e6f6a0b = private unnamed_addr constant <{ [36 x i8] }> <{ [36 x i8] c"assertion failed: !self.is_unnamed()" }>, align 1
@alloc_0203b657d526b1a9f8616370369cb72d = private unnamed_addr constant <{ ptr, [16 x i8] }> <{ ptr @alloc_a2b40d201c8cbbd490d71741f7e3ede8, [16 x i8] c"a\00\00\00\00\00\00\00\0D\03\00\00\09\00\00\00" }>, align 8
@alloc_92b0a5cdc82bb75a0ae70ba5d7b7a9e6 = private unnamed_addr constant <{ ptr, [16 x i8] }> <{ ptr @alloc_a2b40d201c8cbbd490d71741f7e3ede8, [16 x i8] c"a\00\00\00\00\00\00\00\15\03\00\00\09\00\00\00" }>, align 8
@alloc_ec4613d4401b979fce476f5b89fc6fe2 = private unnamed_addr constant <{ ptr, [16 x i8] }> <{ ptr @alloc_a2b40d201c8cbbd490d71741f7e3ede8, [16 x i8] c"a\00\00\00\00\00\00\00+\03\00\00B\00\00\00" }>, align 8
@alloc_8ed550253fd95ba36d7116eaeefa793d = private unnamed_addr constant <{ ptr, [16 x i8] }> <{ ptr @alloc_a2b40d201c8cbbd490d71741f7e3ede8, [16 x i8] c"a\00\00\00\00\00\00\00\81\03\00\009\00\00\00" }>, align 8
@alloc_645254fe09cafceeb7bed1183d18054a = private unnamed_addr constant <{ [26 x i8] }> <{ [26 x i8] c"no error set after POLLHUP" }>, align 1
@alloc_915544995c76d19b0d8d87d991dcd459 = private unnamed_addr constant <{ [1 x i8] }> <{ [1 x i8] c"#" }>, align 1
@alloc_1a0ef94bb27d25e0111c519a893f988c = private unnamed_addr constant <{ ptr, [16 x i8] }> <{ ptr @alloc_a2b40d201c8cbbd490d71741f7e3ede8, [16 x i8] c"a\00\00\00\00\00\00\00z\03\00\000\00\00\00" }>, align 8
@alloc_a8aad6d52f3c238cab734ec9403b44e9 = private unnamed_addr constant <{ ptr, [16 x i8] }> <{ ptr @alloc_a2b40d201c8cbbd490d71741f7e3ede8, [16 x i8] c"a\00\00\00\00\00\00\00\00\04\00\00\17\00\00\00" }>, align 8
@alloc_4e3c72f52cbb4fc8f0fe43f3d22e6c0a = private unnamed_addr constant <{ ptr, [16 x i8] }> <{ ptr @alloc_a2b40d201c8cbbd490d71741f7e3ede8, [16 x i8] c"a\00\00\00\00\00\00\00\0B\04\00\00\0D\00\00\00" }>, align 8
@alloc_4d85e893756d7bd4f900b0f076a113b6 = private unnamed_addr constant <{ ptr, [16 x i8] }> <{ ptr @alloc_a2b40d201c8cbbd490d71741f7e3ede8, [16 x i8] c"a\00\00\00\00\00\00\00\19\04\00\00\09\00\00\00" }>, align 8
@alloc_3e8eefd7b30536a76633f7743147ff6b = private unnamed_addr constant <{ ptr, [16 x i8] }> <{ ptr @alloc_a2b40d201c8cbbd490d71741f7e3ede8, [16 x i8] c"a\00\00\00\00\00\00\00\1B\04\00\00%\00\00\00" }>, align 8
@alloc_20902c687f2a82c53b35720f2c6c3ed3 = private unnamed_addr constant <{ ptr, [16 x i8] }> <{ ptr @alloc_a2b40d201c8cbbd490d71741f7e3ede8, [16 x i8] c"a\00\00\00\00\00\00\00\1E\04\00\00\0D\00\00\00" }>, align 8
@alloc_a14f35e619453f8bf7e3622a21f79fed = private unnamed_addr constant <{ ptr, [16 x i8] }> <{ ptr @alloc_a2b40d201c8cbbd490d71741f7e3ede8, [16 x i8] c"a\00\00\00\00\00\00\00\1C\04\00\00\15\00\00\00" }>, align 8
@alloc_c848e9936eae8137f8f32d5eb564f9ae = private unnamed_addr constant <{ ptr, [16 x i8] }> <{ ptr @alloc_a2b40d201c8cbbd490d71741f7e3ede8, [16 x i8] c"a\00\00\00\00\00\00\00d\04\00\00\14\00\00\00" }>, align 8
@str.e = internal unnamed_addr constant [33 x i8] c"attempt to multiply with overflow"
@alloc_6a6f712f58c4af4e29d2fe200b9a02a3 = private unnamed_addr constant <{ ptr, [16 x i8] }> <{ ptr @alloc_a2b40d201c8cbbd490d71741f7e3ede8, [16 x i8] c"a\00\00\00\00\00\00\00\9F\04\00\00\12\00\00\00" }>, align 8
@alloc_1c9e810e89077f1db2863ba578cca1f7 = private unnamed_addr constant <{ ptr, [16 x i8] }> <{ ptr @alloc_a2b40d201c8cbbd490d71741f7e3ede8, [16 x i8] c"a\00\00\00\00\00\00\00\B4\04\00\00\16\00\00\00" }>, align 8
@alloc_925fc3ce724508478d58d882f8883359 = private unnamed_addr constant <{ ptr, [16 x i8] }> <{ ptr @alloc_a2b40d201c8cbbd490d71741f7e3ede8, [16 x i8] c"a\00\00\00\00\00\00\00\B8\04\00\00\16\00\00\00" }>, align 8
@alloc_daa6cdc7a35f20e77e9e4b0498966fd6 = private unnamed_addr constant <{ ptr, [16 x i8] }> <{ ptr @alloc_a2b40d201c8cbbd490d71741f7e3ede8, [16 x i8] c"a\00\00\00\00\00\00\00\D8\04\00\00\14\00\00\00" }>, align 8
@alloc_dc8ac3dd68f16f394f57ca6657ae9cae = private unnamed_addr constant <{ ptr, [16 x i8] }> <{ ptr @alloc_a2b40d201c8cbbd490d71741f7e3ede8, [16 x i8] c"a\00\00\00\00\00\00\00\E5\04\00\00\14\00\00\00" }>, align 8
@alloc_ee2a3d99accaa3cec7cc99bf20f81916 = private unnamed_addr constant <{ [8 x i8] }> <{ [8 x i8] c"\04\00\00\00\00\00\00\00" }>, align 8
@alloc_22d43700da38108aa711addcf19163e4 = private unnamed_addr constant <{ ptr, [16 x i8] }> <{ ptr @alloc_a2b40d201c8cbbd490d71741f7e3ede8, [16 x i8] c"a\00\00\00\00\00\00\00\FB\04\00\00\09\00\00\00" }>, align 8
@alloc_a2e016e9bbcad4ccefc5ba8b27d9b5c0 = private unnamed_addr constant <{ ptr, [16 x i8] }> <{ ptr @alloc_a2b40d201c8cbbd490d71741f7e3ede8, [16 x i8] c"a\00\00\00\00\00\00\00\FD\04\00\00\11\00\00\00" }>, align 8
@alloc_87930ff84f26c4dc0d3a344636709737 = private unnamed_addr constant <{ [8 x i8] }> <{ [8 x i8] c"\10\00\00\00\00\00\00\00" }>, align 8
@alloc_a30fbd7ee764311b5438e9cf554fd24e = private unnamed_addr constant <{ [8 x i8] }> <{ [8 x i8] c"\08\00\00\00\00\00\00\00" }>, align 8
@alloc_471db0968f12ee6f2e1993e1a5e5500b = private unnamed_addr constant <{ [4 x i8] }> zeroinitializer, align 1
@alloc_6dc1f8eee1a73fd7a1cc9bf957b8b082 = private unnamed_addr constant <{ [92 x i8] }> <{ [92 x i8] c"/users/zyuxuan/.cargo/registry/src/index.crates.io-6f17d22bba15001f/socket2-0.5.6/src/lib.rs" }>, align 1
@alloc_35b59dceb04586f07383cdd066cda769 = private unnamed_addr constant <{ ptr, [16 x i8] }> <{ ptr @alloc_6dc1f8eee1a73fd7a1cc9bf957b8b082, [16 x i8] c"\\\00\00\00\00\00\00\00e\02\00\00\1D\00\00\00" }>, align 8
@alloc_553af21acb20c11ba7649d22efb97a95 = private unnamed_addr constant <{ [6 x i8] }> <{ [6 x i8] c"MsgHdr" }>, align 1
@alloc_e5cb43f428378b97245d071303aeebdf = private unnamed_addr constant <{ ptr, [16 x i8] }> <{ ptr @alloc_6dc1f8eee1a73fd7a1cc9bf957b8b082, [16 x i8] c"\\\00\00\00\00\00\00\00\AD\02\00\00\1D\00\00\00" }>, align 8
@alloc_e0dd4dec4254def15381a0e0c1e05263 = private unnamed_addr constant <{ [9 x i8] }> <{ [9 x i8] c"MsgHdrMut" }>, align 1
@alloc_fe21d6236ddacd0815e68ac748e3d5bb = private unnamed_addr constant <{ [7 x i8] }> <{ [7 x i8] c"AF_INET" }>, align 1
@alloc_2af260167056c5596a6fe2d471c9aeaa = private unnamed_addr constant <{ [8 x i8] }> <{ [8 x i8] c"AF_INET6" }>, align 1
@alloc_258c37774bb27599f8a0ff4e60ab595f = private unnamed_addr constant <{ [7 x i8] }> <{ [7 x i8] c"AF_UNIX" }>, align 1
@alloc_515b4f8ec3849f3ebae801be44c5e164 = private unnamed_addr constant <{ [9 x i8] }> <{ [9 x i8] c"AF_PACKET" }>, align 1
@alloc_445fa88505fde7e40e57c84f62c7816d = private unnamed_addr constant <{ [8 x i8] }> <{ [8 x i8] c"AF_VSOCK" }>, align 1
@alloc_127495409b8d31cdfe6fca36a7978cdc = private unnamed_addr constant <{ [9 x i8] }> <{ [9 x i8] c"AF_UNSPEC" }>, align 1
@alloc_b99730e73100e73a81f4fbfe74b3821d = private unnamed_addr constant <{ ptr, [8 x i8] }> <{ ptr @alloc_513570631223a12912d85da2bec3b15a, [8 x i8] zeroinitializer }>, align 8
@alloc_8879c8ff34ffad29f41b82222777a974 = private unnamed_addr constant <{ [11 x i8] }> <{ [11 x i8] c"SOCK_STREAM" }>, align 1
@alloc_bceb5e8e3481f32f729957cb5163a4e8 = private unnamed_addr constant <{ [10 x i8] }> <{ [10 x i8] c"SOCK_DGRAM" }>, align 1
@alloc_ff203f1692cdcf3bbada80b41693e390 = private unnamed_addr constant <{ [8 x i8] }> <{ [8 x i8] c"SOCK_RAW" }>, align 1
@alloc_362d8e75223a3860829f39067f64d800 = private unnamed_addr constant <{ [8 x i8] }> <{ [8 x i8] c"SOCK_RDM" }>, align 1
@alloc_6d5af502fd9c1efab781c449efc89702 = private unnamed_addr constant <{ [14 x i8] }> <{ [14 x i8] c"SOCK_SEQPACKET" }>, align 1
@alloc_f7edaa96d8a2772a52022ed7faf2c261 = private unnamed_addr constant <{ [12 x i8] }> <{ [12 x i8] c"IPPROTO_ICMP" }>, align 1
@alloc_2c5d975151bf5e33571992dd9c24930d = private unnamed_addr constant <{ [14 x i8] }> <{ [14 x i8] c"IPPROTO_ICMPV6" }>, align 1
@alloc_07bba2622279a51df9bcdc61d04cad79 = private unnamed_addr constant <{ [11 x i8] }> <{ [11 x i8] c"IPPROTO_TCP" }>, align 1
@alloc_46da1fa72bd0a345025e1b6a60381b1f = private unnamed_addr constant <{ [11 x i8] }> <{ [11 x i8] c"IPPROTO_UDP" }>, align 1
@alloc_608a776f51b271955c0d0b1998da4a1a = private unnamed_addr constant <{ [13 x i8] }> <{ [13 x i8] c"IPPROTO_MPTCP" }>, align 1

; <core::net::ip_addr::Ipv6Addr as core::convert::From<[u8; 16]>>::from
; Function Attrs: inlinehint nonlazybind uwtable
define internal void @"_ZN100_$LT$core..net..ip_addr..Ipv6Addr$u20$as$u20$core..convert..From$LT$$u5b$u8$u3b$$u20$16$u5d$$GT$$GT$4from17h638d3035f9e3c00bE"(ptr sret(%"core::net::ip_addr::Ipv6Addr") align 1 %_0, ptr align 1 %octets) unnamed_addr #0 !dbg !418 {
start:
  call void @llvm.dbg.declare(metadata ptr %octets, metadata !432, metadata !DIExpression()), !dbg !433
  %0 = load <16 x i8>, ptr %octets, align 1, !dbg !434
  store <16 x i8> %0, ptr %_0, align 1, !dbg !434
  ret void, !dbg !435
}

; <alloc::boxed::Box<dyn core::error::Error+core::marker::Send+core::marker::Sync> as core::convert::From<&str>>::from
; Function Attrs: inlinehint nonlazybind uwtable
define internal { ptr, ptr } @"_ZN152_$LT$alloc..boxed..Box$LT$dyn$u20$core..error..Error$u2b$core..marker..Send$u2b$core..marker..Sync$GT$$u20$as$u20$core..convert..From$LT$$RF$str$GT$$GT$4from17h6e87471129eac7ccE"(ptr align 1 %err.0, i64 %err.1) unnamed_addr #0 personality ptr @rust_eh_personality !dbg !436 {
start:
  %0 = alloca { ptr, i32, [1 x i32] }, align 8, !dbg !443
  %self.dbg.spill9 = alloca ptr, align 8
  %dest.dbg.spill = alloca ptr, align 8
  %self.dbg.spill8 = alloca ptr, align 8
  %self.dbg.spill7 = alloca ptr, align 8
  %self.dbg.spill6 = alloca ptr, align 8
  %self.dbg.spill5 = alloca ptr, align 8
  %capacity.dbg.spill = alloca i64, align 8
  %self.dbg.spill = alloca { ptr, i64 }, align 8
  %err.dbg.spill = alloca { ptr, i64 }, align 8
  %_18 = alloca %"<alloc::boxed::Box<(dyn core::error::Error + core::marker::Send + core::marker::Sync + 'static)> as core::convert::From<alloc::string::String>>::from::StringError", align 8
  %v = alloca %"alloc::vec::Vec<u8>", align 8
  %bytes = alloca %"alloc::vec::Vec<u8>", align 8
  %err = alloca %"alloc::string::String", align 8
  %alloc.dbg.spill4 = alloca %"alloc::alloc::Global", align 1
  %alloc.dbg.spill3 = alloca %"alloc::alloc::Global", align 1
  %alloc.dbg.spill2 = alloca %"alloc::alloc::Global", align 1
  %alloc.dbg.spill1 = alloca %"alloc::alloc::Global", align 1
  %alloc.dbg.spill = alloca %"alloc::alloc::Global", align 1
  call void @llvm.dbg.declare(metadata ptr %alloc.dbg.spill, metadata !461, metadata !DIExpression()), !dbg !475
  call void @llvm.dbg.declare(metadata ptr %alloc.dbg.spill1, metadata !507, metadata !DIExpression()), !dbg !513
  call void @llvm.dbg.declare(metadata ptr %alloc.dbg.spill2, metadata !515, metadata !DIExpression()), !dbg !523
  call void @llvm.dbg.declare(metadata ptr %alloc.dbg.spill3, metadata !525, metadata !DIExpression()), !dbg !534
  call void @llvm.dbg.declare(metadata ptr %alloc.dbg.spill4, metadata !536, metadata !DIExpression()), !dbg !545
  store ptr %err.0, ptr %err.dbg.spill, align 8, !dbg !545
  %1 = getelementptr inbounds i8, ptr %err.dbg.spill, i64 8, !dbg !545
  store i64 %err.1, ptr %1, align 8, !dbg !545
  call void @llvm.dbg.declare(metadata ptr %err.dbg.spill, metadata !442, metadata !DIExpression()), !dbg !547
  call void @llvm.dbg.declare(metadata ptr %err.dbg.spill, metadata !505, metadata !DIExpression()), !dbg !548
  call void @llvm.dbg.declare(metadata ptr %err.dbg.spill, metadata !498, metadata !DIExpression()), !dbg !549
  call void @llvm.dbg.declare(metadata ptr %err.dbg.spill, metadata !550, metadata !DIExpression()), !dbg !559
  call void @llvm.dbg.declare(metadata ptr %err, metadata !459, metadata !DIExpression()), !dbg !561
  call void @llvm.dbg.declare(metadata ptr %bytes, metadata !562, metadata !DIExpression()), !dbg !569
  call void @llvm.dbg.declare(metadata ptr %v, metadata !521, metadata !DIExpression()), !dbg !571
  store ptr %err.0, ptr %self.dbg.spill, align 8, !dbg !572
  %2 = getelementptr inbounds i8, ptr %self.dbg.spill, i64 8, !dbg !572
  store i64 %err.1, ptr %2, align 8, !dbg !572
  call void @llvm.dbg.declare(metadata ptr %self.dbg.spill, metadata !488, metadata !DIExpression()), !dbg !573
  call void @llvm.dbg.declare(metadata ptr %self.dbg.spill, metadata !482, metadata !DIExpression()), !dbg !574
  call void @llvm.dbg.declare(metadata ptr %self.dbg.spill, metadata !474, metadata !DIExpression()), !dbg !575
  call void @llvm.dbg.declare(metadata ptr %self.dbg.spill, metadata !512, metadata !DIExpression()), !dbg !576
  call void @llvm.dbg.declare(metadata ptr %self.dbg.spill, metadata !520, metadata !DIExpression()), !dbg !577
  call void @llvm.dbg.declare(metadata ptr %self.dbg.spill, metadata !578, metadata !DIExpression()), !dbg !587
  store i64 %err.1, ptr %capacity.dbg.spill, align 8, !dbg !589
  call void @llvm.dbg.declare(metadata ptr %capacity.dbg.spill, metadata !533, metadata !DIExpression()), !dbg !590
  call void @llvm.dbg.declare(metadata ptr %capacity.dbg.spill, metadata !544, metadata !DIExpression()), !dbg !591
  call void @llvm.dbg.declare(metadata ptr %capacity.dbg.spill, metadata !592, metadata !DIExpression()), !dbg !604
  call void @llvm.dbg.declare(metadata ptr %capacity.dbg.spill, metadata !606, metadata !DIExpression()), !dbg !614
  call void @llvm.dbg.declare(metadata ptr %capacity.dbg.spill, metadata !616, metadata !DIExpression()), !dbg !625
; call alloc::raw_vec::RawVec<T,A>::allocate_in
  %3 = call { i64, ptr } @"_ZN5alloc7raw_vec19RawVec$LT$T$C$A$GT$11allocate_in17hf233f763ba172f41E"(i64 %err.1, i1 zeroext false), !dbg !627
  %_11.0 = extractvalue { i64, ptr } %3, 0, !dbg !627
  %_11.1 = extractvalue { i64, ptr } %3, 1, !dbg !627
  store i64 %_11.0, ptr %v, align 8, !dbg !628
  %4 = getelementptr inbounds i8, ptr %v, i64 8, !dbg !628
  store ptr %_11.1, ptr %4, align 8, !dbg !628
  %5 = getelementptr inbounds %"alloc::vec::Vec<u8>", ptr %v, i32 0, i32 1, !dbg !628
  store i64 0, ptr %5, align 8, !dbg !628
  store ptr %err.0, ptr %self.dbg.spill5, align 8, !dbg !629
  call void @llvm.dbg.declare(metadata ptr %self.dbg.spill5, metadata !602, metadata !DIExpression()), !dbg !630
  call void @llvm.dbg.declare(metadata ptr %self.dbg.spill5, metadata !612, metadata !DIExpression()), !dbg !631
  store ptr %v, ptr %self.dbg.spill6, align 8, !dbg !632
  call void @llvm.dbg.declare(metadata ptr %self.dbg.spill6, metadata !633, metadata !DIExpression()), !dbg !640
  store ptr %v, ptr %self.dbg.spill7, align 8, !dbg !642
  call void @llvm.dbg.declare(metadata ptr %self.dbg.spill7, metadata !643, metadata !DIExpression()), !dbg !651
  %6 = getelementptr inbounds i8, ptr %v, i64 8, !dbg !653
  %self = load ptr, ptr %6, align 8, !dbg !653, !nonnull !55, !noundef !55
  store ptr %self, ptr %self.dbg.spill8, align 8, !dbg !653
  call void @llvm.dbg.declare(metadata ptr %self.dbg.spill8, metadata !654, metadata !DIExpression()), !dbg !662
  call void @llvm.dbg.declare(metadata ptr %self.dbg.spill8, metadata !664, metadata !DIExpression()), !dbg !672
  store ptr %self, ptr %dest.dbg.spill, align 8, !dbg !674
  call void @llvm.dbg.declare(metadata ptr %dest.dbg.spill, metadata !603, metadata !DIExpression()), !dbg !675
  call void @llvm.dbg.declare(metadata ptr %dest.dbg.spill, metadata !613, metadata !DIExpression()), !dbg !676
  %7 = mul i64 %err.1, 1, !dbg !677
  call void @llvm.memcpy.p0.p0.i64(ptr align 1 %self, ptr align 1 %err.0, i64 %7, i1 false), !dbg !677
  store ptr %v, ptr %self.dbg.spill9, align 8, !dbg !678
  call void @llvm.dbg.declare(metadata ptr %self.dbg.spill9, metadata !624, metadata !DIExpression()), !dbg !679
  call void @llvm.dbg.declare(metadata ptr %self.dbg.spill9, metadata !680, metadata !DIExpression()), !dbg !688
  %8 = getelementptr inbounds %"alloc::vec::Vec<u8>", ptr %v, i32 0, i32 1, !dbg !690
  store i64 %err.1, ptr %8, align 8, !dbg !690
  call void @llvm.memcpy.p0.p0.i64(ptr align 8 %bytes, ptr align 8 %v, i64 24, i1 false), !dbg !691
  call void @llvm.memcpy.p0.p0.i64(ptr align 8 %err, ptr align 8 %bytes, i64 24, i1 false), !dbg !692
  call void @llvm.memcpy.p0.p0.i64(ptr align 8 %_18, ptr align 8 %err, i64 24, i1 false), !dbg !693
  call void @llvm.dbg.declare(metadata ptr %_18, metadata !450, metadata !DIExpression()), !dbg !443
; invoke alloc::alloc::exchange_malloc
  %_4.i = invoke ptr @_ZN5alloc5alloc15exchange_malloc17hf669073be241aed2E(i64 24, i64 8)
          to label %"_ZN5alloc5boxed12Box$LT$T$GT$3new17hb34f7371e26e5249E.exit" unwind label %cleanup.i, !dbg !694

cleanup.i:                                        ; preds = %start
  %9 = landingpad { ptr, i32 }
          cleanup
  %10 = extractvalue { ptr, i32 } %9, 0
  %11 = extractvalue { ptr, i32 } %9, 1
  store ptr %10, ptr %0, align 8
  %12 = getelementptr inbounds i8, ptr %0, i64 8
  store i32 %11, ptr %12, align 8
; invoke core::ptr::drop_in_place<<alloc::boxed::Box<dyn core::error::Error+core::marker::Send+core::marker::Sync> as core::convert::From<alloc::string::String>>::from::StringError>
  invoke void @"_ZN4core3ptr205drop_in_place$LT$$LT$alloc..boxed..Box$LT$dyn$u20$core..error..Error$u2b$core..marker..Send$u2b$core..marker..Sync$GT$$u20$as$u20$core..convert..From$LT$alloc..string..String$GT$$GT$..from..StringError$GT$17h913f27c63263b171E"(ptr align 8 %_18) #16
          to label %bb3.i unwind label %terminate.i, !dbg !695

terminate.i:                                      ; preds = %cleanup.i
  %13 = landingpad { ptr, i32 }
          filter [0 x ptr] zeroinitializer
  %14 = extractvalue { ptr, i32 } %13, 0
  %15 = extractvalue { ptr, i32 } %13, 1
; call core::panicking::panic_in_cleanup
  call void @_ZN4core9panicking16panic_in_cleanup17h803841cec7522372E() #17, !dbg !696
  unreachable, !dbg !696

bb3.i:                                            ; preds = %cleanup.i
  %16 = load ptr, ptr %0, align 8, !dbg !696, !noundef !55
  %17 = getelementptr inbounds i8, ptr %0, i64 8, !dbg !696
  %18 = load i32, ptr %17, align 8, !dbg !696, !noundef !55
  %19 = insertvalue { ptr, i32 } poison, ptr %16, 0, !dbg !696
  %20 = insertvalue { ptr, i32 } %19, i32 %18, 1, !dbg !696
  resume { ptr, i32 } %20, !dbg !696

"_ZN5alloc5boxed12Box$LT$T$GT$3new17hb34f7371e26e5249E.exit": ; preds = %start
  call void @llvm.memcpy.p0.p0.i64(ptr align 8 %_4.i, ptr align 8 %_18, i64 24, i1 false), !dbg !697
  %21 = insertvalue { ptr, ptr } poison, ptr %_4.i, 0, !dbg !698
  %22 = insertvalue { ptr, ptr } %21, ptr @vtable.0, 1, !dbg !698
  ret { ptr, ptr } %22, !dbg !698
}

; <core::result::Result<T,F> as core::ops::try_trait::FromResidual<core::result::Result<core::convert::Infallible,E>>>::from_residual
; Function Attrs: inlinehint nonlazybind uwtable
define void @"_ZN153_$LT$core..result..Result$LT$T$C$F$GT$$u20$as$u20$core..ops..try_trait..FromResidual$LT$core..result..Result$LT$core..convert..Infallible$C$E$GT$$GT$$GT$13from_residual17h32608de96b051011E"(ptr sret(%"core::result::Result<usize, std::io::error::Error>") align 8 %_0, ptr %0, ptr align 8 %1) unnamed_addr #0 !dbg !699 {
start:
  %t.dbg.spill.i = alloca ptr, align 8
  %e.dbg.spill = alloca ptr, align 8
  %residual = alloca ptr, align 8
  store ptr %0, ptr %residual, align 8
  call void @llvm.dbg.declare(metadata ptr %residual, metadata !748, metadata !DIExpression()), !dbg !753
  %e = load ptr, ptr %residual, align 8, !dbg !754, !nonnull !55, !noundef !55
  store ptr %e, ptr %e.dbg.spill, align 8, !dbg !754
  call void @llvm.dbg.declare(metadata ptr %e.dbg.spill, metadata !749, metadata !DIExpression()), !dbg !755
  store ptr %e, ptr %t.dbg.spill.i, align 8
  call void @llvm.dbg.declare(metadata ptr %t.dbg.spill.i, metadata !756, metadata !DIExpression()), !dbg !765
  %2 = getelementptr inbounds %"core::result::Result<usize, std::io::error::Error>::Err", ptr %_0, i32 0, i32 1, !dbg !767
  store ptr %e, ptr %2, align 8, !dbg !767
  store i64 1, ptr %_0, align 8, !dbg !767
  ret void, !dbg !768
}

; <core::result::Result<T,F> as core::ops::try_trait::FromResidual<core::result::Result<core::convert::Infallible,E>>>::from_residual
; Function Attrs: inlinehint nonlazybind uwtable
define ptr @"_ZN153_$LT$core..result..Result$LT$T$C$F$GT$$u20$as$u20$core..ops..try_trait..FromResidual$LT$core..result..Result$LT$core..convert..Infallible$C$E$GT$$GT$$GT$13from_residual17h3c1029c1bcddee27E"(ptr %0, ptr align 8 %1) unnamed_addr #0 !dbg !769 {
start:
  %t.dbg.spill.i = alloca ptr, align 8
  %e.dbg.spill = alloca ptr, align 8
  %_0 = alloca ptr, align 8
  %residual = alloca ptr, align 8
  store ptr %0, ptr %residual, align 8
  call void @llvm.dbg.declare(metadata ptr %residual, metadata !787, metadata !DIExpression()), !dbg !791
  %e = load ptr, ptr %residual, align 8, !dbg !792, !nonnull !55, !noundef !55
  store ptr %e, ptr %e.dbg.spill, align 8, !dbg !792
  call void @llvm.dbg.declare(metadata ptr %e.dbg.spill, metadata !788, metadata !DIExpression()), !dbg !793
  store ptr %e, ptr %t.dbg.spill.i, align 8
  call void @llvm.dbg.declare(metadata ptr %t.dbg.spill.i, metadata !756, metadata !DIExpression()), !dbg !794
  store ptr %e, ptr %_0, align 8, !dbg !796
  %2 = load ptr, ptr %_0, align 8, !dbg !797, !noundef !55
  ret ptr %2, !dbg !797
}

; <core::result::Result<T,F> as core::ops::try_trait::FromResidual<core::result::Result<core::convert::Infallible,E>>>::from_residual
; Function Attrs: inlinehint nonlazybind uwtable
define void @"_ZN153_$LT$core..result..Result$LT$T$C$F$GT$$u20$as$u20$core..ops..try_trait..FromResidual$LT$core..result..Result$LT$core..convert..Infallible$C$E$GT$$GT$$GT$13from_residual17h8f585046683d8ba2E"(ptr sret(%"core::result::Result<(usize, RecvFlags, sockaddr::SockAddr), std::io::error::Error>") align 8 %_0, ptr %0, ptr align 8 %1) unnamed_addr #0 !dbg !798 {
start:
  %t.dbg.spill.i = alloca ptr, align 8
  %e.dbg.spill = alloca ptr, align 8
  %residual = alloca ptr, align 8
  store ptr %0, ptr %residual, align 8
  call void @llvm.dbg.declare(metadata ptr %residual, metadata !825, metadata !DIExpression()), !dbg !829
  %e = load ptr, ptr %residual, align 8, !dbg !830, !nonnull !55, !noundef !55
  store ptr %e, ptr %e.dbg.spill, align 8, !dbg !830
  call void @llvm.dbg.declare(metadata ptr %e.dbg.spill, metadata !826, metadata !DIExpression()), !dbg !831
  store ptr %e, ptr %t.dbg.spill.i, align 8
  call void @llvm.dbg.declare(metadata ptr %t.dbg.spill.i, metadata !756, metadata !DIExpression()), !dbg !832
  %2 = getelementptr inbounds %"core::result::Result<(usize, RecvFlags, sockaddr::SockAddr), std::io::error::Error>::Err", ptr %_0, i32 0, i32 1, !dbg !834
  store ptr %e, ptr %2, align 8, !dbg !834
  store i64 1, ptr %_0, align 8, !dbg !834
  ret void, !dbg !835
}

; <core::result::Result<T,F> as core::ops::try_trait::FromResidual<core::result::Result<core::convert::Infallible,E>>>::from_residual
; Function Attrs: inlinehint nonlazybind uwtable
define void @"_ZN153_$LT$core..result..Result$LT$T$C$F$GT$$u20$as$u20$core..ops..try_trait..FromResidual$LT$core..result..Result$LT$core..convert..Infallible$C$E$GT$$GT$$GT$13from_residual17hce20b19e5ecbf407E"(ptr sret(%"core::result::Result<(usize, RecvFlags), std::io::error::Error>") align 8 %_0, ptr %0, ptr align 8 %1) unnamed_addr #0 !dbg !836 {
start:
  %t.dbg.spill.i = alloca ptr, align 8
  %e.dbg.spill = alloca ptr, align 8
  %residual = alloca ptr, align 8
  store ptr %0, ptr %residual, align 8
  call void @llvm.dbg.declare(metadata ptr %residual, metadata !859, metadata !DIExpression()), !dbg !863
  %e = load ptr, ptr %residual, align 8, !dbg !864, !nonnull !55, !noundef !55
  store ptr %e, ptr %e.dbg.spill, align 8, !dbg !864
  call void @llvm.dbg.declare(metadata ptr %e.dbg.spill, metadata !860, metadata !DIExpression()), !dbg !865
  store ptr %e, ptr %t.dbg.spill.i, align 8
  call void @llvm.dbg.declare(metadata ptr %t.dbg.spill.i, metadata !756, metadata !DIExpression()), !dbg !866
  %2 = getelementptr inbounds %"core::result::Result<(usize, RecvFlags), std::io::error::Error>::Err", ptr %_0, i32 0, i32 1, !dbg !868
  store ptr %e, ptr %2, align 8, !dbg !868
  store i64 1, ptr %_0, align 8, !dbg !868
  ret void, !dbg !869
}

; <core::result::Result<T,F> as core::ops::try_trait::FromResidual<core::result::Result<core::convert::Infallible,E>>>::from_residual
; Function Attrs: inlinehint nonlazybind uwtable
define void @"_ZN153_$LT$core..result..Result$LT$T$C$F$GT$$u20$as$u20$core..ops..try_trait..FromResidual$LT$core..result..Result$LT$core..convert..Infallible$C$E$GT$$GT$$GT$13from_residual17hd2667376d55c458fE"(ptr sret(%"core::result::Result<sockaddr::SockAddr, std::io::error::Error>") align 8 %_0, ptr %0, ptr align 8 %1) unnamed_addr #0 !dbg !870 {
start:
  %t.dbg.spill.i = alloca ptr, align 8
  %e.dbg.spill = alloca ptr, align 8
  %residual = alloca ptr, align 8
  store ptr %0, ptr %residual, align 8
  call void @llvm.dbg.declare(metadata ptr %residual, metadata !888, metadata !DIExpression()), !dbg !892
  %e = load ptr, ptr %residual, align 8, !dbg !893, !nonnull !55, !noundef !55
  store ptr %e, ptr %e.dbg.spill, align 8, !dbg !893
  call void @llvm.dbg.declare(metadata ptr %e.dbg.spill, metadata !889, metadata !DIExpression()), !dbg !894
  store ptr %e, ptr %t.dbg.spill.i, align 8
  call void @llvm.dbg.declare(metadata ptr %t.dbg.spill.i, metadata !756, metadata !DIExpression()), !dbg !895
  %2 = getelementptr inbounds %"core::result::Result<sockaddr::SockAddr, std::io::error::Error>::Err", ptr %_0, i32 0, i32 1, !dbg !897
  store ptr %e, ptr %2, align 8, !dbg !897
  store i64 1, ptr %_0, align 8, !dbg !897
  ret void, !dbg !898
}

; <<alloc::boxed::Box<dyn core::error::Error+core::marker::Send+core::marker::Sync> as core::convert::From<alloc::string::String>>::from::StringError as core::error::Error>::description
; Function Attrs: nonlazybind uwtable
define internal { ptr, i64 } @"_ZN223_$LT$$LT$alloc..boxed..Box$LT$dyn$u20$core..error..Error$u2b$core..marker..Send$u2b$core..marker..Sync$GT$$u20$as$u20$core..convert..From$LT$alloc..string..String$GT$$GT$..from..StringError$u20$as$u20$core..error..Error$GT$11description17h0add4d2966eec15aE"(ptr align 8 %self) unnamed_addr #1 !dbg !899 {
start:
  %v.dbg.spill = alloca { ptr, i64 }, align 8
  %data_pointer.dbg.spill = alloca ptr, align 8
  %len.dbg.spill = alloca i64, align 8
  %data.dbg.spill = alloca ptr, align 8
  %self.dbg.spill5 = alloca ptr, align 8
  %self.dbg.spill3 = alloca ptr, align 8
  %self.dbg.spill2 = alloca ptr, align 8
  %self.dbg.spill1 = alloca ptr, align 8
  %self.dbg.spill = alloca ptr, align 8
  %_14 = alloca %"core::ptr::metadata::PtrComponents<[u8]>", align 8
  %_13 = alloca %"core::ptr::metadata::PtrRepr<[u8]>", align 8
  store ptr %self, ptr %self.dbg.spill, align 8
  call void @llvm.dbg.declare(metadata ptr %self.dbg.spill, metadata !905, metadata !DIExpression()), !dbg !906
  store ptr %self, ptr %self.dbg.spill1, align 8, !dbg !907
  call void @llvm.dbg.declare(metadata ptr %self.dbg.spill1, metadata !908, metadata !DIExpression()), !dbg !916
  store ptr %self, ptr %self.dbg.spill2, align 8, !dbg !917
  call void @llvm.dbg.declare(metadata ptr %self.dbg.spill2, metadata !918, metadata !DIExpression()), !dbg !925
  call void @llvm.dbg.declare(metadata ptr %self.dbg.spill2, metadata !926, metadata !DIExpression()), !dbg !933
  store ptr %self, ptr %self.dbg.spill3, align 8, !dbg !935
  call void @llvm.dbg.declare(metadata ptr %self.dbg.spill3, metadata !936, metadata !DIExpression()), !dbg !940
  %0 = getelementptr inbounds i8, ptr %self, i64 8, !dbg !942
  %self4 = load ptr, ptr %0, align 8, !dbg !942, !nonnull !55, !noundef !55
  store ptr %self4, ptr %self.dbg.spill5, align 8, !dbg !942
  call void @llvm.dbg.declare(metadata ptr %self.dbg.spill5, metadata !943, metadata !DIExpression()), !dbg !947
  call void @llvm.dbg.declare(metadata ptr %self.dbg.spill5, metadata !949, metadata !DIExpression()), !dbg !953
  store ptr %self4, ptr %data.dbg.spill, align 8, !dbg !935
  call void @llvm.dbg.declare(metadata ptr %data.dbg.spill, metadata !955, metadata !DIExpression()), !dbg !964
  call void @llvm.dbg.declare(metadata ptr %data.dbg.spill, metadata !966, metadata !DIExpression()), !dbg !978
  call void @llvm.dbg.declare(metadata ptr %data.dbg.spill, metadata !980, metadata !DIExpression()), !dbg !988
  %1 = getelementptr inbounds %"alloc::vec::Vec<u8>", ptr %self, i32 0, i32 1, !dbg !990
  %len = load i64, ptr %1, align 8, !dbg !990, !noundef !55
  store i64 %len, ptr %len.dbg.spill, align 8, !dbg !990
  call void @llvm.dbg.declare(metadata ptr %len.dbg.spill, metadata !963, metadata !DIExpression()), !dbg !991
  call void @llvm.dbg.declare(metadata ptr %len.dbg.spill, metadata !977, metadata !DIExpression()), !dbg !992
  call void @llvm.dbg.declare(metadata ptr %len.dbg.spill, metadata !993, metadata !DIExpression()), !dbg !1002
  store ptr %self4, ptr %data_pointer.dbg.spill, align 8, !dbg !1004
  call void @llvm.dbg.declare(metadata ptr %data_pointer.dbg.spill, metadata !1001, metadata !DIExpression()), !dbg !1005
  store ptr %self4, ptr %_14, align 8, !dbg !1006
  %2 = getelementptr inbounds i8, ptr %_14, i64 8, !dbg !1006
  store i64 %len, ptr %2, align 8, !dbg !1006
  %3 = load ptr, ptr %_14, align 8, !dbg !1007, !noundef !55
  %4 = getelementptr inbounds i8, ptr %_14, i64 8, !dbg !1007
  %5 = load i64, ptr %4, align 8, !dbg !1007, !noundef !55
  store ptr %3, ptr %_13, align 8, !dbg !1007
  %6 = getelementptr inbounds i8, ptr %_13, i64 8, !dbg !1007
  store i64 %5, ptr %6, align 8, !dbg !1007
  %v.0 = load ptr, ptr %_13, align 8, !dbg !1007, !noundef !55
  %7 = getelementptr inbounds i8, ptr %_13, i64 8, !dbg !1007
  %v.1 = load i64, ptr %7, align 8, !dbg !1007, !noundef !55
  store ptr %v.0, ptr %v.dbg.spill, align 8, !dbg !1007
  %8 = getelementptr inbounds i8, ptr %v.dbg.spill, i64 8, !dbg !1007
  store i64 %v.1, ptr %8, align 8, !dbg !1007
  call void @llvm.dbg.declare(metadata ptr %v.dbg.spill, metadata !1008, metadata !DIExpression()), !dbg !1016
  %9 = insertvalue { ptr, i64 } poison, ptr %v.0, 0, !dbg !1018
  %10 = insertvalue { ptr, i64 } %9, i64 %v.1, 1, !dbg !1018
  ret { ptr, i64 } %10, !dbg !1018
}

; std::io::error::repr_bitpacked::decode_repr
; Function Attrs: inlinehint nonlazybind uwtable
define void @_ZN3std2io5error14repr_bitpacked11decode_repr17h40fa288a76ff7d02E(ptr sret(%"std::io::error::ErrorData<alloc::boxed::Box<std::io::error::Custom>>") align 8 %_0, ptr %ptr) unnamed_addr #0 personality ptr @rust_eh_personality !dbg !1019 {
start:
  %custom.dbg.spill = alloca ptr, align 8
  %self.dbg.spill10 = alloca ptr, align 8
  %data_pointer.dbg.spill = alloca ptr, align 8
  %meta.dbg.spill = alloca ptr, align 8
  %self.dbg.spill8 = alloca ptr, align 8
  %0 = alloca ptr, align 8
  %self.dbg.spill7 = alloca ptr, align 8
  %ptr.dbg.spill6 = alloca ptr, align 8
  %kind.dbg.spill = alloca i8, align 1
  %f.dbg.spill = alloca ptr, align 8
  %1 = alloca { ptr, i32, [1 x i32] }, align 8
  %kind_bits.dbg.spill = alloca i32, align 4
  %code.dbg.spill = alloca i32, align 4
  %self.dbg.spill5 = alloca ptr, align 8
  %make_custom.dbg.spill = alloca %"{closure@<std::io::error::repr_bitpacked::Repr as core::ops::drop::Drop>::drop::{closure#0}}", align 1
  %ptr.dbg.spill = alloca ptr, align 8
  %_45 = alloca %"core::ptr::metadata::PtrComponents<()>", align 8
  %_44 = alloca %"core::ptr::metadata::PtrRepr<()>", align 8
  %_25 = alloca i8, align 1
  %_23 = alloca ptr, align 8
  %self4 = alloca ptr, align 8
  %self = alloca i8, align 1
  %bits = alloca i64, align 8
  %metadata.dbg.spill = alloca {}, align 1
  %count.dbg.spill3 = alloca i64, align 8
  %rhs.dbg.spill = alloca i64, align 8
  %self.dbg.spill2 = alloca i64, align 8
  %self.dbg.spill = alloca i64, align 8
  %count.dbg.spill1 = alloca i64, align 8
  %count.dbg.spill = alloca i64, align 8
  %_unsafe_arg.dbg.spill = alloca %"core::fmt::rt::UnsafeArg", align 1
  %width.dbg.spill = alloca %"core::fmt::rt::Count", align 8
  %precision.dbg.spill = alloca %"core::fmt::rt::Count", align 8
  %flags.dbg.spill = alloca i32, align 4
  %align.dbg.spill = alloca i8, align 1
  %fill.dbg.spill = alloca i32, align 4
  %position.dbg.spill = alloca i64, align 8
  store i64 0, ptr %position.dbg.spill, align 8, !dbg !1042
  call void @llvm.dbg.declare(metadata ptr %position.dbg.spill, metadata !1074, metadata !DIExpression()), !dbg !1042
  store i32 32, ptr %fill.dbg.spill, align 4, !dbg !1121
  call void @llvm.dbg.declare(metadata ptr %fill.dbg.spill, metadata !1075, metadata !DIExpression()), !dbg !1121
  store i8 3, ptr %align.dbg.spill, align 1, !dbg !1122
  call void @llvm.dbg.declare(metadata ptr %align.dbg.spill, metadata !1076, metadata !DIExpression()), !dbg !1122
  store i32 12, ptr %flags.dbg.spill, align 4, !dbg !1123
  call void @llvm.dbg.declare(metadata ptr %flags.dbg.spill, metadata !1077, metadata !DIExpression()), !dbg !1123
  %2 = load i64, ptr @0, align 8, !dbg !1123, !range !1124, !noundef !55
  %3 = load i64, ptr getelementptr inbounds (i8, ptr @0, i64 8), align 8, !dbg !1123
  store i64 %2, ptr %precision.dbg.spill, align 8, !dbg !1125
  %4 = getelementptr inbounds i8, ptr %precision.dbg.spill, i64 8, !dbg !1125
  store i64 %3, ptr %4, align 8, !dbg !1125
  call void @llvm.dbg.declare(metadata ptr %precision.dbg.spill, metadata !1078, metadata !DIExpression()), !dbg !1125
  %5 = load i64, ptr @1, align 8, !dbg !1125, !range !1124, !noundef !55
  %6 = load i64, ptr getelementptr inbounds (i8, ptr @1, i64 8), align 8, !dbg !1125
  store i64 %5, ptr %width.dbg.spill, align 8, !dbg !1126
  %7 = getelementptr inbounds i8, ptr %width.dbg.spill, i64 8, !dbg !1126
  store i64 %6, ptr %7, align 8, !dbg !1126
  call void @llvm.dbg.declare(metadata ptr %width.dbg.spill, metadata !1079, metadata !DIExpression()), !dbg !1126
  call void @llvm.dbg.declare(metadata ptr %_unsafe_arg.dbg.spill, metadata !1127, metadata !DIExpression()), !dbg !1227
  store i64 1, ptr %count.dbg.spill, align 8, !dbg !1228
  call void @llvm.dbg.declare(metadata ptr %count.dbg.spill, metadata !1239, metadata !DIExpression()), !dbg !1228
  store i64 1, ptr %count.dbg.spill1, align 8, !dbg !1241
  call void @llvm.dbg.declare(metadata ptr %count.dbg.spill1, metadata !1248, metadata !DIExpression()), !dbg !1241
  store i64 1, ptr %self.dbg.spill, align 8, !dbg !1250
  call void @llvm.dbg.declare(metadata ptr %self.dbg.spill, metadata !1262, metadata !DIExpression()), !dbg !1250
  store i64 0, ptr %self.dbg.spill2, align 8, !dbg !1264
  call void @llvm.dbg.declare(metadata ptr %self.dbg.spill2, metadata !1271, metadata !DIExpression()), !dbg !1264
  store i64 1, ptr %rhs.dbg.spill, align 8, !dbg !1264
  call void @llvm.dbg.declare(metadata ptr %rhs.dbg.spill, metadata !1272, metadata !DIExpression()), !dbg !1264
  store i64 -1, ptr %count.dbg.spill3, align 8, !dbg !1274
  call void @llvm.dbg.declare(metadata ptr %count.dbg.spill3, metadata !1281, metadata !DIExpression()), !dbg !1274
  call void @llvm.dbg.declare(metadata ptr %metadata.dbg.spill, metadata !1283, metadata !DIExpression()), !dbg !1290
  store ptr %ptr, ptr %ptr.dbg.spill, align 8, !dbg !1290
  call void @llvm.dbg.declare(metadata ptr %ptr.dbg.spill, metadata !1027, metadata !DIExpression()), !dbg !1300
  call void @llvm.dbg.declare(metadata ptr %ptr.dbg.spill, metadata !1301, metadata !DIExpression()), !dbg !1312
  call void @llvm.dbg.declare(metadata ptr %ptr.dbg.spill, metadata !1314, metadata !DIExpression()), !dbg !1329
  call void @llvm.dbg.declare(metadata ptr %ptr.dbg.spill, metadata !1308, metadata !DIExpression()), !dbg !1331
  call void @llvm.dbg.declare(metadata ptr %ptr.dbg.spill, metadata !1310, metadata !DIExpression()), !dbg !1333
  call void @llvm.dbg.declare(metadata ptr %make_custom.dbg.spill, metadata !1028, metadata !DIExpression()), !dbg !1335
  call void @llvm.dbg.declare(metadata ptr %bits, metadata !1029, metadata !DIExpression()), !dbg !1336
  call void @llvm.dbg.declare(metadata ptr %self, metadata !1116, metadata !DIExpression()), !dbg !1337
  call void @llvm.dbg.declare(metadata ptr %self4, metadata !1338, metadata !DIExpression()), !dbg !1346
  store i8 1, ptr %_25, align 1, !dbg !1348
  store ptr %ptr, ptr %self.dbg.spill5, align 8, !dbg !1349
  call void @llvm.dbg.declare(metadata ptr %self.dbg.spill5, metadata !1350, metadata !DIExpression()), !dbg !1356
  call void @llvm.dbg.declare(metadata ptr %self.dbg.spill5, metadata !1358, metadata !DIExpression()), !dbg !1365
  call void @llvm.dbg.declare(metadata ptr %self.dbg.spill5, metadata !1238, metadata !DIExpression()), !dbg !1367
  call void @llvm.dbg.declare(metadata ptr %self.dbg.spill5, metadata !1368, metadata !DIExpression()), !dbg !1376
  %8 = ptrtoint ptr %ptr to i64, !dbg !1378
  store i64 %8, ptr %bits, align 8, !dbg !1378
  %_6 = load i64, ptr %bits, align 8, !dbg !1379, !noundef !55
  %_5 = and i64 %_6, 3, !dbg !1379
  switch i64 %_5, label %bb1 [
    i64 2, label %bb2
    i64 3, label %bb3
    i64 0, label %bb5
    i64 1, label %bb6
  ], !dbg !1380

bb1:                                              ; preds = %start
; invoke core::panicking::panic
  invoke void @_ZN4core9panicking5panic17h59297120e85ea178E(ptr align 1 @alloc_a500d906b91607583596fa15e63c2ada, i64 40, ptr align 8 @alloc_5f9ca26e4863825896f7978e113f791b) #18
          to label %unreachable unwind label %cleanup, !dbg !1381

bb2:                                              ; preds = %start
  %_10 = load i64, ptr %bits, align 8, !dbg !1382, !noundef !55
  %_8 = ashr i64 %_10, 32, !dbg !1383
  %code = trunc i64 %_8 to i32, !dbg !1383
  store i32 %code, ptr %code.dbg.spill, align 4, !dbg !1383
  call void @llvm.dbg.declare(metadata ptr %code.dbg.spill, metadata !1031, metadata !DIExpression()), !dbg !1384
  %9 = getelementptr inbounds %"std::io::error::ErrorData<alloc::boxed::Box<std::io::error::Custom>>::Os", ptr %_0, i32 0, i32 1, !dbg !1385
  store i32 %code, ptr %9, align 4, !dbg !1385
  store i8 0, ptr %_0, align 8, !dbg !1385
  br label %bb8, !dbg !1386

bb3:                                              ; preds = %start
  %_13 = load i64, ptr %bits, align 8, !dbg !1387, !noundef !55
  %_12 = lshr i64 %_13, 32, !dbg !1388
  %kind_bits = trunc i64 %_12 to i32, !dbg !1388
  store i32 %kind_bits, ptr %kind_bits.dbg.spill, align 4, !dbg !1388
  call void @llvm.dbg.declare(metadata ptr %kind_bits.dbg.spill, metadata !1033, metadata !DIExpression()), !dbg !1389
; invoke std::io::error::repr_bitpacked::kind_from_prim
  %10 = invoke i8 @_ZN3std2io5error14repr_bitpacked14kind_from_prim17h9030b945cb21009bE(i32 %kind_bits)
          to label %bb4 unwind label %cleanup, !dbg !1390, !range !1391

bb5:                                              ; preds = %start
  store ptr %ptr, ptr %ptr.dbg.spill6, align 8, !dbg !1392
  call void @llvm.dbg.declare(metadata ptr %ptr.dbg.spill6, metadata !1393, metadata !DIExpression()), !dbg !1400
  store ptr %ptr, ptr %self4, align 8, !dbg !1402
  %11 = getelementptr inbounds %"std::io::error::ErrorData<alloc::boxed::Box<std::io::error::Custom>>::SimpleMessage", ptr %_0, i32 0, i32 1, !dbg !1403
  store ptr %ptr, ptr %11, align 8, !dbg !1403
  store i8 2, ptr %_0, align 8, !dbg !1403
  br label %bb8, !dbg !1404

bb6:                                              ; preds = %start
  store ptr %ptr, ptr %self.dbg.spill7, align 8, !dbg !1405
  call void @llvm.dbg.declare(metadata ptr %self.dbg.spill7, metadata !1247, metadata !DIExpression()), !dbg !1406
  call void @llvm.dbg.declare(metadata ptr %self.dbg.spill7, metadata !1280, metadata !DIExpression()), !dbg !1407
  %12 = getelementptr i8, ptr %ptr, i64 -1, !dbg !1408
  store ptr %12, ptr %0, align 8, !dbg !1408
  %_41 = load ptr, ptr %0, align 8, !dbg !1408, !noundef !55
  store ptr %_41, ptr %self.dbg.spill8, align 8, !dbg !1408
  call void @llvm.dbg.declare(metadata ptr %self.dbg.spill8, metadata !1297, metadata !DIExpression()), !dbg !1409
  store ptr %ptr, ptr %meta.dbg.spill, align 8, !dbg !1410
  call void @llvm.dbg.declare(metadata ptr %meta.dbg.spill, metadata !1298, metadata !DIExpression()), !dbg !1411
  call void @llvm.dbg.declare(metadata ptr %meta.dbg.spill, metadata !1412, metadata !DIExpression()), !dbg !1418
  store ptr %_41, ptr %data_pointer.dbg.spill, align 8, !dbg !1420
  call void @llvm.dbg.declare(metadata ptr %data_pointer.dbg.spill, metadata !1289, metadata !DIExpression()), !dbg !1421
  store ptr %_41, ptr %_45, align 8, !dbg !1422
  call void @llvm.memcpy.p0.p0.i64(ptr align 8 %_44, ptr align 8 %_45, i64 8, i1 false), !dbg !1423
  %self9 = load ptr, ptr %_44, align 8, !dbg !1423, !noundef !55
  store ptr %self9, ptr %self.dbg.spill10, align 8, !dbg !1423
  call void @llvm.dbg.declare(metadata ptr %self.dbg.spill10, metadata !1424, metadata !DIExpression()), !dbg !1432
  store ptr %self9, ptr %custom.dbg.spill, align 8, !dbg !1434
  call void @llvm.dbg.declare(metadata ptr %custom.dbg.spill, metadata !1037, metadata !DIExpression()), !dbg !1435
  store i8 0, ptr %_25, align 1, !dbg !1436
  store ptr %self9, ptr %_23, align 8, !dbg !1436
  %13 = load ptr, ptr %_23, align 8, !dbg !1436, !noundef !55
; invoke <std::io::error::repr_bitpacked::Repr as core::ops::drop::Drop>::drop::{{closure}}
  %_21 = invoke align 8 ptr @"_ZN78_$LT$std..io..error..repr_bitpacked..Repr$u20$as$u20$core..ops..drop..Drop$GT$4drop28_$u7b$$u7b$closure$u7d$$u7d$17h874a0519722cf1e6E"(ptr %13)
          to label %bb7 unwind label %cleanup, !dbg !1436

bb8:                                              ; preds = %bb7, %bb5, %bb4, %bb2
  %14 = load i8, ptr %_25, align 1, !dbg !1437, !range !1438, !noundef !55
  %15 = trunc i8 %14 to i1, !dbg !1437
  br i1 %15, label %bb11, label %bb9, !dbg !1437

bb13:                                             ; preds = %cleanup
  %16 = load i8, ptr %_25, align 1, !dbg !1437, !range !1438, !noundef !55
  %17 = trunc i8 %16 to i1, !dbg !1437
  br i1 %17, label %bb12, label %bb10, !dbg !1437

cleanup:                                          ; preds = %bb1, %bb6, %bb3
  %18 = landingpad { ptr, i32 }
          cleanup
  %19 = extractvalue { ptr, i32 } %18, 0
  %20 = extractvalue { ptr, i32 } %18, 1
  store ptr %19, ptr %1, align 8
  %21 = getelementptr inbounds i8, ptr %1, i64 8
  store i32 %20, ptr %21, align 8
  br label %bb13

bb4:                                              ; preds = %bb3
  store i8 %10, ptr %self, align 1, !dbg !1390
  store ptr %bits, ptr %f.dbg.spill, align 8, !dbg !1439
  call void @llvm.dbg.declare(metadata ptr %f.dbg.spill, metadata !1117, metadata !DIExpression()), !dbg !1440
  %22 = load i8, ptr %self, align 1, !dbg !1441, !range !1391, !noundef !55
  %23 = icmp eq i8 %22, 41, !dbg !1441
  %_27 = select i1 %23, i64 0, i64 1, !dbg !1441
  %_47 = icmp eq i64 %_27, 1, !dbg !1442
  call void @llvm.assume(i1 %_47), !dbg !1442
  %kind = load i8, ptr %self, align 1, !dbg !1443, !range !1444, !noundef !55
  store i8 %kind, ptr %kind.dbg.spill, align 1, !dbg !1443
  call void @llvm.dbg.declare(metadata ptr %kind.dbg.spill, metadata !1035, metadata !DIExpression()), !dbg !1445
  call void @llvm.dbg.declare(metadata ptr %kind.dbg.spill, metadata !1118, metadata !DIExpression()), !dbg !1446
  %24 = getelementptr inbounds %"std::io::error::ErrorData<alloc::boxed::Box<std::io::error::Custom>>::Simple", ptr %_0, i32 0, i32 1, !dbg !1447
  store i8 %kind, ptr %24, align 1, !dbg !1447
  store i8 1, ptr %_0, align 8, !dbg !1447
  br label %bb8, !dbg !1448

bb7:                                              ; preds = %bb6
  %25 = getelementptr inbounds %"std::io::error::ErrorData<alloc::boxed::Box<std::io::error::Custom>>::Custom", ptr %_0, i32 0, i32 1, !dbg !1449
  store ptr %_21, ptr %25, align 8, !dbg !1449
  store i8 3, ptr %_0, align 8, !dbg !1449
  br label %bb8, !dbg !1450

bb9:                                              ; preds = %bb11, %bb8
  ret void, !dbg !1451

bb11:                                             ; preds = %bb8
  br label %bb9, !dbg !1437

unreachable:                                      ; preds = %bb1
  unreachable

bb10:                                             ; preds = %bb12, %bb13
  %26 = load ptr, ptr %1, align 8, !dbg !1452, !noundef !55
  %27 = getelementptr inbounds i8, ptr %1, i64 8, !dbg !1452
  %28 = load i32, ptr %27, align 8, !dbg !1452, !noundef !55
  %29 = insertvalue { ptr, i32 } poison, ptr %26, 0, !dbg !1452
  %30 = insertvalue { ptr, i32 } %29, i32 %28, 1, !dbg !1452
  resume { ptr, i32 } %30, !dbg !1452

bb12:                                             ; preds = %bb13
  br label %bb10, !dbg !1437
}

; std::io::error::repr_bitpacked::decode_repr
; Function Attrs: inlinehint nonlazybind uwtable
define void @_ZN3std2io5error14repr_bitpacked11decode_repr17h93388b455bb7dee1E(ptr sret(%"std::io::error::ErrorData<&std::io::error::Custom>") align 8 %_0, ptr %ptr) unnamed_addr #0 personality ptr @rust_eh_personality !dbg !1453 {
start:
  %custom.dbg.spill = alloca ptr, align 8
  %self.dbg.spill10 = alloca ptr, align 8
  %data_pointer.dbg.spill = alloca ptr, align 8
  %meta.dbg.spill = alloca ptr, align 8
  %self.dbg.spill8 = alloca ptr, align 8
  %0 = alloca ptr, align 8
  %self.dbg.spill7 = alloca ptr, align 8
  %ptr.dbg.spill6 = alloca ptr, align 8
  %kind.dbg.spill = alloca i8, align 1
  %f.dbg.spill = alloca ptr, align 8
  %1 = alloca { ptr, i32, [1 x i32] }, align 8
  %kind_bits.dbg.spill = alloca i32, align 4
  %code.dbg.spill = alloca i32, align 4
  %self.dbg.spill5 = alloca ptr, align 8
  %make_custom.dbg.spill = alloca %"{closure@std::io::error::repr_bitpacked::Repr::data::{closure#0}}", align 1
  %ptr.dbg.spill = alloca ptr, align 8
  %_45 = alloca %"core::ptr::metadata::PtrComponents<()>", align 8
  %_44 = alloca %"core::ptr::metadata::PtrRepr<()>", align 8
  %_25 = alloca i8, align 1
  %_23 = alloca ptr, align 8
  %self4 = alloca ptr, align 8
  %self = alloca i8, align 1
  %bits = alloca i64, align 8
  %metadata.dbg.spill = alloca {}, align 1
  %count.dbg.spill3 = alloca i64, align 8
  %rhs.dbg.spill = alloca i64, align 8
  %self.dbg.spill2 = alloca i64, align 8
  %self.dbg.spill = alloca i64, align 8
  %count.dbg.spill1 = alloca i64, align 8
  %count.dbg.spill = alloca i64, align 8
  %_unsafe_arg.dbg.spill = alloca %"core::fmt::rt::UnsafeArg", align 1
  %width.dbg.spill = alloca %"core::fmt::rt::Count", align 8
  %precision.dbg.spill = alloca %"core::fmt::rt::Count", align 8
  %flags.dbg.spill = alloca i32, align 4
  %align.dbg.spill = alloca i8, align 1
  %fill.dbg.spill = alloca i32, align 4
  %position.dbg.spill = alloca i64, align 8
  store i64 0, ptr %position.dbg.spill, align 8, !dbg !1498
  call void @llvm.dbg.declare(metadata ptr %position.dbg.spill, metadata !1502, metadata !DIExpression()), !dbg !1498
  store i32 32, ptr %fill.dbg.spill, align 4, !dbg !1533
  call void @llvm.dbg.declare(metadata ptr %fill.dbg.spill, metadata !1503, metadata !DIExpression()), !dbg !1533
  store i8 3, ptr %align.dbg.spill, align 1, !dbg !1534
  call void @llvm.dbg.declare(metadata ptr %align.dbg.spill, metadata !1504, metadata !DIExpression()), !dbg !1534
  store i32 12, ptr %flags.dbg.spill, align 4, !dbg !1535
  call void @llvm.dbg.declare(metadata ptr %flags.dbg.spill, metadata !1505, metadata !DIExpression()), !dbg !1535
  %2 = load i64, ptr @0, align 8, !dbg !1535, !range !1124, !noundef !55
  %3 = load i64, ptr getelementptr inbounds (i8, ptr @0, i64 8), align 8, !dbg !1535
  store i64 %2, ptr %precision.dbg.spill, align 8, !dbg !1536
  %4 = getelementptr inbounds i8, ptr %precision.dbg.spill, i64 8, !dbg !1536
  store i64 %3, ptr %4, align 8, !dbg !1536
  call void @llvm.dbg.declare(metadata ptr %precision.dbg.spill, metadata !1506, metadata !DIExpression()), !dbg !1536
  %5 = load i64, ptr @1, align 8, !dbg !1536, !range !1124, !noundef !55
  %6 = load i64, ptr getelementptr inbounds (i8, ptr @1, i64 8), align 8, !dbg !1536
  store i64 %5, ptr %width.dbg.spill, align 8, !dbg !1537
  %7 = getelementptr inbounds i8, ptr %width.dbg.spill, i64 8, !dbg !1537
  store i64 %6, ptr %7, align 8, !dbg !1537
  call void @llvm.dbg.declare(metadata ptr %width.dbg.spill, metadata !1507, metadata !DIExpression()), !dbg !1537
  call void @llvm.dbg.declare(metadata ptr %_unsafe_arg.dbg.spill, metadata !1538, metadata !DIExpression()), !dbg !1545
  store i64 1, ptr %count.dbg.spill, align 8, !dbg !1546
  call void @llvm.dbg.declare(metadata ptr %count.dbg.spill, metadata !1551, metadata !DIExpression()), !dbg !1546
  store i64 1, ptr %count.dbg.spill1, align 8, !dbg !1553
  call void @llvm.dbg.declare(metadata ptr %count.dbg.spill1, metadata !1558, metadata !DIExpression()), !dbg !1553
  store i64 1, ptr %self.dbg.spill, align 8, !dbg !1560
  call void @llvm.dbg.declare(metadata ptr %self.dbg.spill, metadata !1565, metadata !DIExpression()), !dbg !1560
  store i64 0, ptr %self.dbg.spill2, align 8, !dbg !1567
  call void @llvm.dbg.declare(metadata ptr %self.dbg.spill2, metadata !1572, metadata !DIExpression()), !dbg !1567
  store i64 1, ptr %rhs.dbg.spill, align 8, !dbg !1567
  call void @llvm.dbg.declare(metadata ptr %rhs.dbg.spill, metadata !1573, metadata !DIExpression()), !dbg !1567
  store i64 -1, ptr %count.dbg.spill3, align 8, !dbg !1575
  call void @llvm.dbg.declare(metadata ptr %count.dbg.spill3, metadata !1580, metadata !DIExpression()), !dbg !1575
  call void @llvm.dbg.declare(metadata ptr %metadata.dbg.spill, metadata !1582, metadata !DIExpression()), !dbg !1587
  store ptr %ptr, ptr %ptr.dbg.spill, align 8, !dbg !1587
  call void @llvm.dbg.declare(metadata ptr %ptr.dbg.spill, metadata !1484, metadata !DIExpression()), !dbg !1595
  call void @llvm.dbg.declare(metadata ptr %ptr.dbg.spill, metadata !1596, metadata !DIExpression()), !dbg !1604
  call void @llvm.dbg.declare(metadata ptr %ptr.dbg.spill, metadata !1606, metadata !DIExpression()), !dbg !1610
  call void @llvm.dbg.declare(metadata ptr %ptr.dbg.spill, metadata !1600, metadata !DIExpression()), !dbg !1612
  call void @llvm.dbg.declare(metadata ptr %ptr.dbg.spill, metadata !1602, metadata !DIExpression()), !dbg !1614
  call void @llvm.dbg.declare(metadata ptr %make_custom.dbg.spill, metadata !1485, metadata !DIExpression()), !dbg !1616
  call void @llvm.dbg.declare(metadata ptr %bits, metadata !1486, metadata !DIExpression()), !dbg !1617
  call void @llvm.dbg.declare(metadata ptr %self, metadata !1528, metadata !DIExpression()), !dbg !1618
  call void @llvm.dbg.declare(metadata ptr %self4, metadata !1619, metadata !DIExpression()), !dbg !1623
  store i8 1, ptr %_25, align 1, !dbg !1625
  store ptr %ptr, ptr %self.dbg.spill5, align 8, !dbg !1626
  call void @llvm.dbg.declare(metadata ptr %self.dbg.spill5, metadata !1627, metadata !DIExpression()), !dbg !1631
  call void @llvm.dbg.declare(metadata ptr %self.dbg.spill5, metadata !1633, metadata !DIExpression()), !dbg !1637
  call void @llvm.dbg.declare(metadata ptr %self.dbg.spill5, metadata !1550, metadata !DIExpression()), !dbg !1639
  call void @llvm.dbg.declare(metadata ptr %self.dbg.spill5, metadata !1640, metadata !DIExpression()), !dbg !1644
  %8 = ptrtoint ptr %ptr to i64, !dbg !1646
  store i64 %8, ptr %bits, align 8, !dbg !1646
  %_6 = load i64, ptr %bits, align 8, !dbg !1647, !noundef !55
  %_5 = and i64 %_6, 3, !dbg !1647
  switch i64 %_5, label %bb1 [
    i64 2, label %bb2
    i64 3, label %bb3
    i64 0, label %bb5
    i64 1, label %bb6
  ], !dbg !1648

bb1:                                              ; preds = %start
; invoke core::panicking::panic
  invoke void @_ZN4core9panicking5panic17h59297120e85ea178E(ptr align 1 @alloc_a500d906b91607583596fa15e63c2ada, i64 40, ptr align 8 @alloc_5f9ca26e4863825896f7978e113f791b) #18
          to label %unreachable unwind label %cleanup, !dbg !1649

bb2:                                              ; preds = %start
  %_10 = load i64, ptr %bits, align 8, !dbg !1650, !noundef !55
  %_8 = ashr i64 %_10, 32, !dbg !1651
  %code = trunc i64 %_8 to i32, !dbg !1651
  store i32 %code, ptr %code.dbg.spill, align 4, !dbg !1651
  call void @llvm.dbg.declare(metadata ptr %code.dbg.spill, metadata !1488, metadata !DIExpression()), !dbg !1652
  %9 = getelementptr inbounds %"std::io::error::ErrorData<&std::io::error::Custom>::Os", ptr %_0, i32 0, i32 1, !dbg !1653
  store i32 %code, ptr %9, align 4, !dbg !1653
  store i8 0, ptr %_0, align 8, !dbg !1653
  br label %bb8, !dbg !1654

bb3:                                              ; preds = %start
  %_13 = load i64, ptr %bits, align 8, !dbg !1655, !noundef !55
  %_12 = lshr i64 %_13, 32, !dbg !1656
  %kind_bits = trunc i64 %_12 to i32, !dbg !1656
  store i32 %kind_bits, ptr %kind_bits.dbg.spill, align 4, !dbg !1656
  call void @llvm.dbg.declare(metadata ptr %kind_bits.dbg.spill, metadata !1490, metadata !DIExpression()), !dbg !1657
; invoke std::io::error::repr_bitpacked::kind_from_prim
  %10 = invoke i8 @_ZN3std2io5error14repr_bitpacked14kind_from_prim17h9030b945cb21009bE(i32 %kind_bits)
          to label %bb4 unwind label %cleanup, !dbg !1658, !range !1391

bb5:                                              ; preds = %start
  store ptr %ptr, ptr %ptr.dbg.spill6, align 8, !dbg !1659
  call void @llvm.dbg.declare(metadata ptr %ptr.dbg.spill6, metadata !1660, metadata !DIExpression()), !dbg !1664
  store ptr %ptr, ptr %self4, align 8, !dbg !1666
  %11 = getelementptr inbounds %"std::io::error::ErrorData<&std::io::error::Custom>::SimpleMessage", ptr %_0, i32 0, i32 1, !dbg !1667
  store ptr %ptr, ptr %11, align 8, !dbg !1667
  store i8 2, ptr %_0, align 8, !dbg !1667
  br label %bb8, !dbg !1668

bb6:                                              ; preds = %start
  store ptr %ptr, ptr %self.dbg.spill7, align 8, !dbg !1669
  call void @llvm.dbg.declare(metadata ptr %self.dbg.spill7, metadata !1557, metadata !DIExpression()), !dbg !1670
  call void @llvm.dbg.declare(metadata ptr %self.dbg.spill7, metadata !1579, metadata !DIExpression()), !dbg !1671
  %12 = getelementptr i8, ptr %ptr, i64 -1, !dbg !1672
  store ptr %12, ptr %0, align 8, !dbg !1672
  %_41 = load ptr, ptr %0, align 8, !dbg !1672, !noundef !55
  store ptr %_41, ptr %self.dbg.spill8, align 8, !dbg !1672
  call void @llvm.dbg.declare(metadata ptr %self.dbg.spill8, metadata !1592, metadata !DIExpression()), !dbg !1673
  store ptr %ptr, ptr %meta.dbg.spill, align 8, !dbg !1674
  call void @llvm.dbg.declare(metadata ptr %meta.dbg.spill, metadata !1593, metadata !DIExpression()), !dbg !1675
  call void @llvm.dbg.declare(metadata ptr %meta.dbg.spill, metadata !1676, metadata !DIExpression()), !dbg !1680
  store ptr %_41, ptr %data_pointer.dbg.spill, align 8, !dbg !1682
  call void @llvm.dbg.declare(metadata ptr %data_pointer.dbg.spill, metadata !1586, metadata !DIExpression()), !dbg !1683
  store ptr %_41, ptr %_45, align 8, !dbg !1684
  call void @llvm.memcpy.p0.p0.i64(ptr align 8 %_44, ptr align 8 %_45, i64 8, i1 false), !dbg !1685
  %self9 = load ptr, ptr %_44, align 8, !dbg !1685, !noundef !55
  store ptr %self9, ptr %self.dbg.spill10, align 8, !dbg !1685
  call void @llvm.dbg.declare(metadata ptr %self.dbg.spill10, metadata !1686, metadata !DIExpression()), !dbg !1690
  store ptr %self9, ptr %custom.dbg.spill, align 8, !dbg !1692
  call void @llvm.dbg.declare(metadata ptr %custom.dbg.spill, metadata !1494, metadata !DIExpression()), !dbg !1693
  store i8 0, ptr %_25, align 1, !dbg !1694
  store ptr %self9, ptr %_23, align 8, !dbg !1694
  %13 = load ptr, ptr %_23, align 8, !dbg !1694, !noundef !55
; invoke std::io::error::repr_bitpacked::Repr::data::{{closure}}
  %_21 = invoke align 8 ptr @"_ZN3std2io5error14repr_bitpacked4Repr4data28_$u7b$$u7b$closure$u7d$$u7d$17h8a6bb11f000771f3E"(ptr %13)
          to label %bb7 unwind label %cleanup, !dbg !1694

bb8:                                              ; preds = %bb7, %bb5, %bb4, %bb2
  %14 = load i8, ptr %_25, align 1, !dbg !1695, !range !1438, !noundef !55
  %15 = trunc i8 %14 to i1, !dbg !1695
  br i1 %15, label %bb11, label %bb9, !dbg !1695

bb13:                                             ; preds = %cleanup
  %16 = load i8, ptr %_25, align 1, !dbg !1695, !range !1438, !noundef !55
  %17 = trunc i8 %16 to i1, !dbg !1695
  br i1 %17, label %bb12, label %bb10, !dbg !1695

cleanup:                                          ; preds = %bb1, %bb6, %bb3
  %18 = landingpad { ptr, i32 }
          cleanup
  %19 = extractvalue { ptr, i32 } %18, 0
  %20 = extractvalue { ptr, i32 } %18, 1
  store ptr %19, ptr %1, align 8
  %21 = getelementptr inbounds i8, ptr %1, i64 8
  store i32 %20, ptr %21, align 8
  br label %bb13

bb4:                                              ; preds = %bb3
  store i8 %10, ptr %self, align 1, !dbg !1658
  store ptr %bits, ptr %f.dbg.spill, align 8, !dbg !1696
  call void @llvm.dbg.declare(metadata ptr %f.dbg.spill, metadata !1529, metadata !DIExpression()), !dbg !1697
  %22 = load i8, ptr %self, align 1, !dbg !1698, !range !1391, !noundef !55
  %23 = icmp eq i8 %22, 41, !dbg !1698
  %_27 = select i1 %23, i64 0, i64 1, !dbg !1698
  %_47 = icmp eq i64 %_27, 1, !dbg !1699
  call void @llvm.assume(i1 %_47), !dbg !1699
  %kind = load i8, ptr %self, align 1, !dbg !1700, !range !1444, !noundef !55
  store i8 %kind, ptr %kind.dbg.spill, align 1, !dbg !1700
  call void @llvm.dbg.declare(metadata ptr %kind.dbg.spill, metadata !1492, metadata !DIExpression()), !dbg !1701
  call void @llvm.dbg.declare(metadata ptr %kind.dbg.spill, metadata !1530, metadata !DIExpression()), !dbg !1702
  %24 = getelementptr inbounds %"std::io::error::ErrorData<&std::io::error::Custom>::Simple", ptr %_0, i32 0, i32 1, !dbg !1703
  store i8 %kind, ptr %24, align 1, !dbg !1703
  store i8 1, ptr %_0, align 8, !dbg !1703
  br label %bb8, !dbg !1704

bb7:                                              ; preds = %bb6
  %25 = getelementptr inbounds %"std::io::error::ErrorData<&std::io::error::Custom>::Custom", ptr %_0, i32 0, i32 1, !dbg !1705
  store ptr %_21, ptr %25, align 8, !dbg !1705
  store i8 3, ptr %_0, align 8, !dbg !1705
  br label %bb8, !dbg !1706

bb9:                                              ; preds = %bb11, %bb8
  ret void, !dbg !1707

bb11:                                             ; preds = %bb8
  br label %bb9, !dbg !1695

unreachable:                                      ; preds = %bb1
  unreachable

bb10:                                             ; preds = %bb12, %bb13
  %26 = load ptr, ptr %1, align 8, !dbg !1708, !noundef !55
  %27 = getelementptr inbounds i8, ptr %1, i64 8, !dbg !1708
  %28 = load i32, ptr %27, align 8, !dbg !1708, !noundef !55
  %29 = insertvalue { ptr, i32 } poison, ptr %26, 0, !dbg !1708
  %30 = insertvalue { ptr, i32 } %29, i32 %28, 1, !dbg !1708
  resume { ptr, i32 } %30, !dbg !1708

bb12:                                             ; preds = %bb13
  br label %bb10, !dbg !1695
}

; std::io::error::repr_bitpacked::kind_from_prim
; Function Attrs: inlinehint nonlazybind uwtable
define internal i8 @_ZN3std2io5error14repr_bitpacked14kind_from_prim17h9030b945cb21009bE(i32 %0) unnamed_addr #0 !dbg !1709 {
start:
  %v.dbg.spill121 = alloca i32, align 4
  %v.dbg.spill119 = alloca ptr, align 8
  %v.dbg.spill118 = alloca i32, align 4
  %v.dbg.spill116 = alloca ptr, align 8
  %v.dbg.spill115 = alloca i32, align 4
  %v.dbg.spill113 = alloca ptr, align 8
  %v.dbg.spill112 = alloca i32, align 4
  %v.dbg.spill110 = alloca ptr, align 8
  %v.dbg.spill109 = alloca i32, align 4
  %v.dbg.spill107 = alloca ptr, align 8
  %v.dbg.spill106 = alloca i32, align 4
  %v.dbg.spill104 = alloca ptr, align 8
  %v.dbg.spill103 = alloca i32, align 4
  %v.dbg.spill101 = alloca ptr, align 8
  %v.dbg.spill100 = alloca i32, align 4
  %v.dbg.spill98 = alloca ptr, align 8
  %v.dbg.spill97 = alloca i32, align 4
  %v.dbg.spill95 = alloca ptr, align 8
  %v.dbg.spill94 = alloca i32, align 4
  %v.dbg.spill92 = alloca ptr, align 8
  %v.dbg.spill91 = alloca i32, align 4
  %v.dbg.spill89 = alloca ptr, align 8
  %v.dbg.spill88 = alloca i32, align 4
  %v.dbg.spill86 = alloca ptr, align 8
  %v.dbg.spill85 = alloca i32, align 4
  %v.dbg.spill83 = alloca ptr, align 8
  %v.dbg.spill82 = alloca i32, align 4
  %v.dbg.spill80 = alloca ptr, align 8
  %v.dbg.spill79 = alloca i32, align 4
  %v.dbg.spill77 = alloca ptr, align 8
  %v.dbg.spill76 = alloca i32, align 4
  %v.dbg.spill74 = alloca ptr, align 8
  %v.dbg.spill73 = alloca i32, align 4
  %v.dbg.spill71 = alloca ptr, align 8
  %v.dbg.spill70 = alloca i32, align 4
  %v.dbg.spill68 = alloca ptr, align 8
  %v.dbg.spill67 = alloca i32, align 4
  %v.dbg.spill65 = alloca ptr, align 8
  %v.dbg.spill64 = alloca i32, align 4
  %v.dbg.spill62 = alloca ptr, align 8
  %v.dbg.spill61 = alloca i32, align 4
  %v.dbg.spill59 = alloca ptr, align 8
  %v.dbg.spill58 = alloca i32, align 4
  %v.dbg.spill56 = alloca ptr, align 8
  %v.dbg.spill55 = alloca i32, align 4
  %v.dbg.spill53 = alloca ptr, align 8
  %v.dbg.spill52 = alloca i32, align 4
  %v.dbg.spill50 = alloca ptr, align 8
  %v.dbg.spill49 = alloca i32, align 4
  %v.dbg.spill47 = alloca ptr, align 8
  %v.dbg.spill46 = alloca i32, align 4
  %v.dbg.spill44 = alloca ptr, align 8
  %v.dbg.spill43 = alloca i32, align 4
  %v.dbg.spill41 = alloca ptr, align 8
  %v.dbg.spill40 = alloca i32, align 4
  %v.dbg.spill38 = alloca ptr, align 8
  %v.dbg.spill37 = alloca i32, align 4
  %v.dbg.spill35 = alloca ptr, align 8
  %v.dbg.spill34 = alloca i32, align 4
  %v.dbg.spill32 = alloca ptr, align 8
  %v.dbg.spill31 = alloca i32, align 4
  %v.dbg.spill29 = alloca ptr, align 8
  %v.dbg.spill28 = alloca i32, align 4
  %v.dbg.spill26 = alloca ptr, align 8
  %v.dbg.spill25 = alloca i32, align 4
  %v.dbg.spill23 = alloca ptr, align 8
  %v.dbg.spill22 = alloca i32, align 4
  %v.dbg.spill20 = alloca ptr, align 8
  %v.dbg.spill19 = alloca i32, align 4
  %v.dbg.spill17 = alloca ptr, align 8
  %v.dbg.spill16 = alloca i32, align 4
  %v.dbg.spill14 = alloca ptr, align 8
  %v.dbg.spill13 = alloca i32, align 4
  %v.dbg.spill11 = alloca ptr, align 8
  %v.dbg.spill10 = alloca i32, align 4
  %v.dbg.spill8 = alloca ptr, align 8
  %v.dbg.spill7 = alloca i32, align 4
  %v.dbg.spill5 = alloca ptr, align 8
  %v.dbg.spill4 = alloca i32, align 4
  %v.dbg.spill2 = alloca ptr, align 8
  %v.dbg.spill1 = alloca i32, align 4
  %v.dbg.spill = alloca ptr, align 8
  %_0 = alloca i8, align 1
  %ek = alloca i32, align 4
  store i32 %0, ptr %ek, align 4
  call void @llvm.dbg.declare(metadata ptr %ek, metadata !1713, metadata !DIExpression()), !dbg !1838
  store ptr %ek, ptr %v.dbg.spill, align 8, !dbg !1839
  call void @llvm.dbg.declare(metadata ptr %v.dbg.spill, metadata !1716, metadata !DIExpression()), !dbg !1840
  %_4 = load i32, ptr %ek, align 4, !dbg !1839, !noundef !55
  %1 = icmp eq i32 %_4, 0, !dbg !1839
  br i1 %1, label %bb1, label %bb2, !dbg !1839

bb1:                                              ; preds = %start
  %v = load i32, ptr %ek, align 4, !dbg !1839, !noundef !55
  store i32 %v, ptr %v.dbg.spill1, align 4, !dbg !1839
  call void @llvm.dbg.declare(metadata ptr %v.dbg.spill1, metadata !1714, metadata !DIExpression()), !dbg !1840
  store i8 0, ptr %_0, align 1, !dbg !1840
  br label %bb83, !dbg !1839

bb2:                                              ; preds = %start
  store ptr %ek, ptr %v.dbg.spill2, align 8, !dbg !1839
  call void @llvm.dbg.declare(metadata ptr %v.dbg.spill2, metadata !1720, metadata !DIExpression()), !dbg !1841
  %_7 = load i32, ptr %ek, align 4, !dbg !1839, !noundef !55
  %2 = icmp eq i32 %_7, 1, !dbg !1839
  br i1 %2, label %bb3, label %bb4, !dbg !1839

bb83:                                             ; preds = %bb82, %bb81, %bb79, %bb77, %bb75, %bb73, %bb71, %bb69, %bb67, %bb65, %bb63, %bb61, %bb59, %bb57, %bb55, %bb53, %bb51, %bb49, %bb47, %bb45, %bb43, %bb41, %bb39, %bb37, %bb35, %bb33, %bb31, %bb29, %bb27, %bb25, %bb23, %bb21, %bb19, %bb17, %bb15, %bb13, %bb11, %bb9, %bb7, %bb5, %bb3, %bb1
  %3 = load i8, ptr %_0, align 1, !dbg !1842, !range !1391, !noundef !55
  ret i8 %3, !dbg !1842

bb3:                                              ; preds = %bb2
  %v3 = load i32, ptr %ek, align 4, !dbg !1839, !noundef !55
  store i32 %v3, ptr %v.dbg.spill4, align 4, !dbg !1839
  call void @llvm.dbg.declare(metadata ptr %v.dbg.spill4, metadata !1718, metadata !DIExpression()), !dbg !1841
  store i8 1, ptr %_0, align 1, !dbg !1841
  br label %bb83, !dbg !1839

bb4:                                              ; preds = %bb2
  store ptr %ek, ptr %v.dbg.spill5, align 8, !dbg !1839
  call void @llvm.dbg.declare(metadata ptr %v.dbg.spill5, metadata !1723, metadata !DIExpression()), !dbg !1843
  %_10 = load i32, ptr %ek, align 4, !dbg !1839, !noundef !55
  %4 = icmp eq i32 %_10, 2, !dbg !1839
  br i1 %4, label %bb5, label %bb6, !dbg !1839

bb5:                                              ; preds = %bb4
  %v6 = load i32, ptr %ek, align 4, !dbg !1839, !noundef !55
  store i32 %v6, ptr %v.dbg.spill7, align 4, !dbg !1839
  call void @llvm.dbg.declare(metadata ptr %v.dbg.spill7, metadata !1721, metadata !DIExpression()), !dbg !1843
  store i8 2, ptr %_0, align 1, !dbg !1843
  br label %bb83, !dbg !1839

bb6:                                              ; preds = %bb4
  store ptr %ek, ptr %v.dbg.spill8, align 8, !dbg !1839
  call void @llvm.dbg.declare(metadata ptr %v.dbg.spill8, metadata !1726, metadata !DIExpression()), !dbg !1844
  %_13 = load i32, ptr %ek, align 4, !dbg !1839, !noundef !55
  %5 = icmp eq i32 %_13, 3, !dbg !1839
  br i1 %5, label %bb7, label %bb8, !dbg !1839

bb7:                                              ; preds = %bb6
  %v9 = load i32, ptr %ek, align 4, !dbg !1839, !noundef !55
  store i32 %v9, ptr %v.dbg.spill10, align 4, !dbg !1839
  call void @llvm.dbg.declare(metadata ptr %v.dbg.spill10, metadata !1724, metadata !DIExpression()), !dbg !1844
  store i8 3, ptr %_0, align 1, !dbg !1844
  br label %bb83, !dbg !1839

bb8:                                              ; preds = %bb6
  store ptr %ek, ptr %v.dbg.spill11, align 8, !dbg !1839
  call void @llvm.dbg.declare(metadata ptr %v.dbg.spill11, metadata !1729, metadata !DIExpression()), !dbg !1845
  %_16 = load i32, ptr %ek, align 4, !dbg !1839, !noundef !55
  %6 = icmp eq i32 %_16, 4, !dbg !1839
  br i1 %6, label %bb9, label %bb10, !dbg !1839

bb9:                                              ; preds = %bb8
  %v12 = load i32, ptr %ek, align 4, !dbg !1839, !noundef !55
  store i32 %v12, ptr %v.dbg.spill13, align 4, !dbg !1839
  call void @llvm.dbg.declare(metadata ptr %v.dbg.spill13, metadata !1727, metadata !DIExpression()), !dbg !1845
  store i8 4, ptr %_0, align 1, !dbg !1845
  br label %bb83, !dbg !1839

bb10:                                             ; preds = %bb8
  store ptr %ek, ptr %v.dbg.spill14, align 8, !dbg !1839
  call void @llvm.dbg.declare(metadata ptr %v.dbg.spill14, metadata !1732, metadata !DIExpression()), !dbg !1846
  %_19 = load i32, ptr %ek, align 4, !dbg !1839, !noundef !55
  %7 = icmp eq i32 %_19, 5, !dbg !1839
  br i1 %7, label %bb11, label %bb12, !dbg !1839

bb11:                                             ; preds = %bb10
  %v15 = load i32, ptr %ek, align 4, !dbg !1839, !noundef !55
  store i32 %v15, ptr %v.dbg.spill16, align 4, !dbg !1839
  call void @llvm.dbg.declare(metadata ptr %v.dbg.spill16, metadata !1730, metadata !DIExpression()), !dbg !1846
  store i8 5, ptr %_0, align 1, !dbg !1846
  br label %bb83, !dbg !1839

bb12:                                             ; preds = %bb10
  store ptr %ek, ptr %v.dbg.spill17, align 8, !dbg !1839
  call void @llvm.dbg.declare(metadata ptr %v.dbg.spill17, metadata !1735, metadata !DIExpression()), !dbg !1847
  %_22 = load i32, ptr %ek, align 4, !dbg !1839, !noundef !55
  %8 = icmp eq i32 %_22, 6, !dbg !1839
  br i1 %8, label %bb13, label %bb14, !dbg !1839

bb13:                                             ; preds = %bb12
  %v18 = load i32, ptr %ek, align 4, !dbg !1839, !noundef !55
  store i32 %v18, ptr %v.dbg.spill19, align 4, !dbg !1839
  call void @llvm.dbg.declare(metadata ptr %v.dbg.spill19, metadata !1733, metadata !DIExpression()), !dbg !1847
  store i8 6, ptr %_0, align 1, !dbg !1847
  br label %bb83, !dbg !1839

bb14:                                             ; preds = %bb12
  store ptr %ek, ptr %v.dbg.spill20, align 8, !dbg !1839
  call void @llvm.dbg.declare(metadata ptr %v.dbg.spill20, metadata !1738, metadata !DIExpression()), !dbg !1848
  %_25 = load i32, ptr %ek, align 4, !dbg !1839, !noundef !55
  %9 = icmp eq i32 %_25, 7, !dbg !1839
  br i1 %9, label %bb15, label %bb16, !dbg !1839

bb15:                                             ; preds = %bb14
  %v21 = load i32, ptr %ek, align 4, !dbg !1839, !noundef !55
  store i32 %v21, ptr %v.dbg.spill22, align 4, !dbg !1839
  call void @llvm.dbg.declare(metadata ptr %v.dbg.spill22, metadata !1736, metadata !DIExpression()), !dbg !1848
  store i8 7, ptr %_0, align 1, !dbg !1848
  br label %bb83, !dbg !1839

bb16:                                             ; preds = %bb14
  store ptr %ek, ptr %v.dbg.spill23, align 8, !dbg !1839
  call void @llvm.dbg.declare(metadata ptr %v.dbg.spill23, metadata !1741, metadata !DIExpression()), !dbg !1849
  %_28 = load i32, ptr %ek, align 4, !dbg !1839, !noundef !55
  %10 = icmp eq i32 %_28, 8, !dbg !1839
  br i1 %10, label %bb17, label %bb18, !dbg !1839

bb17:                                             ; preds = %bb16
  %v24 = load i32, ptr %ek, align 4, !dbg !1839, !noundef !55
  store i32 %v24, ptr %v.dbg.spill25, align 4, !dbg !1839
  call void @llvm.dbg.declare(metadata ptr %v.dbg.spill25, metadata !1739, metadata !DIExpression()), !dbg !1849
  store i8 8, ptr %_0, align 1, !dbg !1849
  br label %bb83, !dbg !1839

bb18:                                             ; preds = %bb16
  store ptr %ek, ptr %v.dbg.spill26, align 8, !dbg !1839
  call void @llvm.dbg.declare(metadata ptr %v.dbg.spill26, metadata !1744, metadata !DIExpression()), !dbg !1850
  %_31 = load i32, ptr %ek, align 4, !dbg !1839, !noundef !55
  %11 = icmp eq i32 %_31, 9, !dbg !1839
  br i1 %11, label %bb19, label %bb20, !dbg !1839

bb19:                                             ; preds = %bb18
  %v27 = load i32, ptr %ek, align 4, !dbg !1839, !noundef !55
  store i32 %v27, ptr %v.dbg.spill28, align 4, !dbg !1839
  call void @llvm.dbg.declare(metadata ptr %v.dbg.spill28, metadata !1742, metadata !DIExpression()), !dbg !1850
  store i8 9, ptr %_0, align 1, !dbg !1850
  br label %bb83, !dbg !1839

bb20:                                             ; preds = %bb18
  store ptr %ek, ptr %v.dbg.spill29, align 8, !dbg !1839
  call void @llvm.dbg.declare(metadata ptr %v.dbg.spill29, metadata !1747, metadata !DIExpression()), !dbg !1851
  %_34 = load i32, ptr %ek, align 4, !dbg !1839, !noundef !55
  %12 = icmp eq i32 %_34, 10, !dbg !1839
  br i1 %12, label %bb21, label %bb22, !dbg !1839

bb21:                                             ; preds = %bb20
  %v30 = load i32, ptr %ek, align 4, !dbg !1839, !noundef !55
  store i32 %v30, ptr %v.dbg.spill31, align 4, !dbg !1839
  call void @llvm.dbg.declare(metadata ptr %v.dbg.spill31, metadata !1745, metadata !DIExpression()), !dbg !1851
  store i8 10, ptr %_0, align 1, !dbg !1851
  br label %bb83, !dbg !1839

bb22:                                             ; preds = %bb20
  store ptr %ek, ptr %v.dbg.spill32, align 8, !dbg !1839
  call void @llvm.dbg.declare(metadata ptr %v.dbg.spill32, metadata !1750, metadata !DIExpression()), !dbg !1852
  %_37 = load i32, ptr %ek, align 4, !dbg !1839, !noundef !55
  %13 = icmp eq i32 %_37, 11, !dbg !1839
  br i1 %13, label %bb23, label %bb24, !dbg !1839

bb23:                                             ; preds = %bb22
  %v33 = load i32, ptr %ek, align 4, !dbg !1839, !noundef !55
  store i32 %v33, ptr %v.dbg.spill34, align 4, !dbg !1839
  call void @llvm.dbg.declare(metadata ptr %v.dbg.spill34, metadata !1748, metadata !DIExpression()), !dbg !1852
  store i8 11, ptr %_0, align 1, !dbg !1852
  br label %bb83, !dbg !1839

bb24:                                             ; preds = %bb22
  store ptr %ek, ptr %v.dbg.spill35, align 8, !dbg !1839
  call void @llvm.dbg.declare(metadata ptr %v.dbg.spill35, metadata !1753, metadata !DIExpression()), !dbg !1853
  %_40 = load i32, ptr %ek, align 4, !dbg !1839, !noundef !55
  %14 = icmp eq i32 %_40, 12, !dbg !1839
  br i1 %14, label %bb25, label %bb26, !dbg !1839

bb25:                                             ; preds = %bb24
  %v36 = load i32, ptr %ek, align 4, !dbg !1839, !noundef !55
  store i32 %v36, ptr %v.dbg.spill37, align 4, !dbg !1839
  call void @llvm.dbg.declare(metadata ptr %v.dbg.spill37, metadata !1751, metadata !DIExpression()), !dbg !1853
  store i8 12, ptr %_0, align 1, !dbg !1853
  br label %bb83, !dbg !1839

bb26:                                             ; preds = %bb24
  store ptr %ek, ptr %v.dbg.spill38, align 8, !dbg !1839
  call void @llvm.dbg.declare(metadata ptr %v.dbg.spill38, metadata !1756, metadata !DIExpression()), !dbg !1854
  %_43 = load i32, ptr %ek, align 4, !dbg !1839, !noundef !55
  %15 = icmp eq i32 %_43, 13, !dbg !1839
  br i1 %15, label %bb27, label %bb28, !dbg !1839

bb27:                                             ; preds = %bb26
  %v39 = load i32, ptr %ek, align 4, !dbg !1839, !noundef !55
  store i32 %v39, ptr %v.dbg.spill40, align 4, !dbg !1839
  call void @llvm.dbg.declare(metadata ptr %v.dbg.spill40, metadata !1754, metadata !DIExpression()), !dbg !1854
  store i8 13, ptr %_0, align 1, !dbg !1854
  br label %bb83, !dbg !1839

bb28:                                             ; preds = %bb26
  store ptr %ek, ptr %v.dbg.spill41, align 8, !dbg !1839
  call void @llvm.dbg.declare(metadata ptr %v.dbg.spill41, metadata !1759, metadata !DIExpression()), !dbg !1855
  %_46 = load i32, ptr %ek, align 4, !dbg !1839, !noundef !55
  %16 = icmp eq i32 %_46, 14, !dbg !1839
  br i1 %16, label %bb29, label %bb30, !dbg !1839

bb29:                                             ; preds = %bb28
  %v42 = load i32, ptr %ek, align 4, !dbg !1839, !noundef !55
  store i32 %v42, ptr %v.dbg.spill43, align 4, !dbg !1839
  call void @llvm.dbg.declare(metadata ptr %v.dbg.spill43, metadata !1757, metadata !DIExpression()), !dbg !1855
  store i8 14, ptr %_0, align 1, !dbg !1855
  br label %bb83, !dbg !1839

bb30:                                             ; preds = %bb28
  store ptr %ek, ptr %v.dbg.spill44, align 8, !dbg !1839
  call void @llvm.dbg.declare(metadata ptr %v.dbg.spill44, metadata !1762, metadata !DIExpression()), !dbg !1856
  %_49 = load i32, ptr %ek, align 4, !dbg !1839, !noundef !55
  %17 = icmp eq i32 %_49, 15, !dbg !1839
  br i1 %17, label %bb31, label %bb32, !dbg !1839

bb31:                                             ; preds = %bb30
  %v45 = load i32, ptr %ek, align 4, !dbg !1839, !noundef !55
  store i32 %v45, ptr %v.dbg.spill46, align 4, !dbg !1839
  call void @llvm.dbg.declare(metadata ptr %v.dbg.spill46, metadata !1760, metadata !DIExpression()), !dbg !1856
  store i8 15, ptr %_0, align 1, !dbg !1856
  br label %bb83, !dbg !1839

bb32:                                             ; preds = %bb30
  store ptr %ek, ptr %v.dbg.spill47, align 8, !dbg !1839
  call void @llvm.dbg.declare(metadata ptr %v.dbg.spill47, metadata !1765, metadata !DIExpression()), !dbg !1857
  %_52 = load i32, ptr %ek, align 4, !dbg !1839, !noundef !55
  %18 = icmp eq i32 %_52, 16, !dbg !1839
  br i1 %18, label %bb33, label %bb34, !dbg !1839

bb33:                                             ; preds = %bb32
  %v48 = load i32, ptr %ek, align 4, !dbg !1839, !noundef !55
  store i32 %v48, ptr %v.dbg.spill49, align 4, !dbg !1839
  call void @llvm.dbg.declare(metadata ptr %v.dbg.spill49, metadata !1763, metadata !DIExpression()), !dbg !1857
  store i8 16, ptr %_0, align 1, !dbg !1857
  br label %bb83, !dbg !1839

bb34:                                             ; preds = %bb32
  store ptr %ek, ptr %v.dbg.spill50, align 8, !dbg !1839
  call void @llvm.dbg.declare(metadata ptr %v.dbg.spill50, metadata !1768, metadata !DIExpression()), !dbg !1858
  %_55 = load i32, ptr %ek, align 4, !dbg !1839, !noundef !55
  %19 = icmp eq i32 %_55, 17, !dbg !1839
  br i1 %19, label %bb35, label %bb36, !dbg !1839

bb35:                                             ; preds = %bb34
  %v51 = load i32, ptr %ek, align 4, !dbg !1839, !noundef !55
  store i32 %v51, ptr %v.dbg.spill52, align 4, !dbg !1839
  call void @llvm.dbg.declare(metadata ptr %v.dbg.spill52, metadata !1766, metadata !DIExpression()), !dbg !1858
  store i8 17, ptr %_0, align 1, !dbg !1858
  br label %bb83, !dbg !1839

bb36:                                             ; preds = %bb34
  store ptr %ek, ptr %v.dbg.spill53, align 8, !dbg !1839
  call void @llvm.dbg.declare(metadata ptr %v.dbg.spill53, metadata !1771, metadata !DIExpression()), !dbg !1859
  %_58 = load i32, ptr %ek, align 4, !dbg !1839, !noundef !55
  %20 = icmp eq i32 %_58, 18, !dbg !1839
  br i1 %20, label %bb37, label %bb38, !dbg !1839

bb37:                                             ; preds = %bb36
  %v54 = load i32, ptr %ek, align 4, !dbg !1839, !noundef !55
  store i32 %v54, ptr %v.dbg.spill55, align 4, !dbg !1839
  call void @llvm.dbg.declare(metadata ptr %v.dbg.spill55, metadata !1769, metadata !DIExpression()), !dbg !1859
  store i8 18, ptr %_0, align 1, !dbg !1859
  br label %bb83, !dbg !1839

bb38:                                             ; preds = %bb36
  store ptr %ek, ptr %v.dbg.spill56, align 8, !dbg !1839
  call void @llvm.dbg.declare(metadata ptr %v.dbg.spill56, metadata !1774, metadata !DIExpression()), !dbg !1860
  %_61 = load i32, ptr %ek, align 4, !dbg !1839, !noundef !55
  %21 = icmp eq i32 %_61, 19, !dbg !1839
  br i1 %21, label %bb39, label %bb40, !dbg !1839

bb39:                                             ; preds = %bb38
  %v57 = load i32, ptr %ek, align 4, !dbg !1839, !noundef !55
  store i32 %v57, ptr %v.dbg.spill58, align 4, !dbg !1839
  call void @llvm.dbg.declare(metadata ptr %v.dbg.spill58, metadata !1772, metadata !DIExpression()), !dbg !1860
  store i8 19, ptr %_0, align 1, !dbg !1860
  br label %bb83, !dbg !1839

bb40:                                             ; preds = %bb38
  store ptr %ek, ptr %v.dbg.spill59, align 8, !dbg !1839
  call void @llvm.dbg.declare(metadata ptr %v.dbg.spill59, metadata !1777, metadata !DIExpression()), !dbg !1861
  %_64 = load i32, ptr %ek, align 4, !dbg !1839, !noundef !55
  %22 = icmp eq i32 %_64, 20, !dbg !1839
  br i1 %22, label %bb41, label %bb42, !dbg !1839

bb41:                                             ; preds = %bb40
  %v60 = load i32, ptr %ek, align 4, !dbg !1839, !noundef !55
  store i32 %v60, ptr %v.dbg.spill61, align 4, !dbg !1839
  call void @llvm.dbg.declare(metadata ptr %v.dbg.spill61, metadata !1775, metadata !DIExpression()), !dbg !1861
  store i8 20, ptr %_0, align 1, !dbg !1861
  br label %bb83, !dbg !1839

bb42:                                             ; preds = %bb40
  store ptr %ek, ptr %v.dbg.spill62, align 8, !dbg !1839
  call void @llvm.dbg.declare(metadata ptr %v.dbg.spill62, metadata !1780, metadata !DIExpression()), !dbg !1862
  %_67 = load i32, ptr %ek, align 4, !dbg !1839, !noundef !55
  %23 = icmp eq i32 %_67, 21, !dbg !1839
  br i1 %23, label %bb43, label %bb44, !dbg !1839

bb43:                                             ; preds = %bb42
  %v63 = load i32, ptr %ek, align 4, !dbg !1839, !noundef !55
  store i32 %v63, ptr %v.dbg.spill64, align 4, !dbg !1839
  call void @llvm.dbg.declare(metadata ptr %v.dbg.spill64, metadata !1778, metadata !DIExpression()), !dbg !1862
  store i8 21, ptr %_0, align 1, !dbg !1862
  br label %bb83, !dbg !1839

bb44:                                             ; preds = %bb42
  store ptr %ek, ptr %v.dbg.spill65, align 8, !dbg !1839
  call void @llvm.dbg.declare(metadata ptr %v.dbg.spill65, metadata !1783, metadata !DIExpression()), !dbg !1863
  %_70 = load i32, ptr %ek, align 4, !dbg !1839, !noundef !55
  %24 = icmp eq i32 %_70, 22, !dbg !1839
  br i1 %24, label %bb45, label %bb46, !dbg !1839

bb45:                                             ; preds = %bb44
  %v66 = load i32, ptr %ek, align 4, !dbg !1839, !noundef !55
  store i32 %v66, ptr %v.dbg.spill67, align 4, !dbg !1839
  call void @llvm.dbg.declare(metadata ptr %v.dbg.spill67, metadata !1781, metadata !DIExpression()), !dbg !1863
  store i8 22, ptr %_0, align 1, !dbg !1863
  br label %bb83, !dbg !1839

bb46:                                             ; preds = %bb44
  store ptr %ek, ptr %v.dbg.spill68, align 8, !dbg !1839
  call void @llvm.dbg.declare(metadata ptr %v.dbg.spill68, metadata !1786, metadata !DIExpression()), !dbg !1864
  %_73 = load i32, ptr %ek, align 4, !dbg !1839, !noundef !55
  %25 = icmp eq i32 %_73, 23, !dbg !1839
  br i1 %25, label %bb47, label %bb48, !dbg !1839

bb47:                                             ; preds = %bb46
  %v69 = load i32, ptr %ek, align 4, !dbg !1839, !noundef !55
  store i32 %v69, ptr %v.dbg.spill70, align 4, !dbg !1839
  call void @llvm.dbg.declare(metadata ptr %v.dbg.spill70, metadata !1784, metadata !DIExpression()), !dbg !1864
  store i8 23, ptr %_0, align 1, !dbg !1864
  br label %bb83, !dbg !1839

bb48:                                             ; preds = %bb46
  store ptr %ek, ptr %v.dbg.spill71, align 8, !dbg !1839
  call void @llvm.dbg.declare(metadata ptr %v.dbg.spill71, metadata !1789, metadata !DIExpression()), !dbg !1865
  %_76 = load i32, ptr %ek, align 4, !dbg !1839, !noundef !55
  %26 = icmp eq i32 %_76, 24, !dbg !1839
  br i1 %26, label %bb49, label %bb50, !dbg !1839

bb49:                                             ; preds = %bb48
  %v72 = load i32, ptr %ek, align 4, !dbg !1839, !noundef !55
  store i32 %v72, ptr %v.dbg.spill73, align 4, !dbg !1839
  call void @llvm.dbg.declare(metadata ptr %v.dbg.spill73, metadata !1787, metadata !DIExpression()), !dbg !1865
  store i8 24, ptr %_0, align 1, !dbg !1865
  br label %bb83, !dbg !1839

bb50:                                             ; preds = %bb48
  store ptr %ek, ptr %v.dbg.spill74, align 8, !dbg !1839
  call void @llvm.dbg.declare(metadata ptr %v.dbg.spill74, metadata !1792, metadata !DIExpression()), !dbg !1866
  %_79 = load i32, ptr %ek, align 4, !dbg !1839, !noundef !55
  %27 = icmp eq i32 %_79, 25, !dbg !1839
  br i1 %27, label %bb51, label %bb52, !dbg !1839

bb51:                                             ; preds = %bb50
  %v75 = load i32, ptr %ek, align 4, !dbg !1839, !noundef !55
  store i32 %v75, ptr %v.dbg.spill76, align 4, !dbg !1839
  call void @llvm.dbg.declare(metadata ptr %v.dbg.spill76, metadata !1790, metadata !DIExpression()), !dbg !1866
  store i8 25, ptr %_0, align 1, !dbg !1866
  br label %bb83, !dbg !1839

bb52:                                             ; preds = %bb50
  store ptr %ek, ptr %v.dbg.spill77, align 8, !dbg !1839
  call void @llvm.dbg.declare(metadata ptr %v.dbg.spill77, metadata !1795, metadata !DIExpression()), !dbg !1867
  %_82 = load i32, ptr %ek, align 4, !dbg !1839, !noundef !55
  %28 = icmp eq i32 %_82, 26, !dbg !1839
  br i1 %28, label %bb53, label %bb54, !dbg !1839

bb53:                                             ; preds = %bb52
  %v78 = load i32, ptr %ek, align 4, !dbg !1839, !noundef !55
  store i32 %v78, ptr %v.dbg.spill79, align 4, !dbg !1839
  call void @llvm.dbg.declare(metadata ptr %v.dbg.spill79, metadata !1793, metadata !DIExpression()), !dbg !1867
  store i8 26, ptr %_0, align 1, !dbg !1867
  br label %bb83, !dbg !1839

bb54:                                             ; preds = %bb52
  store ptr %ek, ptr %v.dbg.spill80, align 8, !dbg !1839
  call void @llvm.dbg.declare(metadata ptr %v.dbg.spill80, metadata !1798, metadata !DIExpression()), !dbg !1868
  %_85 = load i32, ptr %ek, align 4, !dbg !1839, !noundef !55
  %29 = icmp eq i32 %_85, 27, !dbg !1839
  br i1 %29, label %bb55, label %bb56, !dbg !1839

bb55:                                             ; preds = %bb54
  %v81 = load i32, ptr %ek, align 4, !dbg !1839, !noundef !55
  store i32 %v81, ptr %v.dbg.spill82, align 4, !dbg !1839
  call void @llvm.dbg.declare(metadata ptr %v.dbg.spill82, metadata !1796, metadata !DIExpression()), !dbg !1868
  store i8 27, ptr %_0, align 1, !dbg !1868
  br label %bb83, !dbg !1839

bb56:                                             ; preds = %bb54
  store ptr %ek, ptr %v.dbg.spill83, align 8, !dbg !1839
  call void @llvm.dbg.declare(metadata ptr %v.dbg.spill83, metadata !1801, metadata !DIExpression()), !dbg !1869
  %_88 = load i32, ptr %ek, align 4, !dbg !1839, !noundef !55
  %30 = icmp eq i32 %_88, 28, !dbg !1839
  br i1 %30, label %bb57, label %bb58, !dbg !1839

bb57:                                             ; preds = %bb56
  %v84 = load i32, ptr %ek, align 4, !dbg !1839, !noundef !55
  store i32 %v84, ptr %v.dbg.spill85, align 4, !dbg !1839
  call void @llvm.dbg.declare(metadata ptr %v.dbg.spill85, metadata !1799, metadata !DIExpression()), !dbg !1869
  store i8 28, ptr %_0, align 1, !dbg !1869
  br label %bb83, !dbg !1839

bb58:                                             ; preds = %bb56
  store ptr %ek, ptr %v.dbg.spill86, align 8, !dbg !1839
  call void @llvm.dbg.declare(metadata ptr %v.dbg.spill86, metadata !1804, metadata !DIExpression()), !dbg !1870
  %_91 = load i32, ptr %ek, align 4, !dbg !1839, !noundef !55
  %31 = icmp eq i32 %_91, 29, !dbg !1839
  br i1 %31, label %bb59, label %bb60, !dbg !1839

bb59:                                             ; preds = %bb58
  %v87 = load i32, ptr %ek, align 4, !dbg !1839, !noundef !55
  store i32 %v87, ptr %v.dbg.spill88, align 4, !dbg !1839
  call void @llvm.dbg.declare(metadata ptr %v.dbg.spill88, metadata !1802, metadata !DIExpression()), !dbg !1870
  store i8 29, ptr %_0, align 1, !dbg !1870
  br label %bb83, !dbg !1839

bb60:                                             ; preds = %bb58
  store ptr %ek, ptr %v.dbg.spill89, align 8, !dbg !1839
  call void @llvm.dbg.declare(metadata ptr %v.dbg.spill89, metadata !1807, metadata !DIExpression()), !dbg !1871
  %_94 = load i32, ptr %ek, align 4, !dbg !1839, !noundef !55
  %32 = icmp eq i32 %_94, 30, !dbg !1839
  br i1 %32, label %bb61, label %bb62, !dbg !1839

bb61:                                             ; preds = %bb60
  %v90 = load i32, ptr %ek, align 4, !dbg !1839, !noundef !55
  store i32 %v90, ptr %v.dbg.spill91, align 4, !dbg !1839
  call void @llvm.dbg.declare(metadata ptr %v.dbg.spill91, metadata !1805, metadata !DIExpression()), !dbg !1871
  store i8 30, ptr %_0, align 1, !dbg !1871
  br label %bb83, !dbg !1839

bb62:                                             ; preds = %bb60
  store ptr %ek, ptr %v.dbg.spill92, align 8, !dbg !1839
  call void @llvm.dbg.declare(metadata ptr %v.dbg.spill92, metadata !1810, metadata !DIExpression()), !dbg !1872
  %_97 = load i32, ptr %ek, align 4, !dbg !1839, !noundef !55
  %33 = icmp eq i32 %_97, 31, !dbg !1839
  br i1 %33, label %bb63, label %bb64, !dbg !1839

bb63:                                             ; preds = %bb62
  %v93 = load i32, ptr %ek, align 4, !dbg !1839, !noundef !55
  store i32 %v93, ptr %v.dbg.spill94, align 4, !dbg !1839
  call void @llvm.dbg.declare(metadata ptr %v.dbg.spill94, metadata !1808, metadata !DIExpression()), !dbg !1872
  store i8 31, ptr %_0, align 1, !dbg !1872
  br label %bb83, !dbg !1839

bb64:                                             ; preds = %bb62
  store ptr %ek, ptr %v.dbg.spill95, align 8, !dbg !1839
  call void @llvm.dbg.declare(metadata ptr %v.dbg.spill95, metadata !1813, metadata !DIExpression()), !dbg !1873
  %_100 = load i32, ptr %ek, align 4, !dbg !1839, !noundef !55
  %34 = icmp eq i32 %_100, 32, !dbg !1839
  br i1 %34, label %bb65, label %bb66, !dbg !1839

bb65:                                             ; preds = %bb64
  %v96 = load i32, ptr %ek, align 4, !dbg !1839, !noundef !55
  store i32 %v96, ptr %v.dbg.spill97, align 4, !dbg !1839
  call void @llvm.dbg.declare(metadata ptr %v.dbg.spill97, metadata !1811, metadata !DIExpression()), !dbg !1873
  store i8 32, ptr %_0, align 1, !dbg !1873
  br label %bb83, !dbg !1839

bb66:                                             ; preds = %bb64
  store ptr %ek, ptr %v.dbg.spill98, align 8, !dbg !1839
  call void @llvm.dbg.declare(metadata ptr %v.dbg.spill98, metadata !1816, metadata !DIExpression()), !dbg !1874
  %_103 = load i32, ptr %ek, align 4, !dbg !1839, !noundef !55
  %35 = icmp eq i32 %_103, 33, !dbg !1839
  br i1 %35, label %bb67, label %bb68, !dbg !1839

bb67:                                             ; preds = %bb66
  %v99 = load i32, ptr %ek, align 4, !dbg !1839, !noundef !55
  store i32 %v99, ptr %v.dbg.spill100, align 4, !dbg !1839
  call void @llvm.dbg.declare(metadata ptr %v.dbg.spill100, metadata !1814, metadata !DIExpression()), !dbg !1874
  store i8 33, ptr %_0, align 1, !dbg !1874
  br label %bb83, !dbg !1839

bb68:                                             ; preds = %bb66
  store ptr %ek, ptr %v.dbg.spill101, align 8, !dbg !1839
  call void @llvm.dbg.declare(metadata ptr %v.dbg.spill101, metadata !1819, metadata !DIExpression()), !dbg !1875
  %_106 = load i32, ptr %ek, align 4, !dbg !1839, !noundef !55
  %36 = icmp eq i32 %_106, 34, !dbg !1839
  br i1 %36, label %bb69, label %bb70, !dbg !1839

bb69:                                             ; preds = %bb68
  %v102 = load i32, ptr %ek, align 4, !dbg !1839, !noundef !55
  store i32 %v102, ptr %v.dbg.spill103, align 4, !dbg !1839
  call void @llvm.dbg.declare(metadata ptr %v.dbg.spill103, metadata !1817, metadata !DIExpression()), !dbg !1875
  store i8 34, ptr %_0, align 1, !dbg !1875
  br label %bb83, !dbg !1839

bb70:                                             ; preds = %bb68
  store ptr %ek, ptr %v.dbg.spill104, align 8, !dbg !1839
  call void @llvm.dbg.declare(metadata ptr %v.dbg.spill104, metadata !1822, metadata !DIExpression()), !dbg !1876
  %_109 = load i32, ptr %ek, align 4, !dbg !1839, !noundef !55
  %37 = icmp eq i32 %_109, 35, !dbg !1839
  br i1 %37, label %bb71, label %bb72, !dbg !1839

bb71:                                             ; preds = %bb70
  %v105 = load i32, ptr %ek, align 4, !dbg !1839, !noundef !55
  store i32 %v105, ptr %v.dbg.spill106, align 4, !dbg !1839
  call void @llvm.dbg.declare(metadata ptr %v.dbg.spill106, metadata !1820, metadata !DIExpression()), !dbg !1876
  store i8 35, ptr %_0, align 1, !dbg !1876
  br label %bb83, !dbg !1839

bb72:                                             ; preds = %bb70
  store ptr %ek, ptr %v.dbg.spill107, align 8, !dbg !1839
  call void @llvm.dbg.declare(metadata ptr %v.dbg.spill107, metadata !1825, metadata !DIExpression()), !dbg !1877
  %_112 = load i32, ptr %ek, align 4, !dbg !1839, !noundef !55
  %38 = icmp eq i32 %_112, 39, !dbg !1839
  br i1 %38, label %bb73, label %bb74, !dbg !1839

bb73:                                             ; preds = %bb72
  %v108 = load i32, ptr %ek, align 4, !dbg !1839, !noundef !55
  store i32 %v108, ptr %v.dbg.spill109, align 4, !dbg !1839
  call void @llvm.dbg.declare(metadata ptr %v.dbg.spill109, metadata !1823, metadata !DIExpression()), !dbg !1877
  store i8 39, ptr %_0, align 1, !dbg !1877
  br label %bb83, !dbg !1839

bb74:                                             ; preds = %bb72
  store ptr %ek, ptr %v.dbg.spill110, align 8, !dbg !1839
  call void @llvm.dbg.declare(metadata ptr %v.dbg.spill110, metadata !1828, metadata !DIExpression()), !dbg !1878
  %_115 = load i32, ptr %ek, align 4, !dbg !1839, !noundef !55
  %39 = icmp eq i32 %_115, 37, !dbg !1839
  br i1 %39, label %bb75, label %bb76, !dbg !1839

bb75:                                             ; preds = %bb74
  %v111 = load i32, ptr %ek, align 4, !dbg !1839, !noundef !55
  store i32 %v111, ptr %v.dbg.spill112, align 4, !dbg !1839
  call void @llvm.dbg.declare(metadata ptr %v.dbg.spill112, metadata !1826, metadata !DIExpression()), !dbg !1878
  store i8 37, ptr %_0, align 1, !dbg !1878
  br label %bb83, !dbg !1839

bb76:                                             ; preds = %bb74
  store ptr %ek, ptr %v.dbg.spill113, align 8, !dbg !1839
  call void @llvm.dbg.declare(metadata ptr %v.dbg.spill113, metadata !1831, metadata !DIExpression()), !dbg !1879
  %_118 = load i32, ptr %ek, align 4, !dbg !1839, !noundef !55
  %40 = icmp eq i32 %_118, 36, !dbg !1839
  br i1 %40, label %bb77, label %bb78, !dbg !1839

bb77:                                             ; preds = %bb76
  %v114 = load i32, ptr %ek, align 4, !dbg !1839, !noundef !55
  store i32 %v114, ptr %v.dbg.spill115, align 4, !dbg !1839
  call void @llvm.dbg.declare(metadata ptr %v.dbg.spill115, metadata !1829, metadata !DIExpression()), !dbg !1879
  store i8 36, ptr %_0, align 1, !dbg !1879
  br label %bb83, !dbg !1839

bb78:                                             ; preds = %bb76
  store ptr %ek, ptr %v.dbg.spill116, align 8, !dbg !1839
  call void @llvm.dbg.declare(metadata ptr %v.dbg.spill116, metadata !1834, metadata !DIExpression()), !dbg !1880
  %_121 = load i32, ptr %ek, align 4, !dbg !1839, !noundef !55
  %41 = icmp eq i32 %_121, 38, !dbg !1839
  br i1 %41, label %bb79, label %bb80, !dbg !1839

bb79:                                             ; preds = %bb78
  %v117 = load i32, ptr %ek, align 4, !dbg !1839, !noundef !55
  store i32 %v117, ptr %v.dbg.spill118, align 4, !dbg !1839
  call void @llvm.dbg.declare(metadata ptr %v.dbg.spill118, metadata !1832, metadata !DIExpression()), !dbg !1880
  store i8 38, ptr %_0, align 1, !dbg !1880
  br label %bb83, !dbg !1839

bb80:                                             ; preds = %bb78
  store ptr %ek, ptr %v.dbg.spill119, align 8, !dbg !1839
  call void @llvm.dbg.declare(metadata ptr %v.dbg.spill119, metadata !1837, metadata !DIExpression()), !dbg !1881
  %_124 = load i32, ptr %ek, align 4, !dbg !1839, !noundef !55
  %42 = icmp eq i32 %_124, 40, !dbg !1839
  br i1 %42, label %bb81, label %bb82, !dbg !1839

bb81:                                             ; preds = %bb80
  %v120 = load i32, ptr %ek, align 4, !dbg !1839, !noundef !55
  store i32 %v120, ptr %v.dbg.spill121, align 4, !dbg !1839
  call void @llvm.dbg.declare(metadata ptr %v.dbg.spill121, metadata !1835, metadata !DIExpression()), !dbg !1881
  store i8 40, ptr %_0, align 1, !dbg !1881
  br label %bb83, !dbg !1839

bb82:                                             ; preds = %bb80
  store i8 41, ptr %_0, align 1, !dbg !1839
  br label %bb83, !dbg !1839
}

; std::io::error::repr_bitpacked::Repr::data::{{closure}}
; Function Attrs: inlinehint nonlazybind uwtable
define align 8 ptr @"_ZN3std2io5error14repr_bitpacked4Repr4data28_$u7b$$u7b$closure$u7d$$u7d$17h8a6bb11f000771f3E"(ptr %c) unnamed_addr #0 !dbg !1882 {
start:
  %c.dbg.spill = alloca ptr, align 8
  %_1.dbg.spill = alloca %"{closure@std::io::error::repr_bitpacked::Repr::data::{closure#0}}", align 1
  call void @llvm.dbg.declare(metadata ptr %_1.dbg.spill, metadata !1887, metadata !DIExpression()), !dbg !1888
  store ptr %c, ptr %c.dbg.spill, align 8
  call void @llvm.dbg.declare(metadata ptr %c.dbg.spill, metadata !1886, metadata !DIExpression()), !dbg !1889
  ret ptr %c, !dbg !1890
}

; std::io::error::Error::raw_os_error
; Function Attrs: inlinehint nonlazybind uwtable
define internal { i32, i32 } @_ZN3std2io5error5Error12raw_os_error17h0d36b3c54f34fd1bE(ptr align 8 %self) unnamed_addr #0 !dbg !1891 {
start:
  %i.dbg.spill = alloca i32, align 4
  %self.dbg.spill1 = alloca ptr, align 8
  %self.dbg.spill = alloca ptr, align 8
  %_2 = alloca %"std::io::error::ErrorData<&std::io::error::Custom>", align 8
  %_0 = alloca %"core::option::Option<i32>", align 4
  store ptr %self, ptr %self.dbg.spill, align 8
  call void @llvm.dbg.declare(metadata ptr %self.dbg.spill, metadata !1911, metadata !DIExpression()), !dbg !1914
  store ptr %self, ptr %self.dbg.spill1, align 8, !dbg !1915
  call void @llvm.dbg.declare(metadata ptr %self.dbg.spill1, metadata !1916, metadata !DIExpression()), !dbg !1924
  %_6 = load ptr, ptr %self, align 8, !dbg !1926, !nonnull !55, !noundef !55
; call std::io::error::repr_bitpacked::decode_repr
  call void @_ZN3std2io5error14repr_bitpacked11decode_repr17h93388b455bb7dee1E(ptr sret(%"std::io::error::ErrorData<&std::io::error::Custom>") align 8 %_2, ptr %_6), !dbg !1927
  %0 = load i8, ptr %_2, align 8, !dbg !1915, !range !1928, !noundef !55
  %_4 = zext i8 %0 to i64, !dbg !1915
  switch i64 %_4, label %bb7 [
    i64 0, label %bb2
    i64 1, label %bb4
    i64 2, label %bb1
    i64 3, label %bb3
  ], !dbg !1929

bb7:                                              ; preds = %start
  unreachable, !dbg !1929

bb2:                                              ; preds = %start
  %1 = getelementptr inbounds %"std::io::error::ErrorData<&std::io::error::Custom>::Os", ptr %_2, i32 0, i32 1, !dbg !1930
  %i = load i32, ptr %1, align 4, !dbg !1930, !noundef !55
  store i32 %i, ptr %i.dbg.spill, align 4, !dbg !1930
  call void @llvm.dbg.declare(metadata ptr %i.dbg.spill, metadata !1912, metadata !DIExpression()), !dbg !1931
  %2 = getelementptr inbounds i8, ptr %_0, i64 4, !dbg !1932
  store i32 %i, ptr %2, align 4, !dbg !1932
  store i32 1, ptr %_0, align 4, !dbg !1932
  br label %bb5, !dbg !1933

bb4:                                              ; preds = %start
  %3 = load i32, ptr @2, align 4, !dbg !1934, !range !1935, !noundef !55
  %4 = load i32, ptr getelementptr inbounds (i8, ptr @2, i64 4), align 4, !dbg !1934
  store i32 %3, ptr %_0, align 4, !dbg !1934
  %5 = getelementptr inbounds i8, ptr %_0, i64 4, !dbg !1934
  store i32 %4, ptr %5, align 4, !dbg !1934
  br label %bb5, !dbg !1934

bb1:                                              ; preds = %start
  %6 = load i32, ptr @2, align 4, !dbg !1936, !range !1935, !noundef !55
  %7 = load i32, ptr getelementptr inbounds (i8, ptr @2, i64 4), align 4, !dbg !1936
  store i32 %6, ptr %_0, align 4, !dbg !1936
  %8 = getelementptr inbounds i8, ptr %_0, i64 4, !dbg !1936
  store i32 %7, ptr %8, align 4, !dbg !1936
  br label %bb5, !dbg !1936

bb3:                                              ; preds = %start
  %9 = load i32, ptr @2, align 4, !dbg !1937, !range !1935, !noundef !55
  %10 = load i32, ptr getelementptr inbounds (i8, ptr @2, i64 4), align 4, !dbg !1937
  store i32 %9, ptr %_0, align 4, !dbg !1937
  %11 = getelementptr inbounds i8, ptr %_0, i64 4, !dbg !1937
  store i32 %10, ptr %11, align 4, !dbg !1937
  br label %bb5, !dbg !1937

bb5:                                              ; preds = %bb3, %bb1, %bb4, %bb2
  %12 = load i32, ptr %_0, align 4, !dbg !1938, !range !1935, !noundef !55
  %13 = getelementptr inbounds i8, ptr %_0, i64 4, !dbg !1938
  %14 = load i32, ptr %13, align 4, !dbg !1938
  %15 = insertvalue { i32, i32 } poison, i32 %12, 0, !dbg !1938
  %16 = insertvalue { i32, i32 } %15, i32 %14, 1, !dbg !1938
  ret { i32, i32 } %16, !dbg !1938
}

; std::io::error::Error::last_os_error
; Function Attrs: inlinehint nonlazybind uwtable
define internal ptr @_ZN3std2io5error5Error13last_os_error17hb4fc7d516a00160dE() unnamed_addr #0 !dbg !1939 {
start:
  %ptr.dbg.spill = alloca ptr, align 8
  %utagged.dbg.spill = alloca i64, align 8
  %code.dbg.spill = alloca i32, align 4
  %_6 = alloca ptr, align 8
  %res = alloca ptr, align 8
  %_0 = alloca ptr, align 8
  call void @llvm.dbg.declare(metadata ptr %res, metadata !1943, metadata !DIExpression()), !dbg !1959
; call std::sys::pal::unix::os::errno
  %code = call i32 @_ZN3std3sys3pal4unix2os5errno17ha40215d60a2401b3E(), !dbg !1969
  store i32 %code, ptr %code.dbg.spill, align 4, !dbg !1969
  call void @llvm.dbg.declare(metadata ptr %code.dbg.spill, metadata !1967, metadata !DIExpression()), !dbg !1970
  call void @llvm.dbg.declare(metadata ptr %code.dbg.spill, metadata !1952, metadata !DIExpression()), !dbg !1971
  %_5 = sext i32 %code to i64, !dbg !1972
  %_4 = shl i64 %_5, 32, !dbg !1973
  %utagged = or i64 %_4, 2, !dbg !1973
  store i64 %utagged, ptr %utagged.dbg.spill, align 8, !dbg !1973
  call void @llvm.dbg.declare(metadata ptr %utagged.dbg.spill, metadata !1953, metadata !DIExpression()), !dbg !1974
  call void @llvm.dbg.declare(metadata ptr %utagged.dbg.spill, metadata !1975, metadata !DIExpression()), !dbg !1981
  %ptr = inttoptr i64 %utagged to ptr, !dbg !1983
  store ptr %ptr, ptr %ptr.dbg.spill, align 8, !dbg !1983
  call void @llvm.dbg.declare(metadata ptr %ptr.dbg.spill, metadata !1984, metadata !DIExpression()), !dbg !1991
  store ptr %ptr, ptr %_6, align 8, !dbg !1993
  %0 = load ptr, ptr %_6, align 8, !dbg !1994, !nonnull !55, !noundef !55
  store ptr %0, ptr %res, align 8, !dbg !1994
  %1 = load ptr, ptr %res, align 8, !dbg !1995, !nonnull !55, !noundef !55
  store ptr %1, ptr %_0, align 8, !dbg !1995
  %2 = load ptr, ptr %_0, align 8, !dbg !1996, !nonnull !55, !noundef !55
  ret ptr %2, !dbg !1996
}

; std::io::error::Error::from_raw_os_error
; Function Attrs: inlinehint nonlazybind uwtable
define internal ptr @_ZN3std2io5error5Error17from_raw_os_error17haf9796e491dbfd61E(i32 %code) unnamed_addr #0 !dbg !1997 {
start:
  %ptr.dbg.spill = alloca ptr, align 8
  %utagged.dbg.spill = alloca i64, align 8
  %code.dbg.spill = alloca i32, align 4
  %_6 = alloca ptr, align 8
  %res = alloca ptr, align 8
  %_0 = alloca ptr, align 8
  store i32 %code, ptr %code.dbg.spill, align 4
  call void @llvm.dbg.declare(metadata ptr %code.dbg.spill, metadata !1999, metadata !DIExpression()), !dbg !2000
  call void @llvm.dbg.declare(metadata ptr %code.dbg.spill, metadata !2001, metadata !DIExpression()), !dbg !2013
  call void @llvm.dbg.declare(metadata ptr %res, metadata !2007, metadata !DIExpression()), !dbg !2015
  %_5 = sext i32 %code to i64, !dbg !2016
  %_4 = shl i64 %_5, 32, !dbg !2017
  %utagged = or i64 %_4, 2, !dbg !2017
  store i64 %utagged, ptr %utagged.dbg.spill, align 8, !dbg !2017
  call void @llvm.dbg.declare(metadata ptr %utagged.dbg.spill, metadata !2005, metadata !DIExpression()), !dbg !2018
  call void @llvm.dbg.declare(metadata ptr %utagged.dbg.spill, metadata !2019, metadata !DIExpression()), !dbg !2023
  %ptr = inttoptr i64 %utagged to ptr, !dbg !2025
  store ptr %ptr, ptr %ptr.dbg.spill, align 8, !dbg !2025
  call void @llvm.dbg.declare(metadata ptr %ptr.dbg.spill, metadata !2026, metadata !DIExpression()), !dbg !2030
  store ptr %ptr, ptr %_6, align 8, !dbg !2032
  %0 = load ptr, ptr %_6, align 8, !dbg !2033, !nonnull !55, !noundef !55
  store ptr %0, ptr %res, align 8, !dbg !2033
  %1 = load ptr, ptr %res, align 8, !dbg !2034, !nonnull !55, !noundef !55
  store ptr %1, ptr %_0, align 8, !dbg !2034
  %2 = load ptr, ptr %_0, align 8, !dbg !2035, !nonnull !55, !noundef !55
  ret ptr %2, !dbg !2035
}

; std::io::error::Error::new
; Function Attrs: noinline nonlazybind uwtable
define ptr @_ZN3std2io5error5Error3new17h59f922e55135e435E(i8 %kind, ptr align 1 %error.0, i64 %error.1) unnamed_addr #2 !dbg !2036 {
start:
  %error.dbg.spill = alloca { ptr, i64 }, align 8
  %kind.dbg.spill = alloca i8, align 1
  store i8 %kind, ptr %kind.dbg.spill, align 1
  call void @llvm.dbg.declare(metadata ptr %kind.dbg.spill, metadata !2043, metadata !DIExpression()), !dbg !2045
  store ptr %error.0, ptr %error.dbg.spill, align 8
  %0 = getelementptr inbounds i8, ptr %error.dbg.spill, i64 8
  store i64 %error.1, ptr %0, align 8
  call void @llvm.dbg.declare(metadata ptr %error.dbg.spill, metadata !2044, metadata !DIExpression()), !dbg !2046
; call <T as core::convert::Into<U>>::into
  %1 = call { ptr, ptr } @"_ZN50_$LT$T$u20$as$u20$core..convert..Into$LT$U$GT$$GT$4into17hc530ddf9aace56daE"(ptr align 1 %error.0, i64 %error.1, ptr align 8 @alloc_82fe2ea15d0cad6cf90c1cf9f0b7608b), !dbg !2047
  %_3.0 = extractvalue { ptr, ptr } %1, 0, !dbg !2047
  %_3.1 = extractvalue { ptr, ptr } %1, 1, !dbg !2047
; call std::io::error::Error::_new
  %_0 = call ptr @_ZN3std2io5error5Error4_new17h658e13663352b034E(i8 %kind, ptr align 1 %_3.0, ptr align 8 %_3.1), !dbg !2048
  ret ptr %_0, !dbg !2049
}

; std::io::error::Error::kind
; Function Attrs: inlinehint nonlazybind uwtable
define internal i8 @_ZN3std2io5error5Error4kind17h7ac6691824721134E(ptr align 8 %self) unnamed_addr #0 !dbg !2050 {
start:
  %c.dbg.spill = alloca ptr, align 8
  %m.dbg.spill = alloca ptr, align 8
  %kind.dbg.spill = alloca i8, align 1
  %code.dbg.spill = alloca i32, align 4
  %self.dbg.spill1 = alloca ptr, align 8
  %self.dbg.spill = alloca ptr, align 8
  %_2 = alloca %"std::io::error::ErrorData<&std::io::error::Custom>", align 8
  %_0 = alloca i8, align 1
  store ptr %self, ptr %self.dbg.spill, align 8
  call void @llvm.dbg.declare(metadata ptr %self.dbg.spill, metadata !2055, metadata !DIExpression()), !dbg !2064
  store ptr %self, ptr %self.dbg.spill1, align 8, !dbg !2065
  call void @llvm.dbg.declare(metadata ptr %self.dbg.spill1, metadata !2066, metadata !DIExpression()), !dbg !2070
  %_9 = load ptr, ptr %self, align 8, !dbg !2072, !nonnull !55, !noundef !55
; call std::io::error::repr_bitpacked::decode_repr
  call void @_ZN3std2io5error14repr_bitpacked11decode_repr17h93388b455bb7dee1E(ptr sret(%"std::io::error::ErrorData<&std::io::error::Custom>") align 8 %_2, ptr %_9), !dbg !2073
  %0 = load i8, ptr %_2, align 8, !dbg !2065, !range !1928, !noundef !55
  %_4 = zext i8 %0 to i64, !dbg !2065
  switch i64 %_4, label %bb7 [
    i64 0, label %bb2
    i64 1, label %bb4
    i64 2, label %bb1
    i64 3, label %bb3
  ], !dbg !2074

bb7:                                              ; preds = %start
  unreachable, !dbg !2074

bb2:                                              ; preds = %start
  %1 = getelementptr inbounds %"std::io::error::ErrorData<&std::io::error::Custom>::Os", ptr %_2, i32 0, i32 1, !dbg !2075
  %code = load i32, ptr %1, align 4, !dbg !2075, !noundef !55
  store i32 %code, ptr %code.dbg.spill, align 4, !dbg !2075
  call void @llvm.dbg.declare(metadata ptr %code.dbg.spill, metadata !2056, metadata !DIExpression()), !dbg !2076
; call std::sys::pal::unix::decode_error_kind
  %2 = call i8 @_ZN3std3sys3pal4unix17decode_error_kind17h717d02a3601427e5E(i32 %code), !dbg !2077, !range !1444
  store i8 %2, ptr %_0, align 1, !dbg !2077
  br label %bb5, !dbg !2077

bb4:                                              ; preds = %start
  %3 = getelementptr inbounds %"std::io::error::ErrorData<&std::io::error::Custom>::Simple", ptr %_2, i32 0, i32 1, !dbg !2078
  %kind = load i8, ptr %3, align 1, !dbg !2078, !range !1444, !noundef !55
  store i8 %kind, ptr %kind.dbg.spill, align 1, !dbg !2078
  call void @llvm.dbg.declare(metadata ptr %kind.dbg.spill, metadata !2060, metadata !DIExpression()), !dbg !2079
  store i8 %kind, ptr %_0, align 1, !dbg !2080
  br label %bb5, !dbg !2081

bb1:                                              ; preds = %start
  %4 = getelementptr inbounds %"std::io::error::ErrorData<&std::io::error::Custom>::SimpleMessage", ptr %_2, i32 0, i32 1, !dbg !2082
  %m = load ptr, ptr %4, align 8, !dbg !2082, !nonnull !55, !align !2083, !noundef !55
  store ptr %m, ptr %m.dbg.spill, align 8, !dbg !2082
  call void @llvm.dbg.declare(metadata ptr %m.dbg.spill, metadata !2062, metadata !DIExpression()), !dbg !2084
  %5 = getelementptr inbounds %"std::io::error::SimpleMessage", ptr %m, i32 0, i32 1, !dbg !2085
  %6 = load i8, ptr %5, align 8, !dbg !2085, !range !1444, !noundef !55
  store i8 %6, ptr %_0, align 1, !dbg !2085
  br label %bb5, !dbg !2086

bb3:                                              ; preds = %start
  %7 = getelementptr inbounds %"std::io::error::ErrorData<&std::io::error::Custom>::Custom", ptr %_2, i32 0, i32 1, !dbg !2087
  %c = load ptr, ptr %7, align 8, !dbg !2087, !nonnull !55, !align !2083, !noundef !55
  store ptr %c, ptr %c.dbg.spill, align 8, !dbg !2087
  call void @llvm.dbg.declare(metadata ptr %c.dbg.spill, metadata !2058, metadata !DIExpression()), !dbg !2088
  %8 = getelementptr inbounds %"std::io::error::Custom", ptr %c, i32 0, i32 1, !dbg !2089
  %9 = load i8, ptr %8, align 8, !dbg !2089, !range !1444, !noundef !55
  store i8 %9, ptr %_0, align 1, !dbg !2089
  br label %bb5, !dbg !2090

bb5:                                              ; preds = %bb3, %bb1, %bb4, %bb2
  %10 = load i8, ptr %_0, align 1, !dbg !2091, !range !1444, !noundef !55
  ret i8 %10, !dbg !2091
}

; std::os::fd::net::<impl std::os::fd::raw::AsRawFd for std::net::tcp::TcpStream>::as_raw_fd
; Function Attrs: inlinehint nonlazybind uwtable
define internal i32 @"_ZN3std2os2fd3net80_$LT$impl$u20$std..os..fd..raw..AsRawFd$u20$for$u20$std..net..tcp..TcpStream$GT$9as_raw_fd17h8c0167ee2311c55fE"(ptr align 4 %self) unnamed_addr #0 !dbg !2092 {
start:
  %self.dbg.spill4 = alloca ptr, align 8
  %self.dbg.spill3 = alloca ptr, align 8
  %self.dbg.spill2 = alloca ptr, align 8
  %self.dbg.spill1 = alloca ptr, align 8
  %self.dbg.spill = alloca ptr, align 8
  store ptr %self, ptr %self.dbg.spill, align 8
  call void @llvm.dbg.declare(metadata ptr %self.dbg.spill, metadata !2126, metadata !DIExpression()), !dbg !2127
  call void @llvm.dbg.declare(metadata ptr %self.dbg.spill, metadata !2128, metadata !DIExpression()), !dbg !2137
  store ptr %self, ptr %self.dbg.spill1, align 8, !dbg !2139
  call void @llvm.dbg.declare(metadata ptr %self.dbg.spill1, metadata !2140, metadata !DIExpression()), !dbg !2149
  store ptr %self, ptr %self.dbg.spill2, align 8, !dbg !2139
  call void @llvm.dbg.declare(metadata ptr %self.dbg.spill2, metadata !2151, metadata !DIExpression()), !dbg !2159
  store ptr %self, ptr %self.dbg.spill3, align 8, !dbg !2161
  call void @llvm.dbg.declare(metadata ptr %self.dbg.spill3, metadata !2162, metadata !DIExpression()), !dbg !2171
  store ptr %self, ptr %self.dbg.spill4, align 8, !dbg !2173
  call void @llvm.dbg.declare(metadata ptr %self.dbg.spill4, metadata !2174, metadata !DIExpression()), !dbg !2183
  %_0 = load i32, ptr %self, align 4, !dbg !2185, !noundef !55
  ret i32 %_0, !dbg !2186
}

; std::os::fd::net::<impl std::os::fd::raw::FromRawFd for std::net::tcp::TcpStream>::from_raw_fd
; Function Attrs: inlinehint nonlazybind uwtable
define internal i32 @"_ZN3std2os2fd3net82_$LT$impl$u20$std..os..fd..raw..FromRawFd$u20$for$u20$std..net..tcp..TcpStream$GT$11from_raw_fd17hc10aa5fc0b258cb6E"(i32 %fd) unnamed_addr #0 !dbg !2187 {
start:
  %left_val.dbg.spill = alloca ptr, align 8
  %fd.dbg.spill = alloca i32, align 4
  %_10 = alloca %"core::option::Option<core::fmt::Arguments<'_>>", align 8
  %inner = alloca i32, align 4
  %fd1 = alloca i32, align 4
  %owned_fd = alloca i32, align 4
  %file_desc = alloca i32, align 4
  %socket = alloca i32, align 4
  %_0 = alloca i32, align 4
  %kind.dbg.spill = alloca i8, align 1
  %right_val.dbg.spill = alloca ptr, align 8
  store ptr @alloc_47c8330ffe7a09bc00d165d03facdeb6, ptr %right_val.dbg.spill, align 8, !dbg !2195
  call void @llvm.dbg.declare(metadata ptr %right_val.dbg.spill, metadata !2206, metadata !DIExpression()), !dbg !2195
  store i8 1, ptr %kind.dbg.spill, align 1, !dbg !2211
  call void @llvm.dbg.declare(metadata ptr %kind.dbg.spill, metadata !2207, metadata !DIExpression()), !dbg !2211
  store i32 %fd, ptr %fd.dbg.spill, align 4, !dbg !2211
  call void @llvm.dbg.declare(metadata ptr %fd.dbg.spill, metadata !2192, metadata !DIExpression()), !dbg !2212
  call void @llvm.dbg.declare(metadata ptr %socket, metadata !2193, metadata !DIExpression()), !dbg !2213
  call void @llvm.dbg.declare(metadata ptr %socket, metadata !2214, metadata !DIExpression()), !dbg !2221
  call void @llvm.dbg.declare(metadata ptr %file_desc, metadata !2223, metadata !DIExpression()), !dbg !2230
  call void @llvm.dbg.declare(metadata ptr %owned_fd, metadata !2232, metadata !DIExpression()), !dbg !2239
  call void @llvm.dbg.declare(metadata ptr %fd1, metadata !2204, metadata !DIExpression()), !dbg !2241
  call void @llvm.dbg.declare(metadata ptr %inner, metadata !2242, metadata !DIExpression()), !dbg !2249
  store i32 %fd, ptr %fd1, align 4, !dbg !2251
  store ptr %fd1, ptr %left_val.dbg.spill, align 8, !dbg !2252
  call void @llvm.dbg.declare(metadata ptr %left_val.dbg.spill, metadata !2205, metadata !DIExpression()), !dbg !2195
  %_8 = load i32, ptr %fd1, align 4, !dbg !2195, !noundef !55
  %0 = icmp eq i32 %_8, -1, !dbg !2195
  br i1 %0, label %bb1, label %bb2, !dbg !2195

bb1:                                              ; preds = %start
  store ptr null, ptr %_10, align 8, !dbg !2211
; call core::panicking::assert_failed
  call void @_ZN4core9panicking13assert_failed17hee73dafbb0157968E(i8 1, ptr align 4 %fd1, ptr align 4 @alloc_47c8330ffe7a09bc00d165d03facdeb6, ptr align 8 %_10, ptr align 8 @alloc_ff7354ac3642c07a91d102a283133695) #18, !dbg !2211
  unreachable, !dbg !2211

bb2:                                              ; preds = %start
  %_11 = load i32, ptr %fd1, align 4, !dbg !2253, !noundef !55
  store i32 %_11, ptr %owned_fd, align 4, !dbg !2254
  %1 = load i32, ptr %owned_fd, align 4, !dbg !2255, !range !2256, !noundef !55
  store i32 %1, ptr %file_desc, align 4, !dbg !2255
  %2 = load i32, ptr %file_desc, align 4, !dbg !2257, !range !2256, !noundef !55
  store i32 %2, ptr %socket, align 4, !dbg !2257
  %3 = load i32, ptr %socket, align 4, !dbg !2258, !range !2256, !noundef !55
  store i32 %3, ptr %inner, align 4, !dbg !2258
  %4 = load i32, ptr %inner, align 4, !dbg !2259, !range !2256, !noundef !55
  store i32 %4, ptr %_0, align 4, !dbg !2259
  %5 = load i32, ptr %_0, align 4, !dbg !2260, !range !2256, !noundef !55
  ret i32 %5, !dbg !2260
}

; std::os::fd::net::<impl std::os::fd::raw::FromRawFd for std::net::udp::UdpSocket>::from_raw_fd
; Function Attrs: inlinehint nonlazybind uwtable
define internal i32 @"_ZN3std2os2fd3net82_$LT$impl$u20$std..os..fd..raw..FromRawFd$u20$for$u20$std..net..udp..UdpSocket$GT$11from_raw_fd17h2df5cdb155e8df3dE"(i32 %fd) unnamed_addr #0 !dbg !2261 {
start:
  %left_val.dbg.spill = alloca ptr, align 8
  %fd.dbg.spill = alloca i32, align 4
  %_10 = alloca %"core::option::Option<core::fmt::Arguments<'_>>", align 8
  %inner = alloca i32, align 4
  %fd1 = alloca i32, align 4
  %owned_fd = alloca i32, align 4
  %file_desc = alloca i32, align 4
  %socket = alloca i32, align 4
  %_0 = alloca i32, align 4
  %kind.dbg.spill = alloca i8, align 1
  %right_val.dbg.spill = alloca ptr, align 8
  store ptr @alloc_47c8330ffe7a09bc00d165d03facdeb6, ptr %right_val.dbg.spill, align 8, !dbg !2276
  call void @llvm.dbg.declare(metadata ptr %right_val.dbg.spill, metadata !2284, metadata !DIExpression()), !dbg !2276
  store i8 1, ptr %kind.dbg.spill, align 1, !dbg !2289
  call void @llvm.dbg.declare(metadata ptr %kind.dbg.spill, metadata !2285, metadata !DIExpression()), !dbg !2289
  store i32 %fd, ptr %fd.dbg.spill, align 4, !dbg !2289
  call void @llvm.dbg.declare(metadata ptr %fd.dbg.spill, metadata !2273, metadata !DIExpression()), !dbg !2290
  call void @llvm.dbg.declare(metadata ptr %socket, metadata !2274, metadata !DIExpression()), !dbg !2291
  call void @llvm.dbg.declare(metadata ptr %socket, metadata !2292, metadata !DIExpression()), !dbg !2299
  call void @llvm.dbg.declare(metadata ptr %file_desc, metadata !2301, metadata !DIExpression()), !dbg !2305
  call void @llvm.dbg.declare(metadata ptr %owned_fd, metadata !2307, metadata !DIExpression()), !dbg !2311
  call void @llvm.dbg.declare(metadata ptr %fd1, metadata !2282, metadata !DIExpression()), !dbg !2313
  call void @llvm.dbg.declare(metadata ptr %inner, metadata !2314, metadata !DIExpression()), !dbg !2322
  store i32 %fd, ptr %fd1, align 4, !dbg !2324
  store ptr %fd1, ptr %left_val.dbg.spill, align 8, !dbg !2325
  call void @llvm.dbg.declare(metadata ptr %left_val.dbg.spill, metadata !2283, metadata !DIExpression()), !dbg !2276
  %_8 = load i32, ptr %fd1, align 4, !dbg !2276, !noundef !55
  %0 = icmp eq i32 %_8, -1, !dbg !2276
  br i1 %0, label %bb1, label %bb2, !dbg !2276

bb1:                                              ; preds = %start
  store ptr null, ptr %_10, align 8, !dbg !2289
; call core::panicking::assert_failed
  call void @_ZN4core9panicking13assert_failed17hee73dafbb0157968E(i8 1, ptr align 4 %fd1, ptr align 4 @alloc_47c8330ffe7a09bc00d165d03facdeb6, ptr align 8 %_10, ptr align 8 @alloc_ff7354ac3642c07a91d102a283133695) #18, !dbg !2289
  unreachable, !dbg !2289

bb2:                                              ; preds = %start
  %_11 = load i32, ptr %fd1, align 4, !dbg !2326, !noundef !55
  store i32 %_11, ptr %owned_fd, align 4, !dbg !2327
  %1 = load i32, ptr %owned_fd, align 4, !dbg !2328, !range !2256, !noundef !55
  store i32 %1, ptr %file_desc, align 4, !dbg !2328
  %2 = load i32, ptr %file_desc, align 4, !dbg !2329, !range !2256, !noundef !55
  store i32 %2, ptr %socket, align 4, !dbg !2329
  %3 = load i32, ptr %socket, align 4, !dbg !2330, !range !2256, !noundef !55
  store i32 %3, ptr %inner, align 4, !dbg !2330
  %4 = load i32, ptr %inner, align 4, !dbg !2331, !range !2256, !noundef !55
  store i32 %4, ptr %_0, align 4, !dbg !2331
  %5 = load i32, ptr %_0, align 4, !dbg !2332, !range !2256, !noundef !55
  ret i32 %5, !dbg !2332
}

; std::os::fd::net::<impl std::os::fd::raw::IntoRawFd for std::net::tcp::TcpStream>::into_raw_fd
; Function Attrs: inlinehint nonlazybind uwtable
define internal i32 @"_ZN3std2os2fd3net82_$LT$impl$u20$std..os..fd..raw..IntoRawFd$u20$for$u20$std..net..tcp..TcpStream$GT$11into_raw_fd17h12d01fe1f8fc2aa6E"(i32 %self) unnamed_addr #0 !dbg !2333 {
start:
  %fd.dbg.spill = alloca i32, align 4
  %self.dbg.spill4 = alloca i32, align 4
  %self.dbg.spill3 = alloca i32, align 4
  %self.dbg.spill2 = alloca i32, align 4
  %self.dbg.spill1 = alloca i32, align 4
  %self.dbg.spill = alloca i32, align 4
  store i32 %self, ptr %self.dbg.spill, align 4
  call void @llvm.dbg.declare(metadata ptr %self.dbg.spill, metadata !2338, metadata !DIExpression()), !dbg !2339
  call void @llvm.dbg.declare(metadata ptr %self.dbg.spill, metadata !2340, metadata !DIExpression()), !dbg !2347
  store i32 %self, ptr %self.dbg.spill1, align 4, !dbg !2349
  call void @llvm.dbg.declare(metadata ptr %self.dbg.spill1, metadata !2350, metadata !DIExpression()), !dbg !2357
  store i32 %self, ptr %self.dbg.spill2, align 4, !dbg !2359
  call void @llvm.dbg.declare(metadata ptr %self.dbg.spill2, metadata !2360, metadata !DIExpression()), !dbg !2367
  store i32 %self, ptr %self.dbg.spill3, align 4, !dbg !2369
  call void @llvm.dbg.declare(metadata ptr %self.dbg.spill3, metadata !2370, metadata !DIExpression()), !dbg !2377
  store i32 %self, ptr %self.dbg.spill4, align 4, !dbg !2379
  call void @llvm.dbg.declare(metadata ptr %self.dbg.spill4, metadata !2380, metadata !DIExpression()), !dbg !2389
  call void @llvm.dbg.declare(metadata ptr %self.dbg.spill4, metadata !2391, metadata !DIExpression()), !dbg !2400
  call void @llvm.dbg.declare(metadata ptr %self.dbg.spill4, metadata !2402, metadata !DIExpression()), !dbg !2413
  store i32 %self, ptr %fd.dbg.spill, align 4, !dbg !2415
  call void @llvm.dbg.declare(metadata ptr %fd.dbg.spill, metadata !2387, metadata !DIExpression()), !dbg !2416
  ret i32 %self, !dbg !2417
}

; std::os::fd::net::<impl std::os::fd::raw::IntoRawFd for std::net::udp::UdpSocket>::into_raw_fd
; Function Attrs: inlinehint nonlazybind uwtable
define internal i32 @"_ZN3std2os2fd3net82_$LT$impl$u20$std..os..fd..raw..IntoRawFd$u20$for$u20$std..net..udp..UdpSocket$GT$11into_raw_fd17h50a385774a4264ccE"(i32 %self) unnamed_addr #0 !dbg !2418 {
start:
  %fd.dbg.spill = alloca i32, align 4
  %self.dbg.spill4 = alloca i32, align 4
  %self.dbg.spill3 = alloca i32, align 4
  %self.dbg.spill2 = alloca i32, align 4
  %self.dbg.spill1 = alloca i32, align 4
  %self.dbg.spill = alloca i32, align 4
  store i32 %self, ptr %self.dbg.spill, align 4
  call void @llvm.dbg.declare(metadata ptr %self.dbg.spill, metadata !2423, metadata !DIExpression()), !dbg !2424
  call void @llvm.dbg.declare(metadata ptr %self.dbg.spill, metadata !2425, metadata !DIExpression()), !dbg !2432
  store i32 %self, ptr %self.dbg.spill1, align 4, !dbg !2434
  call void @llvm.dbg.declare(metadata ptr %self.dbg.spill1, metadata !2435, metadata !DIExpression()), !dbg !2442
  store i32 %self, ptr %self.dbg.spill2, align 4, !dbg !2444
  call void @llvm.dbg.declare(metadata ptr %self.dbg.spill2, metadata !2445, metadata !DIExpression()), !dbg !2449
  store i32 %self, ptr %self.dbg.spill3, align 4, !dbg !2451
  call void @llvm.dbg.declare(metadata ptr %self.dbg.spill3, metadata !2452, metadata !DIExpression()), !dbg !2456
  store i32 %self, ptr %self.dbg.spill4, align 4, !dbg !2458
  call void @llvm.dbg.declare(metadata ptr %self.dbg.spill4, metadata !2459, metadata !DIExpression()), !dbg !2465
  call void @llvm.dbg.declare(metadata ptr %self.dbg.spill4, metadata !2467, metadata !DIExpression()), !dbg !2471
  call void @llvm.dbg.declare(metadata ptr %self.dbg.spill4, metadata !2473, metadata !DIExpression()), !dbg !2477
  store i32 %self, ptr %fd.dbg.spill, align 4, !dbg !2479
  call void @llvm.dbg.declare(metadata ptr %fd.dbg.spill, metadata !2463, metadata !DIExpression()), !dbg !2480
  ret i32 %self, !dbg !2481
}

; std::os::fd::net::<impl std::os::fd::raw::FromRawFd for std::net::tcp::TcpListener>::from_raw_fd
; Function Attrs: inlinehint nonlazybind uwtable
define internal i32 @"_ZN3std2os2fd3net84_$LT$impl$u20$std..os..fd..raw..FromRawFd$u20$for$u20$std..net..tcp..TcpListener$GT$11from_raw_fd17hd9b8b94766a5df4bE"(i32 %fd) unnamed_addr #0 !dbg !2482 {
start:
  %left_val.dbg.spill = alloca ptr, align 8
  %fd.dbg.spill = alloca i32, align 4
  %_10 = alloca %"core::option::Option<core::fmt::Arguments<'_>>", align 8
  %inner = alloca i32, align 4
  %fd1 = alloca i32, align 4
  %owned_fd = alloca i32, align 4
  %file_desc = alloca i32, align 4
  %socket = alloca i32, align 4
  %_0 = alloca i32, align 4
  %kind.dbg.spill = alloca i8, align 1
  %right_val.dbg.spill = alloca ptr, align 8
  store ptr @alloc_47c8330ffe7a09bc00d165d03facdeb6, ptr %right_val.dbg.spill, align 8, !dbg !2496
  call void @llvm.dbg.declare(metadata ptr %right_val.dbg.spill, metadata !2504, metadata !DIExpression()), !dbg !2496
  store i8 1, ptr %kind.dbg.spill, align 1, !dbg !2509
  call void @llvm.dbg.declare(metadata ptr %kind.dbg.spill, metadata !2505, metadata !DIExpression()), !dbg !2509
  store i32 %fd, ptr %fd.dbg.spill, align 4, !dbg !2509
  call void @llvm.dbg.declare(metadata ptr %fd.dbg.spill, metadata !2493, metadata !DIExpression()), !dbg !2510
  call void @llvm.dbg.declare(metadata ptr %socket, metadata !2494, metadata !DIExpression()), !dbg !2511
  call void @llvm.dbg.declare(metadata ptr %socket, metadata !2512, metadata !DIExpression()), !dbg !2519
  call void @llvm.dbg.declare(metadata ptr %file_desc, metadata !2521, metadata !DIExpression()), !dbg !2525
  call void @llvm.dbg.declare(metadata ptr %owned_fd, metadata !2527, metadata !DIExpression()), !dbg !2531
  call void @llvm.dbg.declare(metadata ptr %fd1, metadata !2502, metadata !DIExpression()), !dbg !2533
  call void @llvm.dbg.declare(metadata ptr %inner, metadata !2534, metadata !DIExpression()), !dbg !2541
  store i32 %fd, ptr %fd1, align 4, !dbg !2543
  store ptr %fd1, ptr %left_val.dbg.spill, align 8, !dbg !2544
  call void @llvm.dbg.declare(metadata ptr %left_val.dbg.spill, metadata !2503, metadata !DIExpression()), !dbg !2496
  %_8 = load i32, ptr %fd1, align 4, !dbg !2496, !noundef !55
  %0 = icmp eq i32 %_8, -1, !dbg !2496
  br i1 %0, label %bb1, label %bb2, !dbg !2496

bb1:                                              ; preds = %start
  store ptr null, ptr %_10, align 8, !dbg !2509
; call core::panicking::assert_failed
  call void @_ZN4core9panicking13assert_failed17hee73dafbb0157968E(i8 1, ptr align 4 %fd1, ptr align 4 @alloc_47c8330ffe7a09bc00d165d03facdeb6, ptr align 8 %_10, ptr align 8 @alloc_ff7354ac3642c07a91d102a283133695) #18, !dbg !2509
  unreachable, !dbg !2509

bb2:                                              ; preds = %start
  %_11 = load i32, ptr %fd1, align 4, !dbg !2545, !noundef !55
  store i32 %_11, ptr %owned_fd, align 4, !dbg !2546
  %1 = load i32, ptr %owned_fd, align 4, !dbg !2547, !range !2256, !noundef !55
  store i32 %1, ptr %file_desc, align 4, !dbg !2547
  %2 = load i32, ptr %file_desc, align 4, !dbg !2548, !range !2256, !noundef !55
  store i32 %2, ptr %socket, align 4, !dbg !2548
  %3 = load i32, ptr %socket, align 4, !dbg !2549, !range !2256, !noundef !55
  store i32 %3, ptr %inner, align 4, !dbg !2549
  %4 = load i32, ptr %inner, align 4, !dbg !2550, !range !2256, !noundef !55
  store i32 %4, ptr %_0, align 4, !dbg !2550
  %5 = load i32, ptr %_0, align 4, !dbg !2551, !range !2256, !noundef !55
  ret i32 %5, !dbg !2551
}

; std::os::fd::net::<impl std::os::fd::raw::IntoRawFd for std::net::tcp::TcpListener>::into_raw_fd
; Function Attrs: inlinehint nonlazybind uwtable
define internal i32 @"_ZN3std2os2fd3net84_$LT$impl$u20$std..os..fd..raw..IntoRawFd$u20$for$u20$std..net..tcp..TcpListener$GT$11into_raw_fd17h841a5b2d0788fd63E"(i32 %self) unnamed_addr #0 !dbg !2552 {
start:
  %fd.dbg.spill = alloca i32, align 4
  %self.dbg.spill4 = alloca i32, align 4
  %self.dbg.spill3 = alloca i32, align 4
  %self.dbg.spill2 = alloca i32, align 4
  %self.dbg.spill1 = alloca i32, align 4
  %self.dbg.spill = alloca i32, align 4
  store i32 %self, ptr %self.dbg.spill, align 4
  call void @llvm.dbg.declare(metadata ptr %self.dbg.spill, metadata !2557, metadata !DIExpression()), !dbg !2558
  call void @llvm.dbg.declare(metadata ptr %self.dbg.spill, metadata !2559, metadata !DIExpression()), !dbg !2566
  store i32 %self, ptr %self.dbg.spill1, align 4, !dbg !2568
  call void @llvm.dbg.declare(metadata ptr %self.dbg.spill1, metadata !2569, metadata !DIExpression()), !dbg !2576
  store i32 %self, ptr %self.dbg.spill2, align 4, !dbg !2578
  call void @llvm.dbg.declare(metadata ptr %self.dbg.spill2, metadata !2579, metadata !DIExpression()), !dbg !2583
  store i32 %self, ptr %self.dbg.spill3, align 4, !dbg !2585
  call void @llvm.dbg.declare(metadata ptr %self.dbg.spill3, metadata !2586, metadata !DIExpression()), !dbg !2590
  store i32 %self, ptr %self.dbg.spill4, align 4, !dbg !2592
  call void @llvm.dbg.declare(metadata ptr %self.dbg.spill4, metadata !2593, metadata !DIExpression()), !dbg !2599
  call void @llvm.dbg.declare(metadata ptr %self.dbg.spill4, metadata !2601, metadata !DIExpression()), !dbg !2605
  call void @llvm.dbg.declare(metadata ptr %self.dbg.spill4, metadata !2607, metadata !DIExpression()), !dbg !2611
  store i32 %self, ptr %fd.dbg.spill, align 4, !dbg !2613
  call void @llvm.dbg.declare(metadata ptr %fd.dbg.spill, metadata !2597, metadata !DIExpression()), !dbg !2614
  ret i32 %self, !dbg !2615
}

; std::os::fd::owned::BorrowedFd::borrow_raw
; Function Attrs: inlinehint nonlazybind uwtable
define internal i32 @_ZN3std2os2fd5owned10BorrowedFd10borrow_raw17ha12088be8e07127bE(i32 %fd) unnamed_addr #0 !dbg !2616 {
start:
  %fd.dbg.spill = alloca i32, align 4
  %_0 = alloca i32, align 4
  store i32 %fd, ptr %fd.dbg.spill, align 4
  call void @llvm.dbg.declare(metadata ptr %fd.dbg.spill, metadata !2628, metadata !DIExpression()), !dbg !2629
  %0 = icmp eq i32 %fd, -1, !dbg !2630
  br i1 %0, label %bb2, label %bb1, !dbg !2630

bb2:                                              ; preds = %start
; call core::panicking::panic
  call void @_ZN4core9panicking5panic17h59297120e85ea178E(ptr align 1 @alloc_49f4817395fcc69bced82142970a6e73, i64 41, ptr align 8 @alloc_b17bdb6961ae77aabbebdfea3544b8b9) #18, !dbg !2631
  unreachable, !dbg !2631

bb1:                                              ; preds = %start
  store i32 %fd, ptr %_0, align 4, !dbg !2632
  %1 = load i32, ptr %_0, align 4, !dbg !2633, !range !2256, !noundef !55
  ret i32 %1, !dbg !2633
}

; std::os::unix::net::addr::SocketAddr::from_pathname
; Function Attrs: nonlazybind uwtable
define void @_ZN3std2os4unix3net4addr10SocketAddr13from_pathname17hd7a08880ec820d69E(ptr sret(%"core::result::Result<std::os::unix::net::addr::SocketAddr, std::io::error::Error>") align 8 %_0, ptr align 1 %0, i64 %1) unnamed_addr #1 personality ptr @rust_eh_personality !dbg !2634 {
start:
  %2 = alloca { ptr, i32, [1 x i32] }, align 8
  %_2 = alloca %"core::result::Result<(libc::unix::linux_like::sockaddr_un, u32), std::io::error::Error>", align 8
  %path = alloca { ptr, i64 }, align 8
  store ptr %0, ptr %path, align 8
  %3 = getelementptr inbounds i8, ptr %path, i64 8
  store i64 %1, ptr %3, align 8
  call void @llvm.dbg.declare(metadata ptr %path, metadata !2690, metadata !DIExpression()), !dbg !2691
; invoke <&T as core::convert::AsRef<U>>::as_ref
  %4 = invoke { ptr, i64 } @"_ZN55_$LT$$RF$T$u20$as$u20$core..convert..AsRef$LT$U$GT$$GT$6as_ref17hbd850db05965c7edE"(ptr align 8 %path)
          to label %bb1 unwind label %cleanup, !dbg !2692

bb5:                                              ; preds = %cleanup
  %5 = load ptr, ptr %2, align 8, !dbg !2693, !noundef !55
  %6 = getelementptr inbounds i8, ptr %2, i64 8, !dbg !2693
  %7 = load i32, ptr %6, align 8, !dbg !2693, !noundef !55
  %8 = insertvalue { ptr, i32 } poison, ptr %5, 0, !dbg !2693
  %9 = insertvalue { ptr, i32 } %8, i32 %7, 1, !dbg !2693
  resume { ptr, i32 } %9, !dbg !2693

cleanup:                                          ; preds = %bb2, %bb1, %start
  %10 = landingpad { ptr, i32 }
          cleanup
  %11 = extractvalue { ptr, i32 } %10, 0
  %12 = extractvalue { ptr, i32 } %10, 1
  store ptr %11, ptr %2, align 8
  %13 = getelementptr inbounds i8, ptr %2, i64 8
  store i32 %12, ptr %13, align 8
  br label %bb5

bb1:                                              ; preds = %start
  %_3.0 = extractvalue { ptr, i64 } %4, 0, !dbg !2692
  %_3.1 = extractvalue { ptr, i64 } %4, 1, !dbg !2692
; invoke std::os::unix::net::addr::sockaddr_un
  invoke void @_ZN3std2os4unix3net4addr11sockaddr_un17hee437b3d555b6aa8E(ptr sret(%"core::result::Result<(libc::unix::linux_like::sockaddr_un, u32), std::io::error::Error>") align 8 %_2, ptr align 1 %_3.0, i64 %_3.1)
          to label %bb2 unwind label %cleanup, !dbg !2694

bb2:                                              ; preds = %bb1
; invoke core::result::Result<T,E>::map
  invoke void @"_ZN4core6result19Result$LT$T$C$E$GT$3map17h8eadd11cb3bfd87cE"(ptr sret(%"core::result::Result<std::os::unix::net::addr::SocketAddr, std::io::error::Error>") align 8 %_0, ptr align 8 %_2)
          to label %bb3 unwind label %cleanup, !dbg !2694

bb3:                                              ; preds = %bb2
  ret void, !dbg !2695
}

; std::os::unix::net::addr::SocketAddr::from_pathname::{{closure}}
; Function Attrs: inlinehint nonlazybind uwtable
define void @"_ZN3std2os4unix3net4addr10SocketAddr13from_pathname28_$u7b$$u7b$closure$u7d$$u7d$17h56b874a897a3bc3dE"(ptr sret(%"std::os::unix::net::addr::SocketAddr") align 4 %_0, ptr align 4 %_2) unnamed_addr #0 !dbg !2696 {
start:
  %len.dbg.spill = alloca i32, align 4
  %_1.dbg.spill = alloca %"{closure@std::os::unix::net::addr::SocketAddr::from_pathname<&std::path::Path>::{closure#0}}", align 1
  %addr = alloca %"libc::unix::linux_like::sockaddr_un", align 2
  call void @llvm.dbg.declare(metadata ptr %_1.dbg.spill, metadata !2710, metadata !DIExpression()), !dbg !2712
  call void @llvm.dbg.declare(metadata ptr %_2, metadata !2711, metadata !DIExpression()), !dbg !2713
  call void @llvm.dbg.declare(metadata ptr %addr, metadata !2707, metadata !DIExpression()), !dbg !2714
  call void @llvm.memcpy.p0.p0.i64(ptr align 2 %addr, ptr align 4 %_2, i64 110, i1 false), !dbg !2715
  %0 = getelementptr inbounds { %"libc::unix::linux_like::sockaddr_un", [1 x i16], i32 }, ptr %_2, i32 0, i32 2, !dbg !2716
  %len = load i32, ptr %0, align 4, !dbg !2716, !noundef !55
  store i32 %len, ptr %len.dbg.spill, align 4, !dbg !2716
  call void @llvm.dbg.declare(metadata ptr %len.dbg.spill, metadata !2709, metadata !DIExpression()), !dbg !2717
  %1 = getelementptr inbounds %"std::os::unix::net::addr::SocketAddr", ptr %_0, i32 0, i32 1, !dbg !2718
  call void @llvm.memcpy.p0.p0.i64(ptr align 4 %1, ptr align 2 %addr, i64 110, i1 false), !dbg !2718
  store i32 %len, ptr %_0, align 4, !dbg !2718
  ret void, !dbg !2719
}

; std::sys::pal::unix::decode_error_kind
; Function Attrs: nonlazybind uwtable
define internal i8 @_ZN3std3sys3pal4unix17decode_error_kind17h717d02a3601427e5E(i32 %errno) unnamed_addr #1 !dbg !2720 {
start:
  %x.dbg.spill1 = alloca i32, align 4
  %x.dbg.spill = alloca ptr, align 8
  %errno.dbg.spill = alloca i32, align 4
  %_2 = alloca i32, align 4
  %_0 = alloca i8, align 1
  store i32 %errno, ptr %errno.dbg.spill, align 4
  call void @llvm.dbg.declare(metadata ptr %errno.dbg.spill, metadata !2725, metadata !DIExpression()), !dbg !2729
  store i32 %errno, ptr %_2, align 4, !dbg !2730
  %0 = load i32, ptr %_2, align 4, !dbg !2731, !noundef !55
  switch i32 %0, label %bb36 [
    i32 7, label %bb1
    i32 98, label %bb2
    i32 99, label %bb3
    i32 16, label %bb4
    i32 103, label %bb5
    i32 111, label %bb6
    i32 104, label %bb7
    i32 35, label %bb8
    i32 122, label %bb9
    i32 17, label %bb10
    i32 27, label %bb11
    i32 113, label %bb12
    i32 4, label %bb13
    i32 22, label %bb14
    i32 21, label %bb15
    i32 40, label %bb16
    i32 2, label %bb17
    i32 12, label %bb18
    i32 28, label %bb19
    i32 38, label %bb20
    i32 31, label %bb21
    i32 36, label %bb22
    i32 100, label %bb23
    i32 101, label %bb24
    i32 107, label %bb25
    i32 20, label %bb26
    i32 39, label %bb27
    i32 32, label %bb28
    i32 30, label %bb29
    i32 29, label %bb30
    i32 116, label %bb31
    i32 110, label %bb32
    i32 26, label %bb33
    i32 18, label %bb34
    i32 13, label %bb35
    i32 1, label %bb35
  ], !dbg !2731

bb36:                                             ; preds = %start
  store ptr %_2, ptr %x.dbg.spill, align 8, !dbg !2732
  call void @llvm.dbg.declare(metadata ptr %x.dbg.spill, metadata !2728, metadata !DIExpression()), !dbg !2733
  %_6 = load i32, ptr %_2, align 4, !dbg !2734, !noundef !55
  %_5 = icmp eq i32 %_6, 11, !dbg !2734
  br i1 %_5, label %bb37, label %bb38, !dbg !2734

bb1:                                              ; preds = %start
  store i8 34, ptr %_0, align 1, !dbg !2735
  br label %bb41, !dbg !2735

bb2:                                              ; preds = %start
  store i8 8, ptr %_0, align 1, !dbg !2736
  br label %bb41, !dbg !2736

bb3:                                              ; preds = %start
  store i8 9, ptr %_0, align 1, !dbg !2737
  br label %bb41, !dbg !2737

bb4:                                              ; preds = %start
  store i8 28, ptr %_0, align 1, !dbg !2738
  br label %bb41, !dbg !2738

bb5:                                              ; preds = %start
  store i8 6, ptr %_0, align 1, !dbg !2739
  br label %bb41, !dbg !2739

bb6:                                              ; preds = %start
  store i8 2, ptr %_0, align 1, !dbg !2740
  br label %bb41, !dbg !2740

bb7:                                              ; preds = %start
  store i8 3, ptr %_0, align 1, !dbg !2741
  br label %bb41, !dbg !2741

bb8:                                              ; preds = %start
  store i8 30, ptr %_0, align 1, !dbg !2742
  br label %bb41, !dbg !2742

bb9:                                              ; preds = %start
  store i8 26, ptr %_0, align 1, !dbg !2743
  br label %bb41, !dbg !2743

bb10:                                             ; preds = %start
  store i8 12, ptr %_0, align 1, !dbg !2744
  br label %bb41, !dbg !2744

bb11:                                             ; preds = %start
  store i8 27, ptr %_0, align 1, !dbg !2745
  br label %bb41, !dbg !2745

bb12:                                             ; preds = %start
  store i8 4, ptr %_0, align 1, !dbg !2746
  br label %bb41, !dbg !2746

bb13:                                             ; preds = %start
  store i8 35, ptr %_0, align 1, !dbg !2747
  br label %bb41, !dbg !2747

bb14:                                             ; preds = %start
  store i8 20, ptr %_0, align 1, !dbg !2748
  br label %bb41, !dbg !2748

bb15:                                             ; preds = %start
  store i8 15, ptr %_0, align 1, !dbg !2749
  br label %bb41, !dbg !2749

bb16:                                             ; preds = %start
  store i8 18, ptr %_0, align 1, !dbg !2750
  br label %bb41, !dbg !2750

bb17:                                             ; preds = %start
  store i8 0, ptr %_0, align 1, !dbg !2751
  br label %bb41, !dbg !2751

bb18:                                             ; preds = %start
  store i8 38, ptr %_0, align 1, !dbg !2752
  br label %bb41, !dbg !2752

bb19:                                             ; preds = %start
  store i8 24, ptr %_0, align 1, !dbg !2753
  br label %bb41, !dbg !2753

bb20:                                             ; preds = %start
  store i8 36, ptr %_0, align 1, !dbg !2754
  br label %bb41, !dbg !2754

bb21:                                             ; preds = %start
  store i8 32, ptr %_0, align 1, !dbg !2755
  br label %bb41, !dbg !2755

bb22:                                             ; preds = %start
  store i8 33, ptr %_0, align 1, !dbg !2756
  br label %bb41, !dbg !2756

bb23:                                             ; preds = %start
  store i8 10, ptr %_0, align 1, !dbg !2757
  br label %bb41, !dbg !2757

bb24:                                             ; preds = %start
  store i8 5, ptr %_0, align 1, !dbg !2758
  br label %bb41, !dbg !2758

bb25:                                             ; preds = %start
  store i8 7, ptr %_0, align 1, !dbg !2759
  br label %bb41, !dbg !2759

bb26:                                             ; preds = %start
  store i8 14, ptr %_0, align 1, !dbg !2760
  br label %bb41, !dbg !2760

bb27:                                             ; preds = %start
  store i8 16, ptr %_0, align 1, !dbg !2761
  br label %bb41, !dbg !2761

bb28:                                             ; preds = %start
  store i8 11, ptr %_0, align 1, !dbg !2762
  br label %bb41, !dbg !2762

bb29:                                             ; preds = %start
  store i8 17, ptr %_0, align 1, !dbg !2763
  br label %bb41, !dbg !2763

bb30:                                             ; preds = %start
  store i8 25, ptr %_0, align 1, !dbg !2764
  br label %bb41, !dbg !2764

bb31:                                             ; preds = %start
  store i8 19, ptr %_0, align 1, !dbg !2765
  br label %bb41, !dbg !2765

bb32:                                             ; preds = %start
  store i8 22, ptr %_0, align 1, !dbg !2766
  br label %bb41, !dbg !2766

bb33:                                             ; preds = %start
  store i8 29, ptr %_0, align 1, !dbg !2767
  br label %bb41, !dbg !2767

bb34:                                             ; preds = %start
  store i8 31, ptr %_0, align 1, !dbg !2768
  br label %bb41, !dbg !2768

bb35:                                             ; preds = %start, %start
  store i8 1, ptr %_0, align 1, !dbg !2769
  br label %bb41, !dbg !2769

bb41:                                             ; preds = %bb39, %bb40, %bb35, %bb34, %bb33, %bb32, %bb31, %bb30, %bb29, %bb28, %bb27, %bb26, %bb25, %bb24, %bb23, %bb22, %bb21, %bb20, %bb19, %bb18, %bb17, %bb16, %bb15, %bb14, %bb13, %bb12, %bb11, %bb10, %bb9, %bb8, %bb7, %bb6, %bb5, %bb4, %bb3, %bb2, %bb1
  %1 = load i8, ptr %_0, align 1, !dbg !2770, !range !1444, !noundef !55
  ret i8 %1, !dbg !2770

bb38:                                             ; preds = %bb36
  %_8 = load i32, ptr %_2, align 4, !dbg !2771, !noundef !55
  %_7 = icmp eq i32 %_8, 11, !dbg !2771
  br i1 %_7, label %bb39, label %bb40, !dbg !2771

bb37:                                             ; preds = %bb36
  br label %bb39, !dbg !2732

bb40:                                             ; preds = %bb38
  store i8 40, ptr %_0, align 1, !dbg !2772
  br label %bb41, !dbg !2772

bb39:                                             ; preds = %bb37, %bb38
  %x = load i32, ptr %_2, align 4, !dbg !2732, !noundef !55
  store i32 %x, ptr %x.dbg.spill1, align 4, !dbg !2732
  call void @llvm.dbg.declare(metadata ptr %x.dbg.spill1, metadata !2726, metadata !DIExpression()), !dbg !2733
  store i8 13, ptr %_0, align 1, !dbg !2773
  br label %bb41, !dbg !2774
}

; std::path::Path::new
; Function Attrs: nonlazybind uwtable
define { ptr, i64 } @_ZN3std4path4Path3new17h8d39a00e97987768E(ptr align 1 %s.0, i64 %s.1) unnamed_addr #1 !dbg !2775 {
start:
  %s.dbg.spill = alloca { ptr, i64 }, align 8
  store ptr %s.0, ptr %s.dbg.spill, align 8
  %0 = getelementptr inbounds i8, ptr %s.dbg.spill, i64 8
  store i64 %s.1, ptr %0, align 8
  call void @llvm.dbg.declare(metadata ptr %s.dbg.spill, metadata !2788, metadata !DIExpression()), !dbg !2789
; call <std::ffi::os_str::OsStr as core::convert::AsRef<std::ffi::os_str::OsStr>>::as_ref
  %1 = call { ptr, i64 } @"_ZN95_$LT$std..ffi..os_str..OsStr$u20$as$u20$core..convert..AsRef$LT$std..ffi..os_str..OsStr$GT$$GT$6as_ref17hb48fd46a29ac27b9E"(ptr align 1 %s.0, i64 %s.1), !dbg !2790
  %_4.0 = extractvalue { ptr, i64 } %1, 0, !dbg !2790
  %_4.1 = extractvalue { ptr, i64 } %1, 1, !dbg !2790
  %2 = insertvalue { ptr, i64 } poison, ptr %_4.0, 0, !dbg !2791
  %3 = insertvalue { ptr, i64 } %2, i64 %_4.1, 1, !dbg !2791
  ret { ptr, i64 } %3, !dbg !2791
}

; std::path::Path::as_os_str
; Function Attrs: inlinehint nonlazybind uwtable
define internal { ptr, i64 } @_ZN3std4path4Path9as_os_str17h8f48a632c1d68dedE(ptr align 1 %self.0, i64 %self.1) unnamed_addr #0 !dbg !2792 {
start:
  %self.dbg.spill = alloca { ptr, i64 }, align 8
  store ptr %self.0, ptr %self.dbg.spill, align 8
  %0 = getelementptr inbounds i8, ptr %self.dbg.spill, i64 8
  store i64 %self.1, ptr %0, align 8
  call void @llvm.dbg.declare(metadata ptr %self.dbg.spill, metadata !2797, metadata !DIExpression()), !dbg !2798
  %1 = insertvalue { ptr, i64 } poison, ptr %self.0, 0, !dbg !2799
  %2 = insertvalue { ptr, i64 } %1, i64 %self.1, 1, !dbg !2799
  ret { ptr, i64 } %2, !dbg !2799
}

; <bool as core::fmt::Debug>::fmt
; Function Attrs: inlinehint nonlazybind uwtable
define internal zeroext i1 @"_ZN41_$LT$bool$u20$as$u20$core..fmt..Debug$GT$3fmt17hfa4c90811a4b0915E"(ptr align 1 %self, ptr align 8 %f) unnamed_addr #0 !dbg !2800 {
start:
  %f.dbg.spill = alloca ptr, align 8
  %self.dbg.spill = alloca ptr, align 8
  store ptr %self, ptr %self.dbg.spill, align 8
  call void @llvm.dbg.declare(metadata ptr %self.dbg.spill, metadata !2806, metadata !DIExpression()), !dbg !2808
  store ptr %f, ptr %f.dbg.spill, align 8
  call void @llvm.dbg.declare(metadata ptr %f.dbg.spill, metadata !2807, metadata !DIExpression()), !dbg !2809
; call <bool as core::fmt::Display>::fmt
  %_0 = call zeroext i1 @"_ZN43_$LT$bool$u20$as$u20$core..fmt..Display$GT$3fmt17hfe698f6385d984a8E"(ptr align 1 %self, ptr align 8 %f), !dbg !2810
  ret i1 %_0, !dbg !2811
}

; <&T as core::fmt::Debug>::fmt
; Function Attrs: nonlazybind uwtable
define zeroext i1 @"_ZN42_$LT$$RF$T$u20$as$u20$core..fmt..Debug$GT$3fmt17h03bec07fd08c6995E"(ptr align 8 %self, ptr align 8 %f) unnamed_addr #1 !dbg !2812 {
start:
  %f.dbg.spill = alloca ptr, align 8
  %self.dbg.spill = alloca ptr, align 8
  store ptr %self, ptr %self.dbg.spill, align 8
  call void @llvm.dbg.declare(metadata ptr %self.dbg.spill, metadata !2818, metadata !DIExpression()), !dbg !2820
  store ptr %f, ptr %f.dbg.spill, align 8
  call void @llvm.dbg.declare(metadata ptr %f.dbg.spill, metadata !2819, metadata !DIExpression()), !dbg !2821
  %_3 = load ptr, ptr %self, align 8, !dbg !2822, !nonnull !55, !align !2083, !noundef !55
; call core::fmt::num::<impl core::fmt::Debug for usize>::fmt
  %_0 = call zeroext i1 @"_ZN4core3fmt3num52_$LT$impl$u20$core..fmt..Debug$u20$for$u20$usize$GT$3fmt17hd763f82909d46fbfE"(ptr align 8 %_3, ptr align 8 %f), !dbg !2823
  ret i1 %_0, !dbg !2824
}

; <&T as core::fmt::Debug>::fmt
; Function Attrs: nonlazybind uwtable
define zeroext i1 @"_ZN42_$LT$$RF$T$u20$as$u20$core..fmt..Debug$GT$3fmt17h908230c49a97b13cE"(ptr align 8 %self, ptr align 8 %f) unnamed_addr #1 !dbg !2825 {
start:
  %f.dbg.spill = alloca ptr, align 8
  %self.dbg.spill = alloca ptr, align 8
  store ptr %self, ptr %self.dbg.spill, align 8
  call void @llvm.dbg.declare(metadata ptr %self.dbg.spill, metadata !2830, metadata !DIExpression()), !dbg !2832
  store ptr %f, ptr %f.dbg.spill, align 8
  call void @llvm.dbg.declare(metadata ptr %f.dbg.spill, metadata !2831, metadata !DIExpression()), !dbg !2833
  %_3 = load ptr, ptr %self, align 8, !dbg !2834, !nonnull !55, !align !2083, !noundef !55
; call <socket2::sockaddr::SockAddr as core::fmt::Debug>::fmt
  %_0 = call zeroext i1 @"_ZN64_$LT$socket2..sockaddr..SockAddr$u20$as$u20$core..fmt..Debug$GT$3fmt17hbb344f8e7be37cf5E"(ptr align 8 %_3, ptr align 8 %f), !dbg !2835
  ret i1 %_0, !dbg !2836
}

; <&T as core::fmt::Debug>::fmt
; Function Attrs: nonlazybind uwtable
define zeroext i1 @"_ZN42_$LT$$RF$T$u20$as$u20$core..fmt..Debug$GT$3fmt17hae51a72e01c4cf22E"(ptr align 8 %self, ptr align 8 %f) unnamed_addr #1 !dbg !2837 {
start:
  %f.dbg.spill = alloca ptr, align 8
  %self.dbg.spill = alloca ptr, align 8
  store ptr %self, ptr %self.dbg.spill, align 8
  call void @llvm.dbg.declare(metadata ptr %self.dbg.spill, metadata !2842, metadata !DIExpression()), !dbg !2844
  store ptr %f, ptr %f.dbg.spill, align 8
  call void @llvm.dbg.declare(metadata ptr %f.dbg.spill, metadata !2843, metadata !DIExpression()), !dbg !2845
  %_3 = load ptr, ptr %self, align 8, !dbg !2846, !nonnull !55, !align !2847, !noundef !55
; call core::fmt::num::<impl core::fmt::Debug for i32>::fmt
  %_0 = call zeroext i1 @"_ZN4core3fmt3num50_$LT$impl$u20$core..fmt..Debug$u20$for$u20$i32$GT$3fmt17h01abf5b677dc155cE"(ptr align 4 %_3, ptr align 8 %f), !dbg !2848
  ret i1 %_0, !dbg !2849
}

; <&T as core::fmt::Debug>::fmt
; Function Attrs: nonlazybind uwtable
define zeroext i1 @"_ZN42_$LT$$RF$T$u20$as$u20$core..fmt..Debug$GT$3fmt17hde512889d52820f2E"(ptr align 8 %self, ptr align 8 %f) unnamed_addr #1 !dbg !2850 {
start:
  %f.dbg.spill = alloca ptr, align 8
  %self.dbg.spill = alloca ptr, align 8
  store ptr %self, ptr %self.dbg.spill, align 8
  call void @llvm.dbg.declare(metadata ptr %self.dbg.spill, metadata !2855, metadata !DIExpression()), !dbg !2859
  store ptr %f, ptr %f.dbg.spill, align 8
  call void @llvm.dbg.declare(metadata ptr %f.dbg.spill, metadata !2856, metadata !DIExpression()), !dbg !2860
  %_3 = load ptr, ptr %self, align 8, !dbg !2861, !nonnull !55, !align !2862, !noundef !55
; call <core::mem::maybe_uninit::MaybeUninit<T> as core::fmt::Debug>::fmt
  %_0 = call zeroext i1 @"_ZN82_$LT$core..mem..maybe_uninit..MaybeUninit$LT$T$GT$$u20$as$u20$core..fmt..Debug$GT$3fmt17hbd43d27be4c293ddE"(ptr align 1 %_3, ptr align 8 %f), !dbg !2863
  ret i1 %_0, !dbg !2864
}

; <[T] as core::fmt::Debug>::fmt
; Function Attrs: nonlazybind uwtable
define zeroext i1 @"_ZN48_$LT$$u5b$T$u5d$$u20$as$u20$core..fmt..Debug$GT$3fmt17h3ffdcd2393803bcdE"(ptr align 1 %self.0, i64 %self.1, ptr align 8 %f) unnamed_addr #1 !dbg !2865 {
start:
  %ptr.dbg.spill1 = alloca ptr, align 8
  %addr.dbg.spill = alloca i64, align 8
  %count.dbg.spill = alloca i64, align 8
  %ptr.dbg.spill = alloca ptr, align 8
  %f.dbg.spill = alloca ptr, align 8
  %self.dbg.spill = alloca { ptr, i64 }, align 8
  %_12 = alloca ptr, align 8
  %end_or_len = alloca ptr, align 8
  %_6 = alloca %"core::slice::iter::Iter<'_, core::mem::maybe_uninit::MaybeUninit<u8>>", align 8
  %_5 = alloca %"core::fmt::builders::DebugList<'_, '_>", align 8
  store ptr %self.0, ptr %self.dbg.spill, align 8
  %0 = getelementptr inbounds i8, ptr %self.dbg.spill, i64 8
  store i64 %self.1, ptr %0, align 8
  call void @llvm.dbg.declare(metadata ptr %self.dbg.spill, metadata !2875, metadata !DIExpression()), !dbg !2877
  call void @llvm.dbg.declare(metadata ptr %self.dbg.spill, metadata !2878, metadata !DIExpression()), !dbg !2897
  call void @llvm.dbg.declare(metadata ptr %self.dbg.spill, metadata !2899, metadata !DIExpression()), !dbg !2909
  call void @llvm.dbg.declare(metadata ptr %self.dbg.spill, metadata !2911, metadata !DIExpression()), !dbg !2917
  store ptr %f, ptr %f.dbg.spill, align 8
  call void @llvm.dbg.declare(metadata ptr %f.dbg.spill, metadata !2876, metadata !DIExpression()), !dbg !2919
  call void @llvm.dbg.declare(metadata ptr %end_or_len, metadata !2907, metadata !DIExpression()), !dbg !2920
; call core::fmt::Formatter::debug_list
  call void @_ZN4core3fmt9Formatter10debug_list17h876a1c15cedf3397E(ptr sret(%"core::fmt::builders::DebugList<'_, '_>") align 8 %_5, ptr align 8 %f), !dbg !2921
  store ptr %self.0, ptr %ptr.dbg.spill, align 8, !dbg !2922
  call void @llvm.dbg.declare(metadata ptr %ptr.dbg.spill, metadata !2905, metadata !DIExpression()), !dbg !2923
  call void @llvm.dbg.declare(metadata ptr %ptr.dbg.spill, metadata !2924, metadata !DIExpression()), !dbg !2931
  br i1 false, label %bb4, label %bb5, !dbg !2933

bb5:                                              ; preds = %start
  store i64 %self.1, ptr %count.dbg.spill, align 8, !dbg !2934
  call void @llvm.dbg.declare(metadata ptr %count.dbg.spill, metadata !2930, metadata !DIExpression()), !dbg !2935
  %1 = getelementptr inbounds i8, ptr %self.0, i64 %self.1, !dbg !2936
  store ptr %1, ptr %end_or_len, align 8, !dbg !2936
  br label %bb6, !dbg !2937

bb4:                                              ; preds = %start
  store i64 %self.1, ptr %addr.dbg.spill, align 8, !dbg !2938
  call void @llvm.dbg.declare(metadata ptr %addr.dbg.spill, metadata !2939, metadata !DIExpression()), !dbg !2945
  %2 = inttoptr i64 %self.1 to ptr, !dbg !2947
  store ptr %2, ptr %end_or_len, align 8, !dbg !2947
  br label %bb6, !dbg !2937

bb6:                                              ; preds = %bb4, %bb5
  store ptr %self.0, ptr %ptr.dbg.spill1, align 8, !dbg !2948
  call void @llvm.dbg.declare(metadata ptr %ptr.dbg.spill1, metadata !2949, metadata !DIExpression()), !dbg !2957
  store ptr %self.0, ptr %_12, align 8, !dbg !2959
  %_14 = load ptr, ptr %end_or_len, align 8, !dbg !2960, !noundef !55
  %3 = load ptr, ptr %_12, align 8, !dbg !2961, !nonnull !55, !noundef !55
  store ptr %3, ptr %_6, align 8, !dbg !2961
  %4 = getelementptr inbounds i8, ptr %_6, i64 8, !dbg !2961
  store ptr %_14, ptr %4, align 8, !dbg !2961
  %5 = load ptr, ptr %_6, align 8, !dbg !2921, !nonnull !55, !noundef !55
  %6 = getelementptr inbounds i8, ptr %_6, i64 8, !dbg !2921
  %7 = load ptr, ptr %6, align 8, !dbg !2921, !noundef !55
; call core::fmt::builders::DebugList::entries
  %_3 = call align 8 ptr @_ZN4core3fmt8builders9DebugList7entries17hd77dbdbaea1cf37bE(ptr align 8 %_5, ptr %5, ptr %7), !dbg !2921
; call core::fmt::builders::DebugList::finish
  %_0 = call zeroext i1 @_ZN4core3fmt8builders9DebugList6finish17h052888958915dc88E(ptr align 8 %_3), !dbg !2921
  ret i1 %_0, !dbg !2962
}

; core::cmp::PartialOrd::ge
; Function Attrs: inlinehint nonlazybind uwtable
define zeroext i1 @_ZN4core3cmp10PartialOrd2ge17h1730771d493844caE(ptr align 8 %self, ptr align 8 %other) unnamed_addr #0 !dbg !2963 {
start:
  %other.dbg.spill = alloca ptr, align 8
  %self.dbg.spill = alloca ptr, align 8
  %_3 = alloca i8, align 1
  %_0 = alloca i8, align 1
  store ptr %self, ptr %self.dbg.spill, align 8
  call void @llvm.dbg.declare(metadata ptr %self.dbg.spill, metadata !2978, metadata !DIExpression()), !dbg !2983
  store ptr %other, ptr %other.dbg.spill, align 8
  call void @llvm.dbg.declare(metadata ptr %other.dbg.spill, metadata !2979, metadata !DIExpression()), !dbg !2984
; call <core::time::Duration as core::cmp::PartialOrd>::partial_cmp
  %0 = call i8 @"_ZN62_$LT$core..time..Duration$u20$as$u20$core..cmp..PartialOrd$GT$11partial_cmp17h98a0d5e79d6397acE"(ptr align 8 %self, ptr align 8 %other), !dbg !2985, !range !2986
  store i8 %0, ptr %_3, align 1, !dbg !2985
  %1 = load i8, ptr %_3, align 1, !dbg !2985, !range !2986, !noundef !55
  %2 = icmp eq i8 %1, 2, !dbg !2985
  %_5 = select i1 %2, i64 0, i64 1, !dbg !2985
  %3 = icmp eq i64 %_5, 1, !dbg !2987
  br i1 %3, label %bb3, label %bb2, !dbg !2987

bb3:                                              ; preds = %start
  %_4 = load i8, ptr %_3, align 1, !dbg !2985, !range !2988, !noundef !55
  switch i8 %_4, label %bb2 [
    i8 0, label %bb4
    i8 1, label %bb4
  ], !dbg !2987

bb2:                                              ; preds = %bb3, %start
  store i8 0, ptr %_0, align 1, !dbg !2987
  br label %bb5, !dbg !2987

bb4:                                              ; preds = %bb3, %bb3
  store i8 1, ptr %_0, align 1, !dbg !2987
  br label %bb5, !dbg !2987

bb5:                                              ; preds = %bb2, %bb4
  %4 = load i8, ptr %_0, align 1, !dbg !2989, !range !1438, !noundef !55
  %5 = trunc i8 %4 to i1, !dbg !2989
  ret i1 %5, !dbg !2989
}

; core::cmp::Ord::min
; Function Attrs: inlinehint nonlazybind uwtable
define i64 @_ZN4core3cmp3Ord3min17h8a79ad27e533a446E(i64 %self, i64 %other) unnamed_addr #0 !dbg !2990 {
start:
  %other.dbg.spill = alloca i64, align 8
  %self.dbg.spill = alloca i64, align 8
  store i64 %self, ptr %self.dbg.spill, align 8
  call void @llvm.dbg.declare(metadata ptr %self.dbg.spill, metadata !2995, metadata !DIExpression()), !dbg !2999
  store i64 %other, ptr %other.dbg.spill, align 8
  call void @llvm.dbg.declare(metadata ptr %other.dbg.spill, metadata !2996, metadata !DIExpression()), !dbg !3000
; call core::cmp::min_by
  %_0 = call i64 @_ZN4core3cmp6min_by17h74f511c3cf96be1eE(i64 %self, i64 %other), !dbg !3001
  ret i64 %_0, !dbg !3002
}

; core::cmp::Ord::min
; Function Attrs: inlinehint nonlazybind uwtable
define i64 @_ZN4core3cmp3Ord3min17ha90bdeba9ee7bdc0E(i64 %self, i64 %other) unnamed_addr #0 !dbg !3003 {
start:
  %other.dbg.spill = alloca i64, align 8
  %self.dbg.spill = alloca i64, align 8
  store i64 %self, ptr %self.dbg.spill, align 8
  call void @llvm.dbg.declare(metadata ptr %self.dbg.spill, metadata !3007, metadata !DIExpression()), !dbg !3011
  store i64 %other, ptr %other.dbg.spill, align 8
  call void @llvm.dbg.declare(metadata ptr %other.dbg.spill, metadata !3008, metadata !DIExpression()), !dbg !3012
; call core::cmp::min_by
  %_0 = call i64 @_ZN4core3cmp6min_by17h00270ee3b20ae5f2E(i64 %self, i64 %other), !dbg !3013
  ret i64 %_0, !dbg !3014
}

; core::cmp::Ord::clamp
; Function Attrs: nonlazybind uwtable
define i128 @_ZN4core3cmp3Ord5clamp17h83e93fcc34bbd3e4E(i128 %0, i128 %1, i128 %2) unnamed_addr #1 personality ptr @rust_eh_personality !dbg !3015 {
start:
  %other.dbg.spill.i6 = alloca ptr, align 8
  %self.dbg.spill.i7 = alloca ptr, align 8
  %other.dbg.spill.i1 = alloca ptr, align 8
  %self.dbg.spill.i2 = alloca ptr, align 8
  %other.dbg.spill.i = alloca ptr, align 8
  %self.dbg.spill.i = alloca ptr, align 8
  %3 = alloca { ptr, i32, [1 x i32] }, align 8
  %_16 = alloca i8, align 1
  %_15 = alloca i8, align 1
  %_14 = alloca i8, align 1
  %_0 = alloca i128, align 16
  %max = alloca i128, align 16
  %min = alloca i128, align 16
  %self = alloca i128, align 16
  store i128 %0, ptr %self, align 16
  store i128 %1, ptr %min, align 16
  store i128 %2, ptr %max, align 16
  call void @llvm.dbg.declare(metadata ptr %self, metadata !3020, metadata !DIExpression()), !dbg !3025
  call void @llvm.dbg.declare(metadata ptr %min, metadata !3021, metadata !DIExpression()), !dbg !3026
  call void @llvm.dbg.declare(metadata ptr %max, metadata !3022, metadata !DIExpression()), !dbg !3027
  store i8 1, ptr %_16, align 1, !dbg !3028
  store i8 1, ptr %_15, align 1, !dbg !3028
  store i8 1, ptr %_14, align 1, !dbg !3028
  store ptr %min, ptr %self.dbg.spill.i2, align 8
  call void @llvm.dbg.declare(metadata ptr %self.dbg.spill.i2, metadata !3029, metadata !DIExpression()), !dbg !3038
  store ptr %max, ptr %other.dbg.spill.i1, align 8
  call void @llvm.dbg.declare(metadata ptr %other.dbg.spill.i1, metadata !3037, metadata !DIExpression()), !dbg !3040
  %_3.i3 = load i128, ptr %min, align 16, !dbg !3041, !noundef !55
  %_4.i4 = load i128, ptr %max, align 16, !dbg !3042, !noundef !55
  %_0.i5 = icmp ule i128 %_3.i3, %_4.i4, !dbg !3041
  br label %bb1, !dbg !3043

bb15:                                             ; preds = %cleanup
  br label %bb22, !dbg !3044

cleanup:                                          ; preds = %bb3
  %4 = landingpad { ptr, i32 }
          cleanup
  %5 = extractvalue { ptr, i32 } %4, 0
  %6 = extractvalue { ptr, i32 } %4, 1
  store ptr %5, ptr %3, align 8
  %7 = getelementptr inbounds i8, ptr %3, i64 8
  store i32 %6, ptr %7, align 8
  br label %bb15

bb1:                                              ; preds = %start
  br i1 %_0.i5, label %bb2, label %bb3, !dbg !3045

bb3:                                              ; preds = %bb1
; invoke core::panicking::panic
  invoke void @_ZN4core9panicking5panic17h59297120e85ea178E(ptr align 1 @alloc_cbeadf0d66a611997eb75acae7c0e0f8, i64 28, ptr align 8 @alloc_e6c841246b2f116761403296e0436aae) #18
          to label %unreachable unwind label %cleanup, !dbg !3028

bb2:                                              ; preds = %bb1
  store ptr %self, ptr %self.dbg.spill.i7, align 8
  call void @llvm.dbg.declare(metadata ptr %self.dbg.spill.i7, metadata !3046, metadata !DIExpression()), !dbg !3050
  store ptr %min, ptr %other.dbg.spill.i6, align 8
  call void @llvm.dbg.declare(metadata ptr %other.dbg.spill.i6, metadata !3049, metadata !DIExpression()), !dbg !3052
  %_3.i8 = load i128, ptr %self, align 16, !dbg !3053, !noundef !55
  %_4.i9 = load i128, ptr %min, align 16, !dbg !3054, !noundef !55
  %_0.i10 = icmp ult i128 %_3.i8, %_4.i9, !dbg !3053
  br label %bb4, !dbg !3055

unreachable:                                      ; preds = %bb3
  unreachable

bb4:                                              ; preds = %bb2
  br i1 %_0.i10, label %bb5, label %bb6, !dbg !3056

bb6:                                              ; preds = %bb4
  store ptr %self, ptr %self.dbg.spill.i, align 8
  call void @llvm.dbg.declare(metadata ptr %self.dbg.spill.i, metadata !3057, metadata !DIExpression()), !dbg !3061
  store ptr %max, ptr %other.dbg.spill.i, align 8
  call void @llvm.dbg.declare(metadata ptr %other.dbg.spill.i, metadata !3060, metadata !DIExpression()), !dbg !3063
  %_3.i = load i128, ptr %self, align 16, !dbg !3064, !noundef !55
  %_4.i = load i128, ptr %max, align 16, !dbg !3065, !noundef !55
  %_0.i = icmp ugt i128 %_3.i, %_4.i, !dbg !3064
  br label %bb7, !dbg !3066

bb5:                                              ; preds = %bb4
  store i8 0, ptr %_15, align 1, !dbg !3067
  %8 = load i128, ptr %min, align 16, !dbg !3067, !noundef !55
  store i128 %8, ptr %_0, align 16, !dbg !3067
  br label %bb11, !dbg !3068

bb7:                                              ; preds = %bb6
  br i1 %_0.i, label %bb8, label %bb9, !dbg !3069

bb9:                                              ; preds = %bb7
  store i8 0, ptr %_16, align 1, !dbg !3070
  %9 = load i128, ptr %self, align 16, !dbg !3070, !noundef !55
  store i128 %9, ptr %_0, align 16, !dbg !3070
  br label %bb10, !dbg !3071

bb8:                                              ; preds = %bb7
  store i8 0, ptr %_14, align 1, !dbg !3072
  %10 = load i128, ptr %max, align 16, !dbg !3072, !noundef !55
  store i128 %10, ptr %_0, align 16, !dbg !3072
  br label %bb10, !dbg !3071

bb10:                                             ; preds = %bb8, %bb9
  br label %bb11, !dbg !3068

bb11:                                             ; preds = %bb5, %bb10
  %11 = load i8, ptr %_14, align 1, !dbg !3044, !range !1438, !noundef !55
  %12 = trunc i8 %11 to i1, !dbg !3044
  br i1 %12, label %bb18, label %bb12, !dbg !3044

bb12:                                             ; preds = %bb18, %bb11
  %13 = load i8, ptr %_15, align 1, !dbg !3044, !range !1438, !noundef !55
  %14 = trunc i8 %13 to i1, !dbg !3044
  br i1 %14, label %bb19, label %bb13, !dbg !3044

bb18:                                             ; preds = %bb11
  br label %bb12, !dbg !3044

bb13:                                             ; preds = %bb19, %bb12
  %15 = load i8, ptr %_16, align 1, !dbg !3044, !range !1438, !noundef !55
  %16 = trunc i8 %15 to i1, !dbg !3044
  br i1 %16, label %bb20, label %bb14, !dbg !3044

bb19:                                             ; preds = %bb12
  br label %bb13, !dbg !3044

bb14:                                             ; preds = %bb20, %bb13
  %17 = load i128, ptr %_0, align 16, !dbg !3073, !noundef !55
  ret i128 %17, !dbg !3073

bb20:                                             ; preds = %bb13
  br label %bb14, !dbg !3044

bb22:                                             ; preds = %bb15
  %18 = load i8, ptr %_15, align 1, !dbg !3044, !range !1438, !noundef !55
  %19 = trunc i8 %18 to i1, !dbg !3044
  br i1 %19, label %bb21, label %bb16, !dbg !3044

bb16:                                             ; preds = %bb21, %bb22
  %20 = load i8, ptr %_16, align 1, !dbg !3044, !range !1438, !noundef !55
  %21 = trunc i8 %20 to i1, !dbg !3044
  br i1 %21, label %bb23, label %bb17, !dbg !3044

bb21:                                             ; preds = %bb22
  br label %bb16, !dbg !3044

bb17:                                             ; preds = %bb23, %bb16
  %22 = load ptr, ptr %3, align 8, !dbg !3074, !noundef !55
  %23 = getelementptr inbounds i8, ptr %3, i64 8, !dbg !3074
  %24 = load i32, ptr %23, align 8, !dbg !3074, !noundef !55
  %25 = insertvalue { ptr, i32 } poison, ptr %22, 0, !dbg !3074
  %26 = insertvalue { ptr, i32 } %25, i32 %24, 1, !dbg !3074
  resume { ptr, i32 } %26, !dbg !3074

bb23:                                             ; preds = %bb16
  br label %bb17, !dbg !3044
}

; core::cmp::min
; Function Attrs: inlinehint nonlazybind uwtable
define i64 @_ZN4core3cmp3min17h99af9c08c516a73eE(i64 %v1, i64 %v2) unnamed_addr #0 !dbg !3075 {
start:
  %v2.dbg.spill = alloca i64, align 8
  %v1.dbg.spill = alloca i64, align 8
  store i64 %v1, ptr %v1.dbg.spill, align 8
  call void @llvm.dbg.declare(metadata ptr %v1.dbg.spill, metadata !3077, metadata !DIExpression()), !dbg !3079
  store i64 %v2, ptr %v2.dbg.spill, align 8
  call void @llvm.dbg.declare(metadata ptr %v2.dbg.spill, metadata !3078, metadata !DIExpression()), !dbg !3080
; call core::cmp::Ord::min
  %_0 = call i64 @_ZN4core3cmp3Ord3min17h8a79ad27e533a446E(i64 %v1, i64 %v2), !dbg !3081
  ret i64 %_0, !dbg !3082
}

; core::cmp::min
; Function Attrs: inlinehint nonlazybind uwtable
define i64 @_ZN4core3cmp3min17ha6a690eb3f913594E(i64 %v1, i64 %v2) unnamed_addr #0 !dbg !3083 {
start:
  %v2.dbg.spill = alloca i64, align 8
  %v1.dbg.spill = alloca i64, align 8
  store i64 %v1, ptr %v1.dbg.spill, align 8
  call void @llvm.dbg.declare(metadata ptr %v1.dbg.spill, metadata !3085, metadata !DIExpression()), !dbg !3089
  store i64 %v2, ptr %v2.dbg.spill, align 8
  call void @llvm.dbg.declare(metadata ptr %v2.dbg.spill, metadata !3086, metadata !DIExpression()), !dbg !3090
; call core::cmp::Ord::min
  %_0 = call i64 @_ZN4core3cmp3Ord3min17ha90bdeba9ee7bdc0E(i64 %v1, i64 %v2), !dbg !3091
  ret i64 %_0, !dbg !3092
}

; core::cmp::impls::<impl core::cmp::Ord for u64>::cmp
; Function Attrs: inlinehint nonlazybind uwtable
define internal i8 @"_ZN4core3cmp5impls48_$LT$impl$u20$core..cmp..Ord$u20$for$u20$u64$GT$3cmp17he56b1048f0ce250bE"(ptr align 8 %self, ptr align 8 %other) unnamed_addr #0 !dbg !3093 {
start:
  %other.dbg.spill = alloca ptr, align 8
  %self.dbg.spill = alloca ptr, align 8
  %_0 = alloca i8, align 1
  store ptr %self, ptr %self.dbg.spill, align 8
  call void @llvm.dbg.declare(metadata ptr %self.dbg.spill, metadata !3099, metadata !DIExpression()), !dbg !3101
  store ptr %other, ptr %other.dbg.spill, align 8
  call void @llvm.dbg.declare(metadata ptr %other.dbg.spill, metadata !3100, metadata !DIExpression()), !dbg !3102
  %_4 = load i64, ptr %self, align 8, !dbg !3103, !noundef !55
  %_5 = load i64, ptr %other, align 8, !dbg !3104, !noundef !55
  %_3 = icmp ult i64 %_4, %_5, !dbg !3103
  br i1 %_3, label %bb1, label %bb2, !dbg !3103

bb2:                                              ; preds = %start
  %_6 = icmp eq i64 %_4, %_5, !dbg !3105
  br i1 %_6, label %bb3, label %bb4, !dbg !3105

bb1:                                              ; preds = %start
  store i8 -1, ptr %_0, align 1, !dbg !3106
  br label %bb6, !dbg !3107

bb4:                                              ; preds = %bb2
  store i8 1, ptr %_0, align 1, !dbg !3108
  br label %bb5, !dbg !3109

bb3:                                              ; preds = %bb2
  store i8 0, ptr %_0, align 1, !dbg !3110
  br label %bb5, !dbg !3109

bb5:                                              ; preds = %bb3, %bb4
  br label %bb6, !dbg !3107

bb6:                                              ; preds = %bb1, %bb5
  %0 = load i8, ptr %_0, align 1, !dbg !3111, !range !2988, !noundef !55
  ret i8 %0, !dbg !3111
}

; core::cmp::impls::<impl core::cmp::Ord for usize>::cmp
; Function Attrs: inlinehint nonlazybind uwtable
define internal i8 @"_ZN4core3cmp5impls50_$LT$impl$u20$core..cmp..Ord$u20$for$u20$usize$GT$3cmp17h388a363d0f428bd0E"(ptr align 8 %self, ptr align 8 %other) unnamed_addr #0 !dbg !3112 {
start:
  %other.dbg.spill = alloca ptr, align 8
  %self.dbg.spill = alloca ptr, align 8
  %_0 = alloca i8, align 1
  store ptr %self, ptr %self.dbg.spill, align 8
  call void @llvm.dbg.declare(metadata ptr %self.dbg.spill, metadata !3117, metadata !DIExpression()), !dbg !3119
  store ptr %other, ptr %other.dbg.spill, align 8
  call void @llvm.dbg.declare(metadata ptr %other.dbg.spill, metadata !3118, metadata !DIExpression()), !dbg !3120
  %_4 = load i64, ptr %self, align 8, !dbg !3121, !noundef !55
  %_5 = load i64, ptr %other, align 8, !dbg !3122, !noundef !55
  %_3 = icmp ult i64 %_4, %_5, !dbg !3121
  br i1 %_3, label %bb1, label %bb2, !dbg !3121

bb2:                                              ; preds = %start
  %_6 = icmp eq i64 %_4, %_5, !dbg !3123
  br i1 %_6, label %bb3, label %bb4, !dbg !3123

bb1:                                              ; preds = %start
  store i8 -1, ptr %_0, align 1, !dbg !3124
  br label %bb6, !dbg !3125

bb4:                                              ; preds = %bb2
  store i8 1, ptr %_0, align 1, !dbg !3126
  br label %bb5, !dbg !3127

bb3:                                              ; preds = %bb2
  store i8 0, ptr %_0, align 1, !dbg !3128
  br label %bb5, !dbg !3127

bb5:                                              ; preds = %bb3, %bb4
  br label %bb6, !dbg !3125

bb6:                                              ; preds = %bb1, %bb5
  %0 = load i8, ptr %_0, align 1, !dbg !3129, !range !2988, !noundef !55
  ret i8 %0, !dbg !3129
}

; core::cmp::impls::<impl core::cmp::PartialEq for i32>::eq
; Function Attrs: inlinehint nonlazybind uwtable
define internal zeroext i1 @"_ZN4core3cmp5impls54_$LT$impl$u20$core..cmp..PartialEq$u20$for$u20$i32$GT$2eq17h4390a34ac58dd9daE"(ptr align 4 %self, ptr align 4 %other) unnamed_addr #0 !dbg !3130 {
start:
  %other.dbg.spill = alloca ptr, align 8
  %self.dbg.spill = alloca ptr, align 8
  store ptr %self, ptr %self.dbg.spill, align 8
  call void @llvm.dbg.declare(metadata ptr %self.dbg.spill, metadata !3135, metadata !DIExpression()), !dbg !3137
  store ptr %other, ptr %other.dbg.spill, align 8
  call void @llvm.dbg.declare(metadata ptr %other.dbg.spill, metadata !3136, metadata !DIExpression()), !dbg !3138
  %_3 = load i32, ptr %self, align 4, !dbg !3139, !noundef !55
  %_4 = load i32, ptr %other, align 4, !dbg !3140, !noundef !55
  %_0 = icmp eq i32 %_3, %_4, !dbg !3139
  ret i1 %_0, !dbg !3141
}

; core::cmp::impls::<impl core::cmp::PartialEq<&B> for &A>::eq
; Function Attrs: inlinehint nonlazybind uwtable
define zeroext i1 @"_ZN4core3cmp5impls69_$LT$impl$u20$core..cmp..PartialEq$LT$$RF$B$GT$$u20$for$u20$$RF$A$GT$2eq17hee62a6a1753f57c1E"(ptr align 8 %self, ptr align 8 %other) unnamed_addr #0 !dbg !3142 {
start:
  %other.dbg.spill = alloca ptr, align 8
  %self.dbg.spill = alloca ptr, align 8
  store ptr %self, ptr %self.dbg.spill, align 8
  call void @llvm.dbg.declare(metadata ptr %self.dbg.spill, metadata !3148, metadata !DIExpression()), !dbg !3153
  store ptr %other, ptr %other.dbg.spill, align 8
  call void @llvm.dbg.declare(metadata ptr %other.dbg.spill, metadata !3149, metadata !DIExpression()), !dbg !3154
  %_3.0 = load ptr, ptr %self, align 8, !dbg !3155, !nonnull !55, !align !2862, !noundef !55
  %0 = getelementptr inbounds i8, ptr %self, i64 8, !dbg !3155
  %_3.1 = load i64, ptr %0, align 8, !dbg !3155, !noundef !55
  %_4.0 = load ptr, ptr %other, align 8, !dbg !3156, !nonnull !55, !align !2862, !noundef !55
  %1 = getelementptr inbounds i8, ptr %other, i64 8, !dbg !3156
  %_4.1 = load i64, ptr %1, align 8, !dbg !3156, !noundef !55
; call core::slice::cmp::<impl core::cmp::PartialEq<[B]> for [A]>::eq
  %_0 = call zeroext i1 @"_ZN4core5slice3cmp81_$LT$impl$u20$core..cmp..PartialEq$LT$$u5b$B$u5d$$GT$$u20$for$u20$$u5b$A$u5d$$GT$2eq17h5adb0eb761409b70E"(ptr align 1 %_3.0, i64 %_3.1, ptr align 1 %_4.0, i64 %_4.1), !dbg !3157
  ret i1 %_0, !dbg !3158
}

; core::cmp::min_by
; Function Attrs: inlinehint nonlazybind uwtable
define i64 @_ZN4core3cmp6min_by17h00270ee3b20ae5f2E(i64 %0, i64 %1) unnamed_addr #0 personality ptr @rust_eh_personality !dbg !3159 {
start:
  %2 = alloca { ptr, i32, [1 x i32] }, align 8
  %compare.dbg.spill = alloca {}, align 1
  %_10 = alloca i8, align 1
  %_9 = alloca i8, align 1
  %_5 = alloca { ptr, ptr }, align 8
  %_4 = alloca i8, align 1
  %_0 = alloca i64, align 8
  %v2 = alloca i64, align 8
  %v1 = alloca i64, align 8
  store i64 %0, ptr %v1, align 8
  store i64 %1, ptr %v2, align 8
  call void @llvm.dbg.declare(metadata ptr %v1, metadata !3164, metadata !DIExpression()), !dbg !3169
  call void @llvm.dbg.declare(metadata ptr %v2, metadata !3165, metadata !DIExpression()), !dbg !3170
  call void @llvm.dbg.declare(metadata ptr %compare.dbg.spill, metadata !3166, metadata !DIExpression()), !dbg !3171
  store i8 1, ptr %_10, align 1, !dbg !3172
  store i8 1, ptr %_9, align 1, !dbg !3172
  store ptr %v1, ptr %_5, align 8, !dbg !3172
  %3 = getelementptr inbounds i8, ptr %_5, i64 8, !dbg !3172
  store ptr %v2, ptr %3, align 8, !dbg !3172
  %4 = load ptr, ptr %_5, align 8, !dbg !3172, !nonnull !55, !align !2083, !noundef !55
  %5 = getelementptr inbounds i8, ptr %_5, i64 8, !dbg !3172
  %6 = load ptr, ptr %5, align 8, !dbg !3172, !nonnull !55, !align !2083, !noundef !55
; invoke core::ops::function::FnOnce::call_once
  %7 = invoke i8 @_ZN4core3ops8function6FnOnce9call_once17h2141826b185bda73E(ptr align 8 %4, ptr align 8 %6)
          to label %bb1 unwind label %cleanup, !dbg !3172, !range !2988

bb7:                                              ; preds = %cleanup
  br label %bb12, !dbg !3173

cleanup:                                          ; preds = %start
  %8 = landingpad { ptr, i32 }
          cleanup
  %9 = extractvalue { ptr, i32 } %8, 0
  %10 = extractvalue { ptr, i32 } %8, 1
  store ptr %9, ptr %2, align 8
  %11 = getelementptr inbounds i8, ptr %2, i64 8
  store i32 %10, ptr %11, align 8
  br label %bb7

bb1:                                              ; preds = %start
  store i8 %7, ptr %_4, align 1, !dbg !3172
  %_8 = load i8, ptr %_4, align 1, !dbg !3172, !range !2988, !noundef !55
  switch i8 %_8, label %bb13 [
    i8 -1, label %bb3
    i8 0, label %bb3
    i8 1, label %bb2
  ], !dbg !3174

bb13:                                             ; preds = %bb1
  unreachable, !dbg !3174

bb3:                                              ; preds = %bb1, %bb1
  store i8 0, ptr %_10, align 1, !dbg !3175
  %12 = load i64, ptr %v1, align 8, !dbg !3175, !noundef !55
  store i64 %12, ptr %_0, align 8, !dbg !3175
  br label %bb4, !dbg !3175

bb2:                                              ; preds = %bb1
  store i8 0, ptr %_9, align 1, !dbg !3176
  %13 = load i64, ptr %v2, align 8, !dbg !3176, !noundef !55
  store i64 %13, ptr %_0, align 8, !dbg !3176
  br label %bb4, !dbg !3176

bb4:                                              ; preds = %bb2, %bb3
  %14 = load i8, ptr %_9, align 1, !dbg !3173, !range !1438, !noundef !55
  %15 = trunc i8 %14 to i1, !dbg !3173
  br i1 %15, label %bb9, label %bb5, !dbg !3173

bb5:                                              ; preds = %bb9, %bb4
  %16 = load i8, ptr %_10, align 1, !dbg !3173, !range !1438, !noundef !55
  %17 = trunc i8 %16 to i1, !dbg !3173
  br i1 %17, label %bb10, label %bb6, !dbg !3173

bb9:                                              ; preds = %bb4
  br label %bb5, !dbg !3173

bb6:                                              ; preds = %bb10, %bb5
  %18 = load i64, ptr %_0, align 8, !dbg !3177, !noundef !55
  ret i64 %18, !dbg !3177

bb10:                                             ; preds = %bb5
  br label %bb6, !dbg !3173

bb12:                                             ; preds = %bb7
  %19 = load i8, ptr %_10, align 1, !dbg !3173, !range !1438, !noundef !55
  %20 = trunc i8 %19 to i1, !dbg !3173
  br i1 %20, label %bb11, label %bb8, !dbg !3173

bb8:                                              ; preds = %bb11, %bb12
  %21 = load ptr, ptr %2, align 8, !dbg !3178, !noundef !55
  %22 = getelementptr inbounds i8, ptr %2, i64 8, !dbg !3178
  %23 = load i32, ptr %22, align 8, !dbg !3178, !noundef !55
  %24 = insertvalue { ptr, i32 } poison, ptr %21, 0, !dbg !3178
  %25 = insertvalue { ptr, i32 } %24, i32 %23, 1, !dbg !3178
  resume { ptr, i32 } %25, !dbg !3178

bb11:                                             ; preds = %bb12
  br label %bb8, !dbg !3173
}

; core::cmp::min_by
; Function Attrs: inlinehint nonlazybind uwtable
define i64 @_ZN4core3cmp6min_by17h74f511c3cf96be1eE(i64 %0, i64 %1) unnamed_addr #0 personality ptr @rust_eh_personality !dbg !3179 {
start:
  %2 = alloca { ptr, i32, [1 x i32] }, align 8
  %compare.dbg.spill = alloca {}, align 1
  %_10 = alloca i8, align 1
  %_9 = alloca i8, align 1
  %_5 = alloca { ptr, ptr }, align 8
  %_4 = alloca i8, align 1
  %_0 = alloca i64, align 8
  %v2 = alloca i64, align 8
  %v1 = alloca i64, align 8
  store i64 %0, ptr %v1, align 8
  store i64 %1, ptr %v2, align 8
  call void @llvm.dbg.declare(metadata ptr %v1, metadata !3184, metadata !DIExpression()), !dbg !3189
  call void @llvm.dbg.declare(metadata ptr %v2, metadata !3185, metadata !DIExpression()), !dbg !3190
  call void @llvm.dbg.declare(metadata ptr %compare.dbg.spill, metadata !3186, metadata !DIExpression()), !dbg !3191
  store i8 1, ptr %_10, align 1, !dbg !3192
  store i8 1, ptr %_9, align 1, !dbg !3192
  store ptr %v1, ptr %_5, align 8, !dbg !3192
  %3 = getelementptr inbounds i8, ptr %_5, i64 8, !dbg !3192
  store ptr %v2, ptr %3, align 8, !dbg !3192
  %4 = load ptr, ptr %_5, align 8, !dbg !3192, !nonnull !55, !align !2083, !noundef !55
  %5 = getelementptr inbounds i8, ptr %_5, i64 8, !dbg !3192
  %6 = load ptr, ptr %5, align 8, !dbg !3192, !nonnull !55, !align !2083, !noundef !55
; invoke core::ops::function::FnOnce::call_once
  %7 = invoke i8 @_ZN4core3ops8function6FnOnce9call_once17h4285eb8e76885c66E(ptr align 8 %4, ptr align 8 %6)
          to label %bb1 unwind label %cleanup, !dbg !3192, !range !2988

bb7:                                              ; preds = %cleanup
  br label %bb12, !dbg !3193

cleanup:                                          ; preds = %start
  %8 = landingpad { ptr, i32 }
          cleanup
  %9 = extractvalue { ptr, i32 } %8, 0
  %10 = extractvalue { ptr, i32 } %8, 1
  store ptr %9, ptr %2, align 8
  %11 = getelementptr inbounds i8, ptr %2, i64 8
  store i32 %10, ptr %11, align 8
  br label %bb7

bb1:                                              ; preds = %start
  store i8 %7, ptr %_4, align 1, !dbg !3192
  %_8 = load i8, ptr %_4, align 1, !dbg !3192, !range !2988, !noundef !55
  switch i8 %_8, label %bb13 [
    i8 -1, label %bb3
    i8 0, label %bb3
    i8 1, label %bb2
  ], !dbg !3194

bb13:                                             ; preds = %bb1
  unreachable, !dbg !3194

bb3:                                              ; preds = %bb1, %bb1
  store i8 0, ptr %_10, align 1, !dbg !3195
  %12 = load i64, ptr %v1, align 8, !dbg !3195, !noundef !55
  store i64 %12, ptr %_0, align 8, !dbg !3195
  br label %bb4, !dbg !3195

bb2:                                              ; preds = %bb1
  store i8 0, ptr %_9, align 1, !dbg !3196
  %13 = load i64, ptr %v2, align 8, !dbg !3196, !noundef !55
  store i64 %13, ptr %_0, align 8, !dbg !3196
  br label %bb4, !dbg !3196

bb4:                                              ; preds = %bb2, %bb3
  %14 = load i8, ptr %_9, align 1, !dbg !3193, !range !1438, !noundef !55
  %15 = trunc i8 %14 to i1, !dbg !3193
  br i1 %15, label %bb9, label %bb5, !dbg !3193

bb5:                                              ; preds = %bb9, %bb4
  %16 = load i8, ptr %_10, align 1, !dbg !3193, !range !1438, !noundef !55
  %17 = trunc i8 %16 to i1, !dbg !3193
  br i1 %17, label %bb10, label %bb6, !dbg !3193

bb9:                                              ; preds = %bb4
  br label %bb5, !dbg !3193

bb6:                                              ; preds = %bb10, %bb5
  %18 = load i64, ptr %_0, align 8, !dbg !3197, !noundef !55
  ret i64 %18, !dbg !3197

bb10:                                             ; preds = %bb5
  br label %bb6, !dbg !3193

bb12:                                             ; preds = %bb7
  %19 = load i8, ptr %_10, align 1, !dbg !3193, !range !1438, !noundef !55
  %20 = trunc i8 %19 to i1, !dbg !3193
  br i1 %20, label %bb11, label %bb8, !dbg !3193

bb8:                                              ; preds = %bb11, %bb12
  %21 = load ptr, ptr %2, align 8, !dbg !3198, !noundef !55
  %22 = getelementptr inbounds i8, ptr %2, i64 8, !dbg !3198
  %23 = load i32, ptr %22, align 8, !dbg !3198, !noundef !55
  %24 = insertvalue { ptr, i32 } poison, ptr %21, 0, !dbg !3198
  %25 = insertvalue { ptr, i32 } %24, i32 %23, 1, !dbg !3198
  resume { ptr, i32 } %25, !dbg !3198

bb11:                                             ; preds = %bb12
  br label %bb8, !dbg !3193
}

; core::fmt::num::<impl core::fmt::Debug for i32>::fmt
; Function Attrs: inlinehint nonlazybind uwtable
define internal zeroext i1 @"_ZN4core3fmt3num50_$LT$impl$u20$core..fmt..Debug$u20$for$u20$i32$GT$3fmt17h01abf5b677dc155cE"(ptr align 4 %self, ptr align 8 %f) unnamed_addr #0 !dbg !3199 {
start:
  %f.dbg.spill = alloca ptr, align 8
  %self.dbg.spill = alloca ptr, align 8
  %_0 = alloca i8, align 1
  store ptr %self, ptr %self.dbg.spill, align 8
  call void @llvm.dbg.declare(metadata ptr %self.dbg.spill, metadata !3206, metadata !DIExpression()), !dbg !3208
  store ptr %f, ptr %f.dbg.spill, align 8
  call void @llvm.dbg.declare(metadata ptr %f.dbg.spill, metadata !3207, metadata !DIExpression()), !dbg !3209
  call void @llvm.dbg.declare(metadata ptr %f.dbg.spill, metadata !3210, metadata !DIExpression()), !dbg !3218
  call void @llvm.dbg.declare(metadata ptr %f.dbg.spill, metadata !3220, metadata !DIExpression()), !dbg !3225
  %0 = getelementptr inbounds %"core::fmt::Formatter<'_>", ptr %f, i32 0, i32 4, !dbg !3227
  %_4 = load i32, ptr %0, align 4, !dbg !3227, !noundef !55
  %_3 = and i32 %_4, 16, !dbg !3227
  %1 = icmp eq i32 %_3, 0, !dbg !3228
  br i1 %1, label %bb2, label %bb1, !dbg !3228

bb2:                                              ; preds = %start
  %2 = getelementptr inbounds %"core::fmt::Formatter<'_>", ptr %f, i32 0, i32 4, !dbg !3229
  %_6 = load i32, ptr %2, align 4, !dbg !3229, !noundef !55
  %_5 = and i32 %_6, 32, !dbg !3229
  %3 = icmp eq i32 %_5, 0, !dbg !3230
  br i1 %3, label %bb4, label %bb3, !dbg !3230

bb1:                                              ; preds = %start
; call core::fmt::num::<impl core::fmt::LowerHex for i32>::fmt
  %4 = call zeroext i1 @"_ZN4core3fmt3num53_$LT$impl$u20$core..fmt..LowerHex$u20$for$u20$i32$GT$3fmt17h69cbcbb2134f7473E"(ptr align 4 %self, ptr align 8 %f), !dbg !3231
  %5 = zext i1 %4 to i8, !dbg !3231
  store i8 %5, ptr %_0, align 1, !dbg !3231
  br label %bb6, !dbg !3231

bb4:                                              ; preds = %bb2
; call core::fmt::num::imp::<impl core::fmt::Display for i32>::fmt
  %6 = call zeroext i1 @"_ZN4core3fmt3num3imp52_$LT$impl$u20$core..fmt..Display$u20$for$u20$i32$GT$3fmt17hefb7f2f762607f15E"(ptr align 4 %self, ptr align 8 %f), !dbg !3232
  %7 = zext i1 %6 to i8, !dbg !3232
  store i8 %7, ptr %_0, align 1, !dbg !3232
  br label %bb5, !dbg !3232

bb3:                                              ; preds = %bb2
; call core::fmt::num::<impl core::fmt::UpperHex for i32>::fmt
  %8 = call zeroext i1 @"_ZN4core3fmt3num53_$LT$impl$u20$core..fmt..UpperHex$u20$for$u20$i32$GT$3fmt17hcd466f884accab05E"(ptr align 4 %self, ptr align 8 %f), !dbg !3233
  %9 = zext i1 %8 to i8, !dbg !3233
  store i8 %9, ptr %_0, align 1, !dbg !3233
  br label %bb5, !dbg !3233

bb5:                                              ; preds = %bb3, %bb4
  br label %bb6, !dbg !3234

bb6:                                              ; preds = %bb1, %bb5
  %10 = load i8, ptr %_0, align 1, !dbg !3235, !range !1438, !noundef !55
  %11 = trunc i8 %10 to i1, !dbg !3235
  ret i1 %11, !dbg !3235
}

; core::fmt::num::<impl core::fmt::Debug for u16>::fmt
; Function Attrs: inlinehint nonlazybind uwtable
define internal zeroext i1 @"_ZN4core3fmt3num50_$LT$impl$u20$core..fmt..Debug$u20$for$u20$u16$GT$3fmt17h078a049b3ca893ebE"(ptr align 2 %self, ptr align 8 %f) unnamed_addr #0 !dbg !3236 {
start:
  %f.dbg.spill = alloca ptr, align 8
  %self.dbg.spill = alloca ptr, align 8
  %_0 = alloca i8, align 1
  store ptr %self, ptr %self.dbg.spill, align 8
  call void @llvm.dbg.declare(metadata ptr %self.dbg.spill, metadata !3242, metadata !DIExpression()), !dbg !3244
  store ptr %f, ptr %f.dbg.spill, align 8
  call void @llvm.dbg.declare(metadata ptr %f.dbg.spill, metadata !3243, metadata !DIExpression()), !dbg !3245
  call void @llvm.dbg.declare(metadata ptr %f.dbg.spill, metadata !3246, metadata !DIExpression()), !dbg !3250
  call void @llvm.dbg.declare(metadata ptr %f.dbg.spill, metadata !3252, metadata !DIExpression()), !dbg !3256
  %0 = getelementptr inbounds %"core::fmt::Formatter<'_>", ptr %f, i32 0, i32 4, !dbg !3258
  %_4 = load i32, ptr %0, align 4, !dbg !3258, !noundef !55
  %_3 = and i32 %_4, 16, !dbg !3258
  %1 = icmp eq i32 %_3, 0, !dbg !3259
  br i1 %1, label %bb2, label %bb1, !dbg !3259

bb2:                                              ; preds = %start
  %2 = getelementptr inbounds %"core::fmt::Formatter<'_>", ptr %f, i32 0, i32 4, !dbg !3260
  %_6 = load i32, ptr %2, align 4, !dbg !3260, !noundef !55
  %_5 = and i32 %_6, 32, !dbg !3260
  %3 = icmp eq i32 %_5, 0, !dbg !3261
  br i1 %3, label %bb4, label %bb3, !dbg !3261

bb1:                                              ; preds = %start
; call core::fmt::num::<impl core::fmt::LowerHex for u16>::fmt
  %4 = call zeroext i1 @"_ZN4core3fmt3num53_$LT$impl$u20$core..fmt..LowerHex$u20$for$u20$u16$GT$3fmt17h10a72fda21761fa3E"(ptr align 2 %self, ptr align 8 %f), !dbg !3262
  %5 = zext i1 %4 to i8, !dbg !3262
  store i8 %5, ptr %_0, align 1, !dbg !3262
  br label %bb6, !dbg !3262

bb4:                                              ; preds = %bb2
; call core::fmt::num::imp::<impl core::fmt::Display for u16>::fmt
  %6 = call zeroext i1 @"_ZN4core3fmt3num3imp52_$LT$impl$u20$core..fmt..Display$u20$for$u20$u16$GT$3fmt17h19c1a58988751341E"(ptr align 2 %self, ptr align 8 %f), !dbg !3263
  %7 = zext i1 %6 to i8, !dbg !3263
  store i8 %7, ptr %_0, align 1, !dbg !3263
  br label %bb5, !dbg !3263

bb3:                                              ; preds = %bb2
; call core::fmt::num::<impl core::fmt::UpperHex for u16>::fmt
  %8 = call zeroext i1 @"_ZN4core3fmt3num53_$LT$impl$u20$core..fmt..UpperHex$u20$for$u20$u16$GT$3fmt17h8d0acf6a3628abeaE"(ptr align 2 %self, ptr align 8 %f), !dbg !3264
  %9 = zext i1 %8 to i8, !dbg !3264
  store i8 %9, ptr %_0, align 1, !dbg !3264
  br label %bb5, !dbg !3264

bb5:                                              ; preds = %bb3, %bb4
  br label %bb6, !dbg !3265

bb6:                                              ; preds = %bb1, %bb5
  %10 = load i8, ptr %_0, align 1, !dbg !3266, !range !1438, !noundef !55
  %11 = trunc i8 %10 to i1, !dbg !3266
  ret i1 %11, !dbg !3266
}

; core::fmt::num::<impl core::fmt::Debug for u32>::fmt
; Function Attrs: inlinehint nonlazybind uwtable
define internal zeroext i1 @"_ZN4core3fmt3num50_$LT$impl$u20$core..fmt..Debug$u20$for$u20$u32$GT$3fmt17hedc68c221513bd87E"(ptr align 4 %self, ptr align 8 %f) unnamed_addr #0 !dbg !3267 {
start:
  %f.dbg.spill = alloca ptr, align 8
  %self.dbg.spill = alloca ptr, align 8
  %_0 = alloca i8, align 1
  store ptr %self, ptr %self.dbg.spill, align 8
  call void @llvm.dbg.declare(metadata ptr %self.dbg.spill, metadata !3272, metadata !DIExpression()), !dbg !3274
  store ptr %f, ptr %f.dbg.spill, align 8
  call void @llvm.dbg.declare(metadata ptr %f.dbg.spill, metadata !3273, metadata !DIExpression()), !dbg !3275
  call void @llvm.dbg.declare(metadata ptr %f.dbg.spill, metadata !3276, metadata !DIExpression()), !dbg !3280
  call void @llvm.dbg.declare(metadata ptr %f.dbg.spill, metadata !3282, metadata !DIExpression()), !dbg !3286
  %0 = getelementptr inbounds %"core::fmt::Formatter<'_>", ptr %f, i32 0, i32 4, !dbg !3288
  %_4 = load i32, ptr %0, align 4, !dbg !3288, !noundef !55
  %_3 = and i32 %_4, 16, !dbg !3288
  %1 = icmp eq i32 %_3, 0, !dbg !3289
  br i1 %1, label %bb2, label %bb1, !dbg !3289

bb2:                                              ; preds = %start
  %2 = getelementptr inbounds %"core::fmt::Formatter<'_>", ptr %f, i32 0, i32 4, !dbg !3290
  %_6 = load i32, ptr %2, align 4, !dbg !3290, !noundef !55
  %_5 = and i32 %_6, 32, !dbg !3290
  %3 = icmp eq i32 %_5, 0, !dbg !3291
  br i1 %3, label %bb4, label %bb3, !dbg !3291

bb1:                                              ; preds = %start
; call core::fmt::num::<impl core::fmt::LowerHex for u32>::fmt
  %4 = call zeroext i1 @"_ZN4core3fmt3num53_$LT$impl$u20$core..fmt..LowerHex$u20$for$u20$u32$GT$3fmt17hca4416088461d7d7E"(ptr align 4 %self, ptr align 8 %f), !dbg !3292
  %5 = zext i1 %4 to i8, !dbg !3292
  store i8 %5, ptr %_0, align 1, !dbg !3292
  br label %bb6, !dbg !3292

bb4:                                              ; preds = %bb2
; call core::fmt::num::imp::<impl core::fmt::Display for u32>::fmt
  %6 = call zeroext i1 @"_ZN4core3fmt3num3imp52_$LT$impl$u20$core..fmt..Display$u20$for$u20$u32$GT$3fmt17h2380056612665ee7E"(ptr align 4 %self, ptr align 8 %f), !dbg !3293
  %7 = zext i1 %6 to i8, !dbg !3293
  store i8 %7, ptr %_0, align 1, !dbg !3293
  br label %bb5, !dbg !3293

bb3:                                              ; preds = %bb2
; call core::fmt::num::<impl core::fmt::UpperHex for u32>::fmt
  %8 = call zeroext i1 @"_ZN4core3fmt3num53_$LT$impl$u20$core..fmt..UpperHex$u20$for$u20$u32$GT$3fmt17h79f4c0ef1dfa4c73E"(ptr align 4 %self, ptr align 8 %f), !dbg !3294
  %9 = zext i1 %8 to i8, !dbg !3294
  store i8 %9, ptr %_0, align 1, !dbg !3294
  br label %bb5, !dbg !3294

bb5:                                              ; preds = %bb3, %bb4
  br label %bb6, !dbg !3295

bb6:                                              ; preds = %bb1, %bb5
  %10 = load i8, ptr %_0, align 1, !dbg !3296, !range !1438, !noundef !55
  %11 = trunc i8 %10 to i1, !dbg !3296
  ret i1 %11, !dbg !3296
}

; core::fmt::num::<impl core::fmt::Debug for usize>::fmt
; Function Attrs: inlinehint nonlazybind uwtable
define internal zeroext i1 @"_ZN4core3fmt3num52_$LT$impl$u20$core..fmt..Debug$u20$for$u20$usize$GT$3fmt17hd763f82909d46fbfE"(ptr align 8 %self, ptr align 8 %f) unnamed_addr #0 !dbg !3297 {
start:
  %f.dbg.spill = alloca ptr, align 8
  %self.dbg.spill = alloca ptr, align 8
  %_0 = alloca i8, align 1
  store ptr %self, ptr %self.dbg.spill, align 8
  call void @llvm.dbg.declare(metadata ptr %self.dbg.spill, metadata !3302, metadata !DIExpression()), !dbg !3304
  store ptr %f, ptr %f.dbg.spill, align 8
  call void @llvm.dbg.declare(metadata ptr %f.dbg.spill, metadata !3303, metadata !DIExpression()), !dbg !3305
  call void @llvm.dbg.declare(metadata ptr %f.dbg.spill, metadata !3306, metadata !DIExpression()), !dbg !3310
  call void @llvm.dbg.declare(metadata ptr %f.dbg.spill, metadata !3312, metadata !DIExpression()), !dbg !3316
  %0 = getelementptr inbounds %"core::fmt::Formatter<'_>", ptr %f, i32 0, i32 4, !dbg !3318
  %_4 = load i32, ptr %0, align 4, !dbg !3318, !noundef !55
  %_3 = and i32 %_4, 16, !dbg !3318
  %1 = icmp eq i32 %_3, 0, !dbg !3319
  br i1 %1, label %bb2, label %bb1, !dbg !3319

bb2:                                              ; preds = %start
  %2 = getelementptr inbounds %"core::fmt::Formatter<'_>", ptr %f, i32 0, i32 4, !dbg !3320
  %_6 = load i32, ptr %2, align 4, !dbg !3320, !noundef !55
  %_5 = and i32 %_6, 32, !dbg !3320
  %3 = icmp eq i32 %_5, 0, !dbg !3321
  br i1 %3, label %bb4, label %bb3, !dbg !3321

bb1:                                              ; preds = %start
; call core::fmt::num::<impl core::fmt::LowerHex for usize>::fmt
  %4 = call zeroext i1 @"_ZN4core3fmt3num55_$LT$impl$u20$core..fmt..LowerHex$u20$for$u20$usize$GT$3fmt17hdcbbec87e7e8bf7bE"(ptr align 8 %self, ptr align 8 %f), !dbg !3322
  %5 = zext i1 %4 to i8, !dbg !3322
  store i8 %5, ptr %_0, align 1, !dbg !3322
  br label %bb6, !dbg !3322

bb4:                                              ; preds = %bb2
; call core::fmt::num::imp::<impl core::fmt::Display for usize>::fmt
  %6 = call zeroext i1 @"_ZN4core3fmt3num3imp54_$LT$impl$u20$core..fmt..Display$u20$for$u20$usize$GT$3fmt17h7bbbd896a38dcccaE"(ptr align 8 %self, ptr align 8 %f), !dbg !3323
  %7 = zext i1 %6 to i8, !dbg !3323
  store i8 %7, ptr %_0, align 1, !dbg !3323
  br label %bb5, !dbg !3323

bb3:                                              ; preds = %bb2
; call core::fmt::num::<impl core::fmt::UpperHex for usize>::fmt
  %8 = call zeroext i1 @"_ZN4core3fmt3num55_$LT$impl$u20$core..fmt..UpperHex$u20$for$u20$usize$GT$3fmt17hdaf6f71ebb81ebeeE"(ptr align 8 %self, ptr align 8 %f), !dbg !3324
  %9 = zext i1 %8 to i8, !dbg !3324
  store i8 %9, ptr %_0, align 1, !dbg !3324
  br label %bb5, !dbg !3324

bb5:                                              ; preds = %bb3, %bb4
  br label %bb6, !dbg !3325

bb6:                                              ; preds = %bb1, %bb5
  %10 = load i8, ptr %_0, align 1, !dbg !3326, !range !1438, !noundef !55
  %11 = trunc i8 %10 to i1, !dbg !3326
  ret i1 %11, !dbg !3326
}

; core::fmt::builders::DebugList::entries
; Function Attrs: nonlazybind uwtable
define align 8 ptr @_ZN4core3fmt8builders9DebugList7entries17hd77dbdbaea1cf37bE(ptr align 8 %self, ptr %entries.0, ptr %entries.1) unnamed_addr #1 personality ptr @rust_eh_personality !dbg !3327 {
start:
  %0 = alloca { ptr, i32, [1 x i32] }, align 8
  %entries.dbg.spill = alloca %"core::slice::iter::Iter<'_, core::mem::maybe_uninit::MaybeUninit<u8>>", align 8
  %self.dbg.spill = alloca ptr, align 8
  %entry = alloca ptr, align 8
  %_5 = alloca ptr, align 8
  %iter = alloca %"core::slice::iter::Iter<'_, core::mem::maybe_uninit::MaybeUninit<u8>>", align 8
  store ptr %self, ptr %self.dbg.spill, align 8
  call void @llvm.dbg.declare(metadata ptr %self.dbg.spill, metadata !3346, metadata !DIExpression()), !dbg !3352
  store ptr %entries.0, ptr %entries.dbg.spill, align 8
  %1 = getelementptr inbounds i8, ptr %entries.dbg.spill, i64 8
  store ptr %entries.1, ptr %1, align 8
  call void @llvm.dbg.declare(metadata ptr %entries.dbg.spill, metadata !3347, metadata !DIExpression()), !dbg !3353
  call void @llvm.dbg.declare(metadata ptr %iter, metadata !3348, metadata !DIExpression()), !dbg !3354
  call void @llvm.dbg.declare(metadata ptr %entry, metadata !3350, metadata !DIExpression()), !dbg !3355
; call <I as core::iter::traits::collect::IntoIterator>::into_iter
  %2 = call { ptr, ptr } @"_ZN63_$LT$I$u20$as$u20$core..iter..traits..collect..IntoIterator$GT$9into_iter17h9a33bb3ba33771b8E"(ptr %entries.0, ptr %entries.1), !dbg !3356
  %_3.0 = extractvalue { ptr, ptr } %2, 0, !dbg !3356
  %_3.1 = extractvalue { ptr, ptr } %2, 1, !dbg !3356
  store ptr %_3.0, ptr %iter, align 8, !dbg !3356
  %3 = getelementptr inbounds i8, ptr %iter, i64 8, !dbg !3356
  store ptr %_3.1, ptr %3, align 8, !dbg !3356
  br label %bb2, !dbg !3357

bb2:                                              ; preds = %bb8, %start
; invoke <core::slice::iter::Iter<T> as core::iter::traits::iterator::Iterator>::next
  %4 = invoke align 1 ptr @"_ZN91_$LT$core..slice..iter..Iter$LT$T$GT$$u20$as$u20$core..iter..traits..iterator..Iterator$GT$4next17h51a9eccffce3667cE"(ptr align 8 %iter)
          to label %bb3 unwind label %cleanup, !dbg !3354

bb11:                                             ; preds = %bb10, %cleanup
  %5 = load ptr, ptr %0, align 8, !dbg !3358, !noundef !55
  %6 = getelementptr inbounds i8, ptr %0, i64 8, !dbg !3358
  %7 = load i32, ptr %6, align 8, !dbg !3358, !noundef !55
  %8 = insertvalue { ptr, i32 } poison, ptr %5, 0, !dbg !3358
  %9 = insertvalue { ptr, i32 } %8, i32 %7, 1, !dbg !3358
  resume { ptr, i32 } %9, !dbg !3358

cleanup:                                          ; preds = %bb2
  %10 = landingpad { ptr, i32 }
          cleanup
  %11 = extractvalue { ptr, i32 } %10, 0
  %12 = extractvalue { ptr, i32 } %10, 1
  store ptr %11, ptr %0, align 8
  %13 = getelementptr inbounds i8, ptr %0, i64 8
  store i32 %12, ptr %13, align 8
  br label %bb11

bb3:                                              ; preds = %bb2
  store ptr %4, ptr %_5, align 8, !dbg !3354
  %14 = load ptr, ptr %_5, align 8, !dbg !3354, !noundef !55
  %15 = ptrtoint ptr %14 to i64, !dbg !3354
  %16 = icmp eq i64 %15, 0, !dbg !3354
  %_7 = select i1 %16, i64 0, i64 1, !dbg !3354
  %17 = icmp eq i64 %_7, 0, !dbg !3354
  br i1 %17, label %bb6, label %bb4, !dbg !3354

bb6:                                              ; preds = %bb3
  ret ptr %self, !dbg !3359

bb4:                                              ; preds = %bb3
  %18 = load ptr, ptr %_5, align 8, !dbg !3360, !nonnull !55, !align !2862, !noundef !55
  store ptr %18, ptr %entry, align 8, !dbg !3360
; invoke core::fmt::builders::DebugList::entry
  %_9 = invoke align 8 ptr @_ZN4core3fmt8builders9DebugList5entry17hd1d9a4a9a039c3ebE(ptr align 8 %self, ptr align 1 %entry, ptr align 8 @vtable.1)
          to label %bb7 unwind label %cleanup1, !dbg !3361

bb10:                                             ; preds = %cleanup1
  br label %bb11, !dbg !3362

cleanup1:                                         ; preds = %bb4
  %19 = landingpad { ptr, i32 }
          cleanup
  %20 = extractvalue { ptr, i32 } %19, 0
  %21 = extractvalue { ptr, i32 } %19, 1
  store ptr %20, ptr %0, align 8
  %22 = getelementptr inbounds i8, ptr %0, i64 8
  store i32 %21, ptr %22, align 8
  br label %bb10

bb7:                                              ; preds = %bb4
  br label %bb8, !dbg !3362

bb8:                                              ; preds = %bb7
  br label %bb2, !dbg !3357

bb5:                                              ; No predecessors!
  unreachable, !dbg !3354
}

; core::fmt::Arguments::new_v1
; Function Attrs: inlinehint nonlazybind uwtable
define internal void @_ZN4core3fmt9Arguments6new_v117h2530f204cc4b9060E(ptr sret(%"core::fmt::Arguments<'_>") align 8 %_0, ptr align 8 %pieces.0, i64 %pieces.1, ptr align 8 %args.0, i64 %args.1) unnamed_addr #0 !dbg !3363 {
start:
  %pieces.dbg.spill1 = alloca { ptr, i64 }, align 8
  %args.dbg.spill = alloca { ptr, i64 }, align 8
  %pieces.dbg.spill = alloca { ptr, i64 }, align 8
  %_14 = alloca %"core::fmt::Arguments<'_>", align 8
  %_9 = alloca %"core::fmt::Arguments<'_>", align 8
  store ptr %pieces.0, ptr %pieces.dbg.spill, align 8
  %0 = getelementptr inbounds i8, ptr %pieces.dbg.spill, i64 8
  store i64 %pieces.1, ptr %0, align 8
  call void @llvm.dbg.declare(metadata ptr %pieces.dbg.spill, metadata !3368, metadata !DIExpression()), !dbg !3370
  store ptr %args.0, ptr %args.dbg.spill, align 8
  %1 = getelementptr inbounds i8, ptr %args.dbg.spill, i64 8
  store i64 %args.1, ptr %1, align 8
  call void @llvm.dbg.declare(metadata ptr %args.dbg.spill, metadata !3369, metadata !DIExpression()), !dbg !3371
  %_3 = icmp ult i64 %pieces.1, %args.1, !dbg !3372
  br i1 %_3, label %bb2, label %bb1, !dbg !3372

bb1:                                              ; preds = %start
  %_7 = add i64 %args.1, 1, !dbg !3373
  %_6 = icmp ugt i64 %pieces.1, %_7, !dbg !3374
  br i1 %_6, label %bb2, label %bb3, !dbg !3374

bb2:                                              ; preds = %bb1, %start
  store ptr @alloc_af99043bc04c419363a7f04d23183506, ptr %pieces.dbg.spill1, align 8, !dbg !3375
  %2 = getelementptr inbounds i8, ptr %pieces.dbg.spill1, i64 8, !dbg !3375
  store i64 1, ptr %2, align 8, !dbg !3375
  call void @llvm.dbg.declare(metadata ptr %pieces.dbg.spill1, metadata !3376, metadata !DIExpression()), !dbg !3383
  br i1 false, label %bb4, label %bb6, !dbg !3386

bb3:                                              ; preds = %bb1
  store ptr %pieces.0, ptr %_0, align 8, !dbg !3387
  %3 = getelementptr inbounds i8, ptr %_0, i64 8, !dbg !3387
  store i64 %pieces.1, ptr %3, align 8, !dbg !3387
  %4 = load ptr, ptr @3, align 8, !dbg !3387, !align !2083, !noundef !55
  %5 = load i64, ptr getelementptr inbounds (i8, ptr @3, i64 8), align 8, !dbg !3387
  %6 = getelementptr inbounds %"core::fmt::Arguments<'_>", ptr %_0, i32 0, i32 2, !dbg !3387
  store ptr %4, ptr %6, align 8, !dbg !3387
  %7 = getelementptr inbounds i8, ptr %6, i64 8, !dbg !3387
  store i64 %5, ptr %7, align 8, !dbg !3387
  %8 = getelementptr inbounds %"core::fmt::Arguments<'_>", ptr %_0, i32 0, i32 1, !dbg !3387
  store ptr %args.0, ptr %8, align 8, !dbg !3387
  %9 = getelementptr inbounds i8, ptr %8, i64 8, !dbg !3387
  store i64 %args.1, ptr %9, align 8, !dbg !3387
  ret void, !dbg !3388

bb6:                                              ; preds = %bb2
  store ptr @alloc_af99043bc04c419363a7f04d23183506, ptr %_9, align 8, !dbg !3389
  %10 = getelementptr inbounds i8, ptr %_9, i64 8, !dbg !3389
  store i64 1, ptr %10, align 8, !dbg !3389
  %11 = load ptr, ptr @3, align 8, !dbg !3389, !align !2083, !noundef !55
  %12 = load i64, ptr getelementptr inbounds (i8, ptr @3, i64 8), align 8, !dbg !3389
  %13 = getelementptr inbounds %"core::fmt::Arguments<'_>", ptr %_9, i32 0, i32 2, !dbg !3389
  store ptr %11, ptr %13, align 8, !dbg !3389
  %14 = getelementptr inbounds i8, ptr %13, i64 8, !dbg !3389
  store i64 %12, ptr %14, align 8, !dbg !3389
  %15 = getelementptr inbounds %"core::fmt::Arguments<'_>", ptr %_9, i32 0, i32 1, !dbg !3389
  store ptr @alloc_513570631223a12912d85da2bec3b15a, ptr %15, align 8, !dbg !3389
  %16 = getelementptr inbounds i8, ptr %15, i64 8, !dbg !3389
  store i64 0, ptr %16, align 8, !dbg !3389
; call core::panicking::panic_fmt
  call void @_ZN4core9panicking9panic_fmt17h0d3f1893e38be419E(ptr align 8 %_9, ptr align 8 @alloc_b96933a8148f906cfb135db9ebeba42b) #18, !dbg !3390
  unreachable, !dbg !3390

bb4:                                              ; preds = %bb2
; call core::fmt::Arguments::new_const
  call void @_ZN4core3fmt9Arguments9new_const17h35bdc7119c9eae5bE(ptr sret(%"core::fmt::Arguments<'_>") align 8 %_14, ptr align 8 @alloc_af99043bc04c419363a7f04d23183506, i64 1), !dbg !3391
; call core::panicking::panic_fmt
  call void @_ZN4core9panicking9panic_fmt17h0d3f1893e38be419E(ptr align 8 %_14, ptr align 8 @alloc_b1c9b46fd6543b9e0f93a51d745efa2a) #18, !dbg !3391
  unreachable, !dbg !3391
}

; core::fmt::Arguments::new_const
; Function Attrs: inlinehint nonlazybind uwtable
define internal void @_ZN4core3fmt9Arguments9new_const17h35bdc7119c9eae5bE(ptr sret(%"core::fmt::Arguments<'_>") align 8 %_0, ptr align 8 %pieces.0, i64 %pieces.1) unnamed_addr #0 !dbg !3392 {
start:
  %pieces.dbg.spill = alloca { ptr, i64 }, align 8
  %_5 = alloca %"core::fmt::Arguments<'_>", align 8
  store ptr %pieces.0, ptr %pieces.dbg.spill, align 8
  %0 = getelementptr inbounds i8, ptr %pieces.dbg.spill, i64 8
  store i64 %pieces.1, ptr %0, align 8
  call void @llvm.dbg.declare(metadata ptr %pieces.dbg.spill, metadata !3394, metadata !DIExpression()), !dbg !3395
  %_2 = icmp ugt i64 %pieces.1, 1, !dbg !3396
  br i1 %_2, label %bb1, label %bb3, !dbg !3396

bb3:                                              ; preds = %start
  store ptr %pieces.0, ptr %_0, align 8, !dbg !3397
  %1 = getelementptr inbounds i8, ptr %_0, i64 8, !dbg !3397
  store i64 %pieces.1, ptr %1, align 8, !dbg !3397
  %2 = load ptr, ptr @3, align 8, !dbg !3397, !align !2083, !noundef !55
  %3 = load i64, ptr getelementptr inbounds (i8, ptr @3, i64 8), align 8, !dbg !3397
  %4 = getelementptr inbounds %"core::fmt::Arguments<'_>", ptr %_0, i32 0, i32 2, !dbg !3397
  store ptr %2, ptr %4, align 8, !dbg !3397
  %5 = getelementptr inbounds i8, ptr %4, i64 8, !dbg !3397
  store i64 %3, ptr %5, align 8, !dbg !3397
  %6 = getelementptr inbounds %"core::fmt::Arguments<'_>", ptr %_0, i32 0, i32 1, !dbg !3397
  store ptr @alloc_513570631223a12912d85da2bec3b15a, ptr %6, align 8, !dbg !3397
  %7 = getelementptr inbounds i8, ptr %6, i64 8, !dbg !3397
  store i64 0, ptr %7, align 8, !dbg !3397
  ret void, !dbg !3398

bb1:                                              ; preds = %start
; call core::fmt::Arguments::new_const
  call void @_ZN4core3fmt9Arguments9new_const17h35bdc7119c9eae5bE(ptr sret(%"core::fmt::Arguments<'_>") align 8 %_5, ptr align 8 @alloc_af99043bc04c419363a7f04d23183506, i64 1), !dbg !3399
; call core::panicking::panic_fmt
  call void @_ZN4core9panicking9panic_fmt17h0d3f1893e38be419E(ptr align 8 %_5, ptr align 8 @alloc_b1c9b46fd6543b9e0f93a51d745efa2a) #18, !dbg !3399
  unreachable, !dbg !3399
}

; core::mem::maybe_uninit::MaybeUninit<T>::zeroed
; Function Attrs: inlinehint nonlazybind uwtable
define void @"_ZN4core3mem12maybe_uninit20MaybeUninit$LT$T$GT$6zeroed17hcd2499486fd717c1E"(ptr sret(%"core::mem::maybe_uninit::MaybeUninit<libc::unix::linux_like::sockaddr_storage>") align 8 %_0) unnamed_addr #0 !dbg !3400 {
start:
  %self.dbg.spill3 = alloca ptr, align 8
  %self.dbg.spill = alloca ptr, align 8
  %u = alloca %"core::mem::maybe_uninit::MaybeUninit<libc::unix::linux_like::sockaddr_storage>", align 8
  %count.dbg.spill2 = alloca i64, align 8
  %val.dbg.spill1 = alloca i8, align 1
  %count.dbg.spill = alloca i64, align 8
  %val.dbg.spill = alloca i8, align 1
  store i8 0, ptr %val.dbg.spill, align 1, !dbg !3417
  call void @llvm.dbg.declare(metadata ptr %val.dbg.spill, metadata !3425, metadata !DIExpression()), !dbg !3417
  store i64 1, ptr %count.dbg.spill, align 8, !dbg !3428
  call void @llvm.dbg.declare(metadata ptr %count.dbg.spill, metadata !3426, metadata !DIExpression()), !dbg !3428
  store i8 0, ptr %val.dbg.spill1, align 1, !dbg !3429
  call void @llvm.dbg.declare(metadata ptr %val.dbg.spill1, metadata !3434, metadata !DIExpression()), !dbg !3429
  store i64 1, ptr %count.dbg.spill2, align 8, !dbg !3437
  call void @llvm.dbg.declare(metadata ptr %count.dbg.spill2, metadata !3435, metadata !DIExpression()), !dbg !3437
  call void @llvm.dbg.declare(metadata ptr %u, metadata !3415, metadata !DIExpression()), !dbg !3438
  store ptr %u, ptr %self.dbg.spill, align 8, !dbg !3439
  call void @llvm.dbg.declare(metadata ptr %self.dbg.spill, metadata !3440, metadata !DIExpression()), !dbg !3448
  store ptr %u, ptr %self.dbg.spill3, align 8, !dbg !3450
  call void @llvm.dbg.declare(metadata ptr %self.dbg.spill3, metadata !3424, metadata !DIExpression()), !dbg !3451
  call void @llvm.dbg.declare(metadata ptr %self.dbg.spill3, metadata !3433, metadata !DIExpression()), !dbg !3452
  call void @llvm.memset.p0.i64(ptr align 8 %u, i8 0, i64 128, i1 false), !dbg !3453
  call void @llvm.memcpy.p0.p0.i64(ptr align 8 %_0, ptr align 8 %u, i64 128, i1 false), !dbg !3454
  ret void, !dbg !3455
}

; core::net::socket_addr::SocketAddrV4::ip
; Function Attrs: inlinehint nonlazybind uwtable
define internal align 1 ptr @_ZN4core3net11socket_addr12SocketAddrV42ip17hd26db324df289e25E(ptr align 2 %self) unnamed_addr #0 !dbg !3456 {
start:
  %self.dbg.spill = alloca ptr, align 8
  store ptr %self, ptr %self.dbg.spill, align 8
  call void @llvm.dbg.declare(metadata ptr %self.dbg.spill, metadata !3475, metadata !DIExpression()), !dbg !3476
  ret ptr %self, !dbg !3477
}

; core::net::socket_addr::SocketAddrV4::new
; Function Attrs: inlinehint nonlazybind uwtable
define internal i48 @_ZN4core3net11socket_addr12SocketAddrV43new17hfc6c714d4522e101E(i32 %0, i16 %port) unnamed_addr #0 !dbg !3478 {
start:
  %port.dbg.spill = alloca i16, align 2
  %_0 = alloca %"core::net::socket_addr::SocketAddrV4", align 2
  %1 = alloca i32, align 4
  %ip = alloca %"core::net::ip_addr::Ipv4Addr", align 1
  store i32 %0, ptr %1, align 4
  call void @llvm.memcpy.p0.p0.i64(ptr align 1 %ip, ptr align 4 %1, i64 4, i1 false)
  call void @llvm.dbg.declare(metadata ptr %ip, metadata !3483, metadata !DIExpression()), !dbg !3485
  store i16 %port, ptr %port.dbg.spill, align 2
  call void @llvm.dbg.declare(metadata ptr %port.dbg.spill, metadata !3484, metadata !DIExpression()), !dbg !3486
  call void @llvm.memcpy.p0.p0.i64(ptr align 2 %_0, ptr align 1 %ip, i64 4, i1 false), !dbg !3487
  %2 = getelementptr inbounds %"core::net::socket_addr::SocketAddrV4", ptr %_0, i32 0, i32 1, !dbg !3487
  store i16 %port, ptr %2, align 2, !dbg !3487
  %3 = load i48, ptr %_0, align 2, !dbg !3488
  ret i48 %3, !dbg !3488
}

; core::net::socket_addr::SocketAddrV4::port
; Function Attrs: inlinehint nonlazybind uwtable
define internal i16 @_ZN4core3net11socket_addr12SocketAddrV44port17h965425d671b33cc4E(ptr align 2 %self) unnamed_addr #0 !dbg !3489 {
start:
  %self.dbg.spill = alloca ptr, align 8
