; ModuleID = '50pfo3uhckuvcpdt'
source_filename = "50pfo3uhckuvcpdt"
target datalayout = "e-m:e-p270:32:32-p271:32:32-p272:64:64-i64:64-f80:128-n8:16:32:64-S128"
target triple = "x86_64-unknown-linux-gnu"

%"core::ops::range::RangeFull" = type {}
%"core::ptr::metadata::PtrComponents<[u8]>" = type { ptr, i64 }
%"core::ptr::metadata::PtrRepr<[u8]>" = type { [2 x i64] }
%"alloc::vec::Vec<u8>" = type { %"alloc::raw_vec::RawVec<u8>", i64 }
%"alloc::raw_vec::RawVec<u8>" = type { i64, ptr, %"alloc::alloc::Global" }
%"alloc::alloc::Global" = type {}
%"core::slice::iter::Iter<'_, u8>" = type { ptr, ptr, %"core::marker::PhantomData<&u8>" }
%"core::marker::PhantomData<&u8>" = type {}
%"core::fmt::builders::DebugList<'_, '_>" = type { %"core::fmt::builders::DebugInner<'_, '_>" }
%"core::fmt::builders::DebugInner<'_, '_>" = type { ptr, i8, i8, [6 x i8] }
%"core::fmt::Formatter<'_>" = type { %"core::option::Option<usize>", %"core::option::Option<usize>", { ptr, ptr }, i32, i32, i8, [7 x i8] }
%"core::option::Option<usize>" = type { i64, [1 x i64] }
%"core::fmt::Arguments<'_>" = type { { ptr, i64 }, { ptr, i64 }, %"core::option::Option<&[core::fmt::rt::Placeholder]>" }
%"core::option::Option<&[core::fmt::rt::Placeholder]>" = type { ptr, [1 x i64] }
%"core::alloc::layout::Layout" = type { i64, i64 }
%"core::result::Result<core::alloc::layout::Layout, core::alloc::layout::LayoutError>" = type { i64, [1 x i64] }
%"core::result::Result<alloc::ffi::c_str::CString, alloc::ffi::c_str::NulError>" = type { i64, [3 x i64] }
%"alloc::string::String" = type { %"alloc::vec::Vec<u8>" }
%"core::ptr::non_null::NonNull<[u8]>" = type { { ptr, i64 } }
%"core::result::Result<core::ptr::non_null::NonNull<[u8]>, core::alloc::AllocError>" = type { ptr, [1 x i64] }
%"core::alloc::AllocError" = type {}
%"core::result::Result<core::convert::Infallible, core::alloc::AllocError>::Err" = type { %"core::alloc::AllocError" }
%"alloc::collections::TryReserveErrorKind" = type { i64, [1 x i64] }
%"core::option::Option<(core::ptr::non_null::NonNull<u8>, core::alloc::layout::Layout)>" = type { [1 x i64], i64, [1 x i64] }
%"alloc::ffi::c_str::NulError" = type { %"alloc::vec::Vec<u8>", i64 }
%"core::str::error::Utf8Error" = type { i64, %"core::option::Option<u8>", [6 x i8] }
%"core::option::Option<u8>" = type { i8, [1 x i8] }
%"alloc::ffi::c_str::CString" = type { %"alloc::boxed::Box<[u8]>" }
%"alloc::boxed::Box<[u8]>" = type { %"core::ptr::unique::Unique<[u8]>", %"alloc::alloc::Global" }
%"core::ptr::unique::Unique<[u8]>" = type { %"core::ptr::non_null::NonNull<[u8]>", %"core::marker::PhantomData<[u8]>" }
%"core::marker::PhantomData<[u8]>" = type {}
%"core::result::Result<&str, core::str::error::Utf8Error>" = type { i64, [2 x i64] }
%"core::result::Result<alloc::ffi::c_str::CString, alloc::ffi::c_str::NulError>::Ok" = type { [1 x i64], %"alloc::ffi::c_str::CString" }
%"core::result::Result<&str, core::str::error::Utf8Error>::Err" = type { [1 x i64], %"core::str::error::Utf8Error" }
%"core::result::Result<&str, core::str::error::Utf8Error>::Ok" = type { [1 x i64], { ptr, i64 } }
%"core::fmt::rt::Argument<'_>" = type { ptr, ptr }

@vtable.0 = private constant <{ ptr, [16 x i8], ptr, ptr, ptr }> <{ ptr @"_ZN4core3ptr85drop_in_place$LT$std..rt..lang_start$LT$$LP$$RP$$GT$..$u7b$$u7b$closure$u7d$$u7d$$GT$17he4764f8f95e9f5d3E", [16 x i8] c"\08\00\00\00\00\00\00\00\08\00\00\00\00\00\00\00", ptr @"_ZN4core3ops8function6FnOnce40call_once$u7b$$u7b$vtable.shim$u7d$$u7d$17h81f2d058a5cc04beE", ptr @"_ZN3std2rt10lang_start28_$u7b$$u7b$closure$u7d$$u7d$17hefd9df45866168a1E", ptr @"_ZN3std2rt10lang_start28_$u7b$$u7b$closure$u7d$$u7d$17hefd9df45866168a1E" }>, align 8, !dbg !0
@vtable.1 = private constant <{ ptr, [16 x i8], ptr }> <{ ptr @"_ZN4core3ptr27drop_in_place$LT$$RF$u8$GT$17h5b05e43a995262cfE", [16 x i8] c"\08\00\00\00\00\00\00\00\08\00\00\00\00\00\00\00", ptr @"_ZN42_$LT$$RF$T$u20$as$u20$core..fmt..Debug$GT$3fmt17h68f7216f46a86412E" }>, align 8, !dbg !24
@0 = private unnamed_addr constant <{ [8 x i8], [8 x i8] }> <{ [8 x i8] zeroinitializer, [8 x i8] undef }>, align 8
@alloc_91c7fa63c3cfeaa3c795652d5cf060e4 = private unnamed_addr constant <{ [12 x i8] }> <{ [12 x i8] c"invalid args" }>, align 1
@alloc_af99043bc04c419363a7f04d23183506 = private unnamed_addr constant <{ ptr, [8 x i8] }> <{ ptr @alloc_91c7fa63c3cfeaa3c795652d5cf060e4, [8 x i8] c"\0C\00\00\00\00\00\00\00" }>, align 8
@alloc_513570631223a12912d85da2bec3b15a = private unnamed_addr constant <{}> zeroinitializer, align 8
@alloc_6de2818331109612dbb09d5e2073dc73 = private unnamed_addr constant <{ [75 x i8] }> <{ [75 x i8] c"/rustc/aedd173a2c086e558c2b66d3743b344f977621a7/library/core/src/fmt/mod.rs" }>, align 1
@alloc_b96933a8148f906cfb135db9ebeba42b = private unnamed_addr constant <{ ptr, [16 x i8] }> <{ ptr @alloc_6de2818331109612dbb09d5e2073dc73, [16 x i8] c"K\00\00\00\00\00\00\00M\01\00\00\0D\00\00\00" }>, align 8
@alloc_b1c9b46fd6543b9e0f93a51d745efa2a = private unnamed_addr constant <{ ptr, [16 x i8] }> <{ ptr @alloc_6de2818331109612dbb09d5e2073dc73, [16 x i8] c"K\00\00\00\00\00\00\00C\01\00\00\0D\00\00\00" }>, align 8
@alloc_4713d75e44433589dc609fdbfa49699b = private unnamed_addr constant <{ [80 x i8] }> <{ [80 x i8] c"/rustc/aedd173a2c086e558c2b66d3743b344f977621a7/library/core/src/alloc/layout.rs" }>, align 1
@alloc_37f08cc86d215bcabda8bef18acdfc7b = private unnamed_addr constant <{ ptr, [16 x i8] }> <{ ptr @alloc_4713d75e44433589dc609fdbfa49699b, [16 x i8] c"P\00\00\00\00\00\00\00\C1\01\00\00)\00\00\00" }>, align 8
@str.2 = internal unnamed_addr constant [25 x i8] c"attempt to divide by zero"
@alloc_00ae4b301f7fab8ac9617c03fcbd7274 = private unnamed_addr constant <{ [43 x i8] }> <{ [43 x i8] c"called `Result::unwrap()` on an `Err` value" }>, align 1
@vtable.3 = private constant <{ ptr, [16 x i8], ptr }> <{ ptr @"_ZN4core3ptr48drop_in_place$LT$alloc..ffi..c_str..NulError$GT$17hb5b470d313ae514aE", [16 x i8] c" \00\00\00\00\00\00\00\08\00\00\00\00\00\00\00", ptr @"_ZN64_$LT$alloc..ffi..c_str..NulError$u20$as$u20$core..fmt..Debug$GT$3fmt17hecbfc43d04499676E" }>, align 8, !dbg !34
@vtable.4 = private constant <{ ptr, [16 x i8], ptr }> <{ ptr @"_ZN4core3ptr48drop_in_place$LT$core..str..error..Utf8Error$GT$17h04519965bda8a8ecE", [16 x i8] c"\10\00\00\00\00\00\00\00\08\00\00\00\00\00\00\00", ptr @"_ZN64_$LT$core..str..error..Utf8Error$u20$as$u20$core..fmt..Debug$GT$3fmt17h11f77d921b71b36cE" }>, align 8, !dbg !83
@__rust_no_alloc_shim_is_unstable = external global i8
@alloc_49c0eff15ce41ce22a2d8c8b146a94ef = private unnamed_addr constant <{ [8 x i8] }> <{ [8 x i8] c"NulError" }>, align 1
@vtable.5 = private constant <{ ptr, [16 x i8], ptr }> <{ ptr @"_ZN4core3ptr26drop_in_place$LT$usize$GT$17h098c11b7b1f2dc48E", [16 x i8] c"\08\00\00\00\00\00\00\00\08\00\00\00\00\00\00\00", ptr @"_ZN4core3fmt3num52_$LT$impl$u20$core..fmt..Debug$u20$for$u20$usize$GT$3fmt17h6e239098b80b549aE" }>, align 8, !dbg !109
@vtable.6 = private constant <{ ptr, [16 x i8], ptr }> <{ ptr @"_ZN4core3ptr50drop_in_place$LT$$RF$alloc..vec..Vec$LT$u8$GT$$GT$17h733bf089f6ef19fcE", [16 x i8] c"\08\00\00\00\00\00\00\00\08\00\00\00\00\00\00\00", ptr @"_ZN42_$LT$$RF$T$u20$as$u20$core..fmt..Debug$GT$3fmt17hc3e0cd91378a5a19E" }>, align 8, !dbg !117
@alloc_8e685ef482aec04a2d7a8ed5ef1228a3 = private unnamed_addr constant <{ [9 x i8] }> <{ [9 x i8] c"Utf8Error" }>, align 1
@alloc_f34017a1538f19bf68b6d6294eec0bb3 = private unnamed_addr constant <{ [11 x i8] }> <{ [11 x i8] c"valid_up_to" }>, align 1
@alloc_91eca80c47235190e5fbed3d6d8be36c = private unnamed_addr constant <{ [9 x i8] }> <{ [9 x i8] c"error_len" }>, align 1
@vtable.7 = private constant <{ ptr, [16 x i8], ptr }> <{ ptr @"_ZN4core3ptr55drop_in_place$LT$$RF$core..option..Option$LT$u8$GT$$GT$17heceda9e0a3fd6ab5E", [16 x i8] c"\08\00\00\00\00\00\00\00\08\00\00\00\00\00\00\00", ptr @"_ZN42_$LT$$RF$T$u20$as$u20$core..fmt..Debug$GT$3fmt17h7d547154c0bd037eE" }>, align 8, !dbg !126
@alloc_37d2e53432a03a1f90b3e7253015eaf9 = private unnamed_addr constant <{ [4 x i8] }> <{ [4 x i8] c"None" }>, align 1
@alloc_9535bf4c204f3eb9b19ec2c83e446e52 = private unnamed_addr constant <{ [4 x i8] }> <{ [4 x i8] c"Some" }>, align 1
@alloc_267572625e777791bcec38e23a1b6892 = private unnamed_addr constant <{ [24 x i8] }> <{ [24 x i8] c"I'm the dummy function!\0A" }>, align 1
@alloc_0fe99d85c0e3bef8dc23b9a48c1b75aa = private unnamed_addr constant <{ ptr, [8 x i8] }> <{ ptr @alloc_267572625e777791bcec38e23a1b6892, [8 x i8] c"\18\00\00\00\00\00\00\00" }>, align 8
@alloc_3ba7eeeabd3d9c4a56f56d0cfe62277d = private unnamed_addr constant <{ [11 x i8] }> <{ [11 x i8] c"src/main.rs" }>, align 1
@alloc_5d3f733e000ee0470b4ef4568e644261 = private unnamed_addr constant <{ ptr, [16 x i8] }> <{ ptr @alloc_3ba7eeeabd3d9c4a56f56d0cfe62277d, [16 x i8] c"\0B\00\00\00\00\00\00\00\0C\00\00\003\00\00\00" }>, align 8
@alloc_053db894e7b9101a718499226eb785b1 = private unnamed_addr constant <{ ptr, [16 x i8] }> <{ ptr @alloc_3ba7eeeabd3d9c4a56f56d0cfe62277d, [16 x i8] c"\0B\00\00\00\00\00\00\00\0C\00\00\009\00\00\00" }>, align 8
@alloc_eb28e85faf2d95edf125ba558a0c8d53 = private unnamed_addr constant <{ ptr, [16 x i8] }> <{ ptr @alloc_3ba7eeeabd3d9c4a56f56d0cfe62277d, [16 x i8] c"\0B\00\00\00\00\00\00\00\10\00\00\00B\00\00\00" }>, align 8
@alloc_46961125be6901bfa95858613c92e6a3 = private unnamed_addr constant <{ [12 x i8] }> <{ [12 x i8] c"hello world!" }>, align 1
@alloc_49a1e817e911805af64bbc7efb390101 = private unnamed_addr constant <{ [1 x i8] }> <{ [1 x i8] c"\0A" }>, align 1
@alloc_3cf8a28b1a0b9f6efeedeb779c4e30d8 = private unnamed_addr constant <{ ptr, [8 x i8], ptr, [8 x i8] }> <{ ptr @alloc_513570631223a12912d85da2bec3b15a, [8 x i8] zeroinitializer, ptr @alloc_49a1e817e911805af64bbc7efb390101, [8 x i8] c"\01\00\00\00\00\00\00\00" }>, align 8
@__rustc_debug_gdb_scripts_section__ = linkonce_odr unnamed_addr constant [34 x i8] c"\01gdb_load_rust_pretty_printers.py\00", section ".debug_gdb_scripts", align 1

; <alloc::string::String as core::ops::index::Index<core::ops::range::RangeFull>>::index
; Function Attrs: inlinehint nonlazybind uwtable
define internal { ptr, i64 } @"_ZN100_$LT$alloc..string..String$u20$as$u20$core..ops..index..Index$LT$core..ops..range..RangeFull$GT$$GT$5index17h05742f8aa5f0e50eE"(ptr align 8 %self, ptr align 8 %0) unnamed_addr #0 !dbg !225 {
start:
  %v.dbg.spill = alloca { ptr, i64 }, align 8
  %data_pointer.dbg.spill = alloca ptr, align 8
  %len.dbg.spill = alloca i64, align 8
  %data.dbg.spill = alloca ptr, align 8
  %self.dbg.spill4 = alloca ptr, align 8
  %self.dbg.spill2 = alloca ptr, align 8
  %self.dbg.spill1 = alloca ptr, align 8
  %_2.dbg.spill = alloca %"core::ops::range::RangeFull", align 1
  %self.dbg.spill = alloca ptr, align 8
  %_14 = alloca %"core::ptr::metadata::PtrComponents<[u8]>", align 8
  %_13 = alloca %"core::ptr::metadata::PtrRepr<[u8]>", align 8
  %_index.dbg.spill = alloca %"core::ops::range::RangeFull", align 1
  call void @llvm.dbg.declare(metadata ptr %_index.dbg.spill, metadata !254, metadata !DIExpression()), !dbg !256
  store ptr %self, ptr %self.dbg.spill, align 8, !dbg !256
  call void @llvm.dbg.declare(metadata ptr %self.dbg.spill, metadata !253, metadata !DIExpression()), !dbg !257
  call void @llvm.dbg.declare(metadata ptr %_2.dbg.spill, metadata !255, metadata !DIExpression()), !dbg !256
  store ptr %self, ptr %self.dbg.spill1, align 8, !dbg !258
  call void @llvm.dbg.declare(metadata ptr %self.dbg.spill1, metadata !259, metadata !DIExpression()), !dbg !271
  call void @llvm.dbg.declare(metadata ptr %self.dbg.spill1, metadata !272, metadata !DIExpression()), !dbg !279
  store ptr %self, ptr %self.dbg.spill2, align 8, !dbg !281
  call void @llvm.dbg.declare(metadata ptr %self.dbg.spill2, metadata !282, metadata !DIExpression()), !dbg !292
  %1 = getelementptr inbounds i8, ptr %self, i64 8, !dbg !294
  %self3 = load ptr, ptr %1, align 8, !dbg !294, !nonnull !23, !noundef !23
  store ptr %self3, ptr %self.dbg.spill4, align 8, !dbg !294
  call void @llvm.dbg.declare(metadata ptr %self.dbg.spill4, metadata !295, metadata !DIExpression()), !dbg !303
  call void @llvm.dbg.declare(metadata ptr %self.dbg.spill4, metadata !305, metadata !DIExpression()), !dbg !313
  store ptr %self3, ptr %data.dbg.spill, align 8, !dbg !281
  call void @llvm.dbg.declare(metadata ptr %data.dbg.spill, metadata !315, metadata !DIExpression()), !dbg !325
  call void @llvm.dbg.declare(metadata ptr %data.dbg.spill, metadata !327, metadata !DIExpression()), !dbg !339
  call void @llvm.dbg.declare(metadata ptr %data.dbg.spill, metadata !341, metadata !DIExpression()), !dbg !352
  %2 = getelementptr inbounds %"alloc::vec::Vec<u8>", ptr %self, i32 0, i32 1, !dbg !354
  %len = load i64, ptr %2, align 8, !dbg !354, !noundef !23
  store i64 %len, ptr %len.dbg.spill, align 8, !dbg !354
  call void @llvm.dbg.declare(metadata ptr %len.dbg.spill, metadata !324, metadata !DIExpression()), !dbg !355
  call void @llvm.dbg.declare(metadata ptr %len.dbg.spill, metadata !338, metadata !DIExpression()), !dbg !356
  call void @llvm.dbg.declare(metadata ptr %len.dbg.spill, metadata !357, metadata !DIExpression()), !dbg !366
  store ptr %self3, ptr %data_pointer.dbg.spill, align 8, !dbg !368
  call void @llvm.dbg.declare(metadata ptr %data_pointer.dbg.spill, metadata !365, metadata !DIExpression()), !dbg !369
  store ptr %self3, ptr %_14, align 8, !dbg !370
  %3 = getelementptr inbounds i8, ptr %_14, i64 8, !dbg !370
  store i64 %len, ptr %3, align 8, !dbg !370
  %4 = load ptr, ptr %_14, align 8, !dbg !371, !noundef !23
  %5 = getelementptr inbounds i8, ptr %_14, i64 8, !dbg !371
  %6 = load i64, ptr %5, align 8, !dbg !371, !noundef !23
  store ptr %4, ptr %_13, align 8, !dbg !371
  %7 = getelementptr inbounds i8, ptr %_13, i64 8, !dbg !371
  store i64 %6, ptr %7, align 8, !dbg !371
  %v.0 = load ptr, ptr %_13, align 8, !dbg !371, !noundef !23
  %8 = getelementptr inbounds i8, ptr %_13, i64 8, !dbg !371
  %v.1 = load i64, ptr %8, align 8, !dbg !371, !noundef !23
  store ptr %v.0, ptr %v.dbg.spill, align 8, !dbg !371
  %9 = getelementptr inbounds i8, ptr %v.dbg.spill, i64 8, !dbg !371
  store i64 %v.1, ptr %9, align 8, !dbg !371
  call void @llvm.dbg.declare(metadata ptr %v.dbg.spill, metadata !372, metadata !DIExpression()), !dbg !380
  %10 = insertvalue { ptr, i64 } poison, ptr %v.0, 0, !dbg !382
  %11 = insertvalue { ptr, i64 } %10, i64 %v.1, 1, !dbg !382
  ret { ptr, i64 } %11, !dbg !382
}

; std::sys_common::backtrace::__rust_begin_short_backtrace
; Function Attrs: noinline nonlazybind uwtable
define internal void @_ZN3std10sys_common9backtrace28__rust_begin_short_backtrace17h7f91407455b2c4f7E(ptr %f) unnamed_addr #1 !dbg !383 {
start:
  %f.dbg.spill = alloca ptr, align 8
  %result.dbg.spill = alloca {}, align 1
  %dummy.dbg.spill = alloca {}, align 1
  call void @llvm.dbg.declare(metadata ptr %dummy.dbg.spill, metadata !396, metadata !DIExpression()), !dbg !405
  call void @llvm.dbg.declare(metadata ptr %result.dbg.spill, metadata !391, metadata !DIExpression()), !dbg !407
  store ptr %f, ptr %f.dbg.spill, align 8, !dbg !405
  call void @llvm.dbg.declare(metadata ptr %f.dbg.spill, metadata !390, metadata !DIExpression()), !dbg !408
; call core::ops::function::FnOnce::call_once
  call void @_ZN4core3ops8function6FnOnce9call_once17h62f53d0854f0f48cE(ptr %f), !dbg !409
  call void asm sideeffect "", "~{memory}"(), !dbg !410, !srcloc !411
  ret void, !dbg !412
}

; std::rt::lang_start
; Function Attrs: nonlazybind uwtable
define hidden i64 @_ZN3std2rt10lang_start17h40e0ed9736028e98E(ptr %main, i64 %argc, ptr %argv, i8 %sigpipe) unnamed_addr #2 !dbg !413 {
start:
  %v.dbg.spill = alloca i64, align 8
  %sigpipe.dbg.spill = alloca i8, align 1
  %argv.dbg.spill = alloca ptr, align 8
  %argc.dbg.spill = alloca i64, align 8
  %main.dbg.spill = alloca ptr, align 8
  %_8 = alloca ptr, align 8
  %_5 = alloca i64, align 8
  store ptr %main, ptr %main.dbg.spill, align 8
  call void @llvm.dbg.declare(metadata ptr %main.dbg.spill, metadata !420, metadata !DIExpression()), !dbg !426
  store i64 %argc, ptr %argc.dbg.spill, align 8
  call void @llvm.dbg.declare(metadata ptr %argc.dbg.spill, metadata !421, metadata !DIExpression()), !dbg !427
  store ptr %argv, ptr %argv.dbg.spill, align 8
  call void @llvm.dbg.declare(metadata ptr %argv.dbg.spill, metadata !422, metadata !DIExpression()), !dbg !428
  store i8 %sigpipe, ptr %sigpipe.dbg.spill, align 1
  call void @llvm.dbg.declare(metadata ptr %sigpipe.dbg.spill, metadata !423, metadata !DIExpression()), !dbg !429
  store ptr %main, ptr %_8, align 8, !dbg !430
; call std::rt::lang_start_internal
  %0 = call i64 @_ZN3std2rt19lang_start_internal17hc3f700406209db2cE(ptr align 1 %_8, ptr align 8 @vtable.0, i64 %argc, ptr %argv, i8 %sigpipe), !dbg !431
  store i64 %0, ptr %_5, align 8, !dbg !431
  %v = load i64, ptr %_5, align 8, !dbg !432, !noundef !23
  store i64 %v, ptr %v.dbg.spill, align 8, !dbg !432
  call void @llvm.dbg.declare(metadata ptr %v.dbg.spill, metadata !424, metadata !DIExpression()), !dbg !433
  ret i64 %v, !dbg !434
}

; std::rt::lang_start::{{closure}}
; Function Attrs: inlinehint nonlazybind uwtable
define internal i32 @"_ZN3std2rt10lang_start28_$u7b$$u7b$closure$u7d$$u7d$17hefd9df45866168a1E"(ptr align 8 %_1) unnamed_addr #0 !dbg !435 {
start:
  %self.dbg.spill = alloca ptr, align 8
  %_1.dbg.spill = alloca ptr, align 8
  %self = alloca i8, align 1
  store ptr %_1, ptr %_1.dbg.spill, align 8
  call void @llvm.dbg.declare(metadata ptr %_1.dbg.spill, metadata !441, metadata !DIExpression(DW_OP_deref)), !dbg !442
  call void @llvm.dbg.declare(metadata ptr %self, metadata !443, metadata !DIExpression()), !dbg !463
  %_4 = load ptr, ptr %_1, align 8, !dbg !465, !nonnull !23, !noundef !23
; call std::sys_common::backtrace::__rust_begin_short_backtrace
  call void @_ZN3std10sys_common9backtrace28__rust_begin_short_backtrace17h7f91407455b2c4f7E(ptr %_4), !dbg !466
; call <() as std::process::Termination>::report
  %0 = call i8 @"_ZN54_$LT$$LP$$RP$$u20$as$u20$std..process..Termination$GT$6report17h7f042b8f424e41a1E"(), !dbg !466
  store i8 %0, ptr %self, align 1, !dbg !466
  store ptr %self, ptr %self.dbg.spill, align 8, !dbg !467
  call void @llvm.dbg.declare(metadata ptr %self.dbg.spill, metadata !468, metadata !DIExpression()), !dbg !477
  %_6 = load i8, ptr %self, align 1, !dbg !479, !noundef !23
  %_0 = zext i8 %_6 to i32, !dbg !479
  ret i32 %_0, !dbg !480
}

; <&T as core::fmt::Debug>::fmt
; Function Attrs: nonlazybind uwtable
define internal zeroext i1 @"_ZN42_$LT$$RF$T$u20$as$u20$core..fmt..Debug$GT$3fmt17h68f7216f46a86412E"(ptr align 8 %self, ptr align 8 %f) unnamed_addr #2 !dbg !481 {
start:
  %f.dbg.spill = alloca ptr, align 8
  %self.dbg.spill = alloca ptr, align 8
  store ptr %self, ptr %self.dbg.spill, align 8
  call void @llvm.dbg.declare(metadata ptr %self.dbg.spill, metadata !538, metadata !DIExpression()), !dbg !540
  store ptr %f, ptr %f.dbg.spill, align 8
  call void @llvm.dbg.declare(metadata ptr %f.dbg.spill, metadata !539, metadata !DIExpression()), !dbg !541
  %_3 = load ptr, ptr %self, align 8, !dbg !542, !nonnull !23, !align !543, !noundef !23
; call core::fmt::num::<impl core::fmt::Debug for u8>::fmt
  %_0 = call zeroext i1 @"_ZN4core3fmt3num49_$LT$impl$u20$core..fmt..Debug$u20$for$u20$u8$GT$3fmt17h800dcb9e31f4841cE"(ptr align 1 %_3, ptr align 8 %f), !dbg !544
  ret i1 %_0, !dbg !545
}

; <&T as core::fmt::Debug>::fmt
; Function Attrs: nonlazybind uwtable
define internal zeroext i1 @"_ZN42_$LT$$RF$T$u20$as$u20$core..fmt..Debug$GT$3fmt17h7d547154c0bd037eE"(ptr align 8 %self, ptr align 8 %f) unnamed_addr #2 !dbg !546 {
start:
  %f.dbg.spill = alloca ptr, align 8
  %self.dbg.spill = alloca ptr, align 8
  store ptr %self, ptr %self.dbg.spill, align 8
  call void @llvm.dbg.declare(metadata ptr %self.dbg.spill, metadata !551, metadata !DIExpression()), !dbg !555
  store ptr %f, ptr %f.dbg.spill, align 8
  call void @llvm.dbg.declare(metadata ptr %f.dbg.spill, metadata !552, metadata !DIExpression()), !dbg !556
  %_3 = load ptr, ptr %self, align 8, !dbg !557, !nonnull !23, !align !543, !noundef !23
; call <core::option::Option<T> as core::fmt::Debug>::fmt
  %_0 = call zeroext i1 @"_ZN66_$LT$core..option..Option$LT$T$GT$$u20$as$u20$core..fmt..Debug$GT$3fmt17h6238fb6c21d28257E"(ptr align 1 %_3, ptr align 8 %f), !dbg !558
  ret i1 %_0, !dbg !559
}

; <&T as core::fmt::Debug>::fmt
; Function Attrs: nonlazybind uwtable
define internal zeroext i1 @"_ZN42_$LT$$RF$T$u20$as$u20$core..fmt..Debug$GT$3fmt17hc3e0cd91378a5a19E"(ptr align 8 %self, ptr align 8 %f) unnamed_addr #2 !dbg !560 {
start:
  %f.dbg.spill = alloca ptr, align 8
  %self.dbg.spill = alloca ptr, align 8
  store ptr %self, ptr %self.dbg.spill, align 8
  call void @llvm.dbg.declare(metadata ptr %self.dbg.spill, metadata !565, metadata !DIExpression()), !dbg !569
  store ptr %f, ptr %f.dbg.spill, align 8
  call void @llvm.dbg.declare(metadata ptr %f.dbg.spill, metadata !566, metadata !DIExpression()), !dbg !570
  %_3 = load ptr, ptr %self, align 8, !dbg !571, !nonnull !23, !align !572, !noundef !23
; call <alloc::vec::Vec<T,A> as core::fmt::Debug>::fmt
  %_0 = call zeroext i1 @"_ZN65_$LT$alloc..vec..Vec$LT$T$C$A$GT$$u20$as$u20$core..fmt..Debug$GT$3fmt17ha46450db2a0aa074E"(ptr align 8 %_3, ptr align 8 %f), !dbg !573
  ret i1 %_0, !dbg !574
}

; <[T] as core::fmt::Debug>::fmt
; Function Attrs: nonlazybind uwtable
define internal zeroext i1 @"_ZN48_$LT$$u5b$T$u5d$$u20$as$u20$core..fmt..Debug$GT$3fmt17hd51a57cb3f229f67E"(ptr align 1 %self.0, i64 %self.1, ptr align 8 %f) unnamed_addr #2 !dbg !575 {
start:
  %ptr.dbg.spill1 = alloca ptr, align 8
  %addr.dbg.spill = alloca i64, align 8
  %count.dbg.spill = alloca i64, align 8
  %ptr.dbg.spill = alloca ptr, align 8
  %f.dbg.spill = alloca ptr, align 8
  %self.dbg.spill = alloca { ptr, i64 }, align 8
  %_12 = alloca ptr, align 8
  %end_or_len = alloca ptr, align 8
  %_6 = alloca %"core::slice::iter::Iter<'_, u8>", align 8
  %_5 = alloca %"core::fmt::builders::DebugList<'_, '_>", align 8
  store ptr %self.0, ptr %self.dbg.spill, align 8
  %0 = getelementptr inbounds i8, ptr %self.dbg.spill, i64 8
  store i64 %self.1, ptr %0, align 8
  call void @llvm.dbg.declare(metadata ptr %self.dbg.spill, metadata !580, metadata !DIExpression()), !dbg !582
  call void @llvm.dbg.declare(metadata ptr %self.dbg.spill, metadata !583, metadata !DIExpression()), !dbg !600
  call void @llvm.dbg.declare(metadata ptr %self.dbg.spill, metadata !602, metadata !DIExpression()), !dbg !612
  call void @llvm.dbg.declare(metadata ptr %self.dbg.spill, metadata !614, metadata !DIExpression()), !dbg !620
  store ptr %f, ptr %f.dbg.spill, align 8
  call void @llvm.dbg.declare(metadata ptr %f.dbg.spill, metadata !581, metadata !DIExpression()), !dbg !622
  call void @llvm.dbg.declare(metadata ptr %end_or_len, metadata !610, metadata !DIExpression()), !dbg !623
; call core::fmt::Formatter::debug_list
  call void @_ZN4core3fmt9Formatter10debug_list17h876a1c15cedf3397E(ptr sret(%"core::fmt::builders::DebugList<'_, '_>") align 8 %_5, ptr align 8 %f), !dbg !624
  store ptr %self.0, ptr %ptr.dbg.spill, align 8, !dbg !625
  call void @llvm.dbg.declare(metadata ptr %ptr.dbg.spill, metadata !608, metadata !DIExpression()), !dbg !626
  call void @llvm.dbg.declare(metadata ptr %ptr.dbg.spill, metadata !627, metadata !DIExpression()), !dbg !634
  br i1 false, label %bb4, label %bb5, !dbg !636

bb5:                                              ; preds = %start
  store i64 %self.1, ptr %count.dbg.spill, align 8, !dbg !637
  call void @llvm.dbg.declare(metadata ptr %count.dbg.spill, metadata !633, metadata !DIExpression()), !dbg !638
  %1 = getelementptr inbounds i8, ptr %self.0, i64 %self.1, !dbg !639
  store ptr %1, ptr %end_or_len, align 8, !dbg !639
  br label %bb6, !dbg !640

bb4:                                              ; preds = %start
  store i64 %self.1, ptr %addr.dbg.spill, align 8, !dbg !641
  call void @llvm.dbg.declare(metadata ptr %addr.dbg.spill, metadata !642, metadata !DIExpression()), !dbg !648
  %2 = inttoptr i64 %self.1 to ptr, !dbg !650
  store ptr %2, ptr %end_or_len, align 8, !dbg !650
  br label %bb6, !dbg !640

bb6:                                              ; preds = %bb4, %bb5
  store ptr %self.0, ptr %ptr.dbg.spill1, align 8, !dbg !651
  call void @llvm.dbg.declare(metadata ptr %ptr.dbg.spill1, metadata !652, metadata !DIExpression()), !dbg !659
  store ptr %self.0, ptr %_12, align 8, !dbg !661
  %_14 = load ptr, ptr %end_or_len, align 8, !dbg !662, !noundef !23
  %3 = load ptr, ptr %_12, align 8, !dbg !663, !nonnull !23, !noundef !23
  store ptr %3, ptr %_6, align 8, !dbg !663
  %4 = getelementptr inbounds i8, ptr %_6, i64 8, !dbg !663
  store ptr %_14, ptr %4, align 8, !dbg !663
  %5 = load ptr, ptr %_6, align 8, !dbg !624, !nonnull !23, !noundef !23
  %6 = getelementptr inbounds i8, ptr %_6, i64 8, !dbg !624
  %7 = load ptr, ptr %6, align 8, !dbg !624, !noundef !23
; call core::fmt::builders::DebugList::entries
  %_3 = call align 8 ptr @_ZN4core3fmt8builders9DebugList7entries17h8c863e4be1e68d77E(ptr align 8 %_5, ptr %5, ptr %7), !dbg !624
; call core::fmt::builders::DebugList::finish
  %_0 = call zeroext i1 @_ZN4core3fmt8builders9DebugList6finish17h052888958915dc88E(ptr align 8 %_3), !dbg !624
  ret i1 %_0, !dbg !664
}

; core::ffi::c_str::CStr::as_ptr
; Function Attrs: inlinehint nonlazybind uwtable
define internal ptr @_ZN4core3ffi5c_str4CStr6as_ptr17h51e348217fd3dfd1E(ptr align 1 %self.0, i64 %self.1) unnamed_addr #0 !dbg !665 {
start:
  %self.dbg.spill1 = alloca { ptr, i64 }, align 8
  %self.dbg.spill = alloca { ptr, i64 }, align 8
  store ptr %self.0, ptr %self.dbg.spill, align 8
  %0 = getelementptr inbounds i8, ptr %self.dbg.spill, i64 8
  store i64 %self.1, ptr %0, align 8
  call void @llvm.dbg.declare(metadata ptr %self.dbg.spill, metadata !683, metadata !DIExpression()), !dbg !684
  store ptr %self.0, ptr %self.dbg.spill1, align 8, !dbg !685
  %1 = getelementptr inbounds i8, ptr %self.dbg.spill1, i64 8, !dbg !685
  store i64 %self.1, ptr %1, align 8, !dbg !685
  call void @llvm.dbg.declare(metadata ptr %self.dbg.spill1, metadata !686, metadata !DIExpression()), !dbg !699
  ret ptr %self.0, !dbg !701
}

; core::ffi::c_str::CStr::from_ptr
; Function Attrs: inlinehint nonlazybind uwtable
define internal { ptr, i64 } @_ZN4core3ffi5c_str4CStr8from_ptr17hcb71c1bbbf3957d3E(ptr %ptr) unnamed_addr #0 !dbg !702 {
start:
  %bytes.dbg.spill = alloca { ptr, i64 }, align 8
  %data_pointer.dbg.spill = alloca ptr, align 8
  %len.dbg.spill2 = alloca i64, align 8
  %data.dbg.spill = alloca ptr, align 8
  %len.dbg.spill = alloca i64, align 8
  %ptr.dbg.spill = alloca ptr, align 8
  %_8 = alloca %"core::ptr::metadata::PtrComponents<[u8]>", align 8
  %_7 = alloca %"core::ptr::metadata::PtrRepr<[u8]>", align 8
  store ptr %ptr, ptr %ptr.dbg.spill, align 8
  call void @llvm.dbg.declare(metadata ptr %ptr.dbg.spill, metadata !707, metadata !DIExpression()), !dbg !710
  call void @llvm.dbg.declare(metadata ptr %ptr.dbg.spill, metadata !711, metadata !DIExpression()), !dbg !717
  call void @llvm.dbg.declare(metadata ptr %ptr.dbg.spill, metadata !719, metadata !DIExpression()), !dbg !724
  call void @llvm.dbg.declare(metadata ptr %ptr.dbg.spill, metadata !726, metadata !DIExpression()), !dbg !734
  %len = call i64 @strlen(ptr %ptr), !dbg !736
  store i64 %len, ptr %len.dbg.spill, align 8, !dbg !736
  call void @llvm.dbg.declare(metadata ptr %len.dbg.spill, metadata !708, metadata !DIExpression()), !dbg !737
  store ptr %ptr, ptr %data.dbg.spill, align 8, !dbg !738
  call void @llvm.dbg.declare(metadata ptr %data.dbg.spill, metadata !739, metadata !DIExpression()), !dbg !744
  call void @llvm.dbg.declare(metadata ptr %data.dbg.spill, metadata !746, metadata !DIExpression()), !dbg !751
  call void @llvm.dbg.declare(metadata ptr %data.dbg.spill, metadata !753, metadata !DIExpression()), !dbg !757
  %len1 = add i64 %len, 1, !dbg !759
  store i64 %len1, ptr %len.dbg.spill2, align 8, !dbg !759
  call void @llvm.dbg.declare(metadata ptr %len.dbg.spill2, metadata !743, metadata !DIExpression()), !dbg !760
  call void @llvm.dbg.declare(metadata ptr %len.dbg.spill2, metadata !750, metadata !DIExpression()), !dbg !761
  call void @llvm.dbg.declare(metadata ptr %len.dbg.spill2, metadata !762, metadata !DIExpression()), !dbg !767
  store ptr %ptr, ptr %data_pointer.dbg.spill, align 8, !dbg !769
  call void @llvm.dbg.declare(metadata ptr %data_pointer.dbg.spill, metadata !766, metadata !DIExpression()), !dbg !770
  store ptr %ptr, ptr %_8, align 8, !dbg !771
  %0 = getelementptr inbounds i8, ptr %_8, i64 8, !dbg !771
  store i64 %len1, ptr %0, align 8, !dbg !771
  %1 = load ptr, ptr %_8, align 8, !dbg !772, !noundef !23
  %2 = getelementptr inbounds i8, ptr %_8, i64 8, !dbg !772
  %3 = load i64, ptr %2, align 8, !dbg !772, !noundef !23
  store ptr %1, ptr %_7, align 8, !dbg !772
  %4 = getelementptr inbounds i8, ptr %_7, i64 8, !dbg !772
  store i64 %3, ptr %4, align 8, !dbg !772
  %bytes.0 = load ptr, ptr %_7, align 8, !dbg !772, !noundef !23
  %5 = getelementptr inbounds i8, ptr %_7, i64 8, !dbg !772
  %bytes.1 = load i64, ptr %5, align 8, !dbg !772, !noundef !23
  store ptr %bytes.0, ptr %bytes.dbg.spill, align 8, !dbg !772
  %6 = getelementptr inbounds i8, ptr %bytes.dbg.spill, i64 8, !dbg !772
  store i64 %bytes.1, ptr %6, align 8, !dbg !772
  call void @llvm.dbg.declare(metadata ptr %bytes.dbg.spill, metadata !773, metadata !DIExpression()), !dbg !780
  call void @llvm.dbg.declare(metadata ptr %bytes.dbg.spill, metadata !782, metadata !DIExpression()), !dbg !788
  call void @llvm.dbg.declare(metadata ptr %bytes.dbg.spill, metadata !790, metadata !DIExpression()), !dbg !797
  %7 = insertvalue { ptr, i64 } poison, ptr %bytes.0, 0, !dbg !799
  %8 = insertvalue { ptr, i64 } %7, i64 %bytes.1, 1, !dbg !799
  ret { ptr, i64 } %8, !dbg !799
}

; core::fmt::num::<impl core::fmt::Debug for u8>::fmt
; Function Attrs: inlinehint nonlazybind uwtable
define internal zeroext i1 @"_ZN4core3fmt3num49_$LT$impl$u20$core..fmt..Debug$u20$for$u20$u8$GT$3fmt17h800dcb9e31f4841cE"(ptr align 1 %self, ptr align 8 %f) unnamed_addr #0 !dbg !800 {
start:
  %f.dbg.spill = alloca ptr, align 8
  %self.dbg.spill = alloca ptr, align 8
  %_0 = alloca i8, align 1
  store ptr %self, ptr %self.dbg.spill, align 8
  call void @llvm.dbg.declare(metadata ptr %self.dbg.spill, metadata !807, metadata !DIExpression()), !dbg !809
  store ptr %f, ptr %f.dbg.spill, align 8
  call void @llvm.dbg.declare(metadata ptr %f.dbg.spill, metadata !808, metadata !DIExpression()), !dbg !810
  call void @llvm.dbg.declare(metadata ptr %f.dbg.spill, metadata !811, metadata !DIExpression()), !dbg !819
  call void @llvm.dbg.declare(metadata ptr %f.dbg.spill, metadata !821, metadata !DIExpression()), !dbg !826
  %0 = getelementptr inbounds %"core::fmt::Formatter<'_>", ptr %f, i32 0, i32 4, !dbg !828
  %_4 = load i32, ptr %0, align 4, !dbg !828, !noundef !23
  %_3 = and i32 %_4, 16, !dbg !828
  %1 = icmp eq i32 %_3, 0, !dbg !829
  br i1 %1, label %bb2, label %bb1, !dbg !829

bb2:                                              ; preds = %start
  %2 = getelementptr inbounds %"core::fmt::Formatter<'_>", ptr %f, i32 0, i32 4, !dbg !830
  %_6 = load i32, ptr %2, align 4, !dbg !830, !noundef !23
  %_5 = and i32 %_6, 32, !dbg !830
  %3 = icmp eq i32 %_5, 0, !dbg !831
  br i1 %3, label %bb4, label %bb3, !dbg !831

bb1:                                              ; preds = %start
; call core::fmt::num::<impl core::fmt::LowerHex for u8>::fmt
  %4 = call zeroext i1 @"_ZN4core3fmt3num52_$LT$impl$u20$core..fmt..LowerHex$u20$for$u20$u8$GT$3fmt17ha5e2045323f0c8f5E"(ptr align 1 %self, ptr align 8 %f), !dbg !832
  %5 = zext i1 %4 to i8, !dbg !832
  store i8 %5, ptr %_0, align 1, !dbg !832
  br label %bb6, !dbg !832

bb4:                                              ; preds = %bb2
; call core::fmt::num::imp::<impl core::fmt::Display for u8>::fmt
  %6 = call zeroext i1 @"_ZN4core3fmt3num3imp51_$LT$impl$u20$core..fmt..Display$u20$for$u20$u8$GT$3fmt17h8e60102b0743c13cE"(ptr align 1 %self, ptr align 8 %f), !dbg !833
  %7 = zext i1 %6 to i8, !dbg !833
  store i8 %7, ptr %_0, align 1, !dbg !833
  br label %bb5, !dbg !833

bb3:                                              ; preds = %bb2
; call core::fmt::num::<impl core::fmt::UpperHex for u8>::fmt
  %8 = call zeroext i1 @"_ZN4core3fmt3num52_$LT$impl$u20$core..fmt..UpperHex$u20$for$u20$u8$GT$3fmt17hb339727406d21c1fE"(ptr align 1 %self, ptr align 8 %f), !dbg !834
  %9 = zext i1 %8 to i8, !dbg !834
  store i8 %9, ptr %_0, align 1, !dbg !834
  br label %bb5, !dbg !834

bb5:                                              ; preds = %bb3, %bb4
  br label %bb6, !dbg !835

bb6:                                              ; preds = %bb1, %bb5
  %10 = load i8, ptr %_0, align 1, !dbg !836, !range !837, !noundef !23
  %11 = trunc i8 %10 to i1, !dbg !836
  ret i1 %11, !dbg !836
}

; core::fmt::num::<impl core::fmt::Debug for usize>::fmt
; Function Attrs: inlinehint nonlazybind uwtable
define internal zeroext i1 @"_ZN4core3fmt3num52_$LT$impl$u20$core..fmt..Debug$u20$for$u20$usize$GT$3fmt17h6e239098b80b549aE"(ptr align 8 %self, ptr align 8 %f) unnamed_addr #0 !dbg !838 {
start:
  %f.dbg.spill = alloca ptr, align 8
  %self.dbg.spill = alloca ptr, align 8
  %_0 = alloca i8, align 1
  store ptr %self, ptr %self.dbg.spill, align 8
  call void @llvm.dbg.declare(metadata ptr %self.dbg.spill, metadata !844, metadata !DIExpression()), !dbg !846
  store ptr %f, ptr %f.dbg.spill, align 8
  call void @llvm.dbg.declare(metadata ptr %f.dbg.spill, metadata !845, metadata !DIExpression()), !dbg !847
  call void @llvm.dbg.declare(metadata ptr %f.dbg.spill, metadata !848, metadata !DIExpression()), !dbg !852
  call void @llvm.dbg.declare(metadata ptr %f.dbg.spill, metadata !854, metadata !DIExpression()), !dbg !858
  %0 = getelementptr inbounds %"core::fmt::Formatter<'_>", ptr %f, i32 0, i32 4, !dbg !860
  %_4 = load i32, ptr %0, align 4, !dbg !860, !noundef !23
  %_3 = and i32 %_4, 16, !dbg !860
  %1 = icmp eq i32 %_3, 0, !dbg !861
  br i1 %1, label %bb2, label %bb1, !dbg !861

bb2:                                              ; preds = %start
  %2 = getelementptr inbounds %"core::fmt::Formatter<'_>", ptr %f, i32 0, i32 4, !dbg !862
  %_6 = load i32, ptr %2, align 4, !dbg !862, !noundef !23
  %_5 = and i32 %_6, 32, !dbg !862
  %3 = icmp eq i32 %_5, 0, !dbg !863
  br i1 %3, label %bb4, label %bb3, !dbg !863

bb1:                                              ; preds = %start
; call core::fmt::num::<impl core::fmt::LowerHex for usize>::fmt
  %4 = call zeroext i1 @"_ZN4core3fmt3num55_$LT$impl$u20$core..fmt..LowerHex$u20$for$u20$usize$GT$3fmt17hdcbbec87e7e8bf7bE"(ptr align 8 %self, ptr align 8 %f), !dbg !864
  %5 = zext i1 %4 to i8, !dbg !864
  store i8 %5, ptr %_0, align 1, !dbg !864
  br label %bb6, !dbg !864

bb4:                                              ; preds = %bb2
; call core::fmt::num::imp::<impl core::fmt::Display for usize>::fmt
  %6 = call zeroext i1 @"_ZN4core3fmt3num3imp54_$LT$impl$u20$core..fmt..Display$u20$for$u20$usize$GT$3fmt17h7bbbd896a38dcccaE"(ptr align 8 %self, ptr align 8 %f), !dbg !865
  %7 = zext i1 %6 to i8, !dbg !865
  store i8 %7, ptr %_0, align 1, !dbg !865
  br label %bb5, !dbg !865

bb3:                                              ; preds = %bb2
; call core::fmt::num::<impl core::fmt::UpperHex for usize>::fmt
  %8 = call zeroext i1 @"_ZN4core3fmt3num55_$LT$impl$u20$core..fmt..UpperHex$u20$for$u20$usize$GT$3fmt17hdaf6f71ebb81ebeeE"(ptr align 8 %self, ptr align 8 %f), !dbg !866
  %9 = zext i1 %8 to i8, !dbg !866
  store i8 %9, ptr %_0, align 1, !dbg !866
  br label %bb5, !dbg !866

bb5:                                              ; preds = %bb3, %bb4
  br label %bb6, !dbg !867

bb6:                                              ; preds = %bb1, %bb5
  %10 = load i8, ptr %_0, align 1, !dbg !868, !range !837, !noundef !23
  %11 = trunc i8 %10 to i1, !dbg !868
  ret i1 %11, !dbg !868
}

; core::fmt::builders::DebugList::entries
; Function Attrs: nonlazybind uwtable
define internal align 8 ptr @_ZN4core3fmt8builders9DebugList7entries17h8c863e4be1e68d77E(ptr align 8 %self, ptr %entries.0, ptr %entries.1) unnamed_addr #2 personality ptr @rust_eh_personality !dbg !869 {
start:
  %0 = alloca { ptr, i32, [1 x i32] }, align 8
  %entries.dbg.spill = alloca %"core::slice::iter::Iter<'_, u8>", align 8
  %self.dbg.spill = alloca ptr, align 8
  %entry = alloca ptr, align 8
  %_5 = alloca ptr, align 8
  %iter = alloca %"core::slice::iter::Iter<'_, u8>", align 8
  store ptr %self, ptr %self.dbg.spill, align 8
  call void @llvm.dbg.declare(metadata ptr %self.dbg.spill, metadata !888, metadata !DIExpression()), !dbg !894
  store ptr %entries.0, ptr %entries.dbg.spill, align 8
  %1 = getelementptr inbounds i8, ptr %entries.dbg.spill, i64 8
  store ptr %entries.1, ptr %1, align 8
  call void @llvm.dbg.declare(metadata ptr %entries.dbg.spill, metadata !889, metadata !DIExpression()), !dbg !895
  call void @llvm.dbg.declare(metadata ptr %iter, metadata !890, metadata !DIExpression()), !dbg !896
  call void @llvm.dbg.declare(metadata ptr %entry, metadata !892, metadata !DIExpression()), !dbg !897
; call <I as core::iter::traits::collect::IntoIterator>::into_iter
  %2 = call { ptr, ptr } @"_ZN63_$LT$I$u20$as$u20$core..iter..traits..collect..IntoIterator$GT$9into_iter17heddf5bb0dd059a8aE"(ptr %entries.0, ptr %entries.1), !dbg !898
  %_3.0 = extractvalue { ptr, ptr } %2, 0, !dbg !898
  %_3.1 = extractvalue { ptr, ptr } %2, 1, !dbg !898
  store ptr %_3.0, ptr %iter, align 8, !dbg !898
  %3 = getelementptr inbounds i8, ptr %iter, i64 8, !dbg !898
  store ptr %_3.1, ptr %3, align 8, !dbg !898
  br label %bb2, !dbg !899

bb2:                                              ; preds = %bb8, %start
; invoke <core::slice::iter::Iter<T> as core::iter::traits::iterator::Iterator>::next
  %4 = invoke align 1 ptr @"_ZN91_$LT$core..slice..iter..Iter$LT$T$GT$$u20$as$u20$core..iter..traits..iterator..Iterator$GT$4next17h0d790b559119d83cE"(ptr align 8 %iter)
          to label %bb3 unwind label %cleanup, !dbg !896

bb11:                                             ; preds = %bb10, %cleanup
  %5 = load ptr, ptr %0, align 8, !dbg !900, !noundef !23
  %6 = getelementptr inbounds i8, ptr %0, i64 8, !dbg !900
  %7 = load i32, ptr %6, align 8, !dbg !900, !noundef !23
  %8 = insertvalue { ptr, i32 } poison, ptr %5, 0, !dbg !900
  %9 = insertvalue { ptr, i32 } %8, i32 %7, 1, !dbg !900
  resume { ptr, i32 } %9, !dbg !900

cleanup:                                          ; preds = %bb2
  %10 = landingpad { ptr, i32 }
          cleanup
  %11 = extractvalue { ptr, i32 } %10, 0
  %12 = extractvalue { ptr, i32 } %10, 1
  store ptr %11, ptr %0, align 8
  %13 = getelementptr inbounds i8, ptr %0, i64 8
  store i32 %12, ptr %13, align 8
  br label %bb11

bb3:                                              ; preds = %bb2
  store ptr %4, ptr %_5, align 8, !dbg !896
  %14 = load ptr, ptr %_5, align 8, !dbg !896, !noundef !23
  %15 = ptrtoint ptr %14 to i64, !dbg !896
  %16 = icmp eq i64 %15, 0, !dbg !896
  %_7 = select i1 %16, i64 0, i64 1, !dbg !896
  %17 = icmp eq i64 %_7, 0, !dbg !896
  br i1 %17, label %bb6, label %bb4, !dbg !896

bb6:                                              ; preds = %bb3
  ret ptr %self, !dbg !901

bb4:                                              ; preds = %bb3
  %18 = load ptr, ptr %_5, align 8, !dbg !902, !nonnull !23, !align !543, !noundef !23
  store ptr %18, ptr %entry, align 8, !dbg !902
; invoke core::fmt::builders::DebugList::entry
  %_9 = invoke align 8 ptr @_ZN4core3fmt8builders9DebugList5entry17hd1d9a4a9a039c3ebE(ptr align 8 %self, ptr align 1 %entry, ptr align 8 @vtable.1)
          to label %bb7 unwind label %cleanup1, !dbg !903

bb10:                                             ; preds = %cleanup1
  br label %bb11, !dbg !904

cleanup1:                                         ; preds = %bb4
  %19 = landingpad { ptr, i32 }
          cleanup
  %20 = extractvalue { ptr, i32 } %19, 0
  %21 = extractvalue { ptr, i32 } %19, 1
  store ptr %20, ptr %0, align 8
  %22 = getelementptr inbounds i8, ptr %0, i64 8
  store i32 %21, ptr %22, align 8
  br label %bb10

bb7:                                              ; preds = %bb4
  br label %bb8, !dbg !904

bb8:                                              ; preds = %bb7
  br label %bb2, !dbg !899

bb5:                                              ; No predecessors!
  unreachable, !dbg !896
}

; core::fmt::Arguments::new_v1
; Function Attrs: inlinehint nonlazybind uwtable
define internal void @_ZN4core3fmt9Arguments6new_v117h7e0d121c061c548dE(ptr sret(%"core::fmt::Arguments<'_>") align 8 %_0, ptr align 8 %pieces.0, i64 %pieces.1, ptr align 8 %args.0, i64 %args.1) unnamed_addr #0 !dbg !905 {
start:
  %pieces.dbg.spill1 = alloca { ptr, i64 }, align 8
  %args.dbg.spill = alloca { ptr, i64 }, align 8
  %pieces.dbg.spill = alloca { ptr, i64 }, align 8
  %_14 = alloca %"core::fmt::Arguments<'_>", align 8
  %_9 = alloca %"core::fmt::Arguments<'_>", align 8
  store ptr %pieces.0, ptr %pieces.dbg.spill, align 8
  %0 = getelementptr inbounds i8, ptr %pieces.dbg.spill, i64 8
  store i64 %pieces.1, ptr %0, align 8
  call void @llvm.dbg.declare(metadata ptr %pieces.dbg.spill, metadata !976, metadata !DIExpression()), !dbg !978
  store ptr %args.0, ptr %args.dbg.spill, align 8
  %1 = getelementptr inbounds i8, ptr %args.dbg.spill, i64 8
  store i64 %args.1, ptr %1, align 8
  call void @llvm.dbg.declare(metadata ptr %args.dbg.spill, metadata !977, metadata !DIExpression()), !dbg !979
  %_3 = icmp ult i64 %pieces.1, %args.1, !dbg !980
  br i1 %_3, label %bb2, label %bb1, !dbg !980

bb1:                                              ; preds = %start
  %_7 = add i64 %args.1, 1, !dbg !981
  %_6 = icmp ugt i64 %pieces.1, %_7, !dbg !982
  br i1 %_6, label %bb2, label %bb3, !dbg !982

bb2:                                              ; preds = %bb1, %start
  store ptr @alloc_af99043bc04c419363a7f04d23183506, ptr %pieces.dbg.spill1, align 8, !dbg !983
  %2 = getelementptr inbounds i8, ptr %pieces.dbg.spill1, i64 8, !dbg !983
  store i64 1, ptr %2, align 8, !dbg !983
  call void @llvm.dbg.declare(metadata ptr %pieces.dbg.spill1, metadata !984, metadata !DIExpression()), !dbg !991
  br i1 false, label %bb4, label %bb6, !dbg !995

bb3:                                              ; preds = %bb1
  store ptr %pieces.0, ptr %_0, align 8, !dbg !996
  %3 = getelementptr inbounds i8, ptr %_0, i64 8, !dbg !996
  store i64 %pieces.1, ptr %3, align 8, !dbg !996
  %4 = load ptr, ptr @0, align 8, !dbg !996, !align !572, !noundef !23
  %5 = load i64, ptr getelementptr inbounds (i8, ptr @0, i64 8), align 8, !dbg !996
  %6 = getelementptr inbounds %"core::fmt::Arguments<'_>", ptr %_0, i32 0, i32 2, !dbg !996
  store ptr %4, ptr %6, align 8, !dbg !996
  %7 = getelementptr inbounds i8, ptr %6, i64 8, !dbg !996
  store i64 %5, ptr %7, align 8, !dbg !996
  %8 = getelementptr inbounds %"core::fmt::Arguments<'_>", ptr %_0, i32 0, i32 1, !dbg !996
  store ptr %args.0, ptr %8, align 8, !dbg !996
  %9 = getelementptr inbounds i8, ptr %8, i64 8, !dbg !996
  store i64 %args.1, ptr %9, align 8, !dbg !996
  ret void, !dbg !997

bb6:                                              ; preds = %bb2
  store ptr @alloc_af99043bc04c419363a7f04d23183506, ptr %_9, align 8, !dbg !998
  %10 = getelementptr inbounds i8, ptr %_9, i64 8, !dbg !998
  store i64 1, ptr %10, align 8, !dbg !998
  %11 = load ptr, ptr @0, align 8, !dbg !998, !align !572, !noundef !23
  %12 = load i64, ptr getelementptr inbounds (i8, ptr @0, i64 8), align 8, !dbg !998
  %13 = getelementptr inbounds %"core::fmt::Arguments<'_>", ptr %_9, i32 0, i32 2, !dbg !998
  store ptr %11, ptr %13, align 8, !dbg !998
  %14 = getelementptr inbounds i8, ptr %13, i64 8, !dbg !998
  store i64 %12, ptr %14, align 8, !dbg !998
  %15 = getelementptr inbounds %"core::fmt::Arguments<'_>", ptr %_9, i32 0, i32 1, !dbg !998
  store ptr @alloc_513570631223a12912d85da2bec3b15a, ptr %15, align 8, !dbg !998
  %16 = getelementptr inbounds i8, ptr %15, i64 8, !dbg !998
  store i64 0, ptr %16, align 8, !dbg !998
; call core::panicking::panic_fmt
  call void @_ZN4core9panicking9panic_fmt17h0d3f1893e38be419E(ptr align 8 %_9, ptr align 8 @alloc_b96933a8148f906cfb135db9ebeba42b) #15, !dbg !999
  unreachable, !dbg !999

bb4:                                              ; preds = %bb2
; call core::fmt::Arguments::new_const
  call void @_ZN4core3fmt9Arguments9new_const17hd277b65440708b0bE(ptr sret(%"core::fmt::Arguments<'_>") align 8 %_14, ptr align 8 @alloc_af99043bc04c419363a7f04d23183506, i64 1), !dbg !1000
; call core::panicking::panic_fmt
  call void @_ZN4core9panicking9panic_fmt17h0d3f1893e38be419E(ptr align 8 %_14, ptr align 8 @alloc_b1c9b46fd6543b9e0f93a51d745efa2a) #15, !dbg !1000
  unreachable, !dbg !1000
}

; core::fmt::Arguments::new_const
; Function Attrs: inlinehint nonlazybind uwtable
define internal void @_ZN4core3fmt9Arguments9new_const17hd277b65440708b0bE(ptr sret(%"core::fmt::Arguments<'_>") align 8 %_0, ptr align 8 %pieces.0, i64 %pieces.1) unnamed_addr #0 !dbg !1001 {
start:
  %pieces.dbg.spill = alloca { ptr, i64 }, align 8
  %_5 = alloca %"core::fmt::Arguments<'_>", align 8
  store ptr %pieces.0, ptr %pieces.dbg.spill, align 8
  %0 = getelementptr inbounds i8, ptr %pieces.dbg.spill, i64 8
  store i64 %pieces.1, ptr %0, align 8
  call void @llvm.dbg.declare(metadata ptr %pieces.dbg.spill, metadata !1003, metadata !DIExpression()), !dbg !1004
  %_2 = icmp ugt i64 %pieces.1, 1, !dbg !1005
  br i1 %_2, label %bb1, label %bb3, !dbg !1005

bb3:                                              ; preds = %start
  store ptr %pieces.0, ptr %_0, align 8, !dbg !1006
  %1 = getelementptr inbounds i8, ptr %_0, i64 8, !dbg !1006
  store i64 %pieces.1, ptr %1, align 8, !dbg !1006
  %2 = load ptr, ptr @0, align 8, !dbg !1006, !align !572, !noundef !23
  %3 = load i64, ptr getelementptr inbounds (i8, ptr @0, i64 8), align 8, !dbg !1006
  %4 = getelementptr inbounds %"core::fmt::Arguments<'_>", ptr %_0, i32 0, i32 2, !dbg !1006
  store ptr %2, ptr %4, align 8, !dbg !1006
  %5 = getelementptr inbounds i8, ptr %4, i64 8, !dbg !1006
  store i64 %3, ptr %5, align 8, !dbg !1006
  %6 = getelementptr inbounds %"core::fmt::Arguments<'_>", ptr %_0, i32 0, i32 1, !dbg !1006
  store ptr @alloc_513570631223a12912d85da2bec3b15a, ptr %6, align 8, !dbg !1006
  %7 = getelementptr inbounds i8, ptr %6, i64 8, !dbg !1006
  store i64 0, ptr %7, align 8, !dbg !1006
  ret void, !dbg !1007

bb1:                                              ; preds = %start
; call core::fmt::Arguments::new_const
  call void @_ZN4core3fmt9Arguments9new_const17hd277b65440708b0bE(ptr sret(%"core::fmt::Arguments<'_>") align 8 %_5, ptr align 8 @alloc_af99043bc04c419363a7f04d23183506, i64 1), !dbg !1008
; call core::panicking::panic_fmt
  call void @_ZN4core9panicking9panic_fmt17h0d3f1893e38be419E(ptr align 8 %_5, ptr align 8 @alloc_b1c9b46fd6543b9e0f93a51d745efa2a) #15, !dbg !1008
  unreachable, !dbg !1008
}

; core::ops::function::FnOnce::call_once{{vtable.shim}}
; Function Attrs: inlinehint nonlazybind uwtable
define internal i32 @"_ZN4core3ops8function6FnOnce40call_once$u7b$$u7b$vtable.shim$u7d$$u7d$17h81f2d058a5cc04beE"(ptr %_1) unnamed_addr #0 !dbg !1009 {
start:
  %_1.dbg.spill = alloca ptr, align 8
  %_2 = alloca {}, align 1
  store ptr %_1, ptr %_1.dbg.spill, align 8
  call void @llvm.dbg.declare(metadata ptr %_1.dbg.spill, metadata !1017, metadata !DIExpression()), !dbg !1022
  call void @llvm.dbg.declare(metadata ptr %_2, metadata !1018, metadata !DIExpression()), !dbg !1022
  %0 = load ptr, ptr %_1, align 8, !dbg !1022, !nonnull !23, !noundef !23
; call core::ops::function::FnOnce::call_once
  %_0 = call i32 @_ZN4core3ops8function6FnOnce9call_once17he26a88492e108bd8E(ptr %0), !dbg !1022
  ret i32 %_0, !dbg !1022
}

; core::ops::function::FnOnce::call_once
; Function Attrs: inlinehint nonlazybind uwtable
define internal void @_ZN4core3ops8function6FnOnce9call_once17h62f53d0854f0f48cE(ptr %_1) unnamed_addr #0 !dbg !1023 {
start:
  %_1.dbg.spill = alloca ptr, align 8
  %_2 = alloca {}, align 1
  store ptr %_1, ptr %_1.dbg.spill, align 8
  call void @llvm.dbg.declare(metadata ptr %_1.dbg.spill, metadata !1025, metadata !DIExpression()), !dbg !1029
  call void @llvm.dbg.declare(metadata ptr %_2, metadata !1026, metadata !DIExpression()), !dbg !1029
  call void %_1(), !dbg !1029
  ret void, !dbg !1029
}

; core::ops::function::FnOnce::call_once
; Function Attrs: inlinehint nonlazybind uwtable
define internal i32 @_ZN4core3ops8function6FnOnce9call_once17he26a88492e108bd8E(ptr %0) unnamed_addr #0 personality ptr @rust_eh_personality !dbg !1030 {
start:
  %1 = alloca { ptr, i32, [1 x i32] }, align 8
  %_2 = alloca {}, align 1
  %_1 = alloca ptr, align 8
  store ptr %0, ptr %_1, align 8
  call void @llvm.dbg.declare(metadata ptr %_1, metadata !1034, metadata !DIExpression()), !dbg !1036
  call void @llvm.dbg.declare(metadata ptr %_2, metadata !1035, metadata !DIExpression()), !dbg !1036
; invoke std::rt::lang_start::{{closure}}
  %_0 = invoke i32 @"_ZN3std2rt10lang_start28_$u7b$$u7b$closure$u7d$$u7d$17hefd9df45866168a1E"(ptr align 8 %_1)
          to label %bb1 unwind label %cleanup, !dbg !1036

bb3:                                              ; preds = %cleanup
  %2 = load ptr, ptr %1, align 8, !dbg !1036, !noundef !23
  %3 = getelementptr inbounds i8, ptr %1, i64 8, !dbg !1036
  %4 = load i32, ptr %3, align 8, !dbg !1036, !noundef !23
  %5 = insertvalue { ptr, i32 } poison, ptr %2, 0, !dbg !1036
  %6 = insertvalue { ptr, i32 } %5, i32 %4, 1, !dbg !1036
  resume { ptr, i32 } %6, !dbg !1036

cleanup:                                          ; preds = %start
  %7 = landingpad { ptr, i32 }
          cleanup
  %8 = extractvalue { ptr, i32 } %7, 0
  %9 = extractvalue { ptr, i32 } %7, 1
  store ptr %8, ptr %1, align 8
  %10 = getelementptr inbounds i8, ptr %1, i64 8
  store i32 %9, ptr %10, align 8
  br label %bb3

bb1:                                              ; preds = %start
  ret i32 %_0, !dbg !1036
}

; core::ptr::drop_in_place<usize>
; Function Attrs: inlinehint nonlazybind uwtable
define internal void @"_ZN4core3ptr26drop_in_place$LT$usize$GT$17h098c11b7b1f2dc48E"(ptr align 8 %_1) unnamed_addr #0 !dbg !1037 {
start:
  %_1.dbg.spill = alloca ptr, align 8
  store ptr %_1, ptr %_1.dbg.spill, align 8
  call void @llvm.dbg.declare(metadata ptr %_1.dbg.spill, metadata !1042, metadata !DIExpression()), !dbg !1043
  ret void, !dbg !1043
}

; core::ptr::drop_in_place<&u8>
; Function Attrs: inlinehint nonlazybind uwtable
define internal void @"_ZN4core3ptr27drop_in_place$LT$$RF$u8$GT$17h5b05e43a995262cfE"(ptr align 8 %_1) unnamed_addr #0 !dbg !1044 {
start:
  %_1.dbg.spill = alloca ptr, align 8
  store ptr %_1, ptr %_1.dbg.spill, align 8
  call void @llvm.dbg.declare(metadata ptr %_1.dbg.spill, metadata !1049, metadata !DIExpression()), !dbg !1050
  ret void, !dbg !1050
}

; core::ptr::drop_in_place<alloc::string::String>
; Function Attrs: nonlazybind uwtable
define internal void @"_ZN4core3ptr42drop_in_place$LT$alloc..string..String$GT$17h1dcc338f5a7d9f0aE"(ptr align 8 %_1) unnamed_addr #2 !dbg !1051 {
start:
  %_1.dbg.spill = alloca ptr, align 8
  store ptr %_1, ptr %_1.dbg.spill, align 8
  call void @llvm.dbg.declare(metadata ptr %_1.dbg.spill, metadata !1056, metadata !DIExpression()), !dbg !1059
; call core::ptr::drop_in_place<alloc::vec::Vec<u8>>
  call void @"_ZN4core3ptr46drop_in_place$LT$alloc..vec..Vec$LT$u8$GT$$GT$17h11f6eed1d398feb3E"(ptr align 8 %_1), !dbg !1059
  ret void, !dbg !1059
}

; core::ptr::drop_in_place<alloc::vec::Vec<u8>>
; Function Attrs: nonlazybind uwtable
define internal void @"_ZN4core3ptr46drop_in_place$LT$alloc..vec..Vec$LT$u8$GT$$GT$17h11f6eed1d398feb3E"(ptr align 8 %_1) unnamed_addr #2 personality ptr @rust_eh_personality !dbg !1060 {
start:
  %0 = alloca { ptr, i32, [1 x i32] }, align 8
  %_1.dbg.spill = alloca ptr, align 8
  store ptr %_1, ptr %_1.dbg.spill, align 8
  call void @llvm.dbg.declare(metadata ptr %_1.dbg.spill, metadata !1065, metadata !DIExpression()), !dbg !1066
; invoke <alloc::vec::Vec<T,A> as core::ops::drop::Drop>::drop
  invoke void @"_ZN70_$LT$alloc..vec..Vec$LT$T$C$A$GT$$u20$as$u20$core..ops..drop..Drop$GT$4drop17h426c5bea8ce88e84E"(ptr align 8 %_1)
          to label %bb4 unwind label %cleanup, !dbg !1066

bb3:                                              ; preds = %cleanup
; invoke core::ptr::drop_in_place<alloc::raw_vec::RawVec<u8>>
  invoke void @"_ZN4core3ptr53drop_in_place$LT$alloc..raw_vec..RawVec$LT$u8$GT$$GT$17h3b1a0bbbeb5d41e1E"(ptr align 8 %_1) #16
          to label %bb1 unwind label %terminate, !dbg !1066

cleanup:                                          ; preds = %start
  %1 = landingpad { ptr, i32 }
          cleanup
  %2 = extractvalue { ptr, i32 } %1, 0
  %3 = extractvalue { ptr, i32 } %1, 1
  store ptr %2, ptr %0, align 8
  %4 = getelementptr inbounds i8, ptr %0, i64 8
  store i32 %3, ptr %4, align 8
  br label %bb3

bb4:                                              ; preds = %start
; call core::ptr::drop_in_place<alloc::raw_vec::RawVec<u8>>
  call void @"_ZN4core3ptr53drop_in_place$LT$alloc..raw_vec..RawVec$LT$u8$GT$$GT$17h3b1a0bbbeb5d41e1E"(ptr align 8 %_1), !dbg !1066
  ret void, !dbg !1066

terminate:                                        ; preds = %bb3
  %5 = landingpad { ptr, i32 }
          filter [0 x ptr] zeroinitializer
  %6 = extractvalue { ptr, i32 } %5, 0
  %7 = extractvalue { ptr, i32 } %5, 1
; call core::panicking::panic_in_cleanup
  call void @_ZN4core9panicking16panic_in_cleanup17h803841cec7522372E() #17, !dbg !1066
  unreachable, !dbg !1066

bb1:                                              ; preds = %bb3
  %8 = load ptr, ptr %0, align 8, !dbg !1066, !noundef !23
  %9 = getelementptr inbounds i8, ptr %0, i64 8, !dbg !1066
  %10 = load i32, ptr %9, align 8, !dbg !1066, !noundef !23
  %11 = insertvalue { ptr, i32 } poison, ptr %8, 0, !dbg !1066
  %12 = insertvalue { ptr, i32 } %11, i32 %10, 1, !dbg !1066
  resume { ptr, i32 } %12, !dbg !1066
}

; core::ptr::drop_in_place<alloc::ffi::c_str::CString>
; Function Attrs: nonlazybind uwtable
define internal void @"_ZN4core3ptr47drop_in_place$LT$alloc..ffi..c_str..CString$GT$17hd625d6bcf084a2d2E"(ptr align 8 %_1) unnamed_addr #2 personality ptr @rust_eh_personality !dbg !1067 {
start:
  %0 = alloca { ptr, i32, [1 x i32] }, align 8
  %_1.dbg.spill = alloca ptr, align 8
  store ptr %_1, ptr %_1.dbg.spill, align 8
  call void @llvm.dbg.declare(metadata ptr %_1.dbg.spill, metadata !1079, metadata !DIExpression()), !dbg !1082
; invoke <alloc::ffi::c_str::CString as core::ops::drop::Drop>::drop
  invoke void @"_ZN68_$LT$alloc..ffi..c_str..CString$u20$as$u20$core..ops..drop..Drop$GT$4drop17h8c70eded58cb5a05E"(ptr align 8 %_1)
          to label %bb4 unwind label %cleanup, !dbg !1082

bb3:                                              ; preds = %cleanup
; invoke core::ptr::drop_in_place<alloc::boxed::Box<[u8]>>
  invoke void @"_ZN4core3ptr58drop_in_place$LT$alloc..boxed..Box$LT$$u5b$u8$u5d$$GT$$GT$17h97bd5eccc835b1a7E"(ptr align 8 %_1) #16
          to label %bb1 unwind label %terminate, !dbg !1082

cleanup:                                          ; preds = %start
  %1 = landingpad { ptr, i32 }
          cleanup
  %2 = extractvalue { ptr, i32 } %1, 0
  %3 = extractvalue { ptr, i32 } %1, 1
  store ptr %2, ptr %0, align 8
  %4 = getelementptr inbounds i8, ptr %0, i64 8
  store i32 %3, ptr %4, align 8
  br label %bb3

bb4:                                              ; preds = %start
; call core::ptr::drop_in_place<alloc::boxed::Box<[u8]>>
  call void @"_ZN4core3ptr58drop_in_place$LT$alloc..boxed..Box$LT$$u5b$u8$u5d$$GT$$GT$17h97bd5eccc835b1a7E"(ptr align 8 %_1), !dbg !1082
  ret void, !dbg !1082

terminate:                                        ; preds = %bb3
  %5 = landingpad { ptr, i32 }
          filter [0 x ptr] zeroinitializer
  %6 = extractvalue { ptr, i32 } %5, 0
  %7 = extractvalue { ptr, i32 } %5, 1
; call core::panicking::panic_in_cleanup
  call void @_ZN4core9panicking16panic_in_cleanup17h803841cec7522372E() #17, !dbg !1082
  unreachable, !dbg !1082

bb1:                                              ; preds = %bb3
  %8 = load ptr, ptr %0, align 8, !dbg !1082, !noundef !23
  %9 = getelementptr inbounds i8, ptr %0, i64 8, !dbg !1082
  %10 = load i32, ptr %9, align 8, !dbg !1082, !noundef !23
  %11 = insertvalue { ptr, i32 } poison, ptr %8, 0, !dbg !1082
  %12 = insertvalue { ptr, i32 } %11, i32 %10, 1, !dbg !1082
  resume { ptr, i32 } %12, !dbg !1082
}

; core::ptr::drop_in_place<alloc::ffi::c_str::NulError>
; Function Attrs: nonlazybind uwtable
define internal void @"_ZN4core3ptr48drop_in_place$LT$alloc..ffi..c_str..NulError$GT$17hb5b470d313ae514aE"(ptr align 8 %_1) unnamed_addr #2 !dbg !1083 {
start:
  %_1.dbg.spill = alloca ptr, align 8
  store ptr %_1, ptr %_1.dbg.spill, align 8
  call void @llvm.dbg.declare(metadata ptr %_1.dbg.spill, metadata !1088, metadata !DIExpression()), !dbg !1091
; call core::ptr::drop_in_place<alloc::vec::Vec<u8>>
  call void @"_ZN4core3ptr46drop_in_place$LT$alloc..vec..Vec$LT$u8$GT$$GT$17h11f6eed1d398feb3E"(ptr align 8 %_1), !dbg !1091
  ret void, !dbg !1091
}

; core::ptr::drop_in_place<core::str::error::Utf8Error>
; Function Attrs: inlinehint nonlazybind uwtable
define internal void @"_ZN4core3ptr48drop_in_place$LT$core..str..error..Utf8Error$GT$17h04519965bda8a8ecE"(ptr align 8 %_1) unnamed_addr #0 !dbg !1092 {
start:
  %_1.dbg.spill = alloca ptr, align 8
  store ptr %_1, ptr %_1.dbg.spill, align 8
  call void @llvm.dbg.declare(metadata ptr %_1.dbg.spill, metadata !1097, metadata !DIExpression()), !dbg !1100
  ret void, !dbg !1100
}

; core::ptr::drop_in_place<&alloc::vec::Vec<u8>>
; Function Attrs: inlinehint nonlazybind uwtable
define internal void @"_ZN4core3ptr50drop_in_place$LT$$RF$alloc..vec..Vec$LT$u8$GT$$GT$17h733bf089f6ef19fcE"(ptr align 8 %_1) unnamed_addr #0 !dbg !1101 {
start:
  %_1.dbg.spill = alloca ptr, align 8
  store ptr %_1, ptr %_1.dbg.spill, align 8
  call void @llvm.dbg.declare(metadata ptr %_1.dbg.spill, metadata !1106, metadata !DIExpression()), !dbg !1109
  ret void, !dbg !1109
}

; core::ptr::drop_in_place<alloc::raw_vec::RawVec<u8>>
; Function Attrs: nonlazybind uwtable
define internal void @"_ZN4core3ptr53drop_in_place$LT$alloc..raw_vec..RawVec$LT$u8$GT$$GT$17h3b1a0bbbeb5d41e1E"(ptr align 8 %_1) unnamed_addr #2 !dbg !1110 {
start:
  %_1.dbg.spill = alloca ptr, align 8
  store ptr %_1, ptr %_1.dbg.spill, align 8
  call void @llvm.dbg.declare(metadata ptr %_1.dbg.spill, metadata !1115, metadata !DIExpression()), !dbg !1118
; call <alloc::raw_vec::RawVec<T,A> as core::ops::drop::Drop>::drop
  call void @"_ZN77_$LT$alloc..raw_vec..RawVec$LT$T$C$A$GT$$u20$as$u20$core..ops..drop..Drop$GT$4drop17h46af2febe3c3bdaaE"(ptr align 8 %_1), !dbg !1118
  ret void, !dbg !1118
}

; core::ptr::drop_in_place<&core::option::Option<u8>>
; Function Attrs: inlinehint nonlazybind uwtable
define internal void @"_ZN4core3ptr55drop_in_place$LT$$RF$core..option..Option$LT$u8$GT$$GT$17heceda9e0a3fd6ab5E"(ptr align 8 %_1) unnamed_addr #0 !dbg !1119 {
start:
  %_1.dbg.spill = alloca ptr, align 8
  store ptr %_1, ptr %_1.dbg.spill, align 8
  call void @llvm.dbg.declare(metadata ptr %_1.dbg.spill, metadata !1124, metadata !DIExpression()), !dbg !1127
  ret void, !dbg !1127
}

; core::ptr::drop_in_place<alloc::boxed::Box<[u8]>>
; Function Attrs: nonlazybind uwtable
define internal void @"_ZN4core3ptr58drop_in_place$LT$alloc..boxed..Box$LT$$u5b$u8$u5d$$GT$$GT$17h97bd5eccc835b1a7E"(ptr align 8 %_1) unnamed_addr #2 personality ptr @rust_eh_personality !dbg !1128 {
start:
  %0 = alloca { ptr, i32, [1 x i32] }, align 8
  %_1.dbg.spill = alloca ptr, align 8
  store ptr %_1, ptr %_1.dbg.spill, align 8
  call void @llvm.dbg.declare(metadata ptr %_1.dbg.spill, metadata !1133, metadata !DIExpression()), !dbg !1136
  %_6.0 = load ptr, ptr %_1, align 8, !dbg !1136, !noundef !23
  %1 = getelementptr inbounds i8, ptr %_1, i64 8, !dbg !1136
  %_6.1 = load i64, ptr %1, align 8, !dbg !1136, !noundef !23
  br label %bb3, !dbg !1136

bb3:                                              ; preds = %start
; call <alloc::boxed::Box<T,A> as core::ops::drop::Drop>::drop
  call void @"_ZN72_$LT$alloc..boxed..Box$LT$T$C$A$GT$$u20$as$u20$core..ops..drop..Drop$GT$4drop17h7cc951d2d31e191cE"(ptr align 8 %_1), !dbg !1136
  ret void, !dbg !1136

bb4:                                              ; No predecessors!
; invoke <alloc::boxed::Box<T,A> as core::ops::drop::Drop>::drop
  invoke void @"_ZN72_$LT$alloc..boxed..Box$LT$T$C$A$GT$$u20$as$u20$core..ops..drop..Drop$GT$4drop17h7cc951d2d31e191cE"(ptr align 8 %_1) #16
          to label %bb1 unwind label %terminate, !dbg !1136

terminate:                                        ; preds = %bb4
  %2 = landingpad { ptr, i32 }
          filter [0 x ptr] zeroinitializer
  %3 = extractvalue { ptr, i32 } %2, 0
  %4 = extractvalue { ptr, i32 } %2, 1
; call core::panicking::panic_in_cleanup
  call void @_ZN4core9panicking16panic_in_cleanup17h803841cec7522372E() #17, !dbg !1136
  unreachable, !dbg !1136

bb1:                                              ; preds = %bb4
  %5 = load ptr, ptr %0, align 8, !dbg !1136, !noundef !23
  %6 = getelementptr inbounds i8, ptr %0, i64 8, !dbg !1136
  %7 = load i32, ptr %6, align 8, !dbg !1136, !noundef !23
  %8 = insertvalue { ptr, i32 } poison, ptr %5, 0, !dbg !1136
  %9 = insertvalue { ptr, i32 } %8, i32 %7, 1, !dbg !1136
  resume { ptr, i32 } %9, !dbg !1136
}

; core::ptr::drop_in_place<std::rt::lang_start<()>::{{closure}}>
; Function Attrs: inlinehint nonlazybind uwtable
define internal void @"_ZN4core3ptr85drop_in_place$LT$std..rt..lang_start$LT$$LP$$RP$$GT$..$u7b$$u7b$closure$u7d$$u7d$$GT$17he4764f8f95e9f5d3E"(ptr align 8 %_1) unnamed_addr #0 !dbg !1137 {
start:
  %_1.dbg.spill = alloca ptr, align 8
  store ptr %_1, ptr %_1.dbg.spill, align 8
  call void @llvm.dbg.declare(metadata ptr %_1.dbg.spill, metadata !1141, metadata !DIExpression()), !dbg !1144
  ret void, !dbg !1144
}

; core::alloc::layout::Layout::array::inner
; Function Attrs: inlinehint nonlazybind uwtable
define internal { i64, i64 } @_ZN4core5alloc6layout6Layout5array5inner17h922e55368b47a723E(i64 %element_size, i64 %align, i64 %n) unnamed_addr #0 !dbg !1145 {
start:
  %align.dbg.spill1 = alloca i64, align 8
  %array_size.dbg.spill = alloca i64, align 8
  %n.dbg.spill = alloca i64, align 8
  %align.dbg.spill = alloca i64, align 8
  %element_size.dbg.spill = alloca i64, align 8
  %_18 = alloca i64, align 8
  %_13 = alloca i64, align 8
  %_9 = alloca %"core::alloc::layout::Layout", align 8
  %_0 = alloca %"core::result::Result<core::alloc::layout::Layout, core::alloc::layout::LayoutError>", align 8
  store i64 %element_size, ptr %element_size.dbg.spill, align 8
  call void @llvm.dbg.declare(metadata ptr %element_size.dbg.spill, metadata !1178, metadata !DIExpression()), !dbg !1183
  call void @llvm.dbg.declare(metadata ptr %element_size.dbg.spill, metadata !1184, metadata !DIExpression()), !dbg !1196
  store i64 %align, ptr %align.dbg.spill, align 8
  call void @llvm.dbg.declare(metadata ptr %align.dbg.spill, metadata !1179, metadata !DIExpression()), !dbg !1198
  call void @llvm.dbg.declare(metadata ptr %align.dbg.spill, metadata !1199, metadata !DIExpression()), !dbg !1206
  call void @llvm.dbg.declare(metadata ptr %align.dbg.spill, metadata !1208, metadata !DIExpression()), !dbg !1216
  call void @llvm.dbg.declare(metadata ptr %align.dbg.spill, metadata !1214, metadata !DIExpression()), !dbg !1218
  store i64 %n, ptr %n.dbg.spill, align 8
  call void @llvm.dbg.declare(metadata ptr %n.dbg.spill, metadata !1180, metadata !DIExpression()), !dbg !1220
  call void @llvm.dbg.declare(metadata ptr %n.dbg.spill, metadata !1195, metadata !DIExpression()), !dbg !1196
  %0 = icmp eq i64 %element_size, 0, !dbg !1221
  br i1 %0, label %bb5, label %bb1, !dbg !1221

bb5:                                              ; preds = %bb4, %start
  %array_size = mul nuw i64 %element_size, %n, !dbg !1196
  store i64 %array_size, ptr %array_size.dbg.spill, align 8, !dbg !1196
  call void @llvm.dbg.declare(metadata ptr %array_size.dbg.spill, metadata !1181, metadata !DIExpression()), !dbg !1222
  call void @llvm.dbg.declare(metadata ptr %array_size.dbg.spill, metadata !1223, metadata !DIExpression()), !dbg !1231
  store i64 %align, ptr %_18, align 8, !dbg !1233
  %_19 = load i64, ptr %_18, align 8, !dbg !1233, !range !1234, !noundef !23
  %_20 = icmp uge i64 %_19, 1, !dbg !1233
  %_21 = icmp ule i64 %_19, -9223372036854775808, !dbg !1233
  %_22 = and i1 %_20, %_21, !dbg !1233
  call void @llvm.assume(i1 %_22), !dbg !1233
  store i64 %_19, ptr %align.dbg.spill1, align 8, !dbg !1233
  call void @llvm.dbg.declare(metadata ptr %align.dbg.spill1, metadata !1230, metadata !DIExpression()), !dbg !1235
  call void @llvm.dbg.declare(metadata ptr %align.dbg.spill1, metadata !1236, metadata !DIExpression()), !dbg !1243
  %1 = getelementptr inbounds i8, ptr %_9, i64 8, !dbg !1245
  store i64 %array_size, ptr %1, align 8, !dbg !1245
  store i64 %_19, ptr %_9, align 8, !dbg !1245
  %2 = load i64, ptr %_9, align 8, !dbg !1246, !range !1234, !noundef !23
  %3 = getelementptr inbounds i8, ptr %_9, i64 8, !dbg !1246
  %4 = load i64, ptr %3, align 8, !dbg !1246, !noundef !23
  store i64 %2, ptr %_0, align 8, !dbg !1246
  %5 = getelementptr inbounds i8, ptr %_0, i64 8, !dbg !1246
  store i64 %4, ptr %5, align 8, !dbg !1246
  br label %bb6, !dbg !1247

bb1:                                              ; preds = %start
  store i64 %align, ptr %_13, align 8, !dbg !1248
  %_14 = load i64, ptr %_13, align 8, !dbg !1248, !range !1234, !noundef !23
  %_15 = icmp uge i64 %_14, 1, !dbg !1248
  %_16 = icmp ule i64 %_14, -9223372036854775808, !dbg !1248
  %_17 = and i1 %_15, %_16, !dbg !1248
  call void @llvm.assume(i1 %_17), !dbg !1248
  %_11 = sub i64 %_14, 1, !dbg !1249
  %_6 = sub i64 9223372036854775807, %_11, !dbg !1250
  %_7 = icmp eq i64 %element_size, 0, !dbg !1207
  %6 = call i1 @llvm.expect.i1(i1 %_7, i1 false), !dbg !1207
  br i1 %6, label %panic, label %bb2, !dbg !1207

bb2:                                              ; preds = %bb1
  %_5 = udiv i64 %_6, %element_size, !dbg !1207
  %_4 = icmp ugt i64 %n, %_5, !dbg !1251
  br i1 %_4, label %bb3, label %bb4, !dbg !1251

panic:                                            ; preds = %bb1
; call core::panicking::panic
  call void @_ZN4core9panicking5panic17h59297120e85ea178E(ptr align 1 @str.2, i64 25, ptr align 8 @alloc_37f08cc86d215bcabda8bef18acdfc7b) #15, !dbg !1207
  unreachable, !dbg !1207

bb4:                                              ; preds = %bb2
  br label %bb5, !dbg !1252

bb3:                                              ; preds = %bb2
  %7 = load i64, ptr @0, align 8, !dbg !1255, !range !1256, !noundef !23
  %8 = load i64, ptr getelementptr inbounds (i8, ptr @0, i64 8), align 8, !dbg !1255
  store i64 %7, ptr %_0, align 8, !dbg !1255
  %9 = getelementptr inbounds i8, ptr %_0, i64 8, !dbg !1255
  store i64 %8, ptr %9, align 8, !dbg !1255
  br label %bb6, !dbg !1247

bb6:                                              ; preds = %bb3, %bb5
  %10 = load i64, ptr %_0, align 8, !dbg !1247, !range !1256, !noundef !23
  %11 = getelementptr inbounds i8, ptr %_0, i64 8, !dbg !1247
  %12 = load i64, ptr %11, align 8, !dbg !1247
  %13 = insertvalue { i64, i64 } poison, i64 %10, 0, !dbg !1247
  %14 = insertvalue { i64, i64 } %13, i64 %12, 1, !dbg !1247
  ret { i64, i64 } %14, !dbg !1247
}

; <() as std::process::Termination>::report
; Function Attrs: inlinehint nonlazybind uwtable
define internal i8 @"_ZN54_$LT$$LP$$RP$$u20$as$u20$std..process..Termination$GT$6report17h7f042b8f424e41a1E"() unnamed_addr #0 !dbg !1257 {
start:
  %_1.dbg.spill = alloca {}, align 1
  %self.dbg.spill = alloca {}, align 1
  call void @llvm.dbg.declare(metadata ptr %self.dbg.spill, metadata !1262, metadata !DIExpression()), !dbg !1264
  call void @llvm.dbg.declare(metadata ptr %_1.dbg.spill, metadata !1263, metadata !DIExpression()), !dbg !1264
  ret i8 0, !dbg !1265
}

; alloc::ffi::c_str::CString::new
; Function Attrs: nonlazybind uwtable
define internal void @_ZN5alloc3ffi5c_str7CString3new17h7d70b38368fb5b35E(ptr sret(%"core::result::Result<alloc::ffi::c_str::CString, alloc::ffi::c_str::NulError>") align 8 %_0, ptr align 1 %t.0, i64 %t.1) unnamed_addr #2 !dbg !1266 {
start:
  %t.dbg.spill = alloca { ptr, i64 }, align 8
  store ptr %t.0, ptr %t.dbg.spill, align 8
  %0 = getelementptr inbounds i8, ptr %t.dbg.spill, i64 8
  store i64 %t.1, ptr %0, align 8
  call void @llvm.dbg.declare(metadata ptr %t.dbg.spill, metadata !1289, metadata !DIExpression()), !dbg !1290
; call <&str as alloc::ffi::c_str::CString::new::SpecNewImpl>::spec_new_impl
  call void @"_ZN72_$LT$$RF$str$u20$as$u20$alloc..ffi..c_str..CString..new..SpecNewImpl$GT$13spec_new_impl17h247f5b38ef97cfa6E"(ptr sret(%"core::result::Result<alloc::ffi::c_str::CString, alloc::ffi::c_str::NulError>") align 8 %_0, ptr align 1 %t.0, i64 %t.1), !dbg !1291
  ret void, !dbg !1292
}

; alloc::str::<impl alloc::borrow::ToOwned for str>::to_owned
; Function Attrs: inlinehint nonlazybind uwtable
define internal void @"_ZN5alloc3str56_$LT$impl$u20$alloc..borrow..ToOwned$u20$for$u20$str$GT$8to_owned17h660252a3c7d83138E"(ptr sret(%"alloc::string::String") align 8 %_0, ptr align 1 %self.0, i64 %self.1) unnamed_addr #0 !dbg !1293 {
start:
  %self.dbg.spill10 = alloca ptr, align 8
  %dest.dbg.spill = alloca ptr, align 8
  %self.dbg.spill9 = alloca ptr, align 8
  %self.dbg.spill8 = alloca ptr, align 8
  %self.dbg.spill7 = alloca ptr, align 8
  %self.dbg.spill6 = alloca ptr, align 8
  %capacity.dbg.spill = alloca i64, align 8
  %self.dbg.spill5 = alloca { ptr, i64 }, align 8
  %self.dbg.spill = alloca { ptr, i64 }, align 8
  %v = alloca %"alloc::vec::Vec<u8>", align 8
  %bytes = alloca %"alloc::vec::Vec<u8>", align 8
  %alloc.dbg.spill4 = alloca %"alloc::alloc::Global", align 1
  %alloc.dbg.spill3 = alloca %"alloc::alloc::Global", align 1
  %alloc.dbg.spill2 = alloca %"alloc::alloc::Global", align 1
  %alloc.dbg.spill1 = alloca %"alloc::alloc::Global", align 1
  %alloc.dbg.spill = alloca %"alloc::alloc::Global", align 1
  call void @llvm.dbg.declare(metadata ptr %alloc.dbg.spill, metadata !1301, metadata !DIExpression()), !dbg !1311
  call void @llvm.dbg.declare(metadata ptr %alloc.dbg.spill1, metadata !1326, metadata !DIExpression()), !dbg !1332
  call void @llvm.dbg.declare(metadata ptr %alloc.dbg.spill2, metadata !1334, metadata !DIExpression()), !dbg !1342
  call void @llvm.dbg.declare(metadata ptr %alloc.dbg.spill3, metadata !1344, metadata !DIExpression()), !dbg !1352
  call void @llvm.dbg.declare(metadata ptr %alloc.dbg.spill4, metadata !1354, metadata !DIExpression()), !dbg !1362
  store ptr %self.0, ptr %self.dbg.spill, align 8, !dbg !1362
  %0 = getelementptr inbounds i8, ptr %self.dbg.spill, i64 8, !dbg !1362
  store i64 %self.1, ptr %0, align 8, !dbg !1362
  call void @llvm.dbg.declare(metadata ptr %self.dbg.spill, metadata !1300, metadata !DIExpression()), !dbg !1364
  call void @llvm.dbg.declare(metadata ptr %self.dbg.spill, metadata !1365, metadata !DIExpression()), !dbg !1373
  call void @llvm.dbg.declare(metadata ptr %bytes, metadata !1375, metadata !DIExpression()), !dbg !1382
  call void @llvm.dbg.declare(metadata ptr %v, metadata !1340, metadata !DIExpression()), !dbg !1384
  store ptr %self.0, ptr %self.dbg.spill5, align 8, !dbg !1385
  %1 = getelementptr inbounds i8, ptr %self.dbg.spill5, i64 8, !dbg !1385
  store i64 %self.1, ptr %1, align 8, !dbg !1385
  call void @llvm.dbg.declare(metadata ptr %self.dbg.spill5, metadata !1324, metadata !DIExpression()), !dbg !1386
  call void @llvm.dbg.declare(metadata ptr %self.dbg.spill5, metadata !1318, metadata !DIExpression()), !dbg !1387
  call void @llvm.dbg.declare(metadata ptr %self.dbg.spill5, metadata !1310, metadata !DIExpression()), !dbg !1388
  call void @llvm.dbg.declare(metadata ptr %self.dbg.spill5, metadata !1331, metadata !DIExpression()), !dbg !1389
  call void @llvm.dbg.declare(metadata ptr %self.dbg.spill5, metadata !1339, metadata !DIExpression()), !dbg !1390
  call void @llvm.dbg.declare(metadata ptr %self.dbg.spill5, metadata !1391, metadata !DIExpression()), !dbg !1395
  store i64 %self.1, ptr %capacity.dbg.spill, align 8, !dbg !1397
  call void @llvm.dbg.declare(metadata ptr %capacity.dbg.spill, metadata !1351, metadata !DIExpression()), !dbg !1398
  call void @llvm.dbg.declare(metadata ptr %capacity.dbg.spill, metadata !1361, metadata !DIExpression()), !dbg !1399
  call void @llvm.dbg.declare(metadata ptr %capacity.dbg.spill, metadata !1400, metadata !DIExpression()), !dbg !1408
  call void @llvm.dbg.declare(metadata ptr %capacity.dbg.spill, metadata !1410, metadata !DIExpression()), !dbg !1418
  call void @llvm.dbg.declare(metadata ptr %capacity.dbg.spill, metadata !1420, metadata !DIExpression()), !dbg !1429
; call alloc::raw_vec::RawVec<T,A>::allocate_in
  %2 = call { i64, ptr } @"_ZN5alloc7raw_vec19RawVec$LT$T$C$A$GT$11allocate_in17h007e8709959f68fdE"(i64 %self.1, i1 zeroext false), !dbg !1431
  %_10.0 = extractvalue { i64, ptr } %2, 0, !dbg !1431
  %_10.1 = extractvalue { i64, ptr } %2, 1, !dbg !1431
  store i64 %_10.0, ptr %v, align 8, !dbg !1432
  %3 = getelementptr inbounds i8, ptr %v, i64 8, !dbg !1432
  store ptr %_10.1, ptr %3, align 8, !dbg !1432
  %4 = getelementptr inbounds %"alloc::vec::Vec<u8>", ptr %v, i32 0, i32 1, !dbg !1432
  store i64 0, ptr %4, align 8, !dbg !1432
  store ptr %self.0, ptr %self.dbg.spill6, align 8, !dbg !1433
  call void @llvm.dbg.declare(metadata ptr %self.dbg.spill6, metadata !1406, metadata !DIExpression()), !dbg !1434
  call void @llvm.dbg.declare(metadata ptr %self.dbg.spill6, metadata !1416, metadata !DIExpression()), !dbg !1435
  store ptr %v, ptr %self.dbg.spill7, align 8, !dbg !1436
  call void @llvm.dbg.declare(metadata ptr %self.dbg.spill7, metadata !1437, metadata !DIExpression()), !dbg !1444
  store ptr %v, ptr %self.dbg.spill8, align 8, !dbg !1446
  call void @llvm.dbg.declare(metadata ptr %self.dbg.spill8, metadata !1447, metadata !DIExpression()), !dbg !1451
  %5 = getelementptr inbounds i8, ptr %v, i64 8, !dbg !1453
  %self = load ptr, ptr %5, align 8, !dbg !1453, !nonnull !23, !noundef !23
  store ptr %self, ptr %self.dbg.spill9, align 8, !dbg !1453
  call void @llvm.dbg.declare(metadata ptr %self.dbg.spill9, metadata !1454, metadata !DIExpression()), !dbg !1458
  call void @llvm.dbg.declare(metadata ptr %self.dbg.spill9, metadata !1460, metadata !DIExpression()), !dbg !1464
  store ptr %self, ptr %dest.dbg.spill, align 8, !dbg !1466
  call void @llvm.dbg.declare(metadata ptr %dest.dbg.spill, metadata !1407, metadata !DIExpression()), !dbg !1467
  call void @llvm.dbg.declare(metadata ptr %dest.dbg.spill, metadata !1417, metadata !DIExpression()), !dbg !1468
  %6 = mul i64 %self.1, 1, !dbg !1469
  call void @llvm.memcpy.p0.p0.i64(ptr align 1 %self, ptr align 1 %self.0, i64 %6, i1 false), !dbg !1469
  store ptr %v, ptr %self.dbg.spill10, align 8, !dbg !1470
  call void @llvm.dbg.declare(metadata ptr %self.dbg.spill10, metadata !1428, metadata !DIExpression()), !dbg !1471
  call void @llvm.dbg.declare(metadata ptr %self.dbg.spill10, metadata !1472, metadata !DIExpression()), !dbg !1479
  %7 = getelementptr inbounds %"alloc::vec::Vec<u8>", ptr %v, i32 0, i32 1, !dbg !1481
  store i64 %self.1, ptr %7, align 8, !dbg !1481
  call void @llvm.memcpy.p0.p0.i64(ptr align 8 %bytes, ptr align 8 %v, i64 24, i1 false), !dbg !1482
  call void @llvm.memcpy.p0.p0.i64(ptr align 8 %_0, ptr align 8 %bytes, i64 24, i1 false), !dbg !1483
  ret void, !dbg !1484
}

; alloc::alloc::Global::alloc_impl
; Function Attrs: inlinehint nonlazybind uwtable
define internal { ptr, i64 } @_ZN5alloc5alloc6Global10alloc_impl17h1bd5524888bd04a2E(ptr align 1 %self, i64 %0, i64 %1, i1 zeroext %zeroed) unnamed_addr #0 !dbg !1485 {
start:
  %ptr.dbg.spill31 = alloca { ptr, i64 }, align 8
  %data_pointer.dbg.spill28 = alloca ptr, align 8
  %data.dbg.spill27 = alloca ptr, align 8
  %ptr.dbg.spill26 = alloca ptr, align 8
  %v.dbg.spill24 = alloca ptr, align 8
  %v.dbg.spill = alloca ptr, align 8
  %ptr.dbg.spill22 = alloca ptr, align 8
  %self.dbg.spill20 = alloca i64, align 8
  %self.dbg.spill18 = alloca ptr, align 8
  %self.dbg.spill17 = alloca ptr, align 8
  %self.dbg.spill16 = alloca i64, align 8
  %self.dbg.spill14 = alloca ptr, align 8
  %self.dbg.spill13 = alloca ptr, align 8
  %2 = alloca i8, align 1
  %ptr.dbg.spill12 = alloca { ptr, i64 }, align 8
  %data_pointer.dbg.spill = alloca ptr, align 8
  %data.dbg.spill = alloca ptr, align 8
  %ptr.dbg.spill = alloca ptr, align 8
  %addr.dbg.spill = alloca i64, align 8
  %self.dbg.spill11 = alloca i64, align 8
  %self.dbg.spill9 = alloca ptr, align 8
  %size.dbg.spill = alloca i64, align 8
  %self.dbg.spill8 = alloca ptr, align 8
  %zeroed.dbg.spill = alloca i8, align 1
  %self.dbg.spill = alloca ptr, align 8
  %_79 = alloca %"core::ptr::metadata::PtrComponents<[u8]>", align 8
  %_78 = alloca %"core::ptr::metadata::PtrRepr<[u8]>", align 8
  %_64 = alloca ptr, align 8
  %_59 = alloca i64, align 8
  %_44 = alloca i64, align 8
  %_34 = alloca %"core::ptr::metadata::PtrComponents<[u8]>", align 8
  %_33 = alloca %"core::ptr::metadata::PtrRepr<[u8]>", align 8
  %_22 = alloca i64, align 8
  %_18 = alloca %"core::ptr::non_null::NonNull<[u8]>", align 8
  %self7 = alloca ptr, align 8
  %self6 = alloca ptr, align 8
  %_12 = alloca ptr, align 8
  %layout5 = alloca %"core::alloc::layout::Layout", align 8
  %layout4 = alloca %"core::alloc::layout::Layout", align 8
  %raw_ptr = alloca ptr, align 8
  %data = alloca ptr, align 8
  %_6 = alloca %"core::ptr::non_null::NonNull<[u8]>", align 8
  %_0 = alloca %"core::result::Result<core::ptr::non_null::NonNull<[u8]>, core::alloc::AllocError>", align 8
  %layout = alloca %"core::alloc::layout::Layout", align 8
  %t.dbg.spill = alloca %"core::alloc::AllocError", align 1
  %e.dbg.spill3 = alloca %"core::alloc::AllocError", align 1
  %residual.dbg.spill2 = alloca %"core::result::Result<core::convert::Infallible, core::alloc::AllocError>::Err", align 1
  %e.dbg.spill = alloca %"core::alloc::AllocError", align 1
  %err.dbg.spill = alloca %"core::alloc::AllocError", align 1
  %src.dbg.spill = alloca ptr, align 8
  %metadata.dbg.spill = alloca i64, align 8
  %len.dbg.spill1 = alloca i64, align 8
  %len.dbg.spill = alloca i64, align 8
  %residual.dbg.spill = alloca %"core::result::Result<core::convert::Infallible, core::alloc::AllocError>::Err", align 1
  call void @llvm.dbg.declare(metadata ptr %residual.dbg.spill, metadata !1521, metadata !DIExpression()), !dbg !1543
  store i64 0, ptr %len.dbg.spill, align 8, !dbg !1544
  call void @llvm.dbg.declare(metadata ptr %len.dbg.spill, metadata !1552, metadata !DIExpression()), !dbg !1544
  store i64 0, ptr %len.dbg.spill1, align 8, !dbg !1557
  call void @llvm.dbg.declare(metadata ptr %len.dbg.spill1, metadata !1568, metadata !DIExpression()), !dbg !1557
  store i64 0, ptr %metadata.dbg.spill, align 8, !dbg !1573
  call void @llvm.dbg.declare(metadata ptr %metadata.dbg.spill, metadata !1581, metadata !DIExpression()), !dbg !1573
  store ptr @__rust_no_alloc_shim_is_unstable, ptr %src.dbg.spill, align 8, !dbg !1586
  call void @llvm.dbg.declare(metadata ptr %src.dbg.spill, metadata !1592, metadata !DIExpression()), !dbg !1586
  call void @llvm.dbg.declare(metadata ptr %err.dbg.spill, metadata !1601, metadata !DIExpression()), !dbg !1639
  call void @llvm.dbg.declare(metadata ptr %e.dbg.spill, metadata !1641, metadata !DIExpression()), !dbg !1670
  call void @llvm.dbg.declare(metadata ptr %residual.dbg.spill2, metadata !1672, metadata !DIExpression()), !dbg !1683
  call void @llvm.dbg.declare(metadata ptr %e.dbg.spill3, metadata !1679, metadata !DIExpression()), !dbg !1685
  call void @llvm.dbg.declare(metadata ptr %t.dbg.spill, metadata !1686, metadata !DIExpression()), !dbg !1696
  store i64 %0, ptr %layout, align 8, !dbg !1696
  %3 = getelementptr inbounds i8, ptr %layout, i64 8, !dbg !1696
  store i64 %1, ptr %3, align 8, !dbg !1696
  store ptr %self, ptr %self.dbg.spill, align 8, !dbg !1696
  call void @llvm.dbg.declare(metadata ptr %self.dbg.spill, metadata !1512, metadata !DIExpression()), !dbg !1698
  call void @llvm.dbg.declare(metadata ptr %layout, metadata !1513, metadata !DIExpression()), !dbg !1699
  %4 = zext i1 %zeroed to i8, !dbg !1696
  store i8 %4, ptr %zeroed.dbg.spill, align 1, !dbg !1696
  call void @llvm.dbg.declare(metadata ptr %zeroed.dbg.spill, metadata !1514, metadata !DIExpression()), !dbg !1700
  call void @llvm.dbg.declare(metadata ptr %data, metadata !1551, metadata !DIExpression()), !dbg !1701
  call void @llvm.dbg.declare(metadata ptr %data, metadata !1702, metadata !DIExpression()), !dbg !1708
  call void @llvm.dbg.declare(metadata ptr %raw_ptr, metadata !1517, metadata !DIExpression()), !dbg !1710
  call void @llvm.dbg.declare(metadata ptr %layout4, metadata !1711, metadata !DIExpression()), !dbg !1715
  call void @llvm.dbg.declare(metadata ptr %layout5, metadata !1599, metadata !DIExpression()), !dbg !1717
  call void @llvm.dbg.declare(metadata ptr %self6, metadata !1667, metadata !DIExpression()), !dbg !1718
  call void @llvm.dbg.declare(metadata ptr %self7, metadata !1636, metadata !DIExpression()), !dbg !1719
  store ptr %layout, ptr %self.dbg.spill8, align 8, !dbg !1720
  call void @llvm.dbg.declare(metadata ptr %self.dbg.spill8, metadata !1721, metadata !DIExpression()), !dbg !1733
  %5 = getelementptr inbounds i8, ptr %layout, i64 8, !dbg !1735
  %size = load i64, ptr %5, align 8, !dbg !1735, !noundef !23
  store i64 %size, ptr %size.dbg.spill, align 8, !dbg !1735
  call void @llvm.dbg.declare(metadata ptr %size.dbg.spill, metadata !1515, metadata !DIExpression()), !dbg !1736
  call void @llvm.dbg.declare(metadata ptr %size.dbg.spill, metadata !1555, metadata !DIExpression()), !dbg !1737
  call void @llvm.dbg.declare(metadata ptr %size.dbg.spill, metadata !1571, metadata !DIExpression()), !dbg !1739
  call void @llvm.dbg.declare(metadata ptr %size.dbg.spill, metadata !1584, metadata !DIExpression()), !dbg !1741
  %6 = icmp eq i64 %size, 0, !dbg !1743
  br i1 %6, label %bb2, label %bb1, !dbg !1743

bb2:                                              ; preds = %start
  store ptr %layout, ptr %self.dbg.spill9, align 8, !dbg !1744
  call void @llvm.dbg.declare(metadata ptr %self.dbg.spill9, metadata !1745, metadata !DIExpression()), !dbg !1752
  call void @llvm.dbg.declare(metadata ptr %self.dbg.spill9, metadata !1754, metadata !DIExpression()), !dbg !1763
  %self10 = load i64, ptr %layout, align 8, !dbg !1765, !range !1234, !noundef !23
  store i64 %self10, ptr %self.dbg.spill11, align 8, !dbg !1765
  call void @llvm.dbg.declare(metadata ptr %self.dbg.spill11, metadata !1766, metadata !DIExpression()), !dbg !1774
  store i64 %self10, ptr %_22, align 8, !dbg !1776
  %_23 = load i64, ptr %_22, align 8, !dbg !1776, !range !1234, !noundef !23
  %_24 = icmp uge i64 %_23, 1, !dbg !1776
  %_25 = icmp ule i64 %_23, -9223372036854775808, !dbg !1776
  %_26 = and i1 %_24, %_25, !dbg !1776
  call void @llvm.assume(i1 %_26), !dbg !1776
  store i64 %_23, ptr %addr.dbg.spill, align 8, !dbg !1776
  call void @llvm.dbg.declare(metadata ptr %addr.dbg.spill, metadata !1777, metadata !DIExpression()), !dbg !1783
  %ptr = inttoptr i64 %_23 to ptr, !dbg !1785
  store ptr %ptr, ptr %ptr.dbg.spill, align 8, !dbg !1785
  call void @llvm.dbg.declare(metadata ptr %ptr.dbg.spill, metadata !1786, metadata !DIExpression()), !dbg !1792
  store ptr %ptr, ptr %data, align 8, !dbg !1794
  store ptr %ptr, ptr %data.dbg.spill, align 8, !dbg !1795
  call void @llvm.dbg.declare(metadata ptr %data.dbg.spill, metadata !1567, metadata !DIExpression()), !dbg !1796
  call void @llvm.dbg.declare(metadata ptr %data.dbg.spill, metadata !1797, metadata !DIExpression()), !dbg !1818
  store ptr %ptr, ptr %data_pointer.dbg.spill, align 8, !dbg !1820
  call void @llvm.dbg.declare(metadata ptr %data_pointer.dbg.spill, metadata !1580, metadata !DIExpression()), !dbg !1821
  store ptr %ptr, ptr %_34, align 8, !dbg !1822
  %7 = getelementptr inbounds i8, ptr %_34, i64 8, !dbg !1822
  store i64 0, ptr %7, align 8, !dbg !1822
  %8 = load ptr, ptr %_34, align 8, !dbg !1823, !noundef !23
  %9 = getelementptr inbounds i8, ptr %_34, i64 8, !dbg !1823
  %10 = load i64, ptr %9, align 8, !dbg !1823, !noundef !23
  store ptr %8, ptr %_33, align 8, !dbg !1823
  %11 = getelementptr inbounds i8, ptr %_33, i64 8, !dbg !1823
  store i64 %10, ptr %11, align 8, !dbg !1823
  %ptr.0 = load ptr, ptr %_33, align 8, !dbg !1823, !noundef !23
  %12 = getelementptr inbounds i8, ptr %_33, i64 8, !dbg !1823
  %ptr.1 = load i64, ptr %12, align 8, !dbg !1823, !noundef !23
  store ptr %ptr.0, ptr %ptr.dbg.spill12, align 8, !dbg !1823
  %13 = getelementptr inbounds i8, ptr %ptr.dbg.spill12, i64 8, !dbg !1823
  store i64 %ptr.1, ptr %13, align 8, !dbg !1823
  call void @llvm.dbg.declare(metadata ptr %ptr.dbg.spill12, metadata !1824, metadata !DIExpression()), !dbg !1833
  store ptr %ptr.0, ptr %_6, align 8, !dbg !1835
  %14 = getelementptr inbounds i8, ptr %_6, i64 8, !dbg !1835
  store i64 %ptr.1, ptr %14, align 8, !dbg !1835
  %15 = load ptr, ptr %_6, align 8, !dbg !1836, !nonnull !23, !noundef !23
  %16 = getelementptr inbounds i8, ptr %_6, i64 8, !dbg !1836
  %17 = load i64, ptr %16, align 8, !dbg !1836, !noundef !23
  store ptr %15, ptr %_0, align 8, !dbg !1836
  %18 = getelementptr inbounds i8, ptr %_0, i64 8, !dbg !1836
  store i64 %17, ptr %18, align 8, !dbg !1836
  br label %bb8, !dbg !1837

bb1:                                              ; preds = %start
  br i1 %zeroed, label %bb3, label %bb4, !dbg !1838

bb8:                                              ; preds = %bb7, %bb6, %bb2
  %19 = load ptr, ptr %_0, align 8, !dbg !1839, !noundef !23
  %20 = getelementptr inbounds i8, ptr %_0, i64 8, !dbg !1839
  %21 = load i64, ptr %20, align 8, !dbg !1839
  %22 = insertvalue { ptr, i64 } poison, ptr %19, 0, !dbg !1839
  %23 = insertvalue { ptr, i64 } %22, i64 %21, 1, !dbg !1839
  ret { ptr, i64 } %23, !dbg !1839

bb4:                                              ; preds = %bb1
  %24 = load i64, ptr %layout, align 8, !dbg !1840, !range !1234, !noundef !23
  %25 = getelementptr inbounds i8, ptr %layout, i64 8, !dbg !1840
  %26 = load i64, ptr %25, align 8, !dbg !1840, !noundef !23
  store i64 %24, ptr %layout5, align 8, !dbg !1840
  %27 = getelementptr inbounds i8, ptr %layout5, i64 8, !dbg !1840
  store i64 %26, ptr %27, align 8, !dbg !1840
  %28 = load volatile i8, ptr @__rust_no_alloc_shim_is_unstable, align 1, !dbg !1841
  store i8 %28, ptr %2, align 1, !dbg !1841
  %_49 = load i8, ptr %2, align 1, !dbg !1841, !noundef !23
  store ptr %layout5, ptr %self.dbg.spill13, align 8, !dbg !1842
  call void @llvm.dbg.declare(metadata ptr %self.dbg.spill13, metadata !1731, metadata !DIExpression()), !dbg !1843
  %29 = getelementptr inbounds i8, ptr %layout5, i64 8, !dbg !1845
  %_52 = load i64, ptr %29, align 8, !dbg !1845, !noundef !23
  store ptr %layout5, ptr %self.dbg.spill14, align 8, !dbg !1846
  call void @llvm.dbg.declare(metadata ptr %self.dbg.spill14, metadata !1761, metadata !DIExpression()), !dbg !1847
  %self15 = load i64, ptr %layout5, align 8, !dbg !1849, !range !1234, !noundef !23
  store i64 %self15, ptr %self.dbg.spill16, align 8, !dbg !1849
  call void @llvm.dbg.declare(metadata ptr %self.dbg.spill16, metadata !1772, metadata !DIExpression()), !dbg !1850
  store i64 %self15, ptr %_59, align 8, !dbg !1852
  %_60 = load i64, ptr %_59, align 8, !dbg !1852, !range !1234, !noundef !23
  %_61 = icmp uge i64 %_60, 1, !dbg !1852
  %_62 = icmp ule i64 %_60, -9223372036854775808, !dbg !1852
  %_63 = and i1 %_61, %_62, !dbg !1852
  call void @llvm.assume(i1 %_63), !dbg !1852
  %30 = call ptr @__rust_alloc(i64 %_52, i64 %_60) #18, !dbg !1853
  store ptr %30, ptr %raw_ptr, align 8, !dbg !1853
  br label %bb5, !dbg !1854

bb3:                                              ; preds = %bb1
  %31 = load i64, ptr %layout, align 8, !dbg !1855, !range !1234, !noundef !23
  %32 = getelementptr inbounds i8, ptr %layout, i64 8, !dbg !1855
  %33 = load i64, ptr %32, align 8, !dbg !1855, !noundef !23
  store i64 %31, ptr %layout4, align 8, !dbg !1855
  %34 = getelementptr inbounds i8, ptr %layout4, i64 8, !dbg !1855
  store i64 %33, ptr %34, align 8, !dbg !1855
  store ptr %layout4, ptr %self.dbg.spill17, align 8, !dbg !1856
  call void @llvm.dbg.declare(metadata ptr %self.dbg.spill17, metadata !1729, metadata !DIExpression()), !dbg !1857
  %35 = getelementptr inbounds i8, ptr %layout4, i64 8, !dbg !1859
  %_39 = load i64, ptr %35, align 8, !dbg !1859, !noundef !23
  store ptr %layout4, ptr %self.dbg.spill18, align 8, !dbg !1860
  call void @llvm.dbg.declare(metadata ptr %self.dbg.spill18, metadata !1759, metadata !DIExpression()), !dbg !1861
  %self19 = load i64, ptr %layout4, align 8, !dbg !1863, !range !1234, !noundef !23
  store i64 %self19, ptr %self.dbg.spill20, align 8, !dbg !1863
  call void @llvm.dbg.declare(metadata ptr %self.dbg.spill20, metadata !1770, metadata !DIExpression()), !dbg !1864
  store i64 %self19, ptr %_44, align 8, !dbg !1866
  %_45 = load i64, ptr %_44, align 8, !dbg !1866, !range !1234, !noundef !23
  %_46 = icmp uge i64 %_45, 1, !dbg !1866
  %_47 = icmp ule i64 %_45, -9223372036854775808, !dbg !1866
  %_48 = and i1 %_46, %_47, !dbg !1866
  call void @llvm.assume(i1 %_48), !dbg !1866
  %36 = call ptr @__rust_alloc_zeroed(i64 %_39, i64 %_45) #18, !dbg !1867
  store ptr %36, ptr %raw_ptr, align 8, !dbg !1867
  br label %bb5, !dbg !1854

bb5:                                              ; preds = %bb3, %bb4
  %ptr21 = load ptr, ptr %raw_ptr, align 8, !dbg !1868, !noundef !23
  store ptr %ptr21, ptr %ptr.dbg.spill22, align 8, !dbg !1868
  call void @llvm.dbg.declare(metadata ptr %ptr.dbg.spill22, metadata !1869, metadata !DIExpression()), !dbg !1876
  call void @llvm.dbg.declare(metadata ptr %ptr.dbg.spill22, metadata !1877, metadata !DIExpression()), !dbg !1887
  call void @llvm.dbg.declare(metadata ptr %ptr.dbg.spill22, metadata !1889, metadata !DIExpression()), !dbg !1902
  call void @llvm.dbg.declare(metadata ptr %ptr.dbg.spill22, metadata !1904, metadata !DIExpression()), !dbg !1918
  call void @llvm.dbg.declare(metadata ptr %ptr.dbg.spill22, metadata !1810, metadata !DIExpression()), !dbg !1920
  call void @llvm.dbg.declare(metadata ptr %ptr.dbg.spill22, metadata !1790, metadata !DIExpression()), !dbg !1922
  %_65 = ptrtoint ptr %ptr21 to i64, !dbg !1924
  %37 = icmp eq i64 %_65, 0, !dbg !1925
  br i1 %37, label %bb13, label %bb14, !dbg !1925

bb13:                                             ; preds = %bb5
  store ptr null, ptr %self7, align 8, !dbg !1926
  br label %bb12, !dbg !1927

bb14:                                             ; preds = %bb5
  store ptr %ptr21, ptr %_64, align 8, !dbg !1928
  %38 = load ptr, ptr %_64, align 8, !dbg !1929, !nonnull !23, !noundef !23
  store ptr %38, ptr %self7, align 8, !dbg !1929
  br label %bb12, !dbg !1927

bb12:                                             ; preds = %bb14, %bb13
  %39 = load ptr, ptr %self7, align 8, !dbg !1930, !noundef !23
  %40 = ptrtoint ptr %39 to i64, !dbg !1930
  %41 = icmp eq i64 %40, 0, !dbg !1930
  %_70 = select i1 %41, i64 0, i64 1, !dbg !1930
  %42 = icmp eq i64 %_70, 0, !dbg !1931
  br i1 %42, label %bb15, label %bb16, !dbg !1931

bb15:                                             ; preds = %bb12
  store ptr null, ptr %self6, align 8, !dbg !1932
  br label %bb17, !dbg !1933

bb16:                                             ; preds = %bb12
  %v = load ptr, ptr %self7, align 8, !dbg !1934, !nonnull !23, !noundef !23
  store ptr %v, ptr %v.dbg.spill, align 8, !dbg !1934
  call void @llvm.dbg.declare(metadata ptr %v.dbg.spill, metadata !1637, metadata !DIExpression()), !dbg !1935
  store ptr %v, ptr %self6, align 8, !dbg !1936
  br label %bb17, !dbg !1937

bb17:                                             ; preds = %bb16, %bb15
  %43 = load ptr, ptr %self6, align 8, !dbg !1938, !noundef !23
  %44 = ptrtoint ptr %43 to i64, !dbg !1938
  %45 = icmp eq i64 %44, 0, !dbg !1938
  %_72 = select i1 %45, i64 1, i64 0, !dbg !1938
  %46 = icmp eq i64 %_72, 0, !dbg !1939
  br i1 %46, label %bb20, label %bb19, !dbg !1939

bb20:                                             ; preds = %bb17
  %v23 = load ptr, ptr %self6, align 8, !dbg !1940, !nonnull !23, !noundef !23
  store ptr %v23, ptr %v.dbg.spill24, align 8, !dbg !1940
  call void @llvm.dbg.declare(metadata ptr %v.dbg.spill24, metadata !1668, metadata !DIExpression()), !dbg !1941
  store ptr %v23, ptr %_12, align 8, !dbg !1942
  br label %bb18, !dbg !1943

bb19:                                             ; preds = %bb17
  store ptr null, ptr %_12, align 8, !dbg !1944
  br label %bb18, !dbg !1945

bb18:                                             ; preds = %bb19, %bb20
  %47 = load ptr, ptr %_12, align 8, !dbg !1671, !noundef !23
  %48 = ptrtoint ptr %47 to i64, !dbg !1671
  %49 = icmp eq i64 %48, 0, !dbg !1671
  %_16 = select i1 %49, i64 1, i64 0, !dbg !1671
  %50 = icmp eq i64 %_16, 0, !dbg !1671
  br i1 %50, label %bb6, label %bb7, !dbg !1671

bb6:                                              ; preds = %bb18
  %ptr25 = load ptr, ptr %_12, align 8, !dbg !1671, !nonnull !23, !noundef !23
  store ptr %ptr25, ptr %ptr.dbg.spill26, align 8, !dbg !1671
  call void @llvm.dbg.declare(metadata ptr %ptr.dbg.spill26, metadata !1519, metadata !DIExpression()), !dbg !1946
  call void @llvm.dbg.declare(metadata ptr %ptr.dbg.spill26, metadata !1541, metadata !DIExpression()), !dbg !1947
  call void @llvm.dbg.declare(metadata ptr %ptr.dbg.spill26, metadata !1553, metadata !DIExpression()), !dbg !1948
  call void @llvm.dbg.declare(metadata ptr %ptr.dbg.spill26, metadata !1706, metadata !DIExpression()), !dbg !1949
  store ptr %ptr25, ptr %data.dbg.spill27, align 8, !dbg !1951
  call void @llvm.dbg.declare(metadata ptr %data.dbg.spill27, metadata !1569, metadata !DIExpression()), !dbg !1952
  call void @llvm.dbg.declare(metadata ptr %data.dbg.spill27, metadata !1814, metadata !DIExpression()), !dbg !1953
  store ptr %ptr25, ptr %data_pointer.dbg.spill28, align 8, !dbg !1955
  call void @llvm.dbg.declare(metadata ptr %data_pointer.dbg.spill28, metadata !1582, metadata !DIExpression()), !dbg !1956
  store ptr %ptr25, ptr %_79, align 8, !dbg !1957
  %51 = getelementptr inbounds i8, ptr %_79, i64 8, !dbg !1957
  store i64 %size, ptr %51, align 8, !dbg !1957
  %52 = load ptr, ptr %_79, align 8, !dbg !1958, !noundef !23
  %53 = getelementptr inbounds i8, ptr %_79, i64 8, !dbg !1958
  %54 = load i64, ptr %53, align 8, !dbg !1958, !noundef !23
  store ptr %52, ptr %_78, align 8, !dbg !1958
  %55 = getelementptr inbounds i8, ptr %_78, i64 8, !dbg !1958
  store i64 %54, ptr %55, align 8, !dbg !1958
  %ptr.029 = load ptr, ptr %_78, align 8, !dbg !1958, !noundef !23
  %56 = getelementptr inbounds i8, ptr %_78, i64 8, !dbg !1958
  %ptr.130 = load i64, ptr %56, align 8, !dbg !1958, !noundef !23
  store ptr %ptr.029, ptr %ptr.dbg.spill31, align 8, !dbg !1958
  %57 = getelementptr inbounds i8, ptr %ptr.dbg.spill31, i64 8, !dbg !1958
  store i64 %ptr.130, ptr %57, align 8, !dbg !1958
  call void @llvm.dbg.declare(metadata ptr %ptr.dbg.spill31, metadata !1831, metadata !DIExpression()), !dbg !1959
  store ptr %ptr.029, ptr %_18, align 8, !dbg !1961
  %58 = getelementptr inbounds i8, ptr %_18, i64 8, !dbg !1961
  store i64 %ptr.130, ptr %58, align 8, !dbg !1961
  %59 = load ptr, ptr %_18, align 8, !dbg !1962, !nonnull !23, !noundef !23
  %60 = getelementptr inbounds i8, ptr %_18, i64 8, !dbg !1962
  %61 = load i64, ptr %60, align 8, !dbg !1962, !noundef !23
  store ptr %59, ptr %_0, align 8, !dbg !1962
  %62 = getelementptr inbounds i8, ptr %_0, i64 8, !dbg !1962
  store i64 %61, ptr %62, align 8, !dbg !1962
  br label %bb8, !dbg !1963

bb7:                                              ; preds = %bb18
  %63 = load ptr, ptr @0, align 8, !dbg !1964, !noundef !23
  %64 = load i64, ptr getelementptr inbounds (i8, ptr @0, i64 8), align 8, !dbg !1964
  store ptr %63, ptr %_0, align 8, !dbg !1964
  %65 = getelementptr inbounds i8, ptr %_0, i64 8, !dbg !1964
  store i64 %64, ptr %65, align 8, !dbg !1964
  br label %bb8, !dbg !1839

bb21:                                             ; No predecessors!
  unreachable, !dbg !1931
}

; alloc::raw_vec::RawVec<T,A>::allocate_in
; Function Attrs: nonlazybind uwtable
define internal { i64, ptr } @"_ZN5alloc7raw_vec19RawVec$LT$T$C$A$GT$11allocate_in17h007e8709959f68fdE"(i64 %capacity, i1 zeroext %0) unnamed_addr #2 personality ptr @rust_eh_personality !dbg !1965 {
start:
  %ptr.dbg.spill4 = alloca ptr, align 8
  %addr.dbg.spill = alloca i64, align 8
  %ptr.dbg.spill3 = alloca ptr, align 8
  %ptr.dbg.spill2 = alloca ptr, align 8
  %ptr.dbg.spill = alloca %"core::ptr::non_null::NonNull<[u8]>", align 8
  %alloc_size.dbg.spill = alloca i64, align 8
  %self.dbg.spill1 = alloca ptr, align 8
  %layout.dbg.spill = alloca %"core::alloc::layout::Layout", align 8
  %1 = alloca { ptr, i32, [1 x i32] }, align 8
  %align.dbg.spill = alloca i64, align 8
  %alloc.dbg.spill = alloca %"alloc::alloc::Global", align 1
  %capacity.dbg.spill = alloca i64, align 8
  %_46 = alloca ptr, align 8
  %_29 = alloca ptr, align 8
  %_28 = alloca ptr, align 8
  %_26 = alloca i64, align 8
  %self = alloca ptr, align 8
  %_23 = alloca ptr, align 8
  %result = alloca %"core::result::Result<core::ptr::non_null::NonNull<[u8]>, core::alloc::AllocError>", align 8
  %_7 = alloca %"core::result::Result<core::alloc::layout::Layout, core::alloc::layout::LayoutError>", align 8
  %layout = alloca %"core::alloc::layout::Layout", align 8
  %_0 = alloca %"alloc::raw_vec::RawVec<u8>", align 8
  %alloc = alloca %"alloc::alloc::Global", align 1
  %init = alloca i8, align 1
  %kind.dbg.spill = alloca %"alloc::collections::TryReserveErrorKind", align 8
  %self.dbg.spill = alloca %"alloc::collections::TryReserveErrorKind", align 8
  %2 = load i64, ptr @0, align 8, !range !1256, !noundef !23
  %3 = load i64, ptr getelementptr inbounds (i8, ptr @0, i64 8), align 8
  store i64 %2, ptr %self.dbg.spill, align 8, !dbg !1983
  %4 = getelementptr inbounds i8, ptr %self.dbg.spill, i64 8, !dbg !1983
  store i64 %3, ptr %4, align 8, !dbg !1983
  call void @llvm.dbg.declare(metadata ptr %self.dbg.spill, metadata !2006, metadata !DIExpression()), !dbg !1983
  %5 = load i64, ptr @0, align 8, !dbg !1983, !range !1256, !noundef !23
  %6 = load i64, ptr getelementptr inbounds (i8, ptr @0, i64 8), align 8, !dbg !1983
  store i64 %5, ptr %kind.dbg.spill, align 8, !dbg !2033
  %7 = getelementptr inbounds i8, ptr %kind.dbg.spill, i64 8, !dbg !2033
  store i64 %6, ptr %7, align 8, !dbg !2033
  call void @llvm.dbg.declare(metadata ptr %kind.dbg.spill, metadata !2041, metadata !DIExpression()), !dbg !2033
  %8 = zext i1 %0 to i8, !dbg !2033
  store i8 %8, ptr %init, align 1, !dbg !2033
  store i64 %capacity, ptr %capacity.dbg.spill, align 8, !dbg !2033
  call void @llvm.dbg.declare(metadata ptr %capacity.dbg.spill, metadata !1970, metadata !DIExpression()), !dbg !2043
  call void @llvm.dbg.declare(metadata ptr %capacity.dbg.spill, metadata !2044, metadata !DIExpression()), !dbg !2051
  call void @llvm.dbg.declare(metadata ptr %init, metadata !1971, metadata !DIExpression()), !dbg !2053
  call void @llvm.dbg.declare(metadata ptr %alloc, metadata !1972, metadata !DIExpression()), !dbg !2054
  call void @llvm.dbg.declare(metadata ptr %alloc.dbg.spill, metadata !2055, metadata !DIExpression()), !dbg !2062
  call void @llvm.dbg.declare(metadata ptr %layout, metadata !1973, metadata !DIExpression()), !dbg !2064
  call void @llvm.dbg.declare(metadata ptr %result, metadata !1977, metadata !DIExpression()), !dbg !2065
  call void @llvm.dbg.declare(metadata ptr %self, metadata !2066, metadata !DIExpression()), !dbg !2070
  br i1 false, label %bb2, label %bb1, !dbg !2072

bb1:                                              ; preds = %start
  %9 = icmp eq i64 %capacity, 0, !dbg !2073
  br i1 %9, label %bb2, label %bb3, !dbg !2073

bb2:                                              ; preds = %bb1, %start
  store i64 1, ptr %addr.dbg.spill, align 8, !dbg !2074
  call void @llvm.dbg.declare(metadata ptr %addr.dbg.spill, metadata !2097, metadata !DIExpression()), !dbg !2101
  store ptr inttoptr (i64 1 to ptr), ptr %ptr.dbg.spill4, align 8, !dbg !2103
  call void @llvm.dbg.declare(metadata ptr %ptr.dbg.spill4, metadata !2088, metadata !DIExpression()), !dbg !2104
  call void @llvm.dbg.declare(metadata ptr %ptr.dbg.spill4, metadata !2105, metadata !DIExpression()), !dbg !2113
  store ptr inttoptr (i64 1 to ptr), ptr %_29, align 8, !dbg !2115
  %10 = load ptr, ptr %_29, align 8, !dbg !2116, !nonnull !23, !noundef !23
  store ptr %10, ptr %_28, align 8, !dbg !2116
  %11 = load ptr, ptr %_28, align 8, !dbg !2117, !nonnull !23, !noundef !23
  %12 = getelementptr inbounds i8, ptr %_0, i64 8, !dbg !2117
  store ptr %11, ptr %12, align 8, !dbg !2117
  store i64 0, ptr %_0, align 8, !dbg !2117
  br label %bb13, !dbg !2118

bb3:                                              ; preds = %bb1
  store i64 1, ptr %align.dbg.spill, align 8, !dbg !2119
  call void @llvm.dbg.declare(metadata ptr %align.dbg.spill, metadata !2128, metadata !DIExpression()), !dbg !2132
; invoke core::alloc::layout::Layout::array::inner
  %13 = invoke { i64, i64 } @_ZN4core5alloc6layout6Layout5array5inner17h922e55368b47a723E(i64 1, i64 1, i64 %capacity)
          to label %bb16 unwind label %cleanup, !dbg !2134

bb15:                                             ; preds = %cleanup
  %14 = load ptr, ptr %1, align 8, !dbg !2135, !noundef !23
  %15 = getelementptr inbounds i8, ptr %1, i64 8, !dbg !2135
  %16 = load i32, ptr %15, align 8, !dbg !2135, !noundef !23
  %17 = insertvalue { ptr, i32 } poison, ptr %14, 0, !dbg !2135
  %18 = insertvalue { ptr, i32 } %17, i32 %16, 1, !dbg !2135
  resume { ptr, i32 } %18, !dbg !2135

cleanup:                                          ; preds = %bb4, %bb11, %bb6, %bb7, %bb3
  %19 = landingpad { ptr, i32 }
          cleanup
  %20 = extractvalue { ptr, i32 } %19, 0
  %21 = extractvalue { ptr, i32 } %19, 1
  store ptr %20, ptr %1, align 8
  %22 = getelementptr inbounds i8, ptr %1, i64 8
  store i32 %21, ptr %22, align 8
  br label %bb15

bb16:                                             ; preds = %bb3
  %23 = extractvalue { i64, i64 } %13, 0, !dbg !2134
  %24 = extractvalue { i64, i64 } %13, 1, !dbg !2134
  store i64 %23, ptr %_7, align 8, !dbg !2134
  %25 = getelementptr inbounds i8, ptr %_7, i64 8, !dbg !2134
  store i64 %24, ptr %25, align 8, !dbg !2134
  %26 = load i64, ptr %_7, align 8, !dbg !2052, !range !1256, !noundef !23
  %27 = icmp eq i64 %26, 0, !dbg !2052
  %_8 = select i1 %27, i64 1, i64 0, !dbg !2052
  %28 = icmp eq i64 %_8, 0, !dbg !2136
  br i1 %28, label %bb5, label %bb4, !dbg !2136

bb5:                                              ; preds = %bb16
  %layout.0 = load i64, ptr %_7, align 8, !dbg !2137, !range !1234, !noundef !23
  %29 = getelementptr inbounds i8, ptr %_7, i64 8, !dbg !2137
  %layout.1 = load i64, ptr %29, align 8, !dbg !2137, !noundef !23
  store i64 %layout.0, ptr %layout.dbg.spill, align 8, !dbg !2137
  %30 = getelementptr inbounds i8, ptr %layout.dbg.spill, i64 8, !dbg !2137
  store i64 %layout.1, ptr %30, align 8, !dbg !2137
  call void @llvm.dbg.declare(metadata ptr %layout.dbg.spill, metadata !1975, metadata !DIExpression()), !dbg !2138
  store i64 %layout.0, ptr %layout, align 8, !dbg !2139
  %31 = getelementptr inbounds i8, ptr %layout, i64 8, !dbg !2139
  store i64 %layout.1, ptr %31, align 8, !dbg !2139
  store ptr %layout, ptr %self.dbg.spill1, align 8, !dbg !2140
  call void @llvm.dbg.declare(metadata ptr %self.dbg.spill1, metadata !2141, metadata !DIExpression()), !dbg !2145
  %32 = getelementptr inbounds i8, ptr %layout, i64 8, !dbg !2147
  %alloc_size = load i64, ptr %32, align 8, !dbg !2147, !noundef !23
  store i64 %alloc_size, ptr %alloc_size.dbg.spill, align 8, !dbg !2147
  call void @llvm.dbg.declare(metadata ptr %alloc_size.dbg.spill, metadata !2031, metadata !DIExpression()), !dbg !2148
  %33 = load i8, ptr %init, align 1, !dbg !2149, !range !837, !noundef !23
  %34 = trunc i8 %33 to i1, !dbg !2149
  %_14 = zext i1 %34 to i64, !dbg !2149
  %35 = icmp eq i64 %_14, 0, !dbg !2150
  br i1 %35, label %bb7, label %bb6, !dbg !2150

bb4:                                              ; preds = %bb16
; invoke alloc::raw_vec::capacity_overflow
  invoke void @_ZN5alloc7raw_vec17capacity_overflow17hdebe4d61eabe5c80E() #15
          to label %unreachable unwind label %cleanup, !dbg !2151

bb7:                                              ; preds = %bb5
  %_16.0 = load i64, ptr %layout, align 8, !dbg !2152, !range !1234, !noundef !23
  %36 = getelementptr inbounds i8, ptr %layout, i64 8, !dbg !2152
  %_16.1 = load i64, ptr %36, align 8, !dbg !2152, !noundef !23
; invoke <alloc::alloc::Global as core::alloc::Allocator>::allocate
  %37 = invoke { ptr, i64 } @"_ZN63_$LT$alloc..alloc..Global$u20$as$u20$core..alloc..Allocator$GT$8allocate17h9dfe0d8f0d3b1196E"(ptr align 1 %alloc, i64 %_16.0, i64 %_16.1)
          to label %bb8 unwind label %cleanup, !dbg !2153

bb6:                                              ; preds = %bb5
  %_18.0 = load i64, ptr %layout, align 8, !dbg !2154, !range !1234, !noundef !23
  %38 = getelementptr inbounds i8, ptr %layout, i64 8, !dbg !2154
  %_18.1 = load i64, ptr %38, align 8, !dbg !2154, !noundef !23
; invoke <alloc::alloc::Global as core::alloc::Allocator>::allocate_zeroed
  %39 = invoke { ptr, i64 } @"_ZN63_$LT$alloc..alloc..Global$u20$as$u20$core..alloc..Allocator$GT$15allocate_zeroed17hcbdc846c9e909014E"(ptr align 1 %alloc, i64 %_18.0, i64 %_18.1)
          to label %bb9 unwind label %cleanup, !dbg !2155

bb8:                                              ; preds = %bb7
  %40 = extractvalue { ptr, i64 } %37, 0, !dbg !2153
  %41 = extractvalue { ptr, i64 } %37, 1, !dbg !2153
  store ptr %40, ptr %result, align 8, !dbg !2153
  %42 = getelementptr inbounds i8, ptr %result, i64 8, !dbg !2153
  store i64 %41, ptr %42, align 8, !dbg !2153
  br label %bb10, !dbg !2156

bb10:                                             ; preds = %bb9, %bb8
  %43 = load ptr, ptr %result, align 8, !dbg !2157, !noundef !23
  %44 = ptrtoint ptr %43 to i64, !dbg !2157
  %45 = icmp eq i64 %44, 0, !dbg !2157
  %_19 = select i1 %45, i64 1, i64 0, !dbg !2157
  %46 = icmp eq i64 %_19, 0, !dbg !2158
  br i1 %46, label %bb12, label %bb11, !dbg !2158

bb9:                                              ; preds = %bb6
  %47 = extractvalue { ptr, i64 } %39, 0, !dbg !2155
  %48 = extractvalue { ptr, i64 } %39, 1, !dbg !2155
  store ptr %47, ptr %result, align 8, !dbg !2155
  %49 = getelementptr inbounds i8, ptr %result, i64 8, !dbg !2155
  store i64 %48, ptr %49, align 8, !dbg !2155
  br label %bb10, !dbg !2159

bb12:                                             ; preds = %bb10
  %ptr.0 = load ptr, ptr %result, align 8, !dbg !2160, !nonnull !23, !noundef !23
  %50 = getelementptr inbounds i8, ptr %result, i64 8, !dbg !2160
  %ptr.1 = load i64, ptr %50, align 8, !dbg !2160, !noundef !23
  store ptr %ptr.0, ptr %ptr.dbg.spill, align 8, !dbg !2160
  %51 = getelementptr inbounds i8, ptr %ptr.dbg.spill, i64 8, !dbg !2160
  store i64 %ptr.1, ptr %51, align 8, !dbg !2160
  call void @llvm.dbg.declare(metadata ptr %ptr.dbg.spill, metadata !1979, metadata !DIExpression()), !dbg !2161
  call void @llvm.dbg.declare(metadata ptr %ptr.dbg.spill, metadata !1981, metadata !DIExpression()), !dbg !2162
  call void @llvm.dbg.declare(metadata ptr %ptr.dbg.spill, metadata !2163, metadata !DIExpression()), !dbg !2171
  call void @llvm.dbg.declare(metadata ptr %ptr.dbg.spill, metadata !2173, metadata !DIExpression()), !dbg !2180
  store ptr %ptr.0, ptr %ptr.dbg.spill2, align 8, !dbg !2182
  call void @llvm.dbg.declare(metadata ptr %ptr.dbg.spill2, metadata !2109, metadata !DIExpression()), !dbg !2183
  store ptr %ptr.0, ptr %self, align 8, !dbg !2185
  store ptr %ptr.0, ptr %ptr.dbg.spill3, align 8, !dbg !2186
  call void @llvm.dbg.declare(metadata ptr %ptr.dbg.spill3, metadata !2187, metadata !DIExpression()), !dbg !2194
  call void @llvm.dbg.declare(metadata ptr %ptr.dbg.spill3, metadata !2111, metadata !DIExpression()), !dbg !2196
  store ptr %ptr.0, ptr %_46, align 8, !dbg !2198
  %52 = load ptr, ptr %_46, align 8, !dbg !2199, !nonnull !23, !noundef !23
  store ptr %52, ptr %_23, align 8, !dbg !2199
  store i64 %capacity, ptr %_26, align 8, !dbg !2200
  %53 = load ptr, ptr %_23, align 8, !dbg !2201, !nonnull !23, !noundef !23
  %54 = getelementptr inbounds i8, ptr %_0, i64 8, !dbg !2201
  store ptr %53, ptr %54, align 8, !dbg !2201
  %55 = load i64, ptr %_26, align 8, !dbg !2201, !range !2202, !noundef !23
  store i64 %55, ptr %_0, align 8, !dbg !2201
  br label %bb13, !dbg !2118

bb11:                                             ; preds = %bb10
  %_22.0 = load i64, ptr %layout, align 8, !dbg !2203, !range !1234, !noundef !23
  %56 = getelementptr inbounds i8, ptr %layout, i64 8, !dbg !2203
  %_22.1 = load i64, ptr %56, align 8, !dbg !2203, !noundef !23
; invoke alloc::alloc::handle_alloc_error
  invoke void @_ZN5alloc5alloc18handle_alloc_error17h48039cdfd0d60c1cE(i64 %_22.0, i64 %_22.1) #15
          to label %unreachable unwind label %cleanup, !dbg !2204

bb13:                                             ; preds = %bb2, %bb12
  %57 = load i64, ptr %_0, align 8, !dbg !2205, !range !2202, !noundef !23
  %58 = getelementptr inbounds i8, ptr %_0, i64 8, !dbg !2205
  %59 = load ptr, ptr %58, align 8, !dbg !2205, !nonnull !23, !noundef !23
  %60 = insertvalue { i64, ptr } poison, i64 %57, 0, !dbg !2205
  %61 = insertvalue { i64, ptr } %60, ptr %59, 1, !dbg !2205
  ret { i64, ptr } %61, !dbg !2205

unreachable:                                      ; preds = %bb4, %bb11
  unreachable

bb17:                                             ; No predecessors!
  unreachable, !dbg !2206
}

; alloc::raw_vec::RawVec<T,A>::current_memory
; Function Attrs: nonlazybind uwtable
define internal void @"_ZN5alloc7raw_vec19RawVec$LT$T$C$A$GT$14current_memory17hebed8b75df2cc79eE"(ptr sret(%"core::option::Option<(core::ptr::non_null::NonNull<u8>, core::alloc::layout::Layout)>") align 8 %_0, ptr align 8 %self) unnamed_addr #2 !dbg !2207 {
start:
  %ptr.dbg.spill7 = alloca ptr, align 8
  %ptr.dbg.spill6 = alloca ptr, align 8
  %ptr.dbg.spill = alloca ptr, align 8
  %self.dbg.spill5 = alloca ptr, align 8
  %size.dbg.spill = alloca i64, align 8
  %rhs.dbg.spill = alloca i64, align 8
  %self.dbg.spill3 = alloca i64, align 8
  %align.dbg.spill = alloca i64, align 8
  %self.dbg.spill = alloca ptr, align 8
  %self2 = alloca ptr, align 8
  %self1 = alloca ptr, align 8
  %_10 = alloca ptr, align 8
  %_9 = alloca { ptr, %"core::alloc::layout::Layout" }, align 8
  %layout = alloca %"core::alloc::layout::Layout", align 8
  store ptr %self, ptr %self.dbg.spill, align 8
  call void @llvm.dbg.declare(metadata ptr %self.dbg.spill, metadata !2229, metadata !DIExpression()), !dbg !2236
  call void @llvm.dbg.declare(metadata ptr %layout, metadata !2234, metadata !DIExpression()), !dbg !2237
  call void @llvm.dbg.declare(metadata ptr %self1, metadata !2238, metadata !DIExpression()), !dbg !2246
  call void @llvm.dbg.declare(metadata ptr %self2, metadata !2256, metadata !DIExpression()), !dbg !2265
  call void @llvm.dbg.declare(metadata ptr %self2, metadata !2267, metadata !DIExpression()), !dbg !2274
  call void @llvm.dbg.declare(metadata ptr %self2, metadata !2276, metadata !DIExpression()), !dbg !2280
  call void @llvm.dbg.declare(metadata ptr %self2, metadata !2244, metadata !DIExpression()), !dbg !2282
  br i1 false, label %bb2, label %bb1, !dbg !2284

bb1:                                              ; preds = %start
  %_3 = load i64, ptr %self, align 8, !dbg !2285, !noundef !23
  %0 = icmp eq i64 %_3, 0, !dbg !2285
  br i1 %0, label %bb2, label %bb3, !dbg !2285

bb2:                                              ; preds = %bb1, %start
  %1 = getelementptr inbounds %"core::option::Option<(core::ptr::non_null::NonNull<u8>, core::alloc::layout::Layout)>", ptr %_0, i32 0, i32 1, !dbg !2286
  store i64 0, ptr %1, align 8, !dbg !2286
  br label %bb4, !dbg !2287

bb3:                                              ; preds = %bb1
  store i64 1, ptr %align.dbg.spill, align 8, !dbg !2288
  call void @llvm.dbg.declare(metadata ptr %align.dbg.spill, metadata !2230, metadata !DIExpression()), !dbg !2292
  call void @llvm.dbg.declare(metadata ptr %align.dbg.spill, metadata !2293, metadata !DIExpression()), !dbg !2298
  call void @llvm.dbg.declare(metadata ptr %align.dbg.spill, metadata !2300, metadata !DIExpression()), !dbg !2304
  store i64 1, ptr %self.dbg.spill3, align 8, !dbg !2306
  call void @llvm.dbg.declare(metadata ptr %self.dbg.spill3, metadata !2310, metadata !DIExpression()), !dbg !2316
  %rhs = load i64, ptr %self, align 8, !dbg !2318, !noundef !23
  store i64 %rhs, ptr %rhs.dbg.spill, align 8, !dbg !2318
  call void @llvm.dbg.declare(metadata ptr %rhs.dbg.spill, metadata !2315, metadata !DIExpression()), !dbg !2316
  %size = mul nuw i64 1, %rhs, !dbg !2316
  store i64 %size, ptr %size.dbg.spill, align 8, !dbg !2316
  call void @llvm.dbg.declare(metadata ptr %size.dbg.spill, metadata !2232, metadata !DIExpression()), !dbg !2319
  call void @llvm.dbg.declare(metadata ptr %size.dbg.spill, metadata !2297, metadata !DIExpression()), !dbg !2320
  %2 = getelementptr inbounds i8, ptr %layout, i64 8, !dbg !2321
  store i64 %size, ptr %2, align 8, !dbg !2321
  store i64 1, ptr %layout, align 8, !dbg !2321
  %3 = getelementptr inbounds i8, ptr %self, i64 8, !dbg !2322
  %self4 = load ptr, ptr %3, align 8, !dbg !2322, !nonnull !23, !noundef !23
  store ptr %self4, ptr %self.dbg.spill5, align 8, !dbg !2322
  call void @llvm.dbg.declare(metadata ptr %self.dbg.spill5, metadata !2254, metadata !DIExpression()), !dbg !2323
  call void @llvm.dbg.declare(metadata ptr %self.dbg.spill5, metadata !2324, metadata !DIExpression()), !dbg !2331
  call void @llvm.dbg.declare(metadata ptr %self.dbg.spill5, metadata !2242, metadata !DIExpression()), !dbg !2333
  store ptr %self4, ptr %ptr.dbg.spill, align 8, !dbg !2335
  call void @llvm.dbg.declare(metadata ptr %ptr.dbg.spill, metadata !2336, metadata !DIExpression()), !dbg !2344
  store ptr %self4, ptr %self1, align 8, !dbg !2346
  store ptr %self4, ptr %ptr.dbg.spill6, align 8, !dbg !2347
  call void @llvm.dbg.declare(metadata ptr %ptr.dbg.spill6, metadata !2348, metadata !DIExpression()), !dbg !2352
  call void @llvm.dbg.declare(metadata ptr %ptr.dbg.spill6, metadata !2340, metadata !DIExpression()), !dbg !2354
  store ptr %self4, ptr %self2, align 8, !dbg !2356
  store ptr %self4, ptr %ptr.dbg.spill7, align 8, !dbg !2357
  call void @llvm.dbg.declare(metadata ptr %ptr.dbg.spill7, metadata !2342, metadata !DIExpression()), !dbg !2358
  store ptr %self4, ptr %_10, align 8, !dbg !2360
  %4 = load ptr, ptr %_10, align 8, !dbg !2361, !nonnull !23, !noundef !23
  store ptr %4, ptr %_9, align 8, !dbg !2361
  %5 = load i64, ptr %layout, align 8, !dbg !2361, !range !1234, !noundef !23
  %6 = getelementptr inbounds i8, ptr %layout, i64 8, !dbg !2361
  %7 = load i64, ptr %6, align 8, !dbg !2361, !noundef !23
  %8 = getelementptr inbounds { ptr, %"core::alloc::layout::Layout" }, ptr %_9, i32 0, i32 1, !dbg !2361
  store i64 %5, ptr %8, align 8, !dbg !2361
  %9 = getelementptr inbounds i8, ptr %8, i64 8, !dbg !2361
  store i64 %7, ptr %9, align 8, !dbg !2361
  call void @llvm.memcpy.p0.p0.i64(ptr align 8 %_0, ptr align 8 %_9, i64 24, i1 false), !dbg !2362
  br label %bb4, !dbg !2287

bb4:                                              ; preds = %bb2, %bb3
  ret void, !dbg !2363
}

; <alloc::string::String as core::fmt::Display>::fmt
; Function Attrs: inlinehint nonlazybind uwtable
define internal zeroext i1 @"_ZN60_$LT$alloc..string..String$u20$as$u20$core..fmt..Display$GT$3fmt17h818dbba820784ef9E"(ptr align 8 %self, ptr align 8 %f) unnamed_addr #0 !dbg !2364 {
start:
  %v.dbg.spill = alloca { ptr, i64 }, align 8
  %data_pointer.dbg.spill = alloca ptr, align 8
  %len.dbg.spill = alloca i64, align 8
  %data.dbg.spill = alloca ptr, align 8
  %self.dbg.spill4 = alloca ptr, align 8
  %self.dbg.spill2 = alloca ptr, align 8
  %self.dbg.spill1 = alloca ptr, align 8
  %f.dbg.spill = alloca ptr, align 8
  %self.dbg.spill = alloca ptr, align 8
  %_15 = alloca %"core::ptr::metadata::PtrComponents<[u8]>", align 8
  %_14 = alloca %"core::ptr::metadata::PtrRepr<[u8]>", align 8
  store ptr %self, ptr %self.dbg.spill, align 8
  call void @llvm.dbg.declare(metadata ptr %self.dbg.spill, metadata !2369, metadata !DIExpression()), !dbg !2371
  call void @llvm.dbg.declare(metadata ptr %self.dbg.spill, metadata !2372, metadata !DIExpression()), !dbg !2379
  store ptr %f, ptr %f.dbg.spill, align 8
  call void @llvm.dbg.declare(metadata ptr %f.dbg.spill, metadata !2370, metadata !DIExpression()), !dbg !2381
  store ptr %self, ptr %self.dbg.spill1, align 8, !dbg !2382
  call void @llvm.dbg.declare(metadata ptr %self.dbg.spill1, metadata !2383, metadata !DIExpression()), !dbg !2387
  call void @llvm.dbg.declare(metadata ptr %self.dbg.spill1, metadata !2388, metadata !DIExpression()), !dbg !2392
  store ptr %self, ptr %self.dbg.spill2, align 8, !dbg !2394
  call void @llvm.dbg.declare(metadata ptr %self.dbg.spill2, metadata !2395, metadata !DIExpression()), !dbg !2399
  %0 = getelementptr inbounds i8, ptr %self, i64 8, !dbg !2401
  %self3 = load ptr, ptr %0, align 8, !dbg !2401, !nonnull !23, !noundef !23
  store ptr %self3, ptr %self.dbg.spill4, align 8, !dbg !2401
  call void @llvm.dbg.declare(metadata ptr %self.dbg.spill4, metadata !2402, metadata !DIExpression()), !dbg !2406
  call void @llvm.dbg.declare(metadata ptr %self.dbg.spill4, metadata !2408, metadata !DIExpression()), !dbg !2412
  store ptr %self3, ptr %data.dbg.spill, align 8, !dbg !2394
  call void @llvm.dbg.declare(metadata ptr %data.dbg.spill, metadata !2414, metadata !DIExpression()), !dbg !2419
  call void @llvm.dbg.declare(metadata ptr %data.dbg.spill, metadata !2421, metadata !DIExpression()), !dbg !2426
  call void @llvm.dbg.declare(metadata ptr %data.dbg.spill, metadata !2428, metadata !DIExpression()), !dbg !2432
  %1 = getelementptr inbounds %"alloc::vec::Vec<u8>", ptr %self, i32 0, i32 1, !dbg !2434
  %len = load i64, ptr %1, align 8, !dbg !2434, !noundef !23
  store i64 %len, ptr %len.dbg.spill, align 8, !dbg !2434
  call void @llvm.dbg.declare(metadata ptr %len.dbg.spill, metadata !2418, metadata !DIExpression()), !dbg !2435
  call void @llvm.dbg.declare(metadata ptr %len.dbg.spill, metadata !2425, metadata !DIExpression()), !dbg !2436
  call void @llvm.dbg.declare(metadata ptr %len.dbg.spill, metadata !2437, metadata !DIExpression()), !dbg !2442
  store ptr %self3, ptr %data_pointer.dbg.spill, align 8, !dbg !2444
  call void @llvm.dbg.declare(metadata ptr %data_pointer.dbg.spill, metadata !2441, metadata !DIExpression()), !dbg !2445
  store ptr %self3, ptr %_15, align 8, !dbg !2446
  %2 = getelementptr inbounds i8, ptr %_15, i64 8, !dbg !2446
  store i64 %len, ptr %2, align 8, !dbg !2446
  %3 = load ptr, ptr %_15, align 8, !dbg !2447, !noundef !23
  %4 = getelementptr inbounds i8, ptr %_15, i64 8, !dbg !2447
  %5 = load i64, ptr %4, align 8, !dbg !2447, !noundef !23
  store ptr %3, ptr %_14, align 8, !dbg !2447
  %6 = getelementptr inbounds i8, ptr %_14, i64 8, !dbg !2447
  store i64 %5, ptr %6, align 8, !dbg !2447
  %v.0 = load ptr, ptr %_14, align 8, !dbg !2447, !noundef !23
  %7 = getelementptr inbounds i8, ptr %_14, i64 8, !dbg !2447
  %v.1 = load i64, ptr %7, align 8, !dbg !2447, !noundef !23
  store ptr %v.0, ptr %v.dbg.spill, align 8, !dbg !2447
  %8 = getelementptr inbounds i8, ptr %v.dbg.spill, i64 8, !dbg !2447
  store i64 %v.1, ptr %8, align 8, !dbg !2447
  call void @llvm.dbg.declare(metadata ptr %v.dbg.spill, metadata !2448, metadata !DIExpression()), !dbg !2452
; call <str as core::fmt::Display>::fmt
  %_0 = call zeroext i1 @"_ZN42_$LT$str$u20$as$u20$core..fmt..Display$GT$3fmt17h86309c7b5dd516e7E"(ptr align 1 %v.0, i64 %v.1, ptr align 8 %f), !dbg !2454
  ret i1 %_0, !dbg !2455
}

; <I as core::iter::traits::collect::IntoIterator>::into_iter
; Function Attrs: inlinehint nonlazybind uwtable
define internal { ptr, ptr } @"_ZN63_$LT$I$u20$as$u20$core..iter..traits..collect..IntoIterator$GT$9into_iter17heddf5bb0dd059a8aE"(ptr %self.0, ptr %self.1) unnamed_addr #0 !dbg !2456 {
start:
  %self.dbg.spill = alloca %"core::slice::iter::Iter<'_, u8>", align 8
  store ptr %self.0, ptr %self.dbg.spill, align 8
  %0 = getelementptr inbounds i8, ptr %self.dbg.spill, i64 8
  store ptr %self.1, ptr %0, align 8
  call void @llvm.dbg.declare(metadata ptr %self.dbg.spill, metadata !2465, metadata !DIExpression()), !dbg !2467
  %1 = insertvalue { ptr, ptr } poison, ptr %self.0, 0, !dbg !2468
  %2 = insertvalue { ptr, ptr } %1, ptr %self.1, 1, !dbg !2468
  ret { ptr, ptr } %2, !dbg !2468
}

; <alloc::alloc::Global as core::alloc::Allocator>::deallocate
; Function Attrs: inlinehint nonlazybind uwtable
define internal void @"_ZN63_$LT$alloc..alloc..Global$u20$as$u20$core..alloc..Allocator$GT$10deallocate17h00e43e1e65690183E"(ptr align 1 %self, ptr %ptr, i64 %0, i64 %1) unnamed_addr #0 !dbg !2469 {
start:
  %self.dbg.spill7 = alloca i64, align 8
  %self.dbg.spill5 = alloca ptr, align 8
  %self.dbg.spill4 = alloca ptr, align 8
  %ptr.dbg.spill3 = alloca ptr, align 8
  %self.dbg.spill2 = alloca ptr, align 8
  %ptr.dbg.spill = alloca ptr, align 8
  %self.dbg.spill = alloca ptr, align 8
  %_14 = alloca i64, align 8
  %layout1 = alloca %"core::alloc::layout::Layout", align 8
  %layout = alloca %"core::alloc::layout::Layout", align 8
  store i64 %0, ptr %layout, align 8
  %2 = getelementptr inbounds i8, ptr %layout, i64 8
  store i64 %1, ptr %2, align 8
  store ptr %self, ptr %self.dbg.spill, align 8
  call void @llvm.dbg.declare(metadata ptr %self.dbg.spill, metadata !2474, metadata !DIExpression()), !dbg !2477
  store ptr %ptr, ptr %ptr.dbg.spill, align 8
  call void @llvm.dbg.declare(metadata ptr %ptr.dbg.spill, metadata !2475, metadata !DIExpression()), !dbg !2478
  call void @llvm.dbg.declare(metadata ptr %ptr.dbg.spill, metadata !2479, metadata !DIExpression()), !dbg !2483
  call void @llvm.dbg.declare(metadata ptr %layout, metadata !2476, metadata !DIExpression()), !dbg !2485
  call void @llvm.dbg.declare(metadata ptr %layout1, metadata !2486, metadata !DIExpression()), !dbg !2493
  store ptr %layout, ptr %self.dbg.spill2, align 8, !dbg !2495
  call void @llvm.dbg.declare(metadata ptr %self.dbg.spill2, metadata !2496, metadata !DIExpression()), !dbg !2502
  %3 = getelementptr inbounds i8, ptr %layout, i64 8, !dbg !2504
  %_4 = load i64, ptr %3, align 8, !dbg !2504, !noundef !23
  %4 = icmp eq i64 %_4, 0, !dbg !2495
  br i1 %4, label %bb2, label %bb1, !dbg !2495

bb2:                                              ; preds = %start
  br label %bb3, !dbg !2505

bb1:                                              ; preds = %start
  store ptr %ptr, ptr %ptr.dbg.spill3, align 8, !dbg !2506
  call void @llvm.dbg.declare(metadata ptr %ptr.dbg.spill3, metadata !2492, metadata !DIExpression()), !dbg !2507
  %5 = load i64, ptr %layout, align 8, !dbg !2508, !range !1234, !noundef !23
  %6 = getelementptr inbounds i8, ptr %layout, i64 8, !dbg !2508
  %7 = load i64, ptr %6, align 8, !dbg !2508, !noundef !23
  store i64 %5, ptr %layout1, align 8, !dbg !2508
  %8 = getelementptr inbounds i8, ptr %layout1, i64 8, !dbg !2508
  store i64 %7, ptr %8, align 8, !dbg !2508
  store ptr %layout1, ptr %self.dbg.spill4, align 8, !dbg !2509
  call void @llvm.dbg.declare(metadata ptr %self.dbg.spill4, metadata !2500, metadata !DIExpression()), !dbg !2510
  %9 = getelementptr inbounds i8, ptr %layout1, i64 8, !dbg !2512
  %_9 = load i64, ptr %9, align 8, !dbg !2512, !noundef !23
  store ptr %layout1, ptr %self.dbg.spill5, align 8, !dbg !2513
  call void @llvm.dbg.declare(metadata ptr %self.dbg.spill5, metadata !2514, metadata !DIExpression()), !dbg !2518
  %self6 = load i64, ptr %layout1, align 8, !dbg !2520, !range !1234, !noundef !23
  store i64 %self6, ptr %self.dbg.spill7, align 8, !dbg !2520
  call void @llvm.dbg.declare(metadata ptr %self.dbg.spill7, metadata !2521, metadata !DIExpression()), !dbg !2525
  store i64 %self6, ptr %_14, align 8, !dbg !2527
  %_15 = load i64, ptr %_14, align 8, !dbg !2527, !range !1234, !noundef !23
  %_16 = icmp uge i64 %_15, 1, !dbg !2527
  %_17 = icmp ule i64 %_15, -9223372036854775808, !dbg !2527
  %_18 = and i1 %_16, %_17, !dbg !2527
  call void @llvm.assume(i1 %_18), !dbg !2527
  call void @__rust_dealloc(ptr %ptr, i64 %_9, i64 %_15) #18, !dbg !2528
  br label %bb3, !dbg !2505

bb3:                                              ; preds = %bb1, %bb2
  ret void, !dbg !2529
}

; <alloc::alloc::Global as core::alloc::Allocator>::allocate_zeroed
; Function Attrs: inlinehint nonlazybind uwtable
define internal { ptr, i64 } @"_ZN63_$LT$alloc..alloc..Global$u20$as$u20$core..alloc..Allocator$GT$15allocate_zeroed17hcbdc846c9e909014E"(ptr align 1 %self, i64 %layout.0, i64 %layout.1) unnamed_addr #0 !dbg !2530 {
start:
  %layout.dbg.spill = alloca %"core::alloc::layout::Layout", align 8
  %self.dbg.spill = alloca ptr, align 8
  store ptr %self, ptr %self.dbg.spill, align 8
  call void @llvm.dbg.declare(metadata ptr %self.dbg.spill, metadata !2534, metadata !DIExpression()), !dbg !2536
  store i64 %layout.0, ptr %layout.dbg.spill, align 8
  %0 = getelementptr inbounds i8, ptr %layout.dbg.spill, i64 8
  store i64 %layout.1, ptr %0, align 8
  call void @llvm.dbg.declare(metadata ptr %layout.dbg.spill, metadata !2535, metadata !DIExpression()), !dbg !2537
; call alloc::alloc::Global::alloc_impl
  %1 = call { ptr, i64 } @_ZN5alloc5alloc6Global10alloc_impl17h1bd5524888bd04a2E(ptr align 1 %self, i64 %layout.0, i64 %layout.1, i1 zeroext true), !dbg !2538
  %_0.0 = extractvalue { ptr, i64 } %1, 0, !dbg !2538
  %_0.1 = extractvalue { ptr, i64 } %1, 1, !dbg !2538
  %2 = insertvalue { ptr, i64 } poison, ptr %_0.0, 0, !dbg !2539
  %3 = insertvalue { ptr, i64 } %2, i64 %_0.1, 1, !dbg !2539
  ret { ptr, i64 } %3, !dbg !2539
}

; <alloc::alloc::Global as core::alloc::Allocator>::allocate
; Function Attrs: inlinehint nonlazybind uwtable
define internal { ptr, i64 } @"_ZN63_$LT$alloc..alloc..Global$u20$as$u20$core..alloc..Allocator$GT$8allocate17h9dfe0d8f0d3b1196E"(ptr align 1 %self, i64 %layout.0, i64 %layout.1) unnamed_addr #0 !dbg !2540 {
start:
  %layout.dbg.spill = alloca %"core::alloc::layout::Layout", align 8
  %self.dbg.spill = alloca ptr, align 8
  store ptr %self, ptr %self.dbg.spill, align 8
  call void @llvm.dbg.declare(metadata ptr %self.dbg.spill, metadata !2542, metadata !DIExpression()), !dbg !2544
  store i64 %layout.0, ptr %layout.dbg.spill, align 8
  %0 = getelementptr inbounds i8, ptr %layout.dbg.spill, i64 8
  store i64 %layout.1, ptr %0, align 8
  call void @llvm.dbg.declare(metadata ptr %layout.dbg.spill, metadata !2543, metadata !DIExpression()), !dbg !2545
; call alloc::alloc::Global::alloc_impl
  %1 = call { ptr, i64 } @_ZN5alloc5alloc6Global10alloc_impl17h1bd5524888bd04a2E(ptr align 1 %self, i64 %layout.0, i64 %layout.1, i1 zeroext false), !dbg !2546
  %_0.0 = extractvalue { ptr, i64 } %1, 0, !dbg !2546
  %_0.1 = extractvalue { ptr, i64 } %1, 1, !dbg !2546
  %2 = insertvalue { ptr, i64 } poison, ptr %_0.0, 0, !dbg !2547
  %3 = insertvalue { ptr, i64 } %2, i64 %_0.1, 1, !dbg !2547
  ret { ptr, i64 } %3, !dbg !2547
}

; <alloc::ffi::c_str::NulError as core::fmt::Debug>::fmt
; Function Attrs: inlinehint nonlazybind uwtable
define internal zeroext i1 @"_ZN64_$LT$alloc..ffi..c_str..NulError$u20$as$u20$core..fmt..Debug$GT$3fmt17hecbfc43d04499676E"(ptr align 8 %self, ptr align 8 %f) unnamed_addr #0 !dbg !2548 {
start:
  %f.dbg.spill = alloca ptr, align 8
  %self.dbg.spill = alloca ptr, align 8
  %_8 = alloca ptr, align 8
  store ptr %self, ptr %self.dbg.spill, align 8
  call void @llvm.dbg.declare(metadata ptr %self.dbg.spill, metadata !2554, metadata !DIExpression()), !dbg !2556
  store ptr %f, ptr %f.dbg.spill, align 8
  call void @llvm.dbg.declare(metadata ptr %f.dbg.spill, metadata !2555, metadata !DIExpression()), !dbg !2556
  %_5 = getelementptr inbounds %"alloc::ffi::c_str::NulError", ptr %self, i32 0, i32 1, !dbg !2557
  store ptr %self, ptr %_8, align 8, !dbg !2558
; call core::fmt::Formatter::debug_tuple_field2_finish
  %_0 = call zeroext i1 @_ZN4core3fmt9Formatter25debug_tuple_field2_finish17h168a3cca6db6b81eE(ptr align 8 %f, ptr align 1 @alloc_49c0eff15ce41ce22a2d8c8b146a94ef, i64 8, ptr align 1 %_5, ptr align 8 @vtable.5, ptr align 1 %_8, ptr align 8 @vtable.6), !dbg !2556
  ret i1 %_0, !dbg !2559
}

; <core::str::error::Utf8Error as core::fmt::Debug>::fmt
; Function Attrs: inlinehint nonlazybind uwtable
define internal zeroext i1 @"_ZN64_$LT$core..str..error..Utf8Error$u20$as$u20$core..fmt..Debug$GT$3fmt17h11f77d921b71b36cE"(ptr align 8 %self, ptr align 8 %f) unnamed_addr #0 !dbg !2560 {
start:
  %f.dbg.spill = alloca ptr, align 8
  %self.dbg.spill = alloca ptr, align 8
  %_10 = alloca ptr, align 8
  store ptr %self, ptr %self.dbg.spill, align 8
  call void @llvm.dbg.declare(metadata ptr %self.dbg.spill, metadata !2567, metadata !DIExpression()), !dbg !2569
  store ptr %f, ptr %f.dbg.spill, align 8
  call void @llvm.dbg.declare(metadata ptr %f.dbg.spill, metadata !2568, metadata !DIExpression()), !dbg !2569
  %0 = getelementptr inbounds %"core::str::error::Utf8Error", ptr %self, i32 0, i32 1, !dbg !2570
  store ptr %0, ptr %_10, align 8, !dbg !2570
; call core::fmt::Formatter::debug_struct_field2_finish
  %_0 = call zeroext i1 @_ZN4core3fmt9Formatter26debug_struct_field2_finish17h1f3ee845d6554337E(ptr align 8 %f, ptr align 1 @alloc_8e685ef482aec04a2d7a8ed5ef1228a3, i64 9, ptr align 1 @alloc_f34017a1538f19bf68b6d6294eec0bb3, i64 11, ptr align 1 %self, ptr align 8 @vtable.5, ptr align 1 @alloc_91eca80c47235190e5fbed3d6d8be36c, i64 9, ptr align 1 %_10, ptr align 8 @vtable.7), !dbg !2569
  ret i1 %_0, !dbg !2571
}

; <alloc::vec::Vec<T,A> as core::fmt::Debug>::fmt
; Function Attrs: nonlazybind uwtable
define internal zeroext i1 @"_ZN65_$LT$alloc..vec..Vec$LT$T$C$A$GT$$u20$as$u20$core..fmt..Debug$GT$3fmt17ha46450db2a0aa074E"(ptr align 8 %self, ptr align 8 %f) unnamed_addr #2 !dbg !2572 {
start:
  %data_pointer.dbg.spill = alloca ptr, align 8
  %len.dbg.spill = alloca i64, align 8
  %data.dbg.spill = alloca ptr, align 8
  %self.dbg.spill3 = alloca ptr, align 8
  %self.dbg.spill1 = alloca ptr, align 8
  %f.dbg.spill = alloca ptr, align 8
  %self.dbg.spill = alloca ptr, align 8
  %_13 = alloca %"core::ptr::metadata::PtrComponents<[u8]>", align 8
  %_12 = alloca %"core::ptr::metadata::PtrRepr<[u8]>", align 8
  store ptr %self, ptr %self.dbg.spill, align 8
  call void @llvm.dbg.declare(metadata ptr %self.dbg.spill, metadata !2577, metadata !DIExpression()), !dbg !2579
  call void @llvm.dbg.declare(metadata ptr %self.dbg.spill, metadata !2580, metadata !DIExpression()), !dbg !2584
  call void @llvm.dbg.declare(metadata ptr %self.dbg.spill, metadata !2586, metadata !DIExpression()), !dbg !2590
  store ptr %f, ptr %f.dbg.spill, align 8
  call void @llvm.dbg.declare(metadata ptr %f.dbg.spill, metadata !2578, metadata !DIExpression()), !dbg !2592
  store ptr %self, ptr %self.dbg.spill1, align 8, !dbg !2593
  call void @llvm.dbg.declare(metadata ptr %self.dbg.spill1, metadata !2594, metadata !DIExpression()), !dbg !2598
  %0 = getelementptr inbounds i8, ptr %self, i64 8, !dbg !2600
  %self2 = load ptr, ptr %0, align 8, !dbg !2600, !nonnull !23, !noundef !23
  store ptr %self2, ptr %self.dbg.spill3, align 8, !dbg !2600
  call void @llvm.dbg.declare(metadata ptr %self.dbg.spill3, metadata !2601, metadata !DIExpression()), !dbg !2605
  call void @llvm.dbg.declare(metadata ptr %self.dbg.spill3, metadata !2607, metadata !DIExpression()), !dbg !2611
  store ptr %self2, ptr %data.dbg.spill, align 8, !dbg !2593
  call void @llvm.dbg.declare(metadata ptr %data.dbg.spill, metadata !2613, metadata !DIExpression()), !dbg !2618
  call void @llvm.dbg.declare(metadata ptr %data.dbg.spill, metadata !2620, metadata !DIExpression()), !dbg !2625
  call void @llvm.dbg.declare(metadata ptr %data.dbg.spill, metadata !2627, metadata !DIExpression()), !dbg !2631
  %1 = getelementptr inbounds %"alloc::vec::Vec<u8>", ptr %self, i32 0, i32 1, !dbg !2633
  %len = load i64, ptr %1, align 8, !dbg !2633, !noundef !23
  store i64 %len, ptr %len.dbg.spill, align 8, !dbg !2633
  call void @llvm.dbg.declare(metadata ptr %len.dbg.spill, metadata !2617, metadata !DIExpression()), !dbg !2634
  call void @llvm.dbg.declare(metadata ptr %len.dbg.spill, metadata !2624, metadata !DIExpression()), !dbg !2635
  call void @llvm.dbg.declare(metadata ptr %len.dbg.spill, metadata !2636, metadata !DIExpression()), !dbg !2641
  store ptr %self2, ptr %data_pointer.dbg.spill, align 8, !dbg !2643
  call void @llvm.dbg.declare(metadata ptr %data_pointer.dbg.spill, metadata !2640, metadata !DIExpression()), !dbg !2644
  store ptr %self2, ptr %_13, align 8, !dbg !2645
  %2 = getelementptr inbounds i8, ptr %_13, i64 8, !dbg !2645
  store i64 %len, ptr %2, align 8, !dbg !2645
  %3 = load ptr, ptr %_13, align 8, !dbg !2646, !noundef !23
  %4 = getelementptr inbounds i8, ptr %_13, i64 8, !dbg !2646
  %5 = load i64, ptr %4, align 8, !dbg !2646, !noundef !23
  store ptr %3, ptr %_12, align 8, !dbg !2646
  %6 = getelementptr inbounds i8, ptr %_12, i64 8, !dbg !2646
  store i64 %5, ptr %6, align 8, !dbg !2646
  %_10.0 = load ptr, ptr %_12, align 8, !dbg !2646, !noundef !23
  %7 = getelementptr inbounds i8, ptr %_12, i64 8, !dbg !2646
  %_10.1 = load i64, ptr %7, align 8, !dbg !2646, !noundef !23
; call <[T] as core::fmt::Debug>::fmt
  %_0 = call zeroext i1 @"_ZN48_$LT$$u5b$T$u5d$$u20$as$u20$core..fmt..Debug$GT$3fmt17hd51a57cb3f229f67E"(ptr align 1 %_10.0, i64 %_10.1, ptr align 8 %f), !dbg !2647
  ret i1 %_0, !dbg !2648
}

; <core::option::Option<T> as core::fmt::Debug>::fmt
; Function Attrs: inlinehint nonlazybind uwtable
define internal zeroext i1 @"_ZN66_$LT$core..option..Option$LT$T$GT$$u20$as$u20$core..fmt..Debug$GT$3fmt17h6238fb6c21d28257E"(ptr align 1 %self, ptr align 8 %f) unnamed_addr #0 !dbg !2649 {
start:
  %f.dbg.spill = alloca ptr, align 8
  %self.dbg.spill = alloca ptr, align 8
  %__self_0 = alloca ptr, align 8
  %_0 = alloca i8, align 1
  store ptr %self, ptr %self.dbg.spill, align 8
  call void @llvm.dbg.declare(metadata ptr %self.dbg.spill, metadata !2654, metadata !DIExpression()), !dbg !2658
  store ptr %f, ptr %f.dbg.spill, align 8
  call void @llvm.dbg.declare(metadata ptr %f.dbg.spill, metadata !2655, metadata !DIExpression()), !dbg !2658
  call void @llvm.dbg.declare(metadata ptr %__self_0, metadata !2656, metadata !DIExpression()), !dbg !2659
  %0 = load i8, ptr %self, align 1, !dbg !2658, !range !837, !noundef !23
  %1 = trunc i8 %0 to i1, !dbg !2658
  %_3 = zext i1 %1 to i64, !dbg !2658
  %2 = icmp eq i64 %_3, 0, !dbg !2658
  br i1 %2, label %bb3, label %bb1, !dbg !2658

bb3:                                              ; preds = %start
; call core::fmt::Formatter::write_str
  %3 = call zeroext i1 @_ZN4core3fmt9Formatter9write_str17h4bb7c9399e0c7fb5E(ptr align 8 %f, ptr align 1 @alloc_37d2e53432a03a1f90b3e7253015eaf9, i64 4), !dbg !2658
  %4 = zext i1 %3 to i8, !dbg !2658
  store i8 %4, ptr %_0, align 1, !dbg !2658
  br label %bb5, !dbg !2658

bb1:                                              ; preds = %start
  %5 = getelementptr inbounds i8, ptr %self, i64 1, !dbg !2660
  store ptr %5, ptr %__self_0, align 8, !dbg !2660
; call core::fmt::Formatter::debug_tuple_field1_finish
  %6 = call zeroext i1 @_ZN4core3fmt9Formatter25debug_tuple_field1_finish17hac56ed013e0598f8E(ptr align 8 %f, ptr align 1 @alloc_9535bf4c204f3eb9b19ec2c83e446e52, i64 4, ptr align 1 %__self_0, ptr align 8 @vtable.1), !dbg !2661
  %7 = zext i1 %6 to i8, !dbg !2661
  store i8 %7, ptr %_0, align 1, !dbg !2661
  br label %bb5, !dbg !2662

bb5:                                              ; preds = %bb1, %bb3
  %8 = load i8, ptr %_0, align 1, !dbg !2663, !range !837, !noundef !23
  %9 = trunc i8 %8 to i1, !dbg !2663
  ret i1 %9, !dbg !2663

bb2:                                              ; No predecessors!
  unreachable, !dbg !2658
}

; <alloc::ffi::c_str::CString as core::ops::drop::Drop>::drop
; Function Attrs: inlinehint nonlazybind uwtable
define internal void @"_ZN68_$LT$alloc..ffi..c_str..CString$u20$as$u20$core..ops..drop..Drop$GT$4drop17h8c70eded58cb5a05E"(ptr align 8 %self) unnamed_addr #0 !dbg !2664 {
start:
  %self.dbg.spill3 = alloca ptr, align 8
  %slice.dbg.spill = alloca { ptr, i64 }, align 8
  %self.dbg.spill2 = alloca { ptr, i64 }, align 8
  %self.dbg.spill1 = alloca ptr, align 8
  %count.dbg.spill = alloca i64, align 8
  %self.dbg.spill = alloca i64, align 8
  %index.dbg.spill = alloca i64, align 8
  store i64 0, ptr %index.dbg.spill, align 8, !dbg !2671
  call void @llvm.dbg.declare(metadata ptr %index.dbg.spill, metadata !2683, metadata !DIExpression()), !dbg !2671
  store i64 0, ptr %self.dbg.spill, align 8, !dbg !2687
  call void @llvm.dbg.declare(metadata ptr %self.dbg.spill, metadata !2696, metadata !DIExpression()), !dbg !2687
  store i64 0, ptr %count.dbg.spill, align 8, !dbg !2699
  call void @llvm.dbg.declare(metadata ptr %count.dbg.spill, metadata !2706, metadata !DIExpression()), !dbg !2699
  store ptr %self, ptr %self.dbg.spill1, align 8, !dbg !2699
  call void @llvm.dbg.declare(metadata ptr %self.dbg.spill1, metadata !2670, metadata !DIExpression()), !dbg !2708
  %_2.0 = load ptr, ptr %self, align 8, !dbg !2709, !nonnull !23, !align !543, !noundef !23
  %0 = getelementptr inbounds i8, ptr %self, i64 8, !dbg !2709
  %_2.1 = load i64, ptr %0, align 8, !dbg !2709, !noundef !23
  store ptr %_2.0, ptr %self.dbg.spill2, align 8, !dbg !2709
  %1 = getelementptr inbounds i8, ptr %self.dbg.spill2, i64 8, !dbg !2709
  store i64 %_2.1, ptr %1, align 8, !dbg !2709
  call void @llvm.dbg.declare(metadata ptr %self.dbg.spill2, metadata !2682, metadata !DIExpression()), !dbg !2710
  store ptr %_2.0, ptr %slice.dbg.spill, align 8, !dbg !2711
  %2 = getelementptr inbounds i8, ptr %slice.dbg.spill, i64 8, !dbg !2711
  store i64 %_2.1, ptr %2, align 8, !dbg !2711
  call void @llvm.dbg.declare(metadata ptr %slice.dbg.spill, metadata !2697, metadata !DIExpression()), !dbg !2712
  call void @llvm.dbg.declare(metadata ptr %slice.dbg.spill, metadata !2713, metadata !DIExpression()), !dbg !2720
  store ptr %_2.0, ptr %self.dbg.spill3, align 8, !dbg !2722
  call void @llvm.dbg.declare(metadata ptr %self.dbg.spill3, metadata !2705, metadata !DIExpression()), !dbg !2723
  store i8 0, ptr %_2.0, align 1, !dbg !2724
  ret void, !dbg !2725
}

; <alloc::ffi::c_str::CString as core::ops::deref::Deref>::deref
; Function Attrs: inlinehint nonlazybind uwtable
define internal { ptr, i64 } @"_ZN70_$LT$alloc..ffi..c_str..CString$u20$as$u20$core..ops..deref..Deref$GT$5deref17hf4869c294fbd0c0aE"(ptr align 8 %self) unnamed_addr #0 !dbg !2726 {
start:
  %bytes.dbg.spill = alloca { ptr, i64 }, align 8
  %self.dbg.spill = alloca ptr, align 8
  store ptr %self, ptr %self.dbg.spill, align 8
  call void @llvm.dbg.declare(metadata ptr %self.dbg.spill, metadata !2732, metadata !DIExpression()), !dbg !2733
  call void @llvm.dbg.declare(metadata ptr %self.dbg.spill, metadata !2734, metadata !DIExpression()), !dbg !2741
  %_5.0 = load ptr, ptr %self, align 8, !dbg !2743, !nonnull !23, !noundef !23
  %0 = getelementptr inbounds i8, ptr %self, i64 8, !dbg !2743
  %_5.1 = load i64, ptr %0, align 8, !dbg !2743, !noundef !23
  store ptr %_5.0, ptr %bytes.dbg.spill, align 8, !dbg !2743
  %1 = getelementptr inbounds i8, ptr %bytes.dbg.spill, i64 8, !dbg !2743
  store i64 %_5.1, ptr %1, align 8, !dbg !2743
  call void @llvm.dbg.declare(metadata ptr %bytes.dbg.spill, metadata !2744, metadata !DIExpression()), !dbg !2748
  call void @llvm.dbg.declare(metadata ptr %bytes.dbg.spill, metadata !2750, metadata !DIExpression()), !dbg !2754
  call void @llvm.dbg.declare(metadata ptr %bytes.dbg.spill, metadata !2756, metadata !DIExpression()), !dbg !2760
  %2 = insertvalue { ptr, i64 } poison, ptr %_5.0, 0, !dbg !2762
  %3 = insertvalue { ptr, i64 } %2, i64 %_5.1, 1, !dbg !2762
  ret { ptr, i64 } %3, !dbg !2762
}

; <alloc::vec::Vec<T,A> as core::ops::drop::Drop>::drop
; Function Attrs: nonlazybind uwtable
define internal void @"_ZN70_$LT$alloc..vec..Vec$LT$T$C$A$GT$$u20$as$u20$core..ops..drop..Drop$GT$4drop17h426c5bea8ce88e84E"(ptr align 8 %self) unnamed_addr #2 !dbg !2763 {
start:
  %data_pointer.dbg.spill = alloca ptr, align 8
  %len.dbg.spill = alloca i64, align 8
  %data.dbg.spill = alloca ptr, align 8
  %self.dbg.spill3 = alloca ptr, align 8
  %self.dbg.spill1 = alloca ptr, align 8
  %self.dbg.spill = alloca ptr, align 8
  %_10 = alloca %"core::ptr::metadata::PtrComponents<[u8]>", align 8
  %_9 = alloca %"core::ptr::metadata::PtrRepr<[u8]>", align 8
  store ptr %self, ptr %self.dbg.spill, align 8
  call void @llvm.dbg.declare(metadata ptr %self.dbg.spill, metadata !2768, metadata !DIExpression()), !dbg !2769
  call void @llvm.dbg.declare(metadata ptr %self.dbg.spill, metadata !2770, metadata !DIExpression()), !dbg !2774
  store ptr %self, ptr %self.dbg.spill1, align 8, !dbg !2776
  call void @llvm.dbg.declare(metadata ptr %self.dbg.spill1, metadata !2777, metadata !DIExpression()), !dbg !2781
  %0 = getelementptr inbounds i8, ptr %self, i64 8, !dbg !2783
  %self2 = load ptr, ptr %0, align 8, !dbg !2783, !nonnull !23, !noundef !23
  store ptr %self2, ptr %self.dbg.spill3, align 8, !dbg !2783
  call void @llvm.dbg.declare(metadata ptr %self.dbg.spill3, metadata !2784, metadata !DIExpression()), !dbg !2788
  call void @llvm.dbg.declare(metadata ptr %self.dbg.spill3, metadata !2790, metadata !DIExpression()), !dbg !2794
  store ptr %self2, ptr %data.dbg.spill, align 8, !dbg !2796
  call void @llvm.dbg.declare(metadata ptr %data.dbg.spill, metadata !2797, metadata !DIExpression()), !dbg !2802
  call void @llvm.dbg.declare(metadata ptr %data.dbg.spill, metadata !2804, metadata !DIExpression()), !dbg !2808
  %1 = getelementptr inbounds %"alloc::vec::Vec<u8>", ptr %self, i32 0, i32 1, !dbg !2810
  %len = load i64, ptr %1, align 8, !dbg !2810, !noundef !23
  store i64 %len, ptr %len.dbg.spill, align 8, !dbg !2810
  call void @llvm.dbg.declare(metadata ptr %len.dbg.spill, metadata !2801, metadata !DIExpression()), !dbg !2811
  call void @llvm.dbg.declare(metadata ptr %len.dbg.spill, metadata !2812, metadata !DIExpression()), !dbg !2817
  store ptr %self2, ptr %data_pointer.dbg.spill, align 8, !dbg !2819
  call void @llvm.dbg.declare(metadata ptr %data_pointer.dbg.spill, metadata !2816, metadata !DIExpression()), !dbg !2820
  store ptr %self2, ptr %_10, align 8, !dbg !2821
  %2 = getelementptr inbounds i8, ptr %_10, i64 8, !dbg !2821
  store i64 %len, ptr %2, align 8, !dbg !2821
  %3 = load ptr, ptr %_10, align 8, !dbg !2822, !noundef !23
  %4 = getelementptr inbounds i8, ptr %_10, i64 8, !dbg !2822
  %5 = load i64, ptr %4, align 8, !dbg !2822, !noundef !23
  store ptr %3, ptr %_9, align 8, !dbg !2822
  %6 = getelementptr inbounds i8, ptr %_9, i64 8, !dbg !2822
  store i64 %5, ptr %6, align 8, !dbg !2822
  %_2.0 = load ptr, ptr %_9, align 8, !dbg !2822, !noundef !23
  %7 = getelementptr inbounds i8, ptr %_9, i64 8, !dbg !2822
  %_2.1 = load i64, ptr %7, align 8, !dbg !2822, !noundef !23
  ret void, !dbg !2823
}

; <alloc::boxed::Box<T,A> as core::ops::drop::Drop>::drop
; Function Attrs: inlinehint nonlazybind uwtable
define internal void @"_ZN72_$LT$alloc..boxed..Box$LT$T$C$A$GT$$u20$as$u20$core..ops..drop..Drop$GT$4drop17h7cc951d2d31e191cE"(ptr align 8 %self) unnamed_addr #0 !dbg !2824 {
start:
  %ptr.dbg.spill5 = alloca ptr, align 8
  %ptr.dbg.spill4 = alloca ptr, align 8
  %ptr.dbg.spill3 = alloca ptr, align 8
  %self.dbg.spill2 = alloca ptr, align 8
  %align.dbg.spill = alloca i64, align 8
  %0 = alloca i64, align 8
  %size.dbg.spill = alloca i64, align 8
  %1 = alloca i64, align 8
  %t.dbg.spill = alloca { ptr, i64 }, align 8
  %ptr.dbg.spill = alloca %"core::ptr::non_null::NonNull<[u8]>", align 8
  %self.dbg.spill = alloca ptr, align 8
  %unique = alloca ptr, align 8
  %self1 = alloca ptr, align 8
  %_9 = alloca ptr, align 8
  %layout = alloca %"core::alloc::layout::Layout", align 8
  store ptr %self, ptr %self.dbg.spill, align 8
  call void @llvm.dbg.declare(metadata ptr %self.dbg.spill, metadata !2832, metadata !DIExpression()), !dbg !2842
  call void @llvm.dbg.declare(metadata ptr %layout, metadata !2840, metadata !DIExpression()), !dbg !2843
  call void @llvm.dbg.declare(metadata ptr %self1, metadata !2844, metadata !DIExpression()), !dbg !2850
  call void @llvm.dbg.declare(metadata ptr %unique, metadata !2860, metadata !DIExpression()), !dbg !2864
  call void @llvm.dbg.declare(metadata ptr %unique, metadata !2866, metadata !DIExpression()), !dbg !2870
  call void @llvm.dbg.declare(metadata ptr %unique, metadata !2848, metadata !DIExpression()), !dbg !2872
  %ptr.0 = load ptr, ptr %self, align 8, !dbg !2874, !nonnull !23, !noundef !23
  %2 = getelementptr inbounds i8, ptr %self, i64 8, !dbg !2874
  %ptr.1 = load i64, ptr %2, align 8, !dbg !2874, !noundef !23
  store ptr %ptr.0, ptr %ptr.dbg.spill, align 8, !dbg !2874
  %3 = getelementptr inbounds i8, ptr %ptr.dbg.spill, i64 8, !dbg !2874
  store i64 %ptr.1, ptr %3, align 8, !dbg !2874
  call void @llvm.dbg.declare(metadata ptr %ptr.dbg.spill, metadata !2833, metadata !DIExpression()), !dbg !2875
  call void @llvm.dbg.declare(metadata ptr %ptr.dbg.spill, metadata !2876, metadata !DIExpression()), !dbg !2883
  call void @llvm.dbg.declare(metadata ptr %ptr.dbg.spill, metadata !2885, metadata !DIExpression()), !dbg !2891
  call void @llvm.dbg.declare(metadata ptr %ptr.dbg.spill, metadata !2858, metadata !DIExpression()), !dbg !2893
  call void @llvm.dbg.declare(metadata ptr %ptr.dbg.spill, metadata !2894, metadata !DIExpression()), !dbg !2898
  call void @llvm.dbg.declare(metadata ptr %ptr.dbg.spill, metadata !2889, metadata !DIExpression()), !dbg !2900
  store ptr %ptr.0, ptr %t.dbg.spill, align 8, !dbg !2902
  %4 = getelementptr inbounds i8, ptr %t.dbg.spill, i64 8, !dbg !2902
  store i64 %ptr.1, ptr %4, align 8, !dbg !2902
  call void @llvm.dbg.declare(metadata ptr %t.dbg.spill, metadata !2903, metadata !DIExpression()), !dbg !2913
  call void @llvm.dbg.declare(metadata ptr %t.dbg.spill, metadata !2915, metadata !DIExpression()), !dbg !2921
  call void @llvm.dbg.declare(metadata ptr %t.dbg.spill, metadata !2923, metadata !DIExpression()), !dbg !2927
  %5 = mul nsw i64 %ptr.1, 1, !dbg !2929
  store i64 %5, ptr %1, align 8, !dbg !2929
  %size = load i64, ptr %1, align 8, !dbg !2929, !noundef !23
  store i64 %size, ptr %size.dbg.spill, align 8, !dbg !2929
  call void @llvm.dbg.declare(metadata ptr %size.dbg.spill, metadata !2910, metadata !DIExpression()), !dbg !2930
  call void @llvm.dbg.declare(metadata ptr %size.dbg.spill, metadata !2931, metadata !DIExpression()), !dbg !2936
  %6 = mul nsw i64 %ptr.1, 1, !dbg !2938
  store i64 1, ptr %0, align 8, !dbg !2938
  %align = load i64, ptr %0, align 8, !dbg !2938, !noundef !23
  store i64 %align, ptr %align.dbg.spill, align 8, !dbg !2938
  call void @llvm.dbg.declare(metadata ptr %align.dbg.spill, metadata !2912, metadata !DIExpression()), !dbg !2939
  call void @llvm.dbg.declare(metadata ptr %align.dbg.spill, metadata !2935, metadata !DIExpression()), !dbg !2940
  call void @llvm.dbg.declare(metadata ptr %align.dbg.spill, metadata !2941, metadata !DIExpression()), !dbg !2945
  %7 = getelementptr inbounds i8, ptr %layout, i64 8, !dbg !2947
  store i64 %size, ptr %7, align 8, !dbg !2947
  store i64 %align, ptr %layout, align 8, !dbg !2947
  store ptr %layout, ptr %self.dbg.spill2, align 8, !dbg !2948
  call void @llvm.dbg.declare(metadata ptr %self.dbg.spill2, metadata !2949, metadata !DIExpression()), !dbg !2953
  %8 = getelementptr inbounds i8, ptr %layout, i64 8, !dbg !2955
  %_5 = load i64, ptr %8, align 8, !dbg !2955, !noundef !23
  %9 = icmp eq i64 %_5, 0, !dbg !2948
  br i1 %9, label %bb3, label %bb1, !dbg !2948

bb3:                                              ; preds = %start
  br label %bb4, !dbg !2956

bb1:                                              ; preds = %start
  %_8 = getelementptr inbounds i8, ptr %self, i64 16, !dbg !2957
  store ptr %ptr.0, ptr %ptr.dbg.spill3, align 8, !dbg !2958
  call void @llvm.dbg.declare(metadata ptr %ptr.dbg.spill3, metadata !2959, metadata !DIExpression()), !dbg !2967
  store ptr %ptr.0, ptr %self1, align 8, !dbg !2969
  store ptr %ptr.0, ptr %ptr.dbg.spill4, align 8, !dbg !2970
  call void @llvm.dbg.declare(metadata ptr %ptr.dbg.spill4, metadata !2971, metadata !DIExpression()), !dbg !2975
  call void @llvm.dbg.declare(metadata ptr %ptr.dbg.spill4, metadata !2963, metadata !DIExpression()), !dbg !2977
  store ptr %ptr.0, ptr %unique, align 8, !dbg !2979
  store ptr %ptr.0, ptr %ptr.dbg.spill5, align 8, !dbg !2980
  call void @llvm.dbg.declare(metadata ptr %ptr.dbg.spill5, metadata !2965, metadata !DIExpression()), !dbg !2981
  store ptr %ptr.0, ptr %_9, align 8, !dbg !2983
  %_10.0 = load i64, ptr %layout, align 8, !dbg !2984, !range !1234, !noundef !23
  %10 = getelementptr inbounds i8, ptr %layout, i64 8, !dbg !2984
  %_10.1 = load i64, ptr %10, align 8, !dbg !2984, !noundef !23
  %11 = load ptr, ptr %_9, align 8, !dbg !2957, !nonnull !23, !noundef !23
; call <alloc::alloc::Global as core::alloc::Allocator>::deallocate
  call void @"_ZN63_$LT$alloc..alloc..Global$u20$as$u20$core..alloc..Allocator$GT$10deallocate17h00e43e1e65690183E"(ptr align 1 %_8, ptr %11, i64 %_10.0, i64 %_10.1), !dbg !2957
  br label %bb4, !dbg !2956

bb4:                                              ; preds = %bb1, %bb3
  ret void, !dbg !2985
}

; <alloc::string::String as core::convert::From<&str>>::from
; Function Attrs: inlinehint nonlazybind uwtable
define internal void @"_ZN76_$LT$alloc..string..String$u20$as$u20$core..convert..From$LT$$RF$str$GT$$GT$4from17h5fa1088cc6dd5032E"(ptr sret(%"alloc::string::String") align 8 %_0, ptr align 1 %s.0, i64 %s.1) unnamed_addr #0 !dbg !2986 {
start:
  %self.dbg.spill9 = alloca ptr, align 8
  %dest.dbg.spill = alloca ptr, align 8
  %self.dbg.spill8 = alloca ptr, align 8
  %self.dbg.spill7 = alloca ptr, align 8
  %self.dbg.spill6 = alloca ptr, align 8
  %self.dbg.spill5 = alloca ptr, align 8
  %capacity.dbg.spill = alloca i64, align 8
  %self.dbg.spill = alloca { ptr, i64 }, align 8
  %s.dbg.spill = alloca { ptr, i64 }, align 8
  %v = alloca %"alloc::vec::Vec<u8>", align 8
  %bytes = alloca %"alloc::vec::Vec<u8>", align 8
  %alloc.dbg.spill4 = alloca %"alloc::alloc::Global", align 1
  %alloc.dbg.spill3 = alloca %"alloc::alloc::Global", align 1
  %alloc.dbg.spill2 = alloca %"alloc::alloc::Global", align 1
  %alloc.dbg.spill1 = alloca %"alloc::alloc::Global", align 1
  %alloc.dbg.spill = alloca %"alloc::alloc::Global", align 1
  call void @llvm.dbg.declare(metadata ptr %alloc.dbg.spill, metadata !2990, metadata !DIExpression()), !dbg !2995
  call void @llvm.dbg.declare(metadata ptr %alloc.dbg.spill1, metadata !3012, metadata !DIExpression()), !dbg !3017
  call void @llvm.dbg.declare(metadata ptr %alloc.dbg.spill2, metadata !3019, metadata !DIExpression()), !dbg !3026
  call void @llvm.dbg.declare(metadata ptr %alloc.dbg.spill3, metadata !3028, metadata !DIExpression()), !dbg !3033
  call void @llvm.dbg.declare(metadata ptr %alloc.dbg.spill4, metadata !3035, metadata !DIExpression()), !dbg !3040
  store ptr %s.0, ptr %s.dbg.spill, align 8, !dbg !3040
  %0 = getelementptr inbounds i8, ptr %s.dbg.spill, i64 8, !dbg !3040
  store i64 %s.1, ptr %0, align 8, !dbg !3040
  call void @llvm.dbg.declare(metadata ptr %s.dbg.spill, metadata !2989, metadata !DIExpression()), !dbg !3042
  call void @llvm.dbg.declare(metadata ptr %s.dbg.spill, metadata !3010, metadata !DIExpression()), !dbg !3043
  call void @llvm.dbg.declare(metadata ptr %s.dbg.spill, metadata !3044, metadata !DIExpression()), !dbg !3048
  call void @llvm.dbg.declare(metadata ptr %bytes, metadata !3050, metadata !DIExpression()), !dbg !3054
  call void @llvm.dbg.declare(metadata ptr %v, metadata !3024, metadata !DIExpression()), !dbg !3056
  store ptr %s.0, ptr %self.dbg.spill, align 8, !dbg !3057
  %1 = getelementptr inbounds i8, ptr %self.dbg.spill, i64 8, !dbg !3057
  store i64 %s.1, ptr %1, align 8, !dbg !3057
  call void @llvm.dbg.declare(metadata ptr %self.dbg.spill, metadata !3005, metadata !DIExpression()), !dbg !3058
  call void @llvm.dbg.declare(metadata ptr %self.dbg.spill, metadata !3000, metadata !DIExpression()), !dbg !3059
  call void @llvm.dbg.declare(metadata ptr %self.dbg.spill, metadata !2994, metadata !DIExpression()), !dbg !3060
  call void @llvm.dbg.declare(metadata ptr %self.dbg.spill, metadata !3016, metadata !DIExpression()), !dbg !3061
  call void @llvm.dbg.declare(metadata ptr %self.dbg.spill, metadata !3023, metadata !DIExpression()), !dbg !3062
  call void @llvm.dbg.declare(metadata ptr %self.dbg.spill, metadata !3063, metadata !DIExpression()), !dbg !3067
  store i64 %s.1, ptr %capacity.dbg.spill, align 8, !dbg !3069
  call void @llvm.dbg.declare(metadata ptr %capacity.dbg.spill, metadata !3032, metadata !DIExpression()), !dbg !3070
  call void @llvm.dbg.declare(metadata ptr %capacity.dbg.spill, metadata !3039, metadata !DIExpression()), !dbg !3071
  call void @llvm.dbg.declare(metadata ptr %capacity.dbg.spill, metadata !3072, metadata !DIExpression()), !dbg !3078
  call void @llvm.dbg.declare(metadata ptr %capacity.dbg.spill, metadata !3080, metadata !DIExpression()), !dbg !3086
  call void @llvm.dbg.declare(metadata ptr %capacity.dbg.spill, metadata !3088, metadata !DIExpression()), !dbg !3093
; call alloc::raw_vec::RawVec<T,A>::allocate_in
  %2 = call { i64, ptr } @"_ZN5alloc7raw_vec19RawVec$LT$T$C$A$GT$11allocate_in17h007e8709959f68fdE"(i64 %s.1, i1 zeroext false), !dbg !3095
  %_10.0 = extractvalue { i64, ptr } %2, 0, !dbg !3095
  %_10.1 = extractvalue { i64, ptr } %2, 1, !dbg !3095
  store i64 %_10.0, ptr %v, align 8, !dbg !3096
  %3 = getelementptr inbounds i8, ptr %v, i64 8, !dbg !3096
  store ptr %_10.1, ptr %3, align 8, !dbg !3096
  %4 = getelementptr inbounds %"alloc::vec::Vec<u8>", ptr %v, i32 0, i32 1, !dbg !3096
  store i64 0, ptr %4, align 8, !dbg !3096
  store ptr %s.0, ptr %self.dbg.spill5, align 8, !dbg !3097
  call void @llvm.dbg.declare(metadata ptr %self.dbg.spill5, metadata !3076, metadata !DIExpression()), !dbg !3098
  call void @llvm.dbg.declare(metadata ptr %self.dbg.spill5, metadata !3084, metadata !DIExpression()), !dbg !3099
  store ptr %v, ptr %self.dbg.spill6, align 8, !dbg !3100
  call void @llvm.dbg.declare(metadata ptr %self.dbg.spill6, metadata !3101, metadata !DIExpression()), !dbg !3105
  store ptr %v, ptr %self.dbg.spill7, align 8, !dbg !3107
  call void @llvm.dbg.declare(metadata ptr %self.dbg.spill7, metadata !3108, metadata !DIExpression()), !dbg !3112
  %5 = getelementptr inbounds i8, ptr %v, i64 8, !dbg !3114
  %self = load ptr, ptr %5, align 8, !dbg !3114, !nonnull !23, !noundef !23
  store ptr %self, ptr %self.dbg.spill8, align 8, !dbg !3114
  call void @llvm.dbg.declare(metadata ptr %self.dbg.spill8, metadata !3115, metadata !DIExpression()), !dbg !3119
  call void @llvm.dbg.declare(metadata ptr %self.dbg.spill8, metadata !3121, metadata !DIExpression()), !dbg !3125
  store ptr %self, ptr %dest.dbg.spill, align 8, !dbg !3127
  call void @llvm.dbg.declare(metadata ptr %dest.dbg.spill, metadata !3077, metadata !DIExpression()), !dbg !3128
  call void @llvm.dbg.declare(metadata ptr %dest.dbg.spill, metadata !3085, metadata !DIExpression()), !dbg !3129
  %6 = mul i64 %s.1, 1, !dbg !3130
  call void @llvm.memcpy.p0.p0.i64(ptr align 1 %self, ptr align 1 %s.0, i64 %6, i1 false), !dbg !3130
  store ptr %v, ptr %self.dbg.spill9, align 8, !dbg !3131
  call void @llvm.dbg.declare(metadata ptr %self.dbg.spill9, metadata !3092, metadata !DIExpression()), !dbg !3132
  call void @llvm.dbg.declare(metadata ptr %self.dbg.spill9, metadata !3133, metadata !DIExpression()), !dbg !3137
  %7 = getelementptr inbounds %"alloc::vec::Vec<u8>", ptr %v, i32 0, i32 1, !dbg !3139
  store i64 %s.1, ptr %7, align 8, !dbg !3139
  call void @llvm.memcpy.p0.p0.i64(ptr align 8 %bytes, ptr align 8 %v, i64 24, i1 false), !dbg !3140
  call void @llvm.memcpy.p0.p0.i64(ptr align 8 %_0, ptr align 8 %bytes, i64 24, i1 false), !dbg !3141
  ret void, !dbg !3142
}

; <alloc::raw_vec::RawVec<T,A> as core::ops::drop::Drop>::drop
; Function Attrs: nonlazybind uwtable
define internal void @"_ZN77_$LT$alloc..raw_vec..RawVec$LT$T$C$A$GT$$u20$as$u20$core..ops..drop..Drop$GT$4drop17h46af2febe3c3bdaaE"(ptr align 8 %self) unnamed_addr #2 !dbg !3143 {
start:
  %layout.dbg.spill = alloca %"core::alloc::layout::Layout", align 8
  %ptr.dbg.spill = alloca ptr, align 8
  %self.dbg.spill = alloca ptr, align 8
  %_2 = alloca %"core::option::Option<(core::ptr::non_null::NonNull<u8>, core::alloc::layout::Layout)>", align 8
  store ptr %self, ptr %self.dbg.spill, align 8
  call void @llvm.dbg.declare(metadata ptr %self.dbg.spill, metadata !3149, metadata !DIExpression()), !dbg !3153
; call alloc::raw_vec::RawVec<T,A>::current_memory
  call void @"_ZN5alloc7raw_vec19RawVec$LT$T$C$A$GT$14current_memory17hebed8b75df2cc79eE"(ptr sret(%"core::option::Option<(core::ptr::non_null::NonNull<u8>, core::alloc::layout::Layout)>") align 8 %_2, ptr align 8 %self), !dbg !3154
  %0 = getelementptr inbounds %"core::option::Option<(core::ptr::non_null::NonNull<u8>, core::alloc::layout::Layout)>", ptr %_2, i32 0, i32 1, !dbg !3155
  %1 = load i64, ptr %0, align 8, !dbg !3155, !range !1256, !noundef !23
  %2 = icmp eq i64 %1, 0, !dbg !3155
  %_4 = select i1 %2, i64 0, i64 1, !dbg !3155
  %3 = icmp eq i64 %_4, 1, !dbg !3155
  br i1 %3, label %bb2, label %bb4, !dbg !3155

bb2:                                              ; preds = %start
  %ptr = load ptr, ptr %_2, align 8, !dbg !3156, !nonnull !23, !noundef !23
  store ptr %ptr, ptr %ptr.dbg.spill, align 8, !dbg !3156
  call void @llvm.dbg.declare(metadata ptr %ptr.dbg.spill, metadata !3150, metadata !DIExpression()), !dbg !3156
  %4 = getelementptr inbounds { ptr, %"core::alloc::layout::Layout" }, ptr %_2, i32 0, i32 1, !dbg !3157
  %layout.0 = load i64, ptr %4, align 8, !dbg !3157, !range !1234, !noundef !23
  %5 = getelementptr inbounds i8, ptr %4, i64 8, !dbg !3157
  %layout.1 = load i64, ptr %5, align 8, !dbg !3157, !noundef !23
  store i64 %layout.0, ptr %layout.dbg.spill, align 8, !dbg !3157
  %6 = getelementptr inbounds i8, ptr %layout.dbg.spill, i64 8, !dbg !3157
  store i64 %layout.1, ptr %6, align 8, !dbg !3157
  call void @llvm.dbg.declare(metadata ptr %layout.dbg.spill, metadata !3152, metadata !DIExpression()), !dbg !3157
  %_7 = getelementptr inbounds i8, ptr %self, i64 16, !dbg !3158
; call <alloc::alloc::Global as core::alloc::Allocator>::deallocate
  call void @"_ZN63_$LT$alloc..alloc..Global$u20$as$u20$core..alloc..Allocator$GT$10deallocate17h00e43e1e65690183E"(ptr align 1 %_7, ptr %ptr, i64 %layout.0, i64 %layout.1), !dbg !3158
  br label %bb4, !dbg !3159

bb4:                                              ; preds = %bb2, %start
  ret void, !dbg !3160
}

; <core::slice::iter::Iter<T> as core::iter::traits::iterator::Iterator>::next
; Function Attrs: inlinehint nonlazybind uwtable
define internal align 1 ptr @"_ZN91_$LT$core..slice..iter..Iter$LT$T$GT$$u20$as$u20$core..iter..traits..iterator..Iterator$GT$4next17h0d790b559119d83cE"(ptr align 8 %self) unnamed_addr #0 !dbg !3161 {
start:
  %self.dbg.spill22 = alloca ptr, align 8
  %self.dbg.spill21 = alloca ptr, align 8
  %self.dbg.spill19 = alloca ptr, align 8
  %self.dbg.spill18 = alloca i64, align 8
  %len.dbg.spill16 = alloca ptr, align 8
  %self.dbg.spill15 = alloca ptr, align 8
  %self.dbg.spill13 = alloca ptr, align 8
  %_end.dbg.spill = alloca ptr, align 8
  %self.dbg.spill11 = alloca ptr, align 8
  %len.dbg.spill = alloca i64, align 8
  %self.dbg.spill9 = alloca ptr, align 8
  %self.dbg.spill7 = alloca ptr, align 8
  %self.dbg.spill5 = alloca ptr, align 8
  %other.dbg.spill = alloca ptr, align 8
  %self.dbg.spill3 = alloca ptr, align 8
  %self.dbg.spill2 = alloca ptr, align 8
  %self.dbg.spill = alloca ptr, align 8
  %_28 = alloca ptr, align 8
  %old = alloca ptr, align 8
  %end = alloca ptr, align 8
  %_2 = alloca i8, align 1
  %_0 = alloca ptr, align 8
  %count.dbg.spill = alloca i64, align 8
  %rhs.dbg.spill = alloca i64, align 8
  %offset.dbg.spill = alloca i64, align 8
  store i64 1, ptr %offset.dbg.spill, align 8, !dbg !3184
  call void @llvm.dbg.declare(metadata ptr %offset.dbg.spill, metadata !3192, metadata !DIExpression()), !dbg !3184
  store i64 1, ptr %rhs.dbg.spill, align 8, !dbg !3201
  call void @llvm.dbg.declare(metadata ptr %rhs.dbg.spill, metadata !3207, metadata !DIExpression()), !dbg !3201
  store i64 1, ptr %count.dbg.spill, align 8, !dbg !3209
  call void @llvm.dbg.declare(metadata ptr %count.dbg.spill, metadata !3217, metadata !DIExpression()), !dbg !3209
  store ptr %self, ptr %self.dbg.spill, align 8, !dbg !3209
  call void @llvm.dbg.declare(metadata ptr %self.dbg.spill, metadata !3179, metadata !DIExpression()), !dbg !3219
  call void @llvm.dbg.declare(metadata ptr %self.dbg.spill, metadata !3191, metadata !DIExpression()), !dbg !3220
  call void @llvm.dbg.declare(metadata ptr %end, metadata !3182, metadata !DIExpression()), !dbg !3221
  call void @llvm.dbg.declare(metadata ptr %old, metadata !3193, metadata !DIExpression()), !dbg !3222
  br i1 false, label %bb1, label %bb2, !dbg !3223

bb2:                                              ; preds = %start
  %self1 = getelementptr inbounds i8, ptr %self, i64 8, !dbg !3223
  store ptr %self1, ptr %self.dbg.spill2, align 8, !dbg !3223
  call void @llvm.dbg.declare(metadata ptr %self.dbg.spill2, metadata !3224, metadata !DIExpression()), !dbg !3233
  %0 = load ptr, ptr %self1, align 8, !dbg !3223, !nonnull !23, !noundef !23
  store ptr %0, ptr %end, align 8, !dbg !3223
  store ptr %self, ptr %self.dbg.spill3, align 8, !dbg !3221
  call void @llvm.dbg.declare(metadata ptr %self.dbg.spill3, metadata !3235, metadata !DIExpression()), !dbg !3244
  store ptr %end, ptr %other.dbg.spill, align 8, !dbg !3221
  call void @llvm.dbg.declare(metadata ptr %other.dbg.spill, metadata !3243, metadata !DIExpression()), !dbg !3246
  %self4 = load ptr, ptr %self, align 8, !dbg !3247, !nonnull !23, !noundef !23
  store ptr %self4, ptr %self.dbg.spill5, align 8, !dbg !3247
  call void @llvm.dbg.declare(metadata ptr %self.dbg.spill5, metadata !3248, metadata !DIExpression()), !dbg !3256
  %self6 = load ptr, ptr %end, align 8, !dbg !3258, !nonnull !23, !noundef !23
  store ptr %self6, ptr %self.dbg.spill7, align 8, !dbg !3258
  call void @llvm.dbg.declare(metadata ptr %self.dbg.spill7, metadata !3252, metadata !DIExpression()), !dbg !3259
  %1 = icmp eq ptr %self4, %self6, !dbg !3247
  %2 = zext i1 %1 to i8, !dbg !3247
  store i8 %2, ptr %_2, align 1, !dbg !3247
  br label %bb3, !dbg !3223

bb1:                                              ; preds = %start
  %3 = getelementptr inbounds i8, ptr %self, i64 8, !dbg !3223
  %self8 = load ptr, ptr %3, align 8, !dbg !3223, !noundef !23
  store ptr %self8, ptr %self.dbg.spill9, align 8, !dbg !3223
  call void @llvm.dbg.declare(metadata ptr %self.dbg.spill9, metadata !3261, metadata !DIExpression()), !dbg !3267
  call void @llvm.dbg.declare(metadata ptr %self.dbg.spill9, metadata !3269, metadata !DIExpression()), !dbg !3273
  %len = ptrtoint ptr %self8 to i64, !dbg !3275
  store i64 %len, ptr %len.dbg.spill, align 8, !dbg !3275
  call void @llvm.dbg.declare(metadata ptr %len.dbg.spill, metadata !3180, metadata !DIExpression()), !dbg !3276
  %4 = icmp eq i64 %len, 0, !dbg !3276
  %5 = zext i1 %4 to i8, !dbg !3276
  store i8 %5, ptr %_2, align 1, !dbg !3276
  br label %bb3, !dbg !3223

bb3:                                              ; preds = %bb1, %bb2
  %6 = load i8, ptr %_2, align 1, !dbg !3223, !range !837, !noundef !23
  %7 = trunc i8 %6 to i1, !dbg !3223
  br i1 %7, label %bb4, label %bb5, !dbg !3223

bb5:                                              ; preds = %bb3
  %8 = load ptr, ptr %self, align 8, !dbg !3277, !nonnull !23, !noundef !23
  store ptr %8, ptr %old, align 8, !dbg !3277
  br i1 false, label %bb7, label %bb8, !dbg !3278

bb4:                                              ; preds = %bb3
  store ptr null, ptr %_0, align 8, !dbg !3279
  br label %bb6, !dbg !3280

bb8:                                              ; preds = %bb5
  %self10 = getelementptr inbounds i8, ptr %self, i64 8, !dbg !3278
  store ptr %self10, ptr %self.dbg.spill11, align 8, !dbg !3278
  call void @llvm.dbg.declare(metadata ptr %self.dbg.spill11, metadata !3281, metadata !DIExpression()), !dbg !3288
  store ptr %self10, ptr %_end.dbg.spill, align 8, !dbg !3290
  call void @llvm.dbg.declare(metadata ptr %_end.dbg.spill, metadata !3197, metadata !DIExpression()), !dbg !3291
  %self12 = load ptr, ptr %self, align 8, !dbg !3292, !nonnull !23, !noundef !23
  store ptr %self12, ptr %self.dbg.spill13, align 8, !dbg !3292
  call void @llvm.dbg.declare(metadata ptr %self.dbg.spill13, metadata !3216, metadata !DIExpression()), !dbg !3293
  %_30 = getelementptr inbounds i8, ptr %self12, i64 1, !dbg !3294
  store ptr %_30, ptr %_28, align 8, !dbg !3295
  %9 = load ptr, ptr %_28, align 8, !dbg !3296, !nonnull !23, !noundef !23
  store ptr %9, ptr %self, align 8, !dbg !3296
  br label %bb9, !dbg !3278

bb7:                                              ; preds = %bb5
  %self14 = getelementptr inbounds i8, ptr %self, i64 8, !dbg !3278
  store ptr %self14, ptr %self.dbg.spill15, align 8, !dbg !3278
  call void @llvm.dbg.declare(metadata ptr %self.dbg.spill15, metadata !3297, metadata !DIExpression()), !dbg !3305
  store ptr %self14, ptr %len.dbg.spill16, align 8, !dbg !3307
  call void @llvm.dbg.declare(metadata ptr %len.dbg.spill16, metadata !3195, metadata !DIExpression()), !dbg !3308
  %self17 = load i64, ptr %self14, align 8, !dbg !3309, !noundef !23
  store i64 %self17, ptr %self.dbg.spill18, align 8, !dbg !3309
  call void @llvm.dbg.declare(metadata ptr %self.dbg.spill18, metadata !3206, metadata !DIExpression()), !dbg !3201
  %_24 = sub nuw i64 %self17, 1, !dbg !3201
  store i64 %_24, ptr %self14, align 8, !dbg !3310
  br label %bb9, !dbg !3278

bb9:                                              ; preds = %bb7, %bb8
  store ptr %old, ptr %self.dbg.spill19, align 8, !dbg !3311
  call void @llvm.dbg.declare(metadata ptr %self.dbg.spill19, metadata !3312, metadata !DIExpression()), !dbg !3319
  %self20 = load ptr, ptr %old, align 8, !dbg !3321, !nonnull !23, !noundef !23
  store ptr %self20, ptr %self.dbg.spill21, align 8, !dbg !3321
  call void @llvm.dbg.declare(metadata ptr %self.dbg.spill21, metadata !3254, metadata !DIExpression()), !dbg !3322
  store ptr %self20, ptr %self.dbg.spill22, align 8, !dbg !3324
  call void @llvm.dbg.declare(metadata ptr %self.dbg.spill22, metadata !3325, metadata !DIExpression()), !dbg !3331
  store ptr %self20, ptr %_0, align 8, !dbg !3333
  br label %bb6, !dbg !3280

bb6:                                              ; preds = %bb4, %bb9
  %10 = load ptr, ptr %_0, align 8, !dbg !3334, !align !543, !noundef !23
  ret ptr %10, !dbg !3334
}

; wrapper::dummy_func
; Function Attrs: nonlazybind uwtable
define internal ptr @_ZN7wrapper10dummy_func17h7dfa3aa55559726fE(ptr %input) unnamed_addr #2 !dbg !3335 {
start:
  %input.dbg.spill = alloca ptr, align 8
  %_3 = alloca %"core::fmt::Arguments<'_>", align 8
  store ptr %input, ptr %input.dbg.spill, align 8
  call void @llvm.dbg.declare(metadata ptr %input.dbg.spill, metadata !3340, metadata !DIExpression()), !dbg !3341
; call core::fmt::Arguments::new_const
  call void @_ZN4core3fmt9Arguments9new_const17hd277b65440708b0bE(ptr sret(%"core::fmt::Arguments<'_>") align 8 %_3, ptr align 8 @alloc_0fe99d85c0e3bef8dc23b9a48c1b75aa, i64 1), !dbg !3342
; call std::io::stdio::_print
  call void @_ZN3std2io5stdio6_print17hc62f134794ba50d8E(ptr align 8 %_3), !dbg !3342
  ret ptr %input, !dbg !3343
}

; wrapper::callee_rust_to_c
; Function Attrs: nonlazybind uwtable
define internal void @_ZN7wrapper16callee_rust_to_c17hdc438836ffbc04feE(ptr sret(%"alloc::string::String") align 8 %output, ptr align 8 %input) unnamed_addr #2 personality ptr @rust_eh_personality !dbg !3344 {
start:
  %0 = alloca { ptr, i32, [1 x i32] }, align 8
  %t.dbg.spill.i2 = alloca { ptr, i64 }, align 8
  %e.i3 = alloca %"core::str::error::Utf8Error", align 8
  %1 = alloca { ptr, i32, [1 x i32] }, align 8
  %t.dbg.spill.i = alloca %"alloc::ffi::c_str::CString", align 8
  %e.i = alloca %"alloc::ffi::c_str::NulError", align 8
  %output_c.dbg.spill = alloca ptr, align 8
  %input_c.dbg.spill = alloca ptr, align 8
  %2 = alloca { ptr, i32, [1 x i32] }, align 8
  %_11 = alloca %"core::result::Result<&str, core::str::error::Utf8Error>", align 8
  %_3 = alloca %"core::result::Result<alloc::ffi::c_str::CString, alloc::ffi::c_str::NulError>", align 8
  %input_cstring = alloca %"alloc::ffi::c_str::CString", align 8
  call void @llvm.dbg.declare(metadata ptr %output, metadata !3355, metadata !DIExpression()), !dbg !3357
  call void @llvm.dbg.declare(metadata ptr %input, metadata !3348, metadata !DIExpression()), !dbg !3358
  call void @llvm.dbg.declare(metadata ptr %input_cstring, metadata !3349, metadata !DIExpression()), !dbg !3359
; invoke <alloc::string::String as core::ops::index::Index<core::ops::range::RangeFull>>::index
  %3 = invoke { ptr, i64 } @"_ZN100_$LT$alloc..string..String$u20$as$u20$core..ops..index..Index$LT$core..ops..range..RangeFull$GT$$GT$5index17h05742f8aa5f0e50eE"(ptr align 8 %input, ptr align 8 @alloc_5d3f733e000ee0470b4ef4568e644261)
          to label %bb1 unwind label %cleanup, !dbg !3360

bb14:                                             ; preds = %bb13, %cleanup.body
; invoke core::ptr::drop_in_place<alloc::string::String>
  invoke void @"_ZN4core3ptr42drop_in_place$LT$alloc..string..String$GT$17h1dcc338f5a7d9f0aE"(ptr align 8 %input) #16
          to label %bb15 unwind label %terminate, !dbg !3361

cleanup:                                          ; preds = %bb10, %bb1, %start
  %4 = landingpad { ptr, i32 }
          cleanup
  br label %cleanup.body

cleanup.body:                                     ; preds = %bb5.i, %cleanup
  %eh.lpad-body = phi { ptr, i32 } [ %4, %cleanup ], [ %21, %bb5.i ]
  %5 = extractvalue { ptr, i32 } %eh.lpad-body, 0
  %6 = extractvalue { ptr, i32 } %eh.lpad-body, 1
  store ptr %5, ptr %2, align 8
  %7 = getelementptr inbounds i8, ptr %2, i64 8
  store i32 %6, ptr %7, align 8
  br label %bb14

bb1:                                              ; preds = %start
  %_4.0 = extractvalue { ptr, i64 } %3, 0, !dbg !3360
  %_4.1 = extractvalue { ptr, i64 } %3, 1, !dbg !3360
; invoke alloc::ffi::c_str::CString::new
  invoke void @_ZN5alloc3ffi5c_str7CString3new17h7d70b38368fb5b35E(ptr sret(%"core::result::Result<alloc::ffi::c_str::CString, alloc::ffi::c_str::NulError>") align 8 %_3, ptr align 1 %_4.0, i64 %_4.1)
          to label %bb2 unwind label %cleanup, !dbg !3362

bb2:                                              ; preds = %bb1
  call void @llvm.dbg.declare(metadata ptr %_3, metadata !3363, metadata !DIExpression()), !dbg !3373
  call void @llvm.dbg.declare(metadata ptr %e.i, metadata !3371, metadata !DIExpression()), !dbg !3375
  %8 = load i64, ptr %_3, align 8, !dbg !3376, !range !1256, !noundef !23
  %9 = icmp eq i64 %8, -9223372036854775808, !dbg !3376
  %_2.i = select i1 %9, i64 0, i64 1, !dbg !3376
  br i1 %9, label %"_ZN4core6result19Result$LT$T$C$E$GT$6unwrap17h8fc58ac9e177e34cE.exit", label %bb1.i, !dbg !3377

bb1.i:                                            ; preds = %bb2
  call void @llvm.memcpy.p0.p0.i64(ptr align 8 %e.i, ptr align 8 %_3, i64 32, i1 false), !dbg !3378
; invoke core::result::unwrap_failed
  invoke void @_ZN4core6result13unwrap_failed17h1356562ef8bc898cE(ptr align 1 @alloc_00ae4b301f7fab8ac9617c03fcbd7274, i64 43, ptr align 1 %e.i, ptr align 8 @vtable.3, ptr align 8 @alloc_053db894e7b9101a718499226eb785b1) #15
          to label %unreachable.i unwind label %cleanup.i, !dbg !3379

cleanup.i:                                        ; preds = %bb1.i
  %10 = landingpad { ptr, i32 }
          cleanup
  %11 = extractvalue { ptr, i32 } %10, 0
  %12 = extractvalue { ptr, i32 } %10, 1
  store ptr %11, ptr %1, align 8
  %13 = getelementptr inbounds i8, ptr %1, i64 8
  store i32 %12, ptr %13, align 8
; invoke core::ptr::drop_in_place<alloc::ffi::c_str::NulError>
  invoke void @"_ZN4core3ptr48drop_in_place$LT$alloc..ffi..c_str..NulError$GT$17hb5b470d313ae514aE"(ptr align 8 %e.i) #16
          to label %bb5.i unwind label %terminate.i, !dbg !3380

unreachable.i:                                    ; preds = %bb1.i
  unreachable

terminate.i:                                      ; preds = %cleanup.i
  %14 = landingpad { ptr, i32 }
          cleanup
          filter [0 x ptr] zeroinitializer
  %15 = extractvalue { ptr, i32 } %14, 0
  %16 = extractvalue { ptr, i32 } %14, 1
; call core::panicking::panic_in_cleanup
  call void @_ZN4core9panicking16panic_in_cleanup17h803841cec7522372E() #17, !dbg !3381
  unreachable, !dbg !3381

bb5.i:                                            ; preds = %cleanup.i
  %17 = load ptr, ptr %1, align 8, !dbg !3381, !noundef !23
  %18 = getelementptr inbounds i8, ptr %1, i64 8, !dbg !3381
  %19 = load i32, ptr %18, align 8, !dbg !3381, !noundef !23
  %20 = insertvalue { ptr, i32 } poison, ptr %17, 0, !dbg !3381
  %21 = insertvalue { ptr, i32 } %20, i32 %19, 1, !dbg !3381
  br label %cleanup.body

"_ZN4core6result19Result$LT$T$C$E$GT$6unwrap17h8fc58ac9e177e34cE.exit": ; preds = %bb2
  %22 = getelementptr inbounds %"core::result::Result<alloc::ffi::c_str::CString, alloc::ffi::c_str::NulError>::Ok", ptr %_3, i32 0, i32 1, !dbg !3382
  %t.0.i = load ptr, ptr %22, align 8, !dbg !3382, !nonnull !23, !align !543, !noundef !23
  %23 = getelementptr inbounds i8, ptr %22, i64 8, !dbg !3382
  %t.1.i = load i64, ptr %23, align 8, !dbg !3382, !noundef !23
  store ptr %t.0.i, ptr %t.dbg.spill.i, align 8, !dbg !3382
  %24 = getelementptr inbounds i8, ptr %t.dbg.spill.i, i64 8, !dbg !3382
  store i64 %t.1.i, ptr %24, align 8, !dbg !3382
  call void @llvm.dbg.declare(metadata ptr %t.dbg.spill.i, metadata !3369, metadata !DIExpression()), !dbg !3383
  %25 = insertvalue { ptr, i64 } poison, ptr %t.0.i, 0, !dbg !3384
  %26 = insertvalue { ptr, i64 } %25, i64 %t.1.i, 1, !dbg !3384
  br label %bb3, !dbg !3384

bb3:                                              ; preds = %"_ZN4core6result19Result$LT$T$C$E$GT$6unwrap17h8fc58ac9e177e34cE.exit"
  %27 = extractvalue { ptr, i64 } %26, 0, !dbg !3362
  %28 = extractvalue { ptr, i64 } %26, 1, !dbg !3362
  store ptr %27, ptr %input_cstring, align 8, !dbg !3362
  %29 = getelementptr inbounds i8, ptr %input_cstring, i64 8, !dbg !3362
  store i64 %28, ptr %29, align 8, !dbg !3362
; invoke <alloc::ffi::c_str::CString as core::ops::deref::Deref>::deref
  %30 = invoke { ptr, i64 } @"_ZN70_$LT$alloc..ffi..c_str..CString$u20$as$u20$core..ops..deref..Deref$GT$5deref17hf4869c294fbd0c0aE"(ptr align 8 %input_cstring)
          to label %bb4 unwind label %cleanup1, !dbg !3385

bb13:                                             ; preds = %cleanup1.body
; invoke core::ptr::drop_in_place<alloc::ffi::c_str::CString>
  invoke void @"_ZN4core3ptr47drop_in_place$LT$alloc..ffi..c_str..CString$GT$17hd625d6bcf084a2d2E"(ptr align 8 %input_cstring) #16
          to label %bb14 unwind label %terminate, !dbg !3361

cleanup1:                                         ; preds = %bb9, %bb7, %bb6, %bb5, %bb4, %bb3
  %31 = landingpad { ptr, i32 }
          cleanup
  br label %cleanup1.body

cleanup1.body:                                    ; preds = %cleanup.i6, %cleanup1
  %eh.lpad-body10 = phi { ptr, i32 } [ %31, %cleanup1 ], [ %46, %cleanup.i6 ]
  %32 = extractvalue { ptr, i32 } %eh.lpad-body10, 0
  %33 = extractvalue { ptr, i32 } %eh.lpad-body10, 1
  store ptr %32, ptr %2, align 8
  %34 = getelementptr inbounds i8, ptr %2, i64 8
  store i32 %33, ptr %34, align 8
  br label %bb13

bb4:                                              ; preds = %bb3
  %_7.0 = extractvalue { ptr, i64 } %30, 0, !dbg !3385
  %_7.1 = extractvalue { ptr, i64 } %30, 1, !dbg !3385
; invoke core::ffi::c_str::CStr::as_ptr
  %input_c = invoke ptr @_ZN4core3ffi5c_str4CStr6as_ptr17h51e348217fd3dfd1E(ptr align 1 %_7.0, i64 %_7.1)
          to label %bb5 unwind label %cleanup1, !dbg !3385

bb5:                                              ; preds = %bb4
  store ptr %input_c, ptr %input_c.dbg.spill, align 8, !dbg !3385
  call void @llvm.dbg.declare(metadata ptr %input_c.dbg.spill, metadata !3351, metadata !DIExpression()), !dbg !3386
; invoke wrapper::dummy_func
  %output_c = invoke ptr @_ZN7wrapper10dummy_func17h7dfa3aa55559726fE(ptr %input_c)
          to label %bb6 unwind label %cleanup1, !dbg !3387

bb6:                                              ; preds = %bb5
  store ptr %output_c, ptr %output_c.dbg.spill, align 8, !dbg !3387
  call void @llvm.dbg.declare(metadata ptr %output_c.dbg.spill, metadata !3353, metadata !DIExpression()), !dbg !3388
; invoke core::ffi::c_str::CStr::from_ptr
  %35 = invoke { ptr, i64 } @_ZN4core3ffi5c_str4CStr8from_ptr17hcb71c1bbbf3957d3E(ptr %output_c)
          to label %bb7 unwind label %cleanup1, !dbg !3389

bb7:                                              ; preds = %bb6
  %_12.0 = extractvalue { ptr, i64 } %35, 0, !dbg !3389
  %_12.1 = extractvalue { ptr, i64 } %35, 1, !dbg !3389
; invoke core::ffi::c_str::CStr::to_str
  invoke void @_ZN4core3ffi5c_str4CStr6to_str17h3764de8b4bf19138E(ptr sret(%"core::result::Result<&str, core::str::error::Utf8Error>") align 8 %_11, ptr align 1 %_12.0, i64 %_12.1)
          to label %bb8 unwind label %cleanup1, !dbg !3389

bb8:                                              ; preds = %bb7
  call void @llvm.dbg.declare(metadata ptr %_11, metadata !3390, metadata !DIExpression()), !dbg !3415
  call void @llvm.dbg.declare(metadata ptr %e.i3, metadata !3413, metadata !DIExpression()), !dbg !3417
  %_2.i4 = load i64, ptr %_11, align 8, !dbg !3418, !range !3419, !noundef !23
  %36 = icmp eq i64 %_2.i4, 0, !dbg !3420
  br i1 %36, label %"_ZN4core6result19Result$LT$T$C$E$GT$6unwrap17hd23284a8f83f967dE.exit", label %bb1.i5, !dbg !3420

bb1.i5:                                           ; preds = %bb8
  %37 = getelementptr inbounds %"core::result::Result<&str, core::str::error::Utf8Error>::Err", ptr %_11, i32 0, i32 1, !dbg !3421
  call void @llvm.memcpy.p0.p0.i64(ptr align 8 %e.i3, ptr align 8 %37, i64 16, i1 false), !dbg !3421
; invoke core::result::unwrap_failed
  invoke void @_ZN4core6result13unwrap_failed17h1356562ef8bc898cE(ptr align 1 @alloc_00ae4b301f7fab8ac9617c03fcbd7274, i64 43, ptr align 1 %e.i3, ptr align 8 @vtable.4, ptr align 8 @alloc_eb28e85faf2d95edf125ba558a0c8d53) #15
          to label %unreachable.i7 unwind label %cleanup.i6, !dbg !3422

cleanup.i6:                                       ; preds = %bb1.i5
  %38 = landingpad { ptr, i32 }
          cleanup
  %39 = extractvalue { ptr, i32 } %38, 0
  %40 = extractvalue { ptr, i32 } %38, 1
  store ptr %39, ptr %0, align 8
  %41 = getelementptr inbounds i8, ptr %0, i64 8
  store i32 %40, ptr %41, align 8
  %42 = load ptr, ptr %0, align 8, !dbg !3423, !noundef !23
  %43 = getelementptr inbounds i8, ptr %0, i64 8, !dbg !3423
  %44 = load i32, ptr %43, align 8, !dbg !3423, !noundef !23
  %45 = insertvalue { ptr, i32 } poison, ptr %42, 0, !dbg !3423
  %46 = insertvalue { ptr, i32 } %45, i32 %44, 1, !dbg !3423
  br label %cleanup1.body

unreachable.i7:                                   ; preds = %bb1.i5
  unreachable

"_ZN4core6result19Result$LT$T$C$E$GT$6unwrap17hd23284a8f83f967dE.exit": ; preds = %bb8
  %47 = getelementptr inbounds %"core::result::Result<&str, core::str::error::Utf8Error>::Ok", ptr %_11, i32 0, i32 1, !dbg !3424
  %t.0.i8 = load ptr, ptr %47, align 8, !dbg !3424, !nonnull !23, !align !543, !noundef !23
  %48 = getelementptr inbounds i8, ptr %47, i64 8, !dbg !3424
  %t.1.i9 = load i64, ptr %48, align 8, !dbg !3424, !noundef !23
  store ptr %t.0.i8, ptr %t.dbg.spill.i2, align 8, !dbg !3424
  %49 = getelementptr inbounds i8, ptr %t.dbg.spill.i2, i64 8, !dbg !3424
  store i64 %t.1.i9, ptr %49, align 8, !dbg !3424
  call void @llvm.dbg.declare(metadata ptr %t.dbg.spill.i2, metadata !3411, metadata !DIExpression()), !dbg !3425
  %50 = insertvalue { ptr, i64 } poison, ptr %t.0.i8, 0, !dbg !3426
  %51 = insertvalue { ptr, i64 } %50, i64 %t.1.i9, 1, !dbg !3426
  br label %bb9, !dbg !3426

bb9:                                              ; preds = %"_ZN4core6result19Result$LT$T$C$E$GT$6unwrap17hd23284a8f83f967dE.exit"
  %_10.0 = extractvalue { ptr, i64 } %51, 0, !dbg !3389
  %_10.1 = extractvalue { ptr, i64 } %51, 1, !dbg !3389
; invoke alloc::str::<impl alloc::borrow::ToOwned for str>::to_owned
  invoke void @"_ZN5alloc3str56_$LT$impl$u20$alloc..borrow..ToOwned$u20$for$u20$str$GT$8to_owned17h660252a3c7d83138E"(ptr sret(%"alloc::string::String") align 8 %output, ptr align 1 %_10.0, i64 %_10.1)
          to label %bb10 unwind label %cleanup1, !dbg !3389

bb10:                                             ; preds = %bb9
; invoke core::ptr::drop_in_place<alloc::ffi::c_str::CString>
  invoke void @"_ZN4core3ptr47drop_in_place$LT$alloc..ffi..c_str..CString$GT$17hd625d6bcf084a2d2E"(ptr align 8 %input_cstring)
          to label %bb11 unwind label %cleanup, !dbg !3361

bb11:                                             ; preds = %bb10
; call core::ptr::drop_in_place<alloc::string::String>
  call void @"_ZN4core3ptr42drop_in_place$LT$alloc..string..String$GT$17h1dcc338f5a7d9f0aE"(ptr align 8 %input), !dbg !3361
  ret void, !dbg !3427

terminate:                                        ; preds = %bb14, %bb13
  %52 = landingpad { ptr, i32 }
          filter [0 x ptr] zeroinitializer
  %53 = extractvalue { ptr, i32 } %52, 0
  %54 = extractvalue { ptr, i32 } %52, 1
; call core::panicking::panic_in_cleanup
  call void @_ZN4core9panicking16panic_in_cleanup17h803841cec7522372E() #17, !dbg !3428
  unreachable, !dbg !3428

bb15:                                             ; preds = %bb14
  %55 = load ptr, ptr %2, align 8, !dbg !3428, !noundef !23
  %56 = getelementptr inbounds i8, ptr %2, i64 8, !dbg !3428
  %57 = load i32, ptr %56, align 8, !dbg !3428, !noundef !23
  %58 = insertvalue { ptr, i32 } poison, ptr %55, 0, !dbg !3428
  %59 = insertvalue { ptr, i32 } %58, i32 %57, 1, !dbg !3428
  resume { ptr, i32 } %59, !dbg !3428
}

; wrapper::main
; Function Attrs: nonlazybind uwtable
define internal void @_ZN7wrapper4main17hb2e06be3f0c4a679E() unnamed_addr #2 personality ptr @rust_eh_personality !dbg !3429 {
start:
  %f.dbg.spill.i = alloca ptr, align 8
  %x.dbg.spill.i = alloca ptr, align 8
  %_0.i = alloca %"core::fmt::rt::Argument<'_>", align 8
  %0 = alloca { ptr, i32, [1 x i32] }, align 8
  %_8 = alloca [1 x %"core::fmt::rt::Argument<'_>"], align 8
  %_4 = alloca %"core::fmt::Arguments<'_>", align 8
  %output = alloca %"alloc::string::String", align 8
  %input = alloca %"alloc::string::String", align 8
  call void @llvm.dbg.declare(metadata ptr %input, metadata !3431, metadata !DIExpression()), !dbg !3435
  call void @llvm.dbg.declare(metadata ptr %output, metadata !3433, metadata !DIExpression()), !dbg !3436
; call <alloc::string::String as core::convert::From<&str>>::from
  call void @"_ZN76_$LT$alloc..string..String$u20$as$u20$core..convert..From$LT$$RF$str$GT$$GT$4from17h5fa1088cc6dd5032E"(ptr sret(%"alloc::string::String") align 8 %input, ptr align 1 @alloc_46961125be6901bfa95858613c92e6a3, i64 12), !dbg !3437
; call wrapper::callee_rust_to_c
  call void @_ZN7wrapper16callee_rust_to_c17hdc438836ffbc04feE(ptr sret(%"alloc::string::String") align 8 %output, ptr align 8 %input), !dbg !3438
  store ptr %output, ptr %x.dbg.spill.i, align 8
  call void @llvm.dbg.declare(metadata ptr %x.dbg.spill.i, metadata !3439, metadata !DIExpression()), !dbg !3446
  call void @llvm.dbg.declare(metadata ptr %x.dbg.spill.i, metadata !3448, metadata !DIExpression()), !dbg !3457
  store ptr @"_ZN60_$LT$alloc..string..String$u20$as$u20$core..fmt..Display$GT$3fmt17h818dbba820784ef9E", ptr %f.dbg.spill.i, align 8, !dbg !3459
  call void @llvm.dbg.declare(metadata ptr %f.dbg.spill.i, metadata !3456, metadata !DIExpression()), !dbg !3460
  store ptr %output, ptr %_0.i, align 8, !dbg !3461
  %1 = getelementptr inbounds i8, ptr %_0.i, i64 8, !dbg !3461
  store ptr @"_ZN60_$LT$alloc..string..String$u20$as$u20$core..fmt..Display$GT$3fmt17h818dbba820784ef9E", ptr %1, align 8, !dbg !3461
  %2 = load ptr, ptr %_0.i, align 8, !dbg !3462, !nonnull !23, !align !543, !noundef !23
  %3 = getelementptr inbounds i8, ptr %_0.i, i64 8, !dbg !3462
  %4 = load ptr, ptr %3, align 8, !dbg !3462, !nonnull !23, !noundef !23
  %5 = insertvalue { ptr, ptr } poison, ptr %2, 0, !dbg !3462
  %6 = insertvalue { ptr, ptr } %5, ptr %4, 1, !dbg !3462
  br label %bb3, !dbg !3462

bb7:                                              ; preds = %cleanup
; invoke core::ptr::drop_in_place<alloc::string::String>
  invoke void @"_ZN4core3ptr42drop_in_place$LT$alloc..string..String$GT$17h1dcc338f5a7d9f0aE"(ptr align 8 %output) #16
          to label %bb8 unwind label %terminate, !dbg !3463

cleanup:                                          ; preds = %bb4, %bb3
  %7 = landingpad { ptr, i32 }
          cleanup
  %8 = extractvalue { ptr, i32 } %7, 0
  %9 = extractvalue { ptr, i32 } %7, 1
  store ptr %8, ptr %0, align 8
  %10 = getelementptr inbounds i8, ptr %0, i64 8
  store i32 %9, ptr %10, align 8
  br label %bb7

bb3:                                              ; preds = %start
  %_9.0 = extractvalue { ptr, ptr } %6, 0, !dbg !3464
  %_9.1 = extractvalue { ptr, ptr } %6, 1, !dbg !3464
  %11 = getelementptr inbounds [1 x %"core::fmt::rt::Argument<'_>"], ptr %_8, i64 0, i64 0, !dbg !3464
  store ptr %_9.0, ptr %11, align 8, !dbg !3464
  %12 = getelementptr inbounds i8, ptr %11, i64 8, !dbg !3464
  store ptr %_9.1, ptr %12, align 8, !dbg !3464
; invoke core::fmt::Arguments::new_v1
  invoke void @_ZN4core3fmt9Arguments6new_v117h7e0d121c061c548dE(ptr sret(%"core::fmt::Arguments<'_>") align 8 %_4, ptr align 8 @alloc_3cf8a28b1a0b9f6efeedeb779c4e30d8, i64 2, ptr align 8 %_8, i64 1)
          to label %bb4 unwind label %cleanup, !dbg !3464

bb4:                                              ; preds = %bb3
; invoke std::io::stdio::_print
  invoke void @_ZN3std2io5stdio6_print17hc62f134794ba50d8E(ptr align 8 %_4)
          to label %bb5 unwind label %cleanup, !dbg !3464

bb5:                                              ; preds = %bb4
; call core::ptr::drop_in_place<alloc::string::String>
  call void @"_ZN4core3ptr42drop_in_place$LT$alloc..string..String$GT$17h1dcc338f5a7d9f0aE"(ptr align 8 %output), !dbg !3463
  ret void, !dbg !3465

terminate:                                        ; preds = %bb7
  %13 = landingpad { ptr, i32 }
          filter [0 x ptr] zeroinitializer
  %14 = extractvalue { ptr, i32 } %13, 0
  %15 = extractvalue { ptr, i32 } %13, 1
; call core::panicking::panic_in_cleanup
  call void @_ZN4core9panicking16panic_in_cleanup17h803841cec7522372E() #17, !dbg !3466
  unreachable, !dbg !3466

bb8:                                              ; preds = %bb7
  %16 = load ptr, ptr %0, align 8, !dbg !3466, !noundef !23
  %17 = getelementptr inbounds i8, ptr %0, i64 8, !dbg !3466
  %18 = load i32, ptr %17, align 8, !dbg !3466, !noundef !23
  %19 = insertvalue { ptr, i32 } poison, ptr %16, 0, !dbg !3466
  %20 = insertvalue { ptr, i32 } %19, i32 %18, 1, !dbg !3466
  resume { ptr, i32 } %20, !dbg !3466
}

; Function Attrs: nocallback nofree nosync nounwind speculatable willreturn memory(none)
declare void @llvm.dbg.declare(metadata, metadata, metadata) #3

; std::rt::lang_start_internal
; Function Attrs: nonlazybind uwtable
declare i64 @_ZN3std2rt19lang_start_internal17hc3f700406209db2cE(ptr align 1, ptr align 8, i64, ptr, i8) unnamed_addr #2

; core::fmt::Formatter::debug_list
; Function Attrs: nonlazybind uwtable
declare void @_ZN4core3fmt9Formatter10debug_list17h876a1c15cedf3397E(ptr sret(%"core::fmt::builders::DebugList<'_, '_>") align 8, ptr align 8) unnamed_addr #2

; core::fmt::builders::DebugList::finish
; Function Attrs: nonlazybind uwtable
declare zeroext i1 @_ZN4core3fmt8builders9DebugList6finish17h052888958915dc88E(ptr align 8) unnamed_addr #2

; Function Attrs: nonlazybind uwtable
declare i64 @strlen(ptr) unnamed_addr #2

; core::fmt::num::imp::<impl core::fmt::Display for u8>::fmt
; Function Attrs: nonlazybind uwtable
declare zeroext i1 @"_ZN4core3fmt3num3imp51_$LT$impl$u20$core..fmt..Display$u20$for$u20$u8$GT$3fmt17h8e60102b0743c13cE"(ptr align 1, ptr align 8) unnamed_addr #2

; core::fmt::num::<impl core::fmt::UpperHex for u8>::fmt
; Function Attrs: nonlazybind uwtable
declare zeroext i1 @"_ZN4core3fmt3num52_$LT$impl$u20$core..fmt..UpperHex$u20$for$u20$u8$GT$3fmt17hb339727406d21c1fE"(ptr align 1, ptr align 8) unnamed_addr #2

; core::fmt::num::<impl core::fmt::LowerHex for u8>::fmt
; Function Attrs: nonlazybind uwtable
declare zeroext i1 @"_ZN4core3fmt3num52_$LT$impl$u20$core..fmt..LowerHex$u20$for$u20$u8$GT$3fmt17ha5e2045323f0c8f5E"(ptr align 1, ptr align 8) unnamed_addr #2

; core::fmt::num::imp::<impl core::fmt::Display for usize>::fmt
; Function Attrs: nonlazybind uwtable
declare zeroext i1 @"_ZN4core3fmt3num3imp54_$LT$impl$u20$core..fmt..Display$u20$for$u20$usize$GT$3fmt17h7bbbd896a38dcccaE"(ptr align 8, ptr align 8) unnamed_addr #2

; core::fmt::num::<impl core::fmt::UpperHex for usize>::fmt
; Function Attrs: nonlazybind uwtable
declare zeroext i1 @"_ZN4core3fmt3num55_$LT$impl$u20$core..fmt..UpperHex$u20$for$u20$usize$GT$3fmt17hdaf6f71ebb81ebeeE"(ptr align 8, ptr align 8) unnamed_addr #2

; core::fmt::num::<impl core::fmt::LowerHex for usize>::fmt
; Function Attrs: nonlazybind uwtable
declare zeroext i1 @"_ZN4core3fmt3num55_$LT$impl$u20$core..fmt..LowerHex$u20$for$u20$usize$GT$3fmt17hdcbbec87e7e8bf7bE"(ptr align 8, ptr align 8) unnamed_addr #2

; Function Attrs: nonlazybind uwtable
declare i32 @rust_eh_personality(i32, i32, i64, ptr, ptr) unnamed_addr #2

; core::fmt::builders::DebugList::entry
; Function Attrs: nonlazybind uwtable
declare align 8 ptr @_ZN4core3fmt8builders9DebugList5entry17hd1d9a4a9a039c3ebE(ptr align 8, ptr align 1, ptr align 8) unnamed_addr #2

; core::panicking::panic_fmt
; Function Attrs: cold noinline noreturn nonlazybind uwtable
declare void @_ZN4core9panicking9panic_fmt17h0d3f1893e38be419E(ptr align 8, ptr align 8) unnamed_addr #4

; core::panicking::panic_in_cleanup
; Function Attrs: cold noinline noreturn nounwind nonlazybind uwtable
declare void @_ZN4core9panicking16panic_in_cleanup17h803841cec7522372E() unnamed_addr #5

; Function Attrs: nocallback nofree nosync nounwind willreturn memory(inaccessiblemem: readwrite)
declare void @llvm.assume(i1 noundef) #6

; Function Attrs: nocallback nofree nosync nounwind willreturn memory(none)
declare i1 @llvm.expect.i1(i1, i1) #7

; core::panicking::panic
; Function Attrs: cold noinline noreturn nonlazybind uwtable
declare void @_ZN4core9panicking5panic17h59297120e85ea178E(ptr align 1, i64, ptr align 8) unnamed_addr #4

; Function Attrs: nocallback nofree nounwind willreturn memory(argmem: readwrite)
declare void @llvm.memcpy.p0.p0.i64(ptr noalias nocapture writeonly, ptr noalias nocapture readonly, i64, i1 immarg) #8

; core::result::unwrap_failed
; Function Attrs: cold noinline noreturn nonlazybind uwtable
declare void @_ZN4core6result13unwrap_failed17h1356562ef8bc898cE(ptr align 1, i64, ptr align 1, ptr align 8, ptr align 8) unnamed_addr #4

; <&str as alloc::ffi::c_str::CString::new::SpecNewImpl>::spec_new_impl
; Function Attrs: nonlazybind uwtable
declare void @"_ZN72_$LT$$RF$str$u20$as$u20$alloc..ffi..c_str..CString..new..SpecNewImpl$GT$13spec_new_impl17h247f5b38ef97cfa6E"(ptr sret(%"core::result::Result<alloc::ffi::c_str::CString, alloc::ffi::c_str::NulError>") align 8, ptr align 1, i64) unnamed_addr #2

; Function Attrs: nounwind nonlazybind allockind("alloc,uninitialized,aligned") allocsize(0) uwtable
declare noalias ptr @__rust_alloc(i64, i64 allocalign) unnamed_addr #9

; Function Attrs: nounwind nonlazybind allockind("alloc,zeroed,aligned") allocsize(0) uwtable
declare noalias ptr @__rust_alloc_zeroed(i64, i64 allocalign) unnamed_addr #10

; alloc::alloc::handle_alloc_error
; Function Attrs: cold noreturn nonlazybind uwtable
declare void @_ZN5alloc5alloc18handle_alloc_error17h48039cdfd0d60c1cE(i64, i64) unnamed_addr #11

; alloc::raw_vec::capacity_overflow
; Function Attrs: noinline noreturn nonlazybind uwtable
declare void @_ZN5alloc7raw_vec17capacity_overflow17hdebe4d61eabe5c80E() unnamed_addr #12

; <str as core::fmt::Display>::fmt
; Function Attrs: nonlazybind uwtable
declare zeroext i1 @"_ZN42_$LT$str$u20$as$u20$core..fmt..Display$GT$3fmt17h86309c7b5dd516e7E"(ptr align 1, i64, ptr align 8) unnamed_addr #2

; Function Attrs: nounwind nonlazybind allockind("free") uwtable
declare void @__rust_dealloc(ptr allocptr, i64, i64) unnamed_addr #13

; core::fmt::Formatter::debug_tuple_field2_finish
; Function Attrs: nonlazybind uwtable
declare zeroext i1 @_ZN4core3fmt9Formatter25debug_tuple_field2_finish17h168a3cca6db6b81eE(ptr align 8, ptr align 1, i64, ptr align 1, ptr align 8, ptr align 1, ptr align 8) unnamed_addr #2

; core::fmt::Formatter::debug_struct_field2_finish
; Function Attrs: nonlazybind uwtable
declare zeroext i1 @_ZN4core3fmt9Formatter26debug_struct_field2_finish17h1f3ee845d6554337E(ptr align 8, ptr align 1, i64, ptr align 1, i64, ptr align 1, ptr align 8, ptr align 1, i64, ptr align 1, ptr align 8) unnamed_addr #2

; core::fmt::Formatter::write_str
; Function Attrs: nonlazybind uwtable
declare zeroext i1 @_ZN4core3fmt9Formatter9write_str17h4bb7c9399e0c7fb5E(ptr align 8, ptr align 1, i64) unnamed_addr #2

; core::fmt::Formatter::debug_tuple_field1_finish
; Function Attrs: nonlazybind uwtable
declare zeroext i1 @_ZN4core3fmt9Formatter25debug_tuple_field1_finish17hac56ed013e0598f8E(ptr align 8, ptr align 1, i64, ptr align 1, ptr align 8) unnamed_addr #2

; std::io::stdio::_print
; Function Attrs: nonlazybind uwtable
declare void @_ZN3std2io5stdio6_print17hc62f134794ba50d8E(ptr align 8) unnamed_addr #2

; core::ffi::c_str::CStr::to_str
; Function Attrs: nonlazybind uwtable
declare void @_ZN4core3ffi5c_str4CStr6to_str17h3764de8b4bf19138E(ptr sret(%"core::result::Result<&str, core::str::error::Utf8Error>") align 8, ptr align 1, i64) unnamed_addr #2

; Function Attrs: nonlazybind
define i32 @main(i32 %0, ptr %1) unnamed_addr #14 {
top:
  %2 = load volatile i8, ptr @__rustc_debug_gdb_scripts_section__, align 1
  %3 = sext i32 %0 to i64
; call std::rt::lang_start
  %4 = call i64 @_ZN3std2rt10lang_start17h40e0ed9736028e98E(ptr @_ZN7wrapper4main17hb2e06be3f0c4a679E, i64 %3, ptr %1, i8 0)
  %5 = trunc i64 %4 to i32
  ret i32 %5
}

attributes #0 = { inlinehint nonlazybind uwtable "probe-stack"="inline-asm" "target-cpu"="x86-64" }
attributes #1 = { noinline nonlazybind uwtable "probe-stack"="inline-asm" "target-cpu"="x86-64" }
attributes #2 = { nonlazybind uwtable "probe-stack"="inline-asm" "target-cpu"="x86-64" }
attributes #3 = { nocallback nofree nosync nounwind speculatable willreturn memory(none) }
attributes #4 = { cold noinline noreturn nonlazybind uwtable "probe-stack"="inline-asm" "target-cpu"="x86-64" }
attributes #5 = { cold noinline noreturn nounwind nonlazybind uwtable "probe-stack"="inline-asm" "target-cpu"="x86-64" }
attributes #6 = { nocallback nofree nosync nounwind willreturn memory(inaccessiblemem: readwrite) }
attributes #7 = { nocallback nofree nosync nounwind willreturn memory(none) }
attributes #8 = { nocallback nofree nounwind willreturn memory(argmem: readwrite) }
attributes #9 = { nounwind nonlazybind allockind("alloc,uninitialized,aligned") allocsize(0) uwtable "alloc-family"="__rust_alloc" "probe-stack"="inline-asm" "target-cpu"="x86-64" }
attributes #10 = { nounwind nonlazybind allockind("alloc,zeroed,aligned") allocsize(0) uwtable "alloc-family"="__rust_alloc" "probe-stack"="inline-asm" "target-cpu"="x86-64" }
attributes #11 = { cold noreturn nonlazybind uwtable "probe-stack"="inline-asm" "target-cpu"="x86-64" }
attributes #12 = { noinline noreturn nonlazybind uwtable "probe-stack"="inline-asm" "target-cpu"="x86-64" }
attributes #13 = { nounwind nonlazybind allockind("free") uwtable "alloc-family"="__rust_alloc" "probe-stack"="inline-asm" "target-cpu"="x86-64" }
attributes #14 = { nonlazybind "target-cpu"="x86-64" }
attributes #15 = { noreturn }
attributes #16 = { cold }
attributes #17 = { cold noreturn nounwind }
attributes #18 = { nounwind }

!llvm.module.flags = !{!135, !136, !137, !138, !139}
!llvm.ident = !{!140}
!llvm.dbg.cu = !{!141}

!0 = !DIGlobalVariableExpression(var: !1, expr: !DIExpression())
!1 = distinct !DIGlobalVariable(name: "<std::rt::lang_start::{closure_env#0}<()> as core::ops::function::Fn<()>>::{vtable}", scope: null, file: !2, type: !3, isLocal: true, isDefinition: true)
!2 = !DIFile(filename: "<unknown>", directory: "")
!3 = !DICompositeType(tag: DW_TAG_structure_type, name: "<std::rt::lang_start::{closure_env#0}<()> as core::ops::function::Fn<()>>::{vtable_type}", file: !2, size: 384, align: 64, flags: DIFlagArtificial, elements: !4, vtableHolder: !14, templateParams: !23, identifier: "513e30a45f33397931d66b7c27f9468b")
!4 = !{!5, !8, !10, !11, !12, !13}
!5 = !DIDerivedType(tag: DW_TAG_member, name: "drop_in_place", scope: !3, file: !2, baseType: !6, size: 64, align: 64)
!6 = !DIDerivedType(tag: DW_TAG_pointer_type, name: "*const ()", baseType: !7, size: 64, align: 64, dwarfAddressSpace: 0)
!7 = !DIBasicType(name: "()", encoding: DW_ATE_unsigned)
!8 = !DIDerivedType(tag: DW_TAG_member, name: "size", scope: !3, file: !2, baseType: !9, size: 64, align: 64, offset: 64)
!9 = !DIBasicType(name: "usize", size: 64, encoding: DW_ATE_unsigned)
!10 = !DIDerivedType(tag: DW_TAG_member, name: "align", scope: !3, file: !2, baseType: !9, size: 64, align: 64, offset: 128)
!11 = !DIDerivedType(tag: DW_TAG_member, name: "__method3", scope: !3, file: !2, baseType: !6, size: 64, align: 64, offset: 192)
!12 = !DIDerivedType(tag: DW_TAG_member, name: "__method4", scope: !3, file: !2, baseType: !6, size: 64, align: 64, offset: 256)
!13 = !DIDerivedType(tag: DW_TAG_member, name: "__method5", scope: !3, file: !2, baseType: !6, size: 64, align: 64, offset: 320)
!14 = !DICompositeType(tag: DW_TAG_structure_type, name: "{closure_env#0}<()>", scope: !15, file: !2, size: 64, align: 64, elements: !18, templateParams: !23, identifier: "dcada08ba5d8e52fa0502511e6c0738a")
!15 = !DINamespace(name: "lang_start", scope: !16)
!16 = !DINamespace(name: "rt", scope: !17)
!17 = !DINamespace(name: "std", scope: null)
!18 = !{!19}
!19 = !DIDerivedType(tag: DW_TAG_member, name: "main", scope: !14, file: !2, baseType: !20, size: 64, align: 64)
!20 = !DIDerivedType(tag: DW_TAG_pointer_type, name: "fn()", baseType: !21, size: 64, align: 64, dwarfAddressSpace: 0)
!21 = !DISubroutineType(types: !22)
!22 = !{null}
!23 = !{}
!24 = !DIGlobalVariableExpression(var: !25, expr: !DIExpression())
!25 = distinct !DIGlobalVariable(name: "<&u8 as core::fmt::Debug>::{vtable}", scope: null, file: !2, type: !26, isLocal: true, isDefinition: true)
!26 = !DICompositeType(tag: DW_TAG_structure_type, name: "<&u8 as core::fmt::Debug>::{vtable_type}", file: !2, size: 256, align: 64, flags: DIFlagArtificial, elements: !27, vtableHolder: !32, templateParams: !23, identifier: "af41e180a396099d2109052d0e58dd2e")
!27 = !{!28, !29, !30, !31}
!28 = !DIDerivedType(tag: DW_TAG_member, name: "drop_in_place", scope: !26, file: !2, baseType: !6, size: 64, align: 64)
!29 = !DIDerivedType(tag: DW_TAG_member, name: "size", scope: !26, file: !2, baseType: !9, size: 64, align: 64, offset: 64)
!30 = !DIDerivedType(tag: DW_TAG_member, name: "align", scope: !26, file: !2, baseType: !9, size: 64, align: 64, offset: 128)
!31 = !DIDerivedType(tag: DW_TAG_member, name: "__method3", scope: !26, file: !2, baseType: !6, size: 64, align: 64, offset: 192)
!32 = !DIDerivedType(tag: DW_TAG_pointer_type, name: "&u8", baseType: !33, size: 64, align: 64, dwarfAddressSpace: 0)
!33 = !DIBasicType(name: "u8", size: 8, encoding: DW_ATE_unsigned)
!34 = !DIGlobalVariableExpression(var: !35, expr: !DIExpression())
!35 = distinct !DIGlobalVariable(name: "<alloc::ffi::c_str::NulError as core::fmt::Debug>::{vtable}", scope: null, file: !2, type: !36, isLocal: true, isDefinition: true)
!36 = !DICompositeType(tag: DW_TAG_structure_type, name: "<alloc::ffi::c_str::NulError as core::fmt::Debug>::{vtable_type}", file: !2, size: 256, align: 64, flags: DIFlagArtificial, elements: !37, vtableHolder: !42, templateParams: !23, identifier: "9dcae31d54c06948a15d7e34b3fc4e91")
!37 = !{!38, !39, !40, !41}
!38 = !DIDerivedType(tag: DW_TAG_member, name: "drop_in_place", scope: !36, file: !2, baseType: !6, size: 64, align: 64)
!39 = !DIDerivedType(tag: DW_TAG_member, name: "size", scope: !36, file: !2, baseType: !9, size: 64, align: 64, offset: 64)
!40 = !DIDerivedType(tag: DW_TAG_member, name: "align", scope: !36, file: !2, baseType: !9, size: 64, align: 64, offset: 128)
!41 = !DIDerivedType(tag: DW_TAG_member, name: "__method3", scope: !36, file: !2, baseType: !6, size: 64, align: 64, offset: 192)
!42 = !DICompositeType(tag: DW_TAG_structure_type, name: "NulError", scope: !43, file: !2, size: 256, align: 64, flags: DIFlagPublic, elements: !46, templateParams: !23, identifier: "e86853cb3c301143e66c2f1d0b8c5a40")
!43 = !DINamespace(name: "c_str", scope: !44)
!44 = !DINamespace(name: "ffi", scope: !45)
!45 = !DINamespace(name: "alloc", scope: null)
!46 = !{!47, !48}
!47 = !DIDerivedType(tag: DW_TAG_member, name: "__0", scope: !42, file: !2, baseType: !9, size: 64, align: 64, offset: 192, flags: DIFlagPrivate)
!48 = !DIDerivedType(tag: DW_TAG_member, name: "__1", scope: !42, file: !2, baseType: !49, size: 192, align: 64, flags: DIFlagPrivate)
!49 = !DICompositeType(tag: DW_TAG_structure_type, name: "Vec<u8, alloc::alloc::Global>", scope: !50, file: !2, size: 192, align: 64, flags: DIFlagPublic, elements: !51, templateParams: !80, identifier: "c215d12aad764e1a441c461e729f0d2b")
!50 = !DINamespace(name: "vec", scope: !45)
!51 = !{!52, !82}
!52 = !DIDerivedType(tag: DW_TAG_member, name: "buf", scope: !49, file: !2, baseType: !53, size: 128, align: 64, flags: DIFlagPrivate)
!53 = !DICompositeType(tag: DW_TAG_structure_type, name: "RawVec<u8, alloc::alloc::Global>", scope: !54, file: !2, size: 128, align: 64, flags: DIFlagProtected, elements: !55, templateParams: !80, identifier: "58281329bdf84bea2e13e330aa112831")
!54 = !DINamespace(name: "raw_vec", scope: !45)
!55 = !{!56, !73, !77}
!56 = !DIDerivedType(tag: DW_TAG_member, name: "ptr", scope: !53, file: !2, baseType: !57, size: 64, align: 64, offset: 64, flags: DIFlagPrivate)
!57 = !DICompositeType(tag: DW_TAG_structure_type, name: "Unique<u8>", scope: !58, file: !2, size: 64, align: 64, flags: DIFlagPublic, elements: !61, templateParams: !68, identifier: "6f6899319271bff9ddd9f7c3bd2cc000")
!58 = !DINamespace(name: "unique", scope: !59)
!59 = !DINamespace(name: "ptr", scope: !60)
!60 = !DINamespace(name: "core", scope: null)
!61 = !{!62, !70}
!62 = !DIDerivedType(tag: DW_TAG_member, name: "pointer", scope: !57, file: !2, baseType: !63, size: 64, align: 64, flags: DIFlagPrivate)
!63 = !DICompositeType(tag: DW_TAG_structure_type, name: "NonNull<u8>", scope: !64, file: !2, size: 64, align: 64, flags: DIFlagPublic, elements: !65, templateParams: !68, identifier: "6ea26407579e5a1c3e59aa6ffc6beb11")
!64 = !DINamespace(name: "non_null", scope: !59)
!65 = !{!66}
!66 = !DIDerivedType(tag: DW_TAG_member, name: "pointer", scope: !63, file: !2, baseType: !67, size: 64, align: 64, flags: DIFlagPrivate)
!67 = !DIDerivedType(tag: DW_TAG_pointer_type, name: "*const u8", baseType: !33, size: 64, align: 64, dwarfAddressSpace: 0)
!68 = !{!69}
!69 = !DITemplateTypeParameter(name: "T", type: !33)
!70 = !DIDerivedType(tag: DW_TAG_member, name: "_marker", scope: !57, file: !2, baseType: !71, align: 8, offset: 64, flags: DIFlagPrivate)
!71 = !DICompositeType(tag: DW_TAG_structure_type, name: "PhantomData<u8>", scope: !72, file: !2, align: 8, flags: DIFlagPublic, elements: !23, templateParams: !68, identifier: "ec273fde36c82807fc48cac6ee5e0e75")
!72 = !DINamespace(name: "marker", scope: !60)
!73 = !DIDerivedType(tag: DW_TAG_member, name: "cap", scope: !53, file: !2, baseType: !74, size: 64, align: 64, flags: DIFlagPrivate)
!74 = !DICompositeType(tag: DW_TAG_structure_type, name: "Cap", scope: !54, file: !2, size: 64, align: 64, flags: DIFlagPrivate, elements: !75, templateParams: !23, identifier: "3fa86bac779c730df09caa2171474e12")
!75 = !{!76}
!76 = !DIDerivedType(tag: DW_TAG_member, name: "__0", scope: !74, file: !2, baseType: !9, size: 64, align: 64, flags: DIFlagPrivate)
!77 = !DIDerivedType(tag: DW_TAG_member, name: "alloc", scope: !53, file: !2, baseType: !78, align: 8, offset: 128, flags: DIFlagPrivate)
!78 = !DICompositeType(tag: DW_TAG_structure_type, name: "Global", scope: !79, file: !2, align: 8, flags: DIFlagPublic, elements: !23, identifier: "a47ca854cde42ea6e8906fe610d99e63")
!79 = !DINamespace(name: "alloc", scope: !45)
!80 = !{!69, !81}
!81 = !DITemplateTypeParameter(name: "A", type: !78)
!82 = !DIDerivedType(tag: DW_TAG_member, name: "len", scope: !49, file: !2, baseType: !9, size: 64, align: 64, offset: 128, flags: DIFlagPrivate)
!83 = !DIGlobalVariableExpression(var: !84, expr: !DIExpression())
!84 = distinct !DIGlobalVariable(name: "<core::str::error::Utf8Error as core::fmt::Debug>::{vtable}", scope: null, file: !2, type: !85, isLocal: true, isDefinition: true)
!85 = !DICompositeType(tag: DW_TAG_structure_type, name: "<core::str::error::Utf8Error as core::fmt::Debug>::{vtable_type}", file: !2, size: 256, align: 64, flags: DIFlagArtificial, elements: !86, vtableHolder: !91, templateParams: !23, identifier: "88912ab288400b2847c31ec3b531ec")
!86 = !{!87, !88, !89, !90}
!87 = !DIDerivedType(tag: DW_TAG_member, name: "drop_in_place", scope: !85, file: !2, baseType: !6, size: 64, align: 64)
!88 = !DIDerivedType(tag: DW_TAG_member, name: "size", scope: !85, file: !2, baseType: !9, size: 64, align: 64, offset: 64)
!89 = !DIDerivedType(tag: DW_TAG_member, name: "align", scope: !85, file: !2, baseType: !9, size: 64, align: 64, offset: 128)
!90 = !DIDerivedType(tag: DW_TAG_member, name: "__method3", scope: !85, file: !2, baseType: !6, size: 64, align: 64, offset: 192)
!91 = !DICompositeType(tag: DW_TAG_structure_type, name: "Utf8Error", scope: !92, file: !2, size: 128, align: 64, flags: DIFlagPublic, elements: !94, templateParams: !23, identifier: "8d77e2b19a81231332d6174ccce4ffd0")
!92 = !DINamespace(name: "error", scope: !93)
!93 = !DINamespace(name: "str", scope: !60)
!94 = !{!95, !96}
!95 = !DIDerivedType(tag: DW_TAG_member, name: "valid_up_to", scope: !91, file: !2, baseType: !9, size: 64, align: 64, flags: DIFlagProtected)
!96 = !DIDerivedType(tag: DW_TAG_member, name: "error_len", scope: !91, file: !2, baseType: !97, size: 16, align: 8, offset: 64, flags: DIFlagProtected)
!97 = !DICompositeType(tag: DW_TAG_structure_type, name: "Option<u8>", scope: !98, file: !2, size: 16, align: 8, flags: DIFlagPublic, elements: !99, templateParams: !23, identifier: "ceb840d6da4220667c5d75bc90bf8a10")
!98 = !DINamespace(name: "option", scope: !60)
!99 = !{!100}
!100 = !DICompositeType(tag: DW_TAG_variant_part, scope: !97, file: !2, size: 16, align: 8, elements: !101, templateParams: !23, identifier: "3734b96857b75e911c9c9d41c5e459ae", discriminator: !108)
!101 = !{!102, !104}
!102 = !DIDerivedType(tag: DW_TAG_member, name: "None", scope: !100, file: !2, baseType: !103, size: 16, align: 8, extraData: i128 0)
!103 = !DICompositeType(tag: DW_TAG_structure_type, name: "None", scope: !97, file: !2, size: 16, align: 8, flags: DIFlagPublic, elements: !23, templateParams: !68, identifier: "5887cce5776158c76c8b9ba9dd21db9d")
!104 = !DIDerivedType(tag: DW_TAG_member, name: "Some", scope: !100, file: !2, baseType: !105, size: 16, align: 8, extraData: i128 1)
!105 = !DICompositeType(tag: DW_TAG_structure_type, name: "Some", scope: !97, file: !2, size: 16, align: 8, flags: DIFlagPublic, elements: !106, templateParams: !68, identifier: "e56a710edd6134e6774b32490f7f1de4")
!106 = !{!107}
!107 = !DIDerivedType(tag: DW_TAG_member, name: "__0", scope: !105, file: !2, baseType: !33, size: 8, align: 8, offset: 8, flags: DIFlagPublic)
!108 = !DIDerivedType(tag: DW_TAG_member, scope: !97, file: !2, baseType: !33, size: 8, align: 8, flags: DIFlagArtificial)
!109 = !DIGlobalVariableExpression(var: !110, expr: !DIExpression())
!110 = distinct !DIGlobalVariable(name: "<usize as core::fmt::Debug>::{vtable}", scope: null, file: !2, type: !111, isLocal: true, isDefinition: true)
!111 = !DICompositeType(tag: DW_TAG_structure_type, name: "<usize as core::fmt::Debug>::{vtable_type}", file: !2, size: 256, align: 64, flags: DIFlagArtificial, elements: !112, vtableHolder: !9, templateParams: !23, identifier: "e02999c5af2463b2093c9e5d3bff6a")
!112 = !{!113, !114, !115, !116}
!113 = !DIDerivedType(tag: DW_TAG_member, name: "drop_in_place", scope: !111, file: !2, baseType: !6, size: 64, align: 64)
!114 = !DIDerivedType(tag: DW_TAG_member, name: "size", scope: !111, file: !2, baseType: !9, size: 64, align: 64, offset: 64)
!115 = !DIDerivedType(tag: DW_TAG_member, name: "align", scope: !111, file: !2, baseType: !9, size: 64, align: 64, offset: 128)
!116 = !DIDerivedType(tag: DW_TAG_member, name: "__method3", scope: !111, file: !2, baseType: !6, size: 64, align: 64, offset: 192)
!117 = !DIGlobalVariableExpression(var: !118, expr: !DIExpression())
!118 = distinct !DIGlobalVariable(name: "<&alloc::vec::Vec<u8, alloc::alloc::Global> as core::fmt::Debug>::{vtable}", scope: null, file: !2, type: !119, isLocal: true, isDefinition: true)
!119 = !DICompositeType(tag: DW_TAG_structure_type, name: "<&alloc::vec::Vec<u8, alloc::alloc::Global> as core::fmt::Debug>::{vtable_type}", file: !2, size: 256, align: 64, flags: DIFlagArtificial, elements: !120, vtableHolder: !125, templateParams: !23, identifier: "c81f0a09fe65080f8762046479fd9fbb")
!120 = !{!121, !122, !123, !124}
!121 = !DIDerivedType(tag: DW_TAG_member, name: "drop_in_place", scope: !119, file: !2, baseType: !6, size: 64, align: 64)
!122 = !DIDerivedType(tag: DW_TAG_member, name: "size", scope: !119, file: !2, baseType: !9, size: 64, align: 64, offset: 64)
!123 = !DIDerivedType(tag: DW_TAG_member, name: "align", scope: !119, file: !2, baseType: !9, size: 64, align: 64, offset: 128)
!124 = !DIDerivedType(tag: DW_TAG_member, name: "__method3", scope: !119, file: !2, baseType: !6, size: 64, align: 64, offset: 192)
!125 = !DIDerivedType(tag: DW_TAG_pointer_type, name: "&alloc::vec::Vec<u8, alloc::alloc::Global>", baseType: !49, size: 64, align: 64, dwarfAddressSpace: 0)
!126 = !DIGlobalVariableExpression(var: !127, expr: !DIExpression())
!127 = distinct !DIGlobalVariable(name: "<&core::option::Option<u8> as core::fmt::Debug>::{vtable}", scope: null, file: !2, type: !128, isLocal: true, isDefinition: true)
!128 = !DICompositeType(tag: DW_TAG_structure_type, name: "<&core::option::Option<u8> as core::fmt::Debug>::{vtable_type}", file: !2, size: 256, align: 64, flags: DIFlagArtificial, elements: !129, vtableHolder: !134, templateParams: !23, identifier: "bfd10f98f42e5b8e1e30c5b5ef4a2695")
!129 = !{!130, !131, !132, !133}
!130 = !DIDerivedType(tag: DW_TAG_member, name: "drop_in_place", scope: !128, file: !2, baseType: !6, size: 64, align: 64)
!131 = !DIDerivedType(tag: DW_TAG_member, name: "size", scope: !128, file: !2, baseType: !9, size: 64, align: 64, offset: 64)
!132 = !DIDerivedType(tag: DW_TAG_member, name: "align", scope: !128, file: !2, baseType: !9, size: 64, align: 64, offset: 128)
!133 = !DIDerivedType(tag: DW_TAG_member, name: "__method3", scope: !128, file: !2, baseType: !6, size: 64, align: 64, offset: 192)
!134 = !DIDerivedType(tag: DW_TAG_pointer_type, name: "&core::option::Option<u8>", baseType: !97, size: 64, align: 64, dwarfAddressSpace: 0)
!135 = !{i32 8, !"PIC Level", i32 2}
!136 = !{i32 7, !"PIE Level", i32 2}
!137 = !{i32 2, !"RtLibUseGOT", i32 1}
!138 = !{i32 2, !"Dwarf Version", i32 4}
!139 = !{i32 2, !"Debug Info Version", i32 3}
!140 = !{!"rustc version 1.77.0 (aedd173a2 2024-03-17)"}
!141 = distinct !DICompileUnit(language: DW_LANG_Rust, file: !142, producer: "clang LLVM (rustc version 1.77.0 (aedd173a2 2024-03-17))", isOptimized: false, runtimeVersion: 0, emissionKind: FullDebug, enums: !143, globals: !224, splitDebugInlining: false, nameTableKind: None)
!142 = !DIFile(filename: "src/main.rs/@/50pfo3uhckuvcpdt", directory: "/proj/zyuxuanssf-PG0/faas-cpp-test/merge-rust-and-c/test/wrapper")
!143 = !{!144, !152, !220}
!144 = !DICompositeType(tag: DW_TAG_enumeration_type, name: "Alignment", scope: !145, file: !2, baseType: !33, size: 8, align: 8, flags: DIFlagEnumClass, elements: !147)
!145 = !DINamespace(name: "rt", scope: !146)
!146 = !DINamespace(name: "fmt", scope: !60)
!147 = !{!148, !149, !150, !151}
!148 = !DIEnumerator(name: "Left", value: 0, isUnsigned: true)
!149 = !DIEnumerator(name: "Right", value: 1, isUnsigned: true)
!150 = !DIEnumerator(name: "Center", value: 2, isUnsigned: true)
!151 = !DIEnumerator(name: "Unknown", value: 3, isUnsigned: true)
!152 = !DICompositeType(tag: DW_TAG_enumeration_type, name: "AlignmentEnum64", scope: !153, file: !2, baseType: !154, size: 64, align: 64, flags: DIFlagEnumClass, elements: !155)
!153 = !DINamespace(name: "alignment", scope: !59)
!154 = !DIBasicType(name: "u64", size: 64, encoding: DW_ATE_unsigned)
!155 = !{!156, !157, !158, !159, !160, !161, !162, !163, !164, !165, !166, !167, !168, !169, !170, !171, !172, !173, !174, !175, !176, !177, !178, !179, !180, !181, !182, !183, !184, !185, !186, !187, !188, !189, !190, !191, !192, !193, !194, !195, !196, !197, !198, !199, !200, !201, !202, !203, !204, !205, !206, !207, !208, !209, !210, !211, !212, !213, !214, !215, !216, !217, !218, !219}
!156 = !DIEnumerator(name: "_Align1Shl0", value: 1, isUnsigned: true)
!157 = !DIEnumerator(name: "_Align1Shl1", value: 2, isUnsigned: true)
!158 = !DIEnumerator(name: "_Align1Shl2", value: 4, isUnsigned: true)
!159 = !DIEnumerator(name: "_Align1Shl3", value: 8, isUnsigned: true)
!160 = !DIEnumerator(name: "_Align1Shl4", value: 16, isUnsigned: true)
!161 = !DIEnumerator(name: "_Align1Shl5", value: 32, isUnsigned: true)
!162 = !DIEnumerator(name: "_Align1Shl6", value: 64, isUnsigned: true)
!163 = !DIEnumerator(name: "_Align1Shl7", value: 128, isUnsigned: true)
!164 = !DIEnumerator(name: "_Align1Shl8", value: 256, isUnsigned: true)
!165 = !DIEnumerator(name: "_Align1Shl9", value: 512, isUnsigned: true)
!166 = !DIEnumerator(name: "_Align1Shl10", value: 1024, isUnsigned: true)
!167 = !DIEnumerator(name: "_Align1Shl11", value: 2048, isUnsigned: true)
!168 = !DIEnumerator(name: "_Align1Shl12", value: 4096, isUnsigned: true)
!169 = !DIEnumerator(name: "_Align1Shl13", value: 8192, isUnsigned: true)
!170 = !DIEnumerator(name: "_Align1Shl14", value: 16384, isUnsigned: true)
!171 = !DIEnumerator(name: "_Align1Shl15", value: 32768, isUnsigned: true)
!172 = !DIEnumerator(name: "_Align1Shl16", value: 65536, isUnsigned: true)
!173 = !DIEnumerator(name: "_Align1Shl17", value: 131072, isUnsigned: true)
!174 = !DIEnumerator(name: "_Align1Shl18", value: 262144, isUnsigned: true)
!175 = !DIEnumerator(name: "_Align1Shl19", value: 524288, isUnsigned: true)
!176 = !DIEnumerator(name: "_Align1Shl20", value: 1048576, isUnsigned: true)
!177 = !DIEnumerator(name: "_Align1Shl21", value: 2097152, isUnsigned: true)
!178 = !DIEnumerator(name: "_Align1Shl22", value: 4194304, isUnsigned: true)
!179 = !DIEnumerator(name: "_Align1Shl23", value: 8388608, isUnsigned: true)
!180 = !DIEnumerator(name: "_Align1Shl24", value: 16777216, isUnsigned: true)
!181 = !DIEnumerator(name: "_Align1Shl25", value: 33554432, isUnsigned: true)
!182 = !DIEnumerator(name: "_Align1Shl26", value: 67108864, isUnsigned: true)
!183 = !DIEnumerator(name: "_Align1Shl27", value: 134217728, isUnsigned: true)
!184 = !DIEnumerator(name: "_Align1Shl28", value: 268435456, isUnsigned: true)
!185 = !DIEnumerator(name: "_Align1Shl29", value: 536870912, isUnsigned: true)
!186 = !DIEnumerator(name: "_Align1Shl30", value: 1073741824, isUnsigned: true)
!187 = !DIEnumerator(name: "_Align1Shl31", value: 2147483648, isUnsigned: true)
!188 = !DIEnumerator(name: "_Align1Shl32", value: 4294967296, isUnsigned: true)
!189 = !DIEnumerator(name: "_Align1Shl33", value: 8589934592, isUnsigned: true)
!190 = !DIEnumerator(name: "_Align1Shl34", value: 17179869184, isUnsigned: true)
!191 = !DIEnumerator(name: "_Align1Shl35", value: 34359738368, isUnsigned: true)
!192 = !DIEnumerator(name: "_Align1Shl36", value: 68719476736, isUnsigned: true)
!193 = !DIEnumerator(name: "_Align1Shl37", value: 137438953472, isUnsigned: true)
!194 = !DIEnumerator(name: "_Align1Shl38", value: 274877906944, isUnsigned: true)
!195 = !DIEnumerator(name: "_Align1Shl39", value: 549755813888, isUnsigned: true)
!196 = !DIEnumerator(name: "_Align1Shl40", value: 1099511627776, isUnsigned: true)
!197 = !DIEnumerator(name: "_Align1Shl41", value: 2199023255552, isUnsigned: true)
!198 = !DIEnumerator(name: "_Align1Shl42", value: 4398046511104, isUnsigned: true)
!199 = !DIEnumerator(name: "_Align1Shl43", value: 8796093022208, isUnsigned: true)
!200 = !DIEnumerator(name: "_Align1Shl44", value: 17592186044416, isUnsigned: true)
!201 = !DIEnumerator(name: "_Align1Shl45", value: 35184372088832, isUnsigned: true)
!202 = !DIEnumerator(name: "_Align1Shl46", value: 70368744177664, isUnsigned: true)
!203 = !DIEnumerator(name: "_Align1Shl47", value: 140737488355328, isUnsigned: true)
!204 = !DIEnumerator(name: "_Align1Shl48", value: 281474976710656, isUnsigned: true)
!205 = !DIEnumerator(name: "_Align1Shl49", value: 562949953421312, isUnsigned: true)
!206 = !DIEnumerator(name: "_Align1Shl50", value: 1125899906842624, isUnsigned: true)
!207 = !DIEnumerator(name: "_Align1Shl51", value: 2251799813685248, isUnsigned: true)
!208 = !DIEnumerator(name: "_Align1Shl52", value: 4503599627370496, isUnsigned: true)
!209 = !DIEnumerator(name: "_Align1Shl53", value: 9007199254740992, isUnsigned: true)
!210 = !DIEnumerator(name: "_Align1Shl54", value: 18014398509481984, isUnsigned: true)
!211 = !DIEnumerator(name: "_Align1Shl55", value: 36028797018963968, isUnsigned: true)
!212 = !DIEnumerator(name: "_Align1Shl56", value: 72057594037927936, isUnsigned: true)
!213 = !DIEnumerator(name: "_Align1Shl57", value: 144115188075855872, isUnsigned: true)
!214 = !DIEnumerator(name: "_Align1Shl58", value: 288230376151711744, isUnsigned: true)
!215 = !DIEnumerator(name: "_Align1Shl59", value: 576460752303423488, isUnsigned: true)
!216 = !DIEnumerator(name: "_Align1Shl60", value: 1152921504606846976, isUnsigned: true)
!217 = !DIEnumerator(name: "_Align1Shl61", value: 2305843009213693952, isUnsigned: true)
!218 = !DIEnumerator(name: "_Align1Shl62", value: 4611686018427387904, isUnsigned: true)
!219 = !DIEnumerator(name: "_Align1Shl63", value: 9223372036854775808, isUnsigned: true)
!220 = !DICompositeType(tag: DW_TAG_enumeration_type, name: "AllocInit", scope: !54, file: !2, baseType: !33, size: 8, align: 8, flags: DIFlagEnumClass, elements: !221)
!221 = !{!222, !223}
!222 = !DIEnumerator(name: "Uninitialized", value: 0, isUnsigned: true)
!223 = !DIEnumerator(name: "Zeroed", value: 1, isUnsigned: true)
!224 = !{!0, !24, !34, !83, !109, !117, !126}
!225 = distinct !DISubprogram(name: "index", linkageName: "_ZN100_$LT$alloc..string..String$u20$as$u20$core..ops..index..Index$LT$core..ops..range..RangeFull$GT$$GT$5index17h05742f8aa5f0e50eE", scope: !227, file: !226, line: 2463, type: !229, scopeLine: 2463, flags: DIFlagPrototyped, spFlags: DISPFlagLocalToUnit | DISPFlagDefinition, unit: !141, templateParams: !23, retainedNodes: !252)
!226 = !DIFile(filename: "/rustc/aedd173a2c086e558c2b66d3743b344f977621a7/library/alloc/src/string.rs", directory: "", checksumkind: CSK_MD5, checksum: "fa2aba08356a8d7df87466adcb7b4075")
!227 = !DINamespace(name: "{impl#29}", scope: !228)
!228 = !DINamespace(name: "string", scope: !45)
!229 = !DISubroutineType(types: !230)
!230 = !{!231, !236, !240, !243}
!231 = !DICompositeType(tag: DW_TAG_structure_type, name: "&str", file: !2, size: 128, align: 64, elements: !232, templateParams: !23, identifier: "857c99401054bcaa39f98e6e0c6d74b")
!232 = !{!233, !235}
!233 = !DIDerivedType(tag: DW_TAG_member, name: "data_ptr", scope: !231, file: !2, baseType: !234, size: 64, align: 64)
!234 = !DIDerivedType(tag: DW_TAG_pointer_type, baseType: !33, size: 64, align: 64, dwarfAddressSpace: 0)
!235 = !DIDerivedType(tag: DW_TAG_member, name: "length", scope: !231, file: !2, baseType: !9, size: 64, align: 64, offset: 64)
!236 = !DIDerivedType(tag: DW_TAG_pointer_type, name: "&alloc::string::String", baseType: !237, size: 64, align: 64, dwarfAddressSpace: 0)
!237 = !DICompositeType(tag: DW_TAG_structure_type, name: "String", scope: !228, file: !2, size: 192, align: 64, flags: DIFlagPublic, elements: !238, templateParams: !23, identifier: "d327f3abe291f686c850bbe1dfd9d9d0")
!238 = !{!239}
!239 = !DIDerivedType(tag: DW_TAG_member, name: "vec", scope: !237, file: !2, baseType: !49, size: 192, align: 64, flags: DIFlagPrivate)
!240 = !DICompositeType(tag: DW_TAG_structure_type, name: "RangeFull", scope: !241, file: !2, align: 8, flags: DIFlagPublic, elements: !23, identifier: "25e39d53254d4c265fff4f19e3c2d4fc")
!241 = !DINamespace(name: "range", scope: !242)
!242 = !DINamespace(name: "ops", scope: !60)
!243 = !DIDerivedType(tag: DW_TAG_pointer_type, name: "&core::panic::location::Location", baseType: !244, size: 64, align: 64, dwarfAddressSpace: 0)
!244 = !DICompositeType(tag: DW_TAG_structure_type, name: "Location", scope: !245, file: !2, size: 192, align: 64, flags: DIFlagPublic, elements: !247, templateParams: !23, identifier: "65eb7befd79c72afef1a37a712324bd")
!245 = !DINamespace(name: "location", scope: !246)
!246 = !DINamespace(name: "panic", scope: !60)
!247 = !{!248, !249, !251}
!248 = !DIDerivedType(tag: DW_TAG_member, name: "file", scope: !244, file: !2, baseType: !231, size: 128, align: 64, flags: DIFlagPrivate)
!249 = !DIDerivedType(tag: DW_TAG_member, name: "line", scope: !244, file: !2, baseType: !250, size: 32, align: 32, offset: 128, flags: DIFlagPrivate)
!250 = !DIBasicType(name: "u32", size: 32, encoding: DW_ATE_unsigned)
!251 = !DIDerivedType(tag: DW_TAG_member, name: "col", scope: !244, file: !2, baseType: !250, size: 32, align: 32, offset: 160, flags: DIFlagPrivate)
!252 = !{!253, !254, !255}
!253 = !DILocalVariable(name: "self", arg: 1, scope: !225, file: !226, line: 2463, type: !236)
!254 = !DILocalVariable(name: "_index", scope: !225, file: !226, line: 2463, type: !240, align: 1)
!255 = !DILocalVariable(arg: 2, scope: !225, file: !226, line: 2463, type: !240)
!256 = !DILocation(line: 2463, column: 21, scope: !225)
!257 = !DILocation(line: 2463, column: 14, scope: !225)
!258 = !DILocation(line: 2464, column: 43, scope: !225)
!259 = !DILocalVariable(name: "self", arg: 1, scope: !260, file: !261, line: 2705, type: !125)
!260 = distinct !DILexicalBlock(scope: !262, file: !261, line: 2705, column: 5)
!261 = !DIFile(filename: "/rustc/aedd173a2c086e558c2b66d3743b344f977621a7/library/alloc/src/vec/mod.rs", directory: "", checksumkind: CSK_MD5, checksum: "68599339b266867eb81e581cd10beab0")
!262 = distinct !DISubprogram(name: "deref<u8, alloc::alloc::Global>", linkageName: "_ZN72_$LT$alloc..vec..Vec$LT$T$C$A$GT$$u20$as$u20$core..ops..deref..Deref$GT$5deref17h2024c434ee3fb1f3E", scope: !263, file: !261, line: 2705, type: !264, scopeLine: 2705, flags: DIFlagPrototyped, spFlags: DISPFlagLocalToUnit | DISPFlagDefinition, unit: !141, templateParams: !80, retainedNodes: !270)
!263 = !DINamespace(name: "{impl#8}", scope: !50)
!264 = !DISubroutineType(types: !265)
!265 = !{!266, !125}
!266 = !DICompositeType(tag: DW_TAG_structure_type, name: "&[u8]", file: !2, size: 128, align: 64, elements: !267, templateParams: !23, identifier: "4f7d759e2003ffb713a77bd933fd0146")
!267 = !{!268, !269}
!268 = !DIDerivedType(tag: DW_TAG_member, name: "data_ptr", scope: !266, file: !2, baseType: !234, size: 64, align: 64)
!269 = !DIDerivedType(tag: DW_TAG_member, name: "length", scope: !266, file: !2, baseType: !9, size: 64, align: 64, offset: 64)
!270 = !{!259}
!271 = !DILocation(line: 2705, column: 14, scope: !260, inlinedAt: !258)
!272 = !DILocalVariable(name: "self", arg: 1, scope: !273, file: !261, line: 1268, type: !125)
!273 = distinct !DILexicalBlock(scope: !274, file: !261, line: 1268, column: 5)
!274 = distinct !DISubprogram(name: "as_ptr<u8, alloc::alloc::Global>", linkageName: "_ZN5alloc3vec16Vec$LT$T$C$A$GT$6as_ptr17h3c7dd76f6d72ca57E", scope: !49, file: !261, line: 1268, type: !275, scopeLine: 1268, flags: DIFlagPrototyped, spFlags: DISPFlagLocalToUnit | DISPFlagDefinition, unit: !141, templateParams: !80, declaration: !277, retainedNodes: !278)
!275 = !DISubroutineType(types: !276)
!276 = !{!67, !125}
!277 = !DISubprogram(name: "as_ptr<u8, alloc::alloc::Global>", linkageName: "_ZN5alloc3vec16Vec$LT$T$C$A$GT$6as_ptr17h3c7dd76f6d72ca57E", scope: !49, file: !261, line: 1268, type: !275, scopeLine: 1268, flags: DIFlagPrototyped, spFlags: DISPFlagLocalToUnit, templateParams: !80)
!278 = !{!272}
!279 = !DILocation(line: 1268, column: 19, scope: !273, inlinedAt: !280)
!280 = !DILocation(line: 2706, column: 45, scope: !260, inlinedAt: !258)
!281 = !DILocation(line: 1271, column: 9, scope: !273, inlinedAt: !280)
!282 = !DILocalVariable(name: "self", arg: 1, scope: !283, file: !284, line: 238, type: !289)
!283 = distinct !DILexicalBlock(scope: !285, file: !284, line: 238, column: 5)
!284 = !DIFile(filename: "/rustc/aedd173a2c086e558c2b66d3743b344f977621a7/library/alloc/src/raw_vec.rs", directory: "", checksumkind: CSK_MD5, checksum: "0b5ec706c41528fbcb5248091f9e606a")
!285 = distinct !DISubprogram(name: "ptr<u8, alloc::alloc::Global>", linkageName: "_ZN5alloc7raw_vec19RawVec$LT$T$C$A$GT$3ptr17h67c29795c521d902E", scope: !53, file: !284, line: 238, type: !286, scopeLine: 238, flags: DIFlagPrototyped, spFlags: DISPFlagLocalToUnit | DISPFlagDefinition, unit: !141, templateParams: !80, declaration: !290, retainedNodes: !291)
!286 = !DISubroutineType(types: !287)
!287 = !{!288, !289}
!288 = !DIDerivedType(tag: DW_TAG_pointer_type, name: "*mut u8", baseType: !33, size: 64, align: 64, dwarfAddressSpace: 0)
!289 = !DIDerivedType(tag: DW_TAG_pointer_type, name: "&alloc::raw_vec::RawVec<u8, alloc::alloc::Global>", baseType: !53, size: 64, align: 64, dwarfAddressSpace: 0)
!290 = !DISubprogram(name: "ptr<u8, alloc::alloc::Global>", linkageName: "_ZN5alloc7raw_vec19RawVec$LT$T$C$A$GT$3ptr17h67c29795c521d902E", scope: !53, file: !284, line: 238, type: !286, scopeLine: 238, flags: DIFlagPrototyped, spFlags: DISPFlagLocalToUnit, templateParams: !80)
!291 = !{!282}
!292 = !DILocation(line: 238, column: 16, scope: !283, inlinedAt: !293)
!293 = !DILocation(line: 1271, column: 18, scope: !273, inlinedAt: !280)
!294 = !DILocation(line: 239, column: 9, scope: !283, inlinedAt: !293)
!295 = !DILocalVariable(name: "self", scope: !296, file: !297, line: 105, type: !57, align: 8)
!296 = distinct !DILexicalBlock(scope: !298, file: !297, line: 105, column: 5)
!297 = !DIFile(filename: "/rustc/aedd173a2c086e558c2b66d3743b344f977621a7/library/core/src/ptr/unique.rs", directory: "", checksumkind: CSK_MD5, checksum: "ec3b5704f1ceb93306ec7ee620fc2d81")
!298 = distinct !DISubprogram(name: "as_ptr<u8>", linkageName: "_ZN4core3ptr6unique15Unique$LT$T$GT$6as_ptr17h864c6d9c67c73ec1E", scope: !57, file: !297, line: 105, type: !299, scopeLine: 105, flags: DIFlagPrototyped, spFlags: DISPFlagLocalToUnit | DISPFlagDefinition, unit: !141, templateParams: !68, declaration: !301, retainedNodes: !302)
!299 = !DISubroutineType(types: !300)
!300 = !{!288, !57}
!301 = !DISubprogram(name: "as_ptr<u8>", linkageName: "_ZN4core3ptr6unique15Unique$LT$T$GT$6as_ptr17h864c6d9c67c73ec1E", scope: !57, file: !297, line: 105, type: !299, scopeLine: 105, flags: DIFlagPrototyped, spFlags: DISPFlagLocalToUnit, templateParams: !68)
!302 = !{!295, !295}
!303 = !DILocation(line: 105, column: 25, scope: !296, inlinedAt: !304)
!304 = !DILocation(line: 239, column: 18, scope: !283, inlinedAt: !293)
!305 = !DILocalVariable(name: "self", arg: 1, scope: !306, file: !307, line: 347, type: !63)
!306 = distinct !DILexicalBlock(scope: !308, file: !307, line: 347, column: 5)
!307 = !DIFile(filename: "/rustc/aedd173a2c086e558c2b66d3743b344f977621a7/library/core/src/ptr/non_null.rs", directory: "", checksumkind: CSK_MD5, checksum: "d232b4a1150e9e47bf554073bdb98e48")
!308 = distinct !DISubprogram(name: "as_ptr<u8>", linkageName: "_ZN4core3ptr8non_null16NonNull$LT$T$GT$6as_ptr17h98589281e9c099daE", scope: !63, file: !307, line: 347, type: !309, scopeLine: 347, flags: DIFlagPrototyped, spFlags: DISPFlagLocalToUnit | DISPFlagDefinition, unit: !141, templateParams: !68, declaration: !311, retainedNodes: !312)
!309 = !DISubroutineType(types: !310)
!310 = !{!288, !63}
!311 = !DISubprogram(name: "as_ptr<u8>", linkageName: "_ZN4core3ptr8non_null16NonNull$LT$T$GT$6as_ptr17h98589281e9c099daE", scope: !63, file: !307, line: 347, type: !309, scopeLine: 347, flags: DIFlagPrototyped, spFlags: DISPFlagLocalToUnit, templateParams: !68)
!312 = !{!305}
!313 = !DILocation(line: 347, column: 25, scope: !306, inlinedAt: !314)
!314 = !DILocation(line: 106, column: 22, scope: !296, inlinedAt: !304)
!315 = !DILocalVariable(name: "data", arg: 1, scope: !316, file: !317, line: 94, type: !67)
!316 = distinct !DILexicalBlock(scope: !318, file: !317, line: 94, column: 1)
!317 = !DIFile(filename: "/rustc/aedd173a2c086e558c2b66d3743b344f977621a7/library/core/src/slice/raw.rs", directory: "", checksumkind: CSK_MD5, checksum: "503b19e16c498622a7ca460c2aab934c")
!318 = distinct !DISubprogram(name: "from_raw_parts<u8>", linkageName: "_ZN4core5slice3raw14from_raw_parts17h3d8e9e121c4546faE", scope: !319, file: !317, line: 94, type: !321, scopeLine: 94, flags: DIFlagPrototyped, spFlags: DISPFlagLocalToUnit | DISPFlagDefinition, unit: !141, templateParams: !68, retainedNodes: !323)
!319 = !DINamespace(name: "raw", scope: !320)
!320 = !DINamespace(name: "slice", scope: !60)
!321 = !DISubroutineType(types: !322)
!322 = !{!266, !67, !9}
!323 = !{!315, !324}
!324 = !DILocalVariable(name: "len", arg: 2, scope: !316, file: !317, line: 94, type: !9)
!325 = !DILocation(line: 94, column: 43, scope: !316, inlinedAt: !326)
!326 = !DILocation(line: 2706, column: 18, scope: !260, inlinedAt: !258)
!327 = !DILocalVariable(name: "data", arg: 1, scope: !328, file: !329, line: 770, type: !67)
!328 = distinct !DILexicalBlock(scope: !330, file: !329, line: 770, column: 1)
!329 = !DIFile(filename: "/rustc/aedd173a2c086e558c2b66d3743b344f977621a7/library/core/src/ptr/mod.rs", directory: "", checksumkind: CSK_MD5, checksum: "f7e71cc5fe46b5d7ce750e8b099ff7ff")
!330 = distinct !DISubprogram(name: "slice_from_raw_parts<u8>", linkageName: "_ZN4core3ptr20slice_from_raw_parts17h4e3ec6bb8cbbfb1eE", scope: !59, file: !329, line: 770, type: !331, scopeLine: 770, flags: DIFlagPrototyped, spFlags: DISPFlagLocalToUnit | DISPFlagDefinition, unit: !141, templateParams: !68, retainedNodes: !337)
!331 = !DISubroutineType(types: !332)
!332 = !{!333, !67, !9}
!333 = !DICompositeType(tag: DW_TAG_structure_type, name: "*const [u8]", file: !2, size: 128, align: 64, elements: !334, templateParams: !23, identifier: "a329dffc2f36de2e98a77091932cf429")
!334 = !{!335, !336}
!335 = !DIDerivedType(tag: DW_TAG_member, name: "data_ptr", scope: !333, file: !2, baseType: !234, size: 64, align: 64)
!336 = !DIDerivedType(tag: DW_TAG_member, name: "length", scope: !333, file: !2, baseType: !9, size: 64, align: 64, offset: 64)
!337 = !{!327, !338}
!338 = !DILocalVariable(name: "len", arg: 2, scope: !328, file: !329, line: 770, type: !9)
!339 = !DILocation(line: 770, column: 38, scope: !328, inlinedAt: !340)
!340 = !DILocation(line: 102, column: 11, scope: !316, inlinedAt: !326)
!341 = !DILocalVariable(name: "self", arg: 1, scope: !342, file: !343, line: 60, type: !67)
!342 = distinct !DILexicalBlock(scope: !344, file: !343, line: 60, column: 5)
!343 = !DIFile(filename: "/rustc/aedd173a2c086e558c2b66d3743b344f977621a7/library/core/src/ptr/const_ptr.rs", directory: "", checksumkind: CSK_MD5, checksum: "09014d329840bfd2d530919196ac4f25")
!344 = distinct !DISubprogram(name: "cast<u8, ()>", linkageName: "_ZN4core3ptr9const_ptr33_$LT$impl$u20$$BP$const$u20$T$GT$4cast17hc4c644fdd16123c1E", scope: !345, file: !343, line: 60, type: !347, scopeLine: 60, flags: DIFlagPrototyped, spFlags: DISPFlagLocalToUnit | DISPFlagDefinition, unit: !141, templateParams: !350, retainedNodes: !349)
!345 = !DINamespace(name: "{impl#0}", scope: !346)
!346 = !DINamespace(name: "const_ptr", scope: !59)
!347 = !DISubroutineType(types: !348)
!348 = !{!6, !67}
!349 = !{!341}
!350 = !{!69, !351}
!351 = !DITemplateTypeParameter(name: "U", type: !7)
!352 = !DILocation(line: 60, column: 26, scope: !342, inlinedAt: !353)
!353 = !DILocation(line: 771, column: 25, scope: !328, inlinedAt: !340)
!354 = !DILocation(line: 2706, column: 55, scope: !260, inlinedAt: !258)
!355 = !DILocation(line: 94, column: 59, scope: !316, inlinedAt: !326)
!356 = !DILocation(line: 770, column: 54, scope: !328, inlinedAt: !340)
!357 = !DILocalVariable(name: "metadata", arg: 2, scope: !358, file: !359, line: 113, type: !9)
!358 = distinct !DILexicalBlock(scope: !360, file: !359, line: 111, column: 1)
!359 = !DIFile(filename: "/rustc/aedd173a2c086e558c2b66d3743b344f977621a7/library/core/src/ptr/metadata.rs", directory: "", checksumkind: CSK_MD5, checksum: "4472b554dca0dc78bd5034d5fa5d3bf2")
!360 = distinct !DISubprogram(name: "from_raw_parts<[u8]>", linkageName: "_ZN4core3ptr8metadata14from_raw_parts17he866c4cb683fde59E", scope: !361, file: !359, line: 111, type: !362, scopeLine: 111, flags: DIFlagPrototyped, spFlags: DISPFlagLocalToUnit | DISPFlagDefinition, unit: !141, templateParams: !68, retainedNodes: !364)
!361 = !DINamespace(name: "metadata", scope: !59)
!362 = !DISubroutineType(types: !363)
!363 = !{!333, !6, !9}
!364 = !{!365, !357}
!365 = !DILocalVariable(name: "data_pointer", arg: 1, scope: !358, file: !359, line: 112, type: !6)
!366 = !DILocation(line: 113, column: 5, scope: !358, inlinedAt: !367)
!367 = !DILocation(line: 771, column: 5, scope: !328, inlinedAt: !340)
!368 = !DILocation(line: 61, column: 9, scope: !342, inlinedAt: !353)
!369 = !DILocation(line: 112, column: 5, scope: !358, inlinedAt: !367)
!370 = !DILocation(line: 118, column: 36, scope: !358, inlinedAt: !367)
!371 = !DILocation(line: 118, column: 14, scope: !358, inlinedAt: !367)
!372 = !DILocalVariable(name: "v", arg: 1, scope: !373, file: !374, line: 173, type: !333)
!373 = distinct !DILexicalBlock(scope: !375, file: !374, line: 173, column: 1)
!374 = !DIFile(filename: "/rustc/aedd173a2c086e558c2b66d3743b344f977621a7/library/core/src/str/converts.rs", directory: "", checksumkind: CSK_MD5, checksum: "05e96ac3dc3df0b6e182b2ac1a4d63b7")
!375 = distinct !DISubprogram(name: "from_utf8_unchecked", linkageName: "_ZN4core3str8converts19from_utf8_unchecked17he4d20aaa0cc81e21E", scope: !376, file: !374, line: 173, type: !377, scopeLine: 173, flags: DIFlagPrototyped, spFlags: DISPFlagLocalToUnit | DISPFlagDefinition, unit: !141, templateParams: !23, retainedNodes: !379)
!376 = !DINamespace(name: "converts", scope: !93)
!377 = !DISubroutineType(types: !378)
!378 = !{!231, !266}
!379 = !{!372}
!380 = !DILocation(line: 173, column: 41, scope: !373, inlinedAt: !381)
!381 = !DILocation(line: 2464, column: 18, scope: !225)
!382 = !DILocation(line: 2465, column: 6, scope: !225)
!383 = distinct !DISubprogram(name: "__rust_begin_short_backtrace<fn(), ()>", linkageName: "_ZN3std10sys_common9backtrace28__rust_begin_short_backtrace17h7f91407455b2c4f7E", scope: !385, file: !384, line: 151, type: !387, scopeLine: 151, flags: DIFlagPrototyped, spFlags: DISPFlagLocalToUnit | DISPFlagDefinition, unit: !141, templateParams: !393, retainedNodes: !389)
!384 = !DIFile(filename: "/rustc/aedd173a2c086e558c2b66d3743b344f977621a7/library/std/src/sys_common/backtrace.rs", directory: "", checksumkind: CSK_MD5, checksum: "ea95829b2a6298387d0233825edf7299")
!385 = !DINamespace(name: "backtrace", scope: !386)
!386 = !DINamespace(name: "sys_common", scope: !17)
!387 = !DISubroutineType(types: !388)
!388 = !{null, !20}
!389 = !{!390, !391}
!390 = !DILocalVariable(name: "f", arg: 1, scope: !383, file: !384, line: 151, type: !20)
!391 = !DILocalVariable(name: "result", scope: !392, file: !384, line: 155, type: !7, align: 1)
!392 = distinct !DILexicalBlock(scope: !383, file: !384, line: 155, column: 5)
!393 = !{!394, !395}
!394 = !DITemplateTypeParameter(name: "F", type: !20)
!395 = !DITemplateTypeParameter(name: "T", type: !7)
!396 = !DILocalVariable(name: "dummy", scope: !397, file: !398, line: 333, type: !7, align: 1)
!397 = distinct !DILexicalBlock(scope: !399, file: !398, line: 333, column: 1)
!398 = !DIFile(filename: "/rustc/aedd173a2c086e558c2b66d3743b344f977621a7/library/core/src/hint.rs", directory: "", checksumkind: CSK_MD5, checksum: "9e658e1509a108e11f079d44cec9a3fb")
!399 = distinct !DISubprogram(name: "black_box<()>", linkageName: "_ZN4core4hint9black_box17h70fa2c7f36b5fe70E", scope: !400, file: !398, line: 333, type: !401, scopeLine: 333, flags: DIFlagPrototyped, spFlags: DISPFlagLocalToUnit | DISPFlagDefinition, unit: !141, templateParams: !404, retainedNodes: !403)
!400 = !DINamespace(name: "hint", scope: !60)
!401 = !DISubroutineType(types: !402)
!402 = !{null, !7}
!403 = !{!396}
!404 = !{!395}
!405 = !DILocation(line: 333, column: 27, scope: !397, inlinedAt: !406)
!406 = !DILocation(line: 158, column: 5, scope: !392)
!407 = !DILocation(line: 155, column: 9, scope: !392)
!408 = !DILocation(line: 151, column: 43, scope: !383)
!409 = !DILocation(line: 155, column: 18, scope: !383)
!410 = !DILocation(line: 334, column: 5, scope: !397, inlinedAt: !406)
!411 = !{i32 3681821}
!412 = !DILocation(line: 161, column: 2, scope: !383)
!413 = distinct !DISubprogram(name: "lang_start<()>", linkageName: "_ZN3std2rt10lang_start17h40e0ed9736028e98E", scope: !16, file: !414, line: 159, type: !415, scopeLine: 159, flags: DIFlagPrototyped, spFlags: DISPFlagLocalToUnit | DISPFlagDefinition, unit: !141, templateParams: !404, retainedNodes: !419)
!414 = !DIFile(filename: "/rustc/aedd173a2c086e558c2b66d3743b344f977621a7/library/std/src/rt.rs", directory: "", checksumkind: CSK_MD5, checksum: "37ab242d99ebf1886f0e7617537b82aa")
!415 = !DISubroutineType(types: !416)
!416 = !{!417, !20, !417, !418, !33}
!417 = !DIBasicType(name: "isize", size: 64, encoding: DW_ATE_signed)
!418 = !DIDerivedType(tag: DW_TAG_pointer_type, name: "*const *const u8", baseType: !67, size: 64, align: 64, dwarfAddressSpace: 0)
!419 = !{!420, !421, !422, !423, !424}
!420 = !DILocalVariable(name: "main", arg: 1, scope: !413, file: !414, line: 160, type: !20)
!421 = !DILocalVariable(name: "argc", arg: 2, scope: !413, file: !414, line: 161, type: !417)
!422 = !DILocalVariable(name: "argv", arg: 3, scope: !413, file: !414, line: 162, type: !418)
!423 = !DILocalVariable(name: "sigpipe", arg: 4, scope: !413, file: !414, line: 163, type: !33)
!424 = !DILocalVariable(name: "v", scope: !425, file: !414, line: 165, type: !417, align: 8)
!425 = distinct !DILexicalBlock(scope: !413, file: !414, line: 165, column: 5)
!426 = !DILocation(line: 160, column: 5, scope: !413)
!427 = !DILocation(line: 161, column: 5, scope: !413)
!428 = !DILocation(line: 162, column: 5, scope: !413)
!429 = !DILocation(line: 163, column: 5, scope: !413)
!430 = !DILocation(line: 166, column: 10, scope: !413)
!431 = !DILocation(line: 165, column: 17, scope: !413)
!432 = !DILocation(line: 165, column: 12, scope: !413)
!433 = !DILocation(line: 165, column: 12, scope: !425)
!434 = !DILocation(line: 172, column: 2, scope: !413)
!435 = distinct !DISubprogram(name: "{closure#0}<()>", linkageName: "_ZN3std2rt10lang_start28_$u7b$$u7b$closure$u7d$$u7d$17hefd9df45866168a1E", scope: !15, file: !414, line: 166, type: !436, scopeLine: 166, flags: DIFlagPrototyped, spFlags: DISPFlagLocalToUnit | DISPFlagDefinition, unit: !141, templateParams: !404, retainedNodes: !440)
!436 = !DISubroutineType(types: !437)
!437 = !{!438, !439}
!438 = !DIBasicType(name: "i32", size: 32, encoding: DW_ATE_signed)
!439 = !DIDerivedType(tag: DW_TAG_pointer_type, name: "&std::rt::lang_start::{closure_env#0}<()>", baseType: !14, size: 64, align: 64, dwarfAddressSpace: 0)
!440 = !{!441}
!441 = !DILocalVariable(name: "main", scope: !435, file: !414, line: 160, type: !20, align: 8)
!442 = !DILocation(line: 160, column: 5, scope: !435)
!443 = !DILocalVariable(name: "self", arg: 1, scope: !444, file: !445, line: 1958, type: !447)
!444 = distinct !DILexicalBlock(scope: !446, file: !445, line: 1958, column: 5)
!445 = !DIFile(filename: "/rustc/aedd173a2c086e558c2b66d3743b344f977621a7/library/std/src/process.rs", directory: "", checksumkind: CSK_MD5, checksum: "4237b9da5f67550242d4bb113252837f")
!446 = distinct !DISubprogram(name: "to_i32", linkageName: "_ZN3std7process8ExitCode6to_i3217h82312d6879accda1E", scope: !447, file: !445, line: 1958, type: !459, scopeLine: 1958, flags: DIFlagPrototyped, spFlags: DISPFlagLocalToUnit | DISPFlagDefinition, unit: !141, templateParams: !23, declaration: !461, retainedNodes: !462)
!447 = !DICompositeType(tag: DW_TAG_structure_type, name: "ExitCode", scope: !448, file: !2, size: 8, align: 8, flags: DIFlagPublic, elements: !449, templateParams: !23, identifier: "5961cb4d4e35861215b96c335823791a")
!448 = !DINamespace(name: "process", scope: !17)
!449 = !{!450}
!450 = !DIDerivedType(tag: DW_TAG_member, name: "__0", scope: !447, file: !2, baseType: !451, size: 8, align: 8, flags: DIFlagPrivate)
!451 = !DICompositeType(tag: DW_TAG_structure_type, name: "ExitCode", scope: !452, file: !2, size: 8, align: 8, flags: DIFlagPublic, elements: !457, templateParams: !23, identifier: "7702fb636587915d7be9289af947b189")
!452 = !DINamespace(name: "process_common", scope: !453)
!453 = !DINamespace(name: "process", scope: !454)
!454 = !DINamespace(name: "unix", scope: !455)
!455 = !DINamespace(name: "pal", scope: !456)
!456 = !DINamespace(name: "sys", scope: !17)
!457 = !{!458}
!458 = !DIDerivedType(tag: DW_TAG_member, name: "__0", scope: !451, file: !2, baseType: !33, size: 8, align: 8, flags: DIFlagPrivate)
!459 = !DISubroutineType(types: !460)
!460 = !{!438, !447}
!461 = !DISubprogram(name: "to_i32", linkageName: "_ZN3std7process8ExitCode6to_i3217h82312d6879accda1E", scope: !447, file: !445, line: 1958, type: !459, scopeLine: 1958, flags: DIFlagPrototyped, spFlags: DISPFlagLocalToUnit, templateParams: !23)
!462 = !{!443}
!463 = !DILocation(line: 1958, column: 19, scope: !444, inlinedAt: !464)
!464 = !DILocation(line: 166, column: 92, scope: !435)
!465 = !DILocation(line: 166, column: 77, scope: !435)
!466 = !DILocation(line: 166, column: 18, scope: !435)
!467 = !DILocation(line: 1959, column: 9, scope: !444, inlinedAt: !464)
!468 = !DILocalVariable(name: "self", arg: 1, scope: !469, file: !470, line: 638, type: !474)
!469 = distinct !DILexicalBlock(scope: !471, file: !470, line: 638, column: 5)
!470 = !DIFile(filename: "/rustc/aedd173a2c086e558c2b66d3743b344f977621a7/library/std/src/sys/pal/unix/process/process_common.rs", directory: "", checksumkind: CSK_MD5, checksum: "f12d6cc5fbe6e47291b02b1d467e8da3")
!471 = distinct !DISubprogram(name: "as_i32", linkageName: "_ZN3std3sys3pal4unix7process14process_common8ExitCode6as_i3217h46cb84e6ad28a9b0E", scope: !451, file: !470, line: 638, type: !472, scopeLine: 638, flags: DIFlagPrototyped, spFlags: DISPFlagLocalToUnit | DISPFlagDefinition, unit: !141, templateParams: !23, declaration: !475, retainedNodes: !476)
!472 = !DISubroutineType(types: !473)
!473 = !{!438, !474}
!474 = !DIDerivedType(tag: DW_TAG_pointer_type, name: "&std::sys::pal::unix::process::process_common::ExitCode", baseType: !451, size: 64, align: 64, dwarfAddressSpace: 0)
!475 = !DISubprogram(name: "as_i32", linkageName: "_ZN3std3sys3pal4unix7process14process_common8ExitCode6as_i3217h46cb84e6ad28a9b0E", scope: !451, file: !470, line: 638, type: !472, scopeLine: 638, flags: DIFlagPrototyped, spFlags: DISPFlagLocalToUnit, templateParams: !23)
!476 = !{!468}
!477 = !DILocation(line: 638, column: 19, scope: !469, inlinedAt: !478)
!478 = !DILocation(line: 1959, column: 16, scope: !444, inlinedAt: !464)
!479 = !DILocation(line: 639, column: 9, scope: !469, inlinedAt: !478)
!480 = !DILocation(line: 166, column: 100, scope: !435)
!481 = distinct !DISubprogram(name: "fmt<u8>", linkageName: "_ZN42_$LT$$RF$T$u20$as$u20$core..fmt..Debug$GT$3fmt17h68f7216f46a86412E", scope: !483, file: !482, line: 2294, type: !484, scopeLine: 2294, flags: DIFlagPrototyped, spFlags: DISPFlagLocalToUnit | DISPFlagDefinition, unit: !141, templateParams: !68, retainedNodes: !537)
!482 = !DIFile(filename: "/rustc/aedd173a2c086e558c2b66d3743b344f977621a7/library/core/src/fmt/mod.rs", directory: "", checksumkind: CSK_MD5, checksum: "f2f9e528240e472a11f8ea13e1ff6e2a")
!483 = !DINamespace(name: "{impl#51}", scope: !146)
!484 = !DISubroutineType(types: !485)
!485 = !{!486, !503, !504}
!486 = !DICompositeType(tag: DW_TAG_structure_type, name: "Result<(), core::fmt::Error>", scope: !487, file: !2, size: 8, align: 8, flags: DIFlagPublic, elements: !488, templateParams: !23, identifier: "ef21c1a4a7a3bb675edf359fd7da20c2")
!487 = !DINamespace(name: "result", scope: !60)
!488 = !{!489}
!489 = !DICompositeType(tag: DW_TAG_variant_part, scope: !486, file: !2, size: 8, align: 8, elements: !490, templateParams: !23, identifier: "1e6064d2fa7899348d4637058c3df544", discriminator: !502)
!490 = !{!491, !498}
!491 = !DIDerivedType(tag: DW_TAG_member, name: "Ok", scope: !489, file: !2, baseType: !492, size: 8, align: 8, extraData: i128 0)
!492 = !DICompositeType(tag: DW_TAG_structure_type, name: "Ok", scope: !486, file: !2, size: 8, align: 8, flags: DIFlagPublic, elements: !493, templateParams: !495, identifier: "4676f9084c1926904df27c02f470a258")
!493 = !{!494}
!494 = !DIDerivedType(tag: DW_TAG_member, name: "__0", scope: !492, file: !2, baseType: !7, align: 8, offset: 8, flags: DIFlagPublic)
!495 = !{!395, !496}
!496 = !DITemplateTypeParameter(name: "E", type: !497)
!497 = !DICompositeType(tag: DW_TAG_structure_type, name: "Error", scope: !146, file: !2, align: 8, flags: DIFlagPublic, elements: !23, identifier: "525f7c35922c78aaf2831aa7e2d5fd8b")
!498 = !DIDerivedType(tag: DW_TAG_member, name: "Err", scope: !489, file: !2, baseType: !499, size: 8, align: 8, extraData: i128 1)
!499 = !DICompositeType(tag: DW_TAG_structure_type, name: "Err", scope: !486, file: !2, size: 8, align: 8, flags: DIFlagPublic, elements: !500, templateParams: !495, identifier: "4fc1bf8c8c918aa838a2a0aa40186b71")
!500 = !{!501}
!501 = !DIDerivedType(tag: DW_TAG_member, name: "__0", scope: !499, file: !2, baseType: !497, align: 8, offset: 8, flags: DIFlagPublic)
!502 = !DIDerivedType(tag: DW_TAG_member, scope: !486, file: !2, baseType: !33, size: 8, align: 8, flags: DIFlagArtificial)
!503 = !DIDerivedType(tag: DW_TAG_pointer_type, name: "&&u8", baseType: !32, size: 64, align: 64, dwarfAddressSpace: 0)
!504 = !DIDerivedType(tag: DW_TAG_pointer_type, name: "&mut core::fmt::Formatter", baseType: !505, size: 64, align: 64, dwarfAddressSpace: 0)
!505 = !DICompositeType(tag: DW_TAG_structure_type, name: "Formatter", scope: !146, file: !2, size: 512, align: 64, flags: DIFlagPublic, elements: !506, templateParams: !23, identifier: "c2a81c20b281ad088a53ffd69742e2f1")
!506 = !{!507, !508, !510, !511, !525, !526}
!507 = !DIDerivedType(tag: DW_TAG_member, name: "flags", scope: !505, file: !2, baseType: !250, size: 32, align: 32, offset: 416, flags: DIFlagPrivate)
!508 = !DIDerivedType(tag: DW_TAG_member, name: "fill", scope: !505, file: !2, baseType: !509, size: 32, align: 32, offset: 384, flags: DIFlagPrivate)
!509 = !DIBasicType(name: "char", size: 32, encoding: DW_ATE_UTF)
!510 = !DIDerivedType(tag: DW_TAG_member, name: "align", scope: !505, file: !2, baseType: !144, size: 8, align: 8, offset: 448, flags: DIFlagPrivate)
!511 = !DIDerivedType(tag: DW_TAG_member, name: "width", scope: !505, file: !2, baseType: !512, size: 128, align: 64, flags: DIFlagPrivate)
!512 = !DICompositeType(tag: DW_TAG_structure_type, name: "Option<usize>", scope: !98, file: !2, size: 128, align: 64, flags: DIFlagPublic, elements: !513, templateParams: !23, identifier: "f4d83d61e370ffa2bf86fb2b476c03b9")
!513 = !{!514}
!514 = !DICompositeType(tag: DW_TAG_variant_part, scope: !512, file: !2, size: 128, align: 64, elements: !515, templateParams: !23, identifier: "2e6a6158b8523df5f27116dc0cb3efb2", discriminator: !524)
!515 = !{!516, !520}
!516 = !DIDerivedType(tag: DW_TAG_member, name: "None", scope: !514, file: !2, baseType: !517, size: 128, align: 64, extraData: i128 0)
!517 = !DICompositeType(tag: DW_TAG_structure_type, name: "None", scope: !512, file: !2, size: 128, align: 64, flags: DIFlagPublic, elements: !23, templateParams: !518, identifier: "bad25d21ed86c6e99411c76de143d53a")
!518 = !{!519}
!519 = !DITemplateTypeParameter(name: "T", type: !9)
