; ModuleID = 'merged.bc'
source_filename = "llvm-link"
target datalayout = "e-m:e-p270:32:32-p271:32:32-p272:64:64-i64:64-i128:128-f80:128-n8:16:32:64-S128"
target triple = "x86_64-unknown-linux-gnu"

%"core::sync::atomic::AtomicUsize" = type { i64 }
%"alloc::sync::SliceArcInnerForStatic" = type { %"alloc::sync::ArcInner<[u8; 1]>", [1 x i64] }
%"alloc::sync::ArcInner<[u8; 1]>" = type { %"core::sync::atomic::AtomicUsize", %"core::sync::atomic::AtomicUsize", [1 x i8], [7 x i8] }
%"OpenFaaSRPC::Follower" = type { i64, i64 }
%"core::fmt::rt::Argument<'_>" = type { %"core::fmt::rt::ArgumentType<'_>" }
%"core::fmt::rt::ArgumentType<'_>" = type { ptr, [1 x i64] }
%"alloc::string::String" = type { %"alloc::vec::Vec<u8>" }
%"alloc::vec::Vec<u8>" = type { %"alloc::raw_vec::RawVec<u8>", i64 }
%"alloc::raw_vec::RawVec<u8>" = type { %"alloc::raw_vec::RawVecInner", %"alloc::alloc::Global" }
%"alloc::raw_vec::RawVecInner" = type { i64, ptr, %"alloc::alloc::Global" }
%"alloc::alloc::Global" = type {}
%"r2d2::IdleConn<memcache::connection::Connection>" = type { %"r2d2::Conn<memcache::connection::Connection>", %"std::time::Instant" }
%"r2d2::Conn<memcache::connection::Connection>" = type { %"memcache::connection::Connection", %"std::time::Instant", %"r2d2::extensions::Extensions", i64 }
%"memcache::connection::Connection" = type { %"memcache::protocol::Protocol", ptr }
%"memcache::protocol::Protocol" = type { i64, [263 x i64] }
%"r2d2::extensions::Extensions" = type { %"std::collections::hash::map::HashMap<core::any::TypeId, alloc::boxed::Box<dyn core::any::Any + core::marker::Send + core::marker::Sync>>" }
%"std::collections::hash::map::HashMap<core::any::TypeId, alloc::boxed::Box<dyn core::any::Any + core::marker::Send + core::marker::Sync>>" = type { %"hashbrown::map::HashMap<core::any::TypeId, alloc::boxed::Box<dyn core::any::Any + core::marker::Send + core::marker::Sync>, std::hash::random::RandomState>" }
%"hashbrown::map::HashMap<core::any::TypeId, alloc::boxed::Box<dyn core::any::Any + core::marker::Send + core::marker::Sync>, std::hash::random::RandomState>" = type { %"hashbrown::raw::RawTable<(core::any::TypeId, alloc::boxed::Box<dyn core::any::Any + core::marker::Send + core::marker::Sync>)>", %"OpenFaaSRPC::Follower" }
%"hashbrown::raw::RawTable<(core::any::TypeId, alloc::boxed::Box<dyn core::any::Any + core::marker::Send + core::marker::Sync>)>" = type { %"hashbrown::raw::RawTableInner", %"alloc::alloc::Global", %"alloc::alloc::Global" }
%"hashbrown::raw::RawTableInner" = type { ptr, i64, i64, i64 }
%"std::time::Instant" = type { %"std::sys::pal::unix::time::Instant" }
%"std::sys::pal::unix::time::Instant" = type { %"std::sys::pal::unix::time::Timespec" }
%"std::sys::pal::unix::time::Timespec" = type { i64, i32, [1 x i32] }

@vtable.0 = private constant <{ [24 x i8], ptr }> <{ [24 x i8] c"\00\00\00\00\00\00\00\00\00\00\00\00\00\00\00\00\01\00\00\00\00\00\00\00", ptr @"_ZN41_$LT$T$u20$as$u20$serde..de..Expected$GT$3fmt17h9b5b9f1da8ecac16E" }>, align 8
@alloc_4192ed3b92b550c0d82c6e919997c0e9 = private unnamed_addr constant <{ [10 x i8] }> <{ [10 x i8] c"<redacted>" }>, align 1
@alloc_ae52e422ab29884b58622d79788975fe = private unnamed_addr constant <{ ptr, [16 x i8] }> <{ ptr @alloc_4192ed3b92b550c0d82c6e919997c0e9, [16 x i8] c"\0A\00\00\00\00\00\00\00\00\00\00\00\00\00\00\00" }>, align 8
@alloc_8654d27ce1e18ede425bdb1be5d1281e = private unnamed_addr constant <{ [21 x i8] }> <{ [21 x i8] c"WriteHomeTimelineArgs" }>, align 1
@alloc_fbf529a31431d812ea51987957c18fdb = private unnamed_addr constant <{ [7 x i8] }> <{ [7 x i8] c"post_id" }>, align 1
@alloc_17c2596754a11fa444906090c11cb050 = private unnamed_addr constant <{ [7 x i8] }> <{ [7 x i8] c"user_id" }>, align 1
@alloc_5e776ce52c9f5c81d68da620afd2d199 = private unnamed_addr constant <{ [9 x i8] }> <{ [9 x i8] c"timestamp" }>, align 1
@alloc_831319f78ea5ff8c180eff7cc714c6a5 = private unnamed_addr constant <{ [16 x i8] }> <{ [16 x i8] c"user_mentions_id" }>, align 1
@alloc_dc8a1e9508bc8619093e97c08425e5c3 = private unnamed_addr constant <{ ptr, [8 x i8], ptr, [8 x i8], ptr, [8 x i8], ptr, [8 x i8] }> <{ ptr @alloc_fbf529a31431d812ea51987957c18fdb, [8 x i8] c"\07\00\00\00\00\00\00\00", ptr @alloc_17c2596754a11fa444906090c11cb050, [8 x i8] c"\07\00\00\00\00\00\00\00", ptr @alloc_5e776ce52c9f5c81d68da620afd2d199, [8 x i8] c"\09\00\00\00\00\00\00\00", ptr @alloc_831319f78ea5ff8c180eff7cc714c6a5, [8 x i8] c"\10\00\00\00\00\00\00\00" }>, align 8
@alloc_1fcba90cb36554639964cdfaa443ba11 = private unnamed_addr constant <{ [27 x i8] }> <{ [27 x i8] c"SocialGraphGetFollowersArgs" }>, align 1
@alloc_63a58201f79c87bed2c5c1a0660f331f = private unnamed_addr constant <{ [44 x i8] }> <{ [44 x i8] c"struct WriteHomeTimelineArgs with 4 elements" }>, align 1
@alloc_f58fcb9c4e49c192b1285e58cb79b058 = private unnamed_addr constant <{ ptr, [8 x i8] }> <{ ptr @alloc_63a58201f79c87bed2c5c1a0660f331f, [8 x i8] c",\00\00\00\00\00\00\00" }>, align 8
@vtable.1 = private constant <{ [24 x i8], ptr }> <{ [24 x i8] c"\00\00\00\00\00\00\00\00\10\00\00\00\00\00\00\00\08\00\00\00\00\00\00\00", ptr @"_ZN47_$LT$$RF$str$u20$as$u20$serde..de..Expected$GT$3fmt17h0a6fd10980fad70dE" }>, align 8
@alloc_c705cb38a8523735dfb9d88c7a0743fd = private unnamed_addr constant <{ [10 x i8] }> <{ [10 x i8] c"a sequence" }>, align 1
@vtable.2 = private constant <{ [24 x i8], ptr, ptr, ptr }> <{ [24 x i8] c"\00\00\00\00\00\00\00\00\08\00\00\00\00\00\00\00\08\00\00\00\00\00\00\00", ptr @"_ZN4core3ops8function6FnOnce40call_once$u7b$$u7b$vtable.shim$u7d$$u7d$17ha7bedaec22f647e4E", ptr @"_ZN3std2rt10lang_start28_$u7b$$u7b$closure$u7d$$u7d$17h753ccdb3e4a8c247E", ptr @"_ZN3std2rt10lang_start28_$u7b$$u7b$closure$u7d$$u7d$17h753ccdb3e4a8c247E" }>, align 8
@alloc_af0ad50687be8757d76841bfb6af39f7 = private unnamed_addr constant <{ ptr }> <{ ptr @_ZN4core3ops8function6FnOnce9call_once17h68481e2aaa331b30E }>, align 8
@alloc_e3605bf48dd8479a638909176cc37fce = private unnamed_addr constant <{ [22 x i8] }> <{ [22 x i8] c"failed to spawn thread" }>, align 1
@vtable.3 = private constant <{ ptr, [16 x i8], ptr }> <{ ptr @"_ZN4core3ptr163drop_in_place$LT$std..thread..Builder..spawn_unchecked_$LT$function..main..$u7b$$u7b$closure$u7d$$u7d$$C$alloc..string..String$GT$..$u7b$$u7b$closure$u7d$$u7d$$GT$17h7b850f74df090f9aE", [16 x i8] c"P\00\00\00\00\00\00\00\08\00\00\00\00\00\00\00", ptr @"_ZN4core3ops8function6FnOnce40call_once$u7b$$u7b$vtable.shim$u7d$$u7d$17h749f4a103aef8acfE" }>, align 8
@"_ZN3std6thread7Builder16spawn_unchecked_28_$u7b$$u7b$closure$u7d$$u7d$3MIN17hda0db790ee35c9aeE" = external global %"core::sync::atomic::AtomicUsize"
@alloc_7a0078e56453c84a4274ce689b2bb39a = private unnamed_addr constant <{ [14 x i8] }> <{ [14 x i8] c"RUST_MIN_STACK" }>, align 1
@alloc_2ab079c8e2d597e54114ea81b69c3724 = private unnamed_addr constant <{ [53 x i8] }> <{ [53 x i8] c"fatal runtime error: something here is badly broken!\0A" }>, align 1
@alloc_8f2b267b2da59f0ca40e685edf28fc06 = private unnamed_addr constant <{ ptr, [8 x i8] }> <{ ptr @alloc_2ab079c8e2d597e54114ea81b69c3724, [8 x i8] c"5\00\00\00\00\00\00\00" }>, align 8
@vtable.4 = private constant <{ ptr, [16 x i8], ptr, ptr, ptr }> <{ ptr @"_ZN4core3ptr42drop_in_place$LT$alloc..string..String$GT$17hb3b04e371e33c46dE", [16 x i8] c"\18\00\00\00\00\00\00\00\08\00\00\00\00\00\00\00", ptr @"_ZN58_$LT$alloc..string..String$u20$as$u20$core..fmt..Write$GT$9write_str17h3a551256ee4051caE", ptr @"_ZN58_$LT$alloc..string..String$u20$as$u20$core..fmt..Write$GT$10write_char17hc6a16cabe14e0131E", ptr @_ZN4core3fmt5Write9write_fmt17h6894637872bcf126E }>, align 8
@alloc_cc656815297f75969399c3f4b1ad3de4 = private unnamed_addr constant <{ [55 x i8] }> <{ [55 x i8] c"a Display implementation returned an error unexpectedly" }>, align 1
@alloc_8df0580a595a87d56789d20c7318e185 = private unnamed_addr constant <{ [166 x i8] }> <{ [166 x i8] c"unsafe precondition(s) violated: ptr::copy_nonoverlapping requires that both pointer arguments are aligned and non-null and the specified memory ranges do not overlap" }>, align 1
@alloc_2f5fae7ca9908dec8d13988b47dc9dc4 = private unnamed_addr constant <{ [104 x i8] }> <{ [104 x i8] c"unsafe precondition(s) violated: ptr::copy requires that both pointer arguments are aligned and non-null" }>, align 1
@alloc_289b84035b3220255b84b8869a538376 = private unnamed_addr constant <{ [69 x i8] }> <{ [69 x i8] c"unsafe precondition(s) violated: usize::unchecked_add cannot overflow" }>, align 1
@alloc_981fd9513041e1603a1d1d7b668a749d = private unnamed_addr constant <{ [101 x i8] }> <{ [101 x i8] c"unsafe precondition(s) violated: ptr::read requires that the pointer argument is aligned and non-null" }>, align 1
@alloc_b7474065d782af00c4610bb4ef55210b = private unnamed_addr constant <{ [102 x i8] }> <{ [102 x i8] c"unsafe precondition(s) violated: ptr::write requires that the pointer argument is aligned and non-null" }>, align 1
@alloc_0a14891e1e5c702b367f18048e678740 = private unnamed_addr constant <{ [97 x i8] }> <{ [97 x i8] c"unsafe precondition(s) violated: ptr::add requires that the address calculation does not overflow" }>, align 1
@alloc_8c618ca0a1cc354c9d9eb03e6d3bedbb = private unnamed_addr constant <{ [97 x i8] }> <{ [97 x i8] c"unsafe precondition(s) violated: ptr::sub requires that the address calculation does not overflow" }>, align 1
@alloc_20b3d155afd5c58c42e598b7e6d186ef = private unnamed_addr constant <{ [93 x i8] }> <{ [93 x i8] c"unsafe precondition(s) violated: NonNull::new_unchecked requires that the pointer is non-null" }>, align 1
@alloc_ec595fc0e82ef92fc59bd74f68296eae = private unnamed_addr constant <{ [73 x i8] }> <{ [73 x i8] c"assertion failed: 0 < pointee_size && pointee_size <= isize::MAX as usize" }>, align 1
@alloc_7efb3a7632b3620f628ce83a521b4d9b = private unnamed_addr constant <{ [71 x i8] }> <{ [71 x i8] c"unsafe precondition(s) violated: ptr::sub_ptr requires `self >= origin`" }>, align 1
@alloc_1eb6f53a157dccb32488e066ad957e6d = private unnamed_addr constant <{ [82 x i8] }> <{ [82 x i8] c"unsafe precondition(s) violated: hint::unreachable_unchecked must never be reached" }>, align 1
@alloc_929e9b2e7b7429614ca4fc017efff666 = private unnamed_addr constant <{ [41 x i8] }> <{ [41 x i8] c"there is no such thing as a relaxed fence" }>, align 1
@alloc_08b59b467ebdb5083b29fbbb7ada5445 = private unnamed_addr constant <{ ptr, [8 x i8] }> <{ ptr @alloc_929e9b2e7b7429614ca4fc017efff666, [8 x i8] c")\00\00\00\00\00\00\00" }>, align 8
@alloc_cd1513ae8d1ae22acf9342b8dfa1561d = private unnamed_addr constant <{ [164 x i8] }> <{ [164 x i8] c"unsafe precondition(s) violated: Layout::from_size_align_unchecked requires that align is a power of 2 and the rounded-up allocation size does not exceed isize::MAX" }>, align 1
@alloc_11195730e5236cfdc15ea13be1c301f9 = private unnamed_addr constant <{ [162 x i8] }> <{ [162 x i8] c"unsafe precondition(s) violated: slice::from_raw_parts requires the pointer to be aligned and non-null, and the total size of the slice not to exceed `isize::MAX`" }>, align 1
@vtable.5 = private constant <{ ptr, [16 x i8], ptr }> <{ ptr @"_ZN4core3ptr42drop_in_place$LT$std..io..error..Error$GT$17hf852552697bfd12aE", [16 x i8] c"\08\00\00\00\00\00\00\00\08\00\00\00\00\00\00\00", ptr @"_ZN58_$LT$std..io..error..Error$u20$as$u20$core..fmt..Debug$GT$3fmt17h819a66a3d3c71d8bE" }>, align 8
@alloc_00ae4b301f7fab8ac9617c03fcbd7274 = private unnamed_addr constant <{ [43 x i8] }> <{ [43 x i8] c"called `Result::unwrap()` on an `Err` value" }>, align 1
@vtable.6 = private constant <{ ptr, [16 x i8], ptr }> <{ ptr @"_ZN4core3ptr45drop_in_place$LT$serde_json..error..Error$GT$17h0d2faac477cb119fE", [16 x i8] c"\08\00\00\00\00\00\00\00\08\00\00\00\00\00\00\00", ptr @"_ZN61_$LT$serde_json..error..Error$u20$as$u20$core..fmt..Debug$GT$3fmt17hf15d521ed18a05cfE" }>, align 8
@vtable.7 = private constant <{ ptr, [16 x i8], ptr }> <{ ptr @"_ZN4core3ptr45drop_in_place$LT$redis..types..RedisError$GT$17h2bb70742178b4f0dE", [16 x i8] c"8\00\00\00\00\00\00\00\08\00\00\00\00\00\00\00", ptr @"_ZN61_$LT$redis..types..RedisError$u20$as$u20$core..fmt..Debug$GT$3fmt17hb42047671dd17e96E" }>, align 8
@vtable.8 = private constant <{ ptr, [16 x i8], ptr }> <{ ptr @"_ZN4core3ptr91drop_in_place$LT$alloc..boxed..Box$LT$dyn$u20$core..any..Any$u2b$core..marker..Send$GT$$GT$17hfd5d326d0b817631E", [16 x i8] c"\10\00\00\00\00\00\00\00\08\00\00\00\00\00\00\00", ptr @"_ZN67_$LT$alloc..boxed..Box$LT$T$C$A$GT$$u20$as$u20$core..fmt..Debug$GT$3fmt17hd8d305a05044deffE" }>, align 8
@anon.d117e058ce1dc08ee7364fbea7ca1519.0 = private unnamed_addr constant <{ [16 x i8] }> zeroinitializer, align 16
@alloc_763310d78c99c2c1ad3f8a9821e942f3 = private unnamed_addr constant <{ [61 x i8] }> <{ [61 x i8] c"is_nonoverlapping: `size_of::<T>() * count` overflows a usize" }>, align 1
@alloc_00c4bc2c43db60dab26d25d7c2e3bd2a = private unnamed_addr constant <{ [44 x i8] }> <{ [44 x i8] c"assertion failed: new_len <= self.capacity()" }>, align 1
@alloc_0cb72a07695959c068f18d616edf8a21 = private unnamed_addr constant <{ [4 x i8] }> <{ [4 x i8] c"ZADD" }>, align 1
@vtable.9 = private constant <{ ptr, [16 x i8], ptr, ptr, ptr, ptr, ptr, ptr, ptr }> <{ ptr @"_ZN4core3ptr50drop_in_place$LT$redis..connection..Connection$GT$17h5c182fdfa9807c41E", [16 x i8] c"X\00\00\00\00\00\00\00\08\00\00\00\00\00\00\00", ptr @"_ZN83_$LT$redis..connection..Connection$u20$as$u20$redis..connection..ConnectionLike$GT$18req_packed_command17hde1385571231445cE", ptr @"_ZN83_$LT$redis..connection..Connection$u20$as$u20$redis..connection..ConnectionLike$GT$19req_packed_commands17h85062ff3c14e84b7E", ptr @_ZN5redis10connection14ConnectionLike11req_command17h7d133c755e3b65b2E, ptr @"_ZN83_$LT$redis..connection..Connection$u20$as$u20$redis..connection..ConnectionLike$GT$6get_db17he1ce2b7b4cf61cf0E", ptr @_ZN5redis10connection14ConnectionLike19supports_pipelining17h21274db15e868653E, ptr @"_ZN83_$LT$redis..connection..Connection$u20$as$u20$redis..connection..ConnectionLike$GT$16check_connection17hfeb92bb1a290b423E", ptr @"_ZN83_$LT$redis..connection..Connection$u20$as$u20$redis..connection..ConnectionLike$GT$7is_open17he61200cbc55683eeE" }>, align 8
@alloc_3b99cf3889855522042186bfbc89cd01 = private unnamed_addr constant <{ [52 x i8] }> <{ [52 x i8] c"fatal runtime error: thread result panicked on drop\0A" }>, align 1
@alloc_c0e3aec3f6743dc4f8f81f1ffbf7918f = private unnamed_addr constant <{ ptr, [8 x i8] }> <{ ptr @alloc_3b99cf3889855522042186bfbc89cd01, [8 x i8] c"4\00\00\00\00\00\00\00" }>, align 8
@_ZN5alloc4sync18STATIC_INNER_SLICE17h3a2b380c544fba08E = external global %"alloc::sync::SliceArcInnerForStatic"
@alloc_a26bf732652430d3fd33a953b0af2f59 = private unnamed_addr constant <{ [133 x i8] }> <{ [133 x i8] c"Arcs backed by a static should never reach a strong count of 0. Likely decrement_strong_count or from_raw were called too many times." }>, align 1
@alloc_7114f5b43d6c60b0b3f38891de12ce6a = private unnamed_addr constant <{ ptr, [8 x i8] }> <{ ptr @alloc_a26bf732652430d3fd33a953b0af2f59, [8 x i8] c"\85\00\00\00\00\00\00\00" }>, align 8
@alloc_54c9eea5e1e220d0f4257e256833abb4 = private unnamed_addr constant <{ [127 x i8] }> <{ [127 x i8] c"Arc/Weaks backed by a static should never be deallocated. Likely decrement_strong_count or from_raw were called too many times." }>, align 1
@alloc_0521c3f341cc8d5b6dc515ca4861d561 = private unnamed_addr constant <{ ptr, [8 x i8] }> <{ ptr @alloc_54c9eea5e1e220d0f4257e256833abb4, [8 x i8] c"\7F\00\00\00\00\00\00\00" }>, align 8
@alloc_da5b03e4fe5a3abd85065146ef93cdcb = private unnamed_addr constant <{ [31 x i8] }> <{ [31 x i8] c"assertion failed: nxt.is_some()" }>, align 1
@vtable.a = private constant <{ [24 x i8], ptr }> <{ [24 x i8] c"\00\00\00\00\00\00\00\00\00\00\00\00\00\00\00\00\01\00\00\00\00\00\00\00", ptr @"_ZN41_$LT$T$u20$as$u20$serde..de..Expected$GT$3fmt17hb38f9d0030b21627E" }>, align 8
@vtable.b = private constant <{ [24 x i8], ptr }> <{ [24 x i8] c"\00\00\00\00\00\00\00\00\00\00\00\00\00\00\00\00\01\00\00\00\00\00\00\00", ptr @"_ZN41_$LT$T$u20$as$u20$serde..de..Expected$GT$3fmt17hb489cd915f629355E" }>, align 8
@alloc_9a1c7955106ebadc966b1010c5bbd6d9 = private unnamed_addr constant <{ [43 x i8] }> <{ [43 x i8] c"assertion failed: buckets.is_power_of_two()" }>, align 1
@alloc_53973d2fe29b4adba8bb7390b5678745 = private unnamed_addr constant <{ [8 x i8] }> zeroinitializer, align 8
@alloc_c3b6d53dd9bd1510e9a26e6e4f3d162a = private unnamed_addr constant <{ [40 x i8] }> <{ [40 x i8] c"assertion failed: index < self.buckets()" }>, align 1
@alloc_f221a41e60e2c2405013375c89df9d11 = private unnamed_addr constant <{ [49 x i8] }> <{ [49 x i8] c"assertion failed: self.bucket_mask < Group::WIDTH" }>, align 1
@alloc_8e2b705173e3146eddf2aa01d5da3374 = private unnamed_addr constant <{ [1 x i8] }> <{ [1 x i8] c"\80" }>, align 1
@alloc_9a72dc1c87ddefcce62e4b5ab68e5150 = private unnamed_addr constant <{ [1 x i8] }> <{ [1 x i8] c"\FF" }>, align 1
@alloc_d4ba273af71dec0b6121025ad15b0934 = private unnamed_addr constant <{ [47 x i8] }> <{ [47 x i8] c"assertion failed: index < self.num_ctrl_bytes()" }>, align 1
@alloc_d0776666182ad032bd1011cf266e2f3a = private unnamed_addr constant <{ [16 x i8] }> <{ [16 x i8] c"\FF\FF\FF\FF\FF\FF\FF\FF\FF\FF\FF\FF\FF\FF\FF\FF" }>, align 16
@anon.d117e058ce1dc08ee7364fbea7ca1519.1 = private unnamed_addr constant <{ ptr, [24 x i8] }> <{ ptr @alloc_d0776666182ad032bd1011cf266e2f3a, [24 x i8] zeroinitializer }>, align 8
@vtable.c = private constant <{ [24 x i8], ptr, ptr, ptr }> <{ [24 x i8] c"\00\00\00\00\00\00\00\00\08\00\00\00\00\00\00\00\08\00\00\00\00\00\00\00", ptr @"_ZN4core3ops8function6FnOnce40call_once$u7b$$u7b$vtable.shim$u7d$$u7d$17h71ee967149588790E", ptr @"_ZN9hashbrown3raw21RawTable$LT$T$C$A$GT$14reserve_rehash28_$u7b$$u7b$closure$u7d$$u7d$17hb435a2f75937dd56E", ptr @"_ZN9hashbrown3raw21RawTable$LT$T$C$A$GT$14reserve_rehash28_$u7b$$u7b$closure$u7d$$u7d$17hb435a2f75937dd56E" }>, align 8
@vtable.d = private constant <{ [24 x i8], ptr, ptr }> <{ [24 x i8] c"\00\00\00\00\00\00\00\00\10\00\00\00\00\00\00\00\08\00\00\00\00\00\00\00", ptr @"_ZN4core3ops8function6FnOnce40call_once$u7b$$u7b$vtable.shim$u7d$$u7d$17h31bf51486e6e5b56E", ptr @"_ZN9hashbrown3raw21RawTable$LT$T$C$A$GT$24find_or_find_insert_slot28_$u7b$$u7b$closure$u7d$$u7d$17hd6e80be7cd7ef5fdE" }>, align 8
@vtable.e = private constant <{ [24 x i8], ptr, ptr }> <{ [24 x i8] c"\00\00\00\00\00\00\00\00\10\00\00\00\00\00\00\00\08\00\00\00\00\00\00\00", ptr @"_ZN4core3ops8function6FnOnce40call_once$u7b$$u7b$vtable.shim$u7d$$u7d$17h650faaf2668f564bE", ptr @"_ZN9hashbrown3raw21RawTable$LT$T$C$A$GT$4find28_$u7b$$u7b$closure$u7d$$u7d$17h6273f830ca12ba0bE" }>, align 8
@alloc_58d775e767df59a4a584ad4e47672c04 = private unnamed_addr constant <{ [31 x i8] }> <{ [31 x i8] c"Went past end of probe sequence" }>, align 1
@alloc_c4f7f172f6ddb40182467e21388afe62 = private unnamed_addr constant <{ ptr, [8 x i8] }> <{ ptr @alloc_58d775e767df59a4a584ad4e47672c04, [8 x i8] c"\1F\00\00\00\00\00\00\00" }>, align 8
@alloc_415d34d1a55ce06d02b8d5c94fa2ff39 = private unnamed_addr constant <{ [35 x i8] }> <{ [35 x i8] c"assertion failed: self.is_special()" }>, align 1
@alloc_6ca4ca8ac41454b547cdebd59d86c7e5 = private unnamed_addr constant <{ [14 x i8] }> <{ [14 x i8] c"user-timeline:" }>, align 1
@alloc_5578f24246f2a5d76ee2f439bfa3d122 = private unnamed_addr constant <{ [26 x i8] }> <{ [26 x i8] c"social-graph-get-followers" }>, align 1
@alloc_4192ed3b92b550c0d82c6e919997c0e9.31 = private unnamed_addr constant <{ [10 x i8] }> <{ [10 x i8] c"<redacted>" }>, align 1
@alloc_ae52e422ab29884b58622d79788975fe.4 = private unnamed_addr constant <{ ptr, [16 x i8] }> <{ ptr @alloc_4192ed3b92b550c0d82c6e919997c0e9.31, [16 x i8] c"\0A\00\00\00\00\00\00\00\00\00\00\00\00\00\00\00" }>, align 8
@vtable.0.20 = private constant <{ [24 x i8], ptr }> <{ [24 x i8] c"\00\00\00\00\00\00\00\00\00\00\00\00\00\00\00\00\01\00\00\00\00\00\00\00", ptr @"_ZN41_$LT$T$u20$as$u20$serde..de..Expected$GT$3fmt17hc7815c32bd458137E" }>, align 8
@alloc_036636151bab3754536335311c8d3ab8 = private unnamed_addr constant <{ [1 x i8] }> <{ [1 x i8] c"[" }>, align 1
@alloc_41a776d8d06dc2b9b0480e88fa257ffe = private unnamed_addr constant <{ [1 x i8] }> <{ [1 x i8] c"," }>, align 1
@alloc_7a6887ef0f93938f57a4bb958cf80311 = private unnamed_addr constant <{ [1 x i8] }> <{ [1 x i8] c"]" }>, align 1
@alloc_6c3c28a042770293cfa9bea3e20a3fd6 = private unnamed_addr constant <{ [8 x i8] }> <{ [8 x i8] c"Follower" }>, align 1
@alloc_5e5d0fc3969e190d5b793845b4d75f83 = private unnamed_addr constant <{ [11 x i8] }> <{ [11 x i8] c"follower_id" }>, align 1
@alloc_5e776ce52c9f5c81d68da620afd2d199.19 = private unnamed_addr constant <{ [9 x i8] }> <{ [9 x i8] c"timestamp" }>, align 1
@alloc_745ce56c87da20961640991551607f5c = private unnamed_addr constant <{ ptr, [8 x i8], ptr, [8 x i8] }> <{ ptr @alloc_5e5d0fc3969e190d5b793845b4d75f83, [8 x i8] c"\0B\00\00\00\00\00\00\00", ptr @alloc_5e776ce52c9f5c81d68da620afd2d199.19, [8 x i8] c"\09\00\00\00\00\00\00\00" }>, align 8
@alloc_1fcba90cb36554639964cdfaa443ba11.32 = private unnamed_addr constant <{ [27 x i8] }> <{ [27 x i8] c"SocialGraphGetFollowersArgs" }>, align 1
@alloc_17c2596754a11fa444906090c11cb050.33 = private unnamed_addr constant <{ [7 x i8] }> <{ [7 x i8] c"user_id" }>, align 1
@alloc_8a1c00313d545b9334da69b73e87c929 = private unnamed_addr constant <{ ptr, [8 x i8] }> <{ ptr @alloc_17c2596754a11fa444906090c11cb050.33, [8 x i8] c"\07\00\00\00\00\00\00\00" }>, align 8
@alloc_606dc6fb7b7dd2f8c1e5eb307d5ca90f = private unnamed_addr constant <{ [4 x i8] }> <{ [4 x i8] c"get " }>, align 1
@alloc_980705bbcb4b81b075ee5637d0bc8d86 = private unnamed_addr constant <{ [2 x i8] }> <{ [2 x i8] c"\0D\0A" }>, align 1
@alloc_93c2d8667cd422f6cb8cc63a8abc3096 = private unnamed_addr constant <{ ptr, [8 x i8], ptr, [8 x i8] }> <{ ptr @alloc_606dc6fb7b7dd2f8c1e5eb307d5ca90f, [8 x i8] c"\04\00\00\00\00\00\00\00", ptr @alloc_980705bbcb4b81b075ee5637d0bc8d86, [8 x i8] c"\02\00\00\00\00\00\00\00" }>, align 8
@alloc_93f57990a3fec9ee98f802a73f76e16f = private unnamed_addr constant <{ [28 x i8] }> <{ [28 x i8] c"Expected end of get response" }>, align 1
@alloc_7e57629ddc83db8b8b209e5718511663 = private unnamed_addr constant <{ [33 x i8] }> <{ [33 x i8] c"key doesn't match in the response" }>, align 1
@alloc_34ac169841d4f3303cf4c610a8bc34b3 = private unnamed_addr constant <{ [31 x i8] }> <{ [31 x i8] c"struct Follower with 2 elements" }>, align 1
@alloc_65ff3fd662cc16f39ef2ec386f6a7101 = private unnamed_addr constant <{ ptr, [8 x i8] }> <{ ptr @alloc_34ac169841d4f3303cf4c610a8bc34b3, [8 x i8] c"\1F\00\00\00\00\00\00\00" }>, align 8
@vtable.1.21 = private constant <{ [24 x i8], ptr }> <{ [24 x i8] c"\00\00\00\00\00\00\00\00\10\00\00\00\00\00\00\00\08\00\00\00\00\00\00\00", ptr @"_ZN47_$LT$$RF$str$u20$as$u20$serde..de..Expected$GT$3fmt17hcfda961f704db5bdE" }>, align 8
@alloc_c705cb38a8523735dfb9d88c7a0743fd.22 = private unnamed_addr constant <{ [10 x i8] }> <{ [10 x i8] c"a sequence" }>, align 1
@alloc_75ed0930a87037e8a732783d506123a6 = private unnamed_addr constant <{ [49 x i8] }> <{ [49 x i8] c"struct SocialGraphGetFollowersArgs with 1 element" }>, align 1
@alloc_aea92f2b505d549f2baf751900009e7d = private unnamed_addr constant <{ ptr, [8 x i8] }> <{ ptr @alloc_75ed0930a87037e8a732783d506123a6, [8 x i8] c"1\00\00\00\00\00\00\00" }>, align 8
@vtable.2.27 = private constant <{ ptr, [16 x i8], ptr, ptr }> <{ ptr @"_ZN4core3ptr118drop_in_place$LT$r2d2..Pool$LT$memcache..connection..ConnectionManager$GT$..new_inner..$u7b$$u7b$closure$u7d$$u7d$$GT$17hd8cff273a2483c0fE", [16 x i8] c"\08\00\00\00\00\00\00\00\08\00\00\00\00\00\00\00", ptr @"_ZN4core3ops8function6FnOnce40call_once$u7b$$u7b$vtable.shim$u7d$$u7d$17hb810bcf81f98098fE", ptr @"_ZN4r2d213Pool$LT$M$GT$9new_inner28_$u7b$$u7b$closure$u7d$$u7d$17hf5edc181c7821d68E" }>, align 8
@_ZN3log20MAX_LOG_LEVEL_FILTER17h462664ddfba63cdcE = external global %"core::sync::atomic::AtomicUsize"
@vtable.3.1 = private constant <{ [24 x i8], ptr, ptr, ptr }> <{ [24 x i8] c"\00\00\00\00\00\00\00\00\08\00\00\00\00\00\00\00\08\00\00\00\00\00\00\00", ptr @"_ZN4core3ops8function6FnOnce40call_once$u7b$$u7b$vtable.shim$u7d$$u7d$17h8fe65fe154c9edfdE", ptr @"_ZN3std2rt10lang_start28_$u7b$$u7b$closure$u7d$$u7d$17hd0ff8e4780e78079E", ptr @"_ZN3std2rt10lang_start28_$u7b$$u7b$closure$u7d$$u7d$17hd0ff8e4780e78079E" }>, align 8
@vtable.4.25 = private constant <{ ptr, [16 x i8], ptr, ptr, ptr }> <{ ptr @"_ZN4core3ptr42drop_in_place$LT$alloc..string..String$GT$17hb3b04e371e33c46dE", [16 x i8] c"\18\00\00\00\00\00\00\00\08\00\00\00\00\00\00\00", ptr @"_ZN58_$LT$alloc..string..String$u20$as$u20$core..fmt..Write$GT$9write_str17h0f040bb422fac576E", ptr @"_ZN58_$LT$alloc..string..String$u20$as$u20$core..fmt..Write$GT$10write_char17h8213fbefa7517f85E", ptr @_ZN4core3fmt5Write9write_fmt17h6894637872bcf126E }>, align 8
@alloc_cc656815297f75969399c3f4b1ad3de4.26 = private unnamed_addr constant <{ [55 x i8] }> <{ [55 x i8] c"a Display implementation returned an error unexpectedly" }>, align 1
@alloc_8df0580a595a87d56789d20c7318e185.12 = private unnamed_addr constant <{ [166 x i8] }> <{ [166 x i8] c"unsafe precondition(s) violated: ptr::copy_nonoverlapping requires that both pointer arguments are aligned and non-null and the specified memory ranges do not overlap" }>, align 1
@alloc_ffc44ed1670ebf78d81555edceff65f6 = private unnamed_addr constant <{ [69 x i8] }> <{ [69 x i8] c"unsafe precondition(s) violated: usize::unchecked_mul cannot overflow" }>, align 1
@alloc_981fd9513041e1603a1d1d7b668a749d.17 = private unnamed_addr constant <{ [101 x i8] }> <{ [101 x i8] c"unsafe precondition(s) violated: ptr::read requires that the pointer argument is aligned and non-null" }>, align 1
@alloc_b7474065d782af00c4610bb4ef55210b.16 = private unnamed_addr constant <{ [102 x i8] }> <{ [102 x i8] c"unsafe precondition(s) violated: ptr::write requires that the pointer argument is aligned and non-null" }>, align 1
@alloc_0a14891e1e5c702b367f18048e678740.9 = private unnamed_addr constant <{ [97 x i8] }> <{ [97 x i8] c"unsafe precondition(s) violated: ptr::add requires that the address calculation does not overflow" }>, align 1
@alloc_ec595fc0e82ef92fc59bd74f68296eae.7 = private unnamed_addr constant <{ [73 x i8] }> <{ [73 x i8] c"assertion failed: 0 < pointee_size && pointee_size <= isize::MAX as usize" }>, align 1
@alloc_7efb3a7632b3620f628ce83a521b4d9b.8 = private unnamed_addr constant <{ [71 x i8] }> <{ [71 x i8] c"unsafe precondition(s) violated: ptr::sub_ptr requires `self >= origin`" }>, align 1
@alloc_ab14703751a9eb3585c49b2e55e9a9e5 = private unnamed_addr constant <{ [104 x i8] }> <{ [104 x i8] c"unsafe precondition(s) violated: hint::assert_unchecked must never be called when the condition is false" }>, align 1
@alloc_cd1513ae8d1ae22acf9342b8dfa1561d.14 = private unnamed_addr constant <{ [164 x i8] }> <{ [164 x i8] c"unsafe precondition(s) violated: Layout::from_size_align_unchecked requires that align is a power of 2 and the rounded-up allocation size does not exceed isize::MAX" }>, align 1
@alloc_11195730e5236cfdc15ea13be1c301f9.10 = private unnamed_addr constant <{ [162 x i8] }> <{ [162 x i8] c"unsafe precondition(s) violated: slice::from_raw_parts requires the pointer to be aligned and non-null, and the total size of the slice not to exceed `isize::MAX`" }>, align 1
@alloc_d685bb4d9a1abf4f5af46d1af0d9ef8a = private unnamed_addr constant <{ [166 x i8] }> <{ [166 x i8] c"unsafe precondition(s) violated: slice::from_raw_parts_mut requires the pointer to be aligned and non-null, and the total size of the slice not to exceed `isize::MAX`" }>, align 1
@alloc_00ae4b301f7fab8ac9617c03fcbd7274.2 = private unnamed_addr constant <{ [43 x i8] }> <{ [43 x i8] c"called `Result::unwrap()` on an `Err` value" }>, align 1
@vtable.5.5 = private constant <{ ptr, [16 x i8], ptr }> <{ ptr @"_ZN4core3ptr51drop_in_place$LT$memcache..error..MemcacheError$GT$17h41e428fc3256f4d7E", [16 x i8] c"8\00\00\00\00\00\00\00\08\00\00\00\00\00\00\00", ptr @"_ZN67_$LT$memcache..error..MemcacheError$u20$as$u20$core..fmt..Debug$GT$3fmt17h21a0dbd667163d36E" }>, align 8
@vtable.6.3 = private constant <{ ptr, [16 x i8], ptr }> <{ ptr @"_ZN4core3ptr45drop_in_place$LT$serde_json..error..Error$GT$17hc544a2c1ddfd9a48E", [16 x i8] c"\08\00\00\00\00\00\00\00\08\00\00\00\00\00\00\00", ptr @"_ZN61_$LT$serde_json..error..Error$u20$as$u20$core..fmt..Debug$GT$3fmt17h63a26ae1ebae4ffdE" }>, align 8
@vtable.7.6 = private constant <{ ptr, [16 x i8], ptr }> <{ ptr @"_ZN4core3ptr45drop_in_place$LT$redis..types..RedisError$GT$17h17871fe046528873E", [16 x i8] c"8\00\00\00\00\00\00\00\08\00\00\00\00\00\00\00", ptr @"_ZN61_$LT$redis..types..RedisError$u20$as$u20$core..fmt..Debug$GT$3fmt17h6ae157addfaa1f5aE" }>, align 8
@vtable.8.24 = private constant <{ [24 x i8], ptr }> <{ [24 x i8] c"\00\00\00\00\00\00\00\00\00\00\00\00\00\00\00\00\01\00\00\00\00\00\00\00", ptr @"_ZN67_$LT$core..array..TryFromSliceError$u20$as$u20$core..fmt..Debug$GT$3fmt17hd2311ba41f7233e5E" }>, align 8
@vtable.9.15 = private constant <{ [24 x i8], ptr }> <{ [24 x i8] c"\00\00\00\00\00\00\00\00\08\00\00\00\00\00\00\00\08\00\00\00\00\00\00\00", ptr @"_ZN42_$LT$$RF$T$u20$as$u20$core..fmt..Debug$GT$3fmt17h47f23c23c179dab5E" }>, align 8
@alloc_763310d78c99c2c1ad3f8a9821e942f3.13 = private unnamed_addr constant <{ [61 x i8] }> <{ [61 x i8] c"is_nonoverlapping: `size_of::<T>() * count` overflows a usize" }>, align 1
@alloc_8518a6561828c584ba07bb3763e8315b = private unnamed_addr constant <{ [40 x i8] }> <{ [40 x i8] c"min_idle must be no larger than max_size" }>, align 1
@alloc_5ddcc4d571870f69fb17382ddbfc3217 = private unnamed_addr constant <{ [14 x i8] }> <{ [14 x i8] c"r2d2-worker-{}" }>, align 1
@alloc_a9795d8ba7733f0c781c1e214a919329 = private unnamed_addr constant <{ [35 x i8] }> <{ [35 x i8] c"connection_timeout must be positive" }>, align 1
@alloc_31051f577b8e53159e57f395b8e4c2e4 = private unnamed_addr constant <{ [25 x i8] }> <{ [25 x i8] c"max_size must be positive" }>, align 1
@alloc_3860cda7c7ca35d104df03f530f92d4f = private unnamed_addr constant <{ [78 x i8] }> <{ [78 x i8] c"InPlaceIterable contract violation, write pointer advanced beyond read pointer" }>, align 1
@alloc_ad0398e6e71ac4d71954beba0ca527f5 = private unnamed_addr constant <{ ptr, [8 x i8] }> <{ ptr @alloc_3860cda7c7ca35d104df03f530f92d4f, [8 x i8] c"N\00\00\00\00\00\00\00" }>, align 8
@alloc_53973d2fe29b4adba8bb7390b5678745.11 = private unnamed_addr constant <{ [8 x i8] }> zeroinitializer, align 8
@alloc_c2b8d18a8820c4c36eea34c45987dafc = private unnamed_addr constant <{ [34 x i8] }> <{ [34 x i8] c"InPlaceIterable contract violation" }>, align 1
@alloc_6e00b24992d19a4fbc54d5661e2548d5 = private unnamed_addr constant <{ ptr, [8 x i8] }> <{ ptr @alloc_c2b8d18a8820c4c36eea34c45987dafc, [8 x i8] c"\22\00\00\00\00\00\00\00" }>, align 8
@__rust_no_alloc_shim_is_unstable = external global i8
@alloc_671aa59773f02257fc9741a0f6515002 = private unnamed_addr constant <{ [5 x i8] }> <{ [5 x i8] c"HMGET" }>, align 1
@alloc_b406d848b20b973d13f404eb7b952b6b = private unnamed_addr constant <{ [4 x i8] }> <{ [4 x i8] c"HGET" }>, align 1
@vtable.a.23 = private constant <{ ptr, [16 x i8], ptr, ptr, ptr, ptr, ptr, ptr, ptr }> <{ ptr @"_ZN4core3ptr50drop_in_place$LT$redis..connection..Connection$GT$17h61e564b38ae0d3bcE", [16 x i8] c"X\00\00\00\00\00\00\00\08\00\00\00\00\00\00\00", ptr @"_ZN83_$LT$redis..connection..Connection$u20$as$u20$redis..connection..ConnectionLike$GT$18req_packed_command17h1763018b380d8b78E", ptr @"_ZN83_$LT$redis..connection..Connection$u20$as$u20$redis..connection..ConnectionLike$GT$19req_packed_commands17h5849d9048f826e1eE", ptr @_ZN5redis10connection14ConnectionLike11req_command17h15cf3f865c0a8efaE, ptr @"_ZN83_$LT$redis..connection..Connection$u20$as$u20$redis..connection..ConnectionLike$GT$6get_db17h8185c9728687f629E", ptr @_ZN5redis10connection14ConnectionLike19supports_pipelining17hbb3ccbcdd779eae6E, ptr @"_ZN83_$LT$redis..connection..Connection$u20$as$u20$redis..connection..ConnectionLike$GT$16check_connection17hef3a2cb1a720334bE", ptr @"_ZN83_$LT$redis..connection..Connection$u20$as$u20$redis..connection..ConnectionLike$GT$7is_open17hd6eca3242c7eba84E" }>, align 8
@alloc_c18aec2f64791555f5b3394d1fad7c20 = private unnamed_addr constant <{ [72 x i8] }> <{ [72 x i8] c"`new_layout.size()` must be smaller than or equal to `old_layout.size()`" }>, align 1
@alloc_1020994b51d9ceb7568ac48c79478bfe = private unnamed_addr constant <{ ptr, [8 x i8] }> <{ ptr @alloc_c18aec2f64791555f5b3394d1fad7c20, [8 x i8] c"H\00\00\00\00\00\00\00" }>, align 8
@alloc_33e8ada5b6178afcb200a31f257552b1 = private unnamed_addr constant <{ [8 x i8] }> <{ [8 x i8] c"\05\00\00\00\00\00\00\00" }>, align 8
@alloc_eab5d04767146d7d9b93b60d28ef530a = private unnamed_addr constant <{ ptr, [8 x i8] }> <{ ptr inttoptr (i64 1 to ptr), [8 x i8] zeroinitializer }>, align 8
@alloc_c6fcdfef848df325684f2662252d07fe = private unnamed_addr constant <{ [4 x i8] }> <{ [4 x i8] c"r2d2" }>, align 1
@vtable.b.28 = private constant <{ [24 x i8], ptr, ptr }> <{ [24 x i8] c"\00\00\00\00\00\00\00\00\00\00\00\00\00\00\00\00\01\00\00\00\00\00\00\00", ptr @"_ZN62_$LT$r2d2..LoggingErrorHandler$u20$as$u20$core..fmt..Debug$GT$3fmt17he6940219833491e1E", ptr @"_ZN72_$LT$r2d2..LoggingErrorHandler$u20$as$u20$r2d2..HandleError$LT$E$GT$$GT$12handle_error17h8e4c3cd229991bedE" }>, align 8
@vtable.c.29 = private constant <{ [24 x i8], ptr, ptr, ptr, ptr, ptr, ptr }> <{ [24 x i8] c"\00\00\00\00\00\00\00\00\00\00\00\00\00\00\00\00\01\00\00\00\00\00\00\00", ptr @"_ZN65_$LT$r2d2..event..NopEventHandler$u20$as$u20$core..fmt..Debug$GT$3fmt17h31f74d8b10143401E", ptr @_ZN4r2d25event11HandleEvent14handle_acquire17h5f65d7b59fbc1c21E, ptr @_ZN4r2d25event11HandleEvent14handle_release17h5edaf75e72fe1840E, ptr @_ZN4r2d25event11HandleEvent15handle_checkout17h8c06cfb1404f5610E, ptr @_ZN4r2d25event11HandleEvent14handle_timeout17h4af65f0ace991d75E, ptr @_ZN4r2d25event11HandleEvent14handle_checkin17hddcdee6ef0e1d604E }>, align 8
@vtable.d.30 = private constant <{ [24 x i8], ptr, ptr, ptr }> <{ [24 x i8] c"\00\00\00\00\00\00\00\00\00\00\00\00\00\00\00\00\01\00\00\00\00\00\00\00", ptr @"_ZN66_$LT$r2d2..NopConnectionCustomizer$u20$as$u20$core..fmt..Debug$GT$3fmt17hb086f4a285122291E", ptr @_ZN4r2d219CustomizeConnection10on_acquire17ha03f5759f4648319E, ptr @_ZN4r2d219CustomizeConnection10on_release17h6c8d0894c669b55eE }>, align 8
@alloc_8821998f047ca62cad40e6bc4e4d87c4 = private unnamed_addr constant <{ [1 x i8] }> <{ [1 x i8] c"\01" }>, align 1
@anon.26cf1c0c57df484a4737be6e98684769.0 = private unnamed_addr constant <{ [1 x i8] }> zeroinitializer, align 1
@alloc_24a2937763a8c1f5b7dbe1dc66afbde2 = private unnamed_addr constant <{ [15 x i8] }> <{ [15 x i8] c"connect_timeout" }>, align 1
@alloc_0191943665a98f23552f09a5e8095e6c = private unnamed_addr constant <{ ptr, [8 x i8] }> <{ ptr @alloc_24a2937763a8c1f5b7dbe1dc66afbde2, [8 x i8] c"\0F\00\00\00\00\00\00\00" }>, align 8
@alloc_684ec25ca0704768680f480f94c3547c = private unnamed_addr constant <{ [32 x i8] }> <{ [32 x i8] c"Ascii protocol response too long" }>, align 1
@alloc_0e4f1add760fc16671b4ae3d6afa64b0 = private unnamed_addr constant <{ [28 x i8] }> <{ [28 x i8] c"Ascii protocol no line found" }>, align 1
@alloc_605785061f10bfa33fb9569133baf330 = private unnamed_addr constant <{ ptr }> <{ ptr @alloc_980705bbcb4b81b075ee5637d0bc8d86 }>, align 8
@alloc_cba40c5db543b4bfb3380d6fccd8b74a = private unnamed_addr constant <{ [5 x i8] }> <{ [5 x i8] c"END\0D\0A" }>, align 1
@alloc_ad925f40761cf2590bdc1754b17c8ed8 = private unnamed_addr constant <{ ptr, [8 x i8] }> <{ ptr @alloc_cba40c5db543b4bfb3380d6fccd8b74a, [8 x i8] c"\05\00\00\00\00\00\00\00" }>, align 8
@alloc_23ae5e0b2ef9fbdd84411c6352508b65 = private unnamed_addr constant <{ [5 x i8] }> <{ [5 x i8] c"VALUE" }>, align 1
@alloc_0242e8ee118de705af76c627590b82cc = private unnamed_addr constant <{ [1 x i8] }> <{ [1 x i8] c" " }>, align 1
@vtable.e.18 = private constant <{ [24 x i8], ptr }> <{ [24 x i8] c"\00\00\00\00\00\00\00\00\00\00\00\00\00\00\00\00\01\00\00\00\00\00\00\00", ptr @"_ZN41_$LT$T$u20$as$u20$serde..de..Expected$GT$3fmt17hfa4bb4883d3f7428E" }>, align 8
@vtable.f = private constant <{ [24 x i8], ptr }> <{ [24 x i8] c"\00\00\00\00\00\00\00\00\00\00\00\00\00\00\00\00\01\00\00\00\00\00\00\00", ptr @"_ZN41_$LT$T$u20$as$u20$serde..de..Expected$GT$3fmt17h872e04d5d7f15aabE" }>, align 8
@vtable.g = private constant <{ [24 x i8], ptr }> <{ [24 x i8] c"\00\00\00\00\00\00\00\00\00\00\00\00\00\00\00\00\01\00\00\00\00\00\00\00", ptr @"_ZN41_$LT$T$u20$as$u20$serde..de..Expected$GT$3fmt17hc3b7767643a62aa3E" }>, align 8
@alloc_d791eaf358ed821941e2d4cfd804d89b = private unnamed_addr constant <{ [16 x i8] }> <{ [16 x i8] c"\01\00\00\00\00\00\00\00\00\00\00\00\00\00\00\00" }>, align 8
@alloc_c9b03edc1d4c89345b1a90b58c48a145 = private unnamed_addr constant <{ [10 x i8] }> <{ [10 x i8] c":followers" }>, align 1
@alloc_b43be9105ad19cdde664e37eef28e680 = private unnamed_addr constant <{ [13 x i8] }> <{ [13 x i8] c"social-graph:" }>, align 1
@alloc_defe1279fd5a2acbdf45ebb75e64b471 = private unnamed_addr constant <{ [9 x i8] }> <{ [9 x i8] c"followers" }>, align 1
@__rustc_debug_gdb_scripts_section__ = linkonce_odr unnamed_addr constant [34 x i8] c"\01gdb_load_rust_pretty_printers.py\00", section ".debug_gdb_scripts", align 1

; Function Attrs: nonlazybind uwtable
define hidden i64 @_ZN3std2rt10lang_start17h72125b49843628faE(ptr %main, i64 %argc, ptr %argv, i8 %sigpipe) unnamed_addr #0 {
start:
  %v.dbg.spill = alloca [8 x i8], align 8
  %sigpipe.dbg.spill = alloca [1 x i8], align 1
  %argv.dbg.spill = alloca [8 x i8], align 8
  %argc.dbg.spill = alloca [8 x i8], align 8
  %main.dbg.spill = alloca [8 x i8], align 8
  %_8 = alloca [8 x i8], align 8
  %_5 = alloca [8 x i8], align 8
  store ptr %main, ptr %main.dbg.spill, align 8
  store i64 %argc, ptr %argc.dbg.spill, align 8
  store ptr %argv, ptr %argv.dbg.spill, align 8
  store i8 %sigpipe, ptr %sigpipe.dbg.spill, align 1
  store ptr %main, ptr %_8, align 8
  %0 = call i64 @_ZN3std2rt19lang_start_internal17hf028c99a517e8b1aE(ptr align 1 %_8, ptr align 8 @vtable.2, i64 %argc, ptr %argv, i8 %sigpipe)
  store i64 %0, ptr %_5, align 8
  %v = load i64, ptr %_5, align 8
  store i64 %v, ptr %v.dbg.spill, align 8
  ret i64 %v
}

; Function Attrs: nonlazybind uwtable
declare i64 @_ZN3std2rt19lang_start_internal17hf028c99a517e8b1aE(ptr align 1, ptr align 8, i64, ptr, i8) unnamed_addr #0

; Function Attrs: inlinehint nonlazybind uwtable
define internal i32 @"_ZN4core3ops8function6FnOnce40call_once$u7b$$u7b$vtable.shim$u7d$$u7d$17ha7bedaec22f647e4E"(ptr %_1) unnamed_addr #1 {
start:
  %_1.dbg.spill = alloca [8 x i8], align 8
  %_2 = alloca [0 x i8], align 1
  store ptr %_1, ptr %_1.dbg.spill, align 8
  %0 = load ptr, ptr %_1, align 8
  %_0 = call i32 @_ZN4core3ops8function6FnOnce9call_once17h314290895fc38a89E(ptr %0)
  ret i32 %_0
}

; Function Attrs: inlinehint nonlazybind uwtable
define internal i32 @"_ZN3std2rt10lang_start28_$u7b$$u7b$closure$u7d$$u7d$17h753ccdb3e4a8c247E"(ptr align 8 %_1) unnamed_addr #1 {
start:
  %_1.dbg.spill = alloca [8 x i8], align 8
  store ptr %_1, ptr %_1.dbg.spill, align 8
  %_4 = load ptr, ptr %_1, align 8
  call void @_ZN3std3sys9backtrace28__rust_begin_short_backtrace17h35d86e51eac050b1E(ptr %_4)
  %_2 = call i8 @"_ZN54_$LT$$LP$$RP$$u20$as$u20$std..process..Termination$GT$6report17h8a16ccac5711e0caE"()
  %_0 = call i32 @_ZN3std7process8ExitCode6to_i3217h0d1af089f26507a8E(i8 %_2)
  ret i32 %_0
}

; Function Attrs: nonlazybind uwtable
define internal void @_ZN3std3sys9backtrace28__rust_begin_short_backtrace17h35d86e51eac050b1E(ptr %f) unnamed_addr #0 personality ptr @rust_eh_personality {
start:
  %0 = alloca [16 x i8], align 8
  %result.dbg.spill = alloca [0 x i8], align 1
  %f.dbg.spill = alloca [8 x i8], align 8
  store ptr %f, ptr %f.dbg.spill, align 8
  call void @_ZN4core3ops8function6FnOnce9call_once17h942a79f1552c309bE(ptr %f)
  invoke void @_ZN4core4hint9black_box17h0ec8e4bde002e40bE()
          to label %bb2 unwind label %cleanup

bb3:                                              ; preds = %cleanup
  %1 = load ptr, ptr %0, align 8
  %2 = getelementptr inbounds i8, ptr %0, i64 8
  %3 = load i32, ptr %2, align 8
  %4 = insertvalue { ptr, i32 } poison, ptr %1, 0
  %5 = insertvalue { ptr, i32 } %4, i32 %3, 1
  resume { ptr, i32 } %5

cleanup:                                          ; preds = %start
  %6 = landingpad { ptr, i32 }
          cleanup
  %7 = extractvalue { ptr, i32 } %6, 0
  %8 = extractvalue { ptr, i32 } %6, 1
  store ptr %7, ptr %0, align 8
  %9 = getelementptr inbounds i8, ptr %0, i64 8
  store i32 %8, ptr %9, align 8
  br label %bb3

bb2:                                              ; preds = %start
  ret void
}

; Function Attrs: inlinehint nonlazybind uwtable
define internal i8 @"_ZN54_$LT$$LP$$RP$$u20$as$u20$std..process..Termination$GT$6report17h8a16ccac5711e0caE"() unnamed_addr #1 {
start:
  %self.dbg.spill = alloca [0 x i8], align 1
  %_1.dbg.spill = alloca [0 x i8], align 1
  ret i8 0
}

; Function Attrs: inlinehint nonlazybind uwtable
define internal i32 @_ZN3std7process8ExitCode6to_i3217h0d1af089f26507a8E(i8 %0) unnamed_addr #1 {
start:
  %self = alloca [1 x i8], align 1
  store i8 %0, ptr %self, align 1
  %_0 = call i32 @_ZN3std3sys3pal4unix7process14process_common8ExitCode6as_i3217h0f2fe0933d50509fE(ptr align 1 %self)
  ret i32 %_0
}

; Function Attrs: inlinehint nonlazybind uwtable
define internal i32 @_ZN3std3sys3pal4unix7process14process_common8ExitCode6as_i3217h0f2fe0933d50509fE(ptr align 1 %self) unnamed_addr #1 {
start:
  %self.dbg.spill = alloca [8 x i8], align 8
  store ptr %self, ptr %self.dbg.spill, align 8
  %_2 = load i8, ptr %self, align 1
  %_0 = zext i8 %_2 to i32
  ret i32 %_0
}

; Function Attrs: nounwind nonlazybind uwtable
declare i32 @rust_eh_personality(i32, i32, i64, ptr, ptr) unnamed_addr #2

; Function Attrs: inlinehint nonlazybind uwtable
define internal void @_ZN4core3ops8function6FnOnce9call_once17h942a79f1552c309bE(ptr %_1) unnamed_addr #1 {
start:
  %_1.dbg.spill = alloca [8 x i8], align 8
  %_2 = alloca [0 x i8], align 1
  store ptr %_1, ptr %_1.dbg.spill, align 8
  call void %_1()
  ret void
}

; Function Attrs: inlinehint nonlazybind uwtable
declare void @_ZN4core4hint9black_box17h0ec8e4bde002e40bE() unnamed_addr #1

; Function Attrs: inlinehint nonlazybind uwtable
define internal i32 @_ZN4core3ops8function6FnOnce9call_once17h314290895fc38a89E(ptr %0) unnamed_addr #1 personality ptr @rust_eh_personality {
start:
  %1 = alloca [16 x i8], align 8
  %_2 = alloca [0 x i8], align 1
  %_1 = alloca [8 x i8], align 8
  store ptr %0, ptr %_1, align 8
  %_0 = invoke i32 @"_ZN3std2rt10lang_start28_$u7b$$u7b$closure$u7d$$u7d$17h753ccdb3e4a8c247E"(ptr align 8 %_1)
          to label %bb1 unwind label %cleanup

bb3:                                              ; preds = %cleanup
  %2 = load ptr, ptr %1, align 8
  %3 = getelementptr inbounds i8, ptr %1, i64 8
  %4 = load i32, ptr %3, align 8
  %5 = insertvalue { ptr, i32 } poison, ptr %2, 0
  %6 = insertvalue { ptr, i32 } %5, i32 %4, 1
  resume { ptr, i32 } %6

cleanup:                                          ; preds = %start
  %7 = landingpad { ptr, i32 }
          cleanup
  %8 = extractvalue { ptr, i32 } %7, 0
  %9 = extractvalue { ptr, i32 } %7, 1
  store ptr %8, ptr %1, align 8
  %10 = getelementptr inbounds i8, ptr %1, i64 8
  store i32 %9, ptr %10, align 8
  br label %bb3

bb1:                                              ; preds = %start
  ret i32 %_0
}

; Function Attrs: nonlazybind
define i32 @main(i32 %0, ptr %1) unnamed_addr #3 {
top:
  %2 = load volatile i8, ptr @__rustc_debug_gdb_scripts_section__, align 1
  %3 = sext i32 %0 to i64
  %4 = call i64 @_ZN3std2rt10lang_start17h72125b49843628faE(ptr @_ZN8function4main17h81c11482d2bec0d7E, i64 %3, ptr %1, i8 0)
  %5 = trunc i64 %4 to i32
  ret i32 %5
}

; Function Attrs: nonlazybind uwtable
define internal void @_ZN8function4main17h81c11482d2bec0d7E() unnamed_addr #0 personality ptr @rust_eh_personality {
start:
  %0 = alloca [16 x i8], align 8
  %e.i54 = alloca [16 x i8], align 8
  %1 = alloca [16 x i8], align 8
  %t.dbg.spill.i = alloca [8 x i8], align 8
  %e.i46 = alloca [56 x i8], align 8
  %2 = alloca [16 x i8], align 8
  %e.i38 = alloca [56 x i8], align 8
  %3 = alloca [16 x i8], align 8
  %e.i30 = alloca [8 x i8], align 8
  %4 = alloca [16 x i8], align 8
  %e.i22 = alloca [8 x i8], align 8
  %5 = alloca [16 x i8], align 8
  %e.i14 = alloca [56 x i8], align 8
  %6 = alloca [16 x i8], align 8
  %e.i = alloca [8 x i8], align 8
  %follower.dbg.spill = alloca [8 x i8], align 8
  %follower_id.dbg.spill = alloca [8 x i8], align 8
  %time_1.dbg.spill = alloca [16 x i8], align 8
  %7 = alloca [16 x i8], align 8
  %time_0.dbg.spill = alloca [16 x i8], align 8
  %_76 = alloca [1 x i8], align 1
  %_75 = alloca [1 x i8], align 1
  %_73 = alloca [24 x i8], align 8
  %_64 = alloca [56 x i8], align 8
  %post_id_str = alloca [24 x i8], align 8
  %_60 = alloca [24 x i8], align 8
  %follower_id_str = alloca [24 x i8], align 8
  %_50 = alloca [8 x i8], align 8
  %iter1 = alloca [16 x i8], align 8
  %_45 = alloca [88 x i8], align 8
  %con = alloca [88 x i8], align 8
  %_41 = alloca [88 x i8], align 8
  %redis_client = alloca [88 x i8], align 8
  %redis_uri = alloca [24 x i8], align 8
  %_38 = alloca [48 x i8], align 8
  %_37 = alloca [64 x i8], align 8
  %_36 = alloca [64 x i8], align 8
  %_35 = alloca [24 x i8], align 8
  %_33 = alloca [24 x i8], align 8
  %_28 = alloca [16 x i8], align 8
  %iter = alloca [32 x i8], align 8
  %_26 = alloca [24 x i8], align 8
  %_25 = alloca [32 x i8], align 8
  %followers_set = alloca [48 x i8], align 8
  %_17 = alloca [24 x i8], align 8
  %followers = alloca [24 x i8], align 8
  %_15 = alloca [24 x i8], align 8
  %followers_str = alloca [24 x i8], align 8
  %_13 = alloca [24 x i8], align 8
  %handle = alloca [32 x i8], align 8
  %_10 = alloca [24 x i8], align 8
  %args_str = alloca [24 x i8], align 8
  %args = alloca [8 x i8], align 8
  %_4 = alloca [48 x i8], align 8
  %timeline_info = alloca [48 x i8], align 8
  %input = alloca [24 x i8], align 8
  store i8 0, ptr %_75, align 1
  store i8 0, ptr %_76, align 1
  %8 = call { i64, i32 } @_ZN3std4time7Instant3now17h61598dfbbe18b5e5E()
  %time_0.0 = extractvalue { i64, i32 } %8, 0
  %time_0.1 = extractvalue { i64, i32 } %8, 1
  store i64 %time_0.0, ptr %time_0.dbg.spill, align 8
  %9 = getelementptr inbounds i8, ptr %time_0.dbg.spill, i64 8
  store i32 %time_0.1, ptr %9, align 8
  call void @_ZN11OpenFaaSRPC19get_arg_from_caller17ha5cb2147a7920adcE(ptr sret([24 x i8]) align 8 %input)
  %10 = invoke { ptr, i64 } @"_ZN65_$LT$alloc..string..String$u20$as$u20$core..ops..deref..Deref$GT$5deref17h42baba91bce6655aE"(ptr align 8 %input)
          to label %bb3 unwind label %cleanup

bb71:                                             ; preds = %bb75, %bb76, %cleanup.body
  invoke void @"_ZN4core3ptr42drop_in_place$LT$alloc..string..String$GT$17hb3b04e371e33c46dE"(ptr align 8 %input) #25
          to label %bb72 unwind label %terminate

cleanup:                                          ; preds = %bb3, %start
  %11 = landingpad { ptr, i32 }
          cleanup
  br label %cleanup.body

cleanup.body:                                     ; preds = %bb5.i35, %cleanup
  %eh.lpad-body37 = phi { ptr, i32 } [ %11, %cleanup ], [ %31, %bb5.i35 ]
  %12 = extractvalue { ptr, i32 } %eh.lpad-body37, 0
  %13 = extractvalue { ptr, i32 } %eh.lpad-body37, 1
  store ptr %12, ptr %7, align 8
  %14 = getelementptr inbounds i8, ptr %7, i64 8
  store i32 %13, ptr %14, align 8
  br label %bb71

bb3:                                              ; preds = %start
  %_5.0 = extractvalue { ptr, i64 } %10, 0
  %_5.1 = extractvalue { ptr, i64 } %10, 1
  invoke void @_ZN10serde_json2de8from_str17hccd12fa74df04055E(ptr sret([48 x i8]) align 8 %_4, ptr align 1 %_5.0, i64 %_5.1)
          to label %bb4 unwind label %cleanup

bb4:                                              ; preds = %bb3
  %15 = load i64, ptr %_4, align 8
  %16 = icmp eq i64 %15, -9223372036854775808
  %_2.i31 = select i1 %16, i64 1, i64 0
  %17 = icmp eq i64 %_2.i31, 0
  br i1 %17, label %"_ZN4core6result19Result$LT$T$C$E$GT$6unwrap17h81e5fe03520da967E.exit", label %bb2.i32

bb2.i32:                                          ; preds = %bb4
  %18 = getelementptr inbounds i8, ptr %_4, i64 8
  %19 = load ptr, ptr %18, align 8
  store ptr %19, ptr %e.i30, align 8
  invoke void @_ZN4core6result13unwrap_failed17ha0759953b76fb252E(ptr align 1 @alloc_00ae4b301f7fab8ac9617c03fcbd7274, i64 43, ptr align 1 %e.i30, ptr align 8 @vtable.6, ptr align 8 @alloc_ae52e422ab29884b58622d79788975fe) #26
          to label %unreachable.i36 unwind label %cleanup.i33

cleanup.i33:                                      ; preds = %bb2.i32
  %20 = landingpad { ptr, i32 }
          cleanup
  %21 = extractvalue { ptr, i32 } %20, 0
  %22 = extractvalue { ptr, i32 } %20, 1
  store ptr %21, ptr %3, align 8
  %23 = getelementptr inbounds i8, ptr %3, i64 8
  store i32 %22, ptr %23, align 8
  invoke void @"_ZN4core3ptr45drop_in_place$LT$serde_json..error..Error$GT$17h0d2faac477cb119fE"(ptr align 8 %e.i30) #25
          to label %bb5.i35 unwind label %terminate.i34

unreachable.i36:                                  ; preds = %bb2.i32
  unreachable

terminate.i34:                                    ; preds = %cleanup.i33
  %24 = landingpad { ptr, i32 }
          cleanup
          filter [0 x ptr] zeroinitializer
  %25 = extractvalue { ptr, i32 } %24, 0
  %26 = extractvalue { ptr, i32 } %24, 1
  call void @_ZN4core9panicking16panic_in_cleanup17hdb19dc6496e5af6eE() #27
  unreachable

bb5.i35:                                          ; preds = %cleanup.i33
  %27 = load ptr, ptr %3, align 8
  %28 = getelementptr inbounds i8, ptr %3, i64 8
  %29 = load i32, ptr %28, align 8
  %30 = insertvalue { ptr, i32 } poison, ptr %27, 0
  %31 = insertvalue { ptr, i32 } %30, i32 %29, 1
  br label %cleanup.body

"_ZN4core6result19Result$LT$T$C$E$GT$6unwrap17h81e5fe03520da967E.exit": ; preds = %bb4
  call void @llvm.memcpy.p0.p0.i64(ptr align 8 %timeline_info, ptr align 8 %_4, i64 48, i1 false)
  br label %bb5

bb5:                                              ; preds = %"_ZN4core6result19Result$LT$T$C$E$GT$6unwrap17h81e5fe03520da967E.exit"
  store i8 1, ptr %_76, align 1
  %32 = getelementptr inbounds i8, ptr %timeline_info, i64 32
  %_8 = load i64, ptr %32, align 8
  store i64 %_8, ptr %args, align 8
  invoke void @_ZN10serde_json3ser9to_string17h98ed8e0f13c2ca17E(ptr sret([24 x i8]) align 8 %_10, ptr align 8 %args)
          to label %bb6 unwind label %cleanup2

bb76:                                             ; preds = %bb70, %cleanup2.body
  %33 = load i8, ptr %_76, align 1
  %34 = trunc i8 %33 to i1
  br i1 %34, label %bb75, label %bb71

cleanup2:                                         ; preds = %bb59, %bb8, %bb7, %bb5
  %35 = landingpad { ptr, i32 }
          cleanup
  br label %cleanup2.body61

cleanup2.body61:                                  ; preds = %bb5.i59, %cleanup2
  %eh.lpad-body62 = phi { ptr, i32 } [ %35, %cleanup2 ], [ %75, %bb5.i59 ]
  br label %cleanup2.body

cleanup2.body:                                    ; preds = %bb5.i, %cleanup2.body61
  %eh.lpad-body = phi { ptr, i32 } [ %eh.lpad-body62, %cleanup2.body61 ], [ %55, %bb5.i ]
  %36 = extractvalue { ptr, i32 } %eh.lpad-body, 0
  %37 = extractvalue { ptr, i32 } %eh.lpad-body, 1
  store ptr %36, ptr %7, align 8
  %38 = getelementptr inbounds i8, ptr %7, i64 8
  store i32 %37, ptr %38, align 8
  br label %bb76

bb6:                                              ; preds = %bb5
  %39 = load i64, ptr %_10, align 8
  %40 = icmp eq i64 %39, -9223372036854775808
  %_2.i = select i1 %40, i64 1, i64 0
  %41 = icmp eq i64 %_2.i, 0
  br i1 %41, label %"_ZN4core6result19Result$LT$T$C$E$GT$6unwrap17h132c7bf963313bbdE.exit", label %bb2.i

bb2.i:                                            ; preds = %bb6
  %42 = getelementptr inbounds i8, ptr %_10, i64 8
  %43 = load ptr, ptr %42, align 8
  store ptr %43, ptr %e.i, align 8
  invoke void @_ZN4core6result13unwrap_failed17ha0759953b76fb252E(ptr align 1 @alloc_00ae4b301f7fab8ac9617c03fcbd7274, i64 43, ptr align 1 %e.i, ptr align 8 @vtable.6, ptr align 8 @alloc_ae52e422ab29884b58622d79788975fe) #26
          to label %unreachable.i unwind label %cleanup.i

cleanup.i:                                        ; preds = %bb2.i
  %44 = landingpad { ptr, i32 }
          cleanup
  %45 = extractvalue { ptr, i32 } %44, 0
  %46 = extractvalue { ptr, i32 } %44, 1
  store ptr %45, ptr %6, align 8
  %47 = getelementptr inbounds i8, ptr %6, i64 8
  store i32 %46, ptr %47, align 8
  invoke void @"_ZN4core3ptr45drop_in_place$LT$serde_json..error..Error$GT$17h0d2faac477cb119fE"(ptr align 8 %e.i) #25
          to label %bb5.i unwind label %terminate.i

unreachable.i:                                    ; preds = %bb2.i
  unreachable

terminate.i:                                      ; preds = %cleanup.i
  %48 = landingpad { ptr, i32 }
          cleanup
          filter [0 x ptr] zeroinitializer
  %49 = extractvalue { ptr, i32 } %48, 0
  %50 = extractvalue { ptr, i32 } %48, 1
  call void @_ZN4core9panicking16panic_in_cleanup17hdb19dc6496e5af6eE() #27
  unreachable

bb5.i:                                            ; preds = %cleanup.i
  %51 = load ptr, ptr %6, align 8
  %52 = getelementptr inbounds i8, ptr %6, i64 8
  %53 = load i32, ptr %52, align 8
  %54 = insertvalue { ptr, i32 } poison, ptr %51, 0
  %55 = insertvalue { ptr, i32 } %54, i32 %53, 1
  br label %cleanup2.body

"_ZN4core6result19Result$LT$T$C$E$GT$6unwrap17h132c7bf963313bbdE.exit": ; preds = %bb6
  call void @llvm.memcpy.p0.p0.i64(ptr align 8 %args_str, ptr align 8 %_10, i64 24, i1 false)
  br label %bb7

bb7:                                              ; preds = %"_ZN4core6result19Result$LT$T$C$E$GT$6unwrap17h132c7bf963313bbdE.exit"
  call void @llvm.memcpy.p0.p0.i64(ptr align 8 %_13, ptr align 8 %args_str, i64 24, i1 false)
  invoke void @_ZN3std6thread5spawn17hcef82344ae42cb56E(ptr sret([32 x i8]) align 8 %handle, ptr align 8 %_13)
          to label %bb8 unwind label %cleanup2

bb8:                                              ; preds = %bb7
  invoke void @"_ZN3std6thread19JoinHandle$LT$T$GT$4join17ha9b5c1ce1aa66e3fE"(ptr sret([24 x i8]) align 8 %_15, ptr align 8 %handle)
          to label %bb9 unwind label %cleanup2

bb9:                                              ; preds = %bb8
  %56 = load i64, ptr %_15, align 8
  %57 = icmp eq i64 %56, -9223372036854775808
  %_2.i55 = select i1 %57, i64 1, i64 0
  %58 = icmp eq i64 %_2.i55, 0
  br i1 %58, label %"_ZN4core6result19Result$LT$T$C$E$GT$6unwrap17hfeeab40103965274E.exit", label %bb2.i56

bb2.i56:                                          ; preds = %bb9
  %59 = getelementptr inbounds i8, ptr %_15, i64 8
  %60 = load ptr, ptr %59, align 8
  %61 = getelementptr inbounds i8, ptr %59, i64 8
  %62 = load ptr, ptr %61, align 8
  store ptr %60, ptr %e.i54, align 8
  %63 = getelementptr inbounds i8, ptr %e.i54, i64 8
  store ptr %62, ptr %63, align 8
  invoke void @_ZN4core6result13unwrap_failed17ha0759953b76fb252E(ptr align 1 @alloc_00ae4b301f7fab8ac9617c03fcbd7274, i64 43, ptr align 1 %e.i54, ptr align 8 @vtable.8, ptr align 8 @alloc_ae52e422ab29884b58622d79788975fe) #26
          to label %unreachable.i60 unwind label %cleanup.i57

cleanup.i57:                                      ; preds = %bb2.i56
  %64 = landingpad { ptr, i32 }
          cleanup
  %65 = extractvalue { ptr, i32 } %64, 0
  %66 = extractvalue { ptr, i32 } %64, 1
  store ptr %65, ptr %0, align 8
  %67 = getelementptr inbounds i8, ptr %0, i64 8
  store i32 %66, ptr %67, align 8
  invoke void @"_ZN4core3ptr91drop_in_place$LT$alloc..boxed..Box$LT$dyn$u20$core..any..Any$u2b$core..marker..Send$GT$$GT$17hfd5d326d0b817631E"(ptr align 8 %e.i54) #25
          to label %bb5.i59 unwind label %terminate.i58

unreachable.i60:                                  ; preds = %bb2.i56
  unreachable

terminate.i58:                                    ; preds = %cleanup.i57
  %68 = landingpad { ptr, i32 }
          cleanup
          filter [0 x ptr] zeroinitializer
  %69 = extractvalue { ptr, i32 } %68, 0
  %70 = extractvalue { ptr, i32 } %68, 1
  call void @_ZN4core9panicking16panic_in_cleanup17hdb19dc6496e5af6eE() #27
  unreachable

bb5.i59:                                          ; preds = %cleanup.i57
  %71 = load ptr, ptr %0, align 8
  %72 = getelementptr inbounds i8, ptr %0, i64 8
  %73 = load i32, ptr %72, align 8
  %74 = insertvalue { ptr, i32 } poison, ptr %71, 0
  %75 = insertvalue { ptr, i32 } %74, i32 %73, 1
  br label %cleanup2.body61

"_ZN4core6result19Result$LT$T$C$E$GT$6unwrap17hfeeab40103965274E.exit": ; preds = %bb9
  call void @llvm.memcpy.p0.p0.i64(ptr align 8 %followers_str, ptr align 8 %_15, i64 24, i1 false)
  br label %bb10

bb10:                                             ; preds = %"_ZN4core6result19Result$LT$T$C$E$GT$6unwrap17hfeeab40103965274E.exit"
  %76 = invoke { ptr, i64 } @"_ZN65_$LT$alloc..string..String$u20$as$u20$core..ops..deref..Deref$GT$5deref17h42baba91bce6655aE"(ptr align 8 %followers_str)
          to label %bb11 unwind label %cleanup3

bb70:                                             ; preds = %bb69, %cleanup3.body
  invoke void @"_ZN4core3ptr42drop_in_place$LT$alloc..string..String$GT$17hb3b04e371e33c46dE"(ptr align 8 %followers_str) #25
          to label %bb76 unwind label %terminate

cleanup3:                                         ; preds = %bb58, %bb11, %bb10
  %77 = landingpad { ptr, i32 }
          cleanup
  br label %cleanup3.body

cleanup3.body:                                    ; preds = %bb5.i27, %cleanup3
  %eh.lpad-body29 = phi { ptr, i32 } [ %77, %cleanup3 ], [ %97, %bb5.i27 ]
  %78 = extractvalue { ptr, i32 } %eh.lpad-body29, 0
  %79 = extractvalue { ptr, i32 } %eh.lpad-body29, 1
  store ptr %78, ptr %7, align 8
  %80 = getelementptr inbounds i8, ptr %7, i64 8
  store i32 %79, ptr %80, align 8
  br label %bb70

bb11:                                             ; preds = %bb10
  %_18.0 = extractvalue { ptr, i64 } %76, 0
  %_18.1 = extractvalue { ptr, i64 } %76, 1
  invoke void @_ZN10serde_json2de8from_str17hb9e1bcc44eaefe5aE(ptr sret([24 x i8]) align 8 %_17, ptr align 1 %_18.0, i64 %_18.1)
          to label %bb12 unwind label %cleanup3

bb12:                                             ; preds = %bb11
  %81 = load i64, ptr %_17, align 8
  %82 = icmp eq i64 %81, -9223372036854775808
  %_2.i23 = select i1 %82, i64 1, i64 0
  %83 = icmp eq i64 %_2.i23, 0
  br i1 %83, label %"_ZN4core6result19Result$LT$T$C$E$GT$6unwrap17h4849d5a18d84002eE.exit", label %bb2.i24

bb2.i24:                                          ; preds = %bb12
  %84 = getelementptr inbounds i8, ptr %_17, i64 8
  %85 = load ptr, ptr %84, align 8
  store ptr %85, ptr %e.i22, align 8
  invoke void @_ZN4core6result13unwrap_failed17ha0759953b76fb252E(ptr align 1 @alloc_00ae4b301f7fab8ac9617c03fcbd7274, i64 43, ptr align 1 %e.i22, ptr align 8 @vtable.6, ptr align 8 @alloc_ae52e422ab29884b58622d79788975fe) #26
          to label %unreachable.i28 unwind label %cleanup.i25

cleanup.i25:                                      ; preds = %bb2.i24
  %86 = landingpad { ptr, i32 }
          cleanup
  %87 = extractvalue { ptr, i32 } %86, 0
  %88 = extractvalue { ptr, i32 } %86, 1
  store ptr %87, ptr %4, align 8
  %89 = getelementptr inbounds i8, ptr %4, i64 8
  store i32 %88, ptr %89, align 8
  invoke void @"_ZN4core3ptr45drop_in_place$LT$serde_json..error..Error$GT$17h0d2faac477cb119fE"(ptr align 8 %e.i22) #25
          to label %bb5.i27 unwind label %terminate.i26

unreachable.i28:                                  ; preds = %bb2.i24
  unreachable

terminate.i26:                                    ; preds = %cleanup.i25
  %90 = landingpad { ptr, i32 }
          cleanup
          filter [0 x ptr] zeroinitializer
  %91 = extractvalue { ptr, i32 } %90, 0
  %92 = extractvalue { ptr, i32 } %90, 1
  call void @_ZN4core9panicking16panic_in_cleanup17hdb19dc6496e5af6eE() #27
  unreachable

bb5.i27:                                          ; preds = %cleanup.i25
  %93 = load ptr, ptr %4, align 8
  %94 = getelementptr inbounds i8, ptr %4, i64 8
  %95 = load i32, ptr %94, align 8
  %96 = insertvalue { ptr, i32 } poison, ptr %93, 0
  %97 = insertvalue { ptr, i32 } %96, i32 %95, 1
  br label %cleanup3.body

"_ZN4core6result19Result$LT$T$C$E$GT$6unwrap17h4849d5a18d84002eE.exit": ; preds = %bb12
  call void @llvm.memcpy.p0.p0.i64(ptr align 8 %followers, ptr align 8 %_17, i64 24, i1 false)
  br label %bb13

bb13:                                             ; preds = %"_ZN4core6result19Result$LT$T$C$E$GT$6unwrap17h4849d5a18d84002eE.exit"
  %98 = invoke { ptr, i64 } @"_ZN72_$LT$alloc..vec..Vec$LT$T$C$A$GT$$u20$as$u20$core..ops..deref..Deref$GT$5deref17hc510c19cf341c343E"(ptr align 8 %followers)
          to label %bb14 unwind label %cleanup4

bb69:                                             ; preds = %bb73, %bb74, %cleanup4
  invoke void @"_ZN4core3ptr47drop_in_place$LT$alloc..vec..Vec$LT$i64$GT$$GT$17h45a35d44e4fb44aaE"(ptr align 8 %followers) #25
          to label %bb70 unwind label %terminate

cleanup4:                                         ; preds = %bb16, %bb15, %bb14, %bb13
  %99 = landingpad { ptr, i32 }
          cleanup
  %100 = extractvalue { ptr, i32 } %99, 0
  %101 = extractvalue { ptr, i32 } %99, 1
  store ptr %100, ptr %7, align 8
  %102 = getelementptr inbounds i8, ptr %7, i64 8
  store i32 %101, ptr %102, align 8
  br label %bb69

bb14:                                             ; preds = %bb13
  %_23.0 = extractvalue { ptr, i64 } %98, 0
  %_23.1 = extractvalue { ptr, i64 } %98, 1
  %103 = invoke { ptr, ptr } @"_ZN4core5slice29_$LT$impl$u20$$u5b$T$u5d$$GT$4iter17hf753e7b7dc0919c4E"(ptr align 8 %_23.0, i64 %_23.1)
          to label %bb15 unwind label %cleanup4

bb15:                                             ; preds = %bb14
  %_22.0 = extractvalue { ptr, ptr } %103, 0
  %_22.1 = extractvalue { ptr, ptr } %103, 1
  %104 = invoke { ptr, ptr } @_ZN4core4iter6traits8iterator8Iterator3map17h63367727ce63cde2E(ptr %_22.0, ptr %_22.1)
          to label %bb16 unwind label %cleanup4

bb16:                                             ; preds = %bb15
  %_21.0 = extractvalue { ptr, ptr } %104, 0
  %_21.1 = extractvalue { ptr, ptr } %104, 1
  invoke void @_ZN4core4iter6traits8iterator8Iterator7collect17hf58d36c1ce54d94eE(ptr sret([48 x i8]) align 8 %followers_set, ptr %_21.0, ptr %_21.1)
          to label %bb17 unwind label %cleanup4

bb17:                                             ; preds = %bb16
  store i8 1, ptr %_75, align 1
  store i8 0, ptr %_76, align 1
  call void @llvm.memcpy.p0.p0.i64(ptr align 8 %_26, ptr align 8 %timeline_info, i64 24, i1 false)
  invoke void @"_ZN90_$LT$alloc..vec..Vec$LT$T$C$A$GT$$u20$as$u20$core..iter..traits..collect..IntoIterator$GT$9into_iter17h4e31c81cfb034392E"(ptr sret([32 x i8]) align 8 %_25, ptr align 8 %_26)
          to label %bb18 unwind label %cleanup5

bb74:                                             ; preds = %bb67, %bb30, %bb68, %cleanup5
  %105 = load i8, ptr %_75, align 1
  %106 = trunc i8 %105 to i1
  br i1 %106, label %bb73, label %bb69

cleanup5:                                         ; preds = %bb57, %bb29, %bb27, %bb26, %bb25, %bb23, %bb17
  %107 = landingpad { ptr, i32 }
          cleanup
  %108 = extractvalue { ptr, i32 } %107, 0
  %109 = extractvalue { ptr, i32 } %107, 1
  store ptr %108, ptr %7, align 8
  %110 = getelementptr inbounds i8, ptr %7, i64 8
  store i32 %109, ptr %110, align 8
  br label %bb74

bb18:                                             ; preds = %bb17
  call void @llvm.memcpy.p0.p0.i64(ptr align 8 %iter, ptr align 8 %_25, i64 32, i1 false)
  br label %bb19

bb19:                                             ; preds = %bb77, %bb18
  %111 = invoke { i64, i64 } @"_ZN103_$LT$alloc..vec..into_iter..IntoIter$LT$T$C$A$GT$$u20$as$u20$core..iter..traits..iterator..Iterator$GT$4next17h208ecec7fd9336b1E"(ptr align 8 %iter)
          to label %bb20 unwind label %cleanup6

bb68:                                             ; preds = %cleanup6
  invoke void @"_ZN4core3ptr63drop_in_place$LT$alloc..vec..into_iter..IntoIter$LT$i64$GT$$GT$17h8376935fb659a24dE"(ptr align 8 %iter) #25
          to label %bb74 unwind label %terminate

cleanup6:                                         ; preds = %bb24, %bb22, %bb19
  %112 = landingpad { ptr, i32 }
          cleanup
  %113 = extractvalue { ptr, i32 } %112, 0
  %114 = extractvalue { ptr, i32 } %112, 1
  store ptr %113, ptr %7, align 8
  %115 = getelementptr inbounds i8, ptr %7, i64 8
  store i32 %114, ptr %115, align 8
  br label %bb68

bb20:                                             ; preds = %bb19
  %116 = extractvalue { i64, i64 } %111, 0
  %117 = extractvalue { i64, i64 } %111, 1
  store i64 %116, ptr %_28, align 8
  %118 = getelementptr inbounds i8, ptr %_28, i64 8
  store i64 %117, ptr %118, align 8
  %_30 = load i64, ptr %_28, align 8
  %119 = icmp eq i64 %_30, 0
  br i1 %119, label %bb23, label %bb22

bb23:                                             ; preds = %bb20
  invoke void @"_ZN4core3ptr63drop_in_place$LT$alloc..vec..into_iter..IntoIter$LT$i64$GT$$GT$17h8376935fb659a24dE"(ptr align 8 %iter)
          to label %bb25 unwind label %cleanup5

bb22:                                             ; preds = %bb20
  %120 = getelementptr inbounds i8, ptr %_28, i64 8
  %follower = load i64, ptr %120, align 8
  store i64 %follower, ptr %follower.dbg.spill, align 8
  invoke void @"_ZN3std11collections4hash3map24HashMap$LT$K$C$V$C$S$GT$5entry17hcd32cd912258d272E"(ptr sret([24 x i8]) align 8 %_33, ptr align 8 %followers_set, i64 %follower)
          to label %bb24 unwind label %cleanup6

bb25:                                             ; preds = %bb23
  store i8 0, ptr %_75, align 1
  call void @llvm.memcpy.p0.p0.i64(ptr align 8 %_38, ptr align 8 %followers_set, i64 48, i1 false)
  invoke void @"_ZN115_$LT$std..collections..hash..map..HashMap$LT$K$C$V$C$S$GT$$u20$as$u20$core..iter..traits..collect..IntoIterator$GT$9into_iter17h6df178ab0c9d4c01E"(ptr sret([64 x i8]) align 8 %_37, ptr align 8 %_38)
          to label %bb26 unwind label %cleanup5

bb26:                                             ; preds = %bb25
  invoke void @_ZN4core4iter6traits8iterator8Iterator3map17hde96209c4786b46fE(ptr sret([64 x i8]) align 8 %_36, ptr align 8 %_37)
          to label %bb27 unwind label %cleanup5

bb27:                                             ; preds = %bb26
  invoke void @_ZN4core4iter6traits8iterator8Iterator7collect17h46761daa0504c35cE(ptr sret([24 x i8]) align 8 %_35, ptr align 8 %_36)
          to label %bb28 unwind label %cleanup5

bb28:                                             ; preds = %bb27
  invoke void @"_ZN4core3ptr47drop_in_place$LT$alloc..vec..Vec$LT$i64$GT$$GT$17h45a35d44e4fb44aaE"(ptr align 8 %followers)
          to label %bb29 unwind label %cleanup7

bb30:                                             ; preds = %cleanup7
  call void @llvm.memcpy.p0.p0.i64(ptr align 8 %followers, ptr align 8 %_35, i64 24, i1 false)
  br label %bb74

cleanup7:                                         ; preds = %bb28
  %121 = landingpad { ptr, i32 }
          cleanup
  %122 = extractvalue { ptr, i32 } %121, 0
  %123 = extractvalue { ptr, i32 } %121, 1
  store ptr %122, ptr %7, align 8
  %124 = getelementptr inbounds i8, ptr %7, i64 8
  store i32 %123, ptr %124, align 8
  br label %bb30

bb29:                                             ; preds = %bb28
  call void @llvm.memcpy.p0.p0.i64(ptr align 8 %followers, ptr align 8 %_35, i64 24, i1 false)
  invoke void @_ZN11DbInterface16get_redis_rw_uri17h392bcbba81ff0b1aE(ptr sret([24 x i8]) align 8 %redis_uri)
          to label %bb31 unwind label %cleanup5

bb31:                                             ; preds = %bb29
  %125 = invoke { ptr, i64 } @"_ZN74_$LT$alloc..string..String$u20$as$u20$core..ops..index..Index$LT$I$GT$$GT$5index17hc0a29d0e8d9cb444E"(ptr align 8 %redis_uri, ptr align 8 @alloc_ae52e422ab29884b58622d79788975fe)
          to label %bb32 unwind label %cleanup8

bb67:                                             ; preds = %bb66, %cleanup8.body
  invoke void @"_ZN4core3ptr42drop_in_place$LT$alloc..string..String$GT$17hb3b04e371e33c46dE"(ptr align 8 %redis_uri) #25
          to label %bb74 unwind label %terminate

cleanup8:                                         ; preds = %bb56, %bb32, %bb31
  %126 = landingpad { ptr, i32 }
          cleanup
  br label %cleanup8.body

cleanup8.body:                                    ; preds = %bb5.i43, %cleanup8
  %eh.lpad-body45 = phi { ptr, i32 } [ %126, %cleanup8 ], [ %145, %bb5.i43 ]
  %127 = extractvalue { ptr, i32 } %eh.lpad-body45, 0
  %128 = extractvalue { ptr, i32 } %eh.lpad-body45, 1
  store ptr %127, ptr %7, align 8
  %129 = getelementptr inbounds i8, ptr %7, i64 8
  store i32 %128, ptr %129, align 8
  br label %bb67

bb32:                                             ; preds = %bb31
  %_42.0 = extractvalue { ptr, i64 } %125, 0
  %_42.1 = extractvalue { ptr, i64 } %125, 1
  invoke void @_ZN5redis6client6Client4open17he38bb3b0ecf8f918E(ptr sret([88 x i8]) align 8 %_41, ptr align 1 %_42.0, i64 %_42.1)
          to label %bb33 unwind label %cleanup8

bb33:                                             ; preds = %bb32
  %130 = load i64, ptr %_41, align 8
  %131 = icmp eq i64 %130, -9223372036854775807
  %_2.i39 = select i1 %131, i64 1, i64 0
  %132 = icmp eq i64 %_2.i39, 0
  br i1 %132, label %"_ZN4core6result19Result$LT$T$C$E$GT$6unwrap17ha274f84dc70574cbE.exit", label %bb2.i40

bb2.i40:                                          ; preds = %bb33
  %133 = getelementptr inbounds i8, ptr %_41, i64 8
  call void @llvm.memcpy.p0.p0.i64(ptr align 8 %e.i38, ptr align 8 %133, i64 56, i1 false)
  invoke void @_ZN4core6result13unwrap_failed17ha0759953b76fb252E(ptr align 1 @alloc_00ae4b301f7fab8ac9617c03fcbd7274, i64 43, ptr align 1 %e.i38, ptr align 8 @vtable.7, ptr align 8 @alloc_ae52e422ab29884b58622d79788975fe) #26
          to label %unreachable.i44 unwind label %cleanup.i41

cleanup.i41:                                      ; preds = %bb2.i40
  %134 = landingpad { ptr, i32 }
          cleanup
  %135 = extractvalue { ptr, i32 } %134, 0
  %136 = extractvalue { ptr, i32 } %134, 1
  store ptr %135, ptr %2, align 8
  %137 = getelementptr inbounds i8, ptr %2, i64 8
  store i32 %136, ptr %137, align 8
  invoke void @"_ZN4core3ptr45drop_in_place$LT$redis..types..RedisError$GT$17h2bb70742178b4f0dE"(ptr align 8 %e.i38) #25
          to label %bb5.i43 unwind label %terminate.i42

unreachable.i44:                                  ; preds = %bb2.i40
  unreachable

terminate.i42:                                    ; preds = %cleanup.i41
  %138 = landingpad { ptr, i32 }
          cleanup
          filter [0 x ptr] zeroinitializer
  %139 = extractvalue { ptr, i32 } %138, 0
  %140 = extractvalue { ptr, i32 } %138, 1
  call void @_ZN4core9panicking16panic_in_cleanup17hdb19dc6496e5af6eE() #27
  unreachable

bb5.i43:                                          ; preds = %cleanup.i41
  %141 = load ptr, ptr %2, align 8
  %142 = getelementptr inbounds i8, ptr %2, i64 8
  %143 = load i32, ptr %142, align 8
  %144 = insertvalue { ptr, i32 } poison, ptr %141, 0
  %145 = insertvalue { ptr, i32 } %144, i32 %143, 1
  br label %cleanup8.body

"_ZN4core6result19Result$LT$T$C$E$GT$6unwrap17ha274f84dc70574cbE.exit": ; preds = %bb33
  call void @llvm.memcpy.p0.p0.i64(ptr align 8 %redis_client, ptr align 8 %_41, i64 88, i1 false)
  br label %bb34

bb34:                                             ; preds = %"_ZN4core6result19Result$LT$T$C$E$GT$6unwrap17ha274f84dc70574cbE.exit"
  invoke void @_ZN5redis6client6Client14get_connection17h5af5192e9687fc99E(ptr sret([88 x i8]) align 8 %_45, ptr align 8 %redis_client)
          to label %bb35 unwind label %cleanup9

bb66:                                             ; preds = %bb65, %cleanup9.body
  invoke void @"_ZN4core3ptr42drop_in_place$LT$redis..client..Client$GT$17h268fbdc1e349f52eE"(ptr align 8 %redis_client) #25
          to label %bb67 unwind label %terminate

cleanup9:                                         ; preds = %bb55, %bb34
  %146 = landingpad { ptr, i32 }
          cleanup
  br label %cleanup9.body

cleanup9.body:                                    ; preds = %bb5.i19, %cleanup9
  %eh.lpad-body21 = phi { ptr, i32 } [ %146, %cleanup9 ], [ %165, %bb5.i19 ]
  %147 = extractvalue { ptr, i32 } %eh.lpad-body21, 0
  %148 = extractvalue { ptr, i32 } %eh.lpad-body21, 1
  store ptr %147, ptr %7, align 8
  %149 = getelementptr inbounds i8, ptr %7, i64 8
  store i32 %148, ptr %149, align 8
  br label %bb66

bb35:                                             ; preds = %bb34
  %150 = getelementptr inbounds i8, ptr %_45, i64 72
  %151 = load i32, ptr %150, align 8
  %152 = icmp eq i32 %151, 2
  %_2.i15 = select i1 %152, i64 1, i64 0
  %153 = icmp eq i64 %_2.i15, 0
  br i1 %153, label %"_ZN4core6result19Result$LT$T$C$E$GT$6unwrap17h456b61c1ec5c2943E.exit", label %bb2.i16

bb2.i16:                                          ; preds = %bb35
  call void @llvm.memcpy.p0.p0.i64(ptr align 8 %e.i14, ptr align 8 %_45, i64 56, i1 false)
  invoke void @_ZN4core6result13unwrap_failed17ha0759953b76fb252E(ptr align 1 @alloc_00ae4b301f7fab8ac9617c03fcbd7274, i64 43, ptr align 1 %e.i14, ptr align 8 @vtable.7, ptr align 8 @alloc_ae52e422ab29884b58622d79788975fe) #26
          to label %unreachable.i20 unwind label %cleanup.i17

cleanup.i17:                                      ; preds = %bb2.i16
  %154 = landingpad { ptr, i32 }
          cleanup
  %155 = extractvalue { ptr, i32 } %154, 0
  %156 = extractvalue { ptr, i32 } %154, 1
  store ptr %155, ptr %5, align 8
  %157 = getelementptr inbounds i8, ptr %5, i64 8
  store i32 %156, ptr %157, align 8
  invoke void @"_ZN4core3ptr45drop_in_place$LT$redis..types..RedisError$GT$17h2bb70742178b4f0dE"(ptr align 8 %e.i14) #25
          to label %bb5.i19 unwind label %terminate.i18

unreachable.i20:                                  ; preds = %bb2.i16
  unreachable

terminate.i18:                                    ; preds = %cleanup.i17
  %158 = landingpad { ptr, i32 }
          cleanup
          filter [0 x ptr] zeroinitializer
  %159 = extractvalue { ptr, i32 } %158, 0
  %160 = extractvalue { ptr, i32 } %158, 1
  call void @_ZN4core9panicking16panic_in_cleanup17hdb19dc6496e5af6eE() #27
  unreachable

bb5.i19:                                          ; preds = %cleanup.i17
  %161 = load ptr, ptr %5, align 8
  %162 = getelementptr inbounds i8, ptr %5, i64 8
  %163 = load i32, ptr %162, align 8
  %164 = insertvalue { ptr, i32 } poison, ptr %161, 0
  %165 = insertvalue { ptr, i32 } %164, i32 %163, 1
  br label %cleanup9.body

"_ZN4core6result19Result$LT$T$C$E$GT$6unwrap17h456b61c1ec5c2943E.exit": ; preds = %bb35
  call void @llvm.memcpy.p0.p0.i64(ptr align 8 %con, ptr align 8 %_45, i64 88, i1 false)
  br label %bb36

bb36:                                             ; preds = %"_ZN4core6result19Result$LT$T$C$E$GT$6unwrap17h456b61c1ec5c2943E.exit"
  %166 = invoke { ptr, ptr } @"_ZN94_$LT$$RF$alloc..vec..Vec$LT$T$C$A$GT$$u20$as$u20$core..iter..traits..collect..IntoIterator$GT$9into_iter17h1741cb0c54234d02E"(ptr align 8 %followers)
          to label %bb37 unwind label %cleanup10

bb65:                                             ; preds = %bb64, %cleanup10
  invoke void @"_ZN4core3ptr50drop_in_place$LT$redis..connection..Connection$GT$17h5c182fdfa9807c41E"(ptr align 8 %con) #25
          to label %bb66 unwind label %terminate

cleanup10:                                        ; preds = %bb52, %bb54, %bb53, %bb40, %bb41, %bb38, %bb36
  %167 = landingpad { ptr, i32 }
          cleanup
  %168 = extractvalue { ptr, i32 } %167, 0
  %169 = extractvalue { ptr, i32 } %167, 1
  store ptr %168, ptr %7, align 8
  %170 = getelementptr inbounds i8, ptr %7, i64 8
  store i32 %169, ptr %170, align 8
  br label %bb65

bb37:                                             ; preds = %bb36
  %_47.0 = extractvalue { ptr, ptr } %166, 0
  %_47.1 = extractvalue { ptr, ptr } %166, 1
  store ptr %_47.0, ptr %iter1, align 8
  %171 = getelementptr inbounds i8, ptr %iter1, i64 8
  store ptr %_47.1, ptr %171, align 8
  br label %bb38

bb38:                                             ; preds = %bb52, %bb37
  %172 = invoke align 8 ptr @"_ZN91_$LT$core..slice..iter..Iter$LT$T$GT$$u20$as$u20$core..iter..traits..iterator..Iterator$GT$4next17h7c8ce305ddc7435bE"(ptr align 8 %iter1)
          to label %bb39 unwind label %cleanup10

bb39:                                             ; preds = %bb38
  store ptr %172, ptr %_50, align 8
  %173 = load ptr, ptr %_50, align 8
  %174 = ptrtoint ptr %173 to i64
  %175 = icmp eq i64 %174, 0
  %_52 = select i1 %175, i64 0, i64 1
  %176 = icmp eq i64 %_52, 0
  br i1 %176, label %bb41, label %bb40

bb41:                                             ; preds = %bb39
  %177 = invoke { i64, i32 } @_ZN3std4time7Instant3now17h61598dfbbe18b5e5E()
          to label %bb53 unwind label %cleanup10

bb40:                                             ; preds = %bb39
  %follower_id = load ptr, ptr %_50, align 8
  store ptr %follower_id, ptr %follower_id.dbg.spill, align 8
  invoke void @"_ZN45_$LT$T$u20$as$u20$alloc..string..ToString$GT$9to_string17h20c51abd9866b83bE"(ptr sret([24 x i8]) align 8 %follower_id_str, ptr align 1 @alloc_6ca4ca8ac41454b547cdebd59d86c7e5, i64 14)
          to label %bb42 unwind label %cleanup10

bb53:                                             ; preds = %bb41
  %time_1.0 = extractvalue { i64, i32 } %177, 0
  %time_1.1 = extractvalue { i64, i32 } %177, 1
  store i64 %time_1.0, ptr %time_1.dbg.spill, align 8
  %178 = getelementptr inbounds i8, ptr %time_1.dbg.spill, i64 8
  store i32 %time_1.1, ptr %178, align 8
  invoke void @"_ZN45_$LT$T$u20$as$u20$alloc..string..ToString$GT$9to_string17h20c51abd9866b83bE"(ptr sret([24 x i8]) align 8 %_73, ptr align 1 inttoptr (i64 1 to ptr), i64 0)
          to label %bb54 unwind label %cleanup10

bb54:                                             ; preds = %bb53
  invoke void @_ZN11OpenFaaSRPC27send_return_value_to_caller17hc8f2e643ffb85429E(ptr align 8 %_73)
          to label %bb55 unwind label %cleanup10

bb55:                                             ; preds = %bb54
  invoke void @"_ZN4core3ptr50drop_in_place$LT$redis..connection..Connection$GT$17h5c182fdfa9807c41E"(ptr align 8 %con)
          to label %bb56 unwind label %cleanup9

bb56:                                             ; preds = %bb55
  invoke void @"_ZN4core3ptr42drop_in_place$LT$redis..client..Client$GT$17h268fbdc1e349f52eE"(ptr align 8 %redis_client)
          to label %bb57 unwind label %cleanup8

bb57:                                             ; preds = %bb56
  invoke void @"_ZN4core3ptr42drop_in_place$LT$alloc..string..String$GT$17hb3b04e371e33c46dE"(ptr align 8 %redis_uri)
          to label %bb58 unwind label %cleanup5

bb58:                                             ; preds = %bb57
  store i8 0, ptr %_75, align 1
  invoke void @"_ZN4core3ptr47drop_in_place$LT$alloc..vec..Vec$LT$i64$GT$$GT$17h45a35d44e4fb44aaE"(ptr align 8 %followers)
          to label %bb59 unwind label %cleanup3

bb59:                                             ; preds = %bb58
  invoke void @"_ZN4core3ptr42drop_in_place$LT$alloc..string..String$GT$17hb3b04e371e33c46dE"(ptr align 8 %followers_str)
          to label %bb60 unwind label %cleanup2

bb60:                                             ; preds = %bb59
  store i8 0, ptr %_76, align 1
  call void @"_ZN4core3ptr42drop_in_place$LT$alloc..string..String$GT$17hb3b04e371e33c46dE"(ptr align 8 %input)
  ret void

bb42:                                             ; preds = %bb40
  invoke void @"_ZN45_$LT$T$u20$as$u20$alloc..string..ToString$GT$9to_string17h47140989b3bb85d2E"(ptr sret([24 x i8]) align 8 %_60, ptr align 8 %follower_id)
          to label %bb43 unwind label %cleanup11

bb64:                                             ; preds = %bb62, %bb63, %cleanup11
  invoke void @"_ZN4core3ptr42drop_in_place$LT$alloc..string..String$GT$17hb3b04e371e33c46dE"(ptr align 8 %follower_id_str) #25
          to label %bb65 unwind label %terminate

cleanup11:                                        ; preds = %bb51, %bb46, %bb45, %bb42
  %179 = landingpad { ptr, i32 }
          cleanup
  %180 = extractvalue { ptr, i32 } %179, 0
  %181 = extractvalue { ptr, i32 } %179, 1
  store ptr %180, ptr %7, align 8
  %182 = getelementptr inbounds i8, ptr %7, i64 8
  store i32 %181, ptr %182, align 8
  br label %bb64

bb43:                                             ; preds = %bb42
  %183 = invoke { ptr, i64 } @"_ZN65_$LT$alloc..string..String$u20$as$u20$core..ops..deref..Deref$GT$5deref17h42baba91bce6655aE"(ptr align 8 %_60)
          to label %bb44 unwind label %cleanup12

bb63:                                             ; preds = %cleanup12
  invoke void @"_ZN4core3ptr42drop_in_place$LT$alloc..string..String$GT$17hb3b04e371e33c46dE"(ptr align 8 %_60) #25
          to label %bb64 unwind label %terminate

cleanup12:                                        ; preds = %bb44, %bb43
  %184 = landingpad { ptr, i32 }
          cleanup
  %185 = extractvalue { ptr, i32 } %184, 0
  %186 = extractvalue { ptr, i32 } %184, 1
  store ptr %185, ptr %7, align 8
  %187 = getelementptr inbounds i8, ptr %7, i64 8
  store i32 %186, ptr %187, align 8
  br label %bb63

bb44:                                             ; preds = %bb43
  %_58.0 = extractvalue { ptr, i64 } %183, 0
  %_58.1 = extractvalue { ptr, i64 } %183, 1
  invoke void @_ZN5alloc6string6String8push_str17haf09e02ef8780e21E(ptr align 8 %follower_id_str, ptr align 1 %_58.0, i64 %_58.1)
          to label %bb45 unwind label %cleanup12

bb45:                                             ; preds = %bb44
  invoke void @"_ZN4core3ptr42drop_in_place$LT$alloc..string..String$GT$17hb3b04e371e33c46dE"(ptr align 8 %_60)
          to label %bb46 unwind label %cleanup11

bb46:                                             ; preds = %bb45
  %_62 = getelementptr inbounds i8, ptr %timeline_info, i64 24
  invoke void @"_ZN45_$LT$T$u20$as$u20$alloc..string..ToString$GT$9to_string17h47140989b3bb85d2E"(ptr sret([24 x i8]) align 8 %post_id_str, ptr align 8 %_62)
          to label %bb47 unwind label %cleanup11

bb47:                                             ; preds = %bb46
  %188 = invoke { ptr, i64 } @"_ZN74_$LT$alloc..string..String$u20$as$u20$core..ops..index..Index$LT$I$GT$$GT$5index17hc0a29d0e8d9cb444E"(ptr align 8 %follower_id_str, ptr align 8 @alloc_ae52e422ab29884b58622d79788975fe)
          to label %bb48 unwind label %cleanup13

bb62:                                             ; preds = %cleanup13.body
  invoke void @"_ZN4core3ptr42drop_in_place$LT$alloc..string..String$GT$17hb3b04e371e33c46dE"(ptr align 8 %post_id_str) #25
          to label %bb64 unwind label %terminate

cleanup13:                                        ; preds = %bb49, %bb48, %bb47
  %189 = landingpad { ptr, i32 }
          cleanup
  br label %cleanup13.body

cleanup13.body:                                   ; preds = %bb5.i51, %cleanup13
  %eh.lpad-body53 = phi { ptr, i32 } [ %189, %cleanup13 ], [ %208, %bb5.i51 ]
  %190 = extractvalue { ptr, i32 } %eh.lpad-body53, 0
  %191 = extractvalue { ptr, i32 } %eh.lpad-body53, 1
  store ptr %190, ptr %7, align 8
  %192 = getelementptr inbounds i8, ptr %7, i64 8
  store i32 %191, ptr %192, align 8
  br label %bb62

bb48:                                             ; preds = %bb47
  %_66.0 = extractvalue { ptr, i64 } %188, 0
  %_66.1 = extractvalue { ptr, i64 } %188, 1
  %193 = invoke { ptr, i64 } @"_ZN74_$LT$alloc..string..String$u20$as$u20$core..ops..index..Index$LT$I$GT$$GT$5index17hc0a29d0e8d9cb444E"(ptr align 8 %post_id_str, ptr align 8 @alloc_ae52e422ab29884b58622d79788975fe)
          to label %bb49 unwind label %cleanup13

bb49:                                             ; preds = %bb48
  %_68.0 = extractvalue { ptr, i64 } %193, 0
  %_68.1 = extractvalue { ptr, i64 } %193, 1
  %194 = getelementptr inbounds i8, ptr %timeline_info, i64 40
  %_70 = load i64, ptr %194, align 8
  invoke void @_ZN5redis8commands8Commands4zadd17h8f35f400d0ccc13fE(ptr sret([56 x i8]) align 8 %_64, ptr align 8 %con, ptr align 1 %_66.0, i64 %_66.1, ptr align 1 %_68.0, i64 %_68.1, i64 %_70)
          to label %bb50 unwind label %cleanup13

bb50:                                             ; preds = %bb49
  %195 = load i8, ptr %_64, align 8
  %196 = icmp eq i8 %195, 4
  %_2.i47 = select i1 %196, i64 0, i64 1
  br i1 %196, label %"_ZN4core6result19Result$LT$T$C$E$GT$6unwrap17hd8253a5efb597b69E.exit", label %bb2.i48

bb2.i48:                                          ; preds = %bb50
  call void @llvm.memcpy.p0.p0.i64(ptr align 8 %e.i46, ptr align 8 %_64, i64 56, i1 false)
  invoke void @_ZN4core6result13unwrap_failed17ha0759953b76fb252E(ptr align 1 @alloc_00ae4b301f7fab8ac9617c03fcbd7274, i64 43, ptr align 1 %e.i46, ptr align 8 @vtable.7, ptr align 8 @alloc_ae52e422ab29884b58622d79788975fe) #26
          to label %unreachable.i52 unwind label %cleanup.i49

cleanup.i49:                                      ; preds = %bb2.i48
  %197 = landingpad { ptr, i32 }
          cleanup
  %198 = extractvalue { ptr, i32 } %197, 0
  %199 = extractvalue { ptr, i32 } %197, 1
  store ptr %198, ptr %1, align 8
  %200 = getelementptr inbounds i8, ptr %1, i64 8
  store i32 %199, ptr %200, align 8
  invoke void @"_ZN4core3ptr45drop_in_place$LT$redis..types..RedisError$GT$17h2bb70742178b4f0dE"(ptr align 8 %e.i46) #25
          to label %bb5.i51 unwind label %terminate.i50

unreachable.i52:                                  ; preds = %bb2.i48
  unreachable

terminate.i50:                                    ; preds = %cleanup.i49
  %201 = landingpad { ptr, i32 }
          cleanup
          filter [0 x ptr] zeroinitializer
  %202 = extractvalue { ptr, i32 } %201, 0
  %203 = extractvalue { ptr, i32 } %201, 1
  call void @_ZN4core9panicking16panic_in_cleanup17hdb19dc6496e5af6eE() #27
  unreachable

bb5.i51:                                          ; preds = %cleanup.i49
  %204 = load ptr, ptr %1, align 8
  %205 = getelementptr inbounds i8, ptr %1, i64 8
  %206 = load i32, ptr %205, align 8
  %207 = insertvalue { ptr, i32 } poison, ptr %204, 0
  %208 = insertvalue { ptr, i32 } %207, i32 %206, 1
  br label %cleanup13.body

"_ZN4core6result19Result$LT$T$C$E$GT$6unwrap17hd8253a5efb597b69E.exit": ; preds = %bb50
  %209 = getelementptr inbounds i8, ptr %_64, i64 8
  %t.i = load i64, ptr %209, align 8
  store i64 %t.i, ptr %t.dbg.spill.i, align 8
  br label %bb51

bb51:                                             ; preds = %"_ZN4core6result19Result$LT$T$C$E$GT$6unwrap17hd8253a5efb597b69E.exit"
  invoke void @"_ZN4core3ptr42drop_in_place$LT$alloc..string..String$GT$17hb3b04e371e33c46dE"(ptr align 8 %post_id_str)
          to label %bb52 unwind label %cleanup11

bb52:                                             ; preds = %bb51
  invoke void @"_ZN4core3ptr42drop_in_place$LT$alloc..string..String$GT$17hb3b04e371e33c46dE"(ptr align 8 %follower_id_str)
          to label %bb38 unwind label %cleanup10

terminate:                                        ; preds = %bb75, %bb73, %bb62, %bb63, %bb64, %bb65, %bb66, %bb67, %bb68, %bb69, %bb70, %bb71
  %210 = landingpad { ptr, i32 }
          filter [0 x ptr] zeroinitializer
  %211 = extractvalue { ptr, i32 } %210, 0
  %212 = extractvalue { ptr, i32 } %210, 1
  call void @_ZN4core9panicking16panic_in_cleanup17hdb19dc6496e5af6eE() #27
  unreachable

bb24:                                             ; preds = %bb22
  %_32 = invoke align 1 ptr @"_ZN3std11collections4hash3map18Entry$LT$K$C$V$GT$14or_insert_with17h9bd3b49cb799e5abE"(ptr align 8 %_33)
          to label %bb77 unwind label %cleanup6

bb77:                                             ; preds = %bb24
  br label %bb19

bb21:                                             ; No predecessors!
  unreachable

bb73:                                             ; preds = %bb74
  invoke void @"_ZN4core3ptr75drop_in_place$LT$std..collections..hash..map..HashMap$LT$i64$C$bool$GT$$GT$17h4d2cb543b843e7d1E"(ptr align 8 %followers_set) #25
          to label %bb69 unwind label %terminate

bb75:                                             ; preds = %bb76
  invoke void @"_ZN4core3ptr47drop_in_place$LT$alloc..vec..Vec$LT$i64$GT$$GT$17h45a35d44e4fb44aaE"(ptr align 8 %timeline_info) #25
          to label %bb71 unwind label %terminate

bb72:                                             ; preds = %bb71
  %213 = load ptr, ptr %7, align 8
  %214 = getelementptr inbounds i8, ptr %7, i64 8
  %215 = load i32, ptr %214, align 8
  %216 = insertvalue { ptr, i32 } poison, ptr %213, 0
  %217 = insertvalue { ptr, i32 } %216, i32 %215, 1
  resume { ptr, i32 } %217
}

; Function Attrs: nonlazybind uwtable
declare { i64, i32 } @_ZN3std4time7Instant3now17h61598dfbbe18b5e5E() unnamed_addr #0

; Function Attrs: nonlazybind uwtable
declare void @_ZN11OpenFaaSRPC19get_arg_from_caller17ha5cb2147a7920adcE(ptr sret([24 x i8]) align 8) unnamed_addr #0

; Function Attrs: inlinehint nonlazybind uwtable
define internal { ptr, i64 } @"_ZN65_$LT$alloc..string..String$u20$as$u20$core..ops..deref..Deref$GT$5deref17h42baba91bce6655aE"(ptr align 8 %self) unnamed_addr #1 {
start:
  %self.dbg.spill = alloca [8 x i8], align 8
  store ptr %self, ptr %self.dbg.spill, align 8
  %0 = call { ptr, i64 } @_ZN5alloc6string6String6as_str17hfdfcaad061b82b47E(ptr align 8 %self)
  %_0.0 = extractvalue { ptr, i64 } %0, 0
  %_0.1 = extractvalue { ptr, i64 } %0, 1
  %1 = insertvalue { ptr, i64 } poison, ptr %_0.0, 0
  %2 = insertvalue { ptr, i64 } %1, i64 %_0.1, 1
  ret { ptr, i64 } %2
}

; Function Attrs: nonlazybind uwtable
declare void @"_ZN4core3ptr42drop_in_place$LT$alloc..string..String$GT$17hb3b04e371e33c46dE"(ptr align 8) unnamed_addr #0

; Function Attrs: nonlazybind uwtable
define internal void @_ZN10serde_json2de8from_str17hccd12fa74df04055E(ptr sret([48 x i8]) align 8 %_0, ptr align 1 %s.0, i64 %s.1) unnamed_addr #0 {
start:
  %s.dbg.spill = alloca [16 x i8], align 8
  %_2 = alloca [24 x i8], align 8
  store ptr %s.0, ptr %s.dbg.spill, align 8
  %0 = getelementptr inbounds i8, ptr %s.dbg.spill, i64 8
  store i64 %s.1, ptr %0, align 8
  call void @_ZN10serde_json4read7StrRead3new17ha89b36731706638dE(ptr sret([24 x i8]) align 8 %_2, ptr align 1 %s.0, i64 %s.1)
  call void @_ZN10serde_json2de10from_trait17hf290f9642ab3f313E(ptr sret([48 x i8]) align 8 %_0, ptr align 8 %_2)
  ret void
}

; Function Attrs: cold noinline noreturn nonlazybind uwtable
declare void @_ZN4core6result13unwrap_failed17ha0759953b76fb252E(ptr align 1, i64, ptr align 1, ptr align 8, ptr align 8) unnamed_addr #4

; Function Attrs: nonlazybind uwtable
declare void @"_ZN4core3ptr45drop_in_place$LT$serde_json..error..Error$GT$17h0d2faac477cb119fE"(ptr align 8) unnamed_addr #0

; Function Attrs: cold minsize noinline noreturn nounwind nonlazybind optsize uwtable
declare void @_ZN4core9panicking16panic_in_cleanup17hdb19dc6496e5af6eE() unnamed_addr #5

; Function Attrs: nocallback nofree nounwind willreturn memory(argmem: readwrite)
declare void @llvm.memcpy.p0.p0.i64(ptr noalias nocapture writeonly, ptr noalias nocapture readonly, i64, i1 immarg) #6

; Function Attrs: inlinehint nonlazybind uwtable
define internal void @_ZN10serde_json3ser9to_string17h98ed8e0f13c2ca17E(ptr sret([24 x i8]) align 8 %_0, ptr align 8 %value) unnamed_addr #1 personality ptr @rust_eh_personality {
start:
  %err.dbg.spill = alloca [8 x i8], align 8
  %0 = alloca [16 x i8], align 8
  %value.dbg.spill = alloca [8 x i8], align 8
  %_9 = alloca [1 x i8], align 1
  %_8 = alloca [24 x i8], align 8
  %string = alloca [24 x i8], align 8
  %val = alloca [24 x i8], align 8
  %_3 = alloca [24 x i8], align 8
  %vec = alloca [24 x i8], align 8
  store ptr %value, ptr %value.dbg.spill, align 8
  store i8 0, ptr %_9, align 1
  call void @_ZN10serde_json3ser6to_vec17hb2825631b4deb322E(ptr sret([24 x i8]) align 8 %_3, ptr align 8 %value)
  %1 = load i64, ptr %_3, align 8
  %2 = icmp eq i64 %1, -9223372036854775808
  %_4 = select i1 %2, i64 1, i64 0
  %3 = icmp eq i64 %_4, 0
  br i1 %3, label %bb4, label %bb3

bb4:                                              ; preds = %start
  call void @llvm.memcpy.p0.p0.i64(ptr align 8 %val, ptr align 8 %_3, i64 24, i1 false)
  store i8 1, ptr %_9, align 1
  call void @llvm.memcpy.p0.p0.i64(ptr align 8 %vec, ptr align 8 %val, i64 24, i1 false)
  store i8 0, ptr %_9, align 1
  call void @llvm.memcpy.p0.p0.i64(ptr align 8 %_8, ptr align 8 %vec, i64 24, i1 false)
  invoke void @_ZN5alloc6string6String19from_utf8_unchecked17ha889d710b0aa5792E(ptr sret([24 x i8]) align 8 %string, ptr align 8 %_8)
          to label %bb5 unwind label %cleanup

bb3:                                              ; preds = %start
  %4 = getelementptr inbounds i8, ptr %_3, i64 8
  %err = load ptr, ptr %4, align 8
  store ptr %err, ptr %err.dbg.spill, align 8
  %5 = getelementptr inbounds i8, ptr %_0, i64 8
  store ptr %err, ptr %5, align 8
  store i64 -9223372036854775808, ptr %_0, align 8
  store i8 0, ptr %_9, align 1
  br label %bb6

bb9:                                              ; preds = %cleanup
  %6 = load i8, ptr %_9, align 1
  %7 = trunc i8 %6 to i1
  br i1 %7, label %bb8, label %bb7

cleanup:                                          ; preds = %bb4
  %8 = landingpad { ptr, i32 }
          cleanup
  %9 = extractvalue { ptr, i32 } %8, 0
  %10 = extractvalue { ptr, i32 } %8, 1
  store ptr %9, ptr %0, align 8
  %11 = getelementptr inbounds i8, ptr %0, i64 8
  store i32 %10, ptr %11, align 8
  br label %bb9

bb5:                                              ; preds = %bb4
  call void @llvm.memcpy.p0.p0.i64(ptr align 8 %_0, ptr align 8 %string, i64 24, i1 false)
  store i8 0, ptr %_9, align 1
  br label %bb6

bb6:                                              ; preds = %bb5, %bb3
  ret void

bb7:                                              ; preds = %bb8, %bb9
  %12 = load ptr, ptr %0, align 8
  %13 = getelementptr inbounds i8, ptr %0, i64 8
  %14 = load i32, ptr %13, align 8
  %15 = insertvalue { ptr, i32 } poison, ptr %12, 0
  %16 = insertvalue { ptr, i32 } %15, i32 %14, 1
  resume { ptr, i32 } %16

bb8:                                              ; preds = %bb9
  invoke void @"_ZN4core3ptr46drop_in_place$LT$alloc..vec..Vec$LT$u8$GT$$GT$17h1e425b946ab324c0E"(ptr align 8 %vec) #25
          to label %bb7 unwind label %terminate

terminate:                                        ; preds = %bb8
  %17 = landingpad { ptr, i32 }
          filter [0 x ptr] zeroinitializer
  %18 = extractvalue { ptr, i32 } %17, 0
  %19 = extractvalue { ptr, i32 } %17, 1
  call void @_ZN4core9panicking16panic_in_cleanup17hdb19dc6496e5af6eE() #27
  unreachable

bb2:                                              ; No predecessors!
  unreachable
}

; Function Attrs: nonlazybind uwtable
define internal void @_ZN3std6thread5spawn17hcef82344ae42cb56E(ptr sret([32 x i8]) align 8 %_0, ptr align 8 %f) unnamed_addr #0 personality ptr @rust_eh_personality {
start:
  %0 = alloca [16 x i8], align 8
  %_6 = alloca [1 x i8], align 1
  %_4 = alloca [24 x i8], align 8
  %_3 = alloca [48 x i8], align 8
  %_2 = alloca [32 x i8], align 8
  store i8 0, ptr %_6, align 1
  store i8 1, ptr %_6, align 1
  invoke void @_ZN3std6thread7Builder3new17h59c2d442c9eac309E(ptr sret([48 x i8]) align 8 %_3)
          to label %bb1 unwind label %cleanup

bb6:                                              ; preds = %cleanup
  %1 = load i8, ptr %_6, align 1
  %2 = trunc i8 %1 to i1
  br i1 %2, label %bb5, label %bb4

cleanup:                                          ; preds = %bb2, %bb1, %start
  %3 = landingpad { ptr, i32 }
          cleanup
  %4 = extractvalue { ptr, i32 } %3, 0
  %5 = extractvalue { ptr, i32 } %3, 1
  store ptr %4, ptr %0, align 8
  %6 = getelementptr inbounds i8, ptr %0, i64 8
  store i32 %5, ptr %6, align 8
  br label %bb6

bb1:                                              ; preds = %start
  store i8 0, ptr %_6, align 1
  call void @llvm.memcpy.p0.p0.i64(ptr align 8 %_4, ptr align 8 %f, i64 24, i1 false)
  invoke void @_ZN3std6thread7Builder5spawn17hbd959c5b695065ccE(ptr sret([32 x i8]) align 8 %_2, ptr align 8 %_3, ptr align 8 %_4)
          to label %bb2 unwind label %cleanup

bb2:                                              ; preds = %bb1
  invoke void @"_ZN4core6result19Result$LT$T$C$E$GT$6expect17h6c7567164a9dded6E"(ptr sret([32 x i8]) align 8 %_0, ptr align 8 %_2, ptr align 1 @alloc_e3605bf48dd8479a638909176cc37fce, i64 22, ptr align 8 @alloc_ae52e422ab29884b58622d79788975fe)
          to label %bb3 unwind label %cleanup

bb3:                                              ; preds = %bb2
  ret void

bb4:                                              ; preds = %bb5, %bb6
  %7 = load ptr, ptr %0, align 8
  %8 = getelementptr inbounds i8, ptr %0, i64 8
  %9 = load i32, ptr %8, align 8
  %10 = insertvalue { ptr, i32 } poison, ptr %7, 0
  %11 = insertvalue { ptr, i32 } %10, i32 %9, 1
  resume { ptr, i32 } %11

bb5:                                              ; preds = %bb6
  invoke void @"_ZN4core3ptr64drop_in_place$LT$function..main..$u7b$$u7b$closure$u7d$$u7d$$GT$17h7e4e4304a82c6fd8E"(ptr align 8 %f) #25
          to label %bb4 unwind label %terminate

terminate:                                        ; preds = %bb5
  %12 = landingpad { ptr, i32 }
          filter [0 x ptr] zeroinitializer
  %13 = extractvalue { ptr, i32 } %12, 0
  %14 = extractvalue { ptr, i32 } %12, 1
  call void @_ZN4core9panicking16panic_in_cleanup17hdb19dc6496e5af6eE() #27
  unreachable
}

; Function Attrs: nonlazybind uwtable
define internal void @"_ZN3std6thread19JoinHandle$LT$T$GT$4join17ha9b5c1ce1aa66e3fE"(ptr sret([24 x i8]) align 8 %_0, ptr align 8 %self) unnamed_addr #0 {
start:
  %_2 = alloca [32 x i8], align 8
  call void @llvm.memcpy.p0.p0.i64(ptr align 8 %_2, ptr align 8 %self, i64 32, i1 false)
  call void @"_ZN3std6thread18JoinInner$LT$T$GT$4join17h6235290f95240099E"(ptr sret([24 x i8]) align 8 %_0, ptr align 8 %_2)
  ret void
}

; Function Attrs: nonlazybind uwtable
declare void @"_ZN4core3ptr91drop_in_place$LT$alloc..boxed..Box$LT$dyn$u20$core..any..Any$u2b$core..marker..Send$GT$$GT$17hfd5d326d0b817631E"(ptr align 8) unnamed_addr #0

; Function Attrs: nonlazybind uwtable
define internal void @_ZN10serde_json2de8from_str17hb9e1bcc44eaefe5aE(ptr sret([24 x i8]) align 8 %_0, ptr align 1 %s.0, i64 %s.1) unnamed_addr #0 {
start:
  %s.dbg.spill = alloca [16 x i8], align 8
  %_2 = alloca [24 x i8], align 8
  store ptr %s.0, ptr %s.dbg.spill, align 8
  %0 = getelementptr inbounds i8, ptr %s.dbg.spill, i64 8
  store i64 %s.1, ptr %0, align 8
  call void @_ZN10serde_json4read7StrRead3new17ha89b36731706638dE(ptr sret([24 x i8]) align 8 %_2, ptr align 1 %s.0, i64 %s.1)
  call void @_ZN10serde_json2de10from_trait17h123354186b39d4c1E(ptr sret([24 x i8]) align 8 %_0, ptr align 8 %_2)
  ret void
}

; Function Attrs: inlinehint nonlazybind uwtable
define internal { ptr, i64 } @"_ZN72_$LT$alloc..vec..Vec$LT$T$C$A$GT$$u20$as$u20$core..ops..deref..Deref$GT$5deref17hc510c19cf341c343E"(ptr align 8 %self) unnamed_addr #1 {
start:
  %self.dbg.spill = alloca [8 x i8], align 8
  store ptr %self, ptr %self.dbg.spill, align 8
  %0 = call { ptr, i64 } @"_ZN5alloc3vec16Vec$LT$T$C$A$GT$8as_slice17h0ad2342155f9fadaE"(ptr align 8 %self)
  %_0.0 = extractvalue { ptr, i64 } %0, 0
  %_0.1 = extractvalue { ptr, i64 } %0, 1
  %1 = insertvalue { ptr, i64 } poison, ptr %_0.0, 0
  %2 = insertvalue { ptr, i64 } %1, i64 %_0.1, 1
  ret { ptr, i64 } %2
}

; Function Attrs: nonlazybind uwtable
define internal void @"_ZN4core3ptr47drop_in_place$LT$alloc..vec..Vec$LT$i64$GT$$GT$17h45a35d44e4fb44aaE"(ptr align 8 %_1) unnamed_addr #0 personality ptr @rust_eh_personality {
start:
  %0 = alloca [16 x i8], align 8
  %_1.dbg.spill = alloca [8 x i8], align 8
  store ptr %_1, ptr %_1.dbg.spill, align 8
  invoke void @"_ZN70_$LT$alloc..vec..Vec$LT$T$C$A$GT$$u20$as$u20$core..ops..drop..Drop$GT$4drop17h3d1792697dd50ab7E"(ptr align 8 %_1)
          to label %bb4 unwind label %cleanup

bb3:                                              ; preds = %cleanup
  invoke void @"_ZN4core3ptr54drop_in_place$LT$alloc..raw_vec..RawVec$LT$i64$GT$$GT$17h8322bb410788bc82E"(ptr align 8 %_1) #25
          to label %bb1 unwind label %terminate

cleanup:                                          ; preds = %start
  %1 = landingpad { ptr, i32 }
          cleanup
  %2 = extractvalue { ptr, i32 } %1, 0
  %3 = extractvalue { ptr, i32 } %1, 1
  store ptr %2, ptr %0, align 8
  %4 = getelementptr inbounds i8, ptr %0, i64 8
  store i32 %3, ptr %4, align 8
  br label %bb3

bb4:                                              ; preds = %start
  call void @"_ZN4core3ptr54drop_in_place$LT$alloc..raw_vec..RawVec$LT$i64$GT$$GT$17h8322bb410788bc82E"(ptr align 8 %_1)
  ret void

terminate:                                        ; preds = %bb3
  %5 = landingpad { ptr, i32 }
          filter [0 x ptr] zeroinitializer
  %6 = extractvalue { ptr, i32 } %5, 0
  %7 = extractvalue { ptr, i32 } %5, 1
  call void @_ZN4core9panicking16panic_in_cleanup17hdb19dc6496e5af6eE() #27
  unreachable

bb1:                                              ; preds = %bb3
  %8 = load ptr, ptr %0, align 8
  %9 = getelementptr inbounds i8, ptr %0, i64 8
  %10 = load i32, ptr %9, align 8
  %11 = insertvalue { ptr, i32 } poison, ptr %8, 0
  %12 = insertvalue { ptr, i32 } %11, i32 %10, 1
  resume { ptr, i32 } %12
}

; Function Attrs: inlinehint nonlazybind uwtable
define internal { ptr, ptr } @"_ZN4core5slice29_$LT$impl$u20$$u5b$T$u5d$$GT$4iter17hf753e7b7dc0919c4E"(ptr align 8 %self.0, i64 %self.1) unnamed_addr #1 {
start:
  %self.dbg.spill = alloca [16 x i8], align 8
  store ptr %self.0, ptr %self.dbg.spill, align 8
  %0 = getelementptr inbounds i8, ptr %self.dbg.spill, i64 8
  store i64 %self.1, ptr %0, align 8
  %1 = call { ptr, ptr } @"_ZN4core5slice4iter13Iter$LT$T$GT$3new17h453069802ee6ed2aE"(ptr align 8 %self.0, i64 %self.1)
  %_0.0 = extractvalue { ptr, ptr } %1, 0
  %_0.1 = extractvalue { ptr, ptr } %1, 1
  %2 = insertvalue { ptr, ptr } poison, ptr %_0.0, 0
  %3 = insertvalue { ptr, ptr } %2, ptr %_0.1, 1
  ret { ptr, ptr } %3
}

; Function Attrs: inlinehint nonlazybind uwtable
define internal { ptr, ptr } @_ZN4core4iter6traits8iterator8Iterator3map17h63367727ce63cde2E(ptr %self.0, ptr %self.1) unnamed_addr #1 {
start:
  %f.dbg.spill = alloca [0 x i8], align 1
  %self.dbg.spill = alloca [16 x i8], align 8
  store ptr %self.0, ptr %self.dbg.spill, align 8
  %0 = getelementptr inbounds i8, ptr %self.dbg.spill, i64 8
  store ptr %self.1, ptr %0, align 8
  %1 = call { ptr, ptr } @"_ZN4core4iter8adapters3map16Map$LT$I$C$F$GT$3new17h3a03b14ee9f0c77bE"(ptr %self.0, ptr %self.1)
  %_0.0 = extractvalue { ptr, ptr } %1, 0
  %_0.1 = extractvalue { ptr, ptr } %1, 1
  %2 = insertvalue { ptr, ptr } poison, ptr %_0.0, 0
  %3 = insertvalue { ptr, ptr } %2, ptr %_0.1, 1
  ret { ptr, ptr } %3
}

; Function Attrs: inlinehint nonlazybind uwtable
define internal void @_ZN4core4iter6traits8iterator8Iterator7collect17hf58d36c1ce54d94eE(ptr sret([48 x i8]) align 8 %_0, ptr %self.0, ptr %self.1) unnamed_addr #1 {
start:
  %self.dbg.spill = alloca [16 x i8], align 8
  store ptr %self.0, ptr %self.dbg.spill, align 8
  %0 = getelementptr inbounds i8, ptr %self.dbg.spill, i64 8
  store ptr %self.1, ptr %0, align 8
  call void @"_ZN136_$LT$std..collections..hash..map..HashMap$LT$K$C$V$C$S$GT$$u20$as$u20$core..iter..traits..collect..FromIterator$LT$$LP$K$C$V$RP$$GT$$GT$9from_iter17h7f4d5bdab44b8c3cE"(ptr sret([48 x i8]) align 8 %_0, ptr %self.0, ptr %self.1)
  ret void
}

; Function Attrs: inlinehint nonlazybind uwtable
define internal void @"_ZN90_$LT$alloc..vec..Vec$LT$T$C$A$GT$$u20$as$u20$core..iter..traits..collect..IntoIterator$GT$9into_iter17h4e31c81cfb034392E"(ptr sret([32 x i8]) align 8 %_0, ptr align 8 %self) unnamed_addr #1 {
start:
  %self.dbg.spill.i5 = alloca [8 x i8], align 8
  %self.dbg.spill.i4 = alloca [8 x i8], align 8
  %self.dbg.spill.i3 = alloca [8 x i8], align 8
  %self.dbg.spill.i2 = alloca [8 x i8], align 8
  %self.dbg.spill.i1 = alloca [8 x i8], align 8
  %count.dbg.spill.i = alloca [8 x i8], align 8
  %self.dbg.spill.i = alloca [8 x i8], align 8
  %cap.dbg.spill = alloca [8 x i8], align 8
  %begin.dbg.spill = alloca [8 x i8], align 8
  %buf.dbg.spill = alloca [8 x i8], align 8
  %alloc.dbg.spill = alloca [0 x i8], align 1
  %end = alloca [8 x i8], align 8
  %me = alloca [24 x i8], align 8
  call void @llvm.memcpy.p0.p0.i64(ptr align 8 %me, ptr align 8 %self, i64 24, i1 false)
  store ptr %me, ptr %self.dbg.spill.i5, align 8
  %_6 = call align 1 ptr @"_ZN5alloc3vec16Vec$LT$T$C$A$GT$9allocator17h24fbc6652777530cE"(ptr align 8 %me)
  call void @_ZN4core3ptr4read17hbed058c4828f9d4eE(ptr %_6)
  store ptr %me, ptr %self.dbg.spill.i4, align 8
  %buf = call ptr @"_ZN5alloc7raw_vec19RawVec$LT$T$C$A$GT$8non_null17hd8de782aeb5ddfe4E"(ptr align 8 %me)
  store ptr %buf, ptr %buf.dbg.spill, align 8
  store ptr %buf, ptr %self.dbg.spill.i1, align 8
  store ptr %buf, ptr %begin.dbg.spill, align 8
  br label %bb13

bb13:                                             ; preds = %start
  store ptr %me, ptr %self.dbg.spill.i3, align 8
  %_21 = call i64 @"_ZN5alloc3vec16Vec$LT$T$C$A$GT$3len17h9138dbeb3694f62cE"(ptr align 8 %me)
  store ptr %buf, ptr %self.dbg.spill.i, align 8
  store i64 %_21, ptr %count.dbg.spill.i, align 8
  %_3.i = call zeroext i1 @_ZN4core9ub_checks17check_language_ub17h56b47dc4257f98b8E()
  br i1 %_3.i, label %bb2.i, label %"_ZN4core3ptr7mut_ptr31_$LT$impl$u20$$BP$mut$u20$T$GT$3add17h801df4ebed013358E.exit"

bb2.i:                                            ; preds = %bb13
  call void @"_ZN4core3ptr7mut_ptr31_$LT$impl$u20$$BP$mut$u20$T$GT$3add18precondition_check17hbb47fbd20d650b93E"(ptr %buf, i64 %_21, i64 8) #28
  br label %"_ZN4core3ptr7mut_ptr31_$LT$impl$u20$$BP$mut$u20$T$GT$3add17h801df4ebed013358E.exit"

"_ZN4core3ptr7mut_ptr31_$LT$impl$u20$$BP$mut$u20$T$GT$3add17h801df4ebed013358E.exit": ; preds = %bb2.i, %bb13
  %_0.i = getelementptr inbounds i64, ptr %buf, i64 %_21
  store ptr %_0.i, ptr %end, align 8
  br label %bb17

bb17:                                             ; preds = %"_ZN4core3ptr7mut_ptr31_$LT$impl$u20$$BP$mut$u20$T$GT$3add17h801df4ebed013358E.exit"
  store ptr %me, ptr %self.dbg.spill.i2, align 8
  %cap = call i64 @"_ZN5alloc7raw_vec19RawVec$LT$T$C$A$GT$8capacity17hcffcebf1c115141dE"(ptr align 8 %me)
  store i64 %cap, ptr %cap.dbg.spill, align 8
  %_28 = load ptr, ptr %end, align 8
  store ptr %buf, ptr %_0, align 8
  %0 = getelementptr inbounds i8, ptr %_0, i64 16
  store i64 %cap, ptr %0, align 8
  %1 = getelementptr inbounds i8, ptr %_0, i64 8
  store ptr %buf, ptr %1, align 8
  %2 = getelementptr inbounds i8, ptr %_0, i64 24
  store ptr %_28, ptr %2, align 8
  ret void

bb9:                                              ; No predecessors!
  unreachable

bb10:                                             ; No predecessors!
  unreachable

bb11:                                             ; No predecessors!
  unreachable

bb12:                                             ; No predecessors!
  unreachable
}

; Function Attrs: inlinehint nonlazybind uwtable
define internal { i64, i64 } @"_ZN103_$LT$alloc..vec..into_iter..IntoIter$LT$T$C$A$GT$$u20$as$u20$core..iter..traits..iterator..Iterator$GT$4next17h208ecec7fd9336b1E"(ptr align 8 %self) unnamed_addr #1 {
start:
  %self.dbg.spill.i1 = alloca [8 x i8], align 8
  %count.dbg.spill.i = alloca [8 x i8], align 8
  %self.dbg.spill.i = alloca [8 x i8], align 8
  %old.dbg.spill = alloca [8 x i8], align 8
  %self.dbg.spill = alloca [8 x i8], align 8
  %_13 = alloca [8 x i8], align 8
  %ptr = alloca [8 x i8], align 8
  %_0 = alloca [16 x i8], align 8
  store ptr %self, ptr %self.dbg.spill, align 8
  br label %bb6

bb6:                                              ; preds = %start
  %_11 = getelementptr inbounds i8, ptr %self, i64 8
  %_15 = getelementptr inbounds i8, ptr %self, i64 24
  %0 = load ptr, ptr %_15, align 8
  store ptr %0, ptr %_13, align 8
  %_10 = call zeroext i1 @"_ZN78_$LT$core..ptr..non_null..NonNull$LT$T$GT$$u20$as$u20$core..cmp..PartialEq$GT$2eq17h04a647a0257129a2E"(ptr align 8 %_11, ptr align 8 %_13)
  br i1 %_10, label %bb8, label %bb9

bb9:                                              ; preds = %bb6
  %1 = getelementptr inbounds i8, ptr %self, i64 8
  %old = load ptr, ptr %1, align 8
  store ptr %old, ptr %old.dbg.spill, align 8
  store ptr %old, ptr %self.dbg.spill.i, align 8
  store i64 1, ptr %count.dbg.spill.i, align 8
  store ptr %old, ptr %self.dbg.spill.i1, align 8
  %_3.i = getelementptr inbounds i64, ptr %old, i64 1
  %2 = getelementptr inbounds i8, ptr %self, i64 8
  store ptr %_3.i, ptr %2, align 8
  store ptr %old, ptr %ptr, align 8
  br label %bb11

bb8:                                              ; preds = %bb6
  store i64 0, ptr %_0, align 8
  br label %bb13

bb11:                                             ; preds = %bb9
  %_19 = load ptr, ptr %ptr, align 8
  %_18 = call i64 @"_ZN4core3ptr8non_null16NonNull$LT$T$GT$4read17hf7a846c014bf21b0E"(ptr %_19)
  %3 = getelementptr inbounds i8, ptr %_0, i64 8
  store i64 %_18, ptr %3, align 8
  store i64 1, ptr %_0, align 8
  br label %bb13

bb13:                                             ; preds = %bb11, %bb8
  %4 = load i64, ptr %_0, align 8
  %5 = getelementptr inbounds i8, ptr %_0, i64 8
  %6 = load i64, ptr %5, align 8
  %7 = insertvalue { i64, i64 } poison, i64 %4, 0
  %8 = insertvalue { i64, i64 } %7, i64 %6, 1
  ret { i64, i64 } %8

bb1:                                              ; No predecessors!
  unreachable

bb2:                                              ; No predecessors!
  unreachable

bb3:                                              ; No predecessors!
  unreachable

bb4:                                              ; No predecessors!
  unreachable

bb5:                                              ; No predecessors!
  unreachable
}

; Function Attrs: nonlazybind uwtable
define internal void @"_ZN4core3ptr63drop_in_place$LT$alloc..vec..into_iter..IntoIter$LT$i64$GT$$GT$17h8376935fb659a24dE"(ptr align 8 %_1) unnamed_addr #0 {
start:
  %_1.dbg.spill = alloca [8 x i8], align 8
  store ptr %_1, ptr %_1.dbg.spill, align 8
  call void @"_ZN86_$LT$alloc..vec..into_iter..IntoIter$LT$T$C$A$GT$$u20$as$u20$core..ops..drop..Drop$GT$4drop17hdbf5d2966c266964E"(ptr align 8 %_1)
  ret void
}

; Function Attrs: inlinehint nonlazybind uwtable
define internal void @"_ZN3std11collections4hash3map24HashMap$LT$K$C$V$C$S$GT$5entry17hcd32cd912258d272E"(ptr sret([24 x i8]) align 8 %_0, ptr align 8 %self, i64 %key) unnamed_addr #1 {
start:
  %key.dbg.spill = alloca [8 x i8], align 8
  %self.dbg.spill = alloca [8 x i8], align 8
  %_3 = alloca [24 x i8], align 8
  store ptr %self, ptr %self.dbg.spill, align 8
  store i64 %key, ptr %key.dbg.spill, align 8
  call void @"_ZN9hashbrown11rustc_entry62_$LT$impl$u20$hashbrown..map..HashMap$LT$K$C$V$C$S$C$A$GT$$GT$11rustc_entry17hd4b684b273c83f93E"(ptr sret([24 x i8]) align 8 %_3, ptr align 8 %self, i64 %key)
  call void @_ZN3std11collections4hash3map9map_entry17h9043e50b15741de6E(ptr sret([24 x i8]) align 8 %_0, ptr align 8 %_3)
  ret void
}

; Function Attrs: inlinehint nonlazybind uwtable
define internal void @"_ZN115_$LT$std..collections..hash..map..HashMap$LT$K$C$V$C$S$GT$$u20$as$u20$core..iter..traits..collect..IntoIterator$GT$9into_iter17h6df178ab0c9d4c01E"(ptr sret([64 x i8]) align 8 %_0, ptr align 8 %self) unnamed_addr #1 {
start:
  %_3 = alloca [48 x i8], align 8
  %_2 = alloca [64 x i8], align 8
  call void @llvm.memcpy.p0.p0.i64(ptr align 8 %_3, ptr align 8 %self, i64 48, i1 false)
  call void @"_ZN106_$LT$hashbrown..map..HashMap$LT$K$C$V$C$S$C$A$GT$$u20$as$u20$core..iter..traits..collect..IntoIterator$GT$9into_iter17h9c0d0937594c7d79E"(ptr sret([64 x i8]) align 8 %_2, ptr align 8 %_3)
  call void @llvm.memcpy.p0.p0.i64(ptr align 8 %_0, ptr align 8 %_2, i64 64, i1 false)
  ret void
}

; Function Attrs: inlinehint nonlazybind uwtable
define internal void @_ZN4core4iter6traits8iterator8Iterator3map17hde96209c4786b46fE(ptr sret([64 x i8]) align 8 %_0, ptr align 8 %self) unnamed_addr #1 {
start:
  %f.dbg.spill = alloca [0 x i8], align 1
  call void @"_ZN4core4iter8adapters3map16Map$LT$I$C$F$GT$3new17hba82caaa917393bbE"(ptr sret([64 x i8]) align 8 %_0, ptr align 8 %self)
  ret void
}

; Function Attrs: inlinehint nonlazybind uwtable
define internal void @_ZN4core4iter6traits8iterator8Iterator7collect17h46761daa0504c35cE(ptr sret([24 x i8]) align 8 %_0, ptr align 8 %self) unnamed_addr #1 {
start:
  call void @"_ZN95_$LT$alloc..vec..Vec$LT$T$GT$$u20$as$u20$core..iter..traits..collect..FromIterator$LT$T$GT$$GT$9from_iter17h915c99963257a3d3E"(ptr sret([24 x i8]) align 8 %_0, ptr align 8 %self, ptr align 8 @alloc_ae52e422ab29884b58622d79788975fe)
  ret void
}

; Function Attrs: nonlazybind uwtable
declare void @_ZN11DbInterface16get_redis_rw_uri17h392bcbba81ff0b1aE(ptr sret([24 x i8]) align 8) unnamed_addr #0

; Function Attrs: inlinehint nonlazybind uwtable
declare { ptr, i64 } @"_ZN74_$LT$alloc..string..String$u20$as$u20$core..ops..index..Index$LT$I$GT$$GT$5index17hc0a29d0e8d9cb444E"(ptr align 8, ptr align 8) unnamed_addr #1

; Function Attrs: nonlazybind uwtable
define internal void @_ZN5redis6client6Client4open17he38bb3b0ecf8f918E(ptr sret([88 x i8]) align 8 %_0, ptr align 1 %params.0, i64 %params.1) unnamed_addr #0 {
start:
  %params.dbg.spill = alloca [16 x i8], align 8
  %val = alloca [88 x i8], align 8
  %residual = alloca [56 x i8], align 8
  %_4 = alloca [88 x i8], align 8
  %_3 = alloca [88 x i8], align 8
  %_2 = alloca [88 x i8], align 8
  store ptr %params.0, ptr %params.dbg.spill, align 8
  %0 = getelementptr inbounds i8, ptr %params.dbg.spill, i64 8
  store i64 %params.1, ptr %0, align 8
  call void @"_ZN65_$LT$$RF$str$u20$as$u20$redis..connection..IntoConnectionInfo$GT$20into_connection_info17h9b264360a6c0f25dE"(ptr sret([88 x i8]) align 8 %_4, ptr align 1 %params.0, i64 %params.1)
  call void @"_ZN79_$LT$core..result..Result$LT$T$C$E$GT$$u20$as$u20$core..ops..try_trait..Try$GT$6branch17hdc2c422d78a5a4baE"(ptr sret([88 x i8]) align 8 %_3, ptr align 8 %_4)
  %1 = load i64, ptr %_3, align 8
  %2 = icmp eq i64 %1, -9223372036854775807
  %_5 = select i1 %2, i64 1, i64 0
  %3 = icmp eq i64 %_5, 0
  br i1 %3, label %bb4, label %bb5

bb4:                                              ; preds = %start
  call void @llvm.memcpy.p0.p0.i64(ptr align 8 %val, ptr align 8 %_3, i64 88, i1 false)
  call void @llvm.memcpy.p0.p0.i64(ptr align 8 %_2, ptr align 8 %val, i64 88, i1 false)
  call void @llvm.memcpy.p0.p0.i64(ptr align 8 %_0, ptr align 8 %_2, i64 88, i1 false)
  br label %bb6

bb5:                                              ; preds = %start
  %4 = getelementptr inbounds i8, ptr %_3, i64 8
  call void @llvm.memcpy.p0.p0.i64(ptr align 8 %residual, ptr align 8 %4, i64 56, i1 false)
  call void @"_ZN153_$LT$core..result..Result$LT$T$C$F$GT$$u20$as$u20$core..ops..try_trait..FromResidual$LT$core..result..Result$LT$core..convert..Infallible$C$E$GT$$GT$$GT$13from_residual17hf748a8bd6b5e783bE"(ptr sret([88 x i8]) align 8 %_0, ptr align 8 %residual, ptr align 8 @alloc_ae52e422ab29884b58622d79788975fe)
  br label %bb6

bb6:                                              ; preds = %bb5, %bb4
  ret void

bb3:                                              ; No predecessors!
  unreachable
}

; Function Attrs: nonlazybind uwtable
declare void @"_ZN4core3ptr45drop_in_place$LT$redis..types..RedisError$GT$17h2bb70742178b4f0dE"(ptr align 8) unnamed_addr #0

; Function Attrs: nonlazybind uwtable
declare void @_ZN5redis6client6Client14get_connection17h5af5192e9687fc99E(ptr sret([88 x i8]) align 8, ptr align 8) unnamed_addr #0

; Function Attrs: nonlazybind uwtable
define internal void @"_ZN4core3ptr42drop_in_place$LT$redis..client..Client$GT$17h268fbdc1e349f52eE"(ptr align 8 %_1) unnamed_addr #0 {
start:
  %_1.dbg.spill = alloca [8 x i8], align 8
  store ptr %_1, ptr %_1.dbg.spill, align 8
  call void @"_ZN4core3ptr54drop_in_place$LT$redis..connection..ConnectionInfo$GT$17h9d35d8330470a2adE"(ptr align 8 %_1)
  ret void
}

; Function Attrs: nonlazybind uwtable
define internal { ptr, ptr } @"_ZN94_$LT$$RF$alloc..vec..Vec$LT$T$C$A$GT$$u20$as$u20$core..iter..traits..collect..IntoIterator$GT$9into_iter17h1741cb0c54234d02E"(ptr align 8 %self) unnamed_addr #0 {
start:
  %self.dbg.spill = alloca [8 x i8], align 8
  store ptr %self, ptr %self.dbg.spill, align 8
  %0 = call { ptr, i64 } @"_ZN72_$LT$alloc..vec..Vec$LT$T$C$A$GT$$u20$as$u20$core..ops..deref..Deref$GT$5deref17hc510c19cf341c343E"(ptr align 8 %self)
  %_2.0 = extractvalue { ptr, i64 } %0, 0
  %_2.1 = extractvalue { ptr, i64 } %0, 1
  %1 = call { ptr, ptr } @"_ZN4core5slice29_$LT$impl$u20$$u5b$T$u5d$$GT$4iter17hf753e7b7dc0919c4E"(ptr align 8 %_2.0, i64 %_2.1)
  %_0.0 = extractvalue { ptr, ptr } %1, 0
  %_0.1 = extractvalue { ptr, ptr } %1, 1
  %2 = insertvalue { ptr, ptr } poison, ptr %_0.0, 0
  %3 = insertvalue { ptr, ptr } %2, ptr %_0.1, 1
  ret { ptr, ptr } %3
}

; Function Attrs: nonlazybind uwtable
declare void @"_ZN4core3ptr50drop_in_place$LT$redis..connection..Connection$GT$17h5c182fdfa9807c41E"(ptr align 8) unnamed_addr #0

; Function Attrs: inlinehint nonlazybind uwtable
define internal align 8 ptr @"_ZN91_$LT$core..slice..iter..Iter$LT$T$GT$$u20$as$u20$core..iter..traits..iterator..Iterator$GT$4next17h7c8ce305ddc7435bE"(ptr align 8 %self) unnamed_addr #1 {
start:
  %self.dbg.spill.i = alloca [8 x i8], align 8
  %self.dbg.spill = alloca [8 x i8], align 8
  %end = alloca [8 x i8], align 8
  %_2 = alloca [1 x i8], align 1
  %_0 = alloca [8 x i8], align 8
  store ptr %self, ptr %self.dbg.spill, align 8
  br label %bb3

bb3:                                              ; preds = %start
  %_7 = getelementptr inbounds i8, ptr %self, i64 8
  store ptr %_7, ptr %self.dbg.spill.i, align 8
  %0 = load ptr, ptr %_7, align 8
  store ptr %0, ptr %end, align 8
  %1 = call zeroext i1 @"_ZN78_$LT$core..ptr..non_null..NonNull$LT$T$GT$$u20$as$u20$core..cmp..PartialEq$GT$2eq17h04a647a0257129a2E"(ptr align 8 %self, ptr align 8 %end)
  %2 = zext i1 %1 to i8
  store i8 %2, ptr %_2, align 1
  br label %bb5

bb5:                                              ; preds = %bb3
  %3 = load i8, ptr %_2, align 1
  %4 = trunc i8 %3 to i1
  br i1 %4, label %bb6, label %bb7

bb7:                                              ; preds = %bb5
  %_10 = call align 8 ptr @"_ZN110_$LT$core..slice..iter..Iter$LT$T$GT$$u20$as$u20$core..iter..traits..unchecked_iterator..UncheckedIterator$GT$14next_unchecked17h6bc2f3ac55371156E"(ptr align 8 %self)
  store ptr %_10, ptr %_0, align 8
  br label %bb9

bb6:                                              ; preds = %bb5
  store ptr null, ptr %_0, align 8
  br label %bb9

bb9:                                              ; preds = %bb6, %bb7
  %5 = load ptr, ptr %_0, align 8
  ret ptr %5

bb1:                                              ; No predecessors!
  unreachable

bb2:                                              ; No predecessors!
  unreachable
}

; Function Attrs: inlinehint nonlazybind uwtable
declare void @"_ZN45_$LT$T$u20$as$u20$alloc..string..ToString$GT$9to_string17h20c51abd9866b83bE"(ptr sret([24 x i8]) align 8, ptr align 1, i64) unnamed_addr #1

; Function Attrs: nonlazybind uwtable
declare void @_ZN11OpenFaaSRPC27send_return_value_to_caller17hc8f2e643ffb85429E(ptr align 8) unnamed_addr #0

; Function Attrs: inlinehint nonlazybind uwtable
define internal void @"_ZN45_$LT$T$u20$as$u20$alloc..string..ToString$GT$9to_string17h47140989b3bb85d2E"(ptr sret([24 x i8]) align 8 %_0, ptr align 8 %self) unnamed_addr #1 {
start:
  %self.dbg.spill = alloca [8 x i8], align 8
  store ptr %self, ptr %self.dbg.spill, align 8
  call void @"_ZN49_$LT$T$u20$as$u20$alloc..string..SpecToString$GT$14spec_to_string17heb64d1ff4bd39cafE"(ptr sret([24 x i8]) align 8 %_0, ptr align 8 %self)
  ret void
}

; Function Attrs: inlinehint nonlazybind uwtable
define internal void @_ZN5alloc6string6String8push_str17haf09e02ef8780e21E(ptr align 8 %self, ptr align 1 %string.0, i64 %string.1) unnamed_addr #1 {
start:
  %self.dbg.spill.i = alloca [16 x i8], align 8
  %string.dbg.spill = alloca [16 x i8], align 8
  %self.dbg.spill = alloca [8 x i8], align 8
  store ptr %self, ptr %self.dbg.spill, align 8
  store ptr %string.0, ptr %string.dbg.spill, align 8
  %0 = getelementptr inbounds i8, ptr %string.dbg.spill, i64 8
  store i64 %string.1, ptr %0, align 8
  store ptr %string.0, ptr %self.dbg.spill.i, align 8
  %1 = getelementptr inbounds i8, ptr %self.dbg.spill.i, i64 8
  store i64 %string.1, ptr %1, align 8
  %2 = insertvalue { ptr, i64 } poison, ptr %string.0, 0
  %3 = insertvalue { ptr, i64 } %2, i64 %string.1, 1
  %_4.0 = extractvalue { ptr, i64 } %3, 0
  %_4.1 = extractvalue { ptr, i64 } %3, 1
  call void @"_ZN5alloc3vec16Vec$LT$T$C$A$GT$17extend_from_slice17h68a1896fb61e402dE"(ptr align 8 %self, ptr align 1 %_4.0, i64 %_4.1, ptr align 8 @alloc_ae52e422ab29884b58622d79788975fe)
  ret void
}

; Function Attrs: inlinehint nonlazybind uwtable
define internal void @_ZN5redis8commands8Commands4zadd17h8f35f400d0ccc13fE(ptr sret([56 x i8]) align 8 %_0, ptr align 8 %self, ptr align 1 %key.0, i64 %key.1, ptr align 1 %member.0, i64 %member.1, i64 %score) unnamed_addr #1 personality ptr @rust_eh_personality {
start:
  %0 = alloca [16 x i8], align 8
  %score.dbg.spill = alloca [8 x i8], align 8
  %member.dbg.spill = alloca [16 x i8], align 8
  %key.dbg.spill = alloca [16 x i8], align 8
  %self.dbg.spill = alloca [8 x i8], align 8
  %_6 = alloca [64 x i8], align 8
  store ptr %self, ptr %self.dbg.spill, align 8
  store ptr %key.0, ptr %key.dbg.spill, align 8
  %1 = getelementptr inbounds i8, ptr %key.dbg.spill, i64 8
  store i64 %key.1, ptr %1, align 8
  store ptr %member.0, ptr %member.dbg.spill, align 8
  %2 = getelementptr inbounds i8, ptr %member.dbg.spill, i64 8
  store i64 %member.1, ptr %2, align 8
  store i64 %score, ptr %score.dbg.spill, align 8
  call void @"_ZN5redis8commands33_$LT$impl$u20$redis..cmd..Cmd$GT$4zadd17hce6d593a88d7dd3bE"(ptr sret([64 x i8]) align 8 %_6, ptr align 1 %key.0, i64 %key.1, ptr align 1 %member.0, i64 %member.1, i64 %score)
  invoke void @_ZN5redis3cmd3Cmd5query17hdbb34aa52f057535E(ptr sret([56 x i8]) align 8 %_0, ptr align 8 %_6, ptr align 1 %self, ptr align 8 @vtable.9)
          to label %bb2 unwind label %cleanup

bb4:                                              ; preds = %cleanup
  invoke void @"_ZN4core3ptr36drop_in_place$LT$redis..cmd..Cmd$GT$17haf26fe8290e1cfe0E"(ptr align 8 %_6) #25
          to label %bb5 unwind label %terminate

cleanup:                                          ; preds = %start
  %3 = landingpad { ptr, i32 }
          cleanup
  %4 = extractvalue { ptr, i32 } %3, 0
  %5 = extractvalue { ptr, i32 } %3, 1
  store ptr %4, ptr %0, align 8
  %6 = getelementptr inbounds i8, ptr %0, i64 8
  store i32 %5, ptr %6, align 8
  br label %bb4

bb2:                                              ; preds = %start
  call void @"_ZN4core3ptr36drop_in_place$LT$redis..cmd..Cmd$GT$17haf26fe8290e1cfe0E"(ptr align 8 %_6)
  ret void

terminate:                                        ; preds = %bb4
  %7 = landingpad { ptr, i32 }
          filter [0 x ptr] zeroinitializer
  %8 = extractvalue { ptr, i32 } %7, 0
  %9 = extractvalue { ptr, i32 } %7, 1
  call void @_ZN4core9panicking16panic_in_cleanup17hdb19dc6496e5af6eE() #27
  unreachable

bb5:                                              ; preds = %bb4
  %10 = load ptr, ptr %0, align 8
  %11 = getelementptr inbounds i8, ptr %0, i64 8
  %12 = load i32, ptr %11, align 8
  %13 = insertvalue { ptr, i32 } poison, ptr %10, 0
  %14 = insertvalue { ptr, i32 } %13, i32 %12, 1
  resume { ptr, i32 } %14
}

; Function Attrs: inlinehint nonlazybind uwtable
define internal align 1 ptr @"_ZN3std11collections4hash3map18Entry$LT$K$C$V$GT$14or_insert_with17h9bd3b49cb799e5abE"(ptr align 8 %self) unnamed_addr #1 personality ptr @rust_eh_personality {
start:
  %0 = alloca [16 x i8], align 8
  %entry.dbg.spill = alloca [16 x i8], align 8
  %default.dbg.spill = alloca [0 x i8], align 1
  %_13 = alloca [1 x i8], align 1
  %_12 = alloca [1 x i8], align 1
  %_9 = alloca [24 x i8], align 8
  %entry = alloca [24 x i8], align 8
  %_3 = alloca [8 x i8], align 8
  store i8 0, ptr %_12, align 1
  store i8 0, ptr %_13, align 1
  store i8 1, ptr %_12, align 1
  %1 = load ptr, ptr %self, align 8
  %2 = ptrtoint ptr %1 to i64
  %3 = icmp eq i64 %2, 0
  %_4 = select i1 %3, i64 0, i64 1
  %4 = icmp eq i64 %_4, 0
  br i1 %4, label %bb3, label %bb2

bb3:                                              ; preds = %start
  %5 = getelementptr inbounds i8, ptr %self, i64 8
  %entry.0 = load ptr, ptr %5, align 8
  %6 = getelementptr inbounds i8, ptr %5, i64 8
  %entry.1 = load ptr, ptr %6, align 8
  store ptr %entry.0, ptr %entry.dbg.spill, align 8
  %7 = getelementptr inbounds i8, ptr %entry.dbg.spill, i64 8
  store ptr %entry.1, ptr %7, align 8
  %_6 = invoke align 1 ptr @"_ZN3std11collections4hash3map26OccupiedEntry$LT$K$C$V$GT$8into_mut17h7cd9eff12faa93b3E"(ptr %entry.0, ptr align 8 %entry.1)
          to label %bb4 unwind label %cleanup

bb2:                                              ; preds = %start
  call void @llvm.memcpy.p0.p0.i64(ptr align 8 %entry, ptr align 8 %self, i64 24, i1 false)
  store i8 1, ptr %_13, align 1
  call void @llvm.memcpy.p0.p0.i64(ptr align 8 %_9, ptr align 8 %entry, i64 24, i1 false)
  store i8 0, ptr %_12, align 1
  %_10 = invoke zeroext i1 @"_ZN8function4main28_$u7b$$u7b$closure$u7d$$u7d$17h223336d6edcba749E_write-home-timeline"()
          to label %bb5 unwind label %cleanup1

bb14:                                             ; preds = %bb11, %bb12, %cleanup
  %8 = load i8, ptr %_12, align 1
  %9 = trunc i8 %8 to i1
  br i1 %9, label %bb13, label %bb9

cleanup:                                          ; preds = %bb3
  %10 = landingpad { ptr, i32 }
          cleanup
  %11 = extractvalue { ptr, i32 } %10, 0
  %12 = extractvalue { ptr, i32 } %10, 1
  store ptr %11, ptr %0, align 8
  %13 = getelementptr inbounds i8, ptr %0, i64 8
  store i32 %12, ptr %13, align 8
  br label %bb14

bb4:                                              ; preds = %bb3
  store ptr %_6, ptr %_3, align 8
  br label %bb7

bb7:                                              ; preds = %bb6, %bb4
  %_0 = load ptr, ptr %_3, align 8
  %14 = load i8, ptr %_12, align 1
  %15 = trunc i8 %14 to i1
  br i1 %15, label %bb10, label %bb8

bb12:                                             ; preds = %cleanup1
  %16 = load i8, ptr %_13, align 1
  %17 = trunc i8 %16 to i1
  br i1 %17, label %bb11, label %bb14

cleanup1:                                         ; preds = %bb5, %bb2
  %18 = landingpad { ptr, i32 }
          cleanup
  %19 = extractvalue { ptr, i32 } %18, 0
  %20 = extractvalue { ptr, i32 } %18, 1
  store ptr %19, ptr %0, align 8
  %21 = getelementptr inbounds i8, ptr %0, i64 8
  store i32 %20, ptr %21, align 8
  br label %bb12

bb5:                                              ; preds = %bb2
  store i8 0, ptr %_13, align 1
  %_8 = invoke align 1 ptr @"_ZN3std11collections4hash3map24VacantEntry$LT$K$C$V$GT$6insert17hd07dedbd02f04fe8E"(ptr align 8 %_9, i1 zeroext %_10)
          to label %bb6 unwind label %cleanup1

bb6:                                              ; preds = %bb5
  store ptr %_8, ptr %_3, align 8
  store i8 0, ptr %_13, align 1
  br label %bb7

bb8:                                              ; preds = %bb10, %bb7
  ret ptr %_0

bb10:                                             ; preds = %bb7
  br label %bb8

bb11:                                             ; preds = %bb12
  br label %bb14

bb9:                                              ; preds = %bb13, %bb14
  %22 = load ptr, ptr %0, align 8
  %23 = getelementptr inbounds i8, ptr %0, i64 8
  %24 = load i32, ptr %23, align 8
  %25 = insertvalue { ptr, i32 } poison, ptr %22, 0
  %26 = insertvalue { ptr, i32 } %25, i32 %24, 1
  resume { ptr, i32 } %26

bb13:                                             ; preds = %bb14
  br label %bb9

bb1:                                              ; No predecessors!
  unreachable
}

; Function Attrs: nonlazybind uwtable
define internal void @"_ZN4core3ptr75drop_in_place$LT$std..collections..hash..map..HashMap$LT$i64$C$bool$GT$$GT$17h4d2cb543b843e7d1E"(ptr align 8 %_1) unnamed_addr #0 {
start:
  %_1.dbg.spill = alloca [8 x i8], align 8
  store ptr %_1, ptr %_1.dbg.spill, align 8
  call void @"_ZN4core3ptr95drop_in_place$LT$hashbrown..map..HashMap$LT$i64$C$bool$C$std..hash..random..RandomState$GT$$GT$17h27782e7cb5fc0a42E"(ptr align 8 %_1)
  ret void
}

; Function Attrs: nonlazybind uwtable
define internal void @"_ZN4core3ptr95drop_in_place$LT$hashbrown..map..HashMap$LT$i64$C$bool$C$std..hash..random..RandomState$GT$$GT$17h27782e7cb5fc0a42E"(ptr align 8 %_1) unnamed_addr #0 {
start:
  %_1.dbg.spill = alloca [8 x i8], align 8
  store ptr %_1, ptr %_1.dbg.spill, align 8
  call void @"_ZN4core3ptr71drop_in_place$LT$hashbrown..raw..RawTable$LT$$LP$i64$C$bool$RP$$GT$$GT$17h6bd911c150887962E"(ptr align 8 %_1)
  ret void
}

; Function Attrs: nonlazybind uwtable
define internal void @"_ZN4core3ptr71drop_in_place$LT$hashbrown..raw..RawTable$LT$$LP$i64$C$bool$RP$$GT$$GT$17h6bd911c150887962E"(ptr align 8 %_1) unnamed_addr #0 {
start:
  %_1.dbg.spill = alloca [8 x i8], align 8
  store ptr %_1, ptr %_1.dbg.spill, align 8
  call void @"_ZN79_$LT$hashbrown..raw..RawTable$LT$T$C$A$GT$$u20$as$u20$core..ops..drop..Drop$GT$4drop17ha25e072439a9c7b9E"(ptr align 8 %_1)
  ret void
}

; Function Attrs: nonlazybind uwtable
define internal void @"_ZN79_$LT$hashbrown..raw..RawTable$LT$T$C$A$GT$$u20$as$u20$core..ops..drop..Drop$GT$4drop17ha25e072439a9c7b9E"(ptr align 8 %self) unnamed_addr #0 {
start:
  %self.dbg.spill = alloca [8 x i8], align 8
  store ptr %self, ptr %self.dbg.spill, align 8
  %_4 = getelementptr inbounds i8, ptr %self, i64 32
  call void @_ZN9hashbrown3raw13RawTableInner16drop_inner_table17h266f6f4edf54ccedE(ptr align 8 %self, ptr align 1 %_4, i64 16, i64 16)
  ret void
}

; Function Attrs: nonlazybind uwtable
define internal void @_ZN9hashbrown3raw13RawTableInner16drop_inner_table17h266f6f4edf54ccedE(ptr align 8 %self, ptr align 1 %alloc, i64 %table_layout.0, i64 %table_layout.1) unnamed_addr #0 {
start:
  %table_layout.dbg.spill = alloca [16 x i8], align 8
  %alloc.dbg.spill = alloca [8 x i8], align 8
  %self.dbg.spill = alloca [8 x i8], align 8
  store ptr %self, ptr %self.dbg.spill, align 8
  store ptr %alloc, ptr %alloc.dbg.spill, align 8
  store i64 %table_layout.0, ptr %table_layout.dbg.spill, align 8
  %0 = getelementptr inbounds i8, ptr %table_layout.dbg.spill, i64 8
  store i64 %table_layout.1, ptr %0, align 8
  %_4 = call zeroext i1 @_ZN9hashbrown3raw13RawTableInner18is_empty_singleton17h57291b2ad90e5ce1E(ptr align 8 %self)
  br i1 %_4, label %bb4, label %bb2

bb2:                                              ; preds = %start
  call void @_ZN9hashbrown3raw13RawTableInner13drop_elements17ha8184e9c53a38d56E(ptr align 8 %self)
  call void @_ZN9hashbrown3raw13RawTableInner12free_buckets17hc861b219cd558fadE(ptr align 8 %self, ptr align 1 %alloc, i64 %table_layout.0, i64 %table_layout.1)
  br label %bb4

bb4:                                              ; preds = %bb2, %start
  ret void
}

; Function Attrs: inlinehint nonlazybind uwtable
define internal zeroext i1 @_ZN9hashbrown3raw13RawTableInner18is_empty_singleton17h57291b2ad90e5ce1E(ptr align 8 %self) unnamed_addr #1 {
start:
  %self.dbg.spill = alloca [8 x i8], align 8
  store ptr %self, ptr %self.dbg.spill, align 8
  %0 = getelementptr inbounds i8, ptr %self, i64 8
  %_2 = load i64, ptr %0, align 8
  %_0 = icmp eq i64 %_2, 0
  ret i1 %_0
}

; Function Attrs: nonlazybind uwtable
define internal void @_ZN9hashbrown3raw13RawTableInner13drop_elements17ha8184e9c53a38d56E(ptr align 8 %self) unnamed_addr #0 {
start:
  %self.dbg.spill = alloca [8 x i8], align 8
  store ptr %self, ptr %self.dbg.spill, align 8
  br label %bb9

bb9:                                              ; preds = %start
  ret void

bb1:                                              ; No predecessors!
  unreachable

bb2:                                              ; No predecessors!
  unreachable

bb3:                                              ; No predecessors!
  unreachable

bb4:                                              ; No predecessors!
  unreachable

bb5:                                              ; No predecessors!
  unreachable

bb6:                                              ; No predecessors!
  unreachable

bb7:                                              ; No predecessors!
  unreachable

bb8:                                              ; No predecessors!
  unreachable
}

; Function Attrs: inlinehint nonlazybind uwtable
declare void @_ZN9hashbrown3raw13RawTableInner12free_buckets17hc861b219cd558fadE(ptr align 8, ptr align 1, i64, i64) unnamed_addr #1

; Function Attrs: inlinehint nonlazybind uwtable
define internal align 1 ptr @"_ZN3std11collections4hash3map26OccupiedEntry$LT$K$C$V$GT$8into_mut17h7cd9eff12faa93b3E"(ptr %self.0, ptr align 8 %self.1) unnamed_addr #1 {
start:
  %self.dbg.spill = alloca [16 x i8], align 8
  store ptr %self.0, ptr %self.dbg.spill, align 8
  %0 = getelementptr inbounds i8, ptr %self.dbg.spill, i64 8
  store ptr %self.1, ptr %0, align 8
  %_0 = call align 1 ptr @"_ZN9hashbrown11rustc_entry35RustcOccupiedEntry$LT$K$C$V$C$A$GT$8into_mut17h3c226434b24392b6E"(ptr %self.0, ptr align 8 %self.1)
  ret ptr %_0
}

; Function Attrs: inlinehint nonlazybind uwtable
define internal zeroext i1 @"_ZN8function4main28_$u7b$$u7b$closure$u7d$$u7d$17h223336d6edcba749E_write-home-timeline"() unnamed_addr #1 {
start:
  %_1.dbg.spill = alloca [0 x i8], align 1
  ret i1 false
}

; Function Attrs: inlinehint nonlazybind uwtable
define internal align 1 ptr @"_ZN3std11collections4hash3map24VacantEntry$LT$K$C$V$GT$6insert17hd07dedbd02f04fe8E"(ptr align 8 %self, i1 zeroext %value) unnamed_addr #1 {
start:
  %value.dbg.spill = alloca [1 x i8], align 1
  %_3 = alloca [24 x i8], align 8
  %0 = zext i1 %value to i8
  store i8 %0, ptr %value.dbg.spill, align 1
  call void @llvm.memcpy.p0.p0.i64(ptr align 8 %_3, ptr align 8 %self, i64 24, i1 false)
  %_0 = call align 1 ptr @"_ZN9hashbrown11rustc_entry33RustcVacantEntry$LT$K$C$V$C$A$GT$6insert17hc79c62ac4aab83bdE"(ptr align 8 %_3, i1 zeroext %value)
  ret ptr %_0
}

; Function Attrs: nonlazybind uwtable
define internal align 1 ptr @"_ZN9hashbrown11rustc_entry33RustcVacantEntry$LT$K$C$V$C$A$GT$6insert17hc79c62ac4aab83bdE"(ptr align 8 %self, i1 zeroext %value) unnamed_addr #0 {
start:
  %value.dbg.spill = alloca [1 x i8], align 1
  %bucket = alloca [8 x i8], align 8
  %0 = zext i1 %value to i8
  store i8 %0, ptr %value.dbg.spill, align 1
  %_9 = load ptr, ptr %self, align 8
  %1 = getelementptr inbounds i8, ptr %self, i64 8
  %_4 = load i64, ptr %1, align 8
  %2 = getelementptr inbounds i8, ptr %self, i64 16
  %_6 = load i64, ptr %2, align 8
  %3 = call ptr @"_ZN9hashbrown3raw21RawTable$LT$T$C$A$GT$14insert_no_grow17hd57cd14f8728064bE"(ptr align 8 %_9, i64 %_4, i64 %_6, i1 zeroext %value)
  store ptr %3, ptr %bucket, align 8
  %_7 = call align 8 ptr @"_ZN9hashbrown3raw15Bucket$LT$T$GT$6as_mut17h7e1a111771535742E"(ptr align 8 %bucket)
  %_0 = getelementptr inbounds i8, ptr %_7, i64 8
  ret ptr %_0
}

; Function Attrs: nonlazybind uwtable
define internal ptr @"_ZN9hashbrown3raw21RawTable$LT$T$C$A$GT$14insert_no_grow17hd57cd14f8728064bE"(ptr align 8 %self, i64 %hash, i64 %value.0, i1 zeroext %value.1) unnamed_addr #0 personality ptr @rust_eh_personality {
start:
  %old_ctrl.dbg.spill = alloca [1 x i8], align 1
  %index.dbg.spill = alloca [8 x i8], align 8
  %0 = alloca [16 x i8], align 8
  %value.dbg.spill = alloca [16 x i8], align 8
  %hash.dbg.spill = alloca [8 x i8], align 8
  %self.dbg.spill = alloca [8 x i8], align 8
  %_17 = alloca [1 x i8], align 1
  %bucket = alloca [8 x i8], align 8
  store ptr %self, ptr %self.dbg.spill, align 8
  store i64 %hash, ptr %hash.dbg.spill, align 8
  store i64 %value.0, ptr %value.dbg.spill, align 8
  %1 = getelementptr inbounds i8, ptr %value.dbg.spill, i64 8
  %2 = zext i1 %value.1 to i8
  store i8 %2, ptr %1, align 8
  store i8 0, ptr %_17, align 1
  store i8 1, ptr %_17, align 1
  %3 = invoke { i64, i8 } @_ZN9hashbrown3raw13RawTableInner19prepare_insert_slot17h482392ebd48553a1E(ptr align 8 %self, i64 %hash)
          to label %bb1 unwind label %cleanup

bb9:                                              ; preds = %cleanup
  %4 = load i8, ptr %_17, align 1
  %5 = trunc i8 %4 to i1
  br i1 %5, label %bb8, label %bb7

cleanup:                                          ; preds = %panic1, %panic, %bb4, %bb2, %bb1, %start
  %6 = landingpad { ptr, i32 }
          cleanup
  %7 = extractvalue { ptr, i32 } %6, 0
  %8 = extractvalue { ptr, i32 } %6, 1
  store ptr %7, ptr %0, align 8
  %9 = getelementptr inbounds i8, ptr %0, i64 8
  store i32 %8, ptr %9, align 8
  br label %bb9

bb1:                                              ; preds = %start
  %_6.0 = extractvalue { i64, i8 } %3, 0
  %_6.1 = extractvalue { i64, i8 } %3, 1
  store i64 %_6.0, ptr %index.dbg.spill, align 8
  store i8 %_6.1, ptr %old_ctrl.dbg.spill, align 1
  %10 = invoke ptr @_ZN9hashbrown3raw13RawTableInner6bucket17hbe1022908402eac7E(ptr align 8 %self, i64 %_6.0)
          to label %bb2 unwind label %cleanup

bb2:                                              ; preds = %bb1
  store ptr %10, ptr %bucket, align 8
  %_11 = invoke zeroext i1 @_ZN9hashbrown7control3tag3Tag16special_is_empty17h5dff97a9e50e06d7E(i8 %_6.1)
          to label %bb3 unwind label %cleanup

bb3:                                              ; preds = %bb2
  %_10 = zext i1 %_11 to i64
  %11 = getelementptr inbounds i8, ptr %self, i64 16
  %12 = load i64, ptr %11, align 8
  %_12.0 = sub i64 %12, %_10
  %_12.1 = icmp ult i64 %12, %_10
  br i1 %_12.1, label %panic, label %bb4

bb4:                                              ; preds = %bb3
  %13 = getelementptr inbounds i8, ptr %self, i64 16
  store i64 %_12.0, ptr %13, align 8
  store i8 0, ptr %_17, align 1
  invoke void @"_ZN9hashbrown3raw15Bucket$LT$T$GT$5write17hd8a10986d217603cE"(ptr align 8 %bucket, i64 %value.0, i1 zeroext %value.1)
          to label %bb5 unwind label %cleanup

panic:                                            ; preds = %bb3
  invoke void @_ZN4core9panicking11panic_const24panic_const_sub_overflow17h0ddd76be505a9ff6E(ptr align 8 @alloc_ae52e422ab29884b58622d79788975fe) #26
          to label %unreachable unwind label %cleanup

unreachable:                                      ; preds = %panic1, %panic
  unreachable

bb5:                                              ; preds = %bb4
  %14 = getelementptr inbounds i8, ptr %self, i64 24
  %15 = load i64, ptr %14, align 8
  %16 = call { i64, i1 } @llvm.uadd.with.overflow.i64(i64 %15, i64 1)
  %_16.0 = extractvalue { i64, i1 } %16, 0
  %_16.1 = extractvalue { i64, i1 } %16, 1
  br i1 %_16.1, label %panic1, label %bb6

bb6:                                              ; preds = %bb5
  %17 = getelementptr inbounds i8, ptr %self, i64 24
  store i64 %_16.0, ptr %17, align 8
  %_0 = load ptr, ptr %bucket, align 8
  ret ptr %_0

panic1:                                           ; preds = %bb5
  invoke void @_ZN4core9panicking11panic_const24panic_const_add_overflow17hba62940e649c8158E(ptr align 8 @alloc_ae52e422ab29884b58622d79788975fe) #26
          to label %unreachable unwind label %cleanup

bb7:                                              ; preds = %bb8, %bb9
  %18 = load ptr, ptr %0, align 8
  %19 = getelementptr inbounds i8, ptr %0, i64 8
  %20 = load i32, ptr %19, align 8
  %21 = insertvalue { ptr, i32 } poison, ptr %18, 0
  %22 = insertvalue { ptr, i32 } %21, i32 %20, 1
  resume { ptr, i32 } %22

bb8:                                              ; preds = %bb9
  br label %bb7
}

; Function Attrs: inlinehint nonlazybind uwtable
define internal align 8 ptr @"_ZN9hashbrown3raw15Bucket$LT$T$GT$6as_mut17h7e1a111771535742E"(ptr align 8 %self) unnamed_addr #1 {
start:
  %self.dbg.spill = alloca [8 x i8], align 8
  store ptr %self, ptr %self.dbg.spill, align 8
  %_2 = call ptr @"_ZN9hashbrown3raw15Bucket$LT$T$GT$6as_ptr17hf373a77b392a3f13E"(ptr align 8 %self)
  ret ptr %_2
}

; Function Attrs: inlinehint nonlazybind uwtable
define internal ptr @"_ZN9hashbrown3raw15Bucket$LT$T$GT$6as_ptr17hf373a77b392a3f13E"(ptr align 8 %self) unnamed_addr #1 {
start:
  %self.dbg.spill.i1 = alloca [8 x i8], align 8
  %count.dbg.spill.i = alloca [8 x i8], align 8
  %self.dbg.spill.i = alloca [8 x i8], align 8
  %_0.i = alloca [8 x i8], align 8
  %self.dbg.spill = alloca [8 x i8], align 8
  %_0 = alloca [8 x i8], align 8
  store ptr %self, ptr %self.dbg.spill, align 8
  br label %bb3

bb3:                                              ; preds = %start
  %_4 = load ptr, ptr %self, align 8
  store ptr %_4, ptr %self.dbg.spill.i1, align 8
  store ptr %_4, ptr %self.dbg.spill.i, align 8
  store i64 1, ptr %count.dbg.spill.i, align 8
  %_3.i = call zeroext i1 @_ZN4core9ub_checks17check_language_ub17h56b47dc4257f98b8E()
  br i1 %_3.i, label %bb2.i, label %"_ZN4core3ptr7mut_ptr31_$LT$impl$u20$$BP$mut$u20$T$GT$3sub17h93262ef3a5edd33aE.exit"

bb2.i:                                            ; preds = %bb3
  call void @"_ZN4core3ptr7mut_ptr31_$LT$impl$u20$$BP$mut$u20$T$GT$3sub18precondition_check17h7eb41f57f3729aedE"(ptr %_4, i64 1, i64 16) #28
  br label %"_ZN4core3ptr7mut_ptr31_$LT$impl$u20$$BP$mut$u20$T$GT$3sub17h93262ef3a5edd33aE.exit"

"_ZN4core3ptr7mut_ptr31_$LT$impl$u20$$BP$mut$u20$T$GT$3sub17h93262ef3a5edd33aE.exit": ; preds = %bb2.i, %bb3
  %0 = getelementptr inbounds { i64, i8, [7 x i8] }, ptr %_4, i64 -1
  store ptr %0, ptr %_0.i, align 8
  %1 = load ptr, ptr %_0.i, align 8
  store ptr %1, ptr %_0, align 8
  br label %bb5

bb5:                                              ; preds = %"_ZN4core3ptr7mut_ptr31_$LT$impl$u20$$BP$mut$u20$T$GT$3sub17h93262ef3a5edd33aE.exit"
  %2 = load ptr, ptr %_0, align 8
  ret ptr %2

bb1:                                              ; No predecessors!
  unreachable

bb2:                                              ; No predecessors!
  unreachable
}

; Function Attrs: inlinehint nonlazybind uwtable
define internal zeroext i1 @_ZN4core9ub_checks17check_language_ub17h56b47dc4257f98b8E() unnamed_addr #1 {
start:
  %_0 = alloca [1 x i8], align 1
  br label %bb1

bb1:                                              ; preds = %start
  %0 = call zeroext i1 @_ZN4core9ub_checks17check_language_ub7runtime17h7560ed8d3b29c580E()
  %1 = zext i1 %0 to i8
  store i8 %1, ptr %_0, align 1
  br label %bb3

bb3:                                              ; preds = %bb1
  %2 = load i8, ptr %_0, align 1
  %3 = trunc i8 %2 to i1
  ret i1 %3

bb2:                                              ; No predecessors!
  unreachable
}

; Function Attrs: inlinehint nounwind nonlazybind uwtable
define internal void @"_ZN4core3ptr7mut_ptr31_$LT$impl$u20$$BP$mut$u20$T$GT$3sub18precondition_check17h7eb41f57f3729aedE"(ptr %this, i64 %count, i64 %size) unnamed_addr #7 personality ptr @rust_eh_personality {
start:
  %size.dbg.spill = alloca [8 x i8], align 8
  %count.dbg.spill = alloca [8 x i8], align 8
  %this.dbg.spill = alloca [8 x i8], align 8
  store ptr %this, ptr %this.dbg.spill, align 8
  store i64 %count, ptr %count.dbg.spill, align 8
  store i64 %size, ptr %size.dbg.spill, align 8
  %_4 = invoke zeroext i1 @"_ZN4core3ptr7mut_ptr31_$LT$impl$u20$$BP$mut$u20$T$GT$3sub18runtime_sub_nowrap17ha15bfa137beae5d8E"(ptr %this, i64 %count, i64 %size)
          to label %bb1 unwind label %terminate

terminate:                                        ; preds = %start
  %0 = landingpad { ptr, i32 }
          filter [0 x ptr] zeroinitializer
  %1 = extractvalue { ptr, i32 } %0, 0
  %2 = extractvalue { ptr, i32 } %0, 1
  call void @_ZN4core9panicking19panic_cannot_unwind17hc0fec1ae87a1c3e5E() #27
  unreachable

bb1:                                              ; preds = %start
  br i1 %_4, label %bb2, label %bb3

bb3:                                              ; preds = %bb1
  call void @_ZN4core9panicking14panic_nounwind17h10cdad4c3e0e432eE(ptr align 1 @alloc_8c618ca0a1cc354c9d9eb03e6d3bedbb, i64 97) #29
  unreachable

bb2:                                              ; preds = %bb1
  ret void
}

; Function Attrs: inlinehint nonlazybind uwtable
define internal zeroext i1 @"_ZN4core3ptr7mut_ptr31_$LT$impl$u20$$BP$mut$u20$T$GT$3sub18runtime_sub_nowrap17ha15bfa137beae5d8E"(ptr %this, i64 %count, i64 %size) unnamed_addr #1 {
start:
  %size.dbg.spill = alloca [8 x i8], align 8
  %count.dbg.spill = alloca [8 x i8], align 8
  %this.dbg.spill = alloca [8 x i8], align 8
  %_4 = alloca [24 x i8], align 8
  store ptr %this, ptr %this.dbg.spill, align 8
  store i64 %count, ptr %count.dbg.spill, align 8
  store i64 %size, ptr %size.dbg.spill, align 8
  store ptr %this, ptr %_4, align 8
  %0 = getelementptr inbounds i8, ptr %_4, i64 8
  store i64 %count, ptr %0, align 8
  %1 = getelementptr inbounds i8, ptr %_4, i64 16
  store i64 %size, ptr %1, align 8
  %2 = load ptr, ptr %_4, align 8
  %3 = getelementptr inbounds i8, ptr %_4, i64 8
  %4 = load i64, ptr %3, align 8
  %5 = getelementptr inbounds i8, ptr %_4, i64 16
  %6 = load i64, ptr %5, align 8
  %_0 = call zeroext i1 @"_ZN4core3ptr7mut_ptr31_$LT$impl$u20$$BP$mut$u20$T$GT$3sub18runtime_sub_nowrap7runtime17h9d80d3077e5fd40aE"(ptr %2, i64 %4, i64 %6)
  ret i1 %_0
}

; Function Attrs: cold minsize noinline noreturn nounwind nonlazybind optsize uwtable
declare void @_ZN4core9panicking19panic_cannot_unwind17hc0fec1ae87a1c3e5E() unnamed_addr #5

; Function Attrs: cold noinline noreturn nounwind nonlazybind uwtable
declare void @_ZN4core9panicking14panic_nounwind17h10cdad4c3e0e432eE(ptr align 1, i64) unnamed_addr #8

; Function Attrs: inlinehint nonlazybind uwtable
define internal zeroext i1 @"_ZN4core3ptr7mut_ptr31_$LT$impl$u20$$BP$mut$u20$T$GT$3sub18runtime_sub_nowrap7runtime17h9d80d3077e5fd40aE"(ptr %this, i64 %count, i64 %size) unnamed_addr #1 {
start:
  %self.dbg.spill.i1 = alloca [8 x i8], align 8
  %self.dbg.spill.i = alloca [8 x i8], align 8
  %byte_offset.dbg.spill = alloca [8 x i8], align 8
  %size.dbg.spill = alloca [8 x i8], align 8
  %count.dbg.spill = alloca [8 x i8], align 8
  %this.dbg.spill = alloca [8 x i8], align 8
  %_5 = alloca [16 x i8], align 8
  %_0 = alloca [1 x i8], align 1
  store ptr %this, ptr %this.dbg.spill, align 8
  store i64 %count, ptr %count.dbg.spill, align 8
  store i64 %size, ptr %size.dbg.spill, align 8
  %0 = call { i64, i64 } @"_ZN4core3num23_$LT$impl$u20$usize$GT$11checked_mul17h5914abfa7764a031E"(i64 %count, i64 %size)
  %1 = extractvalue { i64, i64 } %0, 0
  %2 = extractvalue { i64, i64 } %0, 1
  store i64 %1, ptr %_5, align 8
  %3 = getelementptr inbounds i8, ptr %_5, i64 8
  store i64 %2, ptr %3, align 8
  %_6 = load i64, ptr %_5, align 8
  %4 = icmp eq i64 %_6, 1
  br i1 %4, label %bb2, label %bb3

bb2:                                              ; preds = %start
  %5 = getelementptr inbounds i8, ptr %_5, i64 8
  %byte_offset = load i64, ptr %5, align 8
  store i64 %byte_offset, ptr %byte_offset.dbg.spill, align 8
  %_7 = icmp ule i64 %byte_offset, 9223372036854775807
  br i1 %_7, label %bb4, label %bb5

bb3:                                              ; preds = %start
  store i8 0, ptr %_0, align 1
  br label %bb7

bb5:                                              ; preds = %bb2
  store i8 0, ptr %_0, align 1
  br label %bb7

bb4:                                              ; preds = %bb2
  store ptr %this, ptr %self.dbg.spill.i, align 8
  store ptr %this, ptr %self.dbg.spill.i1, align 8
  %_0.i = ptrtoint ptr %this to i64
  %6 = icmp uge i64 %_0.i, %byte_offset
  %7 = zext i1 %6 to i8
  store i8 %7, ptr %_0, align 1
  br label %bb7

bb7:                                              ; preds = %bb4, %bb5, %bb3
  %8 = load i8, ptr %_0, align 1
  %9 = trunc i8 %8 to i1
  ret i1 %9

bb8:                                              ; No predecessors!
  unreachable
}

; Function Attrs: inlinehint nonlazybind uwtable
define internal { i64, i64 } @"_ZN4core3num23_$LT$impl$u20$usize$GT$11checked_mul17h5914abfa7764a031E"(i64 %self, i64 %rhs) unnamed_addr #1 {
start:
  %b.dbg.spill.i1 = alloca [1 x i8], align 1
  %a.dbg.spill.i = alloca [8 x i8], align 8
  %rhs.dbg.spill.i = alloca [8 x i8], align 8
  %self.dbg.spill.i = alloca [8 x i8], align 8
  %b.dbg.spill.i = alloca [1 x i8], align 1
  %_0.i = alloca [1 x i8], align 1
  %b.dbg.spill = alloca [1 x i8], align 1
  %a.dbg.spill = alloca [8 x i8], align 8
  %rhs.dbg.spill = alloca [8 x i8], align 8
  %self.dbg.spill = alloca [8 x i8], align 8
  %_0 = alloca [16 x i8], align 8
  store i64 %self, ptr %self.dbg.spill, align 8
  store i64 %rhs, ptr %rhs.dbg.spill, align 8
  store i64 %self, ptr %self.dbg.spill.i, align 8
  store i64 %rhs, ptr %rhs.dbg.spill.i, align 8
  %0 = call { i64, i1 } @llvm.umul.with.overflow.i64(i64 %self, i64 %rhs)
  %_5.0.i = extractvalue { i64, i1 } %0, 0
  %_5.1.i = extractvalue { i64, i1 } %0, 1
  store i64 %_5.0.i, ptr %a.dbg.spill.i, align 8
  %1 = zext i1 %_5.1.i to i8
  store i8 %1, ptr %b.dbg.spill.i1, align 1
  %_5.0 = extractvalue { i64, i1 } %0, 0
  %_5.1 = extractvalue { i64, i1 } %0, 1
  store i64 %_5.0, ptr %a.dbg.spill, align 8
  %2 = zext i1 %_5.1 to i8
  store i8 %2, ptr %b.dbg.spill, align 1
  %3 = zext i1 %_5.1 to i8
  store i8 %3, ptr %b.dbg.spill.i, align 1
  br i1 %_5.1, label %bb1.i, label %bb3.i

bb3.i:                                            ; preds = %start
  store i8 0, ptr %_0.i, align 1
  br label %_ZN4core10intrinsics8unlikely17h3567347e0d5980c5E.exit

bb1.i:                                            ; preds = %start
  store i8 1, ptr %_0.i, align 1
  br label %_ZN4core10intrinsics8unlikely17h3567347e0d5980c5E.exit

_ZN4core10intrinsics8unlikely17h3567347e0d5980c5E.exit: ; preds = %bb1.i, %bb3.i
  %4 = load i8, ptr %_0.i, align 1
  %5 = trunc i8 %4 to i1
  br i1 %5, label %bb3, label %bb4

bb4:                                              ; preds = %_ZN4core10intrinsics8unlikely17h3567347e0d5980c5E.exit
  %6 = getelementptr inbounds i8, ptr %_0, i64 8
  store i64 %_5.0, ptr %6, align 8
  store i64 1, ptr %_0, align 8
  br label %bb5

bb3:                                              ; preds = %_ZN4core10intrinsics8unlikely17h3567347e0d5980c5E.exit
  store i64 0, ptr %_0, align 8
  br label %bb5

bb5:                                              ; preds = %bb3, %bb4
  %7 = load i64, ptr %_0, align 8
  %8 = getelementptr inbounds i8, ptr %_0, i64 8
  %9 = load i64, ptr %8, align 8
  %10 = insertvalue { i64, i64 } poison, i64 %7, 0
  %11 = insertvalue { i64, i64 } %10, i64 %9, 1
  ret { i64, i64 } %11
}

; Function Attrs: nocallback nofree nosync nounwind speculatable willreturn memory(none)
declare { i64, i1 } @llvm.umul.with.overflow.i64(i64, i64) #9

; Function Attrs: inlinehint nonlazybind uwtable
define internal zeroext i1 @_ZN4core9ub_checks17check_language_ub7runtime17h7560ed8d3b29c580E() unnamed_addr #1 {
start:
  ret i1 true
}

; Function Attrs: inlinehint nonlazybind uwtable
define internal { i64, i8 } @_ZN9hashbrown3raw13RawTableInner19prepare_insert_slot17h482392ebd48553a1E(ptr align 8 %self, i64 %hash) unnamed_addr #1 {
start:
  %old_ctrl.dbg.spill = alloca [1 x i8], align 1
  %index.dbg.spill = alloca [8 x i8], align 8
  %hash.dbg.spill = alloca [8 x i8], align 8
  %self.dbg.spill = alloca [8 x i8], align 8
  store ptr %self, ptr %self.dbg.spill, align 8
  store i64 %hash, ptr %hash.dbg.spill, align 8
  %_4 = call i64 @_ZN9hashbrown3raw13RawTableInner16find_insert_slot17hcbb7ae0208c421c9E(ptr align 8 %self, i64 %hash)
  store i64 %_4, ptr %index.dbg.spill, align 8
  %_7 = call ptr @_ZN9hashbrown3raw13RawTableInner4ctrl17h585d25dd34909a40E(ptr align 8 %self, i64 %_4)
  %old_ctrl = load i8, ptr %_7, align 1
  store i8 %old_ctrl, ptr %old_ctrl.dbg.spill, align 1
  call void @_ZN9hashbrown3raw13RawTableInner13set_ctrl_hash17hf0558b0c1ae4754fE(ptr align 8 %self, i64 %_4, i64 %hash)
  %0 = insertvalue { i64, i8 } poison, i64 %_4, 0
  %1 = insertvalue { i64, i8 } %0, i8 %old_ctrl, 1
  ret { i64, i8 } %1
}

; Function Attrs: inlinehint nonlazybind uwtable
define internal ptr @_ZN9hashbrown3raw13RawTableInner6bucket17hbe1022908402eac7E(ptr align 8 %self, i64 %index) unnamed_addr #1 {
start:
  %right_val.dbg.spill = alloca [8 x i8], align 8
  %left_val.dbg.spill = alloca [8 x i8], align 8
  %index.dbg.spill = alloca [8 x i8], align 8
  %self.dbg.spill = alloca [8 x i8], align 8
  %_13 = alloca [48 x i8], align 8
  %kind = alloca [1 x i8], align 1
  store ptr %self, ptr %self.dbg.spill, align 8
  store i64 %index, ptr %index.dbg.spill, align 8
  %_4 = getelementptr inbounds i8, ptr %self, i64 8
  store ptr %_4, ptr %left_val.dbg.spill, align 8
  store ptr @alloc_53973d2fe29b4adba8bb7390b5678745, ptr %right_val.dbg.spill, align 8
  %_9 = load i64, ptr %_4, align 8
  %_10 = load i64, ptr @alloc_53973d2fe29b4adba8bb7390b5678745, align 8
  %_8 = icmp eq i64 %_9, %_10
  br i1 %_8, label %bb1, label %bb2

bb2:                                              ; preds = %start
  %_15 = call i64 @_ZN9hashbrown3raw13RawTableInner7buckets17he63fafe128af926bE(ptr align 8 %self)
  %_14 = icmp ult i64 %index, %_15
  br i1 %_14, label %bb5, label %bb4

bb1:                                              ; preds = %start
  store i8 1, ptr %kind, align 1
  store ptr null, ptr %_13, align 8
  %0 = load i8, ptr %kind, align 1
  call void @_ZN4core9panicking13assert_failed17h01cb8cfa4e7bf911E(i8 %0, ptr align 8 %_4, ptr align 8 @alloc_53973d2fe29b4adba8bb7390b5678745, ptr align 8 %_13, ptr align 8 @alloc_ae52e422ab29884b58622d79788975fe) #26
  unreachable

bb4:                                              ; preds = %bb2
  call void @_ZN4core9panicking5panic17hb6d80a9b62c0d1bdE(ptr align 1 @alloc_c3b6d53dd9bd1510e9a26e6e4f3d162a, i64 40, ptr align 8 @alloc_ae52e422ab29884b58622d79788975fe) #26
  unreachable

bb5:                                              ; preds = %bb2
  %_17 = call ptr @_ZN9hashbrown3raw13RawTableInner8data_end17h7cfdda7f909304d5E(ptr align 8 %self)
  %_0 = call ptr @"_ZN9hashbrown3raw15Bucket$LT$T$GT$15from_base_index17hc92ad107862aa671E"(ptr %_17, i64 %index)
  ret ptr %_0
}

; Function Attrs: inlinehint nonlazybind uwtable
define internal zeroext i1 @_ZN9hashbrown7control3tag3Tag16special_is_empty17h5dff97a9e50e06d7E(i8 %self) unnamed_addr #1 {
start:
  %self.dbg.spill = alloca [1 x i8], align 1
  store i8 %self, ptr %self.dbg.spill, align 1
  %_2 = call zeroext i1 @_ZN9hashbrown7control3tag3Tag10is_special17h1c5af064ab0c62ccE(i8 %self)
  br i1 %_2, label %bb3, label %bb2

bb2:                                              ; preds = %start
  call void @_ZN4core9panicking5panic17hb6d80a9b62c0d1bdE(ptr align 1 @alloc_415d34d1a55ce06d02b8d5c94fa2ff39, i64 35, ptr align 8 @alloc_ae52e422ab29884b58622d79788975fe) #26
  unreachable

bb3:                                              ; preds = %start
  %_4 = and i8 %self, 1
  %_0 = icmp ne i8 %_4, 0
  ret i1 %_0
}

; Function Attrs: inlinehint nonlazybind uwtable
define internal void @"_ZN9hashbrown3raw15Bucket$LT$T$GT$5write17hd8a10986d217603cE"(ptr align 8 %self, i64 %val.0, i1 zeroext %val.1) unnamed_addr #1 personality ptr @rust_eh_personality {
start:
  %val.dbg.spill.i = alloca [16 x i8], align 8
  %self.dbg.spill.i = alloca [8 x i8], align 8
  %0 = alloca [16 x i8], align 8
  %val.dbg.spill = alloca [16 x i8], align 8
  %self.dbg.spill = alloca [8 x i8], align 8
  %_6 = alloca [1 x i8], align 1
  store ptr %self, ptr %self.dbg.spill, align 8
  store i64 %val.0, ptr %val.dbg.spill, align 8
  %1 = getelementptr inbounds i8, ptr %val.dbg.spill, i64 8
  %2 = zext i1 %val.1 to i8
  store i8 %2, ptr %1, align 8
  store i8 0, ptr %_6, align 1
  store i8 1, ptr %_6, align 1
  %_4 = invoke ptr @"_ZN9hashbrown3raw15Bucket$LT$T$GT$6as_ptr17hf373a77b392a3f13E"(ptr align 8 %self)
          to label %bb1 unwind label %cleanup

bb5:                                              ; preds = %cleanup
  %3 = load i8, ptr %_6, align 1
  %4 = trunc i8 %3 to i1
  br i1 %4, label %bb4, label %bb3

cleanup:                                          ; preds = %bb1, %start
  %5 = landingpad { ptr, i32 }
          cleanup
  %6 = extractvalue { ptr, i32 } %5, 0
  %7 = extractvalue { ptr, i32 } %5, 1
  store ptr %6, ptr %0, align 8
  %8 = getelementptr inbounds i8, ptr %0, i64 8
  store i32 %7, ptr %8, align 8
  br label %bb5

bb1:                                              ; preds = %start
  store i8 0, ptr %_6, align 1
  store ptr %_4, ptr %self.dbg.spill.i, align 8
  store i64 %val.0, ptr %val.dbg.spill.i, align 8
  %9 = getelementptr inbounds i8, ptr %val.dbg.spill.i, i64 8
  %10 = zext i1 %val.1 to i8
  store i8 %10, ptr %9, align 8
  invoke void @_ZN4core3ptr5write17he6309c7938b63547E(ptr %_4, i64 %val.0, i1 zeroext %val.1)
          to label %"_ZN4core3ptr7mut_ptr31_$LT$impl$u20$$BP$mut$u20$T$GT$5write17h1a2c13bfcea27b84E.exit" unwind label %cleanup

"_ZN4core3ptr7mut_ptr31_$LT$impl$u20$$BP$mut$u20$T$GT$5write17h1a2c13bfcea27b84E.exit": ; preds = %bb1
  br label %bb2

bb2:                                              ; preds = %"_ZN4core3ptr7mut_ptr31_$LT$impl$u20$$BP$mut$u20$T$GT$5write17h1a2c13bfcea27b84E.exit"
  ret void

bb3:                                              ; preds = %bb4, %bb5
  %11 = load ptr, ptr %0, align 8
  %12 = getelementptr inbounds i8, ptr %0, i64 8
  %13 = load i32, ptr %12, align 8
  %14 = insertvalue { ptr, i32 } poison, ptr %11, 0
  %15 = insertvalue { ptr, i32 } %14, i32 %13, 1
  resume { ptr, i32 } %15

bb4:                                              ; preds = %bb5
  br label %bb3
}

; Function Attrs: cold noinline noreturn nonlazybind uwtable
declare void @_ZN4core9panicking11panic_const24panic_const_sub_overflow17h0ddd76be505a9ff6E(ptr align 8) unnamed_addr #4

; Function Attrs: nocallback nofree nosync nounwind speculatable willreturn memory(none)
declare { i64, i1 } @llvm.uadd.with.overflow.i64(i64, i64) #9

; Function Attrs: cold noinline noreturn nonlazybind uwtable
declare void @_ZN4core9panicking11panic_const24panic_const_add_overflow17hba62940e649c8158E(ptr align 8) unnamed_addr #4

; Function Attrs: inlinehint nonlazybind uwtable
define internal void @_ZN4core3ptr5write17he6309c7938b63547E(ptr %dst, i64 %src.0, i1 zeroext %src.1) unnamed_addr #1 personality ptr @rust_eh_personality {
start:
  %0 = alloca [16 x i8], align 8
  %src.dbg.spill = alloca [16 x i8], align 8
  %dst.dbg.spill = alloca [8 x i8], align 8
  %_8 = alloca [1 x i8], align 1
  store ptr %dst, ptr %dst.dbg.spill, align 8
  store i64 %src.0, ptr %src.dbg.spill, align 8
  %1 = getelementptr inbounds i8, ptr %src.dbg.spill, i64 8
  %2 = zext i1 %src.1 to i8
  store i8 %2, ptr %1, align 8
  store i8 0, ptr %_8, align 1
  store i8 1, ptr %_8, align 1
  %_3 = invoke zeroext i1 @_ZN4core9ub_checks17check_language_ub17h56b47dc4257f98b8E()
          to label %bb1 unwind label %cleanup

bb7:                                              ; preds = %cleanup
  %3 = load i8, ptr %_8, align 1
  %4 = trunc i8 %3 to i1
  br i1 %4, label %bb6, label %bb5

cleanup:                                          ; preds = %start
  %5 = landingpad { ptr, i32 }
          cleanup
  %6 = extractvalue { ptr, i32 } %5, 0
  %7 = extractvalue { ptr, i32 } %5, 1
  store ptr %6, ptr %0, align 8
  %8 = getelementptr inbounds i8, ptr %0, i64 8
  store i32 %7, ptr %8, align 8
  br label %bb7

bb1:                                              ; preds = %start
  br i1 %_3, label %bb2, label %bb4

bb4:                                              ; preds = %bb3, %bb1
  store i8 0, ptr %_8, align 1
  store i64 %src.0, ptr %dst, align 8
  %9 = getelementptr inbounds i8, ptr %dst, i64 8
  %10 = zext i1 %src.1 to i8
  store i8 %10, ptr %9, align 8
  ret void

bb2:                                              ; preds = %bb1
  br label %bb3

bb3:                                              ; preds = %bb2
  call void @_ZN4core3ptr5write18precondition_check17h083fa78cd0e356cdE(ptr %dst, i64 8, i1 zeroext false) #28
  br label %bb4

bb5:                                              ; preds = %bb6, %bb7
  %11 = load ptr, ptr %0, align 8
  %12 = getelementptr inbounds i8, ptr %0, i64 8
  %13 = load i32, ptr %12, align 8
  %14 = insertvalue { ptr, i32 } poison, ptr %11, 0
  %15 = insertvalue { ptr, i32 } %14, i32 %13, 1
  resume { ptr, i32 } %15

bb6:                                              ; preds = %bb7
  br label %bb5
}

; Function Attrs: inlinehint nounwind nonlazybind uwtable
define internal void @_ZN4core3ptr5write18precondition_check17h083fa78cd0e356cdE(ptr %addr, i64 %align, i1 zeroext %is_zst) unnamed_addr #7 personality ptr @rust_eh_personality {
start:
  %is_zst.dbg.spill = alloca [1 x i8], align 1
  %align.dbg.spill = alloca [8 x i8], align 8
  %addr.dbg.spill = alloca [8 x i8], align 8
  store ptr %addr, ptr %addr.dbg.spill, align 8
  store i64 %align, ptr %align.dbg.spill, align 8
  %0 = zext i1 %is_zst to i8
  store i8 %0, ptr %is_zst.dbg.spill, align 1
  %_4 = invoke zeroext i1 @_ZN4core9ub_checks29maybe_is_aligned_and_not_null17hcb5bf2f3615a0738E(ptr %addr, i64 %align, i1 zeroext %is_zst)
          to label %bb1 unwind label %terminate

terminate:                                        ; preds = %start
  %1 = landingpad { ptr, i32 }
          filter [0 x ptr] zeroinitializer
  %2 = extractvalue { ptr, i32 } %1, 0
  %3 = extractvalue { ptr, i32 } %1, 1
  call void @_ZN4core9panicking19panic_cannot_unwind17hc0fec1ae87a1c3e5E() #27
  unreachable

bb1:                                              ; preds = %start
  br i1 %_4, label %bb2, label %bb3

bb3:                                              ; preds = %bb1
  call void @_ZN4core9panicking14panic_nounwind17h10cdad4c3e0e432eE(ptr align 1 @alloc_b7474065d782af00c4610bb4ef55210b, i64 102) #29
  unreachable

bb2:                                              ; preds = %bb1
  ret void
}

; Function Attrs: inlinehint nonlazybind uwtable
define internal zeroext i1 @_ZN4core9ub_checks29maybe_is_aligned_and_not_null17hcb5bf2f3615a0738E(ptr %ptr, i64 %align, i1 zeroext %is_zst) unnamed_addr #1 {
start:
  %is_zst.dbg.spill = alloca [1 x i8], align 1
  %align.dbg.spill = alloca [8 x i8], align 8
  %ptr.dbg.spill = alloca [8 x i8], align 8
  %_4 = alloca [24 x i8], align 8
  store ptr %ptr, ptr %ptr.dbg.spill, align 8
  store i64 %align, ptr %align.dbg.spill, align 8
  %0 = zext i1 %is_zst to i8
  store i8 %0, ptr %is_zst.dbg.spill, align 1
  store ptr %ptr, ptr %_4, align 8
  %1 = getelementptr inbounds i8, ptr %_4, i64 8
  store i64 %align, ptr %1, align 8
  %2 = getelementptr inbounds i8, ptr %_4, i64 16
  %3 = zext i1 %is_zst to i8
  store i8 %3, ptr %2, align 8
  %4 = load ptr, ptr %_4, align 8
  %5 = getelementptr inbounds i8, ptr %_4, i64 8
  %6 = load i64, ptr %5, align 8
  %7 = getelementptr inbounds i8, ptr %_4, i64 16
  %8 = load i8, ptr %7, align 8
  %9 = trunc i8 %8 to i1
  %_0 = call zeroext i1 @_ZN4core9ub_checks29maybe_is_aligned_and_not_null7runtime17hd57bc27a41d1e1ecE(ptr %4, i64 %6, i1 zeroext %9)
  ret i1 %_0
}

; Function Attrs: inlinehint nonlazybind uwtable
define internal zeroext i1 @_ZN4core9ub_checks29maybe_is_aligned_and_not_null7runtime17hd57bc27a41d1e1ecE(ptr %ptr, i64 %align, i1 zeroext %is_zst) unnamed_addr #1 {
start:
  %is_zst.dbg.spill = alloca [1 x i8], align 1
  %align.dbg.spill = alloca [8 x i8], align 8
  %ptr.dbg.spill = alloca [8 x i8], align 8
  %_0 = alloca [1 x i8], align 1
  store ptr %ptr, ptr %ptr.dbg.spill, align 8
  store i64 %align, ptr %align.dbg.spill, align 8
  %0 = zext i1 %is_zst to i8
  store i8 %0, ptr %is_zst.dbg.spill, align 1
  %_4 = call zeroext i1 @"_ZN4core3ptr9const_ptr33_$LT$impl$u20$$BP$const$u20$T$GT$13is_aligned_to17hff9678ba9551f4d5E"(ptr %ptr, i64 %align)
  br i1 %_4, label %bb2, label %bb3

bb3:                                              ; preds = %start
  store i8 0, ptr %_0, align 1
  br label %bb7

bb2:                                              ; preds = %start
  br i1 %is_zst, label %bb4, label %bb5

bb7:                                              ; preds = %bb4, %bb5, %bb3
  %1 = load i8, ptr %_0, align 1
  %2 = trunc i8 %1 to i1
  ret i1 %2

bb5:                                              ; preds = %bb2
  %_5 = call zeroext i1 @"_ZN4core3ptr9const_ptr33_$LT$impl$u20$$BP$const$u20$T$GT$7is_null17h3ab1e85f72b7d125E"(ptr %ptr)
  %3 = xor i1 %_5, true
  %4 = zext i1 %3 to i8
  store i8 %4, ptr %_0, align 1
  br label %bb7

bb4:                                              ; preds = %bb2
  store i8 1, ptr %_0, align 1
  br label %bb7
}

; Function Attrs: inlinehint nonlazybind uwtable
declare zeroext i1 @"_ZN4core3ptr9const_ptr33_$LT$impl$u20$$BP$const$u20$T$GT$13is_aligned_to17hff9678ba9551f4d5E"(ptr, i64) unnamed_addr #1

; Function Attrs: inlinehint nonlazybind uwtable
declare zeroext i1 @"_ZN4core3ptr9const_ptr33_$LT$impl$u20$$BP$const$u20$T$GT$7is_null17h3ab1e85f72b7d125E"(ptr) unnamed_addr #1

; Function Attrs: inlinehint nonlazybind uwtable
define internal zeroext i1 @_ZN9hashbrown7control3tag3Tag10is_special17h1c5af064ab0c62ccE(i8 %self) unnamed_addr #1 {
start:
  %self.dbg.spill = alloca [1 x i8], align 1
  store i8 %self, ptr %self.dbg.spill, align 1
  %_2 = and i8 %self, -128
  %_0 = icmp ne i8 %_2, 0
  ret i1 %_0
}

; Function Attrs: cold noinline noreturn nonlazybind uwtable
declare void @_ZN4core9panicking5panic17hb6d80a9b62c0d1bdE(ptr align 1, i64, ptr align 8) unnamed_addr #4

; Function Attrs: inlinehint nonlazybind uwtable
define internal i64 @_ZN9hashbrown3raw13RawTableInner7buckets17he63fafe128af926bE(ptr align 8 %self) unnamed_addr #1 {
start:
  %self.dbg.spill = alloca [8 x i8], align 8
  store ptr %self, ptr %self.dbg.spill, align 8
  %0 = getelementptr inbounds i8, ptr %self, i64 8
  %_2 = load i64, ptr %0, align 8
  %1 = call { i64, i1 } @llvm.uadd.with.overflow.i64(i64 %_2, i64 1)
  %_3.0 = extractvalue { i64, i1 } %1, 0
  %_3.1 = extractvalue { i64, i1 } %1, 1
  br i1 %_3.1, label %panic, label %bb1

bb1:                                              ; preds = %start
  ret i64 %_3.0

panic:                                            ; preds = %start
  call void @_ZN4core9panicking11panic_const24panic_const_add_overflow17hba62940e649c8158E(ptr align 8 @alloc_ae52e422ab29884b58622d79788975fe) #26
  unreachable
}

; Function Attrs: cold minsize noinline noreturn nonlazybind optsize uwtable
declare void @_ZN4core9panicking13assert_failed17h01cb8cfa4e7bf911E(i8, ptr align 8, ptr align 8, ptr align 8, ptr align 8) unnamed_addr #10

; Function Attrs: inlinehint nonlazybind uwtable
define internal ptr @_ZN9hashbrown3raw13RawTableInner8data_end17h7cfdda7f909304d5E(ptr align 8 %self) unnamed_addr #1 {
start:
  %self.dbg.spill = alloca [8 x i8], align 8
  store ptr %self, ptr %self.dbg.spill, align 8
  %_2 = load ptr, ptr %self, align 8
  %_0 = call ptr @"_ZN4core3ptr8non_null16NonNull$LT$T$GT$4cast17he3985412a8ad9acdE"(ptr %_2)
  ret ptr %_0
}

; Function Attrs: inlinehint nonlazybind uwtable
define internal ptr @"_ZN9hashbrown3raw15Bucket$LT$T$GT$15from_base_index17hc92ad107862aa671E"(ptr %base, i64 %index) unnamed_addr #1 {
start:
  %self.dbg.spill.i1 = alloca [8 x i8], align 8
  %count.dbg.spill.i = alloca [8 x i8], align 8
  %self.dbg.spill.i = alloca [8 x i8], align 8
  %_0.i = alloca [8 x i8], align 8
  %index.dbg.spill = alloca [8 x i8], align 8
  %base.dbg.spill = alloca [8 x i8], align 8
  %ptr = alloca [8 x i8], align 8
  store ptr %base, ptr %base.dbg.spill, align 8
  store i64 %index, ptr %index.dbg.spill, align 8
  br label %bb3

bb3:                                              ; preds = %start
  store ptr %base, ptr %self.dbg.spill.i1, align 8
  store ptr %base, ptr %self.dbg.spill.i, align 8
  store i64 %index, ptr %count.dbg.spill.i, align 8
  %_3.i = call zeroext i1 @_ZN4core9ub_checks17check_language_ub17h56b47dc4257f98b8E()
  br i1 %_3.i, label %bb2.i, label %"_ZN4core3ptr7mut_ptr31_$LT$impl$u20$$BP$mut$u20$T$GT$3sub17h93262ef3a5edd33aE.exit"

bb2.i:                                            ; preds = %bb3
  call void @"_ZN4core3ptr7mut_ptr31_$LT$impl$u20$$BP$mut$u20$T$GT$3sub18precondition_check17h7eb41f57f3729aedE"(ptr %base, i64 %index, i64 16) #28
  br label %"_ZN4core3ptr7mut_ptr31_$LT$impl$u20$$BP$mut$u20$T$GT$3sub17h93262ef3a5edd33aE.exit"

"_ZN4core3ptr7mut_ptr31_$LT$impl$u20$$BP$mut$u20$T$GT$3sub17h93262ef3a5edd33aE.exit": ; preds = %bb2.i, %bb3
  %_7.i = sub nsw i64 0, %index
  %0 = getelementptr inbounds { i64, i8, [7 x i8] }, ptr %base, i64 %_7.i
  store ptr %0, ptr %_0.i, align 8
  %1 = load ptr, ptr %_0.i, align 8
  store ptr %1, ptr %ptr, align 8
  br label %bb5

bb5:                                              ; preds = %"_ZN4core3ptr7mut_ptr31_$LT$impl$u20$$BP$mut$u20$T$GT$3sub17h93262ef3a5edd33aE.exit"
  %_8 = load ptr, ptr %ptr, align 8
  %_7 = call ptr @"_ZN4core3ptr8non_null16NonNull$LT$T$GT$13new_unchecked17h284c0ef912029a3cE"(ptr %_8)
  ret ptr %_7

bb1:                                              ; No predecessors!
  unreachable

bb2:                                              ; No predecessors!
  unreachable
}

; Function Attrs: inlinehint nonlazybind uwtable
define internal ptr @"_ZN4core3ptr8non_null16NonNull$LT$T$GT$13new_unchecked17h284c0ef912029a3cE"(ptr %ptr) unnamed_addr #1 {
start:
  %ptr.dbg.spill = alloca [8 x i8], align 8
  store ptr %ptr, ptr %ptr.dbg.spill, align 8
  %_2 = call zeroext i1 @_ZN4core9ub_checks17check_language_ub17h56b47dc4257f98b8E()
  br i1 %_2, label %bb2, label %bb3

bb3:                                              ; preds = %bb2, %start
  ret ptr %ptr

bb2:                                              ; preds = %start
  call void @"_ZN4core3ptr8non_null16NonNull$LT$T$GT$13new_unchecked18precondition_check17h3994b1c227a026cbE"(ptr %ptr) #28
  br label %bb3
}

; Function Attrs: inlinehint nounwind nonlazybind uwtable
define internal void @"_ZN4core3ptr8non_null16NonNull$LT$T$GT$13new_unchecked18precondition_check17h3994b1c227a026cbE"(ptr %ptr) unnamed_addr #7 personality ptr @rust_eh_personality {
start:
  %ptr.dbg.spill = alloca [8 x i8], align 8
  store ptr %ptr, ptr %ptr.dbg.spill, align 8
  %_2 = invoke zeroext i1 @"_ZN4core3ptr7mut_ptr31_$LT$impl$u20$$BP$mut$u20$T$GT$7is_null17hadf8854f2ab78013E"(ptr %ptr)
          to label %bb1 unwind label %terminate

terminate:                                        ; preds = %start
  %0 = landingpad { ptr, i32 }
          filter [0 x ptr] zeroinitializer
  %1 = extractvalue { ptr, i32 } %0, 0
  %2 = extractvalue { ptr, i32 } %0, 1
  call void @_ZN4core9panicking19panic_cannot_unwind17hc0fec1ae87a1c3e5E() #27
  unreachable

bb1:                                              ; preds = %start
  br i1 %_2, label %bb2, label %bb3

bb3:                                              ; preds = %bb1
  ret void

bb2:                                              ; preds = %bb1
  call void @_ZN4core9panicking14panic_nounwind17h10cdad4c3e0e432eE(ptr align 1 @alloc_20b3d155afd5c58c42e598b7e6d186ef, i64 93) #29
  unreachable
}

; Function Attrs: inlinehint nonlazybind uwtable
declare zeroext i1 @"_ZN4core3ptr7mut_ptr31_$LT$impl$u20$$BP$mut$u20$T$GT$7is_null17hadf8854f2ab78013E"(ptr) unnamed_addr #1

; Function Attrs: inlinehint nonlazybind uwtable
define internal ptr @"_ZN4core3ptr8non_null16NonNull$LT$T$GT$4cast17he3985412a8ad9acdE"(ptr %self) unnamed_addr #1 {
start:
  %self.dbg.spill.i = alloca [8 x i8], align 8
  %self.dbg.spill = alloca [8 x i8], align 8
  store ptr %self, ptr %self.dbg.spill, align 8
  store ptr %self, ptr %self.dbg.spill.i, align 8
  ret ptr %self
}

; Function Attrs: inlinehint nonlazybind uwtable
define internal i64 @_ZN9hashbrown3raw13RawTableInner16find_insert_slot17hcbb7ae0208c421c9E(ptr align 8 %self, i64 %hash) unnamed_addr #1 {
start:
  %b.dbg.spill.i = alloca [1 x i8], align 1
  %_0.i = alloca [1 x i8], align 1
  %hash.dbg.spill = alloca [8 x i8], align 8
  %self.dbg.spill = alloca [8 x i8], align 8
  %index = alloca [16 x i8], align 8
  %group = alloca [16 x i8], align 16
  %probe_seq = alloca [16 x i8], align 8
  store ptr %self, ptr %self.dbg.spill, align 8
  store i64 %hash, ptr %hash.dbg.spill, align 8
  %0 = call { i64, i64 } @_ZN9hashbrown3raw13RawTableInner9probe_seq17h9d6ee3215ec77b10E(ptr align 8 %self, i64 %hash)
  %1 = extractvalue { i64, i64 } %0, 0
  %2 = extractvalue { i64, i64 } %0, 1
  store i64 %1, ptr %probe_seq, align 8
  %3 = getelementptr inbounds i8, ptr %probe_seq, i64 8
  store i64 %2, ptr %3, align 8
  br label %bb1

bb1:                                              ; preds = %bb10, %start
  %_7 = load i64, ptr %probe_seq, align 8
  %_6 = call ptr @_ZN9hashbrown3raw13RawTableInner4ctrl17h585d25dd34909a40E(ptr align 8 %self, i64 %_7)
  call void @_ZN9hashbrown7control5group4sse25Group4load17h04088af999874073E(ptr sret([16 x i8]) align 16 %group, ptr %_6)
  %4 = call { i64, i64 } @_ZN9hashbrown3raw13RawTableInner25find_insert_slot_in_group17h43acc9f3d57242c7E(ptr align 8 %self, ptr align 16 %group, ptr align 8 %probe_seq)
  %5 = extractvalue { i64, i64 } %4, 0
  %6 = extractvalue { i64, i64 } %4, 1
  store i64 %5, ptr %index, align 8
  %7 = getelementptr inbounds i8, ptr %index, i64 8
  store i64 %6, ptr %7, align 8
  %_12 = call zeroext i1 @"_ZN4core6option15Option$LT$T$GT$7is_some17h97d71098b8aa7812E"(ptr align 8 %index)
  %8 = zext i1 %_12 to i8
  store i8 %8, ptr %b.dbg.spill.i, align 1
  br i1 %_12, label %bb1.i, label %bb2.i

bb2.i:                                            ; preds = %bb1
  store i8 0, ptr %_0.i, align 1
  br label %_ZN4core10intrinsics6likely17h41b033fa4327c645E.exit

bb1.i:                                            ; preds = %bb1
  store i8 1, ptr %_0.i, align 1
  br label %_ZN4core10intrinsics6likely17h41b033fa4327c645E.exit

_ZN4core10intrinsics6likely17h41b033fa4327c645E.exit: ; preds = %bb1.i, %bb2.i
  %9 = load i8, ptr %_0.i, align 1
  %10 = trunc i8 %9 to i1
  br i1 %10, label %bb7, label %bb10

bb10:                                             ; preds = %_ZN4core10intrinsics6likely17h41b033fa4327c645E.exit
  %11 = getelementptr inbounds i8, ptr %self, i64 8
  %_17 = load i64, ptr %11, align 8
  call void @_ZN9hashbrown3raw8ProbeSeq9move_next17h9f47dbaf4f1f8c6bE(ptr align 8 %probe_seq, i64 %_17)
  br label %bb1

bb7:                                              ; preds = %_ZN4core10intrinsics6likely17h41b033fa4327c645E.exit
  %12 = load i64, ptr %index, align 8
  %13 = getelementptr inbounds i8, ptr %index, i64 8
  %14 = load i64, ptr %13, align 8
  %_14 = call i64 @"_ZN4core6option15Option$LT$T$GT$16unwrap_unchecked17hebe11605c3c8ba83E"(i64 %12, i64 %14, ptr align 8 @alloc_ae52e422ab29884b58622d79788975fe)
  %_0 = call i64 @_ZN9hashbrown3raw13RawTableInner15fix_insert_slot17h5904f371611f6536E(ptr align 8 %self, i64 %_14)
  ret i64 %_0
}

; Function Attrs: inlinehint nonlazybind uwtable
define internal ptr @_ZN9hashbrown3raw13RawTableInner4ctrl17h585d25dd34909a40E(ptr align 8 %self, i64 %index) unnamed_addr #1 {
start:
  %self.dbg.spill.i2 = alloca [8 x i8], align 8
  %self.dbg.spill.i1 = alloca [8 x i8], align 8
  %count.dbg.spill.i = alloca [8 x i8], align 8
  %self.dbg.spill.i = alloca [8 x i8], align 8
  %index.dbg.spill = alloca [8 x i8], align 8
  %self.dbg.spill = alloca [8 x i8], align 8
  store ptr %self, ptr %self.dbg.spill, align 8
  store i64 %index, ptr %index.dbg.spill, align 8
  %_4 = call i64 @_ZN9hashbrown3raw13RawTableInner14num_ctrl_bytes17h85390760f475deaaE(ptr align 8 %self)
  %_3 = icmp ult i64 %index, %_4
  br i1 %_3, label %bb3, label %bb2

bb2:                                              ; preds = %start
  call void @_ZN4core9panicking5panic17hb6d80a9b62c0d1bdE(ptr align 1 @alloc_d4ba273af71dec0b6121025ad15b0934, i64 47, ptr align 8 @alloc_ae52e422ab29884b58622d79788975fe) #26
  unreachable

bb3:                                              ; preds = %start
  %_8 = load ptr, ptr %self, align 8
  store ptr %_8, ptr %self.dbg.spill.i2, align 8
  store ptr %_8, ptr %self.dbg.spill.i, align 8
  store i64 %index, ptr %count.dbg.spill.i, align 8
  %_3.i = call zeroext i1 @_ZN4core9ub_checks17check_language_ub17h56b47dc4257f98b8E()
  br i1 %_3.i, label %bb2.i, label %"_ZN4core3ptr7mut_ptr31_$LT$impl$u20$$BP$mut$u20$T$GT$3add17h1dc018998dd90948E.exit"

bb2.i:                                            ; preds = %bb3
  call void @"_ZN4core3ptr7mut_ptr31_$LT$impl$u20$$BP$mut$u20$T$GT$3add18precondition_check17hbb47fbd20d650b93E"(ptr %_8, i64 %index, i64 1) #28
  br label %"_ZN4core3ptr7mut_ptr31_$LT$impl$u20$$BP$mut$u20$T$GT$3add17h1dc018998dd90948E.exit"

"_ZN4core3ptr7mut_ptr31_$LT$impl$u20$$BP$mut$u20$T$GT$3add17h1dc018998dd90948E.exit": ; preds = %bb2.i, %bb3
  %_0.i = getelementptr inbounds i8, ptr %_8, i64 %index
  store ptr %_0.i, ptr %self.dbg.spill.i1, align 8
  ret ptr %_0.i
}

; Function Attrs: inlinehint nonlazybind uwtable
define internal void @_ZN9hashbrown3raw13RawTableInner13set_ctrl_hash17hf0558b0c1ae4754fE(ptr align 8 %self, i64 %index, i64 %hash) unnamed_addr #1 {
start:
  %hash.dbg.spill = alloca [8 x i8], align 8
  %index.dbg.spill = alloca [8 x i8], align 8
  %self.dbg.spill = alloca [8 x i8], align 8
  store ptr %self, ptr %self.dbg.spill, align 8
  store i64 %index, ptr %index.dbg.spill, align 8
  store i64 %hash, ptr %hash.dbg.spill, align 8
  %_5 = call i8 @_ZN9hashbrown7control3tag3Tag4full17hf66d34f140a178a2E(i64 %hash)
  call void @_ZN9hashbrown3raw13RawTableInner8set_ctrl17h0ddf8c10fd7fbd33E(ptr align 8 %self, i64 %index, i8 %_5)
  ret void
}

; Function Attrs: inlinehint nonlazybind uwtable
define internal i8 @_ZN9hashbrown7control3tag3Tag4full17hf66d34f140a178a2E(i64 %hash) unnamed_addr #1 {
start:
  %top7.dbg.spill = alloca [8 x i8], align 8
  %hash.dbg.spill = alloca [8 x i8], align 8
  store i64 %hash, ptr %hash.dbg.spill, align 8
  %0 = call { i64, i1 } @llvm.umul.with.overflow.i64(i64 8, i64 8)
  %_5.0 = extractvalue { i64, i1 } %0, 0
  %_5.1 = extractvalue { i64, i1 } %0, 1
  br i1 %_5.1, label %panic, label %bb1

bb1:                                              ; preds = %start
  %_6.0 = sub i64 %_5.0, 7
  %_6.1 = icmp ult i64 %_5.0, 7
  br i1 %_6.1, label %panic1, label %bb2

panic:                                            ; preds = %start
  call void @_ZN4core9panicking11panic_const24panic_const_mul_overflow17hf80c16d5d3adcc95E(ptr align 8 @alloc_ae52e422ab29884b58622d79788975fe) #26
  unreachable

bb2:                                              ; preds = %bb1
  %_7 = icmp ult i64 %_6.0, 64
  br i1 %_7, label %bb3, label %panic2

panic1:                                           ; preds = %bb1
  call void @_ZN4core9panicking11panic_const24panic_const_sub_overflow17h0ddd76be505a9ff6E(ptr align 8 @alloc_ae52e422ab29884b58622d79788975fe) #26
  unreachable

bb3:                                              ; preds = %bb2
  %1 = and i64 %_6.0, 63
  %top7 = lshr i64 %hash, %1
  store i64 %top7, ptr %top7.dbg.spill, align 8
  %_9 = and i64 %top7, 127
  %_8 = trunc i64 %_9 to i8
  ret i8 %_8

panic2:                                           ; preds = %bb2
  call void @_ZN4core9panicking11panic_const24panic_const_shr_overflow17h4324e9000905809cE(ptr align 8 @alloc_ae52e422ab29884b58622d79788975fe) #26
  unreachable
}

; Function Attrs: inlinehint nonlazybind uwtable
define internal void @_ZN9hashbrown3raw13RawTableInner8set_ctrl17h0ddf8c10fd7fbd33E(ptr align 8 %self, i64 %index, i8 %ctrl) unnamed_addr #1 {
start:
  %rhs.dbg.spill.i = alloca [8 x i8], align 8
  %self.dbg.spill.i = alloca [8 x i8], align 8
  %index2.dbg.spill = alloca [8 x i8], align 8
  %ctrl.dbg.spill = alloca [1 x i8], align 1
  %index.dbg.spill = alloca [8 x i8], align 8
  %self.dbg.spill = alloca [8 x i8], align 8
  store ptr %self, ptr %self.dbg.spill, align 8
  store i64 %index, ptr %index.dbg.spill, align 8
  store i8 %ctrl, ptr %ctrl.dbg.spill, align 1
  store i64 %index, ptr %self.dbg.spill.i, align 8
  store i64 16, ptr %rhs.dbg.spill.i, align 8
  %_0.i = sub i64 %index, 16
  %0 = getelementptr inbounds i8, ptr %self, i64 8
  %_7 = load i64, ptr %0, align 8
  %_5 = and i64 %_0.i, %_7
  %1 = call { i64, i1 } @llvm.uadd.with.overflow.i64(i64 %_5, i64 16)
  %_8.0 = extractvalue { i64, i1 } %1, 0
  %_8.1 = extractvalue { i64, i1 } %1, 1
  br i1 %_8.1, label %panic, label %bb2

bb2:                                              ; preds = %start
  store i64 %_8.0, ptr %index2.dbg.spill, align 8
  %_9 = call ptr @_ZN9hashbrown3raw13RawTableInner4ctrl17h585d25dd34909a40E(ptr align 8 %self, i64 %index)
  store i8 %ctrl, ptr %_9, align 1
  %_11 = call ptr @_ZN9hashbrown3raw13RawTableInner4ctrl17h585d25dd34909a40E(ptr align 8 %self, i64 %_8.0)
  store i8 %ctrl, ptr %_11, align 1
  ret void

panic:                                            ; preds = %start
  call void @_ZN4core9panicking11panic_const24panic_const_add_overflow17hba62940e649c8158E(ptr align 8 @alloc_ae52e422ab29884b58622d79788975fe) #26
  unreachable
}

; Function Attrs: cold noinline noreturn nonlazybind uwtable
declare void @_ZN4core9panicking11panic_const24panic_const_mul_overflow17hf80c16d5d3adcc95E(ptr align 8) unnamed_addr #4

; Function Attrs: cold noinline noreturn nonlazybind uwtable
declare void @_ZN4core9panicking11panic_const24panic_const_shr_overflow17h4324e9000905809cE(ptr align 8) unnamed_addr #4

; Function Attrs: inlinehint nonlazybind uwtable
define internal i64 @_ZN9hashbrown3raw13RawTableInner14num_ctrl_bytes17h85390760f475deaaE(ptr align 8 %self) unnamed_addr #1 {
start:
  %self.dbg.spill = alloca [8 x i8], align 8
  store ptr %self, ptr %self.dbg.spill, align 8
  %0 = getelementptr inbounds i8, ptr %self, i64 8
  %_3 = load i64, ptr %0, align 8
  %1 = call { i64, i1 } @llvm.uadd.with.overflow.i64(i64 %_3, i64 1)
  %_4.0 = extractvalue { i64, i1 } %1, 0
  %_4.1 = extractvalue { i64, i1 } %1, 1
  br i1 %_4.1, label %panic, label %bb1

bb1:                                              ; preds = %start
  %2 = call { i64, i1 } @llvm.uadd.with.overflow.i64(i64 %_4.0, i64 16)
  %_5.0 = extractvalue { i64, i1 } %2, 0
  %_5.1 = extractvalue { i64, i1 } %2, 1
  br i1 %_5.1, label %panic1, label %bb2

panic:                                            ; preds = %start
  call void @_ZN4core9panicking11panic_const24panic_const_add_overflow17hba62940e649c8158E(ptr align 8 @alloc_ae52e422ab29884b58622d79788975fe) #26
  unreachable

bb2:                                              ; preds = %bb1
  ret i64 %_5.0

panic1:                                           ; preds = %bb1
  call void @_ZN4core9panicking11panic_const24panic_const_add_overflow17hba62940e649c8158E(ptr align 8 @alloc_ae52e422ab29884b58622d79788975fe) #26
  unreachable
}

; Function Attrs: inlinehint nounwind nonlazybind uwtable
define internal void @"_ZN4core3ptr7mut_ptr31_$LT$impl$u20$$BP$mut$u20$T$GT$3add18precondition_check17hbb47fbd20d650b93E"(ptr %this, i64 %count, i64 %size) unnamed_addr #7 personality ptr @rust_eh_personality {
start:
  %size.dbg.spill = alloca [8 x i8], align 8
  %count.dbg.spill = alloca [8 x i8], align 8
  %this.dbg.spill = alloca [8 x i8], align 8
  store ptr %this, ptr %this.dbg.spill, align 8
  store i64 %count, ptr %count.dbg.spill, align 8
  store i64 %size, ptr %size.dbg.spill, align 8
  %_4 = invoke zeroext i1 @"_ZN4core3ptr7mut_ptr31_$LT$impl$u20$$BP$mut$u20$T$GT$3add18runtime_add_nowrap17hb25207243b5e08c1E"(ptr %this, i64 %count, i64 %size)
          to label %bb1 unwind label %terminate

terminate:                                        ; preds = %start
  %0 = landingpad { ptr, i32 }
          filter [0 x ptr] zeroinitializer
  %1 = extractvalue { ptr, i32 } %0, 0
  %2 = extractvalue { ptr, i32 } %0, 1
  call void @_ZN4core9panicking19panic_cannot_unwind17hc0fec1ae87a1c3e5E() #27
  unreachable

bb1:                                              ; preds = %start
  br i1 %_4, label %bb2, label %bb3

bb3:                                              ; preds = %bb1
  call void @_ZN4core9panicking14panic_nounwind17h10cdad4c3e0e432eE(ptr align 1 @alloc_0a14891e1e5c702b367f18048e678740, i64 97) #29
  unreachable

bb2:                                              ; preds = %bb1
  ret void
}

; Function Attrs: inlinehint nonlazybind uwtable
define internal zeroext i1 @"_ZN4core3ptr7mut_ptr31_$LT$impl$u20$$BP$mut$u20$T$GT$3add18runtime_add_nowrap17hb25207243b5e08c1E"(ptr %this, i64 %count, i64 %size) unnamed_addr #1 {
start:
  %size.dbg.spill = alloca [8 x i8], align 8
  %count.dbg.spill = alloca [8 x i8], align 8
  %this.dbg.spill = alloca [8 x i8], align 8
  %_4 = alloca [24 x i8], align 8
  store ptr %this, ptr %this.dbg.spill, align 8
  store i64 %count, ptr %count.dbg.spill, align 8
  store i64 %size, ptr %size.dbg.spill, align 8
  store ptr %this, ptr %_4, align 8
  %0 = getelementptr inbounds i8, ptr %_4, i64 8
  store i64 %count, ptr %0, align 8
  %1 = getelementptr inbounds i8, ptr %_4, i64 16
  store i64 %size, ptr %1, align 8
  %2 = load ptr, ptr %_4, align 8
  %3 = getelementptr inbounds i8, ptr %_4, i64 8
  %4 = load i64, ptr %3, align 8
  %5 = getelementptr inbounds i8, ptr %_4, i64 16
  %6 = load i64, ptr %5, align 8
  %_0 = call zeroext i1 @"_ZN4core3ptr7mut_ptr31_$LT$impl$u20$$BP$mut$u20$T$GT$3add18runtime_add_nowrap7runtime17h0fcaae0c258fae0fE"(ptr %2, i64 %4, i64 %6)
  ret i1 %_0
}

; Function Attrs: inlinehint nonlazybind uwtable
define internal zeroext i1 @"_ZN4core3ptr7mut_ptr31_$LT$impl$u20$$BP$mut$u20$T$GT$3add18runtime_add_nowrap7runtime17h0fcaae0c258fae0fE"(ptr %this, i64 %count, i64 %size) unnamed_addr #1 {
start:
  %self.dbg.spill.i2 = alloca [8 x i8], align 8
  %self.dbg.spill.i1 = alloca [8 x i8], align 8
  %b.dbg.spill.i = alloca [1 x i8], align 1
  %a.dbg.spill.i = alloca [8 x i8], align 8
  %rhs.dbg.spill.i = alloca [8 x i8], align 8
  %self.dbg.spill.i = alloca [8 x i8], align 8
  %overflow.dbg.spill = alloca [1 x i8], align 1
  %byte_offset.dbg.spill = alloca [8 x i8], align 8
  %size.dbg.spill = alloca [8 x i8], align 8
  %count.dbg.spill = alloca [8 x i8], align 8
  %this.dbg.spill = alloca [8 x i8], align 8
  %_5 = alloca [16 x i8], align 8
  %_0 = alloca [1 x i8], align 1
  store ptr %this, ptr %this.dbg.spill, align 8
  store i64 %count, ptr %count.dbg.spill, align 8
  store i64 %size, ptr %size.dbg.spill, align 8
  %0 = call { i64, i64 } @"_ZN4core3num23_$LT$impl$u20$usize$GT$11checked_mul17h5914abfa7764a031E"(i64 %count, i64 %size)
  %1 = extractvalue { i64, i64 } %0, 0
  %2 = extractvalue { i64, i64 } %0, 1
  store i64 %1, ptr %_5, align 8
  %3 = getelementptr inbounds i8, ptr %_5, i64 8
  store i64 %2, ptr %3, align 8
  %_6 = load i64, ptr %_5, align 8
  %4 = icmp eq i64 %_6, 1
  br i1 %4, label %bb2, label %bb3

bb2:                                              ; preds = %start
  %5 = getelementptr inbounds i8, ptr %_5, i64 8
  %byte_offset = load i64, ptr %5, align 8
  store i64 %byte_offset, ptr %byte_offset.dbg.spill, align 8
  store ptr %this, ptr %self.dbg.spill.i1, align 8
  store ptr %this, ptr %self.dbg.spill.i2, align 8
  %_0.i = ptrtoint ptr %this to i64
  store i64 %_0.i, ptr %self.dbg.spill.i, align 8
  store i64 %byte_offset, ptr %rhs.dbg.spill.i, align 8
  %6 = call { i64, i1 } @llvm.uadd.with.overflow.i64(i64 %_0.i, i64 %byte_offset)
  %_5.0.i = extractvalue { i64, i1 } %6, 0
  %_5.1.i = extractvalue { i64, i1 } %6, 1
  store i64 %_5.0.i, ptr %a.dbg.spill.i, align 8
  %7 = zext i1 %_5.1.i to i8
  store i8 %7, ptr %b.dbg.spill.i, align 1
  %_8.0 = extractvalue { i64, i1 } %6, 0
  %_8.1 = extractvalue { i64, i1 } %6, 1
  %8 = zext i1 %_8.1 to i8
  store i8 %8, ptr %overflow.dbg.spill, align 1
  %_10 = icmp ule i64 %byte_offset, 9223372036854775807
  br i1 %_10, label %bb6, label %bb7

bb3:                                              ; preds = %start
  store i8 0, ptr %_0, align 1
  br label %bb8

bb7:                                              ; preds = %bb2
  store i8 0, ptr %_0, align 1
  br label %bb8

bb6:                                              ; preds = %bb2
  %9 = xor i1 %_8.1, true
  %10 = zext i1 %9 to i8
  store i8 %10, ptr %_0, align 1
  br label %bb8

bb8:                                              ; preds = %bb6, %bb7, %bb3
  %11 = load i8, ptr %_0, align 1
  %12 = trunc i8 %11 to i1
  ret i1 %12

bb9:                                              ; No predecessors!
  unreachable
}

; Function Attrs: inlinehint nonlazybind uwtable
define internal { i64, i64 } @_ZN9hashbrown3raw13RawTableInner9probe_seq17h9d6ee3215ec77b10E(ptr align 8 %self, i64 %hash) unnamed_addr #1 {
start:
  %hash.dbg.spill = alloca [8 x i8], align 8
  %self.dbg.spill = alloca [8 x i8], align 8
  store ptr %self, ptr %self.dbg.spill, align 8
  store i64 %hash, ptr %hash.dbg.spill, align 8
  %_4 = call i64 @_ZN9hashbrown3raw2h117h2cd87007ccb0a1d6E(i64 %hash)
  %0 = getelementptr inbounds i8, ptr %self, i64 8
  %_5 = load i64, ptr %0, align 8
  %_3 = and i64 %_4, %_5
  %1 = insertvalue { i64, i64 } poison, i64 %_3, 0
  %2 = insertvalue { i64, i64 } %1, i64 0, 1
  ret { i64, i64 } %2
}

; Function Attrs: inlinehint nonlazybind uwtable
define internal void @_ZN9hashbrown7control5group4sse25Group4load17h04088af999874073E(ptr sret([16 x i8]) align 16 %_0, ptr %ptr) unnamed_addr #1 {
start:
  %self.dbg.spill.i = alloca [8 x i8], align 8
  %0 = alloca [16 x i8], align 16
  %ptr.dbg.spill = alloca [8 x i8], align 8
  store ptr %ptr, ptr %ptr.dbg.spill, align 8
  store ptr %ptr, ptr %self.dbg.spill.i, align 8
  call void @_ZN4core9core_arch3x864sse215_mm_loadu_si12817h5f49f80f7d9c7c01E(ptr sret([16 x i8]) align 16 %0, ptr %ptr)
  %_2 = load <2 x i64>, ptr %0, align 16
  store <2 x i64> %_2, ptr %_0, align 16
  ret void
}

; Function Attrs: inlinehint nonlazybind uwtable
define internal { i64, i64 } @_ZN9hashbrown3raw13RawTableInner25find_insert_slot_in_group17h43acc9f3d57242c7E(ptr align 8 %self, ptr align 16 %group, ptr align 8 %probe_seq) unnamed_addr #1 {
start:
  %val.dbg.spill.i = alloca [8 x i8], align 8
  %self.i = alloca [16 x i8], align 8
  %b.dbg.spill.i = alloca [1 x i8], align 1
  %_0.i = alloca [1 x i8], align 1
  %0 = alloca [16 x i8], align 16
  %probe_seq.dbg.spill = alloca [8 x i8], align 8
  %group.dbg.spill = alloca [8 x i8], align 8
  %self.dbg.spill = alloca [8 x i8], align 8
  %bit = alloca [16 x i8], align 8
  %_0 = alloca [16 x i8], align 8
  store ptr %self, ptr %self.dbg.spill, align 8
  store ptr %group, ptr %group.dbg.spill, align 8
  store ptr %probe_seq, ptr %probe_seq.dbg.spill, align 8
  %_6 = load <2 x i64>, ptr %group, align 16
  store <2 x i64> %_6, ptr %0, align 16
  %_5 = call i16 @_ZN9hashbrown7control5group4sse25Group22match_empty_or_deleted17h87c516b80749d048E(ptr align 16 %0)
  %1 = call { i64, i64 } @_ZN9hashbrown7control7bitmask7BitMask14lowest_set_bit17h944ad66f73a6305aE(i16 %_5)
  %2 = extractvalue { i64, i64 } %1, 0
  %3 = extractvalue { i64, i64 } %1, 1
  store i64 %2, ptr %bit, align 8
  %4 = getelementptr inbounds i8, ptr %bit, i64 8
  store i64 %3, ptr %4, align 8
  %_8 = call zeroext i1 @"_ZN4core6option15Option$LT$T$GT$7is_some17h97d71098b8aa7812E"(ptr align 8 %bit)
  %5 = zext i1 %_8 to i8
  store i8 %5, ptr %b.dbg.spill.i, align 1
  br i1 %_8, label %bb1.i, label %bb2.i

bb2.i:                                            ; preds = %start
  store i8 0, ptr %_0.i, align 1
  br label %_ZN4core10intrinsics6likely17h41b033fa4327c645E.exit

bb1.i:                                            ; preds = %start
  store i8 1, ptr %_0.i, align 1
  br label %_ZN4core10intrinsics6likely17h41b033fa4327c645E.exit

_ZN4core10intrinsics6likely17h41b033fa4327c645E.exit: ; preds = %bb1.i, %bb2.i
  %6 = load i8, ptr %_0.i, align 1
  %7 = trunc i8 %6 to i1
  br i1 %7, label %bb5, label %bb8

bb8:                                              ; preds = %_ZN4core10intrinsics6likely17h41b033fa4327c645E.exit
  store i64 0, ptr %_0, align 8
  br label %bb9

bb5:                                              ; preds = %_ZN4core10intrinsics6likely17h41b033fa4327c645E.exit
  %_12 = load i64, ptr %probe_seq, align 8
  %8 = load i64, ptr %bit, align 8
  %9 = getelementptr inbounds i8, ptr %bit, i64 8
  %10 = load i64, ptr %9, align 8
  store i64 %8, ptr %self.i, align 8
  %11 = getelementptr inbounds i8, ptr %self.i, i64 8
  store i64 %10, ptr %11, align 8
  %_2.i = load i64, ptr %self.i, align 8
  %12 = icmp eq i64 %_2.i, 0
  br i1 %12, label %bb2.i1, label %"_ZN4core6option15Option$LT$T$GT$6unwrap17hd4f11a3656104db4E.exit"

bb2.i1:                                           ; preds = %bb5
  call void @_ZN4core6option13unwrap_failed17h63b2dcf4b9cfad64E(ptr align 8 @alloc_ae52e422ab29884b58622d79788975fe) #26
  unreachable

"_ZN4core6option15Option$LT$T$GT$6unwrap17hd4f11a3656104db4E.exit": ; preds = %bb5
  %13 = getelementptr inbounds i8, ptr %self.i, i64 8
  %val.i = load i64, ptr %13, align 8
  store i64 %val.i, ptr %val.dbg.spill.i, align 8
  %14 = call { i64, i1 } @llvm.uadd.with.overflow.i64(i64 %_12, i64 %val.i)
  %_14.0 = extractvalue { i64, i1 } %14, 0
  %_14.1 = extractvalue { i64, i1 } %14, 1
  br i1 %_14.1, label %panic, label %bb7

bb9:                                              ; preds = %bb7, %bb8
  %15 = load i64, ptr %_0, align 8
  %16 = getelementptr inbounds i8, ptr %_0, i64 8
  %17 = load i64, ptr %16, align 8
  %18 = insertvalue { i64, i64 } poison, i64 %15, 0
  %19 = insertvalue { i64, i64 } %18, i64 %17, 1
  ret { i64, i64 } %19

bb7:                                              ; preds = %"_ZN4core6option15Option$LT$T$GT$6unwrap17hd4f11a3656104db4E.exit"
  %20 = getelementptr inbounds i8, ptr %self, i64 8
  %_15 = load i64, ptr %20, align 8
  %_10 = and i64 %_14.0, %_15
  %21 = getelementptr inbounds i8, ptr %_0, i64 8
  store i64 %_10, ptr %21, align 8
  store i64 1, ptr %_0, align 8
  br label %bb9

panic:                                            ; preds = %"_ZN4core6option15Option$LT$T$GT$6unwrap17hd4f11a3656104db4E.exit"
  call void @_ZN4core9panicking11panic_const24panic_const_add_overflow17hba62940e649c8158E(ptr align 8 @alloc_ae52e422ab29884b58622d79788975fe) #26
  unreachable
}

; Function Attrs: inlinehint nonlazybind uwtable
declare zeroext i1 @"_ZN4core6option15Option$LT$T$GT$7is_some17h97d71098b8aa7812E"(ptr align 8) unnamed_addr #1

; Function Attrs: inlinehint nonlazybind uwtable
define internal void @_ZN9hashbrown3raw8ProbeSeq9move_next17h9f47dbaf4f1f8c6bE(ptr align 8 %self, i64 %bucket_mask) unnamed_addr #1 {
start:
  %bucket_mask.dbg.spill = alloca [8 x i8], align 8
  %self.dbg.spill = alloca [8 x i8], align 8
  %_6 = alloca [48 x i8], align 8
  store ptr %self, ptr %self.dbg.spill, align 8
  store i64 %bucket_mask, ptr %bucket_mask.dbg.spill, align 8
  %0 = getelementptr inbounds i8, ptr %self, i64 8
  %_4 = load i64, ptr %0, align 8
  %_3 = icmp ule i64 %_4, %bucket_mask
  br i1 %_3, label %bb3, label %bb1

bb1:                                              ; preds = %start
  call void @_ZN4core3fmt9Arguments9new_const17hc1c216cd7a15e8c1E(ptr sret([48 x i8]) align 8 %_6, ptr align 8 @alloc_c4f7f172f6ddb40182467e21388afe62)
  call void @_ZN4core9panicking9panic_fmt17hd1a79b7511ba5790E(ptr align 8 %_6, ptr align 8 @alloc_ae52e422ab29884b58622d79788975fe) #26
  unreachable

bb3:                                              ; preds = %start
  %1 = getelementptr inbounds i8, ptr %self, i64 8
  %2 = load i64, ptr %1, align 8
  %3 = call { i64, i1 } @llvm.uadd.with.overflow.i64(i64 %2, i64 16)
  %_8.0 = extractvalue { i64, i1 } %3, 0
  %_8.1 = extractvalue { i64, i1 } %3, 1
  br i1 %_8.1, label %panic, label %bb4

bb4:                                              ; preds = %bb3
  %4 = getelementptr inbounds i8, ptr %self, i64 8
  store i64 %_8.0, ptr %4, align 8
  %5 = getelementptr inbounds i8, ptr %self, i64 8
  %_9 = load i64, ptr %5, align 8
  %6 = load i64, ptr %self, align 8
  %7 = call { i64, i1 } @llvm.uadd.with.overflow.i64(i64 %6, i64 %_9)
  %_10.0 = extractvalue { i64, i1 } %7, 0
  %_10.1 = extractvalue { i64, i1 } %7, 1
  br i1 %_10.1, label %panic1, label %bb5

panic:                                            ; preds = %bb3
  call void @_ZN4core9panicking11panic_const24panic_const_add_overflow17hba62940e649c8158E(ptr align 8 @alloc_ae52e422ab29884b58622d79788975fe) #26
  unreachable

bb5:                                              ; preds = %bb4
  store i64 %_10.0, ptr %self, align 8
  %8 = load i64, ptr %self, align 8
  %9 = and i64 %8, %bucket_mask
  store i64 %9, ptr %self, align 8
  ret void

panic1:                                           ; preds = %bb4
  call void @_ZN4core9panicking11panic_const24panic_const_add_overflow17hba62940e649c8158E(ptr align 8 @alloc_ae52e422ab29884b58622d79788975fe) #26
  unreachable
}

; Function Attrs: inlinehint nonlazybind uwtable
declare i64 @"_ZN4core6option15Option$LT$T$GT$16unwrap_unchecked17hebe11605c3c8ba83E"(i64, i64, ptr align 8) unnamed_addr #1

; Function Attrs: inlinehint nonlazybind uwtable
define internal i64 @_ZN9hashbrown3raw13RawTableInner15fix_insert_slot17h5904f371611f6536E(ptr align 8 %self, i64 %0) unnamed_addr #1 {
start:
  %b.dbg.spill.i = alloca [1 x i8], align 1
  %_0.i = alloca [1 x i8], align 1
  %1 = alloca [16 x i8], align 16
  %2 = alloca [16 x i8], align 16
  %self.dbg.spill = alloca [8 x i8], align 8
  %index = alloca [8 x i8], align 8
  store i64 %0, ptr %index, align 8
  store ptr %self, ptr %self.dbg.spill, align 8
  %_5 = load i64, ptr %index, align 8
  %_4 = call zeroext i1 @_ZN9hashbrown3raw13RawTableInner14is_bucket_full17h5e3d2beb5a1d6422E(ptr align 8 %self, i64 %_5)
  %3 = zext i1 %_4 to i8
  store i8 %3, ptr %b.dbg.spill.i, align 1
  br i1 %_4, label %bb1.i, label %bb3.i

bb3.i:                                            ; preds = %start
  store i8 0, ptr %_0.i, align 1
  br label %_ZN4core10intrinsics8unlikely17h3567347e0d5980c5E.exit

bb1.i:                                            ; preds = %start
  store i8 1, ptr %_0.i, align 1
  br label %_ZN4core10intrinsics8unlikely17h3567347e0d5980c5E.exit

_ZN4core10intrinsics8unlikely17h3567347e0d5980c5E.exit: ; preds = %bb1.i, %bb3.i
  %4 = load i8, ptr %_0.i, align 1
  %5 = trunc i8 %4 to i1
  br i1 %5, label %bb3, label %bb11

bb11:                                             ; preds = %bb5, %_ZN4core10intrinsics8unlikely17h3567347e0d5980c5E.exit
  %_15 = load i64, ptr %index, align 8
  ret i64 %_15

bb3:                                              ; preds = %_ZN4core10intrinsics8unlikely17h3567347e0d5980c5E.exit
  %6 = getelementptr inbounds i8, ptr %self, i64 8
  %_7 = load i64, ptr %6, align 8
  %_6 = icmp ult i64 %_7, 16
  br i1 %_6, label %bb5, label %bb4

bb4:                                              ; preds = %bb3
  call void @_ZN4core9panicking5panic17hb6d80a9b62c0d1bdE(ptr align 1 @alloc_f221a41e60e2c2405013375c89df9d11, i64 49, ptr align 8 @alloc_ae52e422ab29884b58622d79788975fe) #26
  unreachable

bb5:                                              ; preds = %bb3
  %_14 = call ptr @_ZN9hashbrown3raw13RawTableInner4ctrl17h585d25dd34909a40E(ptr align 8 %self, i64 0)
  call void @_ZN9hashbrown7control5group4sse25Group12load_aligned17hc2be0caafd0a4d1eE(ptr sret([16 x i8]) align 16 %2, ptr %_14)
  %_12 = load <2 x i64>, ptr %2, align 16
  store <2 x i64> %_12, ptr %1, align 16
  %_11 = call i16 @_ZN9hashbrown7control5group4sse25Group22match_empty_or_deleted17h87c516b80749d048E(ptr align 16 %1)
  %7 = call { i64, i64 } @_ZN9hashbrown7control7bitmask7BitMask14lowest_set_bit17h944ad66f73a6305aE(i16 %_11)
  %_10.0 = extractvalue { i64, i64 } %7, 0
  %_10.1 = extractvalue { i64, i64 } %7, 1
  %_9 = call i64 @"_ZN4core6option15Option$LT$T$GT$16unwrap_unchecked17hebe11605c3c8ba83E"(i64 %_10.0, i64 %_10.1, ptr align 8 @alloc_ae52e422ab29884b58622d79788975fe)
  store i64 %_9, ptr %index, align 8
  br label %bb11
}

; Function Attrs: inlinehint nonlazybind uwtable
define internal zeroext i1 @_ZN9hashbrown3raw13RawTableInner14is_bucket_full17h5e3d2beb5a1d6422E(ptr align 8 %self, i64 %index) unnamed_addr #1 {
start:
  %index.dbg.spill = alloca [8 x i8], align 8
  %self.dbg.spill = alloca [8 x i8], align 8
  store ptr %self, ptr %self.dbg.spill, align 8
  store i64 %index, ptr %index.dbg.spill, align 8
  %_4 = call i64 @_ZN9hashbrown3raw13RawTableInner7buckets17he63fafe128af926bE(ptr align 8 %self)
  %_3 = icmp ult i64 %index, %_4
  br i1 %_3, label %bb3, label %bb2

bb2:                                              ; preds = %start
  call void @_ZN4core9panicking5panic17hb6d80a9b62c0d1bdE(ptr align 1 @alloc_c3b6d53dd9bd1510e9a26e6e4f3d162a, i64 40, ptr align 8 @alloc_ae52e422ab29884b58622d79788975fe) #26
  unreachable

bb3:                                              ; preds = %start
  %_7 = call ptr @_ZN9hashbrown3raw13RawTableInner4ctrl17h585d25dd34909a40E(ptr align 8 %self, i64 %index)
  %_6 = load i8, ptr %_7, align 1
  %_0 = call zeroext i1 @_ZN9hashbrown7control3tag3Tag7is_full17h04c493994cc05b1fE(i8 %_6)
  ret i1 %_0
}

; Function Attrs: inlinehint nonlazybind uwtable
define internal void @_ZN9hashbrown7control5group4sse25Group12load_aligned17hc2be0caafd0a4d1eE(ptr sret([16 x i8]) align 16 %_0, ptr %ptr) unnamed_addr #1 {
start:
  %self.dbg.spill.i = alloca [8 x i8], align 8
  %0 = alloca [16 x i8], align 16
  %right_val.dbg.spill = alloca [8 x i8], align 8
  %left_val.dbg.spill = alloca [8 x i8], align 8
  %ptr.dbg.spill = alloca [8 x i8], align 8
  %_14 = alloca [48 x i8], align 8
  %kind = alloca [1 x i8], align 1
  %_4 = alloca [8 x i8], align 8
  store ptr %ptr, ptr %ptr.dbg.spill, align 8
  %1 = call i64 @"_ZN4core3ptr9const_ptr33_$LT$impl$u20$$BP$const$u20$T$GT$12align_offset17hd9671c845b940bf8E"(ptr %ptr, i64 16)
  store i64 %1, ptr %_4, align 8
  store ptr %_4, ptr %left_val.dbg.spill, align 8
  store ptr @alloc_53973d2fe29b4adba8bb7390b5678745, ptr %right_val.dbg.spill, align 8
  %_10 = load i64, ptr %_4, align 8
  %_11 = load i64, ptr @alloc_53973d2fe29b4adba8bb7390b5678745, align 8
  %_9 = icmp eq i64 %_10, %_11
  br i1 %_9, label %bb4, label %bb3

bb3:                                              ; preds = %start
  store i8 0, ptr %kind, align 1
  store ptr null, ptr %_14, align 8
  %2 = load i8, ptr %kind, align 1
  call void @_ZN4core9panicking13assert_failed17h01cb8cfa4e7bf911E(i8 %2, ptr align 8 %_4, ptr align 8 @alloc_53973d2fe29b4adba8bb7390b5678745, ptr align 8 %_14, ptr align 8 @alloc_ae52e422ab29884b58622d79788975fe) #26
  unreachable

bb4:                                              ; preds = %start
  store ptr %ptr, ptr %self.dbg.spill.i, align 8
  call void @_ZN4core9core_arch3x864sse214_mm_load_si12817h3fc5c08e1e1b945cE(ptr sret([16 x i8]) align 16 %0, ptr %ptr)
  %_15 = load <2 x i64>, ptr %0, align 16
  store <2 x i64> %_15, ptr %_0, align 16
  ret void
}

; Function Attrs: inlinehint nonlazybind uwtable
define internal i16 @_ZN9hashbrown7control5group4sse25Group22match_empty_or_deleted17h87c516b80749d048E(ptr align 16 %self) unnamed_addr #1 {
start:
  %0 = alloca [16 x i8], align 16
  %_4 = load <2 x i64>, ptr %self, align 16
  store <2 x i64> %_4, ptr %0, align 16
  %_3 = call i32 @_ZN4core9core_arch3x864sse217_mm_movemask_epi817h99137f99d8b6125bE(ptr align 16 %0)
  %_2 = trunc i32 %_3 to i16
  ret i16 %_2
}

; Function Attrs: inlinehint nonlazybind uwtable
define internal { i64, i64 } @_ZN9hashbrown7control7bitmask7BitMask14lowest_set_bit17h944ad66f73a6305aE(i16 %self) unnamed_addr #1 {
start:
  %nonzero.dbg.spill = alloca [2 x i8], align 2
  %self.dbg.spill = alloca [2 x i8], align 2
  %_2 = alloca [2 x i8], align 2
  %_0 = alloca [16 x i8], align 8
  store i16 %self, ptr %self.dbg.spill, align 2
  %0 = call i16 @"_ZN4core3num7nonzero16NonZero$LT$T$GT$3new17hd6b217f155e24651E"(i16 %self)
  store i16 %0, ptr %_2, align 2
  %1 = load i16, ptr %_2, align 2
  %2 = icmp eq i16 %1, 0
  %_4 = select i1 %2, i64 0, i64 1
  %3 = icmp eq i64 %_4, 1
  br i1 %3, label %bb2, label %bb4

bb2:                                              ; preds = %start
  %nonzero = load i16, ptr %_2, align 2
  store i16 %nonzero, ptr %nonzero.dbg.spill, align 2
  %_6 = call i64 @_ZN9hashbrown7control7bitmask7BitMask22nonzero_trailing_zeros17h1321186dde19682dE(i16 %nonzero)
  %4 = getelementptr inbounds i8, ptr %_0, i64 8
  store i64 %_6, ptr %4, align 8
  store i64 1, ptr %_0, align 8
  br label %bb5

bb4:                                              ; preds = %start
  store i64 0, ptr %_0, align 8
  br label %bb5

bb5:                                              ; preds = %bb4, %bb2
  %5 = load i64, ptr %_0, align 8
  %6 = getelementptr inbounds i8, ptr %_0, i64 8
  %7 = load i64, ptr %6, align 8
  %8 = insertvalue { i64, i64 } poison, i64 %5, 0
  %9 = insertvalue { i64, i64 } %8, i64 %7, 1
  ret { i64, i64 } %9

bb6:                                              ; No predecessors!
  unreachable
}

; Function Attrs: inlinehint nonlazybind uwtable
declare i16 @"_ZN4core3num7nonzero16NonZero$LT$T$GT$3new17hd6b217f155e24651E"(i16) unnamed_addr #1

; Function Attrs: inlinehint nonlazybind uwtable
define internal i64 @_ZN9hashbrown7control7bitmask7BitMask22nonzero_trailing_zeros17h1321186dde19682dE(i16 %nonzero) unnamed_addr #1 {
start:
  %nonzero.dbg.spill = alloca [2 x i8], align 2
  store i16 %nonzero, ptr %nonzero.dbg.spill, align 2
  %_4 = call i32 @"_ZN4core3num7nonzero18NonZero$LT$u16$GT$14trailing_zeros17h0dcee60e19a9a56eE"(i16 %nonzero)
  %_3 = zext i32 %_4 to i64
  %_0 = udiv i64 %_3, 1
  ret i64 %_0
}

; Function Attrs: inlinehint nonlazybind uwtable
define internal i32 @"_ZN4core3num7nonzero18NonZero$LT$u16$GT$14trailing_zeros17h0dcee60e19a9a56eE"(i16 %self) unnamed_addr #1 {
start:
  %0 = alloca [4 x i8], align 4
  %self.dbg.spill = alloca [2 x i8], align 2
  store i16 %self, ptr %self.dbg.spill, align 2
  %_2 = call i16 @"_ZN4core3num7nonzero16NonZero$LT$T$GT$3get17h9d015ed862a34774E"(i16 %self)
  %1 = call i16 @llvm.cttz.i16(i16 %_2, i1 true)
  %2 = zext i16 %1 to i32
  store i32 %2, ptr %0, align 4
  %_0 = load i32, ptr %0, align 4
  ret i32 %_0
}

; Function Attrs: inlinehint nonlazybind uwtable
declare i16 @"_ZN4core3num7nonzero16NonZero$LT$T$GT$3get17h9d015ed862a34774E"(i16) unnamed_addr #1

; Function Attrs: nocallback nofree nosync nounwind speculatable willreturn memory(none)
declare i16 @llvm.cttz.i16(i16, i1 immarg) #9

; Function Attrs: inlinehint nonlazybind uwtable
define internal i32 @_ZN4core9core_arch3x864sse217_mm_movemask_epi817h99137f99d8b6125bE(ptr align 16 %a) unnamed_addr #11 {
start:
  %0 = alloca [2 x i8], align 2
  %m.dbg.spill = alloca [16 x i8], align 16
  %1 = alloca [16 x i8], align 16
  %2 = alloca [16 x i8], align 16
  %3 = alloca [16 x i8], align 16
  %z.dbg.spill = alloca [16 x i8], align 16
  %4 = load <16 x i8>, ptr @anon.d117e058ce1dc08ee7364fbea7ca1519.0, align 16
  store <16 x i8> %4, ptr %z.dbg.spill, align 16
  %5 = load <2 x i64>, ptr %a, align 16
  store <2 x i64> %5, ptr %2, align 16
  call void @_ZN4core9core_arch3x868m128iExt8as_i8x1617h3630cee977693a39E(ptr sret([16 x i8]) align 16 %3, ptr align 16 %2)
  %_3 = load <16 x i8>, ptr %3, align 16
  %6 = icmp slt <16 x i8> %_3, zeroinitializer
  %7 = sext <16 x i1> %6 to <16 x i8>
  store <16 x i8> %7, ptr %1, align 16
  %m = load <16 x i8>, ptr %1, align 16
  store <16 x i8> %m, ptr %m.dbg.spill, align 16
  %8 = lshr <16 x i8> %m, <i8 7, i8 7, i8 7, i8 7, i8 7, i8 7, i8 7, i8 7, i8 7, i8 7, i8 7, i8 7, i8 7, i8 7, i8 7, i8 7>
  %9 = trunc <16 x i8> %8 to <16 x i1>
  %10 = bitcast <16 x i1> %9 to i16
  store i16 %10, ptr %0, align 2
  %_6 = load i16, ptr %0, align 2
  %_5 = zext i16 %_6 to i32
  ret i32 %_5
}

; Function Attrs: inlinehint nonlazybind uwtable
declare void @_ZN4core9core_arch3x868m128iExt8as_i8x1617h3630cee977693a39E(ptr sret([16 x i8]) align 16, ptr align 16) unnamed_addr #1

; Function Attrs: inlinehint nonlazybind uwtable
declare i64 @"_ZN4core3ptr9const_ptr33_$LT$impl$u20$$BP$const$u20$T$GT$12align_offset17hd9671c845b940bf8E"(ptr, i64) unnamed_addr #1

; Function Attrs: inlinehint nonlazybind uwtable
define internal void @_ZN4core9core_arch3x864sse214_mm_load_si12817h3fc5c08e1e1b945cE(ptr sret([16 x i8]) align 16 %_0, ptr %mem_addr) unnamed_addr #11 {
start:
  %mem_addr.dbg.spill = alloca [8 x i8], align 8
  store ptr %mem_addr, ptr %mem_addr.dbg.spill, align 8
  %0 = load <2 x i64>, ptr %mem_addr, align 16
  store <2 x i64> %0, ptr %_0, align 16
  ret void
}

; Function Attrs: inlinehint nonlazybind uwtable
define internal zeroext i1 @_ZN9hashbrown7control3tag3Tag7is_full17h04c493994cc05b1fE(i8 %self) unnamed_addr #1 {
start:
  %self.dbg.spill = alloca [1 x i8], align 1
  store i8 %self, ptr %self.dbg.spill, align 1
  %_2 = and i8 %self, -128
  %_0 = icmp eq i8 %_2, 0
  ret i1 %_0
}

; Function Attrs: inlinehint nonlazybind uwtable
declare void @_ZN4core3fmt9Arguments9new_const17hc1c216cd7a15e8c1E(ptr sret([48 x i8]) align 8, ptr align 8) unnamed_addr #1

; Function Attrs: cold noinline noreturn nonlazybind uwtable
declare void @_ZN4core9panicking9panic_fmt17hd1a79b7511ba5790E(ptr align 8, ptr align 8) unnamed_addr #4

; Function Attrs: cold noinline noreturn nonlazybind uwtable
declare void @_ZN4core6option13unwrap_failed17h63b2dcf4b9cfad64E(ptr align 8) unnamed_addr #4

; Function Attrs: inlinehint nonlazybind uwtable
define internal void @_ZN4core9core_arch3x864sse215_mm_loadu_si12817h5f49f80f7d9c7c01E(ptr sret([16 x i8]) align 16 %_0, ptr %mem_addr) unnamed_addr #11 {
start:
  %count.dbg.spill.i = alloca [8 x i8], align 8
  %dst.dbg.spill.i = alloca [8 x i8], align 8
  %src.dbg.spill.i = alloca [8 x i8], align 8
  %mem_addr.dbg.spill = alloca [8 x i8], align 8
  %dst = alloca [16 x i8], align 16
  store ptr %mem_addr, ptr %mem_addr.dbg.spill, align 8
  call void @_ZN4core9core_arch3x864sse219_mm_undefined_si12817h4818d847ccd175cfE(ptr sret([16 x i8]) align 16 %dst)
  store ptr %mem_addr, ptr %src.dbg.spill.i, align 8
  store ptr %dst, ptr %dst.dbg.spill.i, align 8
  store i64 16, ptr %count.dbg.spill.i, align 8
  %_4.i = call zeroext i1 @_ZN4core9ub_checks17check_language_ub17h56b47dc4257f98b8E()
  br i1 %_4.i, label %bb2.i, label %_ZN4core10intrinsics19copy_nonoverlapping17h1e915645cd4ca8c1E.exit

bb2.i:                                            ; preds = %start
  call void @_ZN4core10intrinsics19copy_nonoverlapping18precondition_check17h8da0fcdb79cbd76eE(ptr %mem_addr, ptr %dst, i64 1, i64 1, i64 16) #28
  br label %_ZN4core10intrinsics19copy_nonoverlapping17h1e915645cd4ca8c1E.exit

_ZN4core10intrinsics19copy_nonoverlapping17h1e915645cd4ca8c1E.exit: ; preds = %bb2.i, %start
  call void @llvm.memcpy.p0.p0.i64(ptr align 1 %dst, ptr align 1 %mem_addr, i64 16, i1 false)
  %0 = load <2 x i64>, ptr %dst, align 16
  store <2 x i64> %0, ptr %_0, align 16
  ret void
}

; Function Attrs: inlinehint nonlazybind uwtable
define internal void @_ZN4core9core_arch3x864sse219_mm_undefined_si12817h4818d847ccd175cfE(ptr sret([16 x i8]) align 16 %_0) unnamed_addr #11 {
start:
  store <2 x i64> zeroinitializer, ptr %_0, align 16
  ret void
}

; Function Attrs: inlinehint nounwind nonlazybind uwtable
define internal void @_ZN4core10intrinsics19copy_nonoverlapping18precondition_check17h8da0fcdb79cbd76eE(ptr %src, ptr %dst, i64 %size, i64 %align, i64 %count) unnamed_addr #7 personality ptr @rust_eh_personality {
start:
  %count.dbg.spill = alloca [8 x i8], align 8
  %align.dbg.spill = alloca [8 x i8], align 8
  %size.dbg.spill = alloca [8 x i8], align 8
  %dst.dbg.spill = alloca [8 x i8], align 8
  %src.dbg.spill = alloca [8 x i8], align 8
  %zero_size = alloca [1 x i8], align 1
  %_6 = alloca [1 x i8], align 1
  store ptr %src, ptr %src.dbg.spill, align 8
  store ptr %dst, ptr %dst.dbg.spill, align 8
  store i64 %size, ptr %size.dbg.spill, align 8
  store i64 %align, ptr %align.dbg.spill, align 8
  store i64 %count, ptr %count.dbg.spill, align 8
  %0 = icmp eq i64 %count, 0
  br i1 %0, label %bb1, label %bb2

bb1:                                              ; preds = %start
  store i8 1, ptr %zero_size, align 1
  br label %bb3

bb2:                                              ; preds = %start
  %1 = icmp eq i64 %size, 0
  %2 = zext i1 %1 to i8
  store i8 %2, ptr %zero_size, align 1
  br label %bb3

bb3:                                              ; preds = %bb2, %bb1
  %3 = load i8, ptr %zero_size, align 1
  %_9 = trunc i8 %3 to i1
  %_8 = invoke zeroext i1 @_ZN4core9ub_checks29maybe_is_aligned_and_not_null17hcb5bf2f3615a0738E(ptr %src, i64 %align, i1 zeroext %_9)
          to label %bb4 unwind label %terminate

terminate:                                        ; preds = %bb7, %bb5, %bb3
  %4 = landingpad { ptr, i32 }
          filter [0 x ptr] zeroinitializer
  %5 = extractvalue { ptr, i32 } %4, 0
  %6 = extractvalue { ptr, i32 } %4, 1
  call void @_ZN4core9panicking19panic_cannot_unwind17hc0fec1ae87a1c3e5E() #27
  unreachable

bb4:                                              ; preds = %bb3
  br i1 %_8, label %bb5, label %bb8

bb8:                                              ; preds = %bb6, %bb4
  store i8 0, ptr %_6, align 1
  br label %bb9

bb5:                                              ; preds = %bb4
  %7 = load i8, ptr %zero_size, align 1
  %_12 = trunc i8 %7 to i1
  %_10 = invoke zeroext i1 @_ZN4core9ub_checks29maybe_is_aligned_and_not_null17hcb5bf2f3615a0738E(ptr %dst, i64 %align, i1 zeroext %_12)
          to label %bb6 unwind label %terminate

bb6:                                              ; preds = %bb5
  br i1 %_10, label %bb7, label %bb8

bb7:                                              ; preds = %bb6
  %8 = invoke zeroext i1 @_ZN4core9ub_checks23maybe_is_nonoverlapping17he4e66c8d4a415fcdE(ptr %src, ptr %dst, i64 %size, i64 %count)
          to label %bb12 unwind label %terminate

bb9:                                              ; preds = %bb12, %bb8
  %9 = load i8, ptr %_6, align 1
  %10 = trunc i8 %9 to i1
  br i1 %10, label %bb11, label %bb10

bb12:                                             ; preds = %bb7
  %11 = zext i1 %8 to i8
  store i8 %11, ptr %_6, align 1
  br label %bb9

bb10:                                             ; preds = %bb9
  call void @_ZN4core9panicking14panic_nounwind17h10cdad4c3e0e432eE(ptr align 1 @alloc_8df0580a595a87d56789d20c7318e185, i64 166) #29
  unreachable

bb11:                                             ; preds = %bb9
  ret void
}

; Function Attrs: inlinehint nonlazybind uwtable
define internal zeroext i1 @_ZN4core9ub_checks23maybe_is_nonoverlapping17he4e66c8d4a415fcdE(ptr %src, ptr %dst, i64 %size, i64 %count) unnamed_addr #1 {
start:
  %count.dbg.spill = alloca [8 x i8], align 8
  %size.dbg.spill = alloca [8 x i8], align 8
  %dst.dbg.spill = alloca [8 x i8], align 8
  %src.dbg.spill = alloca [8 x i8], align 8
  %_5 = alloca [32 x i8], align 8
  store ptr %src, ptr %src.dbg.spill, align 8
  store ptr %dst, ptr %dst.dbg.spill, align 8
  store i64 %size, ptr %size.dbg.spill, align 8
  store i64 %count, ptr %count.dbg.spill, align 8
  store ptr %src, ptr %_5, align 8
  %0 = getelementptr inbounds i8, ptr %_5, i64 8
  store ptr %dst, ptr %0, align 8
  %1 = getelementptr inbounds i8, ptr %_5, i64 16
  store i64 %size, ptr %1, align 8
  %2 = getelementptr inbounds i8, ptr %_5, i64 24
  store i64 %count, ptr %2, align 8
  %3 = load ptr, ptr %_5, align 8
  %4 = getelementptr inbounds i8, ptr %_5, i64 8
  %5 = load ptr, ptr %4, align 8
  %6 = getelementptr inbounds i8, ptr %_5, i64 16
  %7 = load i64, ptr %6, align 8
  %8 = getelementptr inbounds i8, ptr %_5, i64 24
  %9 = load i64, ptr %8, align 8
  %_0 = call zeroext i1 @_ZN4core9ub_checks23maybe_is_nonoverlapping7runtime17h70f7f1aa345e912cE(ptr %3, ptr %5, i64 %7, i64 %9)
  ret i1 %_0
}

; Function Attrs: inlinehint nonlazybind uwtable
define internal zeroext i1 @_ZN4core9ub_checks23maybe_is_nonoverlapping7runtime17h70f7f1aa345e912cE(ptr %src, ptr %dst, i64 %size, i64 %count) unnamed_addr #1 {
start:
  %self.dbg.spill.i7 = alloca [8 x i8], align 8
  %self.dbg.spill.i6 = alloca [8 x i8], align 8
  %self.dbg.spill.i3 = alloca [8 x i8], align 8
  %self.dbg.spill.i = alloca [8 x i8], align 8
  %diff.dbg.spill = alloca [8 x i8], align 8
  %size.dbg.spill2 = alloca [8 x i8], align 8
  %dst_usize.dbg.spill = alloca [8 x i8], align 8
  %src_usize.dbg.spill = alloca [8 x i8], align 8
  %count.dbg.spill = alloca [8 x i8], align 8
  %size.dbg.spill = alloca [8 x i8], align 8
  %dst.dbg.spill = alloca [8 x i8], align 8
  %src.dbg.spill = alloca [8 x i8], align 8
  %_9 = alloca [16 x i8], align 8
  store ptr %src, ptr %src.dbg.spill, align 8
  store ptr %dst, ptr %dst.dbg.spill, align 8
  store i64 %size, ptr %size.dbg.spill, align 8
  store i64 %count, ptr %count.dbg.spill, align 8
  store ptr %src, ptr %self.dbg.spill.i3, align 8
  store ptr %src, ptr %self.dbg.spill.i6, align 8
  %_0.i5 = ptrtoint ptr %src to i64
  store i64 %_0.i5, ptr %src_usize.dbg.spill, align 8
  store ptr %dst, ptr %self.dbg.spill.i, align 8
  store ptr %dst, ptr %self.dbg.spill.i7, align 8
  %_0.i = ptrtoint ptr %dst to i64
  store i64 %_0.i, ptr %dst_usize.dbg.spill, align 8
  %0 = call { i64, i64 } @"_ZN4core3num23_$LT$impl$u20$usize$GT$11checked_mul17h5914abfa7764a031E"(i64 %size, i64 %count)
  %1 = extractvalue { i64, i64 } %0, 0
  %2 = extractvalue { i64, i64 } %0, 1
  store i64 %1, ptr %_9, align 8
  %3 = getelementptr inbounds i8, ptr %_9, i64 8
  store i64 %2, ptr %3, align 8
  %_10 = load i64, ptr %_9, align 8
  %4 = icmp eq i64 %_10, 1
  br i1 %4, label %bb4, label %bb5

bb4:                                              ; preds = %start
  %5 = getelementptr inbounds i8, ptr %_9, i64 8
  %size1 = load i64, ptr %5, align 8
  store i64 %size1, ptr %size.dbg.spill2, align 8
  %diff = call i64 @"_ZN4core3num23_$LT$impl$u20$usize$GT$8abs_diff17ha1f1eb5938a6b296E"(i64 %_0.i5, i64 %_0.i)
  store i64 %diff, ptr %diff.dbg.spill, align 8
  %_0 = icmp uge i64 %diff, %size1
  ret i1 %_0

bb5:                                              ; preds = %start
  call void @_ZN4core9panicking14panic_nounwind17h10cdad4c3e0e432eE(ptr align 1 @alloc_763310d78c99c2c1ad3f8a9821e942f3, i64 61) #29
  unreachable

bb7:                                              ; No predecessors!
  unreachable
}

; Function Attrs: inlinehint nonlazybind uwtable
define internal i64 @"_ZN4core3num23_$LT$impl$u20$usize$GT$8abs_diff17ha1f1eb5938a6b296E"(i64 %self, i64 %other) unnamed_addr #1 {
start:
  %rhs.dbg.spill.i = alloca [4 x i8], align 4
  %self.dbg.spill.i = alloca [4 x i8], align 4
  %other.dbg.spill = alloca [8 x i8], align 8
  %self.dbg.spill = alloca [8 x i8], align 8
  %_0 = alloca [8 x i8], align 8
  store i64 %self, ptr %self.dbg.spill, align 8
  store i64 %other, ptr %other.dbg.spill, align 8
  %0 = icmp eq i64 8, 1
  br i1 %0, label %bb2, label %bb5

bb2:                                              ; preds = %start
  %_6 = trunc i64 %self to i32
  %_7 = trunc i64 %other to i32
  store i32 %_6, ptr %self.dbg.spill.i, align 4
  store i32 %_7, ptr %rhs.dbg.spill.i, align 4
  %_0.i = sub i32 %_6, %_7
  %_4 = call i32 @"_ZN4core3num21_$LT$impl$u20$i32$GT$3abs17h0c04e9abbce82db6E"(i32 %_0.i)
  %1 = sext i32 %_4 to i64
  store i64 %1, ptr %_0, align 8
  br label %bb10

bb5:                                              ; preds = %start
  %_8 = icmp ult i64 %self, %other
  br i1 %_8, label %bb6, label %bb8

bb10:                                             ; preds = %bb7, %bb9, %bb2
  %2 = load i64, ptr %_0, align 8
  ret i64 %2

bb8:                                              ; preds = %bb5
  %_10.0 = sub i64 %self, %other
  %_10.1 = icmp ult i64 %self, %other
  br i1 %_10.1, label %panic, label %bb9

bb6:                                              ; preds = %bb5
  %_9.0 = sub i64 %other, %self
  %_9.1 = icmp ult i64 %other, %self
  br i1 %_9.1, label %panic1, label %bb7

bb9:                                              ; preds = %bb8
  store i64 %_10.0, ptr %_0, align 8
  br label %bb10

panic:                                            ; preds = %bb8
  call void @_ZN4core9panicking11panic_const24panic_const_sub_overflow17h0ddd76be505a9ff6E(ptr align 8 @alloc_ae52e422ab29884b58622d79788975fe) #26
  unreachable

bb7:                                              ; preds = %bb6
  store i64 %_9.0, ptr %_0, align 8
  br label %bb10

panic1:                                           ; preds = %bb6
  call void @_ZN4core9panicking11panic_const24panic_const_sub_overflow17h0ddd76be505a9ff6E(ptr align 8 @alloc_ae52e422ab29884b58622d79788975fe) #26
  unreachable
}

; Function Attrs: inlinehint nonlazybind uwtable
define internal i32 @"_ZN4core3num21_$LT$impl$u20$i32$GT$3abs17h0c04e9abbce82db6E"(i32 %self) unnamed_addr #1 {
start:
  %self.dbg.spill.i = alloca [4 x i8], align 4
  %self.dbg.spill = alloca [4 x i8], align 4
  %_0 = alloca [4 x i8], align 4
  store i32 %self, ptr %self.dbg.spill, align 4
  store i32 %self, ptr %self.dbg.spill.i, align 4
  %_0.i = icmp slt i32 %self, 0
  br i1 %_0.i, label %bb2, label %bb4

bb4:                                              ; preds = %start
  store i32 %self, ptr %_0, align 4
  br label %bb5

bb2:                                              ; preds = %start
  %_3 = icmp eq i32 %self, -2147483648
  br i1 %_3, label %panic, label %bb3

bb5:                                              ; preds = %bb3, %bb4
  %0 = load i32, ptr %_0, align 4
  ret i32 %0

bb3:                                              ; preds = %bb2
  %1 = sub i32 0, %self
  store i32 %1, ptr %_0, align 4
  br label %bb5

panic:                                            ; preds = %bb2
  call void @_ZN4core9panicking11panic_const24panic_const_neg_overflow17h040cfcfef4a22fb1E(ptr align 8 @alloc_ae52e422ab29884b58622d79788975fe) #26
  unreachable
}

; Function Attrs: cold noinline noreturn nonlazybind uwtable
declare void @_ZN4core9panicking11panic_const24panic_const_neg_overflow17h040cfcfef4a22fb1E(ptr align 8) unnamed_addr #4

; Function Attrs: inlinehint nonlazybind uwtable
define internal i64 @_ZN9hashbrown3raw2h117h2cd87007ccb0a1d6E(i64 %hash) unnamed_addr #1 {
start:
  %hash.dbg.spill = alloca [8 x i8], align 8
  store i64 %hash, ptr %hash.dbg.spill, align 8
  ret i64 %hash
}

; Function Attrs: nonlazybind uwtable
define internal align 1 ptr @"_ZN9hashbrown11rustc_entry35RustcOccupiedEntry$LT$K$C$V$C$A$GT$8into_mut17h3c226434b24392b6E"(ptr %0, ptr align 8 %1) unnamed_addr #0 {
start:
  %self = alloca [16 x i8], align 8
  store ptr %0, ptr %self, align 8
  %2 = getelementptr inbounds i8, ptr %self, i64 8
  store ptr %1, ptr %2, align 8
  %_2 = call align 8 ptr @"_ZN9hashbrown3raw15Bucket$LT$T$GT$6as_mut17h7e1a111771535742E"(ptr align 8 %self)
  %_0 = getelementptr inbounds i8, ptr %_2, i64 8
  ret ptr %_0
}

; Function Attrs: nonlazybind uwtable
define internal void @"_ZN5redis8commands33_$LT$impl$u20$redis..cmd..Cmd$GT$4zadd17hce6d593a88d7dd3bE"(ptr sret([64 x i8]) align 8 %_0, ptr align 1 %key.0, i64 %key.1, ptr align 1 %member.0, i64 %member.1, i64 %score) unnamed_addr #0 personality ptr @rust_eh_personality {
start:
  %0 = alloca [16 x i8], align 8
  %score.dbg.spill = alloca [8 x i8], align 8
  %member.dbg.spill = alloca [16 x i8], align 8
  %key.dbg.spill = alloca [16 x i8], align 8
  %_16 = alloca [1 x i8], align 1
  %_15 = alloca [1 x i8], align 1
  %_14 = alloca [1 x i8], align 1
  %_13 = alloca [64 x i8], align 8
  %_8 = alloca [64 x i8], align 8
  store ptr %key.0, ptr %key.dbg.spill, align 8
  %1 = getelementptr inbounds i8, ptr %key.dbg.spill, i64 8
  store i64 %key.1, ptr %1, align 8
  store ptr %member.0, ptr %member.dbg.spill, align 8
  %2 = getelementptr inbounds i8, ptr %member.dbg.spill, i64 8
  store i64 %member.1, ptr %2, align 8
  store i64 %score, ptr %score.dbg.spill, align 8
  store i8 0, ptr %_16, align 1
  store i8 0, ptr %_15, align 1
  store i8 0, ptr %_14, align 1
  store i8 1, ptr %_16, align 1
  store i8 1, ptr %_15, align 1
  store i8 1, ptr %_14, align 1
  invoke void @_ZN5redis3cmd3cmd17h66414958ef32fd3aE(ptr sret([64 x i8]) align 8 %_8, ptr align 1 @alloc_0cb72a07695959c068f18d616edf8a21, i64 4)
          to label %bb1 unwind label %cleanup

bb13:                                             ; preds = %bb8, %cleanup
  %3 = load i8, ptr %_14, align 1
  %4 = trunc i8 %3 to i1
  br i1 %4, label %bb12, label %bb9

cleanup:                                          ; preds = %bb6, %start
  %5 = landingpad { ptr, i32 }
          cleanup
  %6 = extractvalue { ptr, i32 } %5, 0
  %7 = extractvalue { ptr, i32 } %5, 1
  store ptr %6, ptr %0, align 8
  %8 = getelementptr inbounds i8, ptr %0, i64 8
  store i32 %7, ptr %8, align 8
  br label %bb13

bb1:                                              ; preds = %start
  store i8 0, ptr %_16, align 1
  %_6 = invoke align 8 ptr @_ZN5redis3cmd3Cmd3arg17hcb81886e3e86c659E(ptr align 8 %_8, ptr align 1 %key.0, i64 %key.1)
          to label %bb2 unwind label %cleanup1

bb8:                                              ; preds = %cleanup1
  invoke void @"_ZN4core3ptr36drop_in_place$LT$redis..cmd..Cmd$GT$17haf26fe8290e1cfe0E"(ptr align 8 %_8) #25
          to label %bb13 unwind label %terminate

cleanup1:                                         ; preds = %bb5, %bb4, %bb3, %bb2, %bb1
  %9 = landingpad { ptr, i32 }
          cleanup
  %10 = extractvalue { ptr, i32 } %9, 0
  %11 = extractvalue { ptr, i32 } %9, 1
  store ptr %10, ptr %0, align 8
  %12 = getelementptr inbounds i8, ptr %0, i64 8
  store i32 %11, ptr %12, align 8
  br label %bb8

bb2:                                              ; preds = %bb1
  store i8 0, ptr %_14, align 1
  %_5 = invoke align 8 ptr @_ZN5redis3cmd3Cmd3arg17h956c8b815d2e49d6E(ptr align 8 %_6, i64 %score)
          to label %bb3 unwind label %cleanup1

bb3:                                              ; preds = %bb2
  store i8 0, ptr %_15, align 1
  %_4 = invoke align 8 ptr @_ZN5redis3cmd3Cmd3arg17hcb81886e3e86c659E(ptr align 8 %_5, ptr align 1 %member.0, i64 %member.1)
          to label %bb4 unwind label %cleanup1

bb4:                                              ; preds = %bb3
  invoke void @_ZN5redis3cmd3Cmd3new17h48cc34450d9ec3c9E(ptr sret([64 x i8]) align 8 %_13)
          to label %bb5 unwind label %cleanup1

bb5:                                              ; preds = %bb4
  invoke void @_ZN4core3mem7replace17hf1e35fcef2bb0a5cE(ptr sret([64 x i8]) align 8 %_0, ptr align 8 %_4, ptr align 8 %_13)
          to label %bb6 unwind label %cleanup1

bb6:                                              ; preds = %bb5
  invoke void @"_ZN4core3ptr36drop_in_place$LT$redis..cmd..Cmd$GT$17haf26fe8290e1cfe0E"(ptr align 8 %_8)
          to label %bb7 unwind label %cleanup

bb7:                                              ; preds = %bb6
  ret void

terminate:                                        ; preds = %bb8
  %13 = landingpad { ptr, i32 }
          filter [0 x ptr] zeroinitializer
  %14 = extractvalue { ptr, i32 } %13, 0
  %15 = extractvalue { ptr, i32 } %13, 1
  call void @_ZN4core9panicking16panic_in_cleanup17hdb19dc6496e5af6eE() #27
  unreachable

bb9:                                              ; preds = %bb12, %bb13
  %16 = load i8, ptr %_15, align 1
  %17 = trunc i8 %16 to i1
  br i1 %17, label %bb14, label %bb10

bb12:                                             ; preds = %bb13
  br label %bb9

bb10:                                             ; preds = %bb14, %bb9
  %18 = load i8, ptr %_16, align 1
  %19 = trunc i8 %18 to i1
  br i1 %19, label %bb15, label %bb11

bb14:                                             ; preds = %bb9
  br label %bb10

bb11:                                             ; preds = %bb15, %bb10
  %20 = load ptr, ptr %0, align 8
  %21 = getelementptr inbounds i8, ptr %0, i64 8
  %22 = load i32, ptr %21, align 8
  %23 = insertvalue { ptr, i32 } poison, ptr %20, 0
  %24 = insertvalue { ptr, i32 } %23, i32 %22, 1
  resume { ptr, i32 } %24

bb15:                                             ; preds = %bb10
  br label %bb11
}

; Function Attrs: inlinehint nonlazybind uwtable
define internal void @_ZN5redis3cmd3Cmd5query17hdbb34aa52f057535E(ptr sret([56 x i8]) align 8 %_0, ptr align 8 %self, ptr align 1 %con.0, ptr align 8 %con.1) unnamed_addr #1 {
start:
  %con.dbg.spill = alloca [16 x i8], align 8
  %self.dbg.spill = alloca [8 x i8], align 8
  %e = alloca [56 x i8], align 8
  %val = alloca [32 x i8], align 8
  %_3 = alloca [56 x i8], align 8
  store ptr %self, ptr %self.dbg.spill, align 8
  store ptr %con.0, ptr %con.dbg.spill, align 8
  %0 = getelementptr inbounds i8, ptr %con.dbg.spill, i64 8
  store ptr %con.1, ptr %0, align 8
  %1 = getelementptr inbounds i8, ptr %con.1, i64 40
  %2 = load ptr, ptr %1, align 8, !invariant.load !6, !nonnull !6
  call void %2(ptr sret([56 x i8]) align 8 %_3, ptr align 1 %con.0, ptr align 8 %self)
  %3 = load i8, ptr %_3, align 8
  %4 = icmp eq i8 %3, 4
  %_4 = select i1 %4, i64 0, i64 1
  %5 = icmp eq i64 %_4, 0
  br i1 %5, label %bb4, label %bb3

bb4:                                              ; preds = %start
  %6 = getelementptr inbounds i8, ptr %_3, i64 8
  call void @llvm.memcpy.p0.p0.i64(ptr align 8 %val, ptr align 8 %6, i64 32, i1 false)
  call void @_ZN5redis5types22from_owned_redis_value17h78526df86edf04f5E(ptr sret([56 x i8]) align 8 %_0, ptr align 8 %val)
  br label %bb5

bb3:                                              ; preds = %start
  call void @llvm.memcpy.p0.p0.i64(ptr align 8 %e, ptr align 8 %_3, i64 56, i1 false)
  call void @llvm.memcpy.p0.p0.i64(ptr align 8 %_0, ptr align 8 %e, i64 56, i1 false)
  br label %bb5

bb5:                                              ; preds = %bb3, %bb4
  ret void

bb2:                                              ; No predecessors!
  unreachable
}

; Function Attrs: nonlazybind uwtable
declare void @"_ZN4core3ptr36drop_in_place$LT$redis..cmd..Cmd$GT$17haf26fe8290e1cfe0E"(ptr align 8) unnamed_addr #0

; Function Attrs: nonlazybind uwtable
declare void @_ZN5redis5types22from_owned_redis_value17h78526df86edf04f5E(ptr sret([56 x i8]) align 8, ptr align 8) unnamed_addr #0

; Function Attrs: nonlazybind uwtable
declare void @"_ZN83_$LT$redis..connection..Connection$u20$as$u20$redis..connection..ConnectionLike$GT$18req_packed_command17hde1385571231445cE"(ptr sret([56 x i8]) align 8, ptr align 8, ptr align 1, i64) unnamed_addr #0

; Function Attrs: nonlazybind uwtable
declare void @"_ZN83_$LT$redis..connection..Connection$u20$as$u20$redis..connection..ConnectionLike$GT$19req_packed_commands17h85062ff3c14e84b7E"(ptr sret([56 x i8]) align 8, ptr align 8, ptr align 1, i64, i64, i64) unnamed_addr #0

; Function Attrs: nonlazybind uwtable
declare void @_ZN5redis10connection14ConnectionLike11req_command17h7d133c755e3b65b2E(ptr sret([56 x i8]) align 8, ptr align 8, ptr align 8) unnamed_addr #0

; Function Attrs: nonlazybind uwtable
declare i64 @"_ZN83_$LT$redis..connection..Connection$u20$as$u20$redis..connection..ConnectionLike$GT$6get_db17he1ce2b7b4cf61cf0E"(ptr align 8) unnamed_addr #0

; Function Attrs: nonlazybind uwtable
declare zeroext i1 @_ZN5redis10connection14ConnectionLike19supports_pipelining17h21274db15e868653E(ptr align 8) unnamed_addr #0

; Function Attrs: nonlazybind uwtable
declare zeroext i1 @"_ZN83_$LT$redis..connection..Connection$u20$as$u20$redis..connection..ConnectionLike$GT$16check_connection17hfeb92bb1a290b423E"(ptr align 8) unnamed_addr #0

; Function Attrs: nonlazybind uwtable
declare zeroext i1 @"_ZN83_$LT$redis..connection..Connection$u20$as$u20$redis..connection..ConnectionLike$GT$7is_open17he61200cbc55683eeE"(ptr align 8) unnamed_addr #0

; Function Attrs: nonlazybind uwtable
declare void @_ZN5redis3cmd3cmd17h66414958ef32fd3aE(ptr sret([64 x i8]) align 8, ptr align 1, i64) unnamed_addr #0

; Function Attrs: inlinehint nonlazybind uwtable
declare align 8 ptr @_ZN5redis3cmd3Cmd3arg17hcb81886e3e86c659E(ptr align 8, ptr align 1, i64) unnamed_addr #1

; Function Attrs: inlinehint nonlazybind uwtable
declare align 8 ptr @_ZN5redis3cmd3Cmd3arg17h956c8b815d2e49d6E(ptr align 8, i64) unnamed_addr #1

; Function Attrs: nonlazybind uwtable
declare void @_ZN5redis3cmd3Cmd3new17h48cc34450d9ec3c9E(ptr sret([64 x i8]) align 8) unnamed_addr #0

; Function Attrs: inlinehint nonlazybind uwtable
declare void @_ZN4core3mem7replace17hf1e35fcef2bb0a5cE(ptr sret([64 x i8]) align 8, ptr align 8, ptr align 8) unnamed_addr #1

; Function Attrs: nonlazybind uwtable
declare void @"_ZN5alloc3vec16Vec$LT$T$C$A$GT$17extend_from_slice17h68a1896fb61e402dE"(ptr align 8, ptr align 1, i64, ptr align 8) unnamed_addr #0

; Function Attrs: inlinehint nonlazybind uwtable
define internal void @"_ZN49_$LT$T$u20$as$u20$alloc..string..SpecToString$GT$14spec_to_string17heb64d1ff4bd39cafE"(ptr sret([24 x i8]) align 8 %_0, ptr align 8 %self) unnamed_addr #1 personality ptr @rust_eh_personality {
start:
  %0 = alloca [16 x i8], align 8
  %self.dbg.spill = alloca [8 x i8], align 8
  %_6 = alloca [48 x i8], align 8
  %formatter = alloca [64 x i8], align 8
  %buf = alloca [24 x i8], align 8
  store ptr %self, ptr %self.dbg.spill, align 8
  call void @_ZN5alloc6string6String3new17hcd5f6d8c5b5e6ca2E(ptr sret([24 x i8]) align 8 %buf)
  invoke void @_ZN4core3fmt17FormattingOptions3new17ha444a4cb39d6c553E(ptr sret([48 x i8]) align 8 %_6)
          to label %bb2 unwind label %cleanup

bb6:                                              ; preds = %cleanup
  invoke void @"_ZN4core3ptr42drop_in_place$LT$alloc..string..String$GT$17hb3b04e371e33c46dE"(ptr align 8 %buf) #25
          to label %bb7 unwind label %terminate

cleanup:                                          ; preds = %bb4, %bb3, %bb2, %start
  %1 = landingpad { ptr, i32 }
          cleanup
  %2 = extractvalue { ptr, i32 } %1, 0
  %3 = extractvalue { ptr, i32 } %1, 1
  store ptr %2, ptr %0, align 8
  %4 = getelementptr inbounds i8, ptr %0, i64 8
  store i32 %3, ptr %4, align 8
  br label %bb6

bb2:                                              ; preds = %start
  invoke void @_ZN4core3fmt9Formatter3new17h8cbabc95ae27620bE(ptr sret([64 x i8]) align 8 %formatter, ptr align 1 %buf, ptr align 8 @vtable.4, ptr align 8 %_6)
          to label %bb3 unwind label %cleanup

bb3:                                              ; preds = %bb2
  %_8 = invoke zeroext i1 @"_ZN4core3fmt3num3imp52_$LT$impl$u20$core..fmt..Display$u20$for$u20$i64$GT$3fmt17h2150f7d47f4e8d3aE"(ptr align 8 %self, ptr align 8 %formatter)
          to label %bb4 unwind label %cleanup

bb4:                                              ; preds = %bb3
  invoke void @"_ZN4core6result19Result$LT$T$C$E$GT$6expect17hf9f52bd580bd42eeE"(i1 zeroext %_8, ptr align 1 @alloc_cc656815297f75969399c3f4b1ad3de4, i64 55, ptr align 8 @alloc_ae52e422ab29884b58622d79788975fe)
          to label %bb5 unwind label %cleanup

bb5:                                              ; preds = %bb4
  call void @llvm.memcpy.p0.p0.i64(ptr align 8 %_0, ptr align 8 %buf, i64 24, i1 false)
  ret void

terminate:                                        ; preds = %bb6
  %5 = landingpad { ptr, i32 }
          filter [0 x ptr] zeroinitializer
  %6 = extractvalue { ptr, i32 } %5, 0
  %7 = extractvalue { ptr, i32 } %5, 1
  call void @_ZN4core9panicking16panic_in_cleanup17hdb19dc6496e5af6eE() #27
  unreachable

bb7:                                              ; preds = %bb6
  %8 = load ptr, ptr %0, align 8
  %9 = getelementptr inbounds i8, ptr %0, i64 8
  %10 = load i32, ptr %9, align 8
  %11 = insertvalue { ptr, i32 } poison, ptr %8, 0
  %12 = insertvalue { ptr, i32 } %11, i32 %10, 1
  resume { ptr, i32 } %12
}

; Function Attrs: inlinehint nonlazybind uwtable
define internal void @_ZN5alloc6string6String3new17hcd5f6d8c5b5e6ca2E(ptr sret([24 x i8]) align 8 %_0) unnamed_addr #1 {
start:
  %_1 = alloca [24 x i8], align 8
  call void @"_ZN5alloc3vec12Vec$LT$T$GT$3new17h8924114e7e6472edE"(ptr sret([24 x i8]) align 8 %_1)
  call void @llvm.memcpy.p0.p0.i64(ptr align 8 %_0, ptr align 8 %_1, i64 24, i1 false)
  ret void
}

; Function Attrs: nonlazybind uwtable
declare void @_ZN4core3fmt17FormattingOptions3new17ha444a4cb39d6c553E(ptr sret([48 x i8]) align 8) unnamed_addr #0

; Function Attrs: nonlazybind uwtable
declare void @_ZN4core3fmt9Formatter3new17h8cbabc95ae27620bE(ptr sret([64 x i8]) align 8, ptr align 1, ptr align 8, ptr align 8) unnamed_addr #0

; Function Attrs: nonlazybind uwtable
declare zeroext i1 @"_ZN4core3fmt3num3imp52_$LT$impl$u20$core..fmt..Display$u20$for$u20$i64$GT$3fmt17h2150f7d47f4e8d3aE"(ptr align 8, ptr align 8) unnamed_addr #0

; Function Attrs: inlinehint nonlazybind uwtable
declare void @"_ZN4core6result19Result$LT$T$C$E$GT$6expect17hf9f52bd580bd42eeE"(i1 zeroext, ptr align 1, i64, ptr align 8) unnamed_addr #1

; Function Attrs: inlinehint nonlazybind uwtable
define internal zeroext i1 @"_ZN58_$LT$alloc..string..String$u20$as$u20$core..fmt..Write$GT$9write_str17h3a551256ee4051caE"(ptr align 8 %self, ptr align 1 %s.0, i64 %s.1) unnamed_addr #1 {
start:
  %s.dbg.spill = alloca [16 x i8], align 8
  %self.dbg.spill = alloca [8 x i8], align 8
  %_0 = alloca [1 x i8], align 1
  store ptr %self, ptr %self.dbg.spill, align 8
  store ptr %s.0, ptr %s.dbg.spill, align 8
  %0 = getelementptr inbounds i8, ptr %s.dbg.spill, i64 8
  store i64 %s.1, ptr %0, align 8
  call void @_ZN5alloc6string6String8push_str17haf09e02ef8780e21E(ptr align 8 %self, ptr align 1 %s.0, i64 %s.1)
  store i8 0, ptr %_0, align 1
  %1 = load i8, ptr %_0, align 1
  %2 = trunc i8 %1 to i1
  ret i1 %2
}

; Function Attrs: inlinehint nonlazybind uwtable
define internal zeroext i1 @"_ZN58_$LT$alloc..string..String$u20$as$u20$core..fmt..Write$GT$10write_char17hc6a16cabe14e0131E"(ptr align 8 %self, i32 %c) unnamed_addr #1 {
start:
  %c.dbg.spill = alloca [4 x i8], align 4
  %self.dbg.spill = alloca [8 x i8], align 8
  %_0 = alloca [1 x i8], align 1
  store ptr %self, ptr %self.dbg.spill, align 8
  store i32 %c, ptr %c.dbg.spill, align 4
  call void @_ZN5alloc6string6String4push17h7c6d4c5c5b2815ceE(ptr align 8 %self, i32 %c)
  store i8 0, ptr %_0, align 1
  %0 = load i8, ptr %_0, align 1
  %1 = trunc i8 %0 to i1
  ret i1 %1
}

; Function Attrs: nonlazybind uwtable
declare zeroext i1 @_ZN4core3fmt5Write9write_fmt17h6894637872bcf126E(ptr align 8, ptr align 8) unnamed_addr #0

; Function Attrs: inlinehint nonlazybind uwtable
define internal void @_ZN5alloc6string6String4push17h7c6d4c5c5b2815ceE(ptr align 8 %self, i32 %ch) unnamed_addr #1 {
start:
  %self.dbg.spill.i = alloca [16 x i8], align 8
  %ch.dbg.spill = alloca [4 x i8], align 4
  %self.dbg.spill = alloca [8 x i8], align 8
  %_12 = alloca [4 x i8], align 1
  store ptr %self, ptr %self.dbg.spill, align 8
  store i32 %ch, ptr %ch.dbg.spill, align 4
  %_3 = call i64 @"_ZN4core4char7methods22_$LT$impl$u20$char$GT$8len_utf817he52a725898b086bdE"(i32 %ch)
  %0 = icmp eq i64 %_3, 1
  br i1 %0, label %bb3, label %bb2

bb3:                                              ; preds = %start
  %_5 = trunc i32 %ch to i8
  call void @"_ZN5alloc3vec16Vec$LT$T$C$A$GT$4push17hbad66fed7eeba908E"(ptr align 8 %self, i8 %_5, ptr align 8 @alloc_ae52e422ab29884b58622d79788975fe)
  br label %bb6

bb2:                                              ; preds = %start
  call void @llvm.memset.p0.i64(ptr align 1 %_12, i8 0, i64 4, i1 false)
  %1 = call { ptr, i64 } @"_ZN4core4char7methods22_$LT$impl$u20$char$GT$11encode_utf817h379a6a7713c6c4b7E"(i32 %ch, ptr align 1 %_12, i64 4)
  %_9.0 = extractvalue { ptr, i64 } %1, 0
  %_9.1 = extractvalue { ptr, i64 } %1, 1
  store ptr %_9.0, ptr %self.dbg.spill.i, align 8
  %2 = getelementptr inbounds i8, ptr %self.dbg.spill.i, i64 8
  store i64 %_9.1, ptr %2, align 8
  %_7.0 = extractvalue { ptr, i64 } %1, 0
  %_7.1 = extractvalue { ptr, i64 } %1, 1
  call void @"_ZN5alloc3vec16Vec$LT$T$C$A$GT$17extend_from_slice17h68a1896fb61e402dE"(ptr align 8 %self, ptr align 1 %_7.0, i64 %_7.1, ptr align 8 @alloc_ae52e422ab29884b58622d79788975fe)
  br label %bb6

bb6:                                              ; preds = %bb2, %bb3
  ret void
}

; Function Attrs: inlinehint nonlazybind uwtable
define internal i64 @"_ZN4core4char7methods22_$LT$impl$u20$char$GT$8len_utf817he52a725898b086bdE"(i32 %self) unnamed_addr #1 {
start:
  %self.dbg.spill = alloca [4 x i8], align 4
  store i32 %self, ptr %self.dbg.spill, align 4
  %_0 = call i64 @_ZN4core4char7methods8len_utf817h03d04e8244154136E(i32 %self)
  ret i64 %_0
}

; Function Attrs: inlinehint nonlazybind uwtable
declare void @"_ZN5alloc3vec16Vec$LT$T$C$A$GT$4push17hbad66fed7eeba908E"(ptr align 8, i8, ptr align 8) unnamed_addr #1

; Function Attrs: nocallback nofree nounwind willreturn memory(argmem: write)
declare void @llvm.memset.p0.i64(ptr nocapture writeonly, i8, i64, i1 immarg) #12

; Function Attrs: inlinehint nonlazybind uwtable
define internal { ptr, i64 } @"_ZN4core4char7methods22_$LT$impl$u20$char$GT$11encode_utf817h379a6a7713c6c4b7E"(i32 %self, ptr align 1 %dst.0, i64 %dst.1) unnamed_addr #1 {
start:
  %dst.dbg.spill = alloca [16 x i8], align 8
  %self.dbg.spill = alloca [4 x i8], align 4
  store i32 %self, ptr %self.dbg.spill, align 4
  store ptr %dst.0, ptr %dst.dbg.spill, align 8
  %0 = getelementptr inbounds i8, ptr %dst.dbg.spill, i64 8
  store i64 %dst.1, ptr %0, align 8
  %1 = call { ptr, i64 } @_ZN4core4char7methods15encode_utf8_raw17hc59a87c3df30b759E(i32 %self, ptr align 1 %dst.0, i64 %dst.1)
  %_3.0 = extractvalue { ptr, i64 } %1, 0
  %_3.1 = extractvalue { ptr, i64 } %1, 1
  %2 = call { ptr, i64 } @_ZN4core3str8converts23from_utf8_unchecked_mut17h29e271cd4cc74174E(ptr align 1 %_3.0, i64 %_3.1)
  %_0.0 = extractvalue { ptr, i64 } %2, 0
  %_0.1 = extractvalue { ptr, i64 } %2, 1
  %3 = insertvalue { ptr, i64 } poison, ptr %_0.0, 0
  %4 = insertvalue { ptr, i64 } %3, i64 %_0.1, 1
  ret { ptr, i64 } %4
}

; Function Attrs: inlinehint nonlazybind uwtable
define internal { ptr, i64 } @_ZN4core4char7methods15encode_utf8_raw17hc59a87c3df30b759E(i32 %code, ptr align 1 %dst.0, i64 %dst.1) unnamed_addr #1 {
start:
  %self.dbg.spill.i = alloca [16 x i8], align 8
  %dst_len.dbg.spill.i = alloca [8 x i8], align 8
  %len.dbg.spill.i = alloca [8 x i8], align 8
  %code.dbg.spill.i = alloca [4 x i8], align 4
  %_4.i = alloca [24 x i8], align 8
  %d.dbg.spill = alloca [8 x i8], align 8
  %c.dbg.spill12 = alloca [8 x i8], align 8
  %b.dbg.spill10 = alloca [8 x i8], align 8
  %a.dbg.spill8 = alloca [8 x i8], align 8
  %c.dbg.spill = alloca [8 x i8], align 8
  %b.dbg.spill6 = alloca [8 x i8], align 8
  %a.dbg.spill4 = alloca [8 x i8], align 8
  %b.dbg.spill = alloca [8 x i8], align 8
  %a.dbg.spill2 = alloca [8 x i8], align 8
  %a.dbg.spill = alloca [8 x i8], align 8
  %len.dbg.spill = alloca [8 x i8], align 8
  %dst.dbg.spill = alloca [16 x i8], align 8
  %code.dbg.spill = alloca [4 x i8], align 4
  %_4 = alloca [24 x i8], align 8
  store i32 %code, ptr %code.dbg.spill, align 4
  store ptr %dst.0, ptr %dst.dbg.spill, align 8
  %0 = getelementptr inbounds i8, ptr %dst.dbg.spill, i64 8
  store i64 %dst.1, ptr %0, align 8
  %len = call i64 @_ZN4core4char7methods8len_utf817h03d04e8244154136E(i32 %code)
  store i64 %len, ptr %len.dbg.spill, align 8
  store i64 %len, ptr %_4, align 8
  %1 = getelementptr inbounds i8, ptr %_4, i64 8
  store ptr %dst.0, ptr %1, align 8
  %2 = getelementptr inbounds i8, ptr %1, i64 8
  store i64 %dst.1, ptr %2, align 8
  %3 = load i64, ptr %_4, align 8
  switch i64 %3, label %bb2 [
    i64 1, label %bb3
    i64 2, label %bb4
    i64 3, label %bb5
    i64 4, label %bb6
  ]

bb2:                                              ; preds = %bb6, %bb5, %bb4, %bb3, %start
  store i32 %code, ptr %code.dbg.spill.i, align 4
  store i64 %len, ptr %len.dbg.spill.i, align 8
  store i64 %dst.1, ptr %dst_len.dbg.spill.i, align 8
  %4 = getelementptr inbounds i8, ptr %_4.i, i64 8
  store i32 %code, ptr %4, align 8
  store i64 %len, ptr %_4.i, align 8
  %5 = getelementptr inbounds i8, ptr %_4.i, i64 16
  store i64 %dst.1, ptr %5, align 8
  %6 = getelementptr inbounds i8, ptr %_4.i, i64 8
  %7 = load i32, ptr %6, align 8
  %8 = load i64, ptr %_4.i, align 8
  %9 = getelementptr inbounds i8, ptr %_4.i, i64 16
  %10 = load i64, ptr %9, align 8
  call void @_ZN4core4char7methods15encode_utf8_raw8do_panic7runtime17hbf68836ce6eb4de5E(i32 %7, i64 %8, i64 %10, ptr align 8 @alloc_ae52e422ab29884b58622d79788975fe) #26
  unreachable

_ZN4core4char7methods15encode_utf8_raw8do_panic17h0548cb2b8fe85bd6E.exit: ; No predecessors!
  unreachable

bb3:                                              ; preds = %start
  %11 = getelementptr inbounds i8, ptr %_4, i64 8
  %_67.0 = load ptr, ptr %11, align 8
  %12 = getelementptr inbounds i8, ptr %11, i64 8
  %_67.1 = load i64, ptr %12, align 8
  %_7 = icmp uge i64 %_67.1, 1
  br i1 %_7, label %bb10, label %bb2

bb4:                                              ; preds = %start
  %13 = getelementptr inbounds i8, ptr %_4, i64 8
  %_68.0 = load ptr, ptr %13, align 8
  %14 = getelementptr inbounds i8, ptr %13, i64 8
  %_68.1 = load i64, ptr %14, align 8
  %_10 = icmp uge i64 %_68.1, 2
  br i1 %_10, label %bb9, label %bb2

bb5:                                              ; preds = %start
  %15 = getelementptr inbounds i8, ptr %_4, i64 8
  %_69.0 = load ptr, ptr %15, align 8
  %16 = getelementptr inbounds i8, ptr %15, i64 8
  %_69.1 = load i64, ptr %16, align 8
  %_13 = icmp uge i64 %_69.1, 3
  br i1 %_13, label %bb8, label %bb2

bb6:                                              ; preds = %start
  %17 = getelementptr inbounds i8, ptr %_4, i64 8
  %_70.0 = load ptr, ptr %17, align 8
  %18 = getelementptr inbounds i8, ptr %17, i64 8
  %_70.1 = load i64, ptr %18, align 8
  %_16 = icmp uge i64 %_70.1, 4
  br i1 %_16, label %bb7, label %bb2

bb10:                                             ; preds = %bb3
  %19 = getelementptr inbounds i8, ptr %_4, i64 8
  %_80.0 = load ptr, ptr %19, align 8
  %20 = getelementptr inbounds i8, ptr %19, i64 8
  %_80.1 = load i64, ptr %20, align 8
  %a = getelementptr inbounds i8, ptr %_80.0, i64 0
  store ptr %a, ptr %a.dbg.spill, align 8
  %21 = trunc i32 %code to i8
  store i8 %21, ptr %a, align 1
  br label %bb17

bb17:                                             ; preds = %bb7, %bb8, %bb9, %bb10
  store ptr %dst.0, ptr %self.dbg.spill.i, align 8
  %22 = getelementptr inbounds i8, ptr %self.dbg.spill.i, i64 8
  store i64 %dst.1, ptr %22, align 8
  %23 = call { ptr, i64 } @_ZN4core5slice3raw18from_raw_parts_mut17h04c2a3ca26b8fc80E(ptr %dst.0, i64 %len)
  %_0.0 = extractvalue { ptr, i64 } %23, 0
  %_0.1 = extractvalue { ptr, i64 } %23, 1
  %24 = insertvalue { ptr, i64 } poison, ptr %_0.0, 0
  %25 = insertvalue { ptr, i64 } %24, i64 %_0.1, 1
  ret { ptr, i64 } %25

bb9:                                              ; preds = %bb4
  %26 = getelementptr inbounds i8, ptr %_4, i64 8
  %_78.0 = load ptr, ptr %26, align 8
  %27 = getelementptr inbounds i8, ptr %26, i64 8
  %_78.1 = load i64, ptr %27, align 8
  %a1 = getelementptr inbounds i8, ptr %_78.0, i64 0
  store ptr %a1, ptr %a.dbg.spill2, align 8
  %28 = getelementptr inbounds i8, ptr %_4, i64 8
  %_79.0 = load ptr, ptr %28, align 8
  %29 = getelementptr inbounds i8, ptr %28, i64 8
  %_79.1 = load i64, ptr %29, align 8
  %b = getelementptr inbounds i8, ptr %_79.0, i64 1
  store ptr %b, ptr %b.dbg.spill, align 8
  %_22 = lshr i32 %code, 6
  %_21 = and i32 %_22, 31
  %_20 = trunc i32 %_21 to i8
  %30 = or i8 %_20, -64
  store i8 %30, ptr %a1, align 1
  %_26 = and i32 %code, 63
  %_25 = trunc i32 %_26 to i8
  %31 = or i8 %_25, -128
  store i8 %31, ptr %b, align 1
  br label %bb17

bb8:                                              ; preds = %bb5
  %32 = getelementptr inbounds i8, ptr %_4, i64 8
  %_75.0 = load ptr, ptr %32, align 8
  %33 = getelementptr inbounds i8, ptr %32, i64 8
  %_75.1 = load i64, ptr %33, align 8
  %a3 = getelementptr inbounds i8, ptr %_75.0, i64 0
  store ptr %a3, ptr %a.dbg.spill4, align 8
  %34 = getelementptr inbounds i8, ptr %_4, i64 8
  %_76.0 = load ptr, ptr %34, align 8
  %35 = getelementptr inbounds i8, ptr %34, i64 8
  %_76.1 = load i64, ptr %35, align 8
  %b5 = getelementptr inbounds i8, ptr %_76.0, i64 1
  store ptr %b5, ptr %b.dbg.spill6, align 8
  %36 = getelementptr inbounds i8, ptr %_4, i64 8
  %_77.0 = load ptr, ptr %36, align 8
  %37 = getelementptr inbounds i8, ptr %36, i64 8
  %_77.1 = load i64, ptr %37, align 8
  %c = getelementptr inbounds i8, ptr %_77.0, i64 2
  store ptr %c, ptr %c.dbg.spill, align 8
  %_32 = lshr i32 %code, 12
  %_31 = and i32 %_32, 15
  %_30 = trunc i32 %_31 to i8
  %38 = or i8 %_30, -32
  store i8 %38, ptr %a3, align 1
  %_37 = lshr i32 %code, 6
  %_36 = and i32 %_37, 63
  %_35 = trunc i32 %_36 to i8
  %39 = or i8 %_35, -128
  store i8 %39, ptr %b5, align 1
  %_41 = and i32 %code, 63
  %_40 = trunc i32 %_41 to i8
  %40 = or i8 %_40, -128
  store i8 %40, ptr %c, align 1
  br label %bb17

bb7:                                              ; preds = %bb6
  %41 = getelementptr inbounds i8, ptr %_4, i64 8
  %_71.0 = load ptr, ptr %41, align 8
  %42 = getelementptr inbounds i8, ptr %41, i64 8
  %_71.1 = load i64, ptr %42, align 8
  %a7 = getelementptr inbounds i8, ptr %_71.0, i64 0
  store ptr %a7, ptr %a.dbg.spill8, align 8
  %43 = getelementptr inbounds i8, ptr %_4, i64 8
  %_72.0 = load ptr, ptr %43, align 8
  %44 = getelementptr inbounds i8, ptr %43, i64 8
  %_72.1 = load i64, ptr %44, align 8
  %b9 = getelementptr inbounds i8, ptr %_72.0, i64 1
  store ptr %b9, ptr %b.dbg.spill10, align 8
  %45 = getelementptr inbounds i8, ptr %_4, i64 8
  %_73.0 = load ptr, ptr %45, align 8
  %46 = getelementptr inbounds i8, ptr %45, i64 8
  %_73.1 = load i64, ptr %46, align 8
  %c11 = getelementptr inbounds i8, ptr %_73.0, i64 2
  store ptr %c11, ptr %c.dbg.spill12, align 8
