; ModuleID = 'caller_callee.ll'
source_filename = "llvm-link"
target datalayout = "e-m:e-p270:32:32-p271:32:32-p272:64:64-i64:64-f80:128-n8:16:32:64-S128"
target triple = "x86_64-unknown-linux-gnu"

%"class.std::ios_base::Init" = type { i8 }
%"struct.std::array.22" = type { [400 x i8] }
%"struct.std::array.24" = type { [100 x %"struct.std::array.25"] }
%"struct.std::array.25" = type { [2 x i8] }
%"struct.std::array.26" = type { [79 x %"struct.nlohmann::detail::dtoa_impl::cached_power"] }
%"struct.nlohmann::detail::dtoa_impl::cached_power" = type { i64, i32, i32 }
%"class.nlohmann::basic_json" = type { i8, %"union.nlohmann::basic_json<>::json_value" }
%"union.nlohmann::basic_json<>::json_value" = type { ptr }
%"class.std::initializer_list" = type { ptr, i64 }
%"class.nlohmann::detail::json_ref" = type <{ %"class.nlohmann::basic_json", ptr, i8, [7 x i8] }>
%struct.jsonMsg = type { %"class.std::__cxx11::basic_string", %"class.std::__cxx11::basic_string" }
%"class.std::__cxx11::basic_string" = type { %"union.nlohmann::basic_json<>::json_value", i64, %union.anon }
%union.anon = type { i64, [8 x i8] }
%"class.nlohmann::detail::type_error" = type { %"class.nlohmann::detail::exception" }
%"class.nlohmann::detail::exception" = type { %"union.nlohmann::basic_json<>::json_value", i32, %"class.std::runtime_error" }
%"class.std::runtime_error" = type { %"union.nlohmann::basic_json<>::json_value", %"struct.std::__cow_string" }
%"struct.std::__cow_string" = type { %"union.nlohmann::basic_json<>::json_value" }
%"class.std::vector.16" = type { %"struct.std::_Vector_base.17" }
%"struct.std::_Vector_base.17" = type { %"struct.std::_Vector_base<nlohmann::basic_json<>, std::allocator<nlohmann::basic_json<>>>::_Vector_impl" }
%"struct.std::_Vector_base<nlohmann::basic_json<>, std::allocator<nlohmann::basic_json<>>>::_Vector_impl" = type { %"struct.std::_Vector_base<nlohmann::basic_json<>, std::allocator<nlohmann::basic_json<>>>::_Vector_impl_data" }
%"struct.std::_Vector_base<nlohmann::basic_json<>, std::allocator<nlohmann::basic_json<>>>::_Vector_impl_data" = type { ptr, ptr, ptr }
%"struct.std::pair" = type { %"class.std::__cxx11::basic_string", %"class.nlohmann::basic_json" }
%"class.std::map" = type { %"class.std::_Rb_tree" }
%"class.std::_Rb_tree" = type { %"struct.std::_Rb_tree<std::__cxx11::basic_string<char>, std::pair<const std::__cxx11::basic_string<char>, nlohmann::basic_json<>>, std::_Select1st<std::pair<const std::__cxx11::basic_string<char>, nlohmann::basic_json<>>>, std::less<void>>::_Rb_tree_impl" }
%"struct.std::_Rb_tree<std::__cxx11::basic_string<char>, std::pair<const std::__cxx11::basic_string<char>, nlohmann::basic_json<>>, std::_Select1st<std::pair<const std::__cxx11::basic_string<char>, nlohmann::basic_json<>>>, std::less<void>>::_Rb_tree_impl" = type { %"struct.std::_Rb_tree_key_compare", %"struct.std::_Rb_tree_header" }
%"struct.std::_Rb_tree_key_compare" = type { %"class.std::ios_base::Init" }
%"struct.std::_Rb_tree_header" = type { %"struct.std::_Rb_tree_node_base", i64 }
%"struct.std::_Rb_tree_node_base" = type { i32, ptr, ptr, ptr }
%"struct.std::_Rb_tree_node" = type { %"struct.std::_Rb_tree_node_base", %"struct.__gnu_cxx::__aligned_membuf" }
%"struct.__gnu_cxx::__aligned_membuf" = type { [48 x i8] }
%"class.std::unique_ptr.90" = type { %"class.std::__uniq_ptr_impl.91" }
%"class.std::__uniq_ptr_impl.91" = type { %"class.std::tuple.92" }
%"class.std::tuple.92" = type { %"struct.std::_Tuple_impl.93" }
%"struct.std::_Tuple_impl.93" = type { %"struct.std::_Tuple_impl.94", %"union.nlohmann::basic_json<>::json_value" }
%"struct.std::_Tuple_impl.94" = type { %"struct.std::__cow_string" }
%"struct.std::pair.70" = type <{ %"union.nlohmann::basic_json<>::json_value", i8, [7 x i8] }>
%"struct.std::pair.86" = type { ptr, ptr }
%struct.__va_list_tag = type { i32, i32, ptr, ptr }
%"class.nlohmann::detail::serializer" = type <{ %"class.std::shared_ptr", %"struct.std::array", ptr, i8, i8, %"struct.std::array.3", i8, [5 x i8], %"class.std::__cxx11::basic_string", i32, [4 x i8] }>
%"class.std::shared_ptr" = type { %"class.std::__shared_ptr" }
%"class.std::__shared_ptr" = type { ptr, %"union.nlohmann::basic_json<>::json_value" }
%"struct.std::array" = type { [64 x i8] }
%"struct.std::array.3" = type { [512 x i8] }
%"class.nlohmann::detail::output_adapter" = type { %"class.std::shared_ptr" }
%struct.lconv = type { ptr, ptr, ptr, ptr, ptr, ptr, ptr, ptr, ptr, ptr, i8, i8, i8, i8, i8, i8, i8, i8, i8, i8, i8, i8, i8, i8 }
%"struct.nlohmann::detail::dtoa_impl::boundaries" = type { %"struct.nlohmann::detail::dtoa_impl::diyfp", %"struct.nlohmann::detail::dtoa_impl::diyfp", %"struct.nlohmann::detail::dtoa_impl::diyfp" }
%"struct.nlohmann::detail::dtoa_impl::diyfp" = type <{ i64, i32, [4 x i8] }>
%"class.std::_Sp_counted_base" = type { ptr, i32, i32 }
%"class.std::_Sp_counted_ptr_inplace" = type { %"class.std::_Sp_counted_base", %"class.std::_Sp_counted_ptr_inplace<nlohmann::detail::output_string_adapter<char>, std::allocator<nlohmann::detail::output_string_adapter<char>>, __gnu_cxx::_S_atomic>::_Impl" }
%"class.std::_Sp_counted_ptr_inplace<nlohmann::detail::output_string_adapter<char>, std::allocator<nlohmann::detail::output_string_adapter<char>>, __gnu_cxx::_S_atomic>::_Impl" = type { %"struct.__gnu_cxx::__aligned_buffer" }
%"struct.__gnu_cxx::__aligned_buffer" = type { %"union.std::aligned_storage<16, 8>::type" }
%"union.std::aligned_storage<16, 8>::type" = type { [16 x i8] }
%"class.nlohmann::detail::output_string_adapter" = type { %"union.nlohmann::basic_json<>::json_value", ptr }
%struct.Output = type { %"class.std::__cxx11::basic_string" }

$_ZN8nlohmann6detail8json_refINS_10basic_jsonISt3mapSt6vectorNSt7__cxx1112basic_stringIcSt11char_traitsIcESaIcEEEblmdSaNS_14adl_serializerEEEEC2IJRA4_KcELi0EEEDpOT_ = comdat any

$_ZN8nlohmann6detail8json_refINS_10basic_jsonISt3mapSt6vectorNSt7__cxx1112basic_stringIcSt11char_traitsIcESaIcEEEblmdSaNS_14adl_serializerEEEEC2IJRKSA_ELi0EEEDpOT_ = comdat any

$_ZN8nlohmann6detail8json_refINS_10basic_jsonISt3mapSt6vectorNSt7__cxx1112basic_stringIcSt11char_traitsIcESaIcEEEblmdSaNS_14adl_serializerEEEEC2ESt16initializer_listISD_E = comdat any

$_ZN8nlohmann10basic_jsonISt3mapSt6vectorNSt7__cxx1112basic_stringIcSt11char_traitsIcESaIcEEEblmdSaNS_14adl_serializerEEC2ESt16initializer_listINS_6detail8json_refISA_EEEbNSC_7value_tE = comdat any

$_ZN8nlohmann10basic_jsonISt3mapSt6vectorNSt7__cxx1112basic_stringIcSt11char_traitsIcESaIcEEEblmdSaNS_14adl_serializerEEaSESA_ = comdat any

$_ZN8nlohmann10basic_jsonISt3mapSt6vectorNSt7__cxx1112basic_stringIcSt11char_traitsIcESaIcEEEblmdSaNS_14adl_serializerEED2Ev = comdat any

$_ZN8nlohmann6detail8json_refINS_10basic_jsonISt3mapSt6vectorNSt7__cxx1112basic_stringIcSt11char_traitsIcESaIcEEEblmdSaNS_14adl_serializerEEEED2Ev = comdat any

$_ZNK8nlohmann10basic_jsonISt3mapSt6vectorNSt7__cxx1112basic_stringIcSt11char_traitsIcESaIcEEEblmdSaNS_14adl_serializerEE16assert_invariantEv = comdat any

$_ZN8nlohmann10basic_jsonISt3mapSt6vectorNSt7__cxx1112basic_stringIcSt11char_traitsIcESaIcEEEblmdSaNS_14adl_serializerEE10json_value7destroyENS_6detail7value_tE = comdat any

$_ZNSt6vectorIN8nlohmann10basic_jsonISt3mapS_NSt7__cxx1112basic_stringIcSt11char_traitsIcESaIcEEEblmdSaNS0_14adl_serializerEEESaISA_EEC2Ev = comdat any

$_ZNKSt6vectorIN8nlohmann10basic_jsonISt3mapS_NSt7__cxx1112basic_stringIcSt11char_traitsIcESaIcEEEblmdSaNS0_14adl_serializerEEESaISA_EE4sizeEv = comdat any

$_ZNSt6vectorIN8nlohmann10basic_jsonISt3mapS_NSt7__cxx1112basic_stringIcSt11char_traitsIcESaIcEEEblmdSaNS0_14adl_serializerEEESaISA_EE7reserveEm = comdat any

$_ZNSt6vectorIN8nlohmann10basic_jsonISt3mapS_NSt7__cxx1112basic_stringIcSt11char_traitsIcESaIcEEEblmdSaNS0_14adl_serializerEEESaISA_EE5beginEv = comdat any

$_ZNSt6vectorIN8nlohmann10basic_jsonISt3mapS_NSt7__cxx1112basic_stringIcSt11char_traitsIcESaIcEEEblmdSaNS0_14adl_serializerEEESaISA_EE3endEv = comdat any

$_ZSt13back_inserterISt6vectorIN8nlohmann10basic_jsonISt3mapS0_NSt7__cxx1112basic_stringIcSt11char_traitsIcESaIcEEEblmdSaNS1_14adl_serializerEEESaISB_EEESt20back_insert_iteratorIT_ERSF_ = comdat any

$_ZSt4moveIN9__gnu_cxx17__normal_iteratorIPN8nlohmann10basic_jsonISt3mapSt6vectorNSt7__cxx1112basic_stringIcSt11char_traitsIcESaIcEEEblmdSaNS2_14adl_serializerEEES5_ISD_SaISD_EEEESt20back_insert_iteratorISG_EET0_T_SL_SK_ = comdat any

$_ZNKSt3mapINSt7__cxx1112basic_stringIcSt11char_traitsIcESaIcEEEN8nlohmann10basic_jsonIS_St6vectorS5_blmdSaNS6_14adl_serializerEEESt4lessIvESaISt4pairIKS5_SA_EEE4sizeEv = comdat any

$_ZNSt3mapINSt7__cxx1112basic_stringIcSt11char_traitsIcESaIcEEEN8nlohmann10basic_jsonIS_St6vectorS5_blmdSaNS6_14adl_serializerEEESt4lessIvESaISt4pairIKS5_SA_EEE5beginEv = comdat any

$_ZNSt3mapINSt7__cxx1112basic_stringIcSt11char_traitsIcESaIcEEEN8nlohmann10basic_jsonIS_St6vectorS5_blmdSaNS6_14adl_serializerEEESt4lessIvESaISt4pairIKS5_SA_EEE3endEv = comdat any

$_ZStneRKSt17_Rb_tree_iteratorISt4pairIKNSt7__cxx1112basic_stringIcSt11char_traitsIcESaIcEEEN8nlohmann10basic_jsonISt3mapSt6vectorS6_blmdSaNS8_14adl_serializerEEEEESH_ = comdat any

$_ZNKSt17_Rb_tree_iteratorISt4pairIKNSt7__cxx1112basic_stringIcSt11char_traitsIcESaIcEEEN8nlohmann10basic_jsonISt3mapSt6vectorS6_blmdSaNS8_14adl_serializerEEEEEdeEv = comdat any

$_ZNSt6vectorIN8nlohmann10basic_jsonISt3mapS_NSt7__cxx1112basic_stringIcSt11char_traitsIcESaIcEEEblmdSaNS0_14adl_serializerEEESaISA_EE9push_backEOSA_ = comdat any

$_ZNSt17_Rb_tree_iteratorISt4pairIKNSt7__cxx1112basic_stringIcSt11char_traitsIcESaIcEEEN8nlohmann10basic_jsonISt3mapSt6vectorS6_blmdSaNS8_14adl_serializerEEEEEppEv = comdat any

$_ZNKSt6vectorIN8nlohmann10basic_jsonISt3mapS_NSt7__cxx1112basic_stringIcSt11char_traitsIcESaIcEEEblmdSaNS0_14adl_serializerEEESaISA_EE5emptyEv = comdat any

$_ZNSt6vectorIN8nlohmann10basic_jsonISt3mapS_NSt7__cxx1112basic_stringIcSt11char_traitsIcESaIcEEEblmdSaNS0_14adl_serializerEEESaISA_EE4backEv = comdat any

$_ZN8nlohmann10basic_jsonISt3mapSt6vectorNSt7__cxx1112basic_stringIcSt11char_traitsIcESaIcEEEblmdSaNS_14adl_serializerEEC2EOSA_ = comdat any

$_ZNSt6vectorIN8nlohmann10basic_jsonISt3mapS_NSt7__cxx1112basic_stringIcSt11char_traitsIcESaIcEEEblmdSaNS0_14adl_serializerEEESaISA_EE8pop_backEv = comdat any

$_ZNK8nlohmann10basic_jsonISt3mapSt6vectorNSt7__cxx1112basic_stringIcSt11char_traitsIcESaIcEEEblmdSaNS_14adl_serializerEE8is_arrayEv = comdat any

$_ZNSt6vectorIN8nlohmann10basic_jsonISt3mapS_NSt7__cxx1112basic_stringIcSt11char_traitsIcESaIcEEEblmdSaNS0_14adl_serializerEEESaISA_EE5clearEv = comdat any

$_ZNK8nlohmann10basic_jsonISt3mapSt6vectorNSt7__cxx1112basic_stringIcSt11char_traitsIcESaIcEEEblmdSaNS_14adl_serializerEE9is_objectEv = comdat any

$_ZNSt3mapINSt7__cxx1112basic_stringIcSt11char_traitsIcESaIcEEEN8nlohmann10basic_jsonIS_St6vectorS5_blmdSaNS6_14adl_serializerEEESt4lessIvESaISt4pairIKS5_SA_EEE5clearEv = comdat any

$_ZNSaISt3mapINSt7__cxx1112basic_stringIcSt11char_traitsIcESaIcEEEN8nlohmann10basic_jsonIS_St6vectorS5_blmdSaNS6_14adl_serializerEEESt4lessIvESaISt4pairIKS5_SA_EEEEC2Ev = comdat any

$_ZNSt16allocator_traitsISaISt3mapINSt7__cxx1112basic_stringIcSt11char_traitsIcESaIcEEEN8nlohmann10basic_jsonIS0_St6vectorS6_blmdSaNS7_14adl_serializerEEESt4lessIvESaISt4pairIKS6_SB_EEEEE7destroyISI_EEvRSJ_PT_ = comdat any

$_ZNSt16allocator_traitsISaISt3mapINSt7__cxx1112basic_stringIcSt11char_traitsIcESaIcEEEN8nlohmann10basic_jsonIS0_St6vectorS6_blmdSaNS7_14adl_serializerEEESt4lessIvESaISt4pairIKS6_SB_EEEEE10deallocateERSJ_PSI_m = comdat any

$_ZNSaISt3mapINSt7__cxx1112basic_stringIcSt11char_traitsIcESaIcEEEN8nlohmann10basic_jsonIS_St6vectorS5_blmdSaNS6_14adl_serializerEEESt4lessIvESaISt4pairIKS5_SA_EEEED2Ev = comdat any

$_ZNSaISt6vectorIN8nlohmann10basic_jsonISt3mapS_NSt7__cxx1112basic_stringIcSt11char_traitsIcESaIcEEEblmdSaNS0_14adl_serializerEEESaISA_EEEC2Ev = comdat any

$_ZNSt16allocator_traitsISaISt6vectorIN8nlohmann10basic_jsonISt3mapS0_NSt7__cxx1112basic_stringIcSt11char_traitsIcESaIcEEEblmdSaNS1_14adl_serializerEEESaISB_EEEE7destroyISD_EEvRSE_PT_ = comdat any

$_ZNSt16allocator_traitsISaISt6vectorIN8nlohmann10basic_jsonISt3mapS0_NSt7__cxx1112basic_stringIcSt11char_traitsIcESaIcEEEblmdSaNS1_14adl_serializerEEESaISB_EEEE10deallocateERSE_PSD_m = comdat any

$_ZNSaISt6vectorIN8nlohmann10basic_jsonISt3mapS_NSt7__cxx1112basic_stringIcSt11char_traitsIcESaIcEEEblmdSaNS0_14adl_serializerEEESaISA_EEED2Ev = comdat any

$_ZNSaINSt7__cxx1112basic_stringIcSt11char_traitsIcESaIcEEEEC2Ev = comdat any

$_ZNSt16allocator_traitsISaINSt7__cxx1112basic_stringIcSt11char_traitsIcESaIcEEEEE7destroyIS5_EEvRS6_PT_ = comdat any

$_ZNSt16allocator_traitsISaINSt7__cxx1112basic_stringIcSt11char_traitsIcESaIcEEEEE10deallocateERS6_PS5_m = comdat any

$_ZNSaINSt7__cxx1112basic_stringIcSt11char_traitsIcESaIcEEEED2Ev = comdat any

$_ZNSt6vectorIN8nlohmann10basic_jsonISt3mapS_NSt7__cxx1112basic_stringIcSt11char_traitsIcESaIcEEEblmdSaNS0_14adl_serializerEEESaISA_EED2Ev = comdat any

$__clang_call_terminate = comdat any

$_ZNSt12_Vector_baseIN8nlohmann10basic_jsonISt3mapSt6vectorNSt7__cxx1112basic_stringIcSt11char_traitsIcESaIcEEEblmdSaNS0_14adl_serializerEEESaISB_EE19_M_get_Tp_allocatorEv = comdat any

$_ZSt8_DestroyIPN8nlohmann10basic_jsonISt3mapSt6vectorNSt7__cxx1112basic_stringIcSt11char_traitsIcESaIcEEEblmdSaNS0_14adl_serializerEEESB_EvT_SD_RSaIT0_E = comdat any

$_ZNSt12_Vector_baseIN8nlohmann10basic_jsonISt3mapSt6vectorNSt7__cxx1112basic_stringIcSt11char_traitsIcESaIcEEEblmdSaNS0_14adl_serializerEEESaISB_EED2Ev = comdat any

$_ZNSt12_Vector_baseIN8nlohmann10basic_jsonISt3mapSt6vectorNSt7__cxx1112basic_stringIcSt11char_traitsIcESaIcEEEblmdSaNS0_14adl_serializerEEESaISB_EE13_M_deallocateEPSB_m = comdat any

$_ZNSt12_Vector_baseIN8nlohmann10basic_jsonISt3mapSt6vectorNSt7__cxx1112basic_stringIcSt11char_traitsIcESaIcEEEblmdSaNS0_14adl_serializerEEESaISB_EE12_Vector_implD2Ev = comdat any

$_ZNSaIN8nlohmann10basic_jsonISt3mapSt6vectorNSt7__cxx1112basic_stringIcSt11char_traitsIcESaIcEEEblmdSaNS_14adl_serializerEEEED2Ev = comdat any

$_ZN9__gnu_cxx13new_allocatorIN8nlohmann10basic_jsonISt3mapSt6vectorNSt7__cxx1112basic_stringIcSt11char_traitsIcESaIcEEEblmdSaNS1_14adl_serializerEEEED2Ev = comdat any

$_ZNSt16allocator_traitsISaIN8nlohmann10basic_jsonISt3mapSt6vectorNSt7__cxx1112basic_stringIcSt11char_traitsIcESaIcEEEblmdSaNS0_14adl_serializerEEEEE10deallocateERSC_PSB_m = comdat any

$_ZN9__gnu_cxx13new_allocatorIN8nlohmann10basic_jsonISt3mapSt6vectorNSt7__cxx1112basic_stringIcSt11char_traitsIcESaIcEEEblmdSaNS1_14adl_serializerEEEE10deallocateEPSC_m = comdat any

$_ZSt8_DestroyIPN8nlohmann10basic_jsonISt3mapSt6vectorNSt7__cxx1112basic_stringIcSt11char_traitsIcESaIcEEEblmdSaNS0_14adl_serializerEEEEvT_SD_ = comdat any

$_ZNSt12_Destroy_auxILb0EE9__destroyIPN8nlohmann10basic_jsonISt3mapSt6vectorNSt7__cxx1112basic_stringIcSt11char_traitsIcESaIcEEEblmdSaNS2_14adl_serializerEEEEEvT_SF_ = comdat any

$_ZSt8_DestroyIN8nlohmann10basic_jsonISt3mapSt6vectorNSt7__cxx1112basic_stringIcSt11char_traitsIcESaIcEEEblmdSaNS0_14adl_serializerEEEEvPT_ = comdat any

$_ZN9__gnu_cxx13new_allocatorINSt7__cxx1112basic_stringIcSt11char_traitsIcESaIcEEEED2Ev = comdat any

$_ZN9__gnu_cxx13new_allocatorINSt7__cxx1112basic_stringIcSt11char_traitsIcESaIcEEEE10deallocateEPS6_m = comdat any

$_ZN9__gnu_cxx13new_allocatorINSt7__cxx1112basic_stringIcSt11char_traitsIcESaIcEEEE7destroyIS6_EEvPT_ = comdat any

$_ZN9__gnu_cxx13new_allocatorINSt7__cxx1112basic_stringIcSt11char_traitsIcESaIcEEEEC2Ev = comdat any

$_ZN9__gnu_cxx13new_allocatorISt6vectorIN8nlohmann10basic_jsonISt3mapS1_NSt7__cxx1112basic_stringIcSt11char_traitsIcESaIcEEEblmdSaNS2_14adl_serializerEEESaISC_EEED2Ev = comdat any

$_ZN9__gnu_cxx13new_allocatorISt6vectorIN8nlohmann10basic_jsonISt3mapS1_NSt7__cxx1112basic_stringIcSt11char_traitsIcESaIcEEEblmdSaNS2_14adl_serializerEEESaISC_EEE10deallocateEPSE_m = comdat any

$_ZN9__gnu_cxx13new_allocatorISt6vectorIN8nlohmann10basic_jsonISt3mapS1_NSt7__cxx1112basic_stringIcSt11char_traitsIcESaIcEEEblmdSaNS2_14adl_serializerEEESaISC_EEE7destroyISE_EEvPT_ = comdat any

$_ZN9__gnu_cxx13new_allocatorISt6vectorIN8nlohmann10basic_jsonISt3mapS1_NSt7__cxx1112basic_stringIcSt11char_traitsIcESaIcEEEblmdSaNS2_14adl_serializerEEESaISC_EEEC2Ev = comdat any

$_ZN9__gnu_cxx13new_allocatorISt3mapINSt7__cxx1112basic_stringIcSt11char_traitsIcESaIcEEEN8nlohmann10basic_jsonIS1_St6vectorS7_blmdSaNS8_14adl_serializerEEESt4lessIvESaISt4pairIKS7_SC_EEEED2Ev = comdat any

$_ZN9__gnu_cxx13new_allocatorISt3mapINSt7__cxx1112basic_stringIcSt11char_traitsIcESaIcEEEN8nlohmann10basic_jsonIS1_St6vectorS7_blmdSaNS8_14adl_serializerEEESt4lessIvESaISt4pairIKS7_SC_EEEE10deallocateEPSJ_m = comdat any

$_ZN9__gnu_cxx13new_allocatorISt3mapINSt7__cxx1112basic_stringIcSt11char_traitsIcESaIcEEEN8nlohmann10basic_jsonIS1_St6vectorS7_blmdSaNS8_14adl_serializerEEESt4lessIvESaISt4pairIKS7_SC_EEEE7destroyISJ_EEvPT_ = comdat any

$_ZNSt3mapINSt7__cxx1112basic_stringIcSt11char_traitsIcESaIcEEEN8nlohmann10basic_jsonIS_St6vectorS5_blmdSaNS6_14adl_serializerEEESt4lessIvESaISt4pairIKS5_SA_EEED2Ev = comdat any

$_ZNSt8_Rb_treeINSt7__cxx1112basic_stringIcSt11char_traitsIcESaIcEEESt4pairIKS5_N8nlohmann10basic_jsonISt3mapSt6vectorS5_blmdSaNS8_14adl_serializerEEEESt10_Select1stISE_ESt4lessIvESaISE_EED2Ev = comdat any

$_ZNSt8_Rb_treeINSt7__cxx1112basic_stringIcSt11char_traitsIcESaIcEEESt4pairIKS5_N8nlohmann10basic_jsonISt3mapSt6vectorS5_blmdSaNS8_14adl_serializerEEEESt10_Select1stISE_ESt4lessIvESaISE_EE8_M_beginEv = comdat any

$_ZNSt8_Rb_treeINSt7__cxx1112basic_stringIcSt11char_traitsIcESaIcEEESt4pairIKS5_N8nlohmann10basic_jsonISt3mapSt6vectorS5_blmdSaNS8_14adl_serializerEEEESt10_Select1stISE_ESt4lessIvESaISE_EE8_M_eraseEPSt13_Rb_tree_nodeISE_E = comdat any

$_ZNSt8_Rb_treeINSt7__cxx1112basic_stringIcSt11char_traitsIcESaIcEEESt4pairIKS5_N8nlohmann10basic_jsonISt3mapSt6vectorS5_blmdSaNS8_14adl_serializerEEEESt10_Select1stISE_ESt4lessIvESaISE_EE13_Rb_tree_implISI_Lb1EED2Ev = comdat any

$_ZNSaISt13_Rb_tree_nodeISt4pairIKNSt7__cxx1112basic_stringIcSt11char_traitsIcESaIcEEEN8nlohmann10basic_jsonISt3mapSt6vectorS6_blmdSaNS8_14adl_serializerEEEEEED2Ev = comdat any

$_ZN9__gnu_cxx13new_allocatorISt13_Rb_tree_nodeISt4pairIKNSt7__cxx1112basic_stringIcSt11char_traitsIcESaIcEEEN8nlohmann10basic_jsonISt3mapSt6vectorS8_blmdSaNSA_14adl_serializerEEEEEED2Ev = comdat any

$_ZNSt8_Rb_treeINSt7__cxx1112basic_stringIcSt11char_traitsIcESaIcEEESt4pairIKS5_N8nlohmann10basic_jsonISt3mapSt6vectorS5_blmdSaNS8_14adl_serializerEEEESt10_Select1stISE_ESt4lessIvESaISE_EE8_S_rightEPSt18_Rb_tree_node_base = comdat any

$_ZNSt8_Rb_treeINSt7__cxx1112basic_stringIcSt11char_traitsIcESaIcEEESt4pairIKS5_N8nlohmann10basic_jsonISt3mapSt6vectorS5_blmdSaNS8_14adl_serializerEEEESt10_Select1stISE_ESt4lessIvESaISE_EE7_S_leftEPSt18_Rb_tree_node_base = comdat any

$_ZNSt8_Rb_treeINSt7__cxx1112basic_stringIcSt11char_traitsIcESaIcEEESt4pairIKS5_N8nlohmann10basic_jsonISt3mapSt6vectorS5_blmdSaNS8_14adl_serializerEEEESt10_Select1stISE_ESt4lessIvESaISE_EE12_M_drop_nodeEPSt13_Rb_tree_nodeISE_E = comdat any

$_ZNSt8_Rb_treeINSt7__cxx1112basic_stringIcSt11char_traitsIcESaIcEEESt4pairIKS5_N8nlohmann10basic_jsonISt3mapSt6vectorS5_blmdSaNS8_14adl_serializerEEEESt10_Select1stISE_ESt4lessIvESaISE_EE15_M_destroy_nodeEPSt13_Rb_tree_nodeISE_E = comdat any

$_ZNSt8_Rb_treeINSt7__cxx1112basic_stringIcSt11char_traitsIcESaIcEEESt4pairIKS5_N8nlohmann10basic_jsonISt3mapSt6vectorS5_blmdSaNS8_14adl_serializerEEEESt10_Select1stISE_ESt4lessIvESaISE_EE11_M_put_nodeEPSt13_Rb_tree_nodeISE_E = comdat any

$_ZNSt8_Rb_treeINSt7__cxx1112basic_stringIcSt11char_traitsIcESaIcEEESt4pairIKS5_N8nlohmann10basic_jsonISt3mapSt6vectorS5_blmdSaNS8_14adl_serializerEEEESt10_Select1stISE_ESt4lessIvESaISE_EE21_M_get_Node_allocatorEv = comdat any

$_ZNSt16allocator_traitsISaISt13_Rb_tree_nodeISt4pairIKNSt7__cxx1112basic_stringIcSt11char_traitsIcESaIcEEEN8nlohmann10basic_jsonISt3mapSt6vectorS7_blmdSaNS9_14adl_serializerEEEEEEE10deallocateERSH_PSG_m = comdat any

$_ZN9__gnu_cxx13new_allocatorISt13_Rb_tree_nodeISt4pairIKNSt7__cxx1112basic_stringIcSt11char_traitsIcESaIcEEEN8nlohmann10basic_jsonISt3mapSt6vectorS8_blmdSaNSA_14adl_serializerEEEEEE10deallocateEPSH_m = comdat any

$_ZNSt13_Rb_tree_nodeISt4pairIKNSt7__cxx1112basic_stringIcSt11char_traitsIcESaIcEEEN8nlohmann10basic_jsonISt3mapSt6vectorS6_blmdSaNS8_14adl_serializerEEEEE9_M_valptrEv = comdat any

$_ZNSt16allocator_traitsISaISt13_Rb_tree_nodeISt4pairIKNSt7__cxx1112basic_stringIcSt11char_traitsIcESaIcEEEN8nlohmann10basic_jsonISt3mapSt6vectorS7_blmdSaNS9_14adl_serializerEEEEEEE7destroyISF_EEvRSH_PT_ = comdat any

$_ZN9__gnu_cxx13new_allocatorISt13_Rb_tree_nodeISt4pairIKNSt7__cxx1112basic_stringIcSt11char_traitsIcESaIcEEEN8nlohmann10basic_jsonISt3mapSt6vectorS8_blmdSaNSA_14adl_serializerEEEEEE7destroyISG_EEvPT_ = comdat any

$_ZNSt4pairIKNSt7__cxx1112basic_stringIcSt11char_traitsIcESaIcEEEN8nlohmann10basic_jsonISt3mapSt6vectorS5_blmdSaNS7_14adl_serializerEEEED2Ev = comdat any

$_ZN9__gnu_cxx16__aligned_membufISt4pairIKNSt7__cxx1112basic_stringIcSt11char_traitsIcESaIcEEEN8nlohmann10basic_jsonISt3mapSt6vectorS7_blmdSaNS9_14adl_serializerEEEEE6_M_ptrEv = comdat any

$_ZN9__gnu_cxx16__aligned_membufISt4pairIKNSt7__cxx1112basic_stringIcSt11char_traitsIcESaIcEEEN8nlohmann10basic_jsonISt3mapSt6vectorS7_blmdSaNS9_14adl_serializerEEEEE7_M_addrEv = comdat any

$_ZN9__gnu_cxx13new_allocatorISt3mapINSt7__cxx1112basic_stringIcSt11char_traitsIcESaIcEEEN8nlohmann10basic_jsonIS1_St6vectorS7_blmdSaNS8_14adl_serializerEEESt4lessIvESaISt4pairIKS7_SC_EEEEC2Ev = comdat any

$_ZNSt8_Rb_treeINSt7__cxx1112basic_stringIcSt11char_traitsIcESaIcEEESt4pairIKS5_N8nlohmann10basic_jsonISt3mapSt6vectorS5_blmdSaNS8_14adl_serializerEEEESt10_Select1stISE_ESt4lessIvESaISE_EE5clearEv = comdat any

$_ZNSt15_Rb_tree_header8_M_resetEv = comdat any

$_ZNSt6vectorIN8nlohmann10basic_jsonISt3mapS_NSt7__cxx1112basic_stringIcSt11char_traitsIcESaIcEEEblmdSaNS0_14adl_serializerEEESaISA_EE15_M_erase_at_endEPSA_ = comdat any

$_ZNSt16allocator_traitsISaIN8nlohmann10basic_jsonISt3mapSt6vectorNSt7__cxx1112basic_stringIcSt11char_traitsIcESaIcEEEblmdSaNS0_14adl_serializerEEEEE7destroyISB_EEvRSC_PT_ = comdat any

$_ZN9__gnu_cxx13new_allocatorIN8nlohmann10basic_jsonISt3mapSt6vectorNSt7__cxx1112basic_stringIcSt11char_traitsIcESaIcEEEblmdSaNS1_14adl_serializerEEEE7destroyISC_EEvPT_ = comdat any

$_ZNK9__gnu_cxx17__normal_iteratorIPN8nlohmann10basic_jsonISt3mapSt6vectorNSt7__cxx1112basic_stringIcSt11char_traitsIcESaIcEEEblmdSaNS1_14adl_serializerEEES4_ISC_SaISC_EEEmiEl = comdat any

$_ZNK9__gnu_cxx17__normal_iteratorIPN8nlohmann10basic_jsonISt3mapSt6vectorNSt7__cxx1112basic_stringIcSt11char_traitsIcESaIcEEEblmdSaNS1_14adl_serializerEEES4_ISC_SaISC_EEEdeEv = comdat any

$_ZN9__gnu_cxx17__normal_iteratorIPN8nlohmann10basic_jsonISt3mapSt6vectorNSt7__cxx1112basic_stringIcSt11char_traitsIcESaIcEEEblmdSaNS1_14adl_serializerEEES4_ISC_SaISC_EEEC2ERKSD_ = comdat any

$_ZNKSt6vectorIN8nlohmann10basic_jsonISt3mapS_NSt7__cxx1112basic_stringIcSt11char_traitsIcESaIcEEEblmdSaNS0_14adl_serializerEEESaISA_EE5beginEv = comdat any

$_ZNKSt6vectorIN8nlohmann10basic_jsonISt3mapS_NSt7__cxx1112basic_stringIcSt11char_traitsIcESaIcEEEblmdSaNS0_14adl_serializerEEESaISA_EE3endEv = comdat any

$_ZN9__gnu_cxxeqIPKN8nlohmann10basic_jsonISt3mapSt6vectorNSt7__cxx1112basic_stringIcSt11char_traitsIcESaIcEEEblmdSaNS1_14adl_serializerEEES4_ISC_SaISC_EEEEbRKNS_17__normal_iteratorIT_T0_EESM_ = comdat any

$_ZNK9__gnu_cxx17__normal_iteratorIPKN8nlohmann10basic_jsonISt3mapSt6vectorNSt7__cxx1112basic_stringIcSt11char_traitsIcESaIcEEEblmdSaNS1_14adl_serializerEEES4_ISC_SaISC_EEE4baseEv = comdat any

$_ZN9__gnu_cxx17__normal_iteratorIPKN8nlohmann10basic_jsonISt3mapSt6vectorNSt7__cxx1112basic_stringIcSt11char_traitsIcESaIcEEEblmdSaNS1_14adl_serializerEEES4_ISC_SaISC_EEEC2ERKSE_ = comdat any

$_ZNSt6vectorIN8nlohmann10basic_jsonISt3mapS_NSt7__cxx1112basic_stringIcSt11char_traitsIcESaIcEEEblmdSaNS0_14adl_serializerEEESaISA_EE12emplace_backIJSA_EEERSA_DpOT_ = comdat any

$_ZNSt16allocator_traitsISaIN8nlohmann10basic_jsonISt3mapSt6vectorNSt7__cxx1112basic_stringIcSt11char_traitsIcESaIcEEEblmdSaNS0_14adl_serializerEEEEE9constructISB_JSB_EEEvRSC_PT_DpOT0_ = comdat any

$_ZNSt6vectorIN8nlohmann10basic_jsonISt3mapS_NSt7__cxx1112basic_stringIcSt11char_traitsIcESaIcEEEblmdSaNS0_14adl_serializerEEESaISA_EE17_M_realloc_insertIJSA_EEEvN9__gnu_cxx17__normal_iteratorIPSA_SC_EEDpOT_ = comdat any

$_ZNKSt6vectorIN8nlohmann10basic_jsonISt3mapS_NSt7__cxx1112basic_stringIcSt11char_traitsIcESaIcEEEblmdSaNS0_14adl_serializerEEESaISA_EE12_M_check_lenEmPKc = comdat any

$_ZN9__gnu_cxxmiIPN8nlohmann10basic_jsonISt3mapSt6vectorNSt7__cxx1112basic_stringIcSt11char_traitsIcESaIcEEEblmdSaNS1_14adl_serializerEEES4_ISC_SaISC_EEEENS_17__normal_iteratorIT_T0_E15difference_typeERKSJ_SM_ = comdat any

$_ZNSt12_Vector_baseIN8nlohmann10basic_jsonISt3mapSt6vectorNSt7__cxx1112basic_stringIcSt11char_traitsIcESaIcEEEblmdSaNS0_14adl_serializerEEESaISB_EE11_M_allocateEm = comdat any

$_ZNK9__gnu_cxx17__normal_iteratorIPN8nlohmann10basic_jsonISt3mapSt6vectorNSt7__cxx1112basic_stringIcSt11char_traitsIcESaIcEEEblmdSaNS1_14adl_serializerEEES4_ISC_SaISC_EEE4baseEv = comdat any

$_ZNSt6vectorIN8nlohmann10basic_jsonISt3mapS_NSt7__cxx1112basic_stringIcSt11char_traitsIcESaIcEEEblmdSaNS0_14adl_serializerEEESaISA_EE11_S_relocateEPSA_SD_SD_RSB_ = comdat any

$_ZNSt6vectorIN8nlohmann10basic_jsonISt3mapS_NSt7__cxx1112basic_stringIcSt11char_traitsIcESaIcEEEblmdSaNS0_14adl_serializerEEESaISA_EE14_S_do_relocateEPSA_SD_SD_RSB_St17integral_constantIbLb1EE = comdat any

$_ZSt12__relocate_aIPN8nlohmann10basic_jsonISt3mapSt6vectorNSt7__cxx1112basic_stringIcSt11char_traitsIcESaIcEEEblmdSaNS0_14adl_serializerEEESC_SaISB_EET0_T_SF_SE_RT1_ = comdat any

$_ZSt12__niter_baseIPN8nlohmann10basic_jsonISt3mapSt6vectorNSt7__cxx1112basic_stringIcSt11char_traitsIcESaIcEEEblmdSaNS0_14adl_serializerEEEET_SD_ = comdat any

$_ZSt14__relocate_a_1IPN8nlohmann10basic_jsonISt3mapSt6vectorNSt7__cxx1112basic_stringIcSt11char_traitsIcESaIcEEEblmdSaNS0_14adl_serializerEEESC_SaISB_EET0_T_SF_SE_RT1_ = comdat any

$_ZSt19__relocate_object_aIN8nlohmann10basic_jsonISt3mapSt6vectorNSt7__cxx1112basic_stringIcSt11char_traitsIcESaIcEEEblmdSaNS0_14adl_serializerEEESB_SaISB_EEvPT_PT0_RT1_ = comdat any

$_ZNSt16allocator_traitsISaIN8nlohmann10basic_jsonISt3mapSt6vectorNSt7__cxx1112basic_stringIcSt11char_traitsIcESaIcEEEblmdSaNS0_14adl_serializerEEEEE8allocateERSC_m = comdat any

$_ZN9__gnu_cxx13new_allocatorIN8nlohmann10basic_jsonISt3mapSt6vectorNSt7__cxx1112basic_stringIcSt11char_traitsIcESaIcEEEblmdSaNS1_14adl_serializerEEEE8allocateEmPKv = comdat any

$_ZNK9__gnu_cxx13new_allocatorIN8nlohmann10basic_jsonISt3mapSt6vectorNSt7__cxx1112basic_stringIcSt11char_traitsIcESaIcEEEblmdSaNS1_14adl_serializerEEEE8max_sizeEv = comdat any

$_ZNKSt6vectorIN8nlohmann10basic_jsonISt3mapS_NSt7__cxx1112basic_stringIcSt11char_traitsIcESaIcEEEblmdSaNS0_14adl_serializerEEESaISA_EE8max_sizeEv = comdat any

$_ZSt3maxImERKT_S2_S2_ = comdat any

$_ZNKSt12_Vector_baseIN8nlohmann10basic_jsonISt3mapSt6vectorNSt7__cxx1112basic_stringIcSt11char_traitsIcESaIcEEEblmdSaNS0_14adl_serializerEEESaISB_EE19_M_get_Tp_allocatorEv = comdat any

$_ZNSt6vectorIN8nlohmann10basic_jsonISt3mapS_NSt7__cxx1112basic_stringIcSt11char_traitsIcESaIcEEEblmdSaNS0_14adl_serializerEEESaISA_EE11_S_max_sizeERKSB_ = comdat any

$_ZNSt16allocator_traitsISaIN8nlohmann10basic_jsonISt3mapSt6vectorNSt7__cxx1112basic_stringIcSt11char_traitsIcESaIcEEEblmdSaNS0_14adl_serializerEEEEE8max_sizeERKSC_ = comdat any

$_ZSt3minImERKT_S2_S2_ = comdat any

$_ZN9__gnu_cxx13new_allocatorIN8nlohmann10basic_jsonISt3mapSt6vectorNSt7__cxx1112basic_stringIcSt11char_traitsIcESaIcEEEblmdSaNS1_14adl_serializerEEEE9constructISC_JSC_EEEvPT_DpOT0_ = comdat any

$_ZNSt8_Rb_treeINSt7__cxx1112basic_stringIcSt11char_traitsIcESaIcEEESt4pairIKS5_N8nlohmann10basic_jsonISt3mapSt6vectorS5_blmdSaNS8_14adl_serializerEEEESt10_Select1stISE_ESt4lessIvESaISE_EE3endEv = comdat any

$_ZNSt17_Rb_tree_iteratorISt4pairIKNSt7__cxx1112basic_stringIcSt11char_traitsIcESaIcEEEN8nlohmann10basic_jsonISt3mapSt6vectorS6_blmdSaNS8_14adl_serializerEEEEEC2EPSt18_Rb_tree_node_base = comdat any

$_ZNSt8_Rb_treeINSt7__cxx1112basic_stringIcSt11char_traitsIcESaIcEEESt4pairIKS5_N8nlohmann10basic_jsonISt3mapSt6vectorS5_blmdSaNS8_14adl_serializerEEEESt10_Select1stISE_ESt4lessIvESaISE_EE5beginEv = comdat any

$_ZNKSt8_Rb_treeINSt7__cxx1112basic_stringIcSt11char_traitsIcESaIcEEESt4pairIKS5_N8nlohmann10basic_jsonISt3mapSt6vectorS5_blmdSaNS8_14adl_serializerEEEESt10_Select1stISE_ESt4lessIvESaISE_EE4sizeEv = comdat any

$_ZSt12__miter_baseIN9__gnu_cxx17__normal_iteratorIPN8nlohmann10basic_jsonISt3mapSt6vectorNSt7__cxx1112basic_stringIcSt11char_traitsIcESaIcEEEblmdSaNS2_14adl_serializerEEES5_ISD_SaISD_EEEEET_SI_ = comdat any

$_ZSt14__copy_move_a2ILb1EN9__gnu_cxx17__normal_iteratorIPN8nlohmann10basic_jsonISt3mapSt6vectorNSt7__cxx1112basic_stringIcSt11char_traitsIcESaIcEEEblmdSaNS2_14adl_serializerEEES5_ISD_SaISD_EEEESt20back_insert_iteratorISG_EET1_T0_SL_SK_ = comdat any

$_ZSt12__niter_baseIPN8nlohmann10basic_jsonISt3mapSt6vectorNSt7__cxx1112basic_stringIcSt11char_traitsIcESaIcEEEblmdSaNS0_14adl_serializerEEES3_ISB_SaISB_EEET_N9__gnu_cxx17__normal_iteratorISF_T0_EE = comdat any

$_ZSt12__niter_baseISt20back_insert_iteratorISt6vectorIN8nlohmann10basic_jsonISt3mapS1_NSt7__cxx1112basic_stringIcSt11char_traitsIcESaIcEEEblmdSaNS2_14adl_serializerEEESaISC_EEEET_SG_ = comdat any

$_ZSt13__copy_move_aILb1EPN8nlohmann10basic_jsonISt3mapSt6vectorNSt7__cxx1112basic_stringIcSt11char_traitsIcESaIcEEEblmdSaNS0_14adl_serializerEEESt20back_insert_iteratorIS3_ISB_SaISB_EEEET1_T0_SI_SH_ = comdat any

$_ZSt12__niter_wrapISt20back_insert_iteratorISt6vectorIN8nlohmann10basic_jsonISt3mapS1_NSt7__cxx1112basic_stringIcSt11char_traitsIcESaIcEEEblmdSaNS2_14adl_serializerEEESaISC_EEEET_RKSG_SG_ = comdat any

$_ZNSt11__copy_moveILb1ELb0ESt26random_access_iterator_tagE8__copy_mIPN8nlohmann10basic_jsonISt3mapSt6vectorNSt7__cxx1112basic_stringIcSt11char_traitsIcESaIcEEEblmdSaNS3_14adl_serializerEEESt20back_insert_iteratorIS6_ISE_SaISE_EEEEET0_T_SL_SK_ = comdat any

$_ZNSt20back_insert_iteratorISt6vectorIN8nlohmann10basic_jsonISt3mapS0_NSt7__cxx1112basic_stringIcSt11char_traitsIcESaIcEEEblmdSaNS1_14adl_serializerEEESaISB_EEEdeEv = comdat any

$_ZNSt20back_insert_iteratorISt6vectorIN8nlohmann10basic_jsonISt3mapS0_NSt7__cxx1112basic_stringIcSt11char_traitsIcESaIcEEEblmdSaNS1_14adl_serializerEEESaISB_EEEaSEOSB_ = comdat any

$_ZNSt20back_insert_iteratorISt6vectorIN8nlohmann10basic_jsonISt3mapS0_NSt7__cxx1112basic_stringIcSt11char_traitsIcESaIcEEEblmdSaNS1_14adl_serializerEEESaISB_EEEppEv = comdat any

$_ZNSt20back_insert_iteratorISt6vectorIN8nlohmann10basic_jsonISt3mapS0_NSt7__cxx1112basic_stringIcSt11char_traitsIcESaIcEEEblmdSaNS1_14adl_serializerEEESaISB_EEEC2ERSD_ = comdat any

$_ZNKSt6vectorIN8nlohmann10basic_jsonISt3mapS_NSt7__cxx1112basic_stringIcSt11char_traitsIcESaIcEEEblmdSaNS0_14adl_serializerEEESaISA_EE8capacityEv = comdat any

$_ZNSt12_Vector_baseIN8nlohmann10basic_jsonISt3mapSt6vectorNSt7__cxx1112basic_stringIcSt11char_traitsIcESaIcEEEblmdSaNS0_14adl_serializerEEESaISB_EEC2Ev = comdat any

$_ZNSt12_Vector_baseIN8nlohmann10basic_jsonISt3mapSt6vectorNSt7__cxx1112basic_stringIcSt11char_traitsIcESaIcEEEblmdSaNS0_14adl_serializerEEESaISB_EE12_Vector_implC2Ev = comdat any

$_ZNSaIN8nlohmann10basic_jsonISt3mapSt6vectorNSt7__cxx1112basic_stringIcSt11char_traitsIcESaIcEEEblmdSaNS_14adl_serializerEEEEC2Ev = comdat any

$_ZNSt12_Vector_baseIN8nlohmann10basic_jsonISt3mapSt6vectorNSt7__cxx1112basic_stringIcSt11char_traitsIcESaIcEEEblmdSaNS0_14adl_serializerEEESaISB_EE17_Vector_impl_dataC2Ev = comdat any

$_ZN9__gnu_cxx13new_allocatorIN8nlohmann10basic_jsonISt3mapSt6vectorNSt7__cxx1112basic_stringIcSt11char_traitsIcESaIcEEEblmdSaNS1_14adl_serializerEEEEC2Ev = comdat any

$_ZSt4swapIN8nlohmann6detail7value_tEENSt9enable_ifIXsr6__and_ISt6__not_ISt15__is_tuple_likeIT_EESt21is_move_constructibleIS6_ESt18is_move_assignableIS6_EEE5valueEvE4typeERS6_SF_ = comdat any

$_ZSt4swapIN8nlohmann10basic_jsonISt3mapSt6vectorNSt7__cxx1112basic_stringIcSt11char_traitsIcESaIcEEEblmdSaNS0_14adl_serializerEE10json_valueEENSt9enable_ifIXsr6__and_ISt6__not_ISt15__is_tuple_likeIT_EESt21is_move_constructibleISG_ESt18is_move_assignableISG_EEE5valueEvE4typeERSG_SP_ = comdat any

$_ZNKSt16initializer_listIN8nlohmann6detail8json_refINS0_10basic_jsonISt3mapSt6vectorNSt7__cxx1112basic_stringIcSt11char_traitsIcESaIcEEEblmdSaNS0_14adl_serializerEEEEEE5beginEv = comdat any

$_ZNKSt16initializer_listIN8nlohmann6detail8json_refINS0_10basic_jsonISt3mapSt6vectorNSt7__cxx1112basic_stringIcSt11char_traitsIcESaIcEEEblmdSaNS0_14adl_serializerEEEEEE3endEv = comdat any

$_ZSt6all_ofIPKN8nlohmann6detail8json_refINS0_10basic_jsonISt3mapSt6vectorNSt7__cxx1112basic_stringIcSt11char_traitsIcESaIcEEEblmdSaNS0_14adl_serializerEEEEEZNSD_C1ESt16initializer_listISE_EbNS1_7value_tEEUlRSF_E_EbT_SM_T0_ = comdat any

$_ZNSt7__cxx1112basic_stringIcSt11char_traitsIcESaIcEEC2IS3_EEPKcRKS3_ = comdat any

$_ZN8nlohmann6detail10type_error6createEiRKNSt7__cxx1112basic_stringIcSt11char_traitsIcESaIcEEE = comdat any

$_ZN8nlohmann6detail10type_errorD2Ev = comdat any

$_ZN8nlohmann10basic_jsonISt3mapSt6vectorNSt7__cxx1112basic_stringIcSt11char_traitsIcESaIcEEEblmdSaNS_14adl_serializerEE10json_valueC2ENS_6detail7value_tE = comdat any

$_ZSt8for_eachIPKN8nlohmann6detail8json_refINS0_10basic_jsonISt3mapSt6vectorNSt7__cxx1112basic_stringIcSt11char_traitsIcESaIcEEEblmdSaNS0_14adl_serializerEEEEEZNSD_C1ESt16initializer_listISE_EbNS1_7value_tEEUlRSF_E0_ET0_T_SN_SM_ = comdat any

$_ZN8nlohmann10basic_jsonISt3mapSt6vectorNSt7__cxx1112basic_stringIcSt11char_traitsIcESaIcEEEblmdSaNS_14adl_serializerEE6createIS2_ISA_SaISA_EEJPKNS_6detail8json_refISA_EESI_EEEPT_DpOT0_ = comdat any

$_ZNSt16allocator_traitsISaISt6vectorIN8nlohmann10basic_jsonISt3mapS0_NSt7__cxx1112basic_stringIcSt11char_traitsIcESaIcEEEblmdSaNS1_14adl_serializerEEESaISB_EEEE8allocateERSE_m = comdat any

$_ZNSt10unique_ptrISt6vectorIN8nlohmann10basic_jsonISt3mapS0_NSt7__cxx1112basic_stringIcSt11char_traitsIcESaIcEEEblmdSaNS1_14adl_serializerEEESaISB_EEZNSB_6createISD_JPKNS1_6detail8json_refISB_EESJ_EEEPT_DpOT0_EUlPSD_E_EC2ISQ_vEESP_RKSQ_ = comdat any

$_ZNKSt10unique_ptrISt6vectorIN8nlohmann10basic_jsonISt3mapS0_NSt7__cxx1112basic_stringIcSt11char_traitsIcESaIcEEEblmdSaNS1_14adl_serializerEEESaISB_EEZNSB_6createISD_JPKNS1_6detail8json_refISB_EESJ_EEEPT_DpOT0_EUlPSD_E_E3getEv = comdat any

$_ZNSt16allocator_traitsISaISt6vectorIN8nlohmann10basic_jsonISt3mapS0_NSt7__cxx1112basic_stringIcSt11char_traitsIcESaIcEEEblmdSaNS1_14adl_serializerEEESaISB_EEEE9constructISD_JPKNS1_6detail8json_refISB_EESL_EEEvRSE_PT_DpOT0_ = comdat any

$_ZStneISt6vectorIN8nlohmann10basic_jsonISt3mapS0_NSt7__cxx1112basic_stringIcSt11char_traitsIcESaIcEEEblmdSaNS1_14adl_serializerEEESaISB_EEZNSB_6createISD_JPKNS1_6detail8json_refISB_EESJ_EEEPT_DpOT0_EUlPSD_E_EbRKSt10unique_ptrISK_T0_EDn = comdat any

$_ZNSt10unique_ptrISt6vectorIN8nlohmann10basic_jsonISt3mapS0_NSt7__cxx1112basic_stringIcSt11char_traitsIcESaIcEEEblmdSaNS1_14adl_serializerEEESaISB_EEZNSB_6createISD_JPKNS1_6detail8json_refISB_EESJ_EEEPT_DpOT0_EUlPSD_E_ED2Ev = comdat any

$_ZNSt10unique_ptrISt6vectorIN8nlohmann10basic_jsonISt3mapS0_NSt7__cxx1112basic_stringIcSt11char_traitsIcESaIcEEEblmdSaNS1_14adl_serializerEEESaISB_EEZNSB_6createISD_JPKNS1_6detail8json_refISB_EESJ_EEEPT_DpOT0_EUlPSD_E_E7releaseEv = comdat any

$_ZNSt15__uniq_ptr_implISt6vectorIN8nlohmann10basic_jsonISt3mapS0_NSt7__cxx1112basic_stringIcSt11char_traitsIcESaIcEEEblmdSaNS1_14adl_serializerEEESaISB_EEZNSB_6createISD_JPKNS1_6detail8json_refISB_EESJ_EEEPT_DpOT0_EUlPSD_E_E6_M_ptrEv = comdat any

$_ZSt3getILm0EJPSt6vectorIN8nlohmann10basic_jsonISt3mapS0_NSt7__cxx1112basic_stringIcSt11char_traitsIcESaIcEEEblmdSaNS1_14adl_serializerEEESaISB_EEZNSB_6createISD_JPKNS1_6detail8json_refISB_EESK_EEEPT_DpOT0_EUlSE_E_EERNSt13tuple_elementIXT_ESt5tupleIJDpSN_EEE4typeERSU_ = comdat any

$_ZSt12__get_helperILm0EPSt6vectorIN8nlohmann10basic_jsonISt3mapS0_NSt7__cxx1112basic_stringIcSt11char_traitsIcESaIcEEEblmdSaNS1_14adl_serializerEEESaISB_EEJZNSB_6createISD_JPKNS1_6detail8json_refISB_EESK_EEEPT_DpOT0_EUlSE_E_EERT0_RSt11_Tuple_implIXT_EJSR_DpT1_EE = comdat any

$_ZNSt11_Tuple_implILm0EJPSt6vectorIN8nlohmann10basic_jsonISt3mapS0_NSt7__cxx1112basic_stringIcSt11char_traitsIcESaIcEEEblmdSaNS1_14adl_serializerEEESaISB_EEZNSB_6createISD_JPKNS1_6detail8json_refISB_EESK_EEEPT_DpOT0_EUlSE_E_EE7_M_headERSR_ = comdat any

$_ZNSt10_Head_baseILm0EPSt6vectorIN8nlohmann10basic_jsonISt3mapS0_NSt7__cxx1112basic_stringIcSt11char_traitsIcESaIcEEEblmdSaNS1_14adl_serializerEEESaISB_EELb0EE7_M_headERSF_ = comdat any

$_ZNSt10unique_ptrISt6vectorIN8nlohmann10basic_jsonISt3mapS0_NSt7__cxx1112basic_stringIcSt11char_traitsIcESaIcEEEblmdSaNS1_14adl_serializerEEESaISB_EEZNSB_6createISD_JPKNS1_6detail8json_refISB_EESJ_EEEPT_DpOT0_EUlPSD_E_E11get_deleterEv = comdat any

$_ZZN8nlohmann10basic_jsonISt3mapSt6vectorNSt7__cxx1112basic_stringIcSt11char_traitsIcESaIcEEEblmdSaNS_14adl_serializerEE6createIS2_ISA_SaISA_EEJPKNS_6detail8json_refISA_EESI_EEEPT_DpOT0_ENKUlPSD_E_clESO_ = comdat any

$_ZNSt15__uniq_ptr_implISt6vectorIN8nlohmann10basic_jsonISt3mapS0_NSt7__cxx1112basic_stringIcSt11char_traitsIcESaIcEEEblmdSaNS1_14adl_serializerEEESaISB_EEZNSB_6createISD_JPKNS1_6detail8json_refISB_EESJ_EEEPT_DpOT0_EUlPSD_E_E10_M_deleterEv = comdat any

$_ZSt3getILm1EJPSt6vectorIN8nlohmann10basic_jsonISt3mapS0_NSt7__cxx1112basic_stringIcSt11char_traitsIcESaIcEEEblmdSaNS1_14adl_serializerEEESaISB_EEZNSB_6createISD_JPKNS1_6detail8json_refISB_EESK_EEEPT_DpOT0_EUlSE_E_EERNSt13tuple_elementIXT_ESt5tupleIJDpSN_EEE4typeERSU_ = comdat any

$_ZSt12__get_helperILm1EZN8nlohmann10basic_jsonISt3mapSt6vectorNSt7__cxx1112basic_stringIcSt11char_traitsIcESaIcEEEblmdSaNS0_14adl_serializerEE6createIS3_ISB_SaISB_EEJPKNS0_6detail8json_refISB_EESJ_EEEPT_DpOT0_EUlPSE_E_JEERT0_RSt11_Tuple_implIXT_EJSR_DpT1_EE = comdat any

$_ZNSt11_Tuple_implILm1EJZN8nlohmann10basic_jsonISt3mapSt6vectorNSt7__cxx1112basic_stringIcSt11char_traitsIcESaIcEEEblmdSaNS0_14adl_serializerEE6createIS3_ISB_SaISB_EEJPKNS0_6detail8json_refISB_EESJ_EEEPT_DpOT0_EUlPSE_E_EE7_M_headERSR_ = comdat any

$_ZNSt10_Head_baseILm1EZN8nlohmann10basic_jsonISt3mapSt6vectorNSt7__cxx1112basic_stringIcSt11char_traitsIcESaIcEEEblmdSaNS0_14adl_serializerEE6createIS3_ISB_SaISB_EEJPKNS0_6detail8json_refISB_EESJ_EEEPT_DpOT0_EUlPSE_E_Lb0EE7_M_headERSR_ = comdat any

$_ZNKSt10unique_ptrISt6vectorIN8nlohmann10basic_jsonISt3mapS0_NSt7__cxx1112basic_stringIcSt11char_traitsIcESaIcEEEblmdSaNS1_14adl_serializerEEESaISB_EEZNSB_6createISD_JPKNS1_6detail8json_refISB_EESJ_EEEPT_DpOT0_EUlPSD_E_EcvbEv = comdat any

$_ZN9__gnu_cxx13new_allocatorISt6vectorIN8nlohmann10basic_jsonISt3mapS1_NSt7__cxx1112basic_stringIcSt11char_traitsIcESaIcEEEblmdSaNS2_14adl_serializerEEESaISC_EEE9constructISE_JPKNS2_6detail8json_refISC_EESL_EEEvPT_DpOT0_ = comdat any

$_ZNSt6vectorIN8nlohmann10basic_jsonISt3mapS_NSt7__cxx1112basic_stringIcSt11char_traitsIcESaIcEEEblmdSaNS0_14adl_serializerEEESaISA_EEC2IPKNS0_6detail8json_refISA_EEvEET_SJ_RKSB_ = comdat any

$_ZNSt12_Vector_baseIN8nlohmann10basic_jsonISt3mapSt6vectorNSt7__cxx1112basic_stringIcSt11char_traitsIcESaIcEEEblmdSaNS0_14adl_serializerEEESaISB_EEC2ERKSC_ = comdat any

$_ZSt19__iterator_categoryIPKN8nlohmann6detail8json_refINS0_10basic_jsonISt3mapSt6vectorNSt7__cxx1112basic_stringIcSt11char_traitsIcESaIcEEEblmdSaNS0_14adl_serializerEEEEEENSt15iterator_traitsIT_E17iterator_categoryERKSI_ = comdat any

$_ZNSt6vectorIN8nlohmann10basic_jsonISt3mapS_NSt7__cxx1112basic_stringIcSt11char_traitsIcESaIcEEEblmdSaNS0_14adl_serializerEEESaISA_EE19_M_range_initializeIPKNS0_6detail8json_refISA_EEEEvT_SJ_St20forward_iterator_tag = comdat any

$_ZSt8distanceIPKN8nlohmann6detail8json_refINS0_10basic_jsonISt3mapSt6vectorNSt7__cxx1112basic_stringIcSt11char_traitsIcESaIcEEEblmdSaNS0_14adl_serializerEEEEEENSt15iterator_traitsIT_E15difference_typeESI_SI_ = comdat any

$_ZNSt6vectorIN8nlohmann10basic_jsonISt3mapS_NSt7__cxx1112basic_stringIcSt11char_traitsIcESaIcEEEblmdSaNS0_14adl_serializerEEESaISA_EE17_S_check_init_lenEmRKSB_ = comdat any

$_ZSt22__uninitialized_copy_aIPKN8nlohmann6detail8json_refINS0_10basic_jsonISt3mapSt6vectorNSt7__cxx1112basic_stringIcSt11char_traitsIcESaIcEEEblmdSaNS0_14adl_serializerEEEEEPSD_SD_ET0_T_SJ_SI_RSaIT1_E = comdat any

$_ZSt18uninitialized_copyIPKN8nlohmann6detail8json_refINS0_10basic_jsonISt3mapSt6vectorNSt7__cxx1112basic_stringIcSt11char_traitsIcESaIcEEEblmdSaNS0_14adl_serializerEEEEEPSD_ET0_T_SJ_SI_ = comdat any

$_ZNSt20__uninitialized_copyILb0EE13__uninit_copyIPKN8nlohmann6detail8json_refINS2_10basic_jsonISt3mapSt6vectorNSt7__cxx1112basic_stringIcSt11char_traitsIcESaIcEEEblmdSaNS2_14adl_serializerEEEEEPSF_EET0_T_SL_SK_ = comdat any

$_ZSt10_ConstructIN8nlohmann10basic_jsonISt3mapSt6vectorNSt7__cxx1112basic_stringIcSt11char_traitsIcESaIcEEEblmdSaNS0_14adl_serializerEEEJRKNS0_6detail8json_refISB_EEEEvPT_DpOT0_ = comdat any

$_ZN8nlohmann10basic_jsonISt3mapSt6vectorNSt7__cxx1112basic_stringIcSt11char_traitsIcESaIcEEEblmdSaNS_14adl_serializerEEC2ERKNS_6detail8json_refISA_EE = comdat any

$_ZNK8nlohmann6detail8json_refINS_10basic_jsonISt3mapSt6vectorNSt7__cxx1112basic_stringIcSt11char_traitsIcESaIcEEEblmdSaNS_14adl_serializerEEEE15moved_or_copiedEv = comdat any

$_ZN8nlohmann10basic_jsonISt3mapSt6vectorNSt7__cxx1112basic_stringIcSt11char_traitsIcESaIcEEEblmdSaNS_14adl_serializerEEC2ERKSA_ = comdat any

$_ZN8nlohmann10basic_jsonISt3mapSt6vectorNSt7__cxx1112basic_stringIcSt11char_traitsIcESaIcEEEblmdSaNS_14adl_serializerEE10json_valueC2ERKS1_IS8_SA_St4lessIvESaISt4pairIKS8_SA_EEE = comdat any

$_ZN8nlohmann10basic_jsonISt3mapSt6vectorNSt7__cxx1112basic_stringIcSt11char_traitsIcESaIcEEEblmdSaNS_14adl_serializerEE10json_valueC2ERKS2_ISA_SaISA_EE = comdat any

$_ZN8nlohmann10basic_jsonISt3mapSt6vectorNSt7__cxx1112basic_stringIcSt11char_traitsIcESaIcEEEblmdSaNS_14adl_serializerEE10json_valueC2ERKS8_ = comdat any

$_ZN8nlohmann10basic_jsonISt3mapSt6vectorNSt7__cxx1112basic_stringIcSt11char_traitsIcESaIcEEEblmdSaNS_14adl_serializerEE10json_valueC2Eb = comdat any

$_ZN8nlohmann10basic_jsonISt3mapSt6vectorNSt7__cxx1112basic_stringIcSt11char_traitsIcESaIcEEEblmdSaNS_14adl_serializerEE10json_valueC2El = comdat any

$_ZN8nlohmann10basic_jsonISt3mapSt6vectorNSt7__cxx1112basic_stringIcSt11char_traitsIcESaIcEEEblmdSaNS_14adl_serializerEE10json_valueC2Em = comdat any

$_ZN8nlohmann10basic_jsonISt3mapSt6vectorNSt7__cxx1112basic_stringIcSt11char_traitsIcESaIcEEEblmdSaNS_14adl_serializerEE10json_valueC2Ed = comdat any

$_ZN8nlohmann10basic_jsonISt3mapSt6vectorNSt7__cxx1112basic_stringIcSt11char_traitsIcESaIcEEEblmdSaNS_14adl_serializerEE6createIS8_JRKS8_EEEPT_DpOT0_ = comdat any

$_ZNSt16allocator_traitsISaINSt7__cxx1112basic_stringIcSt11char_traitsIcESaIcEEEEE8allocateERS6_m = comdat any

$_ZNSt10unique_ptrINSt7__cxx1112basic_stringIcSt11char_traitsIcESaIcEEEZN8nlohmann10basic_jsonISt3mapSt6vectorS5_blmdSaNS6_14adl_serializerEE6createIS5_JRKS5_EEEPT_DpOT0_EUlPS5_E_EC2ISL_vEESK_RKSL_ = comdat any

$_ZNKSt10unique_ptrINSt7__cxx1112basic_stringIcSt11char_traitsIcESaIcEEEZN8nlohmann10basic_jsonISt3mapSt6vectorS5_blmdSaNS6_14adl_serializerEE6createIS5_JRKS5_EEEPT_DpOT0_EUlPS5_E_E3getEv = comdat any

$_ZNSt16allocator_traitsISaINSt7__cxx1112basic_stringIcSt11char_traitsIcESaIcEEEEE9constructIS5_JRKS5_EEEvRS6_PT_DpOT0_ = comdat any

$_ZStneINSt7__cxx1112basic_stringIcSt11char_traitsIcESaIcEEEZN8nlohmann10basic_jsonISt3mapSt6vectorS5_blmdSaNS6_14adl_serializerEE6createIS5_JRKS5_EEEPT_DpOT0_EUlPS5_E_EbRKSt10unique_ptrISF_T0_EDn = comdat any

$_ZNSt10unique_ptrINSt7__cxx1112basic_stringIcSt11char_traitsIcESaIcEEEZN8nlohmann10basic_jsonISt3mapSt6vectorS5_blmdSaNS6_14adl_serializerEE6createIS5_JRKS5_EEEPT_DpOT0_EUlPS5_E_ED2Ev = comdat any

$_ZNSt10unique_ptrINSt7__cxx1112basic_stringIcSt11char_traitsIcESaIcEEEZN8nlohmann10basic_jsonISt3mapSt6vectorS5_blmdSaNS6_14adl_serializerEE6createIS5_JRKS5_EEEPT_DpOT0_EUlPS5_E_E7releaseEv = comdat any

$_ZNSt15__uniq_ptr_implINSt7__cxx1112basic_stringIcSt11char_traitsIcESaIcEEEZN8nlohmann10basic_jsonISt3mapSt6vectorS5_blmdSaNS6_14adl_serializerEE6createIS5_JRKS5_EEEPT_DpOT0_EUlPS5_E_E6_M_ptrEv = comdat any

$_ZSt3getILm0EJPNSt7__cxx1112basic_stringIcSt11char_traitsIcESaIcEEEZN8nlohmann10basic_jsonISt3mapSt6vectorS5_blmdSaNS7_14adl_serializerEE6createIS5_JRKS5_EEEPT_DpOT0_EUlS6_E_EERNSt13tuple_elementIXT_ESt5tupleIJDpSI_EEE4typeERSP_ = comdat any

$_ZSt12__get_helperILm0EPNSt7__cxx1112basic_stringIcSt11char_traitsIcESaIcEEEJZN8nlohmann10basic_jsonISt3mapSt6vectorS5_blmdSaNS7_14adl_serializerEE6createIS5_JRKS5_EEEPT_DpOT0_EUlS6_E_EERT0_RSt11_Tuple_implIXT_EJSM_DpT1_EE = comdat any

$_ZNSt11_Tuple_implILm0EJPNSt7__cxx1112basic_stringIcSt11char_traitsIcESaIcEEEZN8nlohmann10basic_jsonISt3mapSt6vectorS5_blmdSaNS7_14adl_serializerEE6createIS5_JRKS5_EEEPT_DpOT0_EUlS6_E_EE7_M_headERSM_ = comdat any

$_ZNSt10_Head_baseILm0EPNSt7__cxx1112basic_stringIcSt11char_traitsIcESaIcEEELb0EE7_M_headERS7_ = comdat any

$_ZNSt10unique_ptrINSt7__cxx1112basic_stringIcSt11char_traitsIcESaIcEEEZN8nlohmann10basic_jsonISt3mapSt6vectorS5_blmdSaNS6_14adl_serializerEE6createIS5_JRKS5_EEEPT_DpOT0_EUlPS5_E_E11get_deleterEv = comdat any

$_ZZN8nlohmann10basic_jsonISt3mapSt6vectorNSt7__cxx1112basic_stringIcSt11char_traitsIcESaIcEEEblmdSaNS_14adl_serializerEE6createIS8_JRKS8_EEEPT_DpOT0_ENKUlPS8_E_clESJ_ = comdat any

$_ZNSt15__uniq_ptr_implINSt7__cxx1112basic_stringIcSt11char_traitsIcESaIcEEEZN8nlohmann10basic_jsonISt3mapSt6vectorS5_blmdSaNS6_14adl_serializerEE6createIS5_JRKS5_EEEPT_DpOT0_EUlPS5_E_E10_M_deleterEv = comdat any

$_ZSt3getILm1EJPNSt7__cxx1112basic_stringIcSt11char_traitsIcESaIcEEEZN8nlohmann10basic_jsonISt3mapSt6vectorS5_blmdSaNS7_14adl_serializerEE6createIS5_JRKS5_EEEPT_DpOT0_EUlS6_E_EERNSt13tuple_elementIXT_ESt5tupleIJDpSI_EEE4typeERSP_ = comdat any

$_ZSt12__get_helperILm1EZN8nlohmann10basic_jsonISt3mapSt6vectorNSt7__cxx1112basic_stringIcSt11char_traitsIcESaIcEEEblmdSaNS0_14adl_serializerEE6createIS9_JRKS9_EEEPT_DpOT0_EUlPS9_E_JEERT0_RSt11_Tuple_implIXT_EJSM_DpT1_EE = comdat any

$_ZNSt11_Tuple_implILm1EJZN8nlohmann10basic_jsonISt3mapSt6vectorNSt7__cxx1112basic_stringIcSt11char_traitsIcESaIcEEEblmdSaNS0_14adl_serializerEE6createIS9_JRKS9_EEEPT_DpOT0_EUlPS9_E_EE7_M_headERSM_ = comdat any

$_ZNSt10_Head_baseILm1EZN8nlohmann10basic_jsonISt3mapSt6vectorNSt7__cxx1112basic_stringIcSt11char_traitsIcESaIcEEEblmdSaNS0_14adl_serializerEE6createIS9_JRKS9_EEEPT_DpOT0_EUlPS9_E_Lb0EE7_M_headERSM_ = comdat any

$_ZNKSt10unique_ptrINSt7__cxx1112basic_stringIcSt11char_traitsIcESaIcEEEZN8nlohmann10basic_jsonISt3mapSt6vectorS5_blmdSaNS6_14adl_serializerEE6createIS5_JRKS5_EEEPT_DpOT0_EUlPS5_E_EcvbEv = comdat any

$_ZN9__gnu_cxx13new_allocatorINSt7__cxx1112basic_stringIcSt11char_traitsIcESaIcEEEE9constructIS6_JRKS6_EEEvPT_DpOT0_ = comdat any

$_ZNKSt15__uniq_ptr_implINSt7__cxx1112basic_stringIcSt11char_traitsIcESaIcEEEZN8nlohmann10basic_jsonISt3mapSt6vectorS5_blmdSaNS6_14adl_serializerEE6createIS5_JRKS5_EEEPT_DpOT0_EUlPS5_E_E6_M_ptrEv = comdat any

$_ZSt3getILm0EJPNSt7__cxx1112basic_stringIcSt11char_traitsIcESaIcEEEZN8nlohmann10basic_jsonISt3mapSt6vectorS5_blmdSaNS7_14adl_serializerEE6createIS5_JRKS5_EEEPT_DpOT0_EUlS6_E_EERKNSt13tuple_elementIXT_ESt5tupleIJDpSI_EEE4typeERKSP_ = comdat any

$_ZSt12__get_helperILm0EPNSt7__cxx1112basic_stringIcSt11char_traitsIcESaIcEEEJZN8nlohmann10basic_jsonISt3mapSt6vectorS5_blmdSaNS7_14adl_serializerEE6createIS5_JRKS5_EEEPT_DpOT0_EUlS6_E_EERKT0_RKSt11_Tuple_implIXT_EJSM_DpT1_EE = comdat any

$_ZNSt11_Tuple_implILm0EJPNSt7__cxx1112basic_stringIcSt11char_traitsIcESaIcEEEZN8nlohmann10basic_jsonISt3mapSt6vectorS5_blmdSaNS7_14adl_serializerEE6createIS5_JRKS5_EEEPT_DpOT0_EUlS6_E_EE7_M_headERKSM_ = comdat any

$_ZNSt10_Head_baseILm0EPNSt7__cxx1112basic_stringIcSt11char_traitsIcESaIcEEELb0EE7_M_headERKS7_ = comdat any

$_ZNSt15__uniq_ptr_implINSt7__cxx1112basic_stringIcSt11char_traitsIcESaIcEEEZN8nlohmann10basic_jsonISt3mapSt6vectorS5_blmdSaNS6_14adl_serializerEE6createIS5_JRKS5_EEEPT_DpOT0_EUlPS5_E_EC2IRKSL_EESK_OSF_ = comdat any

$_ZNSt5tupleIJPNSt7__cxx1112basic_stringIcSt11char_traitsIcESaIcEEEZN8nlohmann10basic_jsonISt3mapSt6vectorS5_blmdSaNS7_14adl_serializerEE6createIS5_JRKS5_EEEPT_DpOT0_EUlS6_E_EEC2IRS6_RKSL_Lb1EEEOSG_OT0_ = comdat any

$_ZNSt11_Tuple_implILm0EJPNSt7__cxx1112basic_stringIcSt11char_traitsIcESaIcEEEZN8nlohmann10basic_jsonISt3mapSt6vectorS5_blmdSaNS7_14adl_serializerEE6createIS5_JRKS5_EEEPT_DpOT0_EUlS6_E_EEC2IRS6_JRKSL_EvEEOSG_SK_ = comdat any

$_ZNSt11_Tuple_implILm1EJZN8nlohmann10basic_jsonISt3mapSt6vectorNSt7__cxx1112basic_stringIcSt11char_traitsIcESaIcEEEblmdSaNS0_14adl_serializerEE6createIS9_JRKS9_EEEPT_DpOT0_EUlPS9_E_EEC2ERKSL_ = comdat any

$_ZNSt10_Head_baseILm0EPNSt7__cxx1112basic_stringIcSt11char_traitsIcESaIcEEELb0EEC2IRS6_EEOT_ = comdat any

$_ZNSt10_Head_baseILm1EZN8nlohmann10basic_jsonISt3mapSt6vectorNSt7__cxx1112basic_stringIcSt11char_traitsIcESaIcEEEblmdSaNS0_14adl_serializerEE6createIS9_JRKS9_EEEPT_DpOT0_EUlPS9_E_Lb0EEC2ERKSL_ = comdat any

$_ZN9__gnu_cxx13new_allocatorINSt7__cxx1112basic_stringIcSt11char_traitsIcESaIcEEEE8allocateEmPKv = comdat any

$_ZNK9__gnu_cxx13new_allocatorINSt7__cxx1112basic_stringIcSt11char_traitsIcESaIcEEEE8max_sizeEv = comdat any

$_ZN8nlohmann10basic_jsonISt3mapSt6vectorNSt7__cxx1112basic_stringIcSt11char_traitsIcESaIcEEEblmdSaNS_14adl_serializerEE6createIS2_ISA_SaISA_EEJRKSD_EEEPT_DpOT0_ = comdat any

$_ZNSt10unique_ptrISt6vectorIN8nlohmann10basic_jsonISt3mapS0_NSt7__cxx1112basic_stringIcSt11char_traitsIcESaIcEEEblmdSaNS1_14adl_serializerEEESaISB_EEZNSB_6createISD_JRKSD_EEEPT_DpOT0_EUlPSD_E_EC2ISN_vEESM_RKSN_ = comdat any

$_ZNKSt10unique_ptrISt6vectorIN8nlohmann10basic_jsonISt3mapS0_NSt7__cxx1112basic_stringIcSt11char_traitsIcESaIcEEEblmdSaNS1_14adl_serializerEEESaISB_EEZNSB_6createISD_JRKSD_EEEPT_DpOT0_EUlPSD_E_E3getEv = comdat any

$_ZNSt16allocator_traitsISaISt6vectorIN8nlohmann10basic_jsonISt3mapS0_NSt7__cxx1112basic_stringIcSt11char_traitsIcESaIcEEEblmdSaNS1_14adl_serializerEEESaISB_EEEE9constructISD_JRKSD_EEEvRSE_PT_DpOT0_ = comdat any

$_ZStneISt6vectorIN8nlohmann10basic_jsonISt3mapS0_NSt7__cxx1112basic_stringIcSt11char_traitsIcESaIcEEEblmdSaNS1_14adl_serializerEEESaISB_EEZNSB_6createISD_JRKSD_EEEPT_DpOT0_EUlPSD_E_EbRKSt10unique_ptrISH_T0_EDn = comdat any

$_ZNSt10unique_ptrISt6vectorIN8nlohmann10basic_jsonISt3mapS0_NSt7__cxx1112basic_stringIcSt11char_traitsIcESaIcEEEblmdSaNS1_14adl_serializerEEESaISB_EEZNSB_6createISD_JRKSD_EEEPT_DpOT0_EUlPSD_E_ED2Ev = comdat any

$_ZNSt10unique_ptrISt6vectorIN8nlohmann10basic_jsonISt3mapS0_NSt7__cxx1112basic_stringIcSt11char_traitsIcESaIcEEEblmdSaNS1_14adl_serializerEEESaISB_EEZNSB_6createISD_JRKSD_EEEPT_DpOT0_EUlPSD_E_E7releaseEv = comdat any

$_ZNSt15__uniq_ptr_implISt6vectorIN8nlohmann10basic_jsonISt3mapS0_NSt7__cxx1112basic_stringIcSt11char_traitsIcESaIcEEEblmdSaNS1_14adl_serializerEEESaISB_EEZNSB_6createISD_JRKSD_EEEPT_DpOT0_EUlPSD_E_E6_M_ptrEv = comdat any

$_ZSt3getILm0EJPSt6vectorIN8nlohmann10basic_jsonISt3mapS0_NSt7__cxx1112basic_stringIcSt11char_traitsIcESaIcEEEblmdSaNS1_14adl_serializerEEESaISB_EEZNSB_6createISD_JRKSD_EEEPT_DpOT0_EUlSE_E_EERNSt13tuple_elementIXT_ESt5tupleIJDpSK_EEE4typeERSR_ = comdat any

$_ZSt12__get_helperILm0EPSt6vectorIN8nlohmann10basic_jsonISt3mapS0_NSt7__cxx1112basic_stringIcSt11char_traitsIcESaIcEEEblmdSaNS1_14adl_serializerEEESaISB_EEJZNSB_6createISD_JRKSD_EEEPT_DpOT0_EUlSE_E_EERT0_RSt11_Tuple_implIXT_EJSO_DpT1_EE = comdat any

$_ZNSt11_Tuple_implILm0EJPSt6vectorIN8nlohmann10basic_jsonISt3mapS0_NSt7__cxx1112basic_stringIcSt11char_traitsIcESaIcEEEblmdSaNS1_14adl_serializerEEESaISB_EEZNSB_6createISD_JRKSD_EEEPT_DpOT0_EUlSE_E_EE7_M_headERSO_ = comdat any

$_ZNSt10unique_ptrISt6vectorIN8nlohmann10basic_jsonISt3mapS0_NSt7__cxx1112basic_stringIcSt11char_traitsIcESaIcEEEblmdSaNS1_14adl_serializerEEESaISB_EEZNSB_6createISD_JRKSD_EEEPT_DpOT0_EUlPSD_E_E11get_deleterEv = comdat any

$_ZZN8nlohmann10basic_jsonISt3mapSt6vectorNSt7__cxx1112basic_stringIcSt11char_traitsIcESaIcEEEblmdSaNS_14adl_serializerEE6createIS2_ISA_SaISA_EEJRKSD_EEEPT_DpOT0_ENKUlPSD_E_clESL_ = comdat any

$_ZNSt15__uniq_ptr_implISt6vectorIN8nlohmann10basic_jsonISt3mapS0_NSt7__cxx1112basic_stringIcSt11char_traitsIcESaIcEEEblmdSaNS1_14adl_serializerEEESaISB_EEZNSB_6createISD_JRKSD_EEEPT_DpOT0_EUlPSD_E_E10_M_deleterEv = comdat any

$_ZSt3getILm1EJPSt6vectorIN8nlohmann10basic_jsonISt3mapS0_NSt7__cxx1112basic_stringIcSt11char_traitsIcESaIcEEEblmdSaNS1_14adl_serializerEEESaISB_EEZNSB_6createISD_JRKSD_EEEPT_DpOT0_EUlSE_E_EERNSt13tuple_elementIXT_ESt5tupleIJDpSK_EEE4typeERSR_ = comdat any

$_ZSt12__get_helperILm1EZN8nlohmann10basic_jsonISt3mapSt6vectorNSt7__cxx1112basic_stringIcSt11char_traitsIcESaIcEEEblmdSaNS0_14adl_serializerEE6createIS3_ISB_SaISB_EEJRKSE_EEEPT_DpOT0_EUlPSE_E_JEERT0_RSt11_Tuple_implIXT_EJSO_DpT1_EE = comdat any

$_ZNSt11_Tuple_implILm1EJZN8nlohmann10basic_jsonISt3mapSt6vectorNSt7__cxx1112basic_stringIcSt11char_traitsIcESaIcEEEblmdSaNS0_14adl_serializerEE6createIS3_ISB_SaISB_EEJRKSE_EEEPT_DpOT0_EUlPSE_E_EE7_M_headERSO_ = comdat any

$_ZNSt10_Head_baseILm1EZN8nlohmann10basic_jsonISt3mapSt6vectorNSt7__cxx1112basic_stringIcSt11char_traitsIcESaIcEEEblmdSaNS0_14adl_serializerEE6createIS3_ISB_SaISB_EEJRKSE_EEEPT_DpOT0_EUlPSE_E_Lb0EE7_M_headERSO_ = comdat any

$_ZNKSt10unique_ptrISt6vectorIN8nlohmann10basic_jsonISt3mapS0_NSt7__cxx1112basic_stringIcSt11char_traitsIcESaIcEEEblmdSaNS1_14adl_serializerEEESaISB_EEZNSB_6createISD_JRKSD_EEEPT_DpOT0_EUlPSD_E_EcvbEv = comdat any

$_ZN9__gnu_cxx13new_allocatorISt6vectorIN8nlohmann10basic_jsonISt3mapS1_NSt7__cxx1112basic_stringIcSt11char_traitsIcESaIcEEEblmdSaNS2_14adl_serializerEEESaISC_EEE9constructISE_JRKSE_EEEvPT_DpOT0_ = comdat any

$_ZNSt6vectorIN8nlohmann10basic_jsonISt3mapS_NSt7__cxx1112basic_stringIcSt11char_traitsIcESaIcEEEblmdSaNS0_14adl_serializerEEESaISA_EEC2ERKSC_ = comdat any

$_ZN9__gnu_cxx14__alloc_traitsISaIN8nlohmann10basic_jsonISt3mapSt6vectorNSt7__cxx1112basic_stringIcSt11char_traitsIcESaIcEEEblmdSaNS1_14adl_serializerEEEESC_E17_S_select_on_copyERKSD_ = comdat any

$_ZNSt12_Vector_baseIN8nlohmann10basic_jsonISt3mapSt6vectorNSt7__cxx1112basic_stringIcSt11char_traitsIcESaIcEEEblmdSaNS0_14adl_serializerEEESaISB_EEC2EmRKSC_ = comdat any

$_ZSt22__uninitialized_copy_aIN9__gnu_cxx17__normal_iteratorIPKN8nlohmann10basic_jsonISt3mapSt6vectorNSt7__cxx1112basic_stringIcSt11char_traitsIcESaIcEEEblmdSaNS2_14adl_serializerEEES5_ISD_SaISD_EEEEPSD_SD_ET0_T_SL_SK_RSaIT1_E = comdat any

$_ZSt18uninitialized_copyIN9__gnu_cxx17__normal_iteratorIPKN8nlohmann10basic_jsonISt3mapSt6vectorNSt7__cxx1112basic_stringIcSt11char_traitsIcESaIcEEEblmdSaNS2_14adl_serializerEEES5_ISD_SaISD_EEEEPSD_ET0_T_SL_SK_ = comdat any

$_ZNSt20__uninitialized_copyILb0EE13__uninit_copyIN9__gnu_cxx17__normal_iteratorIPKN8nlohmann10basic_jsonISt3mapSt6vectorNSt7__cxx1112basic_stringIcSt11char_traitsIcESaIcEEEblmdSaNS4_14adl_serializerEEES7_ISF_SaISF_EEEEPSF_EET0_T_SN_SM_ = comdat any

$_ZN9__gnu_cxxneIPKN8nlohmann10basic_jsonISt3mapSt6vectorNSt7__cxx1112basic_stringIcSt11char_traitsIcESaIcEEEblmdSaNS1_14adl_serializerEEES4_ISC_SaISC_EEEEbRKNS_17__normal_iteratorIT_T0_EESM_ = comdat any

$_ZNK9__gnu_cxx17__normal_iteratorIPKN8nlohmann10basic_jsonISt3mapSt6vectorNSt7__cxx1112basic_stringIcSt11char_traitsIcESaIcEEEblmdSaNS1_14adl_serializerEEES4_ISC_SaISC_EEEdeEv = comdat any

$_ZSt10_ConstructIN8nlohmann10basic_jsonISt3mapSt6vectorNSt7__cxx1112basic_stringIcSt11char_traitsIcESaIcEEEblmdSaNS0_14adl_serializerEEEJRKSB_EEvPT_DpOT0_ = comdat any

$_ZN9__gnu_cxx17__normal_iteratorIPKN8nlohmann10basic_jsonISt3mapSt6vectorNSt7__cxx1112basic_stringIcSt11char_traitsIcESaIcEEEblmdSaNS1_14adl_serializerEEES4_ISC_SaISC_EEEppEv = comdat any

$_ZNSt12_Vector_baseIN8nlohmann10basic_jsonISt3mapSt6vectorNSt7__cxx1112basic_stringIcSt11char_traitsIcESaIcEEEblmdSaNS0_14adl_serializerEEESaISB_EE12_Vector_implC2ERKSC_ = comdat any

$_ZNSt12_Vector_baseIN8nlohmann10basic_jsonISt3mapSt6vectorNSt7__cxx1112basic_stringIcSt11char_traitsIcESaIcEEEblmdSaNS0_14adl_serializerEEESaISB_EE17_M_create_storageEm = comdat any

$_ZNSaIN8nlohmann10basic_jsonISt3mapSt6vectorNSt7__cxx1112basic_stringIcSt11char_traitsIcESaIcEEEblmdSaNS_14adl_serializerEEEEC2ERKSB_ = comdat any

$_ZN9__gnu_cxx13new_allocatorIN8nlohmann10basic_jsonISt3mapSt6vectorNSt7__cxx1112basic_stringIcSt11char_traitsIcESaIcEEEblmdSaNS1_14adl_serializerEEEEC2ERKSD_ = comdat any

$_ZNSt16allocator_traitsISaIN8nlohmann10basic_jsonISt3mapSt6vectorNSt7__cxx1112basic_stringIcSt11char_traitsIcESaIcEEEblmdSaNS0_14adl_serializerEEEEE37select_on_container_copy_constructionERKSC_ = comdat any

$_ZNKSt15__uniq_ptr_implISt6vectorIN8nlohmann10basic_jsonISt3mapS0_NSt7__cxx1112basic_stringIcSt11char_traitsIcESaIcEEEblmdSaNS1_14adl_serializerEEESaISB_EEZNSB_6createISD_JRKSD_EEEPT_DpOT0_EUlPSD_E_E6_M_ptrEv = comdat any

$_ZSt3getILm0EJPSt6vectorIN8nlohmann10basic_jsonISt3mapS0_NSt7__cxx1112basic_stringIcSt11char_traitsIcESaIcEEEblmdSaNS1_14adl_serializerEEESaISB_EEZNSB_6createISD_JRKSD_EEEPT_DpOT0_EUlSE_E_EERKNSt13tuple_elementIXT_ESt5tupleIJDpSK_EEE4typeERKSR_ = comdat any

$_ZSt12__get_helperILm0EPSt6vectorIN8nlohmann10basic_jsonISt3mapS0_NSt7__cxx1112basic_stringIcSt11char_traitsIcESaIcEEEblmdSaNS1_14adl_serializerEEESaISB_EEJZNSB_6createISD_JRKSD_EEEPT_DpOT0_EUlSE_E_EERKT0_RKSt11_Tuple_implIXT_EJSO_DpT1_EE = comdat any

$_ZNSt11_Tuple_implILm0EJPSt6vectorIN8nlohmann10basic_jsonISt3mapS0_NSt7__cxx1112basic_stringIcSt11char_traitsIcESaIcEEEblmdSaNS1_14adl_serializerEEESaISB_EEZNSB_6createISD_JRKSD_EEEPT_DpOT0_EUlSE_E_EE7_M_headERKSO_ = comdat any

$_ZNSt10_Head_baseILm0EPSt6vectorIN8nlohmann10basic_jsonISt3mapS0_NSt7__cxx1112basic_stringIcSt11char_traitsIcESaIcEEEblmdSaNS1_14adl_serializerEEESaISB_EELb0EE7_M_headERKSF_ = comdat any

$_ZNSt15__uniq_ptr_implISt6vectorIN8nlohmann10basic_jsonISt3mapS0_NSt7__cxx1112basic_stringIcSt11char_traitsIcESaIcEEEblmdSaNS1_14adl_serializerEEESaISB_EEZNSB_6createISD_JRKSD_EEEPT_DpOT0_EUlPSD_E_EC2IRKSN_EESM_OSH_ = comdat any

$_ZNSt5tupleIJPSt6vectorIN8nlohmann10basic_jsonISt3mapS0_NSt7__cxx1112basic_stringIcSt11char_traitsIcESaIcEEEblmdSaNS1_14adl_serializerEEESaISB_EEZNSB_6createISD_JRKSD_EEEPT_DpOT0_EUlSE_E_EEC2IRSE_RKSN_Lb1EEEOSI_OT0_ = comdat any

$_ZNSt11_Tuple_implILm0EJPSt6vectorIN8nlohmann10basic_jsonISt3mapS0_NSt7__cxx1112basic_stringIcSt11char_traitsIcESaIcEEEblmdSaNS1_14adl_serializerEEESaISB_EEZNSB_6createISD_JRKSD_EEEPT_DpOT0_EUlSE_E_EEC2IRSE_JRKSN_EvEEOSI_SM_ = comdat any

$_ZNSt11_Tuple_implILm1EJZN8nlohmann10basic_jsonISt3mapSt6vectorNSt7__cxx1112basic_stringIcSt11char_traitsIcESaIcEEEblmdSaNS0_14adl_serializerEE6createIS3_ISB_SaISB_EEJRKSE_EEEPT_DpOT0_EUlPSE_E_EEC2ERKSN_ = comdat any

$_ZNSt10_Head_baseILm0EPSt6vectorIN8nlohmann10basic_jsonISt3mapS0_NSt7__cxx1112basic_stringIcSt11char_traitsIcESaIcEEEblmdSaNS1_14adl_serializerEEESaISB_EELb0EEC2IRSE_EEOT_ = comdat any

$_ZNSt10_Head_baseILm1EZN8nlohmann10basic_jsonISt3mapSt6vectorNSt7__cxx1112basic_stringIcSt11char_traitsIcESaIcEEEblmdSaNS0_14adl_serializerEE6createIS3_ISB_SaISB_EEJRKSE_EEEPT_DpOT0_EUlPSE_E_Lb0EEC2ERKSN_ = comdat any

$_ZN8nlohmann10basic_jsonISt3mapSt6vectorNSt7__cxx1112basic_stringIcSt11char_traitsIcESaIcEEEblmdSaNS_14adl_serializerEE6createIS1_IS8_SA_St4lessIvESaISt4pairIKS8_SA_EEEJRKSI_EEEPT_DpOT0_ = comdat any

$_ZNSt16allocator_traitsISaISt3mapINSt7__cxx1112basic_stringIcSt11char_traitsIcESaIcEEEN8nlohmann10basic_jsonIS0_St6vectorS6_blmdSaNS7_14adl_serializerEEESt4lessIvESaISt4pairIKS6_SB_EEEEE8allocateERSJ_m = comdat any

$_ZNSt10unique_ptrISt3mapINSt7__cxx1112basic_stringIcSt11char_traitsIcESaIcEEEN8nlohmann10basic_jsonIS0_St6vectorS6_blmdSaNS7_14adl_serializerEEESt4lessIvESaISt4pairIKS6_SB_EEEZNSB_6createISI_JRKSI_EEEPT_DpOT0_EUlPSI_E_EC2ISS_vEESR_RKSS_ = comdat any

$_ZNKSt10unique_ptrISt3mapINSt7__cxx1112basic_stringIcSt11char_traitsIcESaIcEEEN8nlohmann10basic_jsonIS0_St6vectorS6_blmdSaNS7_14adl_serializerEEESt4lessIvESaISt4pairIKS6_SB_EEEZNSB_6createISI_JRKSI_EEEPT_DpOT0_EUlPSI_E_E3getEv = comdat any

$_ZNSt16allocator_traitsISaISt3mapINSt7__cxx1112basic_stringIcSt11char_traitsIcESaIcEEEN8nlohmann10basic_jsonIS0_St6vectorS6_blmdSaNS7_14adl_serializerEEESt4lessIvESaISt4pairIKS6_SB_EEEEE9constructISI_JRKSI_EEEvRSJ_PT_DpOT0_ = comdat any

$_ZStneISt3mapINSt7__cxx1112basic_stringIcSt11char_traitsIcESaIcEEEN8nlohmann10basic_jsonIS0_St6vectorS6_blmdSaNS7_14adl_serializerEEESt4lessIvESaISt4pairIKS6_SB_EEEZNSB_6createISI_JRKSI_EEEPT_DpOT0_EUlPSI_E_EbRKSt10unique_ptrISM_T0_EDn = comdat any

$_ZNSt10unique_ptrISt3mapINSt7__cxx1112basic_stringIcSt11char_traitsIcESaIcEEEN8nlohmann10basic_jsonIS0_St6vectorS6_blmdSaNS7_14adl_serializerEEESt4lessIvESaISt4pairIKS6_SB_EEEZNSB_6createISI_JRKSI_EEEPT_DpOT0_EUlPSI_E_ED2Ev = comdat any

$_ZNSt10unique_ptrISt3mapINSt7__cxx1112basic_stringIcSt11char_traitsIcESaIcEEEN8nlohmann10basic_jsonIS0_St6vectorS6_blmdSaNS7_14adl_serializerEEESt4lessIvESaISt4pairIKS6_SB_EEEZNSB_6createISI_JRKSI_EEEPT_DpOT0_EUlPSI_E_E7releaseEv = comdat any

$_ZNSt15__uniq_ptr_implISt3mapINSt7__cxx1112basic_stringIcSt11char_traitsIcESaIcEEEN8nlohmann10basic_jsonIS0_St6vectorS6_blmdSaNS7_14adl_serializerEEESt4lessIvESaISt4pairIKS6_SB_EEEZNSB_6createISI_JRKSI_EEEPT_DpOT0_EUlPSI_E_E6_M_ptrEv = comdat any

$_ZSt3getILm0EJPSt3mapINSt7__cxx1112basic_stringIcSt11char_traitsIcESaIcEEEN8nlohmann10basic_jsonIS0_St6vectorS6_blmdSaNS7_14adl_serializerEEESt4lessIvESaISt4pairIKS6_SB_EEEZNSB_6createISI_JRKSI_EEEPT_DpOT0_EUlSJ_E_EERNSt13tuple_elementIXT_ESt5tupleIJDpSP_EEE4typeERSW_ = comdat any

$_ZSt12__get_helperILm0EPSt3mapINSt7__cxx1112basic_stringIcSt11char_traitsIcESaIcEEEN8nlohmann10basic_jsonIS0_St6vectorS6_blmdSaNS7_14adl_serializerEEESt4lessIvESaISt4pairIKS6_SB_EEEJZNSB_6createISI_JRKSI_EEEPT_DpOT0_EUlSJ_E_EERT0_RSt11_Tuple_implIXT_EJST_DpT1_EE = comdat any

$_ZNSt11_Tuple_implILm0EJPSt3mapINSt7__cxx1112basic_stringIcSt11char_traitsIcESaIcEEEN8nlohmann10basic_jsonIS0_St6vectorS6_blmdSaNS7_14adl_serializerEEESt4lessIvESaISt4pairIKS6_SB_EEEZNSB_6createISI_JRKSI_EEEPT_DpOT0_EUlSJ_E_EE7_M_headERST_ = comdat any

$_ZNSt10_Head_baseILm0EPSt3mapINSt7__cxx1112basic_stringIcSt11char_traitsIcESaIcEEEN8nlohmann10basic_jsonIS0_St6vectorS6_blmdSaNS7_14adl_serializerEEESt4lessIvESaISt4pairIKS6_SB_EEELb0EE7_M_headERSK_ = comdat any

$_ZNSt10unique_ptrISt3mapINSt7__cxx1112basic_stringIcSt11char_traitsIcESaIcEEEN8nlohmann10basic_jsonIS0_St6vectorS6_blmdSaNS7_14adl_serializerEEESt4lessIvESaISt4pairIKS6_SB_EEEZNSB_6createISI_JRKSI_EEEPT_DpOT0_EUlPSI_E_E11get_deleterEv = comdat any

$_ZZN8nlohmann10basic_jsonISt3mapSt6vectorNSt7__cxx1112basic_stringIcSt11char_traitsIcESaIcEEEblmdSaNS_14adl_serializerEE6createIS1_IS8_SA_St4lessIvESaISt4pairIKS8_SA_EEEJRKSI_EEEPT_DpOT0_ENKUlPSI_E_clESQ_ = comdat any

$_ZNSt15__uniq_ptr_implISt3mapINSt7__cxx1112basic_stringIcSt11char_traitsIcESaIcEEEN8nlohmann10basic_jsonIS0_St6vectorS6_blmdSaNS7_14adl_serializerEEESt4lessIvESaISt4pairIKS6_SB_EEEZNSB_6createISI_JRKSI_EEEPT_DpOT0_EUlPSI_E_E10_M_deleterEv = comdat any

$_ZSt3getILm1EJPSt3mapINSt7__cxx1112basic_stringIcSt11char_traitsIcESaIcEEEN8nlohmann10basic_jsonIS0_St6vectorS6_blmdSaNS7_14adl_serializerEEESt4lessIvESaISt4pairIKS6_SB_EEEZNSB_6createISI_JRKSI_EEEPT_DpOT0_EUlSJ_E_EERNSt13tuple_elementIXT_ESt5tupleIJDpSP_EEE4typeERSW_ = comdat any

$_ZSt12__get_helperILm1EZN8nlohmann10basic_jsonISt3mapSt6vectorNSt7__cxx1112basic_stringIcSt11char_traitsIcESaIcEEEblmdSaNS0_14adl_serializerEE6createIS2_IS9_SB_St4lessIvESaISt4pairIKS9_SB_EEEJRKSJ_EEEPT_DpOT0_EUlPSJ_E_JEERT0_RSt11_Tuple_implIXT_EJST_DpT1_EE = comdat any

$_ZNSt11_Tuple_implILm1EJZN8nlohmann10basic_jsonISt3mapSt6vectorNSt7__cxx1112basic_stringIcSt11char_traitsIcESaIcEEEblmdSaNS0_14adl_serializerEE6createIS2_IS9_SB_St4lessIvESaISt4pairIKS9_SB_EEEJRKSJ_EEEPT_DpOT0_EUlPSJ_E_EE7_M_headERST_ = comdat any

$_ZNSt10_Head_baseILm1EZN8nlohmann10basic_jsonISt3mapSt6vectorNSt7__cxx1112basic_stringIcSt11char_traitsIcESaIcEEEblmdSaNS0_14adl_serializerEE6createIS2_IS9_SB_St4lessIvESaISt4pairIKS9_SB_EEEJRKSJ_EEEPT_DpOT0_EUlPSJ_E_Lb0EE7_M_headERST_ = comdat any

$_ZNKSt10unique_ptrISt3mapINSt7__cxx1112basic_stringIcSt11char_traitsIcESaIcEEEN8nlohmann10basic_jsonIS0_St6vectorS6_blmdSaNS7_14adl_serializerEEESt4lessIvESaISt4pairIKS6_SB_EEEZNSB_6createISI_JRKSI_EEEPT_DpOT0_EUlPSI_E_EcvbEv = comdat any

$_ZN9__gnu_cxx13new_allocatorISt3mapINSt7__cxx1112basic_stringIcSt11char_traitsIcESaIcEEEN8nlohmann10basic_jsonIS1_St6vectorS7_blmdSaNS8_14adl_serializerEEESt4lessIvESaISt4pairIKS7_SC_EEEE9constructISJ_JRKSJ_EEEvPT_DpOT0_ = comdat any

$_ZNSt3mapINSt7__cxx1112basic_stringIcSt11char_traitsIcESaIcEEEN8nlohmann10basic_jsonIS_St6vectorS5_blmdSaNS6_14adl_serializerEEESt4lessIvESaISt4pairIKS5_SA_EEEC2ERKSH_ = comdat any

$_ZNSt8_Rb_treeINSt7__cxx1112basic_stringIcSt11char_traitsIcESaIcEEESt4pairIKS5_N8nlohmann10basic_jsonISt3mapSt6vectorS5_blmdSaNS8_14adl_serializerEEEESt10_Select1stISE_ESt4lessIvESaISE_EEC2ERKSK_ = comdat any

$_ZNSt8_Rb_treeINSt7__cxx1112basic_stringIcSt11char_traitsIcESaIcEEESt4pairIKS5_N8nlohmann10basic_jsonISt3mapSt6vectorS5_blmdSaNS8_14adl_serializerEEEESt10_Select1stISE_ESt4lessIvESaISE_EE13_Rb_tree_implISI_Lb1EEC2ERKSM_ = comdat any

$_ZNKSt8_Rb_treeINSt7__cxx1112basic_stringIcSt11char_traitsIcESaIcEEESt4pairIKS5_N8nlohmann10basic_jsonISt3mapSt6vectorS5_blmdSaNS8_14adl_serializerEEEESt10_Select1stISE_ESt4lessIvESaISE_EE7_M_rootEv = comdat any

$_ZNSt8_Rb_treeINSt7__cxx1112basic_stringIcSt11char_traitsIcESaIcEEESt4pairIKS5_N8nlohmann10basic_jsonISt3mapSt6vectorS5_blmdSaNS8_14adl_serializerEEEESt10_Select1stISE_ESt4lessIvESaISE_EE7_M_copyERKSK_ = comdat any

$_ZNSt8_Rb_treeINSt7__cxx1112basic_stringIcSt11char_traitsIcESaIcEEESt4pairIKS5_N8nlohmann10basic_jsonISt3mapSt6vectorS5_blmdSaNS8_14adl_serializerEEEESt10_Select1stISE_ESt4lessIvESaISE_EE7_M_rootEv = comdat any

$_ZNSt8_Rb_treeINSt7__cxx1112basic_stringIcSt11char_traitsIcESaIcEEESt4pairIKS5_N8nlohmann10basic_jsonISt3mapSt6vectorS5_blmdSaNS8_14adl_serializerEEEESt10_Select1stISE_ESt4lessIvESaISE_EE11_Alloc_nodeC2ERSK_ = comdat any

$_ZNSt8_Rb_treeINSt7__cxx1112basic_stringIcSt11char_traitsIcESaIcEEESt4pairIKS5_N8nlohmann10basic_jsonISt3mapSt6vectorS5_blmdSaNS8_14adl_serializerEEEESt10_Select1stISE_ESt4lessIvESaISE_EE7_M_copyINSK_11_Alloc_nodeEEEPSt13_Rb_tree_nodeISE_ERKSK_RT_ = comdat any

$_ZNKSt8_Rb_treeINSt7__cxx1112basic_stringIcSt11char_traitsIcESaIcEEESt4pairIKS5_N8nlohmann10basic_jsonISt3mapSt6vectorS5_blmdSaNS8_14adl_serializerEEEESt10_Select1stISE_ESt4lessIvESaISE_EE8_M_beginEv = comdat any

$_ZNSt8_Rb_treeINSt7__cxx1112basic_stringIcSt11char_traitsIcESaIcEEESt4pairIKS5_N8nlohmann10basic_jsonISt3mapSt6vectorS5_blmdSaNS8_14adl_serializerEEEESt10_Select1stISE_ESt4lessIvESaISE_EE6_M_endEv = comdat any

$_ZNSt8_Rb_treeINSt7__cxx1112basic_stringIcSt11char_traitsIcESaIcEEESt4pairIKS5_N8nlohmann10basic_jsonISt3mapSt6vectorS5_blmdSaNS8_14adl_serializerEEEESt10_Select1stISE_ESt4lessIvESaISE_EE7_M_copyINSK_11_Alloc_nodeEEEPSt13_Rb_tree_nodeISE_EPKSO_PSt18_Rb_tree_node_baseRT_ = comdat any

$_ZNSt8_Rb_treeINSt7__cxx1112basic_stringIcSt11char_traitsIcESaIcEEESt4pairIKS5_N8nlohmann10basic_jsonISt3mapSt6vectorS5_blmdSaNS8_14adl_serializerEEEESt10_Select1stISE_ESt4lessIvESaISE_EE10_S_minimumEPSt18_Rb_tree_node_base = comdat any

$_ZNSt8_Rb_treeINSt7__cxx1112basic_stringIcSt11char_traitsIcESaIcEEESt4pairIKS5_N8nlohmann10basic_jsonISt3mapSt6vectorS5_blmdSaNS8_14adl_serializerEEEESt10_Select1stISE_ESt4lessIvESaISE_EE11_M_leftmostEv = comdat any

$_ZNSt8_Rb_treeINSt7__cxx1112basic_stringIcSt11char_traitsIcESaIcEEESt4pairIKS5_N8nlohmann10basic_jsonISt3mapSt6vectorS5_blmdSaNS8_14adl_serializerEEEESt10_Select1stISE_ESt4lessIvESaISE_EE10_S_maximumEPSt18_Rb_tree_node_base = comdat any

$_ZNSt8_Rb_treeINSt7__cxx1112basic_stringIcSt11char_traitsIcESaIcEEESt4pairIKS5_N8nlohmann10basic_jsonISt3mapSt6vectorS5_blmdSaNS8_14adl_serializerEEEESt10_Select1stISE_ESt4lessIvESaISE_EE12_M_rightmostEv = comdat any

$_ZNSt18_Rb_tree_node_base10_S_maximumEPS_ = comdat any

$_ZNSt18_Rb_tree_node_base10_S_minimumEPS_ = comdat any

$_ZNSt8_Rb_treeINSt7__cxx1112basic_stringIcSt11char_traitsIcESaIcEEESt4pairIKS5_N8nlohmann10basic_jsonISt3mapSt6vectorS5_blmdSaNS8_14adl_serializerEEEESt10_Select1stISE_ESt4lessIvESaISE_EE13_M_clone_nodeINSK_11_Alloc_nodeEEEPSt13_Rb_tree_nodeISE_EPKSO_RT_ = comdat any

$_ZNSt8_Rb_treeINSt7__cxx1112basic_stringIcSt11char_traitsIcESaIcEEESt4pairIKS5_N8nlohmann10basic_jsonISt3mapSt6vectorS5_blmdSaNS8_14adl_serializerEEEESt10_Select1stISE_ESt4lessIvESaISE_EE8_S_rightEPKSt18_Rb_tree_node_base = comdat any

$_ZNSt8_Rb_treeINSt7__cxx1112basic_stringIcSt11char_traitsIcESaIcEEESt4pairIKS5_N8nlohmann10basic_jsonISt3mapSt6vectorS5_blmdSaNS8_14adl_serializerEEEESt10_Select1stISE_ESt4lessIvESaISE_EE7_S_leftEPKSt18_Rb_tree_node_base = comdat any

$_ZNKSt13_Rb_tree_nodeISt4pairIKNSt7__cxx1112basic_stringIcSt11char_traitsIcESaIcEEEN8nlohmann10basic_jsonISt3mapSt6vectorS6_blmdSaNS8_14adl_serializerEEEEE9_M_valptrEv = comdat any

$_ZNKSt8_Rb_treeINSt7__cxx1112basic_stringIcSt11char_traitsIcESaIcEEESt4pairIKS5_N8nlohmann10basic_jsonISt3mapSt6vectorS5_blmdSaNS8_14adl_serializerEEEESt10_Select1stISE_ESt4lessIvESaISE_EE11_Alloc_nodeclIRKSE_EEPSt13_Rb_tree_nodeISE_EOT_ = comdat any

$_ZNSt8_Rb_treeINSt7__cxx1112basic_stringIcSt11char_traitsIcESaIcEEESt4pairIKS5_N8nlohmann10basic_jsonISt3mapSt6vectorS5_blmdSaNS8_14adl_serializerEEEESt10_Select1stISE_ESt4lessIvESaISE_EE14_M_create_nodeIJRKSE_EEEPSt13_Rb_tree_nodeISE_EDpOT_ = comdat any

$_ZNSt8_Rb_treeINSt7__cxx1112basic_stringIcSt11char_traitsIcESaIcEEESt4pairIKS5_N8nlohmann10basic_jsonISt3mapSt6vectorS5_blmdSaNS8_14adl_serializerEEEESt10_Select1stISE_ESt4lessIvESaISE_EE11_M_get_nodeEv = comdat any

$_ZNSt8_Rb_treeINSt7__cxx1112basic_stringIcSt11char_traitsIcESaIcEEESt4pairIKS5_N8nlohmann10basic_jsonISt3mapSt6vectorS5_blmdSaNS8_14adl_serializerEEEESt10_Select1stISE_ESt4lessIvESaISE_EE17_M_construct_nodeIJRKSE_EEEvPSt13_Rb_tree_nodeISE_EDpOT_ = comdat any

$_ZNSt16allocator_traitsISaISt13_Rb_tree_nodeISt4pairIKNSt7__cxx1112basic_stringIcSt11char_traitsIcESaIcEEEN8nlohmann10basic_jsonISt3mapSt6vectorS7_blmdSaNS9_14adl_serializerEEEEEEE9constructISF_JRKSF_EEEvRSH_PT_DpOT0_ = comdat any

$_ZN9__gnu_cxx13new_allocatorISt13_Rb_tree_nodeISt4pairIKNSt7__cxx1112basic_stringIcSt11char_traitsIcESaIcEEEN8nlohmann10basic_jsonISt3mapSt6vectorS8_blmdSaNSA_14adl_serializerEEEEEE9constructISG_JRKSG_EEEvPT_DpOT0_ = comdat any

$_ZNSt4pairIKNSt7__cxx1112basic_stringIcSt11char_traitsIcESaIcEEEN8nlohmann10basic_jsonISt3mapSt6vectorS5_blmdSaNS7_14adl_serializerEEEEC2ERKSD_ = comdat any

$_ZNSt16allocator_traitsISaISt13_Rb_tree_nodeISt4pairIKNSt7__cxx1112basic_stringIcSt11char_traitsIcESaIcEEEN8nlohmann10basic_jsonISt3mapSt6vectorS7_blmdSaNS9_14adl_serializerEEEEEEE8allocateERSH_m = comdat any

$_ZN9__gnu_cxx13new_allocatorISt13_Rb_tree_nodeISt4pairIKNSt7__cxx1112basic_stringIcSt11char_traitsIcESaIcEEEN8nlohmann10basic_jsonISt3mapSt6vectorS8_blmdSaNSA_14adl_serializerEEEEEE8allocateEmPKv = comdat any

$_ZNK9__gnu_cxx13new_allocatorISt13_Rb_tree_nodeISt4pairIKNSt7__cxx1112basic_stringIcSt11char_traitsIcESaIcEEEN8nlohmann10basic_jsonISt3mapSt6vectorS8_blmdSaNSA_14adl_serializerEEEEEE8max_sizeEv = comdat any

$_ZNK9__gnu_cxx16__aligned_membufISt4pairIKNSt7__cxx1112basic_stringIcSt11char_traitsIcESaIcEEEN8nlohmann10basic_jsonISt3mapSt6vectorS7_blmdSaNS9_14adl_serializerEEEEE6_M_ptrEv = comdat any

$_ZNK9__gnu_cxx16__aligned_membufISt4pairIKNSt7__cxx1112basic_stringIcSt11char_traitsIcESaIcEEEN8nlohmann10basic_jsonISt3mapSt6vectorS7_blmdSaNS9_14adl_serializerEEEEE7_M_addrEv = comdat any

$_ZN9__gnu_cxx14__alloc_traitsISaISt13_Rb_tree_nodeISt4pairIKNSt7__cxx1112basic_stringIcSt11char_traitsIcESaIcEEEN8nlohmann10basic_jsonISt3mapSt6vectorS8_blmdSaNSA_14adl_serializerEEEEEESH_E17_S_select_on_copyERKSI_ = comdat any

$_ZNSaISt13_Rb_tree_nodeISt4pairIKNSt7__cxx1112basic_stringIcSt11char_traitsIcESaIcEEEN8nlohmann10basic_jsonISt3mapSt6vectorS6_blmdSaNS8_14adl_serializerEEEEEEC2ERKSG_ = comdat any

$_ZNSt20_Rb_tree_key_compareISt4lessIvEEC2ERKS1_ = comdat any

$_ZNSt15_Rb_tree_headerC2Ev = comdat any

$_ZN9__gnu_cxx13new_allocatorISt13_Rb_tree_nodeISt4pairIKNSt7__cxx1112basic_stringIcSt11char_traitsIcESaIcEEEN8nlohmann10basic_jsonISt3mapSt6vectorS8_blmdSaNSA_14adl_serializerEEEEEEC2ERKSI_ = comdat any

$_ZNSt16allocator_traitsISaISt13_Rb_tree_nodeISt4pairIKNSt7__cxx1112basic_stringIcSt11char_traitsIcESaIcEEEN8nlohmann10basic_jsonISt3mapSt6vectorS7_blmdSaNS9_14adl_serializerEEEEEEE37select_on_container_copy_constructionERKSH_ = comdat any

$_ZNKSt15__uniq_ptr_implISt3mapINSt7__cxx1112basic_stringIcSt11char_traitsIcESaIcEEEN8nlohmann10basic_jsonIS0_St6vectorS6_blmdSaNS7_14adl_serializerEEESt4lessIvESaISt4pairIKS6_SB_EEEZNSB_6createISI_JRKSI_EEEPT_DpOT0_EUlPSI_E_E6_M_ptrEv = comdat any

$_ZSt3getILm0EJPSt3mapINSt7__cxx1112basic_stringIcSt11char_traitsIcESaIcEEEN8nlohmann10basic_jsonIS0_St6vectorS6_blmdSaNS7_14adl_serializerEEESt4lessIvESaISt4pairIKS6_SB_EEEZNSB_6createISI_JRKSI_EEEPT_DpOT0_EUlSJ_E_EERKNSt13tuple_elementIXT_ESt5tupleIJDpSP_EEE4typeERKSW_ = comdat any

$_ZSt12__get_helperILm0EPSt3mapINSt7__cxx1112basic_stringIcSt11char_traitsIcESaIcEEEN8nlohmann10basic_jsonIS0_St6vectorS6_blmdSaNS7_14adl_serializerEEESt4lessIvESaISt4pairIKS6_SB_EEEJZNSB_6createISI_JRKSI_EEEPT_DpOT0_EUlSJ_E_EERKT0_RKSt11_Tuple_implIXT_EJST_DpT1_EE = comdat any

$_ZNSt11_Tuple_implILm0EJPSt3mapINSt7__cxx1112basic_stringIcSt11char_traitsIcESaIcEEEN8nlohmann10basic_jsonIS0_St6vectorS6_blmdSaNS7_14adl_serializerEEESt4lessIvESaISt4pairIKS6_SB_EEEZNSB_6createISI_JRKSI_EEEPT_DpOT0_EUlSJ_E_EE7_M_headERKST_ = comdat any

$_ZNSt10_Head_baseILm0EPSt3mapINSt7__cxx1112basic_stringIcSt11char_traitsIcESaIcEEEN8nlohmann10basic_jsonIS0_St6vectorS6_blmdSaNS7_14adl_serializerEEESt4lessIvESaISt4pairIKS6_SB_EEELb0EE7_M_headERKSK_ = comdat any

$_ZNSt15__uniq_ptr_implISt3mapINSt7__cxx1112basic_stringIcSt11char_traitsIcESaIcEEEN8nlohmann10basic_jsonIS0_St6vectorS6_blmdSaNS7_14adl_serializerEEESt4lessIvESaISt4pairIKS6_SB_EEEZNSB_6createISI_JRKSI_EEEPT_DpOT0_EUlPSI_E_EC2IRKSS_EESR_OSM_ = comdat any

$_ZNSt5tupleIJPSt3mapINSt7__cxx1112basic_stringIcSt11char_traitsIcESaIcEEEN8nlohmann10basic_jsonIS0_St6vectorS6_blmdSaNS7_14adl_serializerEEESt4lessIvESaISt4pairIKS6_SB_EEEZNSB_6createISI_JRKSI_EEEPT_DpOT0_EUlSJ_E_EEC2IRSJ_RKSS_Lb1EEEOSN_OT0_ = comdat any

$_ZNSt11_Tuple_implILm0EJPSt3mapINSt7__cxx1112basic_stringIcSt11char_traitsIcESaIcEEEN8nlohmann10basic_jsonIS0_St6vectorS6_blmdSaNS7_14adl_serializerEEESt4lessIvESaISt4pairIKS6_SB_EEEZNSB_6createISI_JRKSI_EEEPT_DpOT0_EUlSJ_E_EEC2IRSJ_JRKSS_EvEEOSN_SR_ = comdat any

$_ZNSt11_Tuple_implILm1EJZN8nlohmann10basic_jsonISt3mapSt6vectorNSt7__cxx1112basic_stringIcSt11char_traitsIcESaIcEEEblmdSaNS0_14adl_serializerEE6createIS2_IS9_SB_St4lessIvESaISt4pairIKS9_SB_EEEJRKSJ_EEEPT_DpOT0_EUlPSJ_E_EEC2ERKSS_ = comdat any

$_ZNSt10_Head_baseILm0EPSt3mapINSt7__cxx1112basic_stringIcSt11char_traitsIcESaIcEEEN8nlohmann10basic_jsonIS0_St6vectorS6_blmdSaNS7_14adl_serializerEEESt4lessIvESaISt4pairIKS6_SB_EEELb0EEC2IRSJ_EEOT_ = comdat any

$_ZNSt10_Head_baseILm1EZN8nlohmann10basic_jsonISt3mapSt6vectorNSt7__cxx1112basic_stringIcSt11char_traitsIcESaIcEEEblmdSaNS0_14adl_serializerEE6createIS2_IS9_SB_St4lessIvESaISt4pairIKS9_SB_EEEJRKSJ_EEEPT_DpOT0_EUlPSJ_E_Lb0EEC2ERKSS_ = comdat any

$_ZN9__gnu_cxx13new_allocatorISt3mapINSt7__cxx1112basic_stringIcSt11char_traitsIcESaIcEEEN8nlohmann10basic_jsonIS1_St6vectorS7_blmdSaNS8_14adl_serializerEEESt4lessIvESaISt4pairIKS7_SC_EEEE8allocateEmPKv = comdat any

$_ZNK9__gnu_cxx13new_allocatorISt3mapINSt7__cxx1112basic_stringIcSt11char_traitsIcESaIcEEEN8nlohmann10basic_jsonIS1_St6vectorS7_blmdSaNS8_14adl_serializerEEESt4lessIvESaISt4pairIKS7_SC_EEEE8max_sizeEv = comdat any

$_ZSt10__distanceIPKN8nlohmann6detail8json_refINS0_10basic_jsonISt3mapSt6vectorNSt7__cxx1112basic_stringIcSt11char_traitsIcESaIcEEEblmdSaNS0_14adl_serializerEEEEEENSt15iterator_traitsIT_E15difference_typeESI_SI_St26random_access_iterator_tag = comdat any

$_ZNKSt15__uniq_ptr_implISt6vectorIN8nlohmann10basic_jsonISt3mapS0_NSt7__cxx1112basic_stringIcSt11char_traitsIcESaIcEEEblmdSaNS1_14adl_serializerEEESaISB_EEZNSB_6createISD_JPKNS1_6detail8json_refISB_EESJ_EEEPT_DpOT0_EUlPSD_E_E6_M_ptrEv = comdat any

$_ZSt3getILm0EJPSt6vectorIN8nlohmann10basic_jsonISt3mapS0_NSt7__cxx1112basic_stringIcSt11char_traitsIcESaIcEEEblmdSaNS1_14adl_serializerEEESaISB_EEZNSB_6createISD_JPKNS1_6detail8json_refISB_EESK_EEEPT_DpOT0_EUlSE_E_EERKNSt13tuple_elementIXT_ESt5tupleIJDpSN_EEE4typeERKSU_ = comdat any

$_ZSt12__get_helperILm0EPSt6vectorIN8nlohmann10basic_jsonISt3mapS0_NSt7__cxx1112basic_stringIcSt11char_traitsIcESaIcEEEblmdSaNS1_14adl_serializerEEESaISB_EEJZNSB_6createISD_JPKNS1_6detail8json_refISB_EESK_EEEPT_DpOT0_EUlSE_E_EERKT0_RKSt11_Tuple_implIXT_EJSR_DpT1_EE = comdat any

$_ZNSt11_Tuple_implILm0EJPSt6vectorIN8nlohmann10basic_jsonISt3mapS0_NSt7__cxx1112basic_stringIcSt11char_traitsIcESaIcEEEblmdSaNS1_14adl_serializerEEESaISB_EEZNSB_6createISD_JPKNS1_6detail8json_refISB_EESK_EEEPT_DpOT0_EUlSE_E_EE7_M_headERKSR_ = comdat any

$_ZNSt15__uniq_ptr_implISt6vectorIN8nlohmann10basic_jsonISt3mapS0_NSt7__cxx1112basic_stringIcSt11char_traitsIcESaIcEEEblmdSaNS1_14adl_serializerEEESaISB_EEZNSB_6createISD_JPKNS1_6detail8json_refISB_EESJ_EEEPT_DpOT0_EUlPSD_E_EC2IRKSQ_EESP_OSK_ = comdat any

$_ZNSt5tupleIJPSt6vectorIN8nlohmann10basic_jsonISt3mapS0_NSt7__cxx1112basic_stringIcSt11char_traitsIcESaIcEEEblmdSaNS1_14adl_serializerEEESaISB_EEZNSB_6createISD_JPKNS1_6detail8json_refISB_EESK_EEEPT_DpOT0_EUlSE_E_EEC2IRSE_RKSQ_Lb1EEEOSL_OT0_ = comdat any

$_ZNSt11_Tuple_implILm0EJPSt6vectorIN8nlohmann10basic_jsonISt3mapS0_NSt7__cxx1112basic_stringIcSt11char_traitsIcESaIcEEEblmdSaNS1_14adl_serializerEEESaISB_EEZNSB_6createISD_JPKNS1_6detail8json_refISB_EESK_EEEPT_DpOT0_EUlSE_E_EEC2IRSE_JRKSQ_EvEEOSL_SP_ = comdat any

$_ZNSt11_Tuple_implILm1EJZN8nlohmann10basic_jsonISt3mapSt6vectorNSt7__cxx1112basic_stringIcSt11char_traitsIcESaIcEEEblmdSaNS0_14adl_serializerEE6createIS3_ISB_SaISB_EEJPKNS0_6detail8json_refISB_EESJ_EEEPT_DpOT0_EUlPSE_E_EEC2ERKSQ_ = comdat any

$_ZNSt10_Head_baseILm1EZN8nlohmann10basic_jsonISt3mapSt6vectorNSt7__cxx1112basic_stringIcSt11char_traitsIcESaIcEEEblmdSaNS0_14adl_serializerEE6createIS3_ISB_SaISB_EEJPKNS0_6detail8json_refISB_EESJ_EEEPT_DpOT0_EUlPSE_E_Lb0EEC2ERKSQ_ = comdat any

$_ZN9__gnu_cxx13new_allocatorISt6vectorIN8nlohmann10basic_jsonISt3mapS1_NSt7__cxx1112basic_stringIcSt11char_traitsIcESaIcEEEblmdSaNS2_14adl_serializerEEESaISC_EEE8allocateEmPKv = comdat any

$_ZNK9__gnu_cxx13new_allocatorISt6vectorIN8nlohmann10basic_jsonISt3mapS1_NSt7__cxx1112basic_stringIcSt11char_traitsIcESaIcEEEblmdSaNS2_14adl_serializerEEESaISC_EEE8max_sizeEv = comdat any

$_ZZN8nlohmann10basic_jsonISt3mapSt6vectorNSt7__cxx1112basic_stringIcSt11char_traitsIcESaIcEEEblmdSaNS_14adl_serializerEEC1ESt16initializer_listINS_6detail8json_refISA_EEEbNSC_7value_tEENKUlRKSE_E0_clESI_ = comdat any

$_ZNSt6vectorIN8nlohmann10basic_jsonISt3mapS_NSt7__cxx1112basic_stringIcSt11char_traitsIcESaIcEEEblmdSaNS0_14adl_serializerEEESaISA_EEixEm = comdat any

$_ZNSt3mapINSt7__cxx1112basic_stringIcSt11char_traitsIcESaIcEEEN8nlohmann10basic_jsonIS_St6vectorS5_blmdSaNS6_14adl_serializerEEESt4lessIvESaISt4pairIKS5_SA_EEE7emplaceIJS5_SA_EEESD_ISt17_Rb_tree_iteratorISF_EbEDpOT_ = comdat any

$_ZNSt8_Rb_treeINSt7__cxx1112basic_stringIcSt11char_traitsIcESaIcEEESt4pairIKS5_N8nlohmann10basic_jsonISt3mapSt6vectorS5_blmdSaNS8_14adl_serializerEEEESt10_Select1stISE_ESt4lessIvESaISE_EE17_M_emplace_uniqueIJS5_SD_EEES6_ISt17_Rb_tree_iteratorISE_EbEDpOT_ = comdat any

$_ZNSt8_Rb_treeINSt7__cxx1112basic_stringIcSt11char_traitsIcESaIcEEESt4pairIKS5_N8nlohmann10basic_jsonISt3mapSt6vectorS5_blmdSaNS8_14adl_serializerEEEESt10_Select1stISE_ESt4lessIvESaISE_EE14_M_create_nodeIJS5_SD_EEEPSt13_Rb_tree_nodeISE_EDpOT_ = comdat any

$_ZNSt8_Rb_treeINSt7__cxx1112basic_stringIcSt11char_traitsIcESaIcEEESt4pairIKS5_N8nlohmann10basic_jsonISt3mapSt6vectorS5_blmdSaNS8_14adl_serializerEEEESt10_Select1stISE_ESt4lessIvESaISE_EE6_S_keyEPKSt13_Rb_tree_nodeISE_E = comdat any

$_ZNSt8_Rb_treeINSt7__cxx1112basic_stringIcSt11char_traitsIcESaIcEEESt4pairIKS5_N8nlohmann10basic_jsonISt3mapSt6vectorS5_blmdSaNS8_14adl_serializerEEEESt10_Select1stISE_ESt4lessIvESaISE_EE24_M_get_insert_unique_posERS7_ = comdat any

$_ZNSt8_Rb_treeINSt7__cxx1112basic_stringIcSt11char_traitsIcESaIcEEESt4pairIKS5_N8nlohmann10basic_jsonISt3mapSt6vectorS5_blmdSaNS8_14adl_serializerEEEESt10_Select1stISE_ESt4lessIvESaISE_EE14_M_insert_nodeEPSt18_Rb_tree_node_baseSM_PSt13_Rb_tree_nodeISE_E = comdat any

$_ZNSt4pairISt17_Rb_tree_iteratorIS_IKNSt7__cxx1112basic_stringIcSt11char_traitsIcESaIcEEEN8nlohmann10basic_jsonISt3mapSt6vectorS6_blmdSaNS8_14adl_serializerEEEEEbEC2ISF_bLb1EEEOT_OT0_ = comdat any

$_ZNSt8_Rb_treeINSt7__cxx1112basic_stringIcSt11char_traitsIcESaIcEEESt4pairIKS5_N8nlohmann10basic_jsonISt3mapSt6vectorS5_blmdSaNS8_14adl_serializerEEEESt10_Select1stISE_ESt4lessIvESaISE_EE6_S_keyEPKSt18_Rb_tree_node_base = comdat any

$_ZNKSt4lessIvEclIRKNSt7__cxx1112basic_stringIcSt11char_traitsIcESaIcEEES9_EEDTltclsr3stdE7forwardIT_Efp_Eclsr3stdE7forwardIT0_Efp0_EEOSA_OSB_ = comdat any

$_ZNSt4lessIvE6_S_cmpIRKNSt7__cxx1112basic_stringIcSt11char_traitsIcESaIcEEES9_EEDcOT_OT0_St17integral_constantIbLb0EE = comdat any

$_ZStltIcSt11char_traitsIcESaIcEEbRKNSt7__cxx1112basic_stringIT_T0_T1_EESA_ = comdat any

$_ZSteqRKSt17_Rb_tree_iteratorISt4pairIKNSt7__cxx1112basic_stringIcSt11char_traitsIcESaIcEEEN8nlohmann10basic_jsonISt3mapSt6vectorS6_blmdSaNS8_14adl_serializerEEEEESH_ = comdat any

$_ZNSt4pairIPSt18_Rb_tree_node_baseS1_EC2IRPSt13_Rb_tree_nodeIS_IKNSt7__cxx1112basic_stringIcSt11char_traitsIcESaIcEEEN8nlohmann10basic_jsonISt3mapSt6vectorSA_blmdSaNSC_14adl_serializerEEEEERS1_Lb1EEEOT_OT0_ = comdat any

$_ZNSt17_Rb_tree_iteratorISt4pairIKNSt7__cxx1112basic_stringIcSt11char_traitsIcESaIcEEEN8nlohmann10basic_jsonISt3mapSt6vectorS6_blmdSaNS8_14adl_serializerEEEEEmmEv = comdat any

$_ZNSt4pairIPSt18_Rb_tree_node_baseS1_EC2IRS1_Lb1EEEOT_RKS1_ = comdat any

$_ZNKSt10_Select1stISt4pairIKNSt7__cxx1112basic_stringIcSt11char_traitsIcESaIcEEEN8nlohmann10basic_jsonISt3mapSt6vectorS6_blmdSaNS8_14adl_serializerEEEEEclERKSE_ = comdat any

$_ZNSt8_Rb_treeINSt7__cxx1112basic_stringIcSt11char_traitsIcESaIcEEESt4pairIKS5_N8nlohmann10basic_jsonISt3mapSt6vectorS5_blmdSaNS8_14adl_serializerEEEESt10_Select1stISE_ESt4lessIvESaISE_EE17_M_construct_nodeIJS5_SD_EEEvPSt13_Rb_tree_nodeISE_EDpOT_ = comdat any

$_ZNSt16allocator_traitsISaISt13_Rb_tree_nodeISt4pairIKNSt7__cxx1112basic_stringIcSt11char_traitsIcESaIcEEEN8nlohmann10basic_jsonISt3mapSt6vectorS7_blmdSaNS9_14adl_serializerEEEEEEE9constructISF_JS7_SE_EEEvRSH_PT_DpOT0_ = comdat any

$_ZN9__gnu_cxx13new_allocatorISt13_Rb_tree_nodeISt4pairIKNSt7__cxx1112basic_stringIcSt11char_traitsIcESaIcEEEN8nlohmann10basic_jsonISt3mapSt6vectorS8_blmdSaNSA_14adl_serializerEEEEEE9constructISG_JS8_SF_EEEvPT_DpOT0_ = comdat any

$_ZNSt4pairIKNSt7__cxx1112basic_stringIcSt11char_traitsIcESaIcEEEN8nlohmann10basic_jsonISt3mapSt6vectorS5_blmdSaNS7_14adl_serializerEEEEC2IS5_SC_Lb1EEEOT_OT0_ = comdat any

$_ZN8nlohmann10basic_jsonISt3mapSt6vectorNSt7__cxx1112basic_stringIcSt11char_traitsIcESaIcEEEblmdSaNS_14adl_serializerEE6createIS1_IS8_SA_St4lessIvESaISt4pairIKS8_SA_EEEJEEEPT_DpOT0_ = comdat any

$_ZN8nlohmann10basic_jsonISt3mapSt6vectorNSt7__cxx1112basic_stringIcSt11char_traitsIcESaIcEEEblmdSaNS_14adl_serializerEE6createIS2_ISA_SaISA_EEJEEEPT_DpOT0_ = comdat any

$_ZN8nlohmann10basic_jsonISt3mapSt6vectorNSt7__cxx1112basic_stringIcSt11char_traitsIcESaIcEEEblmdSaNS_14adl_serializerEE6createIS8_JRA1_KcEEEPT_DpOT0_ = comdat any

$_ZN8nlohmann6detail11other_error6createEiRKNSt7__cxx1112basic_stringIcSt11char_traitsIcESaIcEEE = comdat any

$_ZN8nlohmann6detail11other_errorD2Ev = comdat any

$_ZN8nlohmann6detail9exceptionD2Ev = comdat any

$_ZN8nlohmann6detail9exceptionD0Ev = comdat any

$_ZNK8nlohmann6detail9exception4whatEv = comdat any

$_ZN8nlohmann6detail9exception4nameERKNSt7__cxx1112basic_stringIcSt11char_traitsIcESaIcEEEi = comdat any

$_ZStplIcSt11char_traitsIcESaIcEENSt7__cxx1112basic_stringIT_T0_T1_EEOS8_RKS8_ = comdat any

$_ZN8nlohmann6detail11other_errorC2EiPKc = comdat any

$_ZN8nlohmann6detail9exceptionC2EiPKc = comdat any

$_ZN8nlohmann6detail11other_errorD0Ev = comdat any

$_ZNSt9exceptionC2Ev = comdat any

$_ZStplIcSt11char_traitsIcESaIcEENSt7__cxx1112basic_stringIT_T0_T1_EEPKS5_RKS8_ = comdat any

$_ZStplIcSt11char_traitsIcESaIcEENSt7__cxx1112basic_stringIT_T0_T1_EEOS8_PKS5_ = comdat any

$_ZNSt7__cxx119to_stringEi = comdat any

$_ZStplIcSt11char_traitsIcESaIcEENSt7__cxx1112basic_stringIT_T0_T1_EEOS8_S9_ = comdat any

$_ZN9__gnu_cxx12__to_xstringINSt7__cxx1112basic_stringIcSt11char_traitsIcESaIcEEEcEET_PFiPT0_mPKS8_P13__va_list_tagEmSB_z = comdat any

$_ZNSt7__cxx1112basic_stringIcSt11char_traitsIcESaIcEEC2IPcvEET_S7_RKS3_ = comdat any

$_ZNSt7__cxx1112basic_stringIcSt11char_traitsIcESaIcEE12_M_constructIPcEEvT_S7_ = comdat any

$_ZNSt7__cxx1112basic_stringIcSt11char_traitsIcESaIcEE12_Alloc_hiderD2Ev = comdat any

$_ZNSt7__cxx1112basic_stringIcSt11char_traitsIcESaIcEE16_M_construct_auxIPcEEvT_S7_St12__false_type = comdat any

$_ZNSt7__cxx1112basic_stringIcSt11char_traitsIcESaIcEE12_M_constructIPcEEvT_S7_St20forward_iterator_tag = comdat any

$_ZN9__gnu_cxx17__is_null_pointerIcEEbPT_ = comdat any

$_ZSt8distanceIPcENSt15iterator_traitsIT_E15difference_typeES2_S2_ = comdat any

$_ZSt19__iterator_categoryIPcENSt15iterator_traitsIT_E17iterator_categoryERKS2_ = comdat any

$_ZSt10__distanceIPcENSt15iterator_traitsIT_E15difference_typeES2_S2_St26random_access_iterator_tag = comdat any

$_ZNSt11char_traitsIcE6lengthEPKc = comdat any

$_ZN9__gnu_cxx11char_traitsIcE6lengthEPKc = comdat any

$_ZN9__gnu_cxx11char_traitsIcE2eqERKcS3_ = comdat any

$_ZNSt10unique_ptrINSt7__cxx1112basic_stringIcSt11char_traitsIcESaIcEEEZN8nlohmann10basic_jsonISt3mapSt6vectorS5_blmdSaNS6_14adl_serializerEE6createIS5_JRA1_KcEEEPT_DpOT0_EUlPS5_E_EC2ISM_vEESL_RKSM_ = comdat any

$_ZNKSt10unique_ptrINSt7__cxx1112basic_stringIcSt11char_traitsIcESaIcEEEZN8nlohmann10basic_jsonISt3mapSt6vectorS5_blmdSaNS6_14adl_serializerEE6createIS5_JRA1_KcEEEPT_DpOT0_EUlPS5_E_E3getEv = comdat any

$_ZNSt16allocator_traitsISaINSt7__cxx1112basic_stringIcSt11char_traitsIcESaIcEEEEE9constructIS5_JRA1_KcEEEvRS6_PT_DpOT0_ = comdat any

$_ZStneINSt7__cxx1112basic_stringIcSt11char_traitsIcESaIcEEEZN8nlohmann10basic_jsonISt3mapSt6vectorS5_blmdSaNS6_14adl_serializerEE6createIS5_JRA1_KcEEEPT_DpOT0_EUlPS5_E_EbRKSt10unique_ptrISG_T0_EDn = comdat any

$_ZNSt10unique_ptrINSt7__cxx1112basic_stringIcSt11char_traitsIcESaIcEEEZN8nlohmann10basic_jsonISt3mapSt6vectorS5_blmdSaNS6_14adl_serializerEE6createIS5_JRA1_KcEEEPT_DpOT0_EUlPS5_E_ED2Ev = comdat any

$_ZNSt10unique_ptrINSt7__cxx1112basic_stringIcSt11char_traitsIcESaIcEEEZN8nlohmann10basic_jsonISt3mapSt6vectorS5_blmdSaNS6_14adl_serializerEE6createIS5_JRA1_KcEEEPT_DpOT0_EUlPS5_E_E7releaseEv = comdat any

$_ZNSt15__uniq_ptr_implINSt7__cxx1112basic_stringIcSt11char_traitsIcESaIcEEEZN8nlohmann10basic_jsonISt3mapSt6vectorS5_blmdSaNS6_14adl_serializerEE6createIS5_JRA1_KcEEEPT_DpOT0_EUlPS5_E_E6_M_ptrEv = comdat any

$_ZSt3getILm0EJPNSt7__cxx1112basic_stringIcSt11char_traitsIcESaIcEEEZN8nlohmann10basic_jsonISt3mapSt6vectorS5_blmdSaNS7_14adl_serializerEE6createIS5_JRA1_KcEEEPT_DpOT0_EUlS6_E_EERNSt13tuple_elementIXT_ESt5tupleIJDpSJ_EEE4typeERSQ_ = comdat any

$_ZSt12__get_helperILm0EPNSt7__cxx1112basic_stringIcSt11char_traitsIcESaIcEEEJZN8nlohmann10basic_jsonISt3mapSt6vectorS5_blmdSaNS7_14adl_serializerEE6createIS5_JRA1_KcEEEPT_DpOT0_EUlS6_E_EERT0_RSt11_Tuple_implIXT_EJSN_DpT1_EE = comdat any

$_ZNSt11_Tuple_implILm0EJPNSt7__cxx1112basic_stringIcSt11char_traitsIcESaIcEEEZN8nlohmann10basic_jsonISt3mapSt6vectorS5_blmdSaNS7_14adl_serializerEE6createIS5_JRA1_KcEEEPT_DpOT0_EUlS6_E_EE7_M_headERSN_ = comdat any

$_ZNSt10unique_ptrINSt7__cxx1112basic_stringIcSt11char_traitsIcESaIcEEEZN8nlohmann10basic_jsonISt3mapSt6vectorS5_blmdSaNS6_14adl_serializerEE6createIS5_JRA1_KcEEEPT_DpOT0_EUlPS5_E_E11get_deleterEv = comdat any

$_ZZN8nlohmann10basic_jsonISt3mapSt6vectorNSt7__cxx1112basic_stringIcSt11char_traitsIcESaIcEEEblmdSaNS_14adl_serializerEE6createIS8_JRA1_KcEEEPT_DpOT0_ENKUlPS8_E_clESK_ = comdat any

$_ZNSt15__uniq_ptr_implINSt7__cxx1112basic_stringIcSt11char_traitsIcESaIcEEEZN8nlohmann10basic_jsonISt3mapSt6vectorS5_blmdSaNS6_14adl_serializerEE6createIS5_JRA1_KcEEEPT_DpOT0_EUlPS5_E_E10_M_deleterEv = comdat any

$_ZSt3getILm1EJPNSt7__cxx1112basic_stringIcSt11char_traitsIcESaIcEEEZN8nlohmann10basic_jsonISt3mapSt6vectorS5_blmdSaNS7_14adl_serializerEE6createIS5_JRA1_KcEEEPT_DpOT0_EUlS6_E_EERNSt13tuple_elementIXT_ESt5tupleIJDpSJ_EEE4typeERSQ_ = comdat any

$_ZSt12__get_helperILm1EZN8nlohmann10basic_jsonISt3mapSt6vectorNSt7__cxx1112basic_stringIcSt11char_traitsIcESaIcEEEblmdSaNS0_14adl_serializerEE6createIS9_JRA1_KcEEEPT_DpOT0_EUlPS9_E_JEERT0_RSt11_Tuple_implIXT_EJSN_DpT1_EE = comdat any

$_ZNSt11_Tuple_implILm1EJZN8nlohmann10basic_jsonISt3mapSt6vectorNSt7__cxx1112basic_stringIcSt11char_traitsIcESaIcEEEblmdSaNS0_14adl_serializerEE6createIS9_JRA1_KcEEEPT_DpOT0_EUlPS9_E_EE7_M_headERSN_ = comdat any

$_ZNSt10_Head_baseILm1EZN8nlohmann10basic_jsonISt3mapSt6vectorNSt7__cxx1112basic_stringIcSt11char_traitsIcESaIcEEEblmdSaNS0_14adl_serializerEE6createIS9_JRA1_KcEEEPT_DpOT0_EUlPS9_E_Lb0EE7_M_headERSN_ = comdat any

$_ZNKSt10unique_ptrINSt7__cxx1112basic_stringIcSt11char_traitsIcESaIcEEEZN8nlohmann10basic_jsonISt3mapSt6vectorS5_blmdSaNS6_14adl_serializerEE6createIS5_JRA1_KcEEEPT_DpOT0_EUlPS5_E_EcvbEv = comdat any

$_ZN9__gnu_cxx13new_allocatorINSt7__cxx1112basic_stringIcSt11char_traitsIcESaIcEEEE9constructIS6_JRA1_KcEEEvPT_DpOT0_ = comdat any

$_ZNKSt15__uniq_ptr_implINSt7__cxx1112basic_stringIcSt11char_traitsIcESaIcEEEZN8nlohmann10basic_jsonISt3mapSt6vectorS5_blmdSaNS6_14adl_serializerEE6createIS5_JRA1_KcEEEPT_DpOT0_EUlPS5_E_E6_M_ptrEv = comdat any

$_ZSt3getILm0EJPNSt7__cxx1112basic_stringIcSt11char_traitsIcESaIcEEEZN8nlohmann10basic_jsonISt3mapSt6vectorS5_blmdSaNS7_14adl_serializerEE6createIS5_JRA1_KcEEEPT_DpOT0_EUlS6_E_EERKNSt13tuple_elementIXT_ESt5tupleIJDpSJ_EEE4typeERKSQ_ = comdat any

$_ZSt12__get_helperILm0EPNSt7__cxx1112basic_stringIcSt11char_traitsIcESaIcEEEJZN8nlohmann10basic_jsonISt3mapSt6vectorS5_blmdSaNS7_14adl_serializerEE6createIS5_JRA1_KcEEEPT_DpOT0_EUlS6_E_EERKT0_RKSt11_Tuple_implIXT_EJSN_DpT1_EE = comdat any

$_ZNSt11_Tuple_implILm0EJPNSt7__cxx1112basic_stringIcSt11char_traitsIcESaIcEEEZN8nlohmann10basic_jsonISt3mapSt6vectorS5_blmdSaNS7_14adl_serializerEE6createIS5_JRA1_KcEEEPT_DpOT0_EUlS6_E_EE7_M_headERKSN_ = comdat any

$_ZNSt15__uniq_ptr_implINSt7__cxx1112basic_stringIcSt11char_traitsIcESaIcEEEZN8nlohmann10basic_jsonISt3mapSt6vectorS5_blmdSaNS6_14adl_serializerEE6createIS5_JRA1_KcEEEPT_DpOT0_EUlPS5_E_EC2IRKSM_EESL_OSG_ = comdat any

$_ZNSt5tupleIJPNSt7__cxx1112basic_stringIcSt11char_traitsIcESaIcEEEZN8nlohmann10basic_jsonISt3mapSt6vectorS5_blmdSaNS7_14adl_serializerEE6createIS5_JRA1_KcEEEPT_DpOT0_EUlS6_E_EEC2IRS6_RKSM_Lb1EEEOSH_OT0_ = comdat any

$_ZNSt11_Tuple_implILm0EJPNSt7__cxx1112basic_stringIcSt11char_traitsIcESaIcEEEZN8nlohmann10basic_jsonISt3mapSt6vectorS5_blmdSaNS7_14adl_serializerEE6createIS5_JRA1_KcEEEPT_DpOT0_EUlS6_E_EEC2IRS6_JRKSM_EvEEOSH_SL_ = comdat any

$_ZNSt11_Tuple_implILm1EJZN8nlohmann10basic_jsonISt3mapSt6vectorNSt7__cxx1112basic_stringIcSt11char_traitsIcESaIcEEEblmdSaNS0_14adl_serializerEE6createIS9_JRA1_KcEEEPT_DpOT0_EUlPS9_E_EEC2ERKSM_ = comdat any

$_ZNSt10_Head_baseILm1EZN8nlohmann10basic_jsonISt3mapSt6vectorNSt7__cxx1112basic_stringIcSt11char_traitsIcESaIcEEEblmdSaNS0_14adl_serializerEE6createIS9_JRA1_KcEEEPT_DpOT0_EUlPS9_E_Lb0EEC2ERKSM_ = comdat any

$_ZNSt10unique_ptrISt6vectorIN8nlohmann10basic_jsonISt3mapS0_NSt7__cxx1112basic_stringIcSt11char_traitsIcESaIcEEEblmdSaNS1_14adl_serializerEEESaISB_EEZNSB_6createISD_JEEEPT_DpOT0_EUlPSD_E_EC2ISL_vEESK_RKSL_ = comdat any

$_ZNKSt10unique_ptrISt6vectorIN8nlohmann10basic_jsonISt3mapS0_NSt7__cxx1112basic_stringIcSt11char_traitsIcESaIcEEEblmdSaNS1_14adl_serializerEEESaISB_EEZNSB_6createISD_JEEEPT_DpOT0_EUlPSD_E_E3getEv = comdat any

$_ZNSt16allocator_traitsISaISt6vectorIN8nlohmann10basic_jsonISt3mapS0_NSt7__cxx1112basic_stringIcSt11char_traitsIcESaIcEEEblmdSaNS1_14adl_serializerEEESaISB_EEEE9constructISD_JEEEvRSE_PT_DpOT0_ = comdat any

$_ZStneISt6vectorIN8nlohmann10basic_jsonISt3mapS0_NSt7__cxx1112basic_stringIcSt11char_traitsIcESaIcEEEblmdSaNS1_14adl_serializerEEESaISB_EEZNSB_6createISD_JEEEPT_DpOT0_EUlPSD_E_EbRKSt10unique_ptrISF_T0_EDn = comdat any

$_ZNSt10unique_ptrISt6vectorIN8nlohmann10basic_jsonISt3mapS0_NSt7__cxx1112basic_stringIcSt11char_traitsIcESaIcEEEblmdSaNS1_14adl_serializerEEESaISB_EEZNSB_6createISD_JEEEPT_DpOT0_EUlPSD_E_E7releaseEv = comdat any

$_ZNSt10unique_ptrISt6vectorIN8nlohmann10basic_jsonISt3mapS0_NSt7__cxx1112basic_stringIcSt11char_traitsIcESaIcEEEblmdSaNS1_14adl_serializerEEESaISB_EEZNSB_6createISD_JEEEPT_DpOT0_EUlPSD_E_ED2Ev = comdat any

$_ZNSt15__uniq_ptr_implISt6vectorIN8nlohmann10basic_jsonISt3mapS0_NSt7__cxx1112basic_stringIcSt11char_traitsIcESaIcEEEblmdSaNS1_14adl_serializerEEESaISB_EEZNSB_6createISD_JEEEPT_DpOT0_EUlPSD_E_E6_M_ptrEv = comdat any

$_ZNSt10unique_ptrISt6vectorIN8nlohmann10basic_jsonISt3mapS0_NSt7__cxx1112basic_stringIcSt11char_traitsIcESaIcEEEblmdSaNS1_14adl_serializerEEESaISB_EEZNSB_6createISD_JEEEPT_DpOT0_EUlPSD_E_E11get_deleterEv = comdat any

$_ZZN8nlohmann10basic_jsonISt3mapSt6vectorNSt7__cxx1112basic_stringIcSt11char_traitsIcESaIcEEEblmdSaNS_14adl_serializerEE6createIS2_ISA_SaISA_EEJEEEPT_DpOT0_ENKUlPSD_E_clESJ_ = comdat any

$_ZNSt15__uniq_ptr_implISt6vectorIN8nlohmann10basic_jsonISt3mapS0_NSt7__cxx1112basic_stringIcSt11char_traitsIcESaIcEEEblmdSaNS1_14adl_serializerEEESaISB_EEZNSB_6createISD_JEEEPT_DpOT0_EUlPSD_E_E10_M_deleterEv = comdat any

$_ZSt3getILm1EJPSt6vectorIN8nlohmann10basic_jsonISt3mapS0_NSt7__cxx1112basic_stringIcSt11char_traitsIcESaIcEEEblmdSaNS1_14adl_serializerEEESaISB_EEZNSB_6createISD_JEEEPT_DpOT0_EUlSE_E_EERNSt13tuple_elementIXT_ESt5tupleIJDpSI_EEE4typeERSP_ = comdat any

$_ZSt12__get_helperILm1EZN8nlohmann10basic_jsonISt3mapSt6vectorNSt7__cxx1112basic_stringIcSt11char_traitsIcESaIcEEEblmdSaNS0_14adl_serializerEE6createIS3_ISB_SaISB_EEJEEEPT_DpOT0_EUlPSE_E_JEERT0_RSt11_Tuple_implIXT_EJSM_DpT1_EE = comdat any

$_ZNSt11_Tuple_implILm1EJZN8nlohmann10basic_jsonISt3mapSt6vectorNSt7__cxx1112basic_stringIcSt11char_traitsIcESaIcEEEblmdSaNS0_14adl_serializerEE6createIS3_ISB_SaISB_EEJEEEPT_DpOT0_EUlPSE_E_EE7_M_headERSM_ = comdat any

$_ZNSt10_Head_baseILm1EZN8nlohmann10basic_jsonISt3mapSt6vectorNSt7__cxx1112basic_stringIcSt11char_traitsIcESaIcEEEblmdSaNS0_14adl_serializerEE6createIS3_ISB_SaISB_EEJEEEPT_DpOT0_EUlPSE_E_Lb0EE7_M_headERSM_ = comdat any

$_ZSt3getILm0EJPSt6vectorIN8nlohmann10basic_jsonISt3mapS0_NSt7__cxx1112basic_stringIcSt11char_traitsIcESaIcEEEblmdSaNS1_14adl_serializerEEESaISB_EEZNSB_6createISD_JEEEPT_DpOT0_EUlSE_E_EERNSt13tuple_elementIXT_ESt5tupleIJDpSI_EEE4typeERSP_ = comdat any

$_ZSt12__get_helperILm0EPSt6vectorIN8nlohmann10basic_jsonISt3mapS0_NSt7__cxx1112basic_stringIcSt11char_traitsIcESaIcEEEblmdSaNS1_14adl_serializerEEESaISB_EEJZNSB_6createISD_JEEEPT_DpOT0_EUlSE_E_EERT0_RSt11_Tuple_implIXT_EJSM_DpT1_EE = comdat any

$_ZNSt11_Tuple_implILm0EJPSt6vectorIN8nlohmann10basic_jsonISt3mapS0_NSt7__cxx1112basic_stringIcSt11char_traitsIcESaIcEEEblmdSaNS1_14adl_serializerEEESaISB_EEZNSB_6createISD_JEEEPT_DpOT0_EUlSE_E_EE7_M_headERSM_ = comdat any

$_ZNKSt10unique_ptrISt6vectorIN8nlohmann10basic_jsonISt3mapS0_NSt7__cxx1112basic_stringIcSt11char_traitsIcESaIcEEEblmdSaNS1_14adl_serializerEEESaISB_EEZNSB_6createISD_JEEEPT_DpOT0_EUlPSD_E_EcvbEv = comdat any

$_ZN9__gnu_cxx13new_allocatorISt6vectorIN8nlohmann10basic_jsonISt3mapS1_NSt7__cxx1112basic_stringIcSt11char_traitsIcESaIcEEEblmdSaNS2_14adl_serializerEEESaISC_EEE9constructISE_JEEEvPT_DpOT0_ = comdat any

$_ZNKSt15__uniq_ptr_implISt6vectorIN8nlohmann10basic_jsonISt3mapS0_NSt7__cxx1112basic_stringIcSt11char_traitsIcESaIcEEEblmdSaNS1_14adl_serializerEEESaISB_EEZNSB_6createISD_JEEEPT_DpOT0_EUlPSD_E_E6_M_ptrEv = comdat any

$_ZSt3getILm0EJPSt6vectorIN8nlohmann10basic_jsonISt3mapS0_NSt7__cxx1112basic_stringIcSt11char_traitsIcESaIcEEEblmdSaNS1_14adl_serializerEEESaISB_EEZNSB_6createISD_JEEEPT_DpOT0_EUlSE_E_EERKNSt13tuple_elementIXT_ESt5tupleIJDpSI_EEE4typeERKSP_ = comdat any

$_ZSt12__get_helperILm0EPSt6vectorIN8nlohmann10basic_jsonISt3mapS0_NSt7__cxx1112basic_stringIcSt11char_traitsIcESaIcEEEblmdSaNS1_14adl_serializerEEESaISB_EEJZNSB_6createISD_JEEEPT_DpOT0_EUlSE_E_EERKT0_RKSt11_Tuple_implIXT_EJSM_DpT1_EE = comdat any

$_ZNSt11_Tuple_implILm0EJPSt6vectorIN8nlohmann10basic_jsonISt3mapS0_NSt7__cxx1112basic_stringIcSt11char_traitsIcESaIcEEEblmdSaNS1_14adl_serializerEEESaISB_EEZNSB_6createISD_JEEEPT_DpOT0_EUlSE_E_EE7_M_headERKSM_ = comdat any

$_ZNSt15__uniq_ptr_implISt6vectorIN8nlohmann10basic_jsonISt3mapS0_NSt7__cxx1112basic_stringIcSt11char_traitsIcESaIcEEEblmdSaNS1_14adl_serializerEEESaISB_EEZNSB_6createISD_JEEEPT_DpOT0_EUlPSD_E_EC2IRKSL_EESK_OSF_ = comdat any

$_ZNSt5tupleIJPSt6vectorIN8nlohmann10basic_jsonISt3mapS0_NSt7__cxx1112basic_stringIcSt11char_traitsIcESaIcEEEblmdSaNS1_14adl_serializerEEESaISB_EEZNSB_6createISD_JEEEPT_DpOT0_EUlSE_E_EEC2IRSE_RKSL_Lb1EEEOSG_OT0_ = comdat any

$_ZNSt11_Tuple_implILm0EJPSt6vectorIN8nlohmann10basic_jsonISt3mapS0_NSt7__cxx1112basic_stringIcSt11char_traitsIcESaIcEEEblmdSaNS1_14adl_serializerEEESaISB_EEZNSB_6createISD_JEEEPT_DpOT0_EUlSE_E_EEC2IRSE_JRKSL_EvEEOSG_SK_ = comdat any

$_ZNSt11_Tuple_implILm1EJZN8nlohmann10basic_jsonISt3mapSt6vectorNSt7__cxx1112basic_stringIcSt11char_traitsIcESaIcEEEblmdSaNS0_14adl_serializerEE6createIS3_ISB_SaISB_EEJEEEPT_DpOT0_EUlPSE_E_EEC2ERKSL_ = comdat any

$_ZNSt10_Head_baseILm1EZN8nlohmann10basic_jsonISt3mapSt6vectorNSt7__cxx1112basic_stringIcSt11char_traitsIcESaIcEEEblmdSaNS0_14adl_serializerEE6createIS3_ISB_SaISB_EEJEEEPT_DpOT0_EUlPSE_E_Lb0EEC2ERKSL_ = comdat any

$_ZNSt10unique_ptrISt3mapINSt7__cxx1112basic_stringIcSt11char_traitsIcESaIcEEEN8nlohmann10basic_jsonIS0_St6vectorS6_blmdSaNS7_14adl_serializerEEESt4lessIvESaISt4pairIKS6_SB_EEEZNSB_6createISI_JEEEPT_DpOT0_EUlPSI_E_EC2ISQ_vEESP_RKSQ_ = comdat any

$_ZNKSt10unique_ptrISt3mapINSt7__cxx1112basic_stringIcSt11char_traitsIcESaIcEEEN8nlohmann10basic_jsonIS0_St6vectorS6_blmdSaNS7_14adl_serializerEEESt4lessIvESaISt4pairIKS6_SB_EEEZNSB_6createISI_JEEEPT_DpOT0_EUlPSI_E_E3getEv = comdat any

$_ZNSt16allocator_traitsISaISt3mapINSt7__cxx1112basic_stringIcSt11char_traitsIcESaIcEEEN8nlohmann10basic_jsonIS0_St6vectorS6_blmdSaNS7_14adl_serializerEEESt4lessIvESaISt4pairIKS6_SB_EEEEE9constructISI_JEEEvRSJ_PT_DpOT0_ = comdat any

$_ZStneISt3mapINSt7__cxx1112basic_stringIcSt11char_traitsIcESaIcEEEN8nlohmann10basic_jsonIS0_St6vectorS6_blmdSaNS7_14adl_serializerEEESt4lessIvESaISt4pairIKS6_SB_EEEZNSB_6createISI_JEEEPT_DpOT0_EUlPSI_E_EbRKSt10unique_ptrISK_T0_EDn = comdat any

$_ZNSt10unique_ptrISt3mapINSt7__cxx1112basic_stringIcSt11char_traitsIcESaIcEEEN8nlohmann10basic_jsonIS0_St6vectorS6_blmdSaNS7_14adl_serializerEEESt4lessIvESaISt4pairIKS6_SB_EEEZNSB_6createISI_JEEEPT_DpOT0_EUlPSI_E_E7releaseEv = comdat any

$_ZNSt10unique_ptrISt3mapINSt7__cxx1112basic_stringIcSt11char_traitsIcESaIcEEEN8nlohmann10basic_jsonIS0_St6vectorS6_blmdSaNS7_14adl_serializerEEESt4lessIvESaISt4pairIKS6_SB_EEEZNSB_6createISI_JEEEPT_DpOT0_EUlPSI_E_ED2Ev = comdat any

$_ZNSt15__uniq_ptr_implISt3mapINSt7__cxx1112basic_stringIcSt11char_traitsIcESaIcEEEN8nlohmann10basic_jsonIS0_St6vectorS6_blmdSaNS7_14adl_serializerEEESt4lessIvESaISt4pairIKS6_SB_EEEZNSB_6createISI_JEEEPT_DpOT0_EUlPSI_E_E6_M_ptrEv = comdat any

$_ZNSt10unique_ptrISt3mapINSt7__cxx1112basic_stringIcSt11char_traitsIcESaIcEEEN8nlohmann10basic_jsonIS0_St6vectorS6_blmdSaNS7_14adl_serializerEEESt4lessIvESaISt4pairIKS6_SB_EEEZNSB_6createISI_JEEEPT_DpOT0_EUlPSI_E_E11get_deleterEv = comdat any

$_ZZN8nlohmann10basic_jsonISt3mapSt6vectorNSt7__cxx1112basic_stringIcSt11char_traitsIcESaIcEEEblmdSaNS_14adl_serializerEE6createIS1_IS8_SA_St4lessIvESaISt4pairIKS8_SA_EEEJEEEPT_DpOT0_ENKUlPSI_E_clESO_ = comdat any

$_ZNSt15__uniq_ptr_implISt3mapINSt7__cxx1112basic_stringIcSt11char_traitsIcESaIcEEEN8nlohmann10basic_jsonIS0_St6vectorS6_blmdSaNS7_14adl_serializerEEESt4lessIvESaISt4pairIKS6_SB_EEEZNSB_6createISI_JEEEPT_DpOT0_EUlPSI_E_E10_M_deleterEv = comdat any

$_ZSt3getILm1EJPSt3mapINSt7__cxx1112basic_stringIcSt11char_traitsIcESaIcEEEN8nlohmann10basic_jsonIS0_St6vectorS6_blmdSaNS7_14adl_serializerEEESt4lessIvESaISt4pairIKS6_SB_EEEZNSB_6createISI_JEEEPT_DpOT0_EUlSJ_E_EERNSt13tuple_elementIXT_ESt5tupleIJDpSN_EEE4typeERSU_ = comdat any

$_ZSt12__get_helperILm1EZN8nlohmann10basic_jsonISt3mapSt6vectorNSt7__cxx1112basic_stringIcSt11char_traitsIcESaIcEEEblmdSaNS0_14adl_serializerEE6createIS2_IS9_SB_St4lessIvESaISt4pairIKS9_SB_EEEJEEEPT_DpOT0_EUlPSJ_E_JEERT0_RSt11_Tuple_implIXT_EJSR_DpT1_EE = comdat any

$_ZNSt11_Tuple_implILm1EJZN8nlohmann10basic_jsonISt3mapSt6vectorNSt7__cxx1112basic_stringIcSt11char_traitsIcESaIcEEEblmdSaNS0_14adl_serializerEE6createIS2_IS9_SB_St4lessIvESaISt4pairIKS9_SB_EEEJEEEPT_DpOT0_EUlPSJ_E_EE7_M_headERSR_ = comdat any

$_ZNSt10_Head_baseILm1EZN8nlohmann10basic_jsonISt3mapSt6vectorNSt7__cxx1112basic_stringIcSt11char_traitsIcESaIcEEEblmdSaNS0_14adl_serializerEE6createIS2_IS9_SB_St4lessIvESaISt4pairIKS9_SB_EEEJEEEPT_DpOT0_EUlPSJ_E_Lb0EE7_M_headERSR_ = comdat any

$_ZSt3getILm0EJPSt3mapINSt7__cxx1112basic_stringIcSt11char_traitsIcESaIcEEEN8nlohmann10basic_jsonIS0_St6vectorS6_blmdSaNS7_14adl_serializerEEESt4lessIvESaISt4pairIKS6_SB_EEEZNSB_6createISI_JEEEPT_DpOT0_EUlSJ_E_EERNSt13tuple_elementIXT_ESt5tupleIJDpSN_EEE4typeERSU_ = comdat any

$_ZSt12__get_helperILm0EPSt3mapINSt7__cxx1112basic_stringIcSt11char_traitsIcESaIcEEEN8nlohmann10basic_jsonIS0_St6vectorS6_blmdSaNS7_14adl_serializerEEESt4lessIvESaISt4pairIKS6_SB_EEEJZNSB_6createISI_JEEEPT_DpOT0_EUlSJ_E_EERT0_RSt11_Tuple_implIXT_EJSR_DpT1_EE = comdat any

$_ZNSt11_Tuple_implILm0EJPSt3mapINSt7__cxx1112basic_stringIcSt11char_traitsIcESaIcEEEN8nlohmann10basic_jsonIS0_St6vectorS6_blmdSaNS7_14adl_serializerEEESt4lessIvESaISt4pairIKS6_SB_EEEZNSB_6createISI_JEEEPT_DpOT0_EUlSJ_E_EE7_M_headERSR_ = comdat any

$_ZNKSt10unique_ptrISt3mapINSt7__cxx1112basic_stringIcSt11char_traitsIcESaIcEEEN8nlohmann10basic_jsonIS0_St6vectorS6_blmdSaNS7_14adl_serializerEEESt4lessIvESaISt4pairIKS6_SB_EEEZNSB_6createISI_JEEEPT_DpOT0_EUlPSI_E_EcvbEv = comdat any

$_ZN9__gnu_cxx13new_allocatorISt3mapINSt7__cxx1112basic_stringIcSt11char_traitsIcESaIcEEEN8nlohmann10basic_jsonIS1_St6vectorS7_blmdSaNS8_14adl_serializerEEESt4lessIvESaISt4pairIKS7_SC_EEEE9constructISJ_JEEEvPT_DpOT0_ = comdat any

$_ZNSt3mapINSt7__cxx1112basic_stringIcSt11char_traitsIcESaIcEEEN8nlohmann10basic_jsonIS_St6vectorS5_blmdSaNS6_14adl_serializerEEESt4lessIvESaISt4pairIKS5_SA_EEEC2Ev = comdat any

$_ZNSt8_Rb_treeINSt7__cxx1112basic_stringIcSt11char_traitsIcESaIcEEESt4pairIKS5_N8nlohmann10basic_jsonISt3mapSt6vectorS5_blmdSaNS8_14adl_serializerEEEESt10_Select1stISE_ESt4lessIvESaISE_EEC2Ev = comdat any

$_ZNSt8_Rb_treeINSt7__cxx1112basic_stringIcSt11char_traitsIcESaIcEEESt4pairIKS5_N8nlohmann10basic_jsonISt3mapSt6vectorS5_blmdSaNS8_14adl_serializerEEEESt10_Select1stISE_ESt4lessIvESaISE_EE13_Rb_tree_implISI_Lb1EEC2Ev = comdat any

$_ZNSaISt13_Rb_tree_nodeISt4pairIKNSt7__cxx1112basic_stringIcSt11char_traitsIcESaIcEEEN8nlohmann10basic_jsonISt3mapSt6vectorS6_blmdSaNS8_14adl_serializerEEEEEEC2Ev = comdat any

$_ZNSt20_Rb_tree_key_compareISt4lessIvEEC2Ev = comdat any

$_ZN9__gnu_cxx13new_allocatorISt13_Rb_tree_nodeISt4pairIKNSt7__cxx1112basic_stringIcSt11char_traitsIcESaIcEEEN8nlohmann10basic_jsonISt3mapSt6vectorS8_blmdSaNSA_14adl_serializerEEEEEEC2Ev = comdat any

$_ZNKSt15__uniq_ptr_implISt3mapINSt7__cxx1112basic_stringIcSt11char_traitsIcESaIcEEEN8nlohmann10basic_jsonIS0_St6vectorS6_blmdSaNS7_14adl_serializerEEESt4lessIvESaISt4pairIKS6_SB_EEEZNSB_6createISI_JEEEPT_DpOT0_EUlPSI_E_E6_M_ptrEv = comdat any

$_ZSt3getILm0EJPSt3mapINSt7__cxx1112basic_stringIcSt11char_traitsIcESaIcEEEN8nlohmann10basic_jsonIS0_St6vectorS6_blmdSaNS7_14adl_serializerEEESt4lessIvESaISt4pairIKS6_SB_EEEZNSB_6createISI_JEEEPT_DpOT0_EUlSJ_E_EERKNSt13tuple_elementIXT_ESt5tupleIJDpSN_EEE4typeERKSU_ = comdat any

$_ZSt12__get_helperILm0EPSt3mapINSt7__cxx1112basic_stringIcSt11char_traitsIcESaIcEEEN8nlohmann10basic_jsonIS0_St6vectorS6_blmdSaNS7_14adl_serializerEEESt4lessIvESaISt4pairIKS6_SB_EEEJZNSB_6createISI_JEEEPT_DpOT0_EUlSJ_E_EERKT0_RKSt11_Tuple_implIXT_EJSR_DpT1_EE = comdat any

$_ZNSt11_Tuple_implILm0EJPSt3mapINSt7__cxx1112basic_stringIcSt11char_traitsIcESaIcEEEN8nlohmann10basic_jsonIS0_St6vectorS6_blmdSaNS7_14adl_serializerEEESt4lessIvESaISt4pairIKS6_SB_EEEZNSB_6createISI_JEEEPT_DpOT0_EUlSJ_E_EE7_M_headERKSR_ = comdat any

$_ZNSt15__uniq_ptr_implISt3mapINSt7__cxx1112basic_stringIcSt11char_traitsIcESaIcEEEN8nlohmann10basic_jsonIS0_St6vectorS6_blmdSaNS7_14adl_serializerEEESt4lessIvESaISt4pairIKS6_SB_EEEZNSB_6createISI_JEEEPT_DpOT0_EUlPSI_E_EC2IRKSQ_EESP_OSK_ = comdat any

$_ZNSt5tupleIJPSt3mapINSt7__cxx1112basic_stringIcSt11char_traitsIcESaIcEEEN8nlohmann10basic_jsonIS0_St6vectorS6_blmdSaNS7_14adl_serializerEEESt4lessIvESaISt4pairIKS6_SB_EEEZNSB_6createISI_JEEEPT_DpOT0_EUlSJ_E_EEC2IRSJ_RKSQ_Lb1EEEOSL_OT0_ = comdat any

$_ZNSt11_Tuple_implILm0EJPSt3mapINSt7__cxx1112basic_stringIcSt11char_traitsIcESaIcEEEN8nlohmann10basic_jsonIS0_St6vectorS6_blmdSaNS7_14adl_serializerEEESt4lessIvESaISt4pairIKS6_SB_EEEZNSB_6createISI_JEEEPT_DpOT0_EUlSJ_E_EEC2IRSJ_JRKSQ_EvEEOSL_SP_ = comdat any

$_ZNSt11_Tuple_implILm1EJZN8nlohmann10basic_jsonISt3mapSt6vectorNSt7__cxx1112basic_stringIcSt11char_traitsIcESaIcEEEblmdSaNS0_14adl_serializerEE6createIS2_IS9_SB_St4lessIvESaISt4pairIKS9_SB_EEEJEEEPT_DpOT0_EUlPSJ_E_EEC2ERKSQ_ = comdat any

$_ZNSt10_Head_baseILm1EZN8nlohmann10basic_jsonISt3mapSt6vectorNSt7__cxx1112basic_stringIcSt11char_traitsIcESaIcEEEblmdSaNS0_14adl_serializerEE6createIS2_IS9_SB_St4lessIvESaISt4pairIKS9_SB_EEEJEEEPT_DpOT0_EUlPSJ_E_Lb0EEC2ERKSQ_ = comdat any

$_ZN8nlohmann6detail10type_errorC2EiPKc = comdat any

$_ZN8nlohmann6detail10type_errorD0Ev = comdat any

$_ZNSt7__cxx1112basic_stringIcSt11char_traitsIcESaIcEE12_M_constructIPKcEEvT_S8_ = comdat any

$_ZNSt7__cxx1112basic_stringIcSt11char_traitsIcESaIcEE16_M_construct_auxIPKcEEvT_S8_St12__false_type = comdat any

$_ZNSt7__cxx1112basic_stringIcSt11char_traitsIcESaIcEE12_M_constructIPKcEEvT_S8_St20forward_iterator_tag = comdat any

$_ZN9__gnu_cxx17__is_null_pointerIKcEEbPT_ = comdat any

$_ZSt8distanceIPKcENSt15iterator_traitsIT_E15difference_typeES3_S3_ = comdat any

$_ZSt19__iterator_categoryIPKcENSt15iterator_traitsIT_E17iterator_categoryERKS3_ = comdat any

$_ZSt10__distanceIPKcENSt15iterator_traitsIT_E15difference_typeES3_S3_St26random_access_iterator_tag = comdat any

$_ZSt11find_if_notIPKN8nlohmann6detail8json_refINS0_10basic_jsonISt3mapSt6vectorNSt7__cxx1112basic_stringIcSt11char_traitsIcESaIcEEEblmdSaNS0_14adl_serializerEEEEEZNSD_C1ESt16initializer_listISE_EbNS1_7value_tEEUlRSF_E_ET_SM_SM_T0_ = comdat any

$_ZN9__gnu_cxx5__ops11__pred_iterIZN8nlohmann10basic_jsonISt3mapSt6vectorNSt7__cxx1112basic_stringIcSt11char_traitsIcESaIcEEEblmdSaNS2_14adl_serializerEEC1ESt16initializer_listINS2_6detail8json_refISD_EEEbNSF_7value_tEEUlRKSH_E_EENS0_10_Iter_predIT_EESO_ = comdat any

$_ZSt13__find_if_notIPKN8nlohmann6detail8json_refINS0_10basic_jsonISt3mapSt6vectorNSt7__cxx1112basic_stringIcSt11char_traitsIcESaIcEEEblmdSaNS0_14adl_serializerEEEEEN9__gnu_cxx5__ops10_Iter_predIZNSD_C1ESt16initializer_listISE_EbNS1_7value_tEEUlRSF_E_EEET_SQ_SQ_T0_ = comdat any

$_ZN9__gnu_cxx5__ops8__negateIZN8nlohmann10basic_jsonISt3mapSt6vectorNSt7__cxx1112basic_stringIcSt11char_traitsIcESaIcEEEblmdSaNS2_14adl_serializerEEC1ESt16initializer_listINS2_6detail8json_refISD_EEEbNSF_7value_tEEUlRKSH_E_EENS0_12_Iter_negateIT_EENS0_10_Iter_predISO_EE = comdat any

$_ZSt9__find_ifIPKN8nlohmann6detail8json_refINS0_10basic_jsonISt3mapSt6vectorNSt7__cxx1112basic_stringIcSt11char_traitsIcESaIcEEEblmdSaNS0_14adl_serializerEEEEEN9__gnu_cxx5__ops12_Iter_negateIZNSD_C1ESt16initializer_listISE_EbNS1_7value_tEEUlRSF_E_EEET_SQ_SQ_T0_St26random_access_iterator_tag = comdat any

$_ZN9__gnu_cxx5__ops12_Iter_negateIZN8nlohmann10basic_jsonISt3mapSt6vectorNSt7__cxx1112basic_stringIcSt11char_traitsIcESaIcEEEblmdSaNS2_14adl_serializerEEC1ESt16initializer_listINS2_6detail8json_refISD_EEEbNSF_7value_tEEUlRKSH_E_EclIPSK_EEbT_ = comdat any

$_ZZN8nlohmann10basic_jsonISt3mapSt6vectorNSt7__cxx1112basic_stringIcSt11char_traitsIcESaIcEEEblmdSaNS_14adl_serializerEEC1ESt16initializer_listINS_6detail8json_refISA_EEEbNSC_7value_tEENKUlRKSE_E_clESI_ = comdat any

$_ZNK8nlohmann6detail8json_refINS_10basic_jsonISt3mapSt6vectorNSt7__cxx1112basic_stringIcSt11char_traitsIcESaIcEEEblmdSaNS_14adl_serializerEEEEptEv = comdat any

$_ZNK8nlohmann10basic_jsonISt3mapSt6vectorNSt7__cxx1112basic_stringIcSt11char_traitsIcESaIcEEEblmdSaNS_14adl_serializerEE4sizeEv = comdat any

$_ZNK8nlohmann6detail8json_refINS_10basic_jsonISt3mapSt6vectorNSt7__cxx1112basic_stringIcSt11char_traitsIcESaIcEEEblmdSaNS_14adl_serializerEEEEdeEv = comdat any

$_ZNK8nlohmann10basic_jsonISt3mapSt6vectorNSt7__cxx1112basic_stringIcSt11char_traitsIcESaIcEEEblmdSaNS_14adl_serializerEEixEm = comdat any

$_ZNK8nlohmann10basic_jsonISt3mapSt6vectorNSt7__cxx1112basic_stringIcSt11char_traitsIcESaIcEEEblmdSaNS_14adl_serializerEE9is_stringEv = comdat any

$_ZNK8nlohmann10basic_jsonISt3mapSt6vectorNSt7__cxx1112basic_stringIcSt11char_traitsIcESaIcEEEblmdSaNS_14adl_serializerEE9type_nameEv = comdat any

$_ZStplIcSt11char_traitsIcESaIcEENSt7__cxx1112basic_stringIT_T0_T1_EEPKS5_OS8_ = comdat any

$_ZN9__gnu_cxx5__ops12_Iter_negateIZN8nlohmann10basic_jsonISt3mapSt6vectorNSt7__cxx1112basic_stringIcSt11char_traitsIcESaIcEEEblmdSaNS2_14adl_serializerEEC1ESt16initializer_listINS2_6detail8json_refISD_EEEbNSF_7value_tEEUlRKSH_E_EC2ESM_ = comdat any

$_ZN9__gnu_cxx5__ops10_Iter_predIZN8nlohmann10basic_jsonISt3mapSt6vectorNSt7__cxx1112basic_stringIcSt11char_traitsIcESaIcEEEblmdSaNS2_14adl_serializerEEC1ESt16initializer_listINS2_6detail8json_refISD_EEEbNSF_7value_tEEUlRKSH_E_EC2ESM_ = comdat any

$_ZNKSt16initializer_listIN8nlohmann6detail8json_refINS0_10basic_jsonISt3mapSt6vectorNSt7__cxx1112basic_stringIcSt11char_traitsIcESaIcEEEblmdSaNS0_14adl_serializerEEEEEE4sizeEv = comdat any

$_ZN8nlohmann10basic_jsonISt3mapSt6vectorNSt7__cxx1112basic_stringIcSt11char_traitsIcESaIcEEEblmdSaNS_14adl_serializerEEC2IRKS8_S8_Li0EEEOT_ = comdat any

$_ZN8nlohmann14adl_serializerINSt7__cxx1112basic_stringIcSt11char_traitsIcESaIcEEEvE7to_jsonINS_10basic_jsonISt3mapSt6vectorS6_blmdSaS0_EERKS6_EEDTcmclL_ZNS_12_GLOBAL__N_17to_jsonEEfp_clsr3stdE7forwardIT0_Efp0_EEcvv_EERT_OSG_ = comdat any

$_ZNK8nlohmann6detail10to_json_fnclINS_10basic_jsonISt3mapSt6vectorNSt7__cxx1112basic_stringIcSt11char_traitsIcESaIcEEEblmdSaNS_14adl_serializerEEERKSB_EEDTcmcl7to_jsonfp_clsr3stdE7forwardIT0_Efp0_EEcvv_EERT_OSG_ = comdat any

$_ZN8nlohmann6detail7to_jsonINS_10basic_jsonISt3mapSt6vectorNSt7__cxx1112basic_stringIcSt11char_traitsIcESaIcEEEblmdSaNS_14adl_serializerEEESA_Li0EEEvRT_RKT0_ = comdat any

$_ZN8nlohmann6detail20external_constructorILNS0_7value_tE3EE9constructINS_10basic_jsonISt3mapSt6vectorNSt7__cxx1112basic_stringIcSt11char_traitsIcESaIcEEEblmdSaNS_14adl_serializerEEEEEvRT_RKNSG_8string_tE = comdat any

$_ZN8nlohmann10basic_jsonISt3mapSt6vectorNSt7__cxx1112basic_stringIcSt11char_traitsIcESaIcEEEblmdSaNS_14adl_serializerEEC2IRA4_KcA4_cLi0EEEOT_ = comdat any

$_ZN8nlohmann14adl_serializerIA4_cvE7to_jsonINS_10basic_jsonISt3mapSt6vectorNSt7__cxx1112basic_stringIcSt11char_traitsIcESaIcEEEblmdSaS0_EERA4_KcEEDTcmclL_ZNS_12_GLOBAL__N_17to_jsonEEfp_clsr3stdE7forwardIT0_Efp0_EEcvv_EERT_OSI_ = comdat any

$_ZNK8nlohmann6detail10to_json_fnclINS_10basic_jsonISt3mapSt6vectorNSt7__cxx1112basic_stringIcSt11char_traitsIcESaIcEEEblmdSaNS_14adl_serializerEEERA4_KcEEDTcmcl7to_jsonfp_clsr3stdE7forwardIT0_Efp0_EEcvv_EERT_OSH_ = comdat any

$_ZN8nlohmann6detail7to_jsonINS_10basic_jsonISt3mapSt6vectorNSt7__cxx1112basic_stringIcSt11char_traitsIcESaIcEEEblmdSaNS_14adl_serializerEEEA4_cLi0EEEvRT_RKT0_ = comdat any

$_ZN8nlohmann6detail20external_constructorILNS0_7value_tE3EE9constructINS_10basic_jsonISt3mapSt6vectorNSt7__cxx1112basic_stringIcSt11char_traitsIcESaIcEEEblmdSaNS_14adl_serializerEEEA4_cLi0EEEvRT_RKT0_ = comdat any

$_ZN8nlohmann10basic_jsonISt3mapSt6vectorNSt7__cxx1112basic_stringIcSt11char_traitsIcESaIcEEEblmdSaNS_14adl_serializerEE6createIS8_JRA4_KcEEEPT_DpOT0_ = comdat any

$_ZNSt10unique_ptrINSt7__cxx1112basic_stringIcSt11char_traitsIcESaIcEEEZN8nlohmann10basic_jsonISt3mapSt6vectorS5_blmdSaNS6_14adl_serializerEE6createIS5_JRA4_KcEEEPT_DpOT0_EUlPS5_E_EC2ISM_vEESL_RKSM_ = comdat any

$_ZNKSt10unique_ptrINSt7__cxx1112basic_stringIcSt11char_traitsIcESaIcEEEZN8nlohmann10basic_jsonISt3mapSt6vectorS5_blmdSaNS6_14adl_serializerEE6createIS5_JRA4_KcEEEPT_DpOT0_EUlPS5_E_E3getEv = comdat any

$_ZNSt16allocator_traitsISaINSt7__cxx1112basic_stringIcSt11char_traitsIcESaIcEEEEE9constructIS5_JRA4_KcEEEvRS6_PT_DpOT0_ = comdat any

$_ZStneINSt7__cxx1112basic_stringIcSt11char_traitsIcESaIcEEEZN8nlohmann10basic_jsonISt3mapSt6vectorS5_blmdSaNS6_14adl_serializerEE6createIS5_JRA4_KcEEEPT_DpOT0_EUlPS5_E_EbRKSt10unique_ptrISG_T0_EDn = comdat any

$_ZNSt10unique_ptrINSt7__cxx1112basic_stringIcSt11char_traitsIcESaIcEEEZN8nlohmann10basic_jsonISt3mapSt6vectorS5_blmdSaNS6_14adl_serializerEE6createIS5_JRA4_KcEEEPT_DpOT0_EUlPS5_E_ED2Ev = comdat any

$_ZNSt10unique_ptrINSt7__cxx1112basic_stringIcSt11char_traitsIcESaIcEEEZN8nlohmann10basic_jsonISt3mapSt6vectorS5_blmdSaNS6_14adl_serializerEE6createIS5_JRA4_KcEEEPT_DpOT0_EUlPS5_E_E7releaseEv = comdat any

$_ZNSt15__uniq_ptr_implINSt7__cxx1112basic_stringIcSt11char_traitsIcESaIcEEEZN8nlohmann10basic_jsonISt3mapSt6vectorS5_blmdSaNS6_14adl_serializerEE6createIS5_JRA4_KcEEEPT_DpOT0_EUlPS5_E_E6_M_ptrEv = comdat any

$_ZSt3getILm0EJPNSt7__cxx1112basic_stringIcSt11char_traitsIcESaIcEEEZN8nlohmann10basic_jsonISt3mapSt6vectorS5_blmdSaNS7_14adl_serializerEE6createIS5_JRA4_KcEEEPT_DpOT0_EUlS6_E_EERNSt13tuple_elementIXT_ESt5tupleIJDpSJ_EEE4typeERSQ_ = comdat any

$_ZSt12__get_helperILm0EPNSt7__cxx1112basic_stringIcSt11char_traitsIcESaIcEEEJZN8nlohmann10basic_jsonISt3mapSt6vectorS5_blmdSaNS7_14adl_serializerEE6createIS5_JRA4_KcEEEPT_DpOT0_EUlS6_E_EERT0_RSt11_Tuple_implIXT_EJSN_DpT1_EE = comdat any

$_ZNSt11_Tuple_implILm0EJPNSt7__cxx1112basic_stringIcSt11char_traitsIcESaIcEEEZN8nlohmann10basic_jsonISt3mapSt6vectorS5_blmdSaNS7_14adl_serializerEE6createIS5_JRA4_KcEEEPT_DpOT0_EUlS6_E_EE7_M_headERSN_ = comdat any

$_ZNSt10unique_ptrINSt7__cxx1112basic_stringIcSt11char_traitsIcESaIcEEEZN8nlohmann10basic_jsonISt3mapSt6vectorS5_blmdSaNS6_14adl_serializerEE6createIS5_JRA4_KcEEEPT_DpOT0_EUlPS5_E_E11get_deleterEv = comdat any

$_ZZN8nlohmann10basic_jsonISt3mapSt6vectorNSt7__cxx1112basic_stringIcSt11char_traitsIcESaIcEEEblmdSaNS_14adl_serializerEE6createIS8_JRA4_KcEEEPT_DpOT0_ENKUlPS8_E_clESK_ = comdat any

$_ZNSt15__uniq_ptr_implINSt7__cxx1112basic_stringIcSt11char_traitsIcESaIcEEEZN8nlohmann10basic_jsonISt3mapSt6vectorS5_blmdSaNS6_14adl_serializerEE6createIS5_JRA4_KcEEEPT_DpOT0_EUlPS5_E_E10_M_deleterEv = comdat any

$_ZSt3getILm1EJPNSt7__cxx1112basic_stringIcSt11char_traitsIcESaIcEEEZN8nlohmann10basic_jsonISt3mapSt6vectorS5_blmdSaNS7_14adl_serializerEE6createIS5_JRA4_KcEEEPT_DpOT0_EUlS6_E_EERNSt13tuple_elementIXT_ESt5tupleIJDpSJ_EEE4typeERSQ_ = comdat any

$_ZSt12__get_helperILm1EZN8nlohmann10basic_jsonISt3mapSt6vectorNSt7__cxx1112basic_stringIcSt11char_traitsIcESaIcEEEblmdSaNS0_14adl_serializerEE6createIS9_JRA4_KcEEEPT_DpOT0_EUlPS9_E_JEERT0_RSt11_Tuple_implIXT_EJSN_DpT1_EE = comdat any

$_ZNSt11_Tuple_implILm1EJZN8nlohmann10basic_jsonISt3mapSt6vectorNSt7__cxx1112basic_stringIcSt11char_traitsIcESaIcEEEblmdSaNS0_14adl_serializerEE6createIS9_JRA4_KcEEEPT_DpOT0_EUlPS9_E_EE7_M_headERSN_ = comdat any

$_ZNSt10_Head_baseILm1EZN8nlohmann10basic_jsonISt3mapSt6vectorNSt7__cxx1112basic_stringIcSt11char_traitsIcESaIcEEEblmdSaNS0_14adl_serializerEE6createIS9_JRA4_KcEEEPT_DpOT0_EUlPS9_E_Lb0EE7_M_headERSN_ = comdat any

$_ZNKSt10unique_ptrINSt7__cxx1112basic_stringIcSt11char_traitsIcESaIcEEEZN8nlohmann10basic_jsonISt3mapSt6vectorS5_blmdSaNS6_14adl_serializerEE6createIS5_JRA4_KcEEEPT_DpOT0_EUlPS5_E_EcvbEv = comdat any

$_ZN9__gnu_cxx13new_allocatorINSt7__cxx1112basic_stringIcSt11char_traitsIcESaIcEEEE9constructIS6_JRA4_KcEEEvPT_DpOT0_ = comdat any

$_ZNKSt15__uniq_ptr_implINSt7__cxx1112basic_stringIcSt11char_traitsIcESaIcEEEZN8nlohmann10basic_jsonISt3mapSt6vectorS5_blmdSaNS6_14adl_serializerEE6createIS5_JRA4_KcEEEPT_DpOT0_EUlPS5_E_E6_M_ptrEv = comdat any

$_ZSt3getILm0EJPNSt7__cxx1112basic_stringIcSt11char_traitsIcESaIcEEEZN8nlohmann10basic_jsonISt3mapSt6vectorS5_blmdSaNS7_14adl_serializerEE6createIS5_JRA4_KcEEEPT_DpOT0_EUlS6_E_EERKNSt13tuple_elementIXT_ESt5tupleIJDpSJ_EEE4typeERKSQ_ = comdat any

$_ZSt12__get_helperILm0EPNSt7__cxx1112basic_stringIcSt11char_traitsIcESaIcEEEJZN8nlohmann10basic_jsonISt3mapSt6vectorS5_blmdSaNS7_14adl_serializerEE6createIS5_JRA4_KcEEEPT_DpOT0_EUlS6_E_EERKT0_RKSt11_Tuple_implIXT_EJSN_DpT1_EE = comdat any

$_ZNSt11_Tuple_implILm0EJPNSt7__cxx1112basic_stringIcSt11char_traitsIcESaIcEEEZN8nlohmann10basic_jsonISt3mapSt6vectorS5_blmdSaNS7_14adl_serializerEE6createIS5_JRA4_KcEEEPT_DpOT0_EUlS6_E_EE7_M_headERKSN_ = comdat any

$_ZNSt15__uniq_ptr_implINSt7__cxx1112basic_stringIcSt11char_traitsIcESaIcEEEZN8nlohmann10basic_jsonISt3mapSt6vectorS5_blmdSaNS6_14adl_serializerEE6createIS5_JRA4_KcEEEPT_DpOT0_EUlPS5_E_EC2IRKSM_EESL_OSG_ = comdat any

$_ZNSt5tupleIJPNSt7__cxx1112basic_stringIcSt11char_traitsIcESaIcEEEZN8nlohmann10basic_jsonISt3mapSt6vectorS5_blmdSaNS7_14adl_serializerEE6createIS5_JRA4_KcEEEPT_DpOT0_EUlS6_E_EEC2IRS6_RKSM_Lb1EEEOSH_OT0_ = comdat any

$_ZNSt11_Tuple_implILm0EJPNSt7__cxx1112basic_stringIcSt11char_traitsIcESaIcEEEZN8nlohmann10basic_jsonISt3mapSt6vectorS5_blmdSaNS7_14adl_serializerEE6createIS5_JRA4_KcEEEPT_DpOT0_EUlS6_E_EEC2IRS6_JRKSM_EvEEOSH_SL_ = comdat any

$_ZNSt11_Tuple_implILm1EJZN8nlohmann10basic_jsonISt3mapSt6vectorNSt7__cxx1112basic_stringIcSt11char_traitsIcESaIcEEEblmdSaNS0_14adl_serializerEE6createIS9_JRA4_KcEEEPT_DpOT0_EUlPS9_E_EEC2ERKSM_ = comdat any

$_ZNSt10_Head_baseILm1EZN8nlohmann10basic_jsonISt3mapSt6vectorNSt7__cxx1112basic_stringIcSt11char_traitsIcESaIcEEEblmdSaNS0_14adl_serializerEE6createIS9_JRA4_KcEEEPT_DpOT0_EUlPS9_E_Lb0EEC2ERKSM_ = comdat any

$_ZN8nlohmann10basic_jsonISt3mapSt6vectorNSt7__cxx1112basic_stringIcSt11char_traitsIcESaIcEEEblmdSaNS_14adl_serializerEEC2IR7jsonMsgSC_Li0EEEOT_ = comdat any

$_ZNK8nlohmann10basic_jsonISt3mapSt6vectorNSt7__cxx1112basic_stringIcSt11char_traitsIcESaIcEEEblmdSaNS_14adl_serializerEE4dumpEicbNS_6detail15error_handler_tE = comdat any

$_ZN7jsonMsgD2Ev = comdat any

$_ZN8nlohmann6detail14output_adapterIcNSt7__cxx1112basic_stringIcSt11char_traitsIcESaIcEEEEC2ERS7_ = comdat any

$_ZN8nlohmann6detail14output_adapterIcNSt7__cxx1112basic_stringIcSt11char_traitsIcESaIcEEEEcvSt10shared_ptrINS0_23output_adapter_protocolIcEEEEv = comdat any

$_ZN8nlohmann6detail10serializerINS_10basic_jsonISt3mapSt6vectorNSt7__cxx1112basic_stringIcSt11char_traitsIcESaIcEEEblmdSaNS_14adl_serializerEEEEC2ESt10shared_ptrINS0_23output_adapter_protocolIcEEEcNS0_15error_handler_tE = comdat any

$_ZNSt10shared_ptrIN8nlohmann6detail23output_adapter_protocolIcEEED2Ev = comdat any

$_ZN8nlohmann6detail14output_adapterIcNSt7__cxx1112basic_stringIcSt11char_traitsIcESaIcEEEED2Ev = comdat any

$_ZN8nlohmann6detail10serializerINS_10basic_jsonISt3mapSt6vectorNSt7__cxx1112basic_stringIcSt11char_traitsIcESaIcEEEblmdSaNS_14adl_serializerEEEE4dumpERKSC_bbjj = comdat any

$_ZN8nlohmann6detail10serializerINS_10basic_jsonISt3mapSt6vectorNSt7__cxx1112basic_stringIcSt11char_traitsIcESaIcEEEblmdSaNS_14adl_serializerEEEED2Ev = comdat any

$_ZNKSt3mapINSt7__cxx1112basic_stringIcSt11char_traitsIcESaIcEEEN8nlohmann10basic_jsonIS_St6vectorS5_blmdSaNS6_14adl_serializerEEESt4lessIvESaISt4pairIKS5_SA_EEE5emptyEv = comdat any

$_ZNKSt19__shared_ptr_accessIN8nlohmann6detail23output_adapter_protocolIcEELN9__gnu_cxx12_Lock_policyE2ELb0ELb0EEptEv = comdat any

$_ZNKSt3mapINSt7__cxx1112basic_stringIcSt11char_traitsIcESaIcEEEN8nlohmann10basic_jsonIS_St6vectorS5_blmdSaNS6_14adl_serializerEEESt4lessIvESaISt4pairIKS5_SA_EEE6cbeginEv = comdat any

$_ZNKSt23_Rb_tree_const_iteratorISt4pairIKNSt7__cxx1112basic_stringIcSt11char_traitsIcESaIcEEEN8nlohmann10basic_jsonISt3mapSt6vectorS6_blmdSaNS8_14adl_serializerEEEEEptEv = comdat any

$_ZN8nlohmann6detail10serializerINS_10basic_jsonISt3mapSt6vectorNSt7__cxx1112basic_stringIcSt11char_traitsIcESaIcEEEblmdSaNS_14adl_serializerEEEE12dump_escapedERKSA_b = comdat any

$_ZNSt23_Rb_tree_const_iteratorISt4pairIKNSt7__cxx1112basic_stringIcSt11char_traitsIcESaIcEEEN8nlohmann10basic_jsonISt3mapSt6vectorS6_blmdSaNS8_14adl_serializerEEEEEppEv = comdat any

$_ZNKSt3mapINSt7__cxx1112basic_stringIcSt11char_traitsIcESaIcEEEN8nlohmann10basic_jsonIS_St6vectorS5_blmdSaNS6_14adl_serializerEEESt4lessIvESaISt4pairIKS5_SA_EEE4cendEv = comdat any

$_ZStneRKSt23_Rb_tree_const_iteratorISt4pairIKNSt7__cxx1112basic_stringIcSt11char_traitsIcESaIcEEEN8nlohmann10basic_jsonISt3mapSt6vectorS6_blmdSaNS8_14adl_serializerEEEEESH_ = comdat any

$_ZSt4nextISt23_Rb_tree_const_iteratorISt4pairIKNSt7__cxx1112basic_stringIcSt11char_traitsIcESaIcEEEN8nlohmann10basic_jsonISt3mapSt6vectorS7_blmdSaNS9_14adl_serializerEEEEEET_SH_NSt15iterator_traitsISH_E15difference_typeE = comdat any

$_ZSteqRKSt23_Rb_tree_const_iteratorISt4pairIKNSt7__cxx1112basic_stringIcSt11char_traitsIcESaIcEEEN8nlohmann10basic_jsonISt3mapSt6vectorS6_blmdSaNS8_14adl_serializerEEEEESH_ = comdat any

$_ZNKSt6vectorIN8nlohmann10basic_jsonISt3mapS_NSt7__cxx1112basic_stringIcSt11char_traitsIcESaIcEEEblmdSaNS0_14adl_serializerEEESaISA_EE6cbeginEv = comdat any

$_ZNKSt6vectorIN8nlohmann10basic_jsonISt3mapS_NSt7__cxx1112basic_stringIcSt11char_traitsIcESaIcEEEblmdSaNS0_14adl_serializerEEESaISA_EE4cendEv = comdat any

$_ZNK9__gnu_cxx17__normal_iteratorIPKN8nlohmann10basic_jsonISt3mapSt6vectorNSt7__cxx1112basic_stringIcSt11char_traitsIcESaIcEEEblmdSaNS1_14adl_serializerEEES4_ISC_SaISC_EEEmiEl = comdat any

$_ZN8nlohmann6detail10serializerINS_10basic_jsonISt3mapSt6vectorNSt7__cxx1112basic_stringIcSt11char_traitsIcESaIcEEEblmdSaNS_14adl_serializerEEEE12dump_integerIlLi0EEEvT_ = comdat any

$_ZN8nlohmann6detail10serializerINS_10basic_jsonISt3mapSt6vectorNSt7__cxx1112basic_stringIcSt11char_traitsIcESaIcEEEblmdSaNS_14adl_serializerEEEE12dump_integerImLi0EEEvT_ = comdat any

$_ZN8nlohmann6detail10serializerINS_10basic_jsonISt3mapSt6vectorNSt7__cxx1112basic_stringIcSt11char_traitsIcESaIcEEEblmdSaNS_14adl_serializerEEEE10dump_floatEd = comdat any

$_ZSt8isfinited = comdat any

$_ZN8nlohmann6detail10serializerINS_10basic_jsonISt3mapSt6vectorNSt7__cxx1112basic_stringIcSt11char_traitsIcESaIcEEEblmdSaNS_14adl_serializerEEEE10dump_floatEdSt17integral_constantIbLb1EE = comdat any

$_ZNSt5arrayIcLm64EE4dataEv = comdat any

$_ZNKSt5arrayIcLm64EE4sizeEv = comdat any

$_ZN8nlohmann6detail8to_charsIdEEPcS2_PKcT_ = comdat any

$_ZSt7signbitd = comdat any

$_ZN8nlohmann6detail9dtoa_impl6grisu2IdEEvPcRiS4_T_ = comdat any

$_ZN8nlohmann6detail9dtoa_impl13format_bufferEPciiii = comdat any

$_ZN8nlohmann6detail9dtoa_impl15append_exponentEPci = comdat any

$_ZN8nlohmann6detail9dtoa_impl18compute_boundariesIdEENS1_10boundariesET_ = comdat any

$_ZN8nlohmann6detail9dtoa_impl6grisu2EPcRiS3_NS1_5diyfpES4_S4_ = comdat any

$_ZN8nlohmann6detail9dtoa_impl36get_cached_power_for_binary_exponentEi = comdat any

$_ZN8nlohmann6detail9dtoa_impl5diyfpC2Emi = comdat any

$_ZN8nlohmann6detail9dtoa_impl5diyfp3mulERKS2_S4_ = comdat any

$_ZN8nlohmann6detail9dtoa_impl16grisu2_digit_genEPcRiS3_NS1_5diyfpES4_S4_ = comdat any

$_ZN8nlohmann6detail9dtoa_impl5diyfp3subERKS2_S4_ = comdat any

$_ZN8nlohmann6detail9dtoa_impl18find_largest_pow10EjRj = comdat any

$_ZN8nlohmann6detail9dtoa_impl12grisu2_roundEPcimmmm = comdat any

$_ZNSt14numeric_limitsImE3maxEv = comdat any

$_ZNKSt5arrayIN8nlohmann6detail9dtoa_impl12cached_powerELm79EE4sizeEv = comdat any

$_ZNKSt5arrayIN8nlohmann6detail9dtoa_impl12cached_powerELm79EEixEm = comdat any

$_ZNSt14__array_traitsIN8nlohmann6detail9dtoa_impl12cached_powerELm79EE6_S_refERA79_KS3_m = comdat any

$_ZN8nlohmann6detail9dtoa_impl16reinterpret_bitsImdEET_T0_ = comdat any

$_ZN8nlohmann6detail9dtoa_impl5diyfp9normalizeES2_ = comdat any

$_ZN8nlohmann6detail9dtoa_impl5diyfp12normalize_toERKS2_i = comdat any

$_ZNSt14__array_traitsIcLm64EE6_S_ptrERA64_Kc = comdat any

$_ZNSt5arrayIcLm64EE5beginEv = comdat any

$_ZN8nlohmann6detail10serializerINS_10basic_jsonISt3mapSt6vectorNSt7__cxx1112basic_stringIcSt11char_traitsIcESaIcEEEblmdSaNS_14adl_serializerEEEE12count_digitsEm = comdat any

$_ZNKSt5arrayIS_IcLm2EELm100EEixEm = comdat any

$_ZNKSt5arrayIcLm2EEixEm = comdat any

$_ZNSt14__array_traitsIcLm2EE6_S_refERA2_Kcm = comdat any

$_ZNSt14__array_traitsISt5arrayIcLm2EELm100EE6_S_refERA100_KS1_m = comdat any

$_ZN8nlohmann6detail10serializerINS_10basic_jsonISt3mapSt6vectorNSt7__cxx1112basic_stringIcSt11char_traitsIcESaIcEEEblmdSaNS_14adl_serializerEEEE11remove_signEl = comdat any

$_ZNSt14numeric_limitsIlE3maxEv = comdat any

$_ZSt7advanceISt23_Rb_tree_const_iteratorISt4pairIKNSt7__cxx1112basic_stringIcSt11char_traitsIcESaIcEEEN8nlohmann10basic_jsonISt3mapSt6vectorS7_blmdSaNS9_14adl_serializerEEEEElEvRT_T0_ = comdat any

$_ZSt19__iterator_categoryISt23_Rb_tree_const_iteratorISt4pairIKNSt7__cxx1112basic_stringIcSt11char_traitsIcESaIcEEEN8nlohmann10basic_jsonISt3mapSt6vectorS7_blmdSaNS9_14adl_serializerEEEEEENSt15iterator_traitsIT_E17iterator_categoryERKSI_ = comdat any

$_ZSt9__advanceISt23_Rb_tree_const_iteratorISt4pairIKNSt7__cxx1112basic_stringIcSt11char_traitsIcESaIcEEEN8nlohmann10basic_jsonISt3mapSt6vectorS7_blmdSaNS9_14adl_serializerEEEEElEvRT_T0_St26bidirectional_iterator_tag = comdat any

$_ZNSt23_Rb_tree_const_iteratorISt4pairIKNSt7__cxx1112basic_stringIcSt11char_traitsIcESaIcEEEN8nlohmann10basic_jsonISt3mapSt6vectorS6_blmdSaNS8_14adl_serializerEEEEEmmEv = comdat any

$_ZNKSt8_Rb_treeINSt7__cxx1112basic_stringIcSt11char_traitsIcESaIcEEESt4pairIKS5_N8nlohmann10basic_jsonISt3mapSt6vectorS5_blmdSaNS8_14adl_serializerEEEESt10_Select1stISE_ESt4lessIvESaISE_EE3endEv = comdat any

$_ZNSt23_Rb_tree_const_iteratorISt4pairIKNSt7__cxx1112basic_stringIcSt11char_traitsIcESaIcEEEN8nlohmann10basic_jsonISt3mapSt6vectorS6_blmdSaNS8_14adl_serializerEEEEEC2EPKSt18_Rb_tree_node_base = comdat any

$_ZN8nlohmann6detail10serializerINS_10basic_jsonISt3mapSt6vectorNSt7__cxx1112basic_stringIcSt11char_traitsIcESaIcEEEblmdSaNS_14adl_serializerEEEE6decodeERhRjh = comdat any

$_ZNSt5arrayIcLm512EEixEm = comdat any

$_ZNSt5arrayIcLm512EE4dataEv = comdat any

$_ZNKSt5arrayIcLm512EE4sizeEv = comdat any

$_ZNSt7__cxx1112basic_stringIcSt11char_traitsIcESaIcEEC2IS3_EEmcRKS3_ = comdat any

$_ZNSt7__cxx119to_stringEm = comdat any

$_ZN8nlohmann6detail13binary_writerINS_10basic_jsonISt3mapSt6vectorNSt7__cxx1112basic_stringIcSt11char_traitsIcESaIcEEEblmdSaNS_14adl_serializerEEEcE12to_char_typeIccLPv0EEEcT_ = comdat any

$_ZNSt14__array_traitsIcLm512EE6_S_ptrERA512_Kc = comdat any

$_ZNSt14__array_traitsIcLm512EE6_S_refERA512_Kcm = comdat any

$_ZNKSt5arrayIhLm400EEixEm = comdat any

$_ZNSt14__array_traitsIhLm400EE6_S_refERA400_Khm = comdat any

$_ZNKSt8_Rb_treeINSt7__cxx1112basic_stringIcSt11char_traitsIcESaIcEEESt4pairIKS5_N8nlohmann10basic_jsonISt3mapSt6vectorS5_blmdSaNS8_14adl_serializerEEEESt10_Select1stISE_ESt4lessIvESaISE_EE5beginEv = comdat any

$_ZNKSt19__shared_ptr_accessIN8nlohmann6detail23output_adapter_protocolIcEELN9__gnu_cxx12_Lock_policyE2ELb0ELb0EE6_M_getEv = comdat any

$_ZNKSt12__shared_ptrIN8nlohmann6detail23output_adapter_protocolIcEELN9__gnu_cxx12_Lock_policyE2EE3getEv = comdat any

$_ZNKSt8_Rb_treeINSt7__cxx1112basic_stringIcSt11char_traitsIcESaIcEEESt4pairIKS5_N8nlohmann10basic_jsonISt3mapSt6vectorS5_blmdSaNS8_14adl_serializerEEEESt10_Select1stISE_ESt4lessIvESaISE_EE5emptyEv = comdat any

$_ZNSt12__shared_ptrIN8nlohmann6detail23output_adapter_protocolIcEELN9__gnu_cxx12_Lock_policyE2EED2Ev = comdat any

$_ZNSt14__shared_countILN9__gnu_cxx12_Lock_policyE2EED2Ev = comdat any

$_ZNSt16_Sp_counted_baseILN9__gnu_cxx12_Lock_policyE2EE10_M_releaseEv = comdat any

$_ZNSt10shared_ptrIN8nlohmann6detail23output_adapter_protocolIcEEEC2EOS4_ = comdat any

$_ZNSt12__shared_ptrIN8nlohmann6detail23output_adapter_protocolIcEELN9__gnu_cxx12_Lock_policyE2EEC2EOS6_ = comdat any

$_ZNSt14__shared_countILN9__gnu_cxx12_Lock_policyE2EEC2Ev = comdat any

$_ZNSt14__shared_countILN9__gnu_cxx12_Lock_policyE2EE7_M_swapERS2_ = comdat any

$_ZNSt10shared_ptrIN8nlohmann6detail23output_adapter_protocolIcEEEC2ERKS4_ = comdat any

$_ZNSt12__shared_ptrIN8nlohmann6detail23output_adapter_protocolIcEELN9__gnu_cxx12_Lock_policyE2EEC2ERKS6_ = comdat any

$_ZNSt14__shared_countILN9__gnu_cxx12_Lock_policyE2EEC2ERKS2_ = comdat any

$_ZNSt16_Sp_counted_baseILN9__gnu_cxx12_Lock_policyE2EE15_M_add_ref_copyEv = comdat any

$_ZSt11make_sharedIN8nlohmann6detail21output_string_adapterIcNSt7__cxx1112basic_stringIcSt11char_traitsIcESaIcEEEEEJRS8_EESt10shared_ptrIT_EDpOT0_ = comdat any

$_ZNSt10shared_ptrIN8nlohmann6detail23output_adapter_protocolIcEEEC2INS1_21output_string_adapterIcNSt7__cxx1112basic_stringIcSt11char_traitsIcESaIcEEEEEvEEOS_IT_E = comdat any

$_ZNSt10shared_ptrIN8nlohmann6detail21output_string_adapterIcNSt7__cxx1112basic_stringIcSt11char_traitsIcESaIcEEEEEED2Ev = comdat any

$_ZNSt12__shared_ptrIN8nlohmann6detail21output_string_adapterIcNSt7__cxx1112basic_stringIcSt11char_traitsIcESaIcEEEEELN9__gnu_cxx12_Lock_policyE2EED2Ev = comdat any

$_ZNSt12__shared_ptrIN8nlohmann6detail23output_adapter_protocolIcEELN9__gnu_cxx12_Lock_policyE2EEC2INS1_21output_string_adapterIcNSt7__cxx1112basic_stringIcSt11char_traitsIcESaIcEEEEEvEEOS_IT_LS5_2EE = comdat any

$_ZNSaIN8nlohmann6detail21output_string_adapterIcNSt7__cxx1112basic_stringIcSt11char_traitsIcESaIcEEEEEEC2Ev = comdat any

$_ZSt15allocate_sharedIN8nlohmann6detail21output_string_adapterIcNSt7__cxx1112basic_stringIcSt11char_traitsIcESaIcEEEEESaIS9_EJRS8_EESt10shared_ptrIT_ERKT0_DpOT1_ = comdat any

$_ZNSaIN8nlohmann6detail21output_string_adapterIcNSt7__cxx1112basic_stringIcSt11char_traitsIcESaIcEEEEEED2Ev = comdat any

$_ZN9__gnu_cxx13new_allocatorIN8nlohmann6detail21output_string_adapterIcNSt7__cxx1112basic_stringIcSt11char_traitsIcESaIcEEEEEED2Ev = comdat any

$_ZNSt10shared_ptrIN8nlohmann6detail21output_string_adapterIcNSt7__cxx1112basic_stringIcSt11char_traitsIcESaIcEEEEEEC2ISaIS9_EJRS8_EEESt20_Sp_alloc_shared_tagIT_EDpOT0_ = comdat any

$_ZNSt12__shared_ptrIN8nlohmann6detail21output_string_adapterIcNSt7__cxx1112basic_stringIcSt11char_traitsIcESaIcEEEEELN9__gnu_cxx12_Lock_policyE2EEC2ISaIS9_EJRS8_EEESt20_Sp_alloc_shared_tagIT_EDpOT0_ = comdat any

$_ZNSt14__shared_countILN9__gnu_cxx12_Lock_policyE2EEC2IN8nlohmann6detail21output_string_adapterIcNSt7__cxx1112basic_stringIcSt11char_traitsIcESaIcEEEEESaISD_EJRSC_EEERPT_St20_Sp_alloc_shared_tagIT0_EDpOT1_ = comdat any

$_ZNSt12__shared_ptrIN8nlohmann6detail21output_string_adapterIcNSt7__cxx1112basic_stringIcSt11char_traitsIcESaIcEEEEELN9__gnu_cxx12_Lock_policyE2EE31_M_enable_shared_from_this_withIS9_S9_EENSt9enable_ifIXntsr15__has_esft_baseIT0_EE5valueEvE4typeEPT_ = comdat any

$_ZNSaISt23_Sp_counted_ptr_inplaceIN8nlohmann6detail21output_string_adapterIcNSt7__cxx1112basic_stringIcSt11char_traitsIcESaIcEEEEESaIS9_ELN9__gnu_cxx12_Lock_policyE2EEEC2IS9_EERKSaIT_E = comdat any

$_ZSt18__allocate_guardedISaISt23_Sp_counted_ptr_inplaceIN8nlohmann6detail21output_string_adapterIcNSt7__cxx1112basic_stringIcSt11char_traitsIcESaIcEEEEESaISA_ELN9__gnu_cxx12_Lock_policyE2EEEESt15__allocated_ptrIT_ERSH_ = comdat any

$_ZNSt15__allocated_ptrISaISt23_Sp_counted_ptr_inplaceIN8nlohmann6detail21output_string_adapterIcNSt7__cxx1112basic_stringIcSt11char_traitsIcESaIcEEEEESaISA_ELN9__gnu_cxx12_Lock_policyE2EEEE3getEv = comdat any

$_ZNSaIN8nlohmann6detail21output_string_adapterIcNSt7__cxx1112basic_stringIcSt11char_traitsIcESaIcEEEEEEC2ERKS9_ = comdat any

$_ZNSt23_Sp_counted_ptr_inplaceIN8nlohmann6detail21output_string_adapterIcNSt7__cxx1112basic_stringIcSt11char_traitsIcESaIcEEEEESaIS9_ELN9__gnu_cxx12_Lock_policyE2EEC2IJRS8_EEESA_DpOT_ = comdat any

$_ZNSt15__allocated_ptrISaISt23_Sp_counted_ptr_inplaceIN8nlohmann6detail21output_string_adapterIcNSt7__cxx1112basic_stringIcSt11char_traitsIcESaIcEEEEESaISA_ELN9__gnu_cxx12_Lock_policyE2EEEEaSEDn = comdat any

$_ZNSt23_Sp_counted_ptr_inplaceIN8nlohmann6detail21output_string_adapterIcNSt7__cxx1112basic_stringIcSt11char_traitsIcESaIcEEEEESaIS9_ELN9__gnu_cxx12_Lock_policyE2EE6_M_ptrEv = comdat any

$_ZNSt15__allocated_ptrISaISt23_Sp_counted_ptr_inplaceIN8nlohmann6detail21output_string_adapterIcNSt7__cxx1112basic_stringIcSt11char_traitsIcESaIcEEEEESaISA_ELN9__gnu_cxx12_Lock_policyE2EEEED2Ev = comdat any

$_ZNSaISt23_Sp_counted_ptr_inplaceIN8nlohmann6detail21output_string_adapterIcNSt7__cxx1112basic_stringIcSt11char_traitsIcESaIcEEEEESaIS9_ELN9__gnu_cxx12_Lock_policyE2EEED2Ev = comdat any

$_ZN9__gnu_cxx13new_allocatorISt23_Sp_counted_ptr_inplaceIN8nlohmann6detail21output_string_adapterIcNSt7__cxx1112basic_stringIcSt11char_traitsIcESaIcEEEEESaISB_ELNS_12_Lock_policyE2EEED2Ev = comdat any

$_ZNSt16allocator_traitsISaISt23_Sp_counted_ptr_inplaceIN8nlohmann6detail21output_string_adapterIcNSt7__cxx1112basic_stringIcSt11char_traitsIcESaIcEEEEESaISA_ELN9__gnu_cxx12_Lock_policyE2EEEE10deallocateERSF_PSE_m = comdat any

$_ZN9__gnu_cxx13new_allocatorISt23_Sp_counted_ptr_inplaceIN8nlohmann6detail21output_string_adapterIcNSt7__cxx1112basic_stringIcSt11char_traitsIcESaIcEEEEESaISB_ELNS_12_Lock_policyE2EEE10deallocateEPSE_m = comdat any

$_ZN9__gnu_cxx16__aligned_bufferIN8nlohmann6detail21output_string_adapterIcNSt7__cxx1112basic_stringIcSt11char_traitsIcESaIcEEEEEE6_M_ptrEv = comdat any

$_ZN9__gnu_cxx16__aligned_bufferIN8nlohmann6detail21output_string_adapterIcNSt7__cxx1112basic_stringIcSt11char_traitsIcESaIcEEEEEE7_M_addrEv = comdat any

$_ZNSt16_Sp_counted_baseILN9__gnu_cxx12_Lock_policyE2EEC2Ev = comdat any

$_ZNSt23_Sp_counted_ptr_inplaceIN8nlohmann6detail21output_string_adapterIcNSt7__cxx1112basic_stringIcSt11char_traitsIcESaIcEEEEESaIS9_ELN9__gnu_cxx12_Lock_policyE2EE5_ImplC2ESA_ = comdat any

$_ZNSt16allocator_traitsISaIN8nlohmann6detail21output_string_adapterIcNSt7__cxx1112basic_stringIcSt11char_traitsIcESaIcEEEEEEE9constructIS9_JRS8_EEEvRSA_PT_DpOT0_ = comdat any

$_ZN9__gnu_cxx13new_allocatorIN8nlohmann6detail21output_string_adapterIcNSt7__cxx1112basic_stringIcSt11char_traitsIcESaIcEEEEEE9constructISA_JRS9_EEEvPT_DpOT0_ = comdat any

$_ZN8nlohmann6detail21output_string_adapterIcNSt7__cxx1112basic_stringIcSt11char_traitsIcESaIcEEEEC2ERS7_ = comdat any

$_ZN8nlohmann6detail23output_adapter_protocolIcEC2Ev = comdat any

$_ZN8nlohmann6detail21output_string_adapterIcNSt7__cxx1112basic_stringIcSt11char_traitsIcESaIcEEEE15write_characterEc = comdat any

$_ZN8nlohmann6detail21output_string_adapterIcNSt7__cxx1112basic_stringIcSt11char_traitsIcESaIcEEEE16write_charactersEPKcm = comdat any

$_ZN8nlohmann6detail21output_string_adapterIcNSt7__cxx1112basic_stringIcSt11char_traitsIcESaIcEEEED2Ev = comdat any

$_ZN8nlohmann6detail21output_string_adapterIcNSt7__cxx1112basic_stringIcSt11char_traitsIcESaIcEEEED0Ev = comdat any

$_ZN8nlohmann6detail23output_adapter_protocolIcED2Ev = comdat any

$_ZN8nlohmann6detail23output_adapter_protocolIcED0Ev = comdat any

$_ZNSt14_Sp_ebo_helperILi0ESaIN8nlohmann6detail21output_string_adapterIcNSt7__cxx1112basic_stringIcSt11char_traitsIcESaIcEEEEEELb1EEC2ERKSA_ = comdat any

$_ZNSt23_Sp_counted_ptr_inplaceIN8nlohmann6detail21output_string_adapterIcNSt7__cxx1112basic_stringIcSt11char_traitsIcESaIcEEEEESaIS9_ELN9__gnu_cxx12_Lock_policyE2EED2Ev = comdat any

$_ZNSt23_Sp_counted_ptr_inplaceIN8nlohmann6detail21output_string_adapterIcNSt7__cxx1112basic_stringIcSt11char_traitsIcESaIcEEEEESaIS9_ELN9__gnu_cxx12_Lock_policyE2EED0Ev = comdat any

$_ZNSt23_Sp_counted_ptr_inplaceIN8nlohmann6detail21output_string_adapterIcNSt7__cxx1112basic_stringIcSt11char_traitsIcESaIcEEEEESaIS9_ELN9__gnu_cxx12_Lock_policyE2EE10_M_disposeEv = comdat any

$_ZNSt23_Sp_counted_ptr_inplaceIN8nlohmann6detail21output_string_adapterIcNSt7__cxx1112basic_stringIcSt11char_traitsIcESaIcEEEEESaIS9_ELN9__gnu_cxx12_Lock_policyE2EE10_M_destroyEv = comdat any

$_ZNSt23_Sp_counted_ptr_inplaceIN8nlohmann6detail21output_string_adapterIcNSt7__cxx1112basic_stringIcSt11char_traitsIcESaIcEEEEESaIS9_ELN9__gnu_cxx12_Lock_policyE2EE14_M_get_deleterERKSt9type_info = comdat any

$_ZNSt19_Sp_make_shared_tag5_S_tiEv = comdat any

$_ZNKSt9type_infoeqERKS_ = comdat any

$_ZNSt23_Sp_counted_ptr_inplaceIN8nlohmann6detail21output_string_adapterIcNSt7__cxx1112basic_stringIcSt11char_traitsIcESaIcEEEEESaIS9_ELN9__gnu_cxx12_Lock_policyE2EE5_Impl8_M_allocEv = comdat any

$_ZNSt15__allocated_ptrISaISt23_Sp_counted_ptr_inplaceIN8nlohmann6detail21output_string_adapterIcNSt7__cxx1112basic_stringIcSt11char_traitsIcESaIcEEEEESaISA_ELN9__gnu_cxx12_Lock_policyE2EEEEC2ERSF_PSE_ = comdat any

$_ZNSt14_Sp_ebo_helperILi0ESaIN8nlohmann6detail21output_string_adapterIcNSt7__cxx1112basic_stringIcSt11char_traitsIcESaIcEEEEEELb1EE6_S_getERSB_ = comdat any

$_ZNSt16allocator_traitsISaIN8nlohmann6detail21output_string_adapterIcNSt7__cxx1112basic_stringIcSt11char_traitsIcESaIcEEEEEEE7destroyIS9_EEvRSA_PT_ = comdat any

$_ZN9__gnu_cxx13new_allocatorIN8nlohmann6detail21output_string_adapterIcNSt7__cxx1112basic_stringIcSt11char_traitsIcESaIcEEEEEE7destroyISA_EEvPT_ = comdat any

$_ZNSt23_Sp_counted_ptr_inplaceIN8nlohmann6detail21output_string_adapterIcNSt7__cxx1112basic_stringIcSt11char_traitsIcESaIcEEEEESaIS9_ELN9__gnu_cxx12_Lock_policyE2EE5_ImplD2Ev = comdat any

$_ZNSt16_Sp_counted_baseILN9__gnu_cxx12_Lock_policyE2EED2Ev = comdat any

$_ZNSt14_Sp_ebo_helperILi0ESaIN8nlohmann6detail21output_string_adapterIcNSt7__cxx1112basic_stringIcSt11char_traitsIcESaIcEEEEEELb1EED2Ev = comdat any

$_ZNSt16_Sp_counted_baseILN9__gnu_cxx12_Lock_policyE2EED0Ev = comdat any

$_ZNSt16_Sp_counted_baseILN9__gnu_cxx12_Lock_policyE2EE10_M_destroyEv = comdat any

$_ZN9__gnu_cxx13new_allocatorIN8nlohmann6detail21output_string_adapterIcNSt7__cxx1112basic_stringIcSt11char_traitsIcESaIcEEEEEEC2ERKSB_ = comdat any

$_ZSt12__to_addressISt23_Sp_counted_ptr_inplaceIN8nlohmann6detail21output_string_adapterIcNSt7__cxx1112basic_stringIcSt11char_traitsIcESaIcEEEEESaISA_ELN9__gnu_cxx12_Lock_policyE2EEEPT_SG_ = comdat any

$_ZNSt16allocator_traitsISaISt23_Sp_counted_ptr_inplaceIN8nlohmann6detail21output_string_adapterIcNSt7__cxx1112basic_stringIcSt11char_traitsIcESaIcEEEEESaISA_ELN9__gnu_cxx12_Lock_policyE2EEEE8allocateERSF_m = comdat any

$_ZN9__gnu_cxx13new_allocatorISt23_Sp_counted_ptr_inplaceIN8nlohmann6detail21output_string_adapterIcNSt7__cxx1112basic_stringIcSt11char_traitsIcESaIcEEEEESaISB_ELNS_12_Lock_policyE2EEE8allocateEmPKv = comdat any

$_ZNK9__gnu_cxx13new_allocatorISt23_Sp_counted_ptr_inplaceIN8nlohmann6detail21output_string_adapterIcNSt7__cxx1112basic_stringIcSt11char_traitsIcESaIcEEEEESaISB_ELNS_12_Lock_policyE2EEE8max_sizeEv = comdat any

$_ZN9__gnu_cxx13new_allocatorISt23_Sp_counted_ptr_inplaceIN8nlohmann6detail21output_string_adapterIcNSt7__cxx1112basic_stringIcSt11char_traitsIcESaIcEEEEESaISB_ELNS_12_Lock_policyE2EEEC2Ev = comdat any

$_ZN9__gnu_cxx13new_allocatorIN8nlohmann6detail21output_string_adapterIcNSt7__cxx1112basic_stringIcSt11char_traitsIcESaIcEEEEEEC2Ev = comdat any

$_ZN8nlohmann14adl_serializerI7jsonMsgvE7to_jsonINS_10basic_jsonISt3mapSt6vectorNSt7__cxx1112basic_stringIcSt11char_traitsIcESaIcEEEblmdSaS0_EERS1_EEDTcmclL_ZNS_12_GLOBAL__N_17to_jsonEEfp_clsr3stdE7forwardIT0_Efp0_EEcvv_EERT_OSG_ = comdat any

$_ZNK8nlohmann6detail10to_json_fnclINS_10basic_jsonISt3mapSt6vectorNSt7__cxx1112basic_stringIcSt11char_traitsIcESaIcEEEblmdSaNS_14adl_serializerEEER7jsonMsgEEDTcmcl7to_jsonfp_clsr3stdE7forwardIT0_Efp0_EEcvv_EERT_OSG_ = comdat any

$_ZN6OutputC2Ev = comdat any

$_ZN6OutputD2Ev = comdat any

$_ZNSaI9ThreadArgEC2Ev = comdat any

$_ZNSt6vectorI9ThreadArgSaIS0_EEC2EmRKS1_ = comdat any

$_ZNSaI9ThreadArgED2Ev = comdat any

$_ZNSt6vectorI9ThreadArgSaIS0_EEixEm = comdat any

$_ZNSt6vectorI9ThreadArgSaIS0_EED2Ev = comdat any

$_ZNSt12_Vector_baseI9ThreadArgSaIS0_EE19_M_get_Tp_allocatorEv = comdat any

$_ZSt8_DestroyIP9ThreadArgS0_EvT_S2_RSaIT0_E = comdat any

$_ZNSt12_Vector_baseI9ThreadArgSaIS0_EED2Ev = comdat any

$_ZNSt12_Vector_baseI9ThreadArgSaIS0_EE13_M_deallocateEPS0_m = comdat any

$_ZNSt12_Vector_baseI9ThreadArgSaIS0_EE12_Vector_implD2Ev = comdat any

$_ZNSt16allocator_traitsISaI9ThreadArgEE10deallocateERS1_PS0_m = comdat any

$_ZN9__gnu_cxx13new_allocatorI9ThreadArgE10deallocateEPS1_m = comdat any

$_ZSt8_DestroyIP9ThreadArgEvT_S2_ = comdat any

$_ZNSt12_Destroy_auxILb0EE9__destroyIP9ThreadArgEEvT_S4_ = comdat any

$_ZSt8_DestroyI9ThreadArgEvPT_ = comdat any

$_ZN9ThreadArgD2Ev = comdat any

$_ZN9__gnu_cxx13new_allocatorI9ThreadArgED2Ev = comdat any

$_ZNSt6vectorI9ThreadArgSaIS0_EE17_S_check_init_lenEmRKS1_ = comdat any

$_ZNSt12_Vector_baseI9ThreadArgSaIS0_EEC2EmRKS1_ = comdat any

$_ZNSt6vectorI9ThreadArgSaIS0_EE21_M_default_initializeEm = comdat any

$_ZSt27__uninitialized_default_n_aIP9ThreadArgmS0_ET_S2_T0_RSaIT1_E = comdat any

$_ZSt25__uninitialized_default_nIP9ThreadArgmET_S2_T0_ = comdat any

$_ZNSt27__uninitialized_default_n_1ILb0EE18__uninit_default_nIP9ThreadArgmEET_S4_T0_ = comdat any

$_ZSt10_ConstructI9ThreadArgJEEvPT_DpOT0_ = comdat any

$_ZN9ThreadArgC2Ev = comdat any

$_ZNSt12_Vector_baseI9ThreadArgSaIS0_EE12_Vector_implC2ERKS1_ = comdat any

$_ZNSt12_Vector_baseI9ThreadArgSaIS0_EE17_M_create_storageEm = comdat any

$_ZNSt12_Vector_baseI9ThreadArgSaIS0_EE11_M_allocateEm = comdat any

$_ZNSt16allocator_traitsISaI9ThreadArgEE8allocateERS1_m = comdat any

$_ZN9__gnu_cxx13new_allocatorI9ThreadArgE8allocateEmPKv = comdat any

$_ZNK9__gnu_cxx13new_allocatorI9ThreadArgE8max_sizeEv = comdat any

$_ZNSaI9ThreadArgEC2ERKS0_ = comdat any

$_ZNSt12_Vector_baseI9ThreadArgSaIS0_EE17_Vector_impl_dataC2Ev = comdat any

$_ZN9__gnu_cxx13new_allocatorI9ThreadArgEC2ERKS2_ = comdat any

$_ZNSt6vectorI9ThreadArgSaIS0_EE11_S_max_sizeERKS1_ = comdat any

$_ZNSt16allocator_traitsISaI9ThreadArgEE8max_sizeERKS1_ = comdat any

$_ZN9__gnu_cxx13new_allocatorI9ThreadArgEC2Ev = comdat any

$_ZTVSt23_Sp_counted_ptr_inplaceIN8nlohmann6detail21output_string_adapterIcNSt7__cxx1112basic_stringIcSt11char_traitsIcESaIcEEEEESaIS9_ELN9__gnu_cxx12_Lock_policyE2EE = comdat any

$_ZTSSt23_Sp_counted_ptr_inplaceIN8nlohmann6detail21output_string_adapterIcNSt7__cxx1112basic_stringIcSt11char_traitsIcESaIcEEEEESaIS9_ELN9__gnu_cxx12_Lock_policyE2EE = comdat any

$_ZTSSt16_Sp_counted_baseILN9__gnu_cxx12_Lock_policyE2EE = comdat any

$_ZTSSt11_Mutex_baseILN9__gnu_cxx12_Lock_policyE2EE = comdat any

$_ZTISt11_Mutex_baseILN9__gnu_cxx12_Lock_policyE2EE = comdat any

$_ZTISt16_Sp_counted_baseILN9__gnu_cxx12_Lock_policyE2EE = comdat any

$_ZTISt23_Sp_counted_ptr_inplaceIN8nlohmann6detail21output_string_adapterIcNSt7__cxx1112basic_stringIcSt11char_traitsIcESaIcEEEEESaIS9_ELN9__gnu_cxx12_Lock_policyE2EE = comdat any

$_ZTVSt16_Sp_counted_baseILN9__gnu_cxx12_Lock_policyE2EE = comdat any

$_ZTVN8nlohmann6detail21output_string_adapterIcNSt7__cxx1112basic_stringIcSt11char_traitsIcESaIcEEEEE = comdat any

$_ZTSN8nlohmann6detail21output_string_adapterIcNSt7__cxx1112basic_stringIcSt11char_traitsIcESaIcEEEEE = comdat any

$_ZTSN8nlohmann6detail23output_adapter_protocolIcEE = comdat any

$_ZTIN8nlohmann6detail23output_adapter_protocolIcEE = comdat any

$_ZTIN8nlohmann6detail21output_string_adapterIcNSt7__cxx1112basic_stringIcSt11char_traitsIcESaIcEEEEE = comdat any

$_ZTVN8nlohmann6detail23output_adapter_protocolIcEE = comdat any

$_ZTSSt19_Sp_make_shared_tag = comdat any

$_ZTISt19_Sp_make_shared_tag = comdat any

$_ZZNSt19_Sp_make_shared_tag5_S_tiEvE5__tag = comdat any

$_ZTSN8nlohmann6detail10type_errorE = comdat any

$_ZTSN8nlohmann6detail9exceptionE = comdat any

$_ZTIN8nlohmann6detail9exceptionE = comdat any

$_ZTIN8nlohmann6detail10type_errorE = comdat any

$_ZZN8nlohmann6detail10serializerINS_10basic_jsonISt3mapSt6vectorNSt7__cxx1112basic_stringIcSt11char_traitsIcESaIcEEEblmdSaNS_14adl_serializerEEEE6decodeERhRjhE5utf8d = comdat any

$_ZTVN8nlohmann6detail10type_errorE = comdat any

$_ZTVN8nlohmann6detail9exceptionE = comdat any

$_ZZN8nlohmann6detail10serializerINS_10basic_jsonISt3mapSt6vectorNSt7__cxx1112basic_stringIcSt11char_traitsIcESaIcEEEblmdSaNS_14adl_serializerEEEE12dump_integerIlLi0EEEvT_E12digits_to_99 = comdat any

$_ZZN8nlohmann6detail10serializerINS_10basic_jsonISt3mapSt6vectorNSt7__cxx1112basic_stringIcSt11char_traitsIcESaIcEEEblmdSaNS_14adl_serializerEEEE12dump_integerImLi0EEEvT_E12digits_to_99 = comdat any

$_ZZN8nlohmann6detail9dtoa_impl36get_cached_power_for_binary_exponentEiE13kCachedPowers = comdat any

$_ZN8nlohmann6detail12static_constINS0_10to_json_fnEE5valueE = comdat any

$_ZTSN8nlohmann6detail11other_errorE = comdat any

$_ZTIN8nlohmann6detail11other_errorE = comdat any

$_ZTVN8nlohmann6detail11other_errorE = comdat any

@llvm.global_ctors = appending global [1 x { i32, ptr, ptr }] [{ i32, ptr, ptr } { i32 65535, ptr @_GLOBAL__sub_I_function.cpp, ptr null }]
@_ZStL8__ioinit = internal global %"class.std::ios_base::Init" zeroinitializer, align 1
@__dso_handle = external hidden global i8
@.str = private unnamed_addr constant [4 x i8] c"msg\00", align 1
@.str.1 = private unnamed_addr constant [4 x i8] c"err\00", align 1
@.str.2 = private unnamed_addr constant [1 x i8] zeroinitializer, align 1
@.str.3 = private unnamed_addr constant [4 x i8] c"%s\0A\00", align 1
@stderr = external global ptr, align 8
@.str.4 = private unnamed_addr constant [25 x i8] c"curl_global_init failed\0A\00", align 1
@.str.5 = private unnamed_addr constant [44 x i8] c"http://router.fission.svc.cluster.local:80/\00", align 1
@.str.6 = private unnamed_addr constant [32 x i8] c"curl_easy_perform() failed: %s\0A\00", align 1
@__const._Z22generate_random_stringPcm.charset = private unnamed_addr constant [63 x i8] c"ABCDEFGHIJKLMNOPQRSTUVWXYZabcdefghijklmnopqrstuvwxyz0123456789\00", align 16
@.str.7 = private unnamed_addr constant [31 x i8] c"Error generating random bytes\0A\00", align 1
@.str.8 = private unnamed_addr constant [9 x i8] c"c-callee\00", align 1
@.str.9 = private unnamed_addr constant [24 x i8] c"Failed to create thread\00", align 1
@.str.10 = private unnamed_addr constant [42 x i8] c"basic_string::_M_construct null not valid\00", align 1
@_ZTVSt23_Sp_counted_ptr_inplaceIN8nlohmann6detail21output_string_adapterIcNSt7__cxx1112basic_stringIcSt11char_traitsIcESaIcEEEEESaIS9_ELN9__gnu_cxx12_Lock_policyE2EE = linkonce_odr dso_local unnamed_addr constant { [7 x ptr] } { [7 x ptr] [ptr null, ptr @_ZTISt23_Sp_counted_ptr_inplaceIN8nlohmann6detail21output_string_adapterIcNSt7__cxx1112basic_stringIcSt11char_traitsIcESaIcEEEEESaIS9_ELN9__gnu_cxx12_Lock_policyE2EE, ptr @_ZNSt23_Sp_counted_ptr_inplaceIN8nlohmann6detail21output_string_adapterIcNSt7__cxx1112basic_stringIcSt11char_traitsIcESaIcEEEEESaIS9_ELN9__gnu_cxx12_Lock_policyE2EED2Ev, ptr @_ZNSt23_Sp_counted_ptr_inplaceIN8nlohmann6detail21output_string_adapterIcNSt7__cxx1112basic_stringIcSt11char_traitsIcESaIcEEEEESaIS9_ELN9__gnu_cxx12_Lock_policyE2EED0Ev, ptr @_ZNSt23_Sp_counted_ptr_inplaceIN8nlohmann6detail21output_string_adapterIcNSt7__cxx1112basic_stringIcSt11char_traitsIcESaIcEEEEESaIS9_ELN9__gnu_cxx12_Lock_policyE2EE10_M_disposeEv, ptr @_ZNSt23_Sp_counted_ptr_inplaceIN8nlohmann6detail21output_string_adapterIcNSt7__cxx1112basic_stringIcSt11char_traitsIcESaIcEEEEESaIS9_ELN9__gnu_cxx12_Lock_policyE2EE10_M_destroyEv, ptr @_ZNSt23_Sp_counted_ptr_inplaceIN8nlohmann6detail21output_string_adapterIcNSt7__cxx1112basic_stringIcSt11char_traitsIcESaIcEEEEESaIS9_ELN9__gnu_cxx12_Lock_policyE2EE14_M_get_deleterERKSt9type_info] }, comdat, align 8
@_ZTVN10__cxxabiv120__si_class_type_infoE = external global ptr
@_ZTSSt23_Sp_counted_ptr_inplaceIN8nlohmann6detail21output_string_adapterIcNSt7__cxx1112basic_stringIcSt11char_traitsIcESaIcEEEEESaIS9_ELN9__gnu_cxx12_Lock_policyE2EE = linkonce_odr dso_local constant [162 x i8] c"St23_Sp_counted_ptr_inplaceIN8nlohmann6detail21output_string_adapterIcNSt7__cxx1112basic_stringIcSt11char_traitsIcESaIcEEEEESaIS9_ELN9__gnu_cxx12_Lock_policyE2EE\00", comdat, align 1
@_ZTSSt16_Sp_counted_baseILN9__gnu_cxx12_Lock_policyE2EE = linkonce_odr dso_local constant [52 x i8] c"St16_Sp_counted_baseILN9__gnu_cxx12_Lock_policyE2EE\00", comdat, align 1
@_ZTVN10__cxxabiv117__class_type_infoE = external global ptr
@_ZTSSt11_Mutex_baseILN9__gnu_cxx12_Lock_policyE2EE = linkonce_odr dso_local constant [47 x i8] c"St11_Mutex_baseILN9__gnu_cxx12_Lock_policyE2EE\00", comdat, align 1
@_ZTISt11_Mutex_baseILN9__gnu_cxx12_Lock_policyE2EE = linkonce_odr dso_local constant { ptr, ptr } { ptr getelementptr inbounds (ptr, ptr @_ZTVN10__cxxabiv117__class_type_infoE, i64 2), ptr @_ZTSSt11_Mutex_baseILN9__gnu_cxx12_Lock_policyE2EE }, comdat, align 8
@_ZTISt16_Sp_counted_baseILN9__gnu_cxx12_Lock_policyE2EE = linkonce_odr dso_local constant { ptr, ptr, ptr } { ptr getelementptr inbounds (ptr, ptr @_ZTVN10__cxxabiv120__si_class_type_infoE, i64 2), ptr @_ZTSSt16_Sp_counted_baseILN9__gnu_cxx12_Lock_policyE2EE, ptr @_ZTISt11_Mutex_baseILN9__gnu_cxx12_Lock_policyE2EE }, comdat, align 8
@_ZTISt23_Sp_counted_ptr_inplaceIN8nlohmann6detail21output_string_adapterIcNSt7__cxx1112basic_stringIcSt11char_traitsIcESaIcEEEEESaIS9_ELN9__gnu_cxx12_Lock_policyE2EE = linkonce_odr dso_local constant { ptr, ptr, ptr } { ptr getelementptr inbounds (ptr, ptr @_ZTVN10__cxxabiv120__si_class_type_infoE, i64 2), ptr @_ZTSSt23_Sp_counted_ptr_inplaceIN8nlohmann6detail21output_string_adapterIcNSt7__cxx1112basic_stringIcSt11char_traitsIcESaIcEEEEESaIS9_ELN9__gnu_cxx12_Lock_policyE2EE, ptr @_ZTISt16_Sp_counted_baseILN9__gnu_cxx12_Lock_policyE2EE }, comdat, align 8
@_ZTVSt16_Sp_counted_baseILN9__gnu_cxx12_Lock_policyE2EE = linkonce_odr dso_local unnamed_addr constant { [7 x ptr] } { [7 x ptr] [ptr null, ptr @_ZTISt16_Sp_counted_baseILN9__gnu_cxx12_Lock_policyE2EE, ptr @_ZNSt16_Sp_counted_baseILN9__gnu_cxx12_Lock_policyE2EED2Ev, ptr @_ZNSt16_Sp_counted_baseILN9__gnu_cxx12_Lock_policyE2EED0Ev, ptr @__cxa_pure_virtual, ptr @_ZNSt16_Sp_counted_baseILN9__gnu_cxx12_Lock_policyE2EE10_M_destroyEv, ptr @__cxa_pure_virtual] }, comdat, align 8
@_ZTVN8nlohmann6detail21output_string_adapterIcNSt7__cxx1112basic_stringIcSt11char_traitsIcESaIcEEEEE = linkonce_odr dso_local unnamed_addr constant { [6 x ptr] } { [6 x ptr] [ptr null, ptr @_ZTIN8nlohmann6detail21output_string_adapterIcNSt7__cxx1112basic_stringIcSt11char_traitsIcESaIcEEEEE, ptr @_ZN8nlohmann6detail21output_string_adapterIcNSt7__cxx1112basic_stringIcSt11char_traitsIcESaIcEEEE15write_characterEc, ptr @_ZN8nlohmann6detail21output_string_adapterIcNSt7__cxx1112basic_stringIcSt11char_traitsIcESaIcEEEE16write_charactersEPKcm, ptr @_ZN8nlohmann6detail21output_string_adapterIcNSt7__cxx1112basic_stringIcSt11char_traitsIcESaIcEEEED2Ev, ptr @_ZN8nlohmann6detail21output_string_adapterIcNSt7__cxx1112basic_stringIcSt11char_traitsIcESaIcEEEED0Ev] }, comdat, align 8
@_ZTSN8nlohmann6detail21output_string_adapterIcNSt7__cxx1112basic_stringIcSt11char_traitsIcESaIcEEEEE = linkonce_odr dso_local constant [97 x i8] c"N8nlohmann6detail21output_string_adapterIcNSt7__cxx1112basic_stringIcSt11char_traitsIcESaIcEEEEE\00", comdat, align 1
@_ZTSN8nlohmann6detail23output_adapter_protocolIcEE = linkonce_odr dso_local constant [47 x i8] c"N8nlohmann6detail23output_adapter_protocolIcEE\00", comdat, align 1
@_ZTIN8nlohmann6detail23output_adapter_protocolIcEE = linkonce_odr dso_local constant { ptr, ptr } { ptr getelementptr inbounds (ptr, ptr @_ZTVN10__cxxabiv117__class_type_infoE, i64 2), ptr @_ZTSN8nlohmann6detail23output_adapter_protocolIcEE }, comdat, align 8
@_ZTIN8nlohmann6detail21output_string_adapterIcNSt7__cxx1112basic_stringIcSt11char_traitsIcESaIcEEEEE = linkonce_odr dso_local constant { ptr, ptr, ptr } { ptr getelementptr inbounds (ptr, ptr @_ZTVN10__cxxabiv120__si_class_type_infoE, i64 2), ptr @_ZTSN8nlohmann6detail21output_string_adapterIcNSt7__cxx1112basic_stringIcSt11char_traitsIcESaIcEEEEE, ptr @_ZTIN8nlohmann6detail23output_adapter_protocolIcEE }, comdat, align 8
@_ZTVN8nlohmann6detail23output_adapter_protocolIcEE = linkonce_odr dso_local unnamed_addr constant { [6 x ptr] } { [6 x ptr] [ptr null, ptr @_ZTIN8nlohmann6detail23output_adapter_protocolIcEE, ptr @__cxa_pure_virtual, ptr @__cxa_pure_virtual, ptr @_ZN8nlohmann6detail23output_adapter_protocolIcED2Ev, ptr @_ZN8nlohmann6detail23output_adapter_protocolIcED0Ev] }, comdat, align 8
@_ZTSSt19_Sp_make_shared_tag = linkonce_odr dso_local constant [24 x i8] c"St19_Sp_make_shared_tag\00", comdat, align 1
@_ZTISt19_Sp_make_shared_tag = linkonce_odr dso_local constant { ptr, ptr } { ptr getelementptr inbounds (ptr, ptr @_ZTVN10__cxxabiv117__class_type_infoE, i64 2), ptr @_ZTSSt19_Sp_make_shared_tag }, comdat, align 8
@_ZZNSt19_Sp_make_shared_tag5_S_tiEvE5__tag = linkonce_odr dso_local constant [16 x i8] zeroinitializer, comdat, align 8
@.str.11 = private unnamed_addr constant [3 x i8] c"{}\00", align 1
@.str.12 = private unnamed_addr constant [3 x i8] c"{\0A\00", align 1
@.str.13 = private unnamed_addr constant [4 x i8] c"\22: \00", align 1
@.str.14 = private unnamed_addr constant [3 x i8] c",\0A\00", align 1
@.str.15 = private unnamed_addr constant [32 x i8] c"i != val.m_value.object->cend()\00", align 1
@.str.16 = private unnamed_addr constant [51 x i8] c"/usr/include/nlohmann/detail/output/serializer.hpp\00", align 1
@__PRETTY_FUNCTION__._ZN8nlohmann6detail10serializerINS_10basic_jsonISt3mapSt6vectorNSt7__cxx1112basic_stringIcSt11char_traitsIcESaIcEEEblmdSaNS_14adl_serializerEEEE4dumpERKSC_bbjj = private unnamed_addr constant [192 x i8] c"void nlohmann::detail::serializer<nlohmann::basic_json<>>::dump(const BasicJsonType &, const bool, const bool, const unsigned int, const unsigned int) [BasicJsonType = nlohmann::basic_json<>]\00", align 1
@.str.17 = private unnamed_addr constant [43 x i8] c"std::next(i) == val.m_value.object->cend()\00", align 1
@.str.18 = private unnamed_addr constant [3 x i8] c"\22:\00", align 1
@.str.19 = private unnamed_addr constant [3 x i8] c"[]\00", align 1
@.str.20 = private unnamed_addr constant [3 x i8] c"[\0A\00", align 1
@.str.21 = private unnamed_addr constant [31 x i8] c"not val.m_value.array->empty()\00", align 1
@.str.22 = private unnamed_addr constant [5 x i8] c"true\00", align 1
@.str.23 = private unnamed_addr constant [6 x i8] c"false\00", align 1
@.str.24 = private unnamed_addr constant [12 x i8] c"<discarded>\00", align 1
@.str.25 = private unnamed_addr constant [5 x i8] c"null\00", align 1
@.str.26 = private unnamed_addr constant [7 x i8] c"\\u%04x\00", align 1
@.str.27 = private unnamed_addr constant [13 x i8] c"\\u%04x\\u%04x\00", align 1
@.str.28 = private unnamed_addr constant [5 x i8] c"%.2X\00", align 1
@.str.29 = private unnamed_addr constant [29 x i8] c"invalid UTF-8 byte at index \00", align 1
@.str.30 = private unnamed_addr constant [5 x i8] c": 0x\00", align 1
@_ZTSN8nlohmann6detail10type_errorE = linkonce_odr dso_local constant [31 x i8] c"N8nlohmann6detail10type_errorE\00", comdat, align 1
@_ZTSN8nlohmann6detail9exceptionE = linkonce_odr dso_local constant [29 x i8] c"N8nlohmann6detail9exceptionE\00", comdat, align 1
@_ZTISt9exception = external constant ptr
@_ZTIN8nlohmann6detail9exceptionE = linkonce_odr dso_local constant { ptr, ptr, ptr } { ptr getelementptr inbounds (ptr, ptr @_ZTVN10__cxxabiv120__si_class_type_infoE, i64 2), ptr @_ZTSN8nlohmann6detail9exceptionE, ptr @_ZTISt9exception }, comdat, align 8
@_ZTIN8nlohmann6detail10type_errorE = linkonce_odr dso_local constant { ptr, ptr, ptr } { ptr getelementptr inbounds (ptr, ptr @_ZTVN10__cxxabiv120__si_class_type_infoE, i64 2), ptr @_ZTSN8nlohmann6detail10type_errorE, ptr @_ZTIN8nlohmann6detail9exceptionE }, comdat, align 8
@__PRETTY_FUNCTION__._ZN8nlohmann6detail10serializerINS_10basic_jsonISt3mapSt6vectorNSt7__cxx1112basic_stringIcSt11char_traitsIcESaIcEEEblmdSaNS_14adl_serializerEEEE12dump_escapedERKSA_b = private unnamed_addr constant [143 x i8] c"void nlohmann::detail::serializer<nlohmann::basic_json<>>::dump_escaped(const string_t &, const bool) [BasicJsonType = nlohmann::basic_json<>]\00", align 1
@.str.31 = private unnamed_addr constant [39 x i8] c"incomplete UTF-8 string; last byte: 0x\00", align 1
@.str.32 = private unnamed_addr constant [7 x i8] c"\\ufffd\00", align 1
@.str.33 = private unnamed_addr constant [4 x i8] c"\EF\BF\BD\00", align 1
@_ZZN8nlohmann6detail10serializerINS_10basic_jsonISt3mapSt6vectorNSt7__cxx1112basic_stringIcSt11char_traitsIcESaIcEEEblmdSaNS_14adl_serializerEEEE6decodeERhRjhE5utf8d = linkonce_odr dso_local constant %"struct.std::array.22" { [400 x i8] c"\00\00\00\00\00\00\00\00\00\00\00\00\00\00\00\00\00\00\00\00\00\00\00\00\00\00\00\00\00\00\00\00\00\00\00\00\00\00\00\00\00\00\00\00\00\00\00\00\00\00\00\00\00\00\00\00\00\00\00\00\00\00\00\00\00\00\00\00\00\00\00\00\00\00\00\00\00\00\00\00\00\00\00\00\00\00\00\00\00\00\00\00\00\00\00\00\00\00\00\00\00\00\00\00\00\00\00\00\00\00\00\00\00\00\00\00\00\00\00\00\00\00\00\00\00\00\00\00\01\01\01\01\01\01\01\01\01\01\01\01\01\01\01\01\09\09\09\09\09\09\09\09\09\09\09\09\09\09\09\09\07\07\07\07\07\07\07\07\07\07\07\07\07\07\07\07\07\07\07\07\07\07\07\07\07\07\07\07\07\07\07\07\08\08\02\02\02\02\02\02\02\02\02\02\02\02\02\02\02\02\02\02\02\02\02\02\02\02\02\02\02\02\02\02\0A\03\03\03\03\03\03\03\03\03\03\03\03\04\03\03\0B\06\06\06\05\08\08\08\08\08\08\08\08\08\08\08\00\01\02\03\05\08\07\01\01\01\04\06\01\01\01\01\01\01\01\01\01\01\01\01\01\01\01\01\01\01\01\01\01\00\01\01\01\01\01\00\01\00\01\01\01\01\01\01\01\02\01\01\01\01\01\02\01\02\01\01\01\01\01\01\01\01\01\01\01\01\01\02\01\01\01\01\01\01\01\01\01\02\01\01\01\01\01\01\01\02\01\01\01\01\01\01\01\01\01\01\01\01\01\03\01\03\01\01\01\01\01\01\01\03\01\01\01\01\01\03\01\03\01\01\01\01\01\01\01\03\01\01\01\01\01\01\01\01\01\01\01\01\01\01" }, comdat, align 1
@.str.34 = private unnamed_addr constant [11 x i8] c"type_error\00", align 1
@.str.35 = private unnamed_addr constant [17 x i8] c"[json.exception.\00", align 1
@.str.36 = private unnamed_addr constant [2 x i8] c".\00", align 1
@.str.37 = private unnamed_addr constant [3 x i8] c"] \00", align 1
@.str.38 = private unnamed_addr constant [3 x i8] c"%d\00", align 1
@_ZTVN8nlohmann6detail10type_errorE = linkonce_odr dso_local unnamed_addr constant { [5 x ptr] } { [5 x ptr] [ptr null, ptr @_ZTIN8nlohmann6detail10type_errorE, ptr @_ZN8nlohmann6detail10type_errorD2Ev, ptr @_ZN8nlohmann6detail10type_errorD0Ev, ptr @_ZNK8nlohmann6detail9exception4whatEv] }, comdat, align 8
@_ZTVN8nlohmann6detail9exceptionE = linkonce_odr dso_local unnamed_addr constant { [5 x ptr] } { [5 x ptr] [ptr null, ptr @_ZTIN8nlohmann6detail9exceptionE, ptr @_ZN8nlohmann6detail9exceptionD2Ev, ptr @_ZN8nlohmann6detail9exceptionD0Ev, ptr @_ZNK8nlohmann6detail9exception4whatEv] }, comdat, align 8
@_ZTVSt9exception = external unnamed_addr constant { [5 x ptr] }, align 8
@.str.39 = private unnamed_addr constant [4 x i8] c"%lu\00", align 1
@_ZZN8nlohmann6detail10serializerINS_10basic_jsonISt3mapSt6vectorNSt7__cxx1112basic_stringIcSt11char_traitsIcESaIcEEEblmdSaNS_14adl_serializerEEEE12dump_integerIlLi0EEEvT_E12digits_to_99 = linkonce_odr dso_local constant %"struct.std::array.24" { [100 x %"struct.std::array.25"] [%"struct.std::array.25" { [2 x i8] c"00" }, %"struct.std::array.25" { [2 x i8] c"01" }, %"struct.std::array.25" { [2 x i8] c"02" }, %"struct.std::array.25" { [2 x i8] c"03" }, %"struct.std::array.25" { [2 x i8] c"04" }, %"struct.std::array.25" { [2 x i8] c"05" }, %"struct.std::array.25" { [2 x i8] c"06" }, %"struct.std::array.25" { [2 x i8] c"07" }, %"struct.std::array.25" { [2 x i8] c"08" }, %"struct.std::array.25" { [2 x i8] c"09" }, %"struct.std::array.25" { [2 x i8] c"10" }, %"struct.std::array.25" { [2 x i8] c"11" }, %"struct.std::array.25" { [2 x i8] c"12" }, %"struct.std::array.25" { [2 x i8] c"13" }, %"struct.std::array.25" { [2 x i8] c"14" }, %"struct.std::array.25" { [2 x i8] c"15" }, %"struct.std::array.25" { [2 x i8] c"16" }, %"struct.std::array.25" { [2 x i8] c"17" }, %"struct.std::array.25" { [2 x i8] c"18" }, %"struct.std::array.25" { [2 x i8] c"19" }, %"struct.std::array.25" { [2 x i8] c"20" }, %"struct.std::array.25" { [2 x i8] c"21" }, %"struct.std::array.25" { [2 x i8] c"22" }, %"struct.std::array.25" { [2 x i8] c"23" }, %"struct.std::array.25" { [2 x i8] c"24" }, %"struct.std::array.25" { [2 x i8] c"25" }, %"struct.std::array.25" { [2 x i8] c"26" }, %"struct.std::array.25" { [2 x i8] c"27" }, %"struct.std::array.25" { [2 x i8] c"28" }, %"struct.std::array.25" { [2 x i8] c"29" }, %"struct.std::array.25" { [2 x i8] c"30" }, %"struct.std::array.25" { [2 x i8] c"31" }, %"struct.std::array.25" { [2 x i8] c"32" }, %"struct.std::array.25" { [2 x i8] c"33" }, %"struct.std::array.25" { [2 x i8] c"34" }, %"struct.std::array.25" { [2 x i8] c"35" }, %"struct.std::array.25" { [2 x i8] c"36" }, %"struct.std::array.25" { [2 x i8] c"37" }, %"struct.std::array.25" { [2 x i8] c"38" }, %"struct.std::array.25" { [2 x i8] c"39" }, %"struct.std::array.25" { [2 x i8] c"40" }, %"struct.std::array.25" { [2 x i8] c"41" }, %"struct.std::array.25" { [2 x i8] c"42" }, %"struct.std::array.25" { [2 x i8] c"43" }, %"struct.std::array.25" { [2 x i8] c"44" }, %"struct.std::array.25" { [2 x i8] c"45" }, %"struct.std::array.25" { [2 x i8] c"46" }, %"struct.std::array.25" { [2 x i8] c"47" }, %"struct.std::array.25" { [2 x i8] c"48" }, %"struct.std::array.25" { [2 x i8] c"49" }, %"struct.std::array.25" { [2 x i8] c"50" }, %"struct.std::array.25" { [2 x i8] c"51" }, %"struct.std::array.25" { [2 x i8] c"52" }, %"struct.std::array.25" { [2 x i8] c"53" }, %"struct.std::array.25" { [2 x i8] c"54" }, %"struct.std::array.25" { [2 x i8] c"55" }, %"struct.std::array.25" { [2 x i8] c"56" }, %"struct.std::array.25" { [2 x i8] c"57" }, %"struct.std::array.25" { [2 x i8] c"58" }, %"struct.std::array.25" { [2 x i8] c"59" }, %"struct.std::array.25" { [2 x i8] c"60" }, %"struct.std::array.25" { [2 x i8] c"61" }, %"struct.std::array.25" { [2 x i8] c"62" }, %"struct.std::array.25" { [2 x i8] c"63" }, %"struct.std::array.25" { [2 x i8] c"64" }, %"struct.std::array.25" { [2 x i8] c"65" }, %"struct.std::array.25" { [2 x i8] c"66" }, %"struct.std::array.25" { [2 x i8] c"67" }, %"struct.std::array.25" { [2 x i8] c"68" }, %"struct.std::array.25" { [2 x i8] c"69" }, %"struct.std::array.25" { [2 x i8] c"70" }, %"struct.std::array.25" { [2 x i8] c"71" }, %"struct.std::array.25" { [2 x i8] c"72" }, %"struct.std::array.25" { [2 x i8] c"73" }, %"struct.std::array.25" { [2 x i8] c"74" }, %"struct.std::array.25" { [2 x i8] c"75" }, %"struct.std::array.25" { [2 x i8] c"76" }, %"struct.std::array.25" { [2 x i8] c"77" }, %"struct.std::array.25" { [2 x i8] c"78" }, %"struct.std::array.25" { [2 x i8] c"79" }, %"struct.std::array.25" { [2 x i8] c"80" }, %"struct.std::array.25" { [2 x i8] c"81" }, %"struct.std::array.25" { [2 x i8] c"82" }, %"struct.std::array.25" { [2 x i8] c"83" }, %"struct.std::array.25" { [2 x i8] c"84" }, %"struct.std::array.25" { [2 x i8] c"85" }, %"struct.std::array.25" { [2 x i8] c"86" }, %"struct.std::array.25" { [2 x i8] c"87" }, %"struct.std::array.25" { [2 x i8] c"88" }, %"struct.std::array.25" { [2 x i8] c"89" }, %"struct.std::array.25" { [2 x i8] c"90" }, %"struct.std::array.25" { [2 x i8] c"91" }, %"struct.std::array.25" { [2 x i8] c"92" }, %"struct.std::array.25" { [2 x i8] c"93" }, %"struct.std::array.25" { [2 x i8] c"94" }, %"struct.std::array.25" { [2 x i8] c"95" }, %"struct.std::array.25" { [2 x i8] c"96" }, %"struct.std::array.25" { [2 x i8] c"97" }, %"struct.std::array.25" { [2 x i8] c"98" }, %"struct.std::array.25" { [2 x i8] c"99" }] }, comdat, align 1
@.str.40 = private unnamed_addr constant [35 x i8] c"n_chars < number_buffer.size() - 1\00", align 1
@__PRETTY_FUNCTION__._ZN8nlohmann6detail10serializerINS_10basic_jsonISt3mapSt6vectorNSt7__cxx1112basic_stringIcSt11char_traitsIcESaIcEEEblmdSaNS_14adl_serializerEEEE12dump_integerIlLi0EEEvT_ = private unnamed_addr constant [144 x i8] c"void nlohmann::detail::serializer<nlohmann::basic_json<>>::dump_integer(NumberType) [BasicJsonType = nlohmann::basic_json<>, NumberType = long]\00", align 1
@.str.41 = private unnamed_addr constant [61 x i8] c"x < 0 and x < (std::numeric_limits<number_integer_t>::max)()\00", align 1
@__PRETTY_FUNCTION__._ZN8nlohmann6detail10serializerINS_10basic_jsonISt3mapSt6vectorNSt7__cxx1112basic_stringIcSt11char_traitsIcESaIcEEEblmdSaNS_14adl_serializerEEEE11remove_signEl = private unnamed_addr constant [143 x i8] c"number_unsigned_t nlohmann::detail::serializer<nlohmann::basic_json<>>::remove_sign(number_integer_t) [BasicJsonType = nlohmann::basic_json<>]\00", align 1
@_ZZN8nlohmann6detail10serializerINS_10basic_jsonISt3mapSt6vectorNSt7__cxx1112basic_stringIcSt11char_traitsIcESaIcEEEblmdSaNS_14adl_serializerEEEE12dump_integerImLi0EEEvT_E12digits_to_99 = linkonce_odr dso_local constant %"struct.std::array.24" { [100 x %"struct.std::array.25"] [%"struct.std::array.25" { [2 x i8] c"00" }, %"struct.std::array.25" { [2 x i8] c"01" }, %"struct.std::array.25" { [2 x i8] c"02" }, %"struct.std::array.25" { [2 x i8] c"03" }, %"struct.std::array.25" { [2 x i8] c"04" }, %"struct.std::array.25" { [2 x i8] c"05" }, %"struct.std::array.25" { [2 x i8] c"06" }, %"struct.std::array.25" { [2 x i8] c"07" }, %"struct.std::array.25" { [2 x i8] c"08" }, %"struct.std::array.25" { [2 x i8] c"09" }, %"struct.std::array.25" { [2 x i8] c"10" }, %"struct.std::array.25" { [2 x i8] c"11" }, %"struct.std::array.25" { [2 x i8] c"12" }, %"struct.std::array.25" { [2 x i8] c"13" }, %"struct.std::array.25" { [2 x i8] c"14" }, %"struct.std::array.25" { [2 x i8] c"15" }, %"struct.std::array.25" { [2 x i8] c"16" }, %"struct.std::array.25" { [2 x i8] c"17" }, %"struct.std::array.25" { [2 x i8] c"18" }, %"struct.std::array.25" { [2 x i8] c"19" }, %"struct.std::array.25" { [2 x i8] c"20" }, %"struct.std::array.25" { [2 x i8] c"21" }, %"struct.std::array.25" { [2 x i8] c"22" }, %"struct.std::array.25" { [2 x i8] c"23" }, %"struct.std::array.25" { [2 x i8] c"24" }, %"struct.std::array.25" { [2 x i8] c"25" }, %"struct.std::array.25" { [2 x i8] c"26" }, %"struct.std::array.25" { [2 x i8] c"27" }, %"struct.std::array.25" { [2 x i8] c"28" }, %"struct.std::array.25" { [2 x i8] c"29" }, %"struct.std::array.25" { [2 x i8] c"30" }, %"struct.std::array.25" { [2 x i8] c"31" }, %"struct.std::array.25" { [2 x i8] c"32" }, %"struct.std::array.25" { [2 x i8] c"33" }, %"struct.std::array.25" { [2 x i8] c"34" }, %"struct.std::array.25" { [2 x i8] c"35" }, %"struct.std::array.25" { [2 x i8] c"36" }, %"struct.std::array.25" { [2 x i8] c"37" }, %"struct.std::array.25" { [2 x i8] c"38" }, %"struct.std::array.25" { [2 x i8] c"39" }, %"struct.std::array.25" { [2 x i8] c"40" }, %"struct.std::array.25" { [2 x i8] c"41" }, %"struct.std::array.25" { [2 x i8] c"42" }, %"struct.std::array.25" { [2 x i8] c"43" }, %"struct.std::array.25" { [2 x i8] c"44" }, %"struct.std::array.25" { [2 x i8] c"45" }, %"struct.std::array.25" { [2 x i8] c"46" }, %"struct.std::array.25" { [2 x i8] c"47" }, %"struct.std::array.25" { [2 x i8] c"48" }, %"struct.std::array.25" { [2 x i8] c"49" }, %"struct.std::array.25" { [2 x i8] c"50" }, %"struct.std::array.25" { [2 x i8] c"51" }, %"struct.std::array.25" { [2 x i8] c"52" }, %"struct.std::array.25" { [2 x i8] c"53" }, %"struct.std::array.25" { [2 x i8] c"54" }, %"struct.std::array.25" { [2 x i8] c"55" }, %"struct.std::array.25" { [2 x i8] c"56" }, %"struct.std::array.25" { [2 x i8] c"57" }, %"struct.std::array.25" { [2 x i8] c"58" }, %"struct.std::array.25" { [2 x i8] c"59" }, %"struct.std::array.25" { [2 x i8] c"60" }, %"struct.std::array.25" { [2 x i8] c"61" }, %"struct.std::array.25" { [2 x i8] c"62" }, %"struct.std::array.25" { [2 x i8] c"63" }, %"struct.std::array.25" { [2 x i8] c"64" }, %"struct.std::array.25" { [2 x i8] c"65" }, %"struct.std::array.25" { [2 x i8] c"66" }, %"struct.std::array.25" { [2 x i8] c"67" }, %"struct.std::array.25" { [2 x i8] c"68" }, %"struct.std::array.25" { [2 x i8] c"69" }, %"struct.std::array.25" { [2 x i8] c"70" }, %"struct.std::array.25" { [2 x i8] c"71" }, %"struct.std::array.25" { [2 x i8] c"72" }, %"struct.std::array.25" { [2 x i8] c"73" }, %"struct.std::array.25" { [2 x i8] c"74" }, %"struct.std::array.25" { [2 x i8] c"75" }, %"struct.std::array.25" { [2 x i8] c"76" }, %"struct.std::array.25" { [2 x i8] c"77" }, %"struct.std::array.25" { [2 x i8] c"78" }, %"struct.std::array.25" { [2 x i8] c"79" }, %"struct.std::array.25" { [2 x i8] c"80" }, %"struct.std::array.25" { [2 x i8] c"81" }, %"struct.std::array.25" { [2 x i8] c"82" }, %"struct.std::array.25" { [2 x i8] c"83" }, %"struct.std::array.25" { [2 x i8] c"84" }, %"struct.std::array.25" { [2 x i8] c"85" }, %"struct.std::array.25" { [2 x i8] c"86" }, %"struct.std::array.25" { [2 x i8] c"87" }, %"struct.std::array.25" { [2 x i8] c"88" }, %"struct.std::array.25" { [2 x i8] c"89" }, %"struct.std::array.25" { [2 x i8] c"90" }, %"struct.std::array.25" { [2 x i8] c"91" }, %"struct.std::array.25" { [2 x i8] c"92" }, %"struct.std::array.25" { [2 x i8] c"93" }, %"struct.std::array.25" { [2 x i8] c"94" }, %"struct.std::array.25" { [2 x i8] c"95" }, %"struct.std::array.25" { [2 x i8] c"96" }, %"struct.std::array.25" { [2 x i8] c"97" }, %"struct.std::array.25" { [2 x i8] c"98" }, %"struct.std::array.25" { [2 x i8] c"99" }] }, comdat, align 1
@__PRETTY_FUNCTION__._ZN8nlohmann6detail10serializerINS_10basic_jsonISt3mapSt6vectorNSt7__cxx1112basic_stringIcSt11char_traitsIcESaIcEEEblmdSaNS_14adl_serializerEEEE12dump_integerImLi0EEEvT_ = private unnamed_addr constant [153 x i8] c"void nlohmann::detail::serializer<nlohmann::basic_json<>>::dump_integer(NumberType) [BasicJsonType = nlohmann::basic_json<>, NumberType = unsigned long]\00", align 1
@.str.42 = private unnamed_addr constant [21 x i8] c"std::isfinite(value)\00", align 1
@.str.43 = private unnamed_addr constant [54 x i8] c"/usr/include/nlohmann/detail/conversions/to_chars.hpp\00", align 1
@__PRETTY_FUNCTION__._ZN8nlohmann6detail8to_charsIdEEPcS2_PKcT_ = private unnamed_addr constant [87 x i8] c"char *nlohmann::detail::to_chars(char *, const char *, FloatType) [FloatType = double]\00", align 1
@.str.44 = private unnamed_addr constant [61 x i8] c"last - first >= std::numeric_limits<FloatType>::max_digits10\00", align 1
@.str.45 = private unnamed_addr constant [52 x i8] c"len <= std::numeric_limits<FloatType>::max_digits10\00", align 1
@.str.46 = private unnamed_addr constant [28 x i8] c"last - first >= kMaxExp + 2\00", align 1
@.str.47 = private unnamed_addr constant [82 x i8] c"last - first >= 2 + (-kMinExp - 1) + std::numeric_limits<FloatType>::max_digits10\00", align 1
@.str.48 = private unnamed_addr constant [65 x i8] c"last - first >= std::numeric_limits<FloatType>::max_digits10 + 6\00", align 1
@__PRETTY_FUNCTION__._ZN8nlohmann6detail9dtoa_impl6grisu2IdEEvPcRiS4_T_ = private unnamed_addr constant [95 x i8] c"void nlohmann::detail::dtoa_impl::grisu2(char *, int &, int &, FloatType) [FloatType = double]\00", align 1
@.str.49 = private unnamed_addr constant [10 x i8] c"value > 0\00", align 1
@__PRETTY_FUNCTION__._ZN8nlohmann6detail9dtoa_impl18compute_boundariesIdEENS1_10boundariesET_ = private unnamed_addr constant [91 x i8] c"boundaries nlohmann::detail::dtoa_impl::compute_boundaries(FloatType) [FloatType = double]\00", align 1
@.str.50 = private unnamed_addr constant [9 x i8] c"x.f != 0\00", align 1
@__PRETTY_FUNCTION__._ZN8nlohmann6detail9dtoa_impl5diyfp9normalizeES2_ = private unnamed_addr constant [66 x i8] c"static diyfp nlohmann::detail::dtoa_impl::diyfp::normalize(diyfp)\00", align 1
@.str.51 = private unnamed_addr constant [11 x i8] c"delta >= 0\00", align 1
@__PRETTY_FUNCTION__._ZN8nlohmann6detail9dtoa_impl5diyfp12normalize_toERKS2_i = private unnamed_addr constant [88 x i8] c"static diyfp nlohmann::detail::dtoa_impl::diyfp::normalize_to(const diyfp &, const int)\00", align 1
@.str.52 = private unnamed_addr constant [33 x i8] c"((x.f << delta) >> delta) == x.f\00", align 1
@.str.53 = private unnamed_addr constant [22 x i8] c"m_plus.e == m_minus.e\00", align 1
@__PRETTY_FUNCTION__._ZN8nlohmann6detail9dtoa_impl6grisu2EPcRiS3_NS1_5diyfpES4_S4_ = private unnamed_addr constant [84 x i8] c"void nlohmann::detail::dtoa_impl::grisu2(char *, int &, int &, diyfp, diyfp, diyfp)\00", align 1
@.str.54 = private unnamed_addr constant [16 x i8] c"m_plus.e == v.e\00", align 1
@_ZZN8nlohmann6detail9dtoa_impl36get_cached_power_for_binary_exponentEiE13kCachedPowers = linkonce_odr dso_local constant %"struct.std::array.26" { [79 x %"struct.nlohmann::detail::dtoa_impl::cached_power"] [%"struct.nlohmann::detail::dtoa_impl::cached_power" { i64 -6093090917745768758, i32 -1060, i32 -300 }, %"struct.nlohmann::detail::dtoa_impl::cached_power" { i64 -38366372719436721, i32 -1034, i32 -292 }, %"struct.nlohmann::detail::dtoa_impl::cached_power" { i64 -4731433901725329908, i32 -1007, i32 -284 }, %"struct.nlohmann::detail::dtoa_impl::cached_power" { i64 -8228041688891786180, i32 -980, i32 -276 }, %"struct.nlohmann::detail::dtoa_impl::cached_power" { i64 -3219690930897053053, i32 -954, i32 -268 }, %"struct.nlohmann::detail::dtoa_impl::cached_power" { i64 -7101705404292871755, i32 -927, i32 -260 }, %"struct.nlohmann::detail::dtoa_impl::cached_power" { i64 -1541319077368263733, i32 -901, i32 -252 }, %"struct.nlohmann::detail::dtoa_impl::cached_power" { i64 -5851220927660403859, i32 -874, i32 -244 }, %"struct.nlohmann::detail::dtoa_impl::cached_power" { i64 -9062348037703676329, i32 -847, i32 -236 }, %"struct.nlohmann::detail::dtoa_impl::cached_power" { i64 -4462904269766699465, i32 -821, i32 -228 }, %"struct.nlohmann::detail::dtoa_impl::cached_power" { i64 -8027971522334779313, i32 -794, i32 -220 }, %"struct.nlohmann::detail::dtoa_impl::cached_power" { i64 -2921563150702462265, i32 -768, i32 -212 }, %"struct.nlohmann::detail::dtoa_impl::cached_power" { i64 -6879582898840692748, i32 -741, i32 -204 }, %"struct.nlohmann::detail::dtoa_impl::cached_power" { i64 -1210330751515841307, i32 -715, i32 -196 }, %"struct.nlohmann::detail::dtoa_impl::cached_power" { i64 -5604615407819967858, i32 -688, i32 -188 }, %"struct.nlohmann::detail::dtoa_impl::cached_power" { i64 -8878612607581929669, i32 -661, i32 -180 }, %"struct.nlohmann::detail::dtoa_impl::cached_power" { i64 -4189117143640191558, i32 -635, i32 -172 }, %"struct.nlohmann::detail::dtoa_impl::cached_power" { i64 -7823984217374209642, i32 -608, i32 -164 }, %"struct.nlohmann::detail::dtoa_impl::cached_power" { i64 -2617598379430861436, i32 -582, i32 -156 }, %"struct.nlohmann::detail::dtoa_impl::cached_power" { i64 -6653111496142234890, i32 -555, i32 -148 }, %"struct.nlohmann::detail::dtoa_impl::cached_power" { i64 -872862063775190746, i32 -529, i32 -140 }, %"struct.nlohmann::detail::dtoa_impl::cached_power" { i64 -5353181642124984136, i32 -502, i32 -132 }, %"struct.nlohmann::detail::dtoa_impl::cached_power" { i64 -8691279853972075893, i32 -475, i32 -124 }, %"struct.nlohmann::detail::dtoa_impl::cached_power" { i64 -3909969587797413805, i32 -449, i32 -116 }, %"struct.nlohmann::detail::dtoa_impl::cached_power" { i64 -7616003081050118571, i32 -422, i32 -108 }, %"struct.nlohmann::detail::dtoa_impl::cached_power" { i64 -2307682335666372931, i32 -396, i32 -100 }, %"struct.nlohmann::detail::dtoa_impl::cached_power" { i64 -6422206049907525489, i32 -369, i32 -92 }, %"struct.nlohmann::detail::dtoa_impl::cached_power" { i64 -528786136287117932, i32 -343, i32 -84 }, %"struct.nlohmann::detail::dtoa_impl::cached_power" { i64 -5096825099203863601, i32 -316, i32 -76 }, %"struct.nlohmann::detail::dtoa_impl::cached_power" { i64 -8500279345513818773, i32 -289, i32 -68 }, %"struct.nlohmann::detail::dtoa_impl::cached_power" { i64 -3625356651333078602, i32 -263, i32 -60 }, %"struct.nlohmann::detail::dtoa_impl::cached_power" { i64 -7403949918844649556, i32 -236, i32 -52 }, %"struct.nlohmann::detail::dtoa_impl::cached_power" { i64 -1991698500497491194, i32 -210, i32 -44 }, %"struct.nlohmann::detail::dtoa_impl::cached_power" { i64 -6186779746782440749, i32 -183, i32 -36 }, %"struct.nlohmann::detail::dtoa_impl::cached_power" { i64 -177973607073265138, i32 -157, i32 -28 }, %"struct.nlohmann::detail::dtoa_impl::cached_power" { i64 -4835449396872013077, i32 -130, i32 -20 }, %"struct.nlohmann::detail::dtoa_impl::cached_power" { i64 -8305539271883716404, i32 -103, i32 -12 }, %"struct.nlohmann::detail::dtoa_impl::cached_power" { i64 -3335171328526686932, i32 -77, i32 -4 }, %"struct.nlohmann::detail::dtoa_impl::cached_power" { i64 -7187745005283311616, i32 -50, i32 4 }, %"struct.nlohmann::detail::dtoa_impl::cached_power" { i64 -1669528073709551616, i32 -24, i32 12 }, %"struct.nlohmann::detail::dtoa_impl::cached_power" { i64 -5946744073709551616, i32 3, i32 20 }, %"struct.nlohmann::detail::dtoa_impl::cached_power" { i64 -9133518327554766460, i32 30, i32 28 }, %"struct.nlohmann::detail::dtoa_impl::cached_power" { i64 -4568956265895094861, i32 56, i32 36 }, %"struct.nlohmann::detail::dtoa_impl::cached_power" { i64 -8106986416796705680, i32 83, i32 44 }, %"struct.nlohmann::detail::dtoa_impl::cached_power" { i64 -3039304518611664792, i32 109, i32 52 }, %"struct.nlohmann::detail::dtoa_impl::cached_power" { i64 -6967307053960650171, i32 136, i32 60 }, %"struct.nlohmann::detail::dtoa_impl::cached_power" { i64 -1341049929119499481, i32 162, i32 68 }, %"struct.nlohmann::detail::dtoa_impl::cached_power" { i64 -5702008784649933400, i32 189, i32 76 }, %"struct.nlohmann::detail::dtoa_impl::cached_power" { i64 -8951176327949752869, i32 216, i32 84 }, %"struct.nlohmann::detail::dtoa_impl::cached_power" { i64 -4297245513042813542, i32 242, i32 92 }, %"struct.nlohmann::detail::dtoa_impl::cached_power" { i64 -7904546130479028392, i32 269, i32 100 }, %"struct.nlohmann::detail::dtoa_impl::cached_power" { i64 -2737644984756826646, i32 295, i32 108 }, %"struct.nlohmann::detail::dtoa_impl::cached_power" { i64 -6742553186979055798, i32 322, i32 116 }, %"struct.nlohmann::detail::dtoa_impl::cached_power" { i64 -1006140569036166267, i32 348, i32 124 }, %"struct.nlohmann::detail::dtoa_impl::cached_power" { i64 -5452481866653427593, i32 375, i32 132 }, %"struct.nlohmann::detail::dtoa_impl::cached_power" { i64 -8765264286586255934, i32 402, i32 140 }, %"struct.nlohmann::detail::dtoa_impl::cached_power" { i64 -4020214983419339459, i32 428, i32 148 }, %"struct.nlohmann::detail::dtoa_impl::cached_power" { i64 -7698142301602209613, i32 455, i32 156 }, %"struct.nlohmann::detail::dtoa_impl::cached_power" { i64 -2430079312244744221, i32 481, i32 164 }, %"struct.nlohmann::detail::dtoa_impl::cached_power" { i64 -6513398903789220827, i32 508, i32 172 }, %"struct.nlohmann::detail::dtoa_impl::cached_power" { i64 -664674077828931748, i32 534, i32 180 }, %"struct.nlohmann::detail::dtoa_impl::cached_power" { i64 -5198069505264599346, i32 561, i32 188 }, %"struct.nlohmann::detail::dtoa_impl::cached_power" { i64 -8575712306248138270, i32 588, i32 196 }, %"struct.nlohmann::detail::dtoa_impl::cached_power" { i64 -3737760522056206171, i32 614, i32 204 }, %"struct.nlohmann::detail::dtoa_impl::cached_power" { i64 -7487697328667536417, i32 641, i32 212 }, %"struct.nlohmann::detail::dtoa_impl::cached_power" { i64 -2116491865831296966, i32 667, i32 220 }, %"struct.nlohmann::detail::dtoa_impl::cached_power" { i64 -6279758049420528746, i32 694, i32 228 }, %"struct.nlohmann::detail::dtoa_impl::cached_power" { i64 -316522074587315140, i32 720, i32 236 }, %"struct.nlohmann::detail::dtoa_impl::cached_power" { i64 -4938676049251384304, i32 747, i32 244 }, %"struct.nlohmann::detail::dtoa_impl::cached_power" { i64 -8382449121214030822, i32 774, i32 252 }, %"struct.nlohmann::detail::dtoa_impl::cached_power" { i64 -3449775934753242068, i32 800, i32 260 }, %"struct.nlohmann::detail::dtoa_impl::cached_power" { i64 -7273132090830278359, i32 827, i32 268 }, %"struct.nlohmann::detail::dtoa_impl::cached_power" { i64 -1796764746270372707, i32 853, i32 276 }, %"struct.nlohmann::detail::dtoa_impl::cached_power" { i64 -6041542782089432023, i32 880, i32 284 }, %"struct.nlohmann::detail::dtoa_impl::cached_power" { i64 -9204148869281624187, i32 907, i32 292 }, %"struct.nlohmann::detail::dtoa_impl::cached_power" { i64 -4674203974643163859, i32 933, i32 300 }, %"struct.nlohmann::detail::dtoa_impl::cached_power" { i64 -8185402070463610993, i32 960, i32 308 }, %"struct.nlohmann::detail::dtoa_impl::cached_power" { i64 -3156152948152813503, i32 986, i32 316 }, %"struct.nlohmann::detail::dtoa_impl::cached_power" { i64 -7054365918152680535, i32 1013, i32 324 }] }, comdat, align 8
@.str.55 = private unnamed_addr constant [11 x i8] c"e >= -1500\00", align 1
@__PRETTY_FUNCTION__._ZN8nlohmann6detail9dtoa_impl36get_cached_power_for_binary_exponentEi = private unnamed_addr constant [84 x i8] c"cached_power nlohmann::detail::dtoa_impl::get_cached_power_for_binary_exponent(int)\00", align 1
@.str.56 = private unnamed_addr constant [10 x i8] c"e <= 1500\00", align 1
@.str.57 = private unnamed_addr constant [11 x i8] c"index >= 0\00", align 1
@.str.58 = private unnamed_addr constant [55 x i8] c"static_cast<std::size_t>(index) < kCachedPowers.size()\00", align 1
@.str.59 = private unnamed_addr constant [28 x i8] c"kAlpha <= cached.e + e + 64\00", align 1
@.str.60 = private unnamed_addr constant [28 x i8] c"kGamma >= cached.e + e + 64\00", align 1
@.str.61 = private unnamed_addr constant [19 x i8] c"M_plus.e >= kAlpha\00", align 1
@__PRETTY_FUNCTION__._ZN8nlohmann6detail9dtoa_impl16grisu2_digit_genEPcRiS3_NS1_5diyfpES4_S4_ = private unnamed_addr constant [94 x i8] c"void nlohmann::detail::dtoa_impl::grisu2_digit_gen(char *, int &, int &, diyfp, diyfp, diyfp)\00", align 1
@.str.62 = private unnamed_addr constant [19 x i8] c"M_plus.e <= kGamma\00", align 1
@.str.63 = private unnamed_addr constant [7 x i8] c"p1 > 0\00", align 1
@.str.64 = private unnamed_addr constant [7 x i8] c"d <= 9\00", align 1
@.str.65 = private unnamed_addr constant [11 x i8] c"p2 > delta\00", align 1
@.str.66 = private unnamed_addr constant [55 x i8] c"p2 <= (std::numeric_limits<std::uint64_t>::max)() / 10\00", align 1
@.str.67 = private unnamed_addr constant [11 x i8] c"x.e == y.e\00", align 1
@__PRETTY_FUNCTION__._ZN8nlohmann6detail9dtoa_impl5diyfp3subERKS2_S4_ = private unnamed_addr constant [83 x i8] c"static diyfp nlohmann::detail::dtoa_impl::diyfp::sub(const diyfp &, const diyfp &)\00", align 1
@.str.68 = private unnamed_addr constant [11 x i8] c"x.f >= y.f\00", align 1
@.str.69 = private unnamed_addr constant [9 x i8] c"len >= 1\00", align 1
@__PRETTY_FUNCTION__._ZN8nlohmann6detail9dtoa_impl12grisu2_roundEPcimmmm = private unnamed_addr constant [120 x i8] c"void nlohmann::detail::dtoa_impl::grisu2_round(char *, int, std::uint64_t, std::uint64_t, std::uint64_t, std::uint64_t)\00", align 1
@.str.70 = private unnamed_addr constant [14 x i8] c"dist <= delta\00", align 1
@.str.71 = private unnamed_addr constant [14 x i8] c"rest <= delta\00", align 1
@.str.72 = private unnamed_addr constant [10 x i8] c"ten_k > 0\00", align 1
@.str.73 = private unnamed_addr constant [20 x i8] c"buf[len - 1] != '0'\00", align 1
@.str.74 = private unnamed_addr constant [12 x i8] c"min_exp < 0\00", align 1
@__PRETTY_FUNCTION__._ZN8nlohmann6detail9dtoa_impl13format_bufferEPciiii = private unnamed_addr constant [77 x i8] c"char *nlohmann::detail::dtoa_impl::format_buffer(char *, int, int, int, int)\00", align 1
@.str.75 = private unnamed_addr constant [12 x i8] c"max_exp > 0\00", align 1
@.str.76 = private unnamed_addr constant [6 x i8] c"k > n\00", align 1
@.str.77 = private unnamed_addr constant [10 x i8] c"e > -1000\00", align 1
@__PRETTY_FUNCTION__._ZN8nlohmann6detail9dtoa_impl15append_exponentEPci = private unnamed_addr constant [64 x i8] c"char *nlohmann::detail::dtoa_impl::append_exponent(char *, int)\00", align 1
@.str.78 = private unnamed_addr constant [9 x i8] c"e < 1000\00", align 1
@.str.79 = private unnamed_addr constant [55 x i8] c"m_type != value_t::object or m_value.object != nullptr\00", align 1
@.str.80 = private unnamed_addr constant [31 x i8] c"/usr/include/nlohmann/json.hpp\00", align 1
@__PRETTY_FUNCTION__._ZNK8nlohmann10basic_jsonISt3mapSt6vectorNSt7__cxx1112basic_stringIcSt11char_traitsIcESaIcEEEblmdSaNS_14adl_serializerEE16assert_invariantEv = private unnamed_addr constant [324 x i8] c"void nlohmann::basic_json<>::assert_invariant() const [ObjectType = std::map, ArrayType = std::vector, StringType = std::basic_string<char>, BooleanType = bool, NumberIntegerType = long, NumberUnsignedType = unsigned long, NumberFloatType = double, AllocatorType = std::allocator, JSONSerializer = nlohmann::adl_serializer]\00", align 1
@.str.81 = private unnamed_addr constant [53 x i8] c"m_type != value_t::array or m_value.array != nullptr\00", align 1
@.str.82 = private unnamed_addr constant [55 x i8] c"m_type != value_t::string or m_value.string != nullptr\00", align 1
@.str.83 = private unnamed_addr constant [16 x i8] c"vector::reserve\00", align 1
@.str.84 = private unnamed_addr constant [26 x i8] c"vector::_M_realloc_insert\00", align 1
@_ZN8nlohmann6detail12static_constINS0_10to_json_fnEE5valueE = linkonce_odr dso_local constant %"class.std::ios_base::Init" undef, comdat, align 1
@.str.85 = private unnamed_addr constant [18 x i8] c"object != nullptr\00", align 1
@__PRETTY_FUNCTION__._ZN8nlohmann10basic_jsonISt3mapSt6vectorNSt7__cxx1112basic_stringIcSt11char_traitsIcESaIcEEEblmdSaNS_14adl_serializerEE6createIS8_JRA4_KcEEEPT_DpOT0_ = private unnamed_addr constant [380 x i8] c"static T *nlohmann::basic_json<>::create(Args &&...) [ObjectType = std::map, ArrayType = std::vector, StringType = std::basic_string<char>, BooleanType = bool, NumberIntegerType = long, NumberUnsignedType = unsigned long, NumberFloatType = double, AllocatorType = std::allocator, JSONSerializer = nlohmann::adl_serializer, T = std::basic_string<char>, Args = <const char (&)[4]>]\00", align 1
@__PRETTY_FUNCTION__._ZN8nlohmann10basic_jsonISt3mapSt6vectorNSt7__cxx1112basic_stringIcSt11char_traitsIcESaIcEEEblmdSaNS_14adl_serializerEE6createIS8_JRKS8_EEEPT_DpOT0_ = private unnamed_addr constant [394 x i8] c"static T *nlohmann::basic_json<>::create(Args &&...) [ObjectType = std::map, ArrayType = std::vector, StringType = std::basic_string<char>, BooleanType = bool, NumberIntegerType = long, NumberUnsignedType = unsigned long, NumberFloatType = double, AllocatorType = std::allocator, JSONSerializer = nlohmann::adl_serializer, T = std::basic_string<char>, Args = <const std::basic_string<char> &>]\00", align 1
@.str.86 = private unnamed_addr constant [43 x i8] c"cannot create object from initializer list\00", align 1
@.str.87 = private unnamed_addr constant [52 x i8] c"cannot use operator[] with a numeric argument with \00", align 1
@.str.88 = private unnamed_addr constant [7 x i8] c"object\00", align 1
@.str.89 = private unnamed_addr constant [6 x i8] c"array\00", align 1
@.str.90 = private unnamed_addr constant [7 x i8] c"string\00", align 1
@.str.91 = private unnamed_addr constant [8 x i8] c"boolean\00", align 1
@.str.92 = private unnamed_addr constant [10 x i8] c"discarded\00", align 1
@.str.93 = private unnamed_addr constant [7 x i8] c"number\00", align 1
@.str.94 = private unnamed_addr constant [47 x i8] c"961c151d2e87f2686a955a9be24d316f1362bf21 3.7.3\00", align 1
@_ZTSN8nlohmann6detail11other_errorE = linkonce_odr dso_local constant [32 x i8] c"N8nlohmann6detail11other_errorE\00", comdat, align 1
@_ZTIN8nlohmann6detail11other_errorE = linkonce_odr dso_local constant { ptr, ptr, ptr } { ptr getelementptr inbounds (ptr, ptr @_ZTVN10__cxxabiv120__si_class_type_infoE, i64 2), ptr @_ZTSN8nlohmann6detail11other_errorE, ptr @_ZTIN8nlohmann6detail9exceptionE }, comdat, align 8
@__PRETTY_FUNCTION__._ZN8nlohmann10basic_jsonISt3mapSt6vectorNSt7__cxx1112basic_stringIcSt11char_traitsIcESaIcEEEblmdSaNS_14adl_serializerEE6createIS1_IS8_SA_St4lessIvESaISt4pairIKS8_SA_EEEJEEEPT_DpOT0_ = private unnamed_addr constant [414 x i8] c"static T *nlohmann::basic_json<>::create(Args &&...) [ObjectType = std::map, ArrayType = std::vector, StringType = std::basic_string<char>, BooleanType = bool, NumberIntegerType = long, NumberUnsignedType = unsigned long, NumberFloatType = double, AllocatorType = std::allocator, JSONSerializer = nlohmann::adl_serializer, T = std::map<std::basic_string<char>, nlohmann::basic_json<>, std::less<void>>, Args = <>]\00", align 1
@__PRETTY_FUNCTION__._ZN8nlohmann10basic_jsonISt3mapSt6vectorNSt7__cxx1112basic_stringIcSt11char_traitsIcESaIcEEEblmdSaNS_14adl_serializerEE6createIS2_ISA_SaISA_EEJEEEPT_DpOT0_ = private unnamed_addr constant [375 x i8] c"static T *nlohmann::basic_json<>::create(Args &&...) [ObjectType = std::map, ArrayType = std::vector, StringType = std::basic_string<char>, BooleanType = bool, NumberIntegerType = long, NumberUnsignedType = unsigned long, NumberFloatType = double, AllocatorType = std::allocator, JSONSerializer = nlohmann::adl_serializer, T = std::vector<nlohmann::basic_json<>>, Args = <>]\00", align 1
@__PRETTY_FUNCTION__._ZN8nlohmann10basic_jsonISt3mapSt6vectorNSt7__cxx1112basic_stringIcSt11char_traitsIcESaIcEEEblmdSaNS_14adl_serializerEE6createIS8_JRA1_KcEEEPT_DpOT0_ = private unnamed_addr constant [380 x i8] c"static T *nlohmann::basic_json<>::create(Args &&...) [ObjectType = std::map, ArrayType = std::vector, StringType = std::basic_string<char>, BooleanType = bool, NumberIntegerType = long, NumberUnsignedType = unsigned long, NumberFloatType = double, AllocatorType = std::allocator, JSONSerializer = nlohmann::adl_serializer, T = std::basic_string<char>, Args = <const char (&)[1]>]\00", align 1
@.str.95 = private unnamed_addr constant [12 x i8] c"other_error\00", align 1
@_ZTVN8nlohmann6detail11other_errorE = linkonce_odr dso_local unnamed_addr constant { [5 x ptr] } { [5 x ptr] [ptr null, ptr @_ZTIN8nlohmann6detail11other_errorE, ptr @_ZN8nlohmann6detail11other_errorD2Ev, ptr @_ZN8nlohmann6detail11other_errorD0Ev, ptr @_ZNK8nlohmann6detail9exception4whatEv] }, comdat, align 8
@__PRETTY_FUNCTION__._ZN8nlohmann10basic_jsonISt3mapSt6vectorNSt7__cxx1112basic_stringIcSt11char_traitsIcESaIcEEEblmdSaNS_14adl_serializerEE6createIS1_IS8_SA_St4lessIvESaISt4pairIKS8_SA_EEEJRKSI_EEEPT_DpOT0_ = private unnamed_addr constant [496 x i8] c"static T *nlohmann::basic_json<>::create(Args &&...) [ObjectType = std::map, ArrayType = std::vector, StringType = std::basic_string<char>, BooleanType = bool, NumberIntegerType = long, NumberUnsignedType = unsigned long, NumberFloatType = double, AllocatorType = std::allocator, JSONSerializer = nlohmann::adl_serializer, T = std::map<std::basic_string<char>, nlohmann::basic_json<>, std::less<void>>, Args = <const std::map<std::basic_string<char>, nlohmann::basic_json<>, std::less<void>> &>]\00", align 1
@__PRETTY_FUNCTION__._ZN8nlohmann10basic_jsonISt3mapSt6vectorNSt7__cxx1112basic_stringIcSt11char_traitsIcESaIcEEEblmdSaNS_14adl_serializerEE6createIS2_ISA_SaISA_EEJRKSD_EEEPT_DpOT0_ = private unnamed_addr constant [418 x i8] c"static T *nlohmann::basic_json<>::create(Args &&...) [ObjectType = std::map, ArrayType = std::vector, StringType = std::basic_string<char>, BooleanType = bool, NumberIntegerType = long, NumberUnsignedType = unsigned long, NumberFloatType = double, AllocatorType = std::allocator, JSONSerializer = nlohmann::adl_serializer, T = std::vector<nlohmann::basic_json<>>, Args = <const std::vector<nlohmann::basic_json<>> &>]\00", align 1
@__PRETTY_FUNCTION__._ZN8nlohmann10basic_jsonISt3mapSt6vectorNSt7__cxx1112basic_stringIcSt11char_traitsIcESaIcEEEblmdSaNS_14adl_serializerEE6createIS2_ISA_SaISA_EEJPKNS_6detail8json_refISA_EESI_EEEPT_DpOT0_ = private unnamed_addr constant [493 x i8] c"static T *nlohmann::basic_json<>::create(Args &&...) [ObjectType = std::map, ArrayType = std::vector, StringType = std::basic_string<char>, BooleanType = bool, NumberIntegerType = long, NumberUnsignedType = unsigned long, NumberFloatType = double, AllocatorType = std::allocator, JSONSerializer = nlohmann::adl_serializer, T = std::vector<nlohmann::basic_json<>>, Args = <const nlohmann::detail::json_ref<nlohmann::basic_json<>> *, const nlohmann::detail::json_ref<nlohmann::basic_json<>> *>]\00", align 1
@.str.96 = private unnamed_addr constant [49 x i8] c"cannot create std::vector larger than max_size()\00", align 1
@.str.97 = private unnamed_addr constant [4 x i8] c"%s\0A\00", align 1
@.str.1.98 = private unnamed_addr constant [20 x i8] c"From the C callee: \00", align 1

; Function Attrs: noinline uwtable
define internal void @_GLOBAL__sub_I_function.cpp() #0 section ".text.startup" {
  call void @__cxx_global_var_init()
  ret void
}

; Function Attrs: noinline uwtable
define internal void @__cxx_global_var_init() #0 section ".text.startup" {
  call void @_ZNSt8ios_base4InitC1Ev(ptr noundef nonnull align 1 dereferenceable(1) @_ZStL8__ioinit)
  %1 = call i32 @__cxa_atexit(ptr @_ZNSt8ios_base4InitD1Ev, ptr @_ZStL8__ioinit, ptr @__dso_handle) #3
  ret void
}

declare void @_ZNSt8ios_base4InitC1Ev(ptr noundef nonnull align 1 dereferenceable(1)) unnamed_addr #1

; Function Attrs: nounwind
declare void @_ZNSt8ios_base4InitD1Ev(ptr noundef nonnull align 1 dereferenceable(1)) unnamed_addr #2

; Function Attrs: nounwind
declare i32 @__cxa_atexit(ptr, ptr, ptr) #3

; Function Attrs: mustprogress noinline optnone uwtable
define dso_local void @_Z7to_jsonRN8nlohmann10basic_jsonISt3mapSt6vectorNSt7__cxx1112basic_stringIcSt11char_traitsIcESaIcEEEblmdSaNS_14adl_serializerEEERK7jsonMsg(ptr noundef nonnull align 8 dereferenceable(16) %0, ptr noundef nonnull align 8 dereferenceable(64) %1) #4 personality ptr @__gxx_personality_v0 {
  %3 = alloca ptr, align 8
  %4 = alloca ptr, align 8
  %5 = alloca %"class.nlohmann::basic_json", align 8
  %6 = alloca %"class.std::initializer_list", align 8
  %7 = alloca [2 x %"class.nlohmann::detail::json_ref"], align 8
  %8 = alloca ptr, align 8
  %9 = alloca %"class.std::initializer_list", align 8
  %10 = alloca [2 x %"class.nlohmann::detail::json_ref"], align 8
  %11 = alloca ptr, align 8
  %12 = alloca ptr, align 8
  %13 = alloca i32, align 4
  %14 = alloca %"class.std::initializer_list", align 8
  %15 = alloca [2 x %"class.nlohmann::detail::json_ref"], align 8
  %16 = alloca ptr, align 8
  %17 = alloca i1, align 1
  store ptr %0, ptr %3, align 8
  store ptr %1, ptr %4, align 8
  %18 = getelementptr inbounds [2 x %"class.nlohmann::detail::json_ref"], ptr %7, i64 0, i64 0
  store i1 true, ptr %17, align 1
  store ptr %18, ptr %8, align 8
  %19 = getelementptr inbounds [2 x %"class.nlohmann::detail::json_ref"], ptr %10, i64 0, i64 0
  store ptr %19, ptr %11, align 8
  invoke void @_ZN8nlohmann6detail8json_refINS_10basic_jsonISt3mapSt6vectorNSt7__cxx1112basic_stringIcSt11char_traitsIcESaIcEEEblmdSaNS_14adl_serializerEEEEC2IJRA4_KcELi0EEEDpOT_(ptr noundef nonnull align 8 dereferenceable(25) %19, ptr noundef nonnull align 1 dereferenceable(4) @.str)
          to label %20 unwind label %79

20:                                               ; preds = %2
  %21 = getelementptr inbounds %"class.nlohmann::detail::json_ref", ptr %19, i64 1
  store ptr %21, ptr %11, align 8
  %22 = load ptr, ptr %4, align 8
  %23 = getelementptr inbounds %struct.jsonMsg, ptr %22, i32 0, i32 0
  invoke void @_ZN8nlohmann6detail8json_refINS_10basic_jsonISt3mapSt6vectorNSt7__cxx1112basic_stringIcSt11char_traitsIcESaIcEEEblmdSaNS_14adl_serializerEEEEC2IJRKSA_ELi0EEEDpOT_(ptr noundef nonnull align 8 dereferenceable(25) %21, ptr noundef nonnull align 8 dereferenceable(32) %23)
          to label %24 unwind label %79

24:                                               ; preds = %20
  %25 = getelementptr inbounds %"class.std::initializer_list", ptr %9, i32 0, i32 0
  %26 = getelementptr inbounds [2 x %"class.nlohmann::detail::json_ref"], ptr %10, i64 0, i64 0
  store ptr %26, ptr %25, align 8
  %27 = getelementptr inbounds %"class.std::initializer_list", ptr %9, i32 0, i32 1
  store i64 2, ptr %27, align 8
  %28 = getelementptr inbounds { ptr, i64 }, ptr %9, i32 0, i32 0
  %29 = load ptr, ptr %28, align 8
  %30 = getelementptr inbounds { ptr, i64 }, ptr %9, i32 0, i32 1
  %31 = load i64, ptr %30, align 8
  invoke void @_ZN8nlohmann6detail8json_refINS_10basic_jsonISt3mapSt6vectorNSt7__cxx1112basic_stringIcSt11char_traitsIcESaIcEEEblmdSaNS_14adl_serializerEEEEC2ESt16initializer_listISD_E(ptr noundef nonnull align 8 dereferenceable(25) %18, ptr %29, i64 %31)
          to label %32 unwind label %90

32:                                               ; preds = %24
  %33 = getelementptr inbounds %"class.nlohmann::detail::json_ref", ptr %18, i64 1
  store ptr %33, ptr %8, align 8
  %34 = getelementptr inbounds [2 x %"class.nlohmann::detail::json_ref"], ptr %15, i64 0, i64 0
  store ptr %34, ptr %16, align 8
  invoke void @_ZN8nlohmann6detail8json_refINS_10basic_jsonISt3mapSt6vectorNSt7__cxx1112basic_stringIcSt11char_traitsIcESaIcEEEblmdSaNS_14adl_serializerEEEEC2IJRA4_KcELi0EEEDpOT_(ptr noundef nonnull align 8 dereferenceable(25) %34, ptr noundef nonnull align 1 dereferenceable(4) @.str.1)
          to label %35 unwind label %94

35:                                               ; preds = %32
  %36 = getelementptr inbounds %"class.nlohmann::detail::json_ref", ptr %34, i64 1
  store ptr %36, ptr %16, align 8
  %37 = load ptr, ptr %4, align 8
  %38 = getelementptr inbounds %struct.jsonMsg, ptr %37, i32 0, i32 1
  invoke void @_ZN8nlohmann6detail8json_refINS_10basic_jsonISt3mapSt6vectorNSt7__cxx1112basic_stringIcSt11char_traitsIcESaIcEEEblmdSaNS_14adl_serializerEEEEC2IJRKSA_ELi0EEEDpOT_(ptr noundef nonnull align 8 dereferenceable(25) %36, ptr noundef nonnull align 8 dereferenceable(32) %38)
          to label %39 unwind label %94

39:                                               ; preds = %35
  %40 = getelementptr inbounds %"class.std::initializer_list", ptr %14, i32 0, i32 0
  %41 = getelementptr inbounds [2 x %"class.nlohmann::detail::json_ref"], ptr %15, i64 0, i64 0
  store ptr %41, ptr %40, align 8
  %42 = getelementptr inbounds %"class.std::initializer_list", ptr %14, i32 0, i32 1
  store i64 2, ptr %42, align 8
  %43 = getelementptr inbounds { ptr, i64 }, ptr %14, i32 0, i32 0
  %44 = load ptr, ptr %43, align 8
  %45 = getelementptr inbounds { ptr, i64 }, ptr %14, i32 0, i32 1
  %46 = load i64, ptr %45, align 8
  invoke void @_ZN8nlohmann6detail8json_refINS_10basic_jsonISt3mapSt6vectorNSt7__cxx1112basic_stringIcSt11char_traitsIcESaIcEEEblmdSaNS_14adl_serializerEEEEC2ESt16initializer_listISD_E(ptr noundef nonnull align 8 dereferenceable(25) %33, ptr %44, i64 %46)
          to label %47 unwind label %105

47:                                               ; preds = %39
  store i1 false, ptr %17, align 1
  %48 = getelementptr inbounds %"class.std::initializer_list", ptr %6, i32 0, i32 0
  %49 = getelementptr inbounds [2 x %"class.nlohmann::detail::json_ref"], ptr %7, i64 0, i64 0
  store ptr %49, ptr %48, align 8
  %50 = getelementptr inbounds %"class.std::initializer_list", ptr %6, i32 0, i32 1
  store i64 2, ptr %50, align 8
  %51 = getelementptr inbounds { ptr, i64 }, ptr %6, i32 0, i32 0
  %52 = load ptr, ptr %51, align 8
  %53 = getelementptr inbounds { ptr, i64 }, ptr %6, i32 0, i32 1
  %54 = load i64, ptr %53, align 8
  invoke void @_ZN8nlohmann10basic_jsonISt3mapSt6vectorNSt7__cxx1112basic_stringIcSt11char_traitsIcESaIcEEEblmdSaNS_14adl_serializerEEC2ESt16initializer_listINS_6detail8json_refISA_EEEbNSC_7value_tE(ptr noundef nonnull align 8 dereferenceable(16) %5, ptr %52, i64 %54, i1 noundef zeroext true, i8 noundef zeroext 2)
          to label %55 unwind label %109

55:                                               ; preds = %47
  %56 = load ptr, ptr %3, align 8
  %57 = call noundef nonnull align 8 dereferenceable(16) ptr @_ZN8nlohmann10basic_jsonISt3mapSt6vectorNSt7__cxx1112basic_stringIcSt11char_traitsIcESaIcEEEblmdSaNS_14adl_serializerEEaSESA_(ptr noundef nonnull align 8 dereferenceable(16) %56, ptr noundef %5) #3
  call void @_ZN8nlohmann10basic_jsonISt3mapSt6vectorNSt7__cxx1112basic_stringIcSt11char_traitsIcESaIcEEEblmdSaNS_14adl_serializerEED2Ev(ptr noundef nonnull align 8 dereferenceable(16) %5) #3
  %58 = getelementptr inbounds [2 x %"class.nlohmann::detail::json_ref"], ptr %7, i32 0, i32 0
  %59 = getelementptr inbounds %"class.nlohmann::detail::json_ref", ptr %58, i64 2
  br label %60

60:                                               ; preds = %60, %55
  %61 = phi ptr [ %59, %55 ], [ %62, %60 ]
  %62 = getelementptr inbounds %"class.nlohmann::detail::json_ref", ptr %61, i64 -1
  call void @_ZN8nlohmann6detail8json_refINS_10basic_jsonISt3mapSt6vectorNSt7__cxx1112basic_stringIcSt11char_traitsIcESaIcEEEblmdSaNS_14adl_serializerEEEED2Ev(ptr noundef nonnull align 8 dereferenceable(25) %62) #3
  %63 = icmp eq ptr %62, %58
  br i1 %63, label %64, label %60

64:                                               ; preds = %60
  %65 = getelementptr inbounds [2 x %"class.nlohmann::detail::json_ref"], ptr %15, i32 0, i32 0
  %66 = getelementptr inbounds %"class.nlohmann::detail::json_ref", ptr %65, i64 2
  br label %67

67:                                               ; preds = %67, %64
  %68 = phi ptr [ %66, %64 ], [ %69, %67 ]
  %69 = getelementptr inbounds %"class.nlohmann::detail::json_ref", ptr %68, i64 -1
  call void @_ZN8nlohmann6detail8json_refINS_10basic_jsonISt3mapSt6vectorNSt7__cxx1112basic_stringIcSt11char_traitsIcESaIcEEEblmdSaNS_14adl_serializerEEEED2Ev(ptr noundef nonnull align 8 dereferenceable(25) %69) #3
  %70 = icmp eq ptr %69, %65
  br i1 %70, label %71, label %67

71:                                               ; preds = %67
  %72 = getelementptr inbounds [2 x %"class.nlohmann::detail::json_ref"], ptr %10, i32 0, i32 0
  %73 = getelementptr inbounds %"class.nlohmann::detail::json_ref", ptr %72, i64 2
  br label %74

74:                                               ; preds = %74, %71
  %75 = phi ptr [ %73, %71 ], [ %76, %74 ]
  %76 = getelementptr inbounds %"class.nlohmann::detail::json_ref", ptr %75, i64 -1
  call void @_ZN8nlohmann6detail8json_refINS_10basic_jsonISt3mapSt6vectorNSt7__cxx1112basic_stringIcSt11char_traitsIcESaIcEEEblmdSaNS_14adl_serializerEEEED2Ev(ptr noundef nonnull align 8 dereferenceable(25) %76) #3
  %77 = icmp eq ptr %76, %72
  br i1 %77, label %78, label %74

78:                                               ; preds = %74
  ret void

79:                                               ; preds = %20, %2
  %80 = landingpad { ptr, i32 }
          cleanup
  %81 = extractvalue { ptr, i32 } %80, 0
  store ptr %81, ptr %12, align 8
  %82 = extractvalue { ptr, i32 } %80, 1
  store i32 %82, ptr %13, align 4
  %83 = load ptr, ptr %11, align 8
  %84 = icmp eq ptr %19, %83
  br i1 %84, label %89, label %85

85:                                               ; preds = %85, %79
  %86 = phi ptr [ %83, %79 ], [ %87, %85 ]
  %87 = getelementptr inbounds %"class.nlohmann::detail::json_ref", ptr %86, i64 -1
  call void @_ZN8nlohmann6detail8json_refINS_10basic_jsonISt3mapSt6vectorNSt7__cxx1112basic_stringIcSt11char_traitsIcESaIcEEEblmdSaNS_14adl_serializerEEEED2Ev(ptr noundef nonnull align 8 dereferenceable(25) %87) #3
  %88 = icmp eq ptr %87, %19
  br i1 %88, label %89, label %85

89:                                               ; preds = %85, %79
  br label %136

90:                                               ; preds = %24
  %91 = landingpad { ptr, i32 }
          cleanup
  %92 = extractvalue { ptr, i32 } %91, 0
  store ptr %92, ptr %12, align 8
  %93 = extractvalue { ptr, i32 } %91, 1
  store i32 %93, ptr %13, align 4
  br label %128

94:                                               ; preds = %35, %32
  %95 = landingpad { ptr, i32 }
          cleanup
  %96 = extractvalue { ptr, i32 } %95, 0
  store ptr %96, ptr %12, align 8
  %97 = extractvalue { ptr, i32 } %95, 1
  store i32 %97, ptr %13, align 4
  %98 = load ptr, ptr %16, align 8
  %99 = icmp eq ptr %34, %98
  br i1 %99, label %104, label %100

100:                                              ; preds = %100, %94
  %101 = phi ptr [ %98, %94 ], [ %102, %100 ]
  %102 = getelementptr inbounds %"class.nlohmann::detail::json_ref", ptr %101, i64 -1
  call void @_ZN8nlohmann6detail8json_refINS_10basic_jsonISt3mapSt6vectorNSt7__cxx1112basic_stringIcSt11char_traitsIcESaIcEEEblmdSaNS_14adl_serializerEEEED2Ev(ptr noundef nonnull align 8 dereferenceable(25) %102) #3
  %103 = icmp eq ptr %102, %34
  br i1 %103, label %104, label %100

104:                                              ; preds = %100, %94
  br label %128

105:                                              ; preds = %39
  %106 = landingpad { ptr, i32 }
          cleanup
  %107 = extractvalue { ptr, i32 } %106, 0
  store ptr %107, ptr %12, align 8
  %108 = extractvalue { ptr, i32 } %106, 1
  store i32 %108, ptr %13, align 4
  br label %120

109:                                              ; preds = %47
  %110 = landingpad { ptr, i32 }
          cleanup
  %111 = extractvalue { ptr, i32 } %110, 0
  store ptr %111, ptr %12, align 8
  %112 = extractvalue { ptr, i32 } %110, 1
  store i32 %112, ptr %13, align 4
  %113 = getelementptr inbounds [2 x %"class.nlohmann::detail::json_ref"], ptr %7, i32 0, i32 0
  %114 = getelementptr inbounds %"class.nlohmann::detail::json_ref", ptr %113, i64 2
  br label %115

115:                                              ; preds = %115, %109
  %116 = phi ptr [ %114, %109 ], [ %117, %115 ]
  %117 = getelementptr inbounds %"class.nlohmann::detail::json_ref", ptr %116, i64 -1
  call void @_ZN8nlohmann6detail8json_refINS_10basic_jsonISt3mapSt6vectorNSt7__cxx1112basic_stringIcSt11char_traitsIcESaIcEEEblmdSaNS_14adl_serializerEEEED2Ev(ptr noundef nonnull align 8 dereferenceable(25) %117) #3
  %118 = icmp eq ptr %117, %113
  br i1 %118, label %119, label %115

119:                                              ; preds = %115
  br label %120

120:                                              ; preds = %119, %105
  %121 = getelementptr inbounds [2 x %"class.nlohmann::detail::json_ref"], ptr %15, i32 0, i32 0
  %122 = getelementptr inbounds %"class.nlohmann::detail::json_ref", ptr %121, i64 2
  br label %123

123:                                              ; preds = %123, %120
  %124 = phi ptr [ %122, %120 ], [ %125, %123 ]
  %125 = getelementptr inbounds %"class.nlohmann::detail::json_ref", ptr %124, i64 -1
  call void @_ZN8nlohmann6detail8json_refINS_10basic_jsonISt3mapSt6vectorNSt7__cxx1112basic_stringIcSt11char_traitsIcESaIcEEEblmdSaNS_14adl_serializerEEEED2Ev(ptr noundef nonnull align 8 dereferenceable(25) %125) #3
  %126 = icmp eq ptr %125, %121
  br i1 %126, label %127, label %123

127:                                              ; preds = %123
  br label %128

128:                                              ; preds = %127, %104, %90
  %129 = getelementptr inbounds [2 x %"class.nlohmann::detail::json_ref"], ptr %10, i32 0, i32 0
  %130 = getelementptr inbounds %"class.nlohmann::detail::json_ref", ptr %129, i64 2
  br label %131

131:                                              ; preds = %131, %128
  %132 = phi ptr [ %130, %128 ], [ %133, %131 ]
  %133 = getelementptr inbounds %"class.nlohmann::detail::json_ref", ptr %132, i64 -1
  call void @_ZN8nlohmann6detail8json_refINS_10basic_jsonISt3mapSt6vectorNSt7__cxx1112basic_stringIcSt11char_traitsIcESaIcEEEblmdSaNS_14adl_serializerEEEED2Ev(ptr noundef nonnull align 8 dereferenceable(25) %133) #3
  %134 = icmp eq ptr %133, %129
  br i1 %134, label %135, label %131

135:                                              ; preds = %131
  br label %136

136:                                              ; preds = %135, %89
  %137 = load i1, ptr %17, align 1
  br i1 %137, label %138, label %146

138:                                              ; preds = %136
  %139 = load ptr, ptr %8, align 8
  %140 = icmp eq ptr %18, %139
  br i1 %140, label %145, label %141

141:                                              ; preds = %141, %138
  %142 = phi ptr [ %139, %138 ], [ %143, %141 ]
  %143 = getelementptr inbounds %"class.nlohmann::detail::json_ref", ptr %142, i64 -1
  call void @_ZN8nlohmann6detail8json_refINS_10basic_jsonISt3mapSt6vectorNSt7__cxx1112basic_stringIcSt11char_traitsIcESaIcEEEblmdSaNS_14adl_serializerEEEED2Ev(ptr noundef nonnull align 8 dereferenceable(25) %143) #3
  %144 = icmp eq ptr %143, %18
  br i1 %144, label %145, label %141

145:                                              ; preds = %141, %138
  br label %146

146:                                              ; preds = %145, %136
  br label %147

147:                                              ; preds = %146
  %148 = load ptr, ptr %12, align 8
  %149 = load i32, ptr %13, align 4
  %150 = insertvalue { ptr, i32 } poison, ptr %148, 0
  %151 = insertvalue { ptr, i32 } %150, i32 %149, 1
  resume { ptr, i32 } %151
}

declare i32 @__gxx_personality_v0(...)

; Function Attrs: noinline optnone uwtable
define linkonce_odr dso_local void @_ZN8nlohmann6detail8json_refINS_10basic_jsonISt3mapSt6vectorNSt7__cxx1112basic_stringIcSt11char_traitsIcESaIcEEEblmdSaNS_14adl_serializerEEEEC2IJRA4_KcELi0EEEDpOT_(ptr noundef nonnull align 8 dereferenceable(25) %0, ptr noundef nonnull align 1 dereferenceable(4) %1) unnamed_addr #5 comdat align 2 {
  %3 = alloca ptr, align 8
  %4 = alloca ptr, align 8
  store ptr %0, ptr %3, align 8
  store ptr %1, ptr %4, align 8
  %5 = load ptr, ptr %3, align 8
  %6 = getelementptr inbounds %"class.nlohmann::detail::json_ref", ptr %5, i32 0, i32 0
  %7 = load ptr, ptr %4, align 8
  call void @_ZN8nlohmann10basic_jsonISt3mapSt6vectorNSt7__cxx1112basic_stringIcSt11char_traitsIcESaIcEEEblmdSaNS_14adl_serializerEEC2IRA4_KcA4_cLi0EEEOT_(ptr noundef nonnull align 8 dereferenceable(16) %6, ptr noundef nonnull align 1 dereferenceable(4) %7)
  %8 = getelementptr inbounds %"class.nlohmann::detail::json_ref", ptr %5, i32 0, i32 1
  %9 = getelementptr inbounds %"class.nlohmann::detail::json_ref", ptr %5, i32 0, i32 0
  store ptr %9, ptr %8, align 8
  %10 = getelementptr inbounds %"class.nlohmann::detail::json_ref", ptr %5, i32 0, i32 2
  store i8 1, ptr %10, align 8
  ret void
}

; Function Attrs: noinline optnone uwtable
define linkonce_odr dso_local void @_ZN8nlohmann6detail8json_refINS_10basic_jsonISt3mapSt6vectorNSt7__cxx1112basic_stringIcSt11char_traitsIcESaIcEEEblmdSaNS_14adl_serializerEEEEC2IJRKSA_ELi0EEEDpOT_(ptr noundef nonnull align 8 dereferenceable(25) %0, ptr noundef nonnull align 8 dereferenceable(32) %1) unnamed_addr #5 comdat align 2 {
  %3 = alloca ptr, align 8
  %4 = alloca ptr, align 8
  store ptr %0, ptr %3, align 8
  store ptr %1, ptr %4, align 8
  %5 = load ptr, ptr %3, align 8
  %6 = getelementptr inbounds %"class.nlohmann::detail::json_ref", ptr %5, i32 0, i32 0
  %7 = load ptr, ptr %4, align 8
  call void @_ZN8nlohmann10basic_jsonISt3mapSt6vectorNSt7__cxx1112basic_stringIcSt11char_traitsIcESaIcEEEblmdSaNS_14adl_serializerEEC2IRKS8_S8_Li0EEEOT_(ptr noundef nonnull align 8 dereferenceable(16) %6, ptr noundef nonnull align 8 dereferenceable(32) %7)
  %8 = getelementptr inbounds %"class.nlohmann::detail::json_ref", ptr %5, i32 0, i32 1
  %9 = getelementptr inbounds %"class.nlohmann::detail::json_ref", ptr %5, i32 0, i32 0
  store ptr %9, ptr %8, align 8
  %10 = getelementptr inbounds %"class.nlohmann::detail::json_ref", ptr %5, i32 0, i32 2
  store i8 1, ptr %10, align 8
  ret void
}

; Function Attrs: noinline optnone uwtable
define linkonce_odr dso_local void @_ZN8nlohmann6detail8json_refINS_10basic_jsonISt3mapSt6vectorNSt7__cxx1112basic_stringIcSt11char_traitsIcESaIcEEEblmdSaNS_14adl_serializerEEEEC2ESt16initializer_listISD_E(ptr noundef nonnull align 8 dereferenceable(25) %0, ptr %1, i64 %2) unnamed_addr #5 comdat align 2 {
  %4 = alloca %"class.std::initializer_list", align 8
  %5 = alloca ptr, align 8
  %6 = alloca %"class.std::initializer_list", align 8
  %7 = getelementptr inbounds { ptr, i64 }, ptr %4, i32 0, i32 0
  store ptr %1, ptr %7, align 8
  %8 = getelementptr inbounds { ptr, i64 }, ptr %4, i32 0, i32 1
  store i64 %2, ptr %8, align 8
  store ptr %0, ptr %5, align 8
  %9 = load ptr, ptr %5, align 8
  %10 = getelementptr inbounds %"class.nlohmann::detail::json_ref", ptr %9, i32 0, i32 0
  call void @llvm.memcpy.p0.p0.i64(ptr align 8 %6, ptr align 8 %4, i64 16, i1 false)
  %11 = getelementptr inbounds { ptr, i64 }, ptr %6, i32 0, i32 0
  %12 = load ptr, ptr %11, align 8
  %13 = getelementptr inbounds { ptr, i64 }, ptr %6, i32 0, i32 1
  %14 = load i64, ptr %13, align 8
  call void @_ZN8nlohmann10basic_jsonISt3mapSt6vectorNSt7__cxx1112basic_stringIcSt11char_traitsIcESaIcEEEblmdSaNS_14adl_serializerEEC2ESt16initializer_listINS_6detail8json_refISA_EEEbNSC_7value_tE(ptr noundef nonnull align 8 dereferenceable(16) %10, ptr %12, i64 %14, i1 noundef zeroext true, i8 noundef zeroext 2)
  %15 = getelementptr inbounds %"class.nlohmann::detail::json_ref", ptr %9, i32 0, i32 1
  %16 = getelementptr inbounds %"class.nlohmann::detail::json_ref", ptr %9, i32 0, i32 0
  store ptr %16, ptr %15, align 8
  %17 = getelementptr inbounds %"class.nlohmann::detail::json_ref", ptr %9, i32 0, i32 2
  store i8 1, ptr %17, align 8
  ret void
}

; Function Attrs: noinline optnone uwtable
define linkonce_odr dso_local void @_ZN8nlohmann10basic_jsonISt3mapSt6vectorNSt7__cxx1112basic_stringIcSt11char_traitsIcESaIcEEEblmdSaNS_14adl_serializerEEC2ESt16initializer_listINS_6detail8json_refISA_EEEbNSC_7value_tE(ptr noundef nonnull align 8 dereferenceable(16) %0, ptr %1, i64 %2, i1 noundef zeroext %3, i8 noundef zeroext %4) unnamed_addr #5 comdat align 2 personality ptr @__gxx_personality_v0 {
  %6 = alloca %"class.std::initializer_list", align 8
  %7 = alloca ptr, align 8
  %8 = alloca i8, align 1
  %9 = alloca i8, align 1
  %10 = alloca i8, align 1
  %11 = alloca %"class.std::ios_base::Init", align 1
  %12 = alloca %"class.std::__cxx11::basic_string", align 8
  %13 = alloca %"class.std::ios_base::Init", align 1
  %14 = alloca ptr, align 8
  %15 = alloca i32, align 4
  %16 = alloca i1, align 1
  %17 = alloca %"union.nlohmann::basic_json<>::json_value", align 8
  %18 = alloca %"union.nlohmann::basic_json<>::json_value", align 8
  %19 = alloca %"union.nlohmann::basic_json<>::json_value", align 8
  %20 = alloca ptr, align 8
  %21 = alloca ptr, align 8
  %22 = getelementptr inbounds { ptr, i64 }, ptr %6, i32 0, i32 0
  store ptr %1, ptr %22, align 8
  %23 = getelementptr inbounds { ptr, i64 }, ptr %6, i32 0, i32 1
  store i64 %2, ptr %23, align 8
  store ptr %0, ptr %7, align 8
  %24 = zext i1 %3 to i8
  store i8 %24, ptr %8, align 1
  store i8 %4, ptr %9, align 1
  %25 = load ptr, ptr %7, align 8
  %26 = getelementptr inbounds %"class.nlohmann::basic_json", ptr %25, i32 0, i32 0
  store i8 0, ptr %26, align 8
  %27 = getelementptr inbounds %"class.nlohmann::basic_json", ptr %25, i32 0, i32 1
  call void @llvm.memset.p0.i64(ptr align 8 %27, i8 0, i64 8, i1 false)
  %28 = call noundef ptr @_ZNKSt16initializer_listIN8nlohmann6detail8json_refINS0_10basic_jsonISt3mapSt6vectorNSt7__cxx1112basic_stringIcSt11char_traitsIcESaIcEEEblmdSaNS0_14adl_serializerEEEEEE5beginEv(ptr noundef nonnull align 8 dereferenceable(16) %6) #3
  %29 = call noundef ptr @_ZNKSt16initializer_listIN8nlohmann6detail8json_refINS0_10basic_jsonISt3mapSt6vectorNSt7__cxx1112basic_stringIcSt11char_traitsIcESaIcEEEblmdSaNS0_14adl_serializerEEEEEE3endEv(ptr noundef nonnull align 8 dereferenceable(16) %6) #3
  %30 = call noundef zeroext i1 @_ZSt6all_ofIPKN8nlohmann6detail8json_refINS0_10basic_jsonISt3mapSt6vectorNSt7__cxx1112basic_stringIcSt11char_traitsIcESaIcEEEblmdSaNS0_14adl_serializerEEEEEZNSD_C1ESt16initializer_listISE_EbNS1_7value_tEEUlRSF_E_EbT_SM_T0_(ptr noundef %28, ptr noundef %29)
  %31 = zext i1 %30 to i8
  store i8 %31, ptr %10, align 1
  %32 = load i8, ptr %8, align 1
  %33 = trunc i8 %32 to i1
  br i1 %33, label %66, label %34

34:                                               ; preds = %5
  %35 = load i8, ptr %9, align 1
  %36 = icmp eq i8 %35, 2
  br i1 %36, label %37, label %38

37:                                               ; preds = %34
  store i8 0, ptr %10, align 1
  br label %38

38:                                               ; preds = %37, %34
  %39 = load i8, ptr %9, align 1
  %40 = icmp eq i8 %39, 1
  br i1 %40, label %41, label %45

41:                                               ; preds = %38
  %42 = load i8, ptr %10, align 1
  %43 = trunc i8 %42 to i1
  %44 = xor i1 %43, true
  br label %45

45:                                               ; preds = %41, %38
  %46 = phi i1 [ false, %38 ], [ %44, %41 ]
  %47 = xor i1 %46, true
  %48 = xor i1 %47, true
  br i1 %48, label %49, label %65

49:                                               ; preds = %45
  store i1 true, ptr %16, align 1
  %50 = call ptr @__cxa_allocate_exception(i64 32) #3
  call void @_ZNSaIcEC1Ev(ptr noundef nonnull align 1 dereferenceable(1) %13) #3
  invoke void @_ZNSt7__cxx1112basic_stringIcSt11char_traitsIcESaIcEEC2IS3_EEPKcRKS3_(ptr noundef nonnull align 8 dereferenceable(32) %12, ptr noundef @.str.86, ptr noundef nonnull align 1 dereferenceable(1) %13)
          to label %51 unwind label %53

51:                                               ; preds = %49
  invoke void @_ZN8nlohmann6detail10type_error6createEiRKNSt7__cxx1112basic_stringIcSt11char_traitsIcESaIcEEE(ptr sret(%"class.nlohmann::detail::type_error") align 8 %50, i32 noundef 301, ptr noundef nonnull align 8 dereferenceable(32) %12)
          to label %52 unwind label %57

52:                                               ; preds = %51
  store i1 false, ptr %16, align 1
  invoke void @__cxa_throw(ptr %50, ptr @_ZTIN8nlohmann6detail10type_errorE, ptr @_ZN8nlohmann6detail10type_errorD2Ev) #21
          to label %91 unwind label %57

53:                                               ; preds = %49
  %54 = landingpad { ptr, i32 }
          cleanup
  %55 = extractvalue { ptr, i32 } %54, 0
  store ptr %55, ptr %14, align 8
  %56 = extractvalue { ptr, i32 } %54, 1
  store i32 %56, ptr %15, align 4
  br label %61

57:                                               ; preds = %52, %51
  %58 = landingpad { ptr, i32 }
          cleanup
  %59 = extractvalue { ptr, i32 } %58, 0
  store ptr %59, ptr %14, align 8
  %60 = extractvalue { ptr, i32 } %58, 1
  store i32 %60, ptr %15, align 4
  call void @_ZNSt7__cxx1112basic_stringIcSt11char_traitsIcESaIcEED1Ev(ptr noundef nonnull align 8 dereferenceable(32) %12) #3
  br label %61

61:                                               ; preds = %57, %53
  call void @_ZNSaIcED1Ev(ptr noundef nonnull align 1 dereferenceable(1) %13) #3
  %62 = load i1, ptr %16, align 1
  br i1 %62, label %63, label %64

63:                                               ; preds = %61
  call void @__cxa_free_exception(ptr %50) #3
  br label %64

64:                                               ; preds = %63, %61
  br label %86

65:                                               ; preds = %45
  br label %66

66:                                               ; preds = %65, %5
  %67 = load i8, ptr %10, align 1
  %68 = trunc i8 %67 to i1
  br i1 %68, label %69, label %79

69:                                               ; preds = %66
  %70 = getelementptr inbounds %"class.nlohmann::basic_json", ptr %25, i32 0, i32 0
  store i8 1, ptr %70, align 8
  call void @_ZN8nlohmann10basic_jsonISt3mapSt6vectorNSt7__cxx1112basic_stringIcSt11char_traitsIcESaIcEEEblmdSaNS_14adl_serializerEE10json_valueC2ENS_6detail7value_tE(ptr noundef nonnull align 8 dereferenceable(8) %17, i8 noundef zeroext 1)
  %71 = getelementptr inbounds %"class.nlohmann::basic_json", ptr %25, i32 0, i32 1
  call void @llvm.memcpy.p0.p0.i64(ptr align 8 %71, ptr align 8 %17, i64 8, i1 false)
  %72 = call noundef ptr @_ZNKSt16initializer_listIN8nlohmann6detail8json_refINS0_10basic_jsonISt3mapSt6vectorNSt7__cxx1112basic_stringIcSt11char_traitsIcESaIcEEEblmdSaNS0_14adl_serializerEEEEEE5beginEv(ptr noundef nonnull align 8 dereferenceable(16) %6) #3
  %73 = call noundef ptr @_ZNKSt16initializer_listIN8nlohmann6detail8json_refINS0_10basic_jsonISt3mapSt6vectorNSt7__cxx1112basic_stringIcSt11char_traitsIcESaIcEEEblmdSaNS0_14adl_serializerEEEEEE3endEv(ptr noundef nonnull align 8 dereferenceable(16) %6) #3
  %74 = getelementptr inbounds %"union.nlohmann::basic_json<>::json_value", ptr %18, i32 0, i32 0
  store ptr %25, ptr %74, align 8
  %75 = getelementptr inbounds %"union.nlohmann::basic_json<>::json_value", ptr %18, i32 0, i32 0
  %76 = load ptr, ptr %75, align 8
  %77 = call ptr @_ZSt8for_eachIPKN8nlohmann6detail8json_refINS0_10basic_jsonISt3mapSt6vectorNSt7__cxx1112basic_stringIcSt11char_traitsIcESaIcEEEblmdSaNS0_14adl_serializerEEEEEZNSD_C1ESt16initializer_listISE_EbNS1_7value_tEEUlRSF_E0_ET0_T_SN_SM_(ptr noundef %72, ptr noundef %73, ptr %76)
  %78 = getelementptr inbounds %"union.nlohmann::basic_json<>::json_value", ptr %19, i32 0, i32 0
  store ptr %77, ptr %78, align 8
  br label %85

79:                                               ; preds = %66
  %80 = getelementptr inbounds %"class.nlohmann::basic_json", ptr %25, i32 0, i32 0
  store i8 2, ptr %80, align 8
  %81 = call noundef ptr @_ZNKSt16initializer_listIN8nlohmann6detail8json_refINS0_10basic_jsonISt3mapSt6vectorNSt7__cxx1112basic_stringIcSt11char_traitsIcESaIcEEEblmdSaNS0_14adl_serializerEEEEEE5beginEv(ptr noundef nonnull align 8 dereferenceable(16) %6) #3
  store ptr %81, ptr %20, align 8
  %82 = call noundef ptr @_ZNKSt16initializer_listIN8nlohmann6detail8json_refINS0_10basic_jsonISt3mapSt6vectorNSt7__cxx1112basic_stringIcSt11char_traitsIcESaIcEEEblmdSaNS0_14adl_serializerEEEEEE3endEv(ptr noundef nonnull align 8 dereferenceable(16) %6) #3
  store ptr %82, ptr %21, align 8
  %83 = call noundef nonnull ptr @_ZN8nlohmann10basic_jsonISt3mapSt6vectorNSt7__cxx1112basic_stringIcSt11char_traitsIcESaIcEEEblmdSaNS_14adl_serializerEE6createIS2_ISA_SaISA_EEJPKNS_6detail8json_refISA_EESI_EEEPT_DpOT0_(ptr noundef nonnull align 8 dereferenceable(8) %20, ptr noundef nonnull align 8 dereferenceable(8) %21)
  %84 = getelementptr inbounds %"class.nlohmann::basic_json", ptr %25, i32 0, i32 1
  store ptr %83, ptr %84, align 8
  br label %85

85:                                               ; preds = %79, %69
  call void @_ZNK8nlohmann10basic_jsonISt3mapSt6vectorNSt7__cxx1112basic_stringIcSt11char_traitsIcESaIcEEEblmdSaNS_14adl_serializerEE16assert_invariantEv(ptr noundef nonnull align 8 dereferenceable(16) %25) #3
  ret void

86:                                               ; preds = %64
  %87 = load ptr, ptr %14, align 8
  %88 = load i32, ptr %15, align 4
  %89 = insertvalue { ptr, i32 } poison, ptr %87, 0
  %90 = insertvalue { ptr, i32 } %89, i32 %88, 1
  resume { ptr, i32 } %90

91:                                               ; preds = %52
  unreachable
}

; Function Attrs: mustprogress noinline nounwind optnone uwtable
define linkonce_odr dso_local noundef nonnull align 8 dereferenceable(16) ptr @_ZN8nlohmann10basic_jsonISt3mapSt6vectorNSt7__cxx1112basic_stringIcSt11char_traitsIcESaIcEEEblmdSaNS_14adl_serializerEEaSESA_(ptr noundef nonnull align 8 dereferenceable(16) %0, ptr noundef %1) #6 comdat align 2 {
  %3 = alloca ptr, align 8
  %4 = alloca ptr, align 8
  store ptr %0, ptr %3, align 8
  store ptr %1, ptr %4, align 8
  %5 = load ptr, ptr %3, align 8
  call void @_ZNK8nlohmann10basic_jsonISt3mapSt6vectorNSt7__cxx1112basic_stringIcSt11char_traitsIcESaIcEEEblmdSaNS_14adl_serializerEE16assert_invariantEv(ptr noundef nonnull align 8 dereferenceable(16) %1) #3
  %6 = getelementptr inbounds %"class.nlohmann::basic_json", ptr %5, i32 0, i32 0
  %7 = getelementptr inbounds %"class.nlohmann::basic_json", ptr %1, i32 0, i32 0
  call void @_ZSt4swapIN8nlohmann6detail7value_tEENSt9enable_ifIXsr6__and_ISt6__not_ISt15__is_tuple_likeIT_EESt21is_move_constructibleIS6_ESt18is_move_assignableIS6_EEE5valueEvE4typeERS6_SF_(ptr noundef nonnull align 1 dereferenceable(1) %6, ptr noundef nonnull align 1 dereferenceable(1) %7) #3
  %8 = getelementptr inbounds %"class.nlohmann::basic_json", ptr %5, i32 0, i32 1
  %9 = getelementptr inbounds %"class.nlohmann::basic_json", ptr %1, i32 0, i32 1
  call void @_ZSt4swapIN8nlohmann10basic_jsonISt3mapSt6vectorNSt7__cxx1112basic_stringIcSt11char_traitsIcESaIcEEEblmdSaNS0_14adl_serializerEE10json_valueEENSt9enable_ifIXsr6__and_ISt6__not_ISt15__is_tuple_likeIT_EESt21is_move_constructibleISG_ESt18is_move_assignableISG_EEE5valueEvE4typeERSG_SP_(ptr noundef nonnull align 8 dereferenceable(8) %8, ptr noundef nonnull align 8 dereferenceable(8) %9) #3
  call void @_ZNK8nlohmann10basic_jsonISt3mapSt6vectorNSt7__cxx1112basic_stringIcSt11char_traitsIcESaIcEEEblmdSaNS_14adl_serializerEE16assert_invariantEv(ptr noundef nonnull align 8 dereferenceable(16) %5) #3
  ret ptr %5
}

; Function Attrs: noinline nounwind optnone uwtable
define linkonce_odr dso_local void @_ZN8nlohmann10basic_jsonISt3mapSt6vectorNSt7__cxx1112basic_stringIcSt11char_traitsIcESaIcEEEblmdSaNS_14adl_serializerEED2Ev(ptr noundef nonnull align 8 dereferenceable(16) %0) unnamed_addr #7 comdat align 2 {
  %2 = alloca ptr, align 8
  store ptr %0, ptr %2, align 8
  %3 = load ptr, ptr %2, align 8
  call void @_ZNK8nlohmann10basic_jsonISt3mapSt6vectorNSt7__cxx1112basic_stringIcSt11char_traitsIcESaIcEEEblmdSaNS_14adl_serializerEE16assert_invariantEv(ptr noundef nonnull align 8 dereferenceable(16) %3) #3
  %4 = getelementptr inbounds %"class.nlohmann::basic_json", ptr %3, i32 0, i32 1
  %5 = getelementptr inbounds %"class.nlohmann::basic_json", ptr %3, i32 0, i32 0
  %6 = load i8, ptr %5, align 8
  call void @_ZN8nlohmann10basic_jsonISt3mapSt6vectorNSt7__cxx1112basic_stringIcSt11char_traitsIcESaIcEEEblmdSaNS_14adl_serializerEE10json_value7destroyENS_6detail7value_tE(ptr noundef nonnull align 8 dereferenceable(8) %4, i8 noundef zeroext %6) #3
  ret void
}

; Function Attrs: noinline nounwind optnone uwtable
define linkonce_odr dso_local void @_ZN8nlohmann6detail8json_refINS_10basic_jsonISt3mapSt6vectorNSt7__cxx1112basic_stringIcSt11char_traitsIcESaIcEEEblmdSaNS_14adl_serializerEEEED2Ev(ptr noundef nonnull align 8 dereferenceable(25) %0) unnamed_addr #7 comdat align 2 {
  %2 = alloca ptr, align 8
  store ptr %0, ptr %2, align 8
  %3 = load ptr, ptr %2, align 8
  %4 = getelementptr inbounds %"class.nlohmann::detail::json_ref", ptr %3, i32 0, i32 0
  call void @_ZN8nlohmann10basic_jsonISt3mapSt6vectorNSt7__cxx1112basic_stringIcSt11char_traitsIcESaIcEEEblmdSaNS_14adl_serializerEED2Ev(ptr noundef nonnull align 8 dereferenceable(16) %4) #3
  ret void
}

; Function Attrs: mustprogress noinline nounwind optnone uwtable
define linkonce_odr dso_local void @_ZNK8nlohmann10basic_jsonISt3mapSt6vectorNSt7__cxx1112basic_stringIcSt11char_traitsIcESaIcEEEblmdSaNS_14adl_serializerEE16assert_invariantEv(ptr noundef nonnull align 8 dereferenceable(16) %0) #6 comdat align 2 {
  %2 = alloca ptr, align 8
  store ptr %0, ptr %2, align 8
  %3 = load ptr, ptr %2, align 8
  %4 = getelementptr inbounds %"class.nlohmann::basic_json", ptr %3, i32 0, i32 0
  %5 = load i8, ptr %4, align 8
  %6 = icmp ne i8 %5, 1
  br i1 %6, label %11, label %7

7:                                                ; preds = %1
  %8 = getelementptr inbounds %"class.nlohmann::basic_json", ptr %3, i32 0, i32 1
  %9 = load ptr, ptr %8, align 8
  %10 = icmp ne ptr %9, null
  br label %11

11:                                               ; preds = %7, %1
  %12 = phi i1 [ true, %1 ], [ %10, %7 ]
  br i1 %12, label %13, label %14

13:                                               ; preds = %11
  br label %16

14:                                               ; preds = %11
  call void @__assert_fail(ptr noundef @.str.79, ptr noundef @.str.80, i32 noundef 1093, ptr noundef @__PRETTY_FUNCTION__._ZNK8nlohmann10basic_jsonISt3mapSt6vectorNSt7__cxx1112basic_stringIcSt11char_traitsIcESaIcEEEblmdSaNS_14adl_serializerEE16assert_invariantEv) #22
  unreachable

15:                                               ; No predecessors!
  br label %16

16:                                               ; preds = %15, %13
  %17 = getelementptr inbounds %"class.nlohmann::basic_json", ptr %3, i32 0, i32 0
  %18 = load i8, ptr %17, align 8
  %19 = icmp ne i8 %18, 2
  br i1 %19, label %24, label %20

20:                                               ; preds = %16
  %21 = getelementptr inbounds %"class.nlohmann::basic_json", ptr %3, i32 0, i32 1
  %22 = load ptr, ptr %21, align 8
  %23 = icmp ne ptr %22, null
  br label %24

24:                                               ; preds = %20, %16
  %25 = phi i1 [ true, %16 ], [ %23, %20 ]
  br i1 %25, label %26, label %27

26:                                               ; preds = %24
  br label %29

27:                                               ; preds = %24
  call void @__assert_fail(ptr noundef @.str.81, ptr noundef @.str.80, i32 noundef 1094, ptr noundef @__PRETTY_FUNCTION__._ZNK8nlohmann10basic_jsonISt3mapSt6vectorNSt7__cxx1112basic_stringIcSt11char_traitsIcESaIcEEEblmdSaNS_14adl_serializerEE16assert_invariantEv) #22
  unreachable

28:                                               ; No predecessors!
  br label %29

29:                                               ; preds = %28, %26
  %30 = getelementptr inbounds %"class.nlohmann::basic_json", ptr %3, i32 0, i32 0
  %31 = load i8, ptr %30, align 8
  %32 = icmp ne i8 %31, 3
  br i1 %32, label %37, label %33

33:                                               ; preds = %29
  %34 = getelementptr inbounds %"class.nlohmann::basic_json", ptr %3, i32 0, i32 1
  %35 = load ptr, ptr %34, align 8
  %36 = icmp ne ptr %35, null
  br label %37

37:                                               ; preds = %33, %29
  %38 = phi i1 [ true, %29 ], [ %36, %33 ]
  br i1 %38, label %39, label %40

39:                                               ; preds = %37
  br label %42

40:                                               ; preds = %37
  call void @__assert_fail(ptr noundef @.str.82, ptr noundef @.str.80, i32 noundef 1095, ptr noundef @__PRETTY_FUNCTION__._ZNK8nlohmann10basic_jsonISt3mapSt6vectorNSt7__cxx1112basic_stringIcSt11char_traitsIcESaIcEEEblmdSaNS_14adl_serializerEE16assert_invariantEv) #22
  unreachable

41:                                               ; No predecessors!
  br label %42

42:                                               ; preds = %41, %39
  ret void
}

; Function Attrs: mustprogress noinline nounwind optnone uwtable
define linkonce_odr dso_local void @_ZN8nlohmann10basic_jsonISt3mapSt6vectorNSt7__cxx1112basic_stringIcSt11char_traitsIcESaIcEEEblmdSaNS_14adl_serializerEE10json_value7destroyENS_6detail7value_tE(ptr noundef nonnull align 8 dereferenceable(8) %0, i8 noundef zeroext %1) #6 comdat align 2 personality ptr @__gxx_personality_v0 {
  %3 = alloca ptr, align 8
  %4 = alloca i8, align 1
  %5 = alloca %"class.std::vector.16", align 8
  %6 = alloca %"union.nlohmann::basic_json<>::json_value", align 8
  %7 = alloca %"union.nlohmann::basic_json<>::json_value", align 8
  %8 = alloca %"union.nlohmann::basic_json<>::json_value", align 8
  %9 = alloca %"union.nlohmann::basic_json<>::json_value", align 8
  %10 = alloca ptr, align 8
  %11 = alloca %"union.nlohmann::basic_json<>::json_value", align 8
  %12 = alloca %"union.nlohmann::basic_json<>::json_value", align 8
  %13 = alloca ptr, align 8
  %14 = alloca %"class.nlohmann::basic_json", align 8
  %15 = alloca %"union.nlohmann::basic_json<>::json_value", align 8
  %16 = alloca %"union.nlohmann::basic_json<>::json_value", align 8
  %17 = alloca %"union.nlohmann::basic_json<>::json_value", align 8
  %18 = alloca %"union.nlohmann::basic_json<>::json_value", align 8
  %19 = alloca ptr, align 8
  %20 = alloca %"union.nlohmann::basic_json<>::json_value", align 8
  %21 = alloca %"union.nlohmann::basic_json<>::json_value", align 8
  %22 = alloca ptr, align 8
  %23 = alloca %"class.std::ios_base::Init", align 1
  %24 = alloca %"class.std::ios_base::Init", align 1
  %25 = alloca %"class.std::ios_base::Init", align 1
  store ptr %0, ptr %3, align 8
  store i8 %1, ptr %4, align 1
  %26 = load ptr, ptr %3, align 8
  call void @_ZNSt6vectorIN8nlohmann10basic_jsonISt3mapS_NSt7__cxx1112basic_stringIcSt11char_traitsIcESaIcEEEblmdSaNS0_14adl_serializerEEESaISA_EEC2Ev(ptr noundef nonnull align 8 dereferenceable(24) %5) #3
  %27 = load i8, ptr %4, align 1
  %28 = icmp eq i8 %27, 2
  br i1 %28, label %29, label %51

29:                                               ; preds = %2
  %30 = load ptr, ptr %26, align 8
  %31 = call noundef i64 @_ZNKSt6vectorIN8nlohmann10basic_jsonISt3mapS_NSt7__cxx1112basic_stringIcSt11char_traitsIcESaIcEEEblmdSaNS0_14adl_serializerEEESaISA_EE4sizeEv(ptr noundef nonnull align 8 dereferenceable(24) %30) #3
  invoke void @_ZNSt6vectorIN8nlohmann10basic_jsonISt3mapS_NSt7__cxx1112basic_stringIcSt11char_traitsIcESaIcEEEblmdSaNS0_14adl_serializerEEESaISA_EE7reserveEm(ptr noundef nonnull align 8 dereferenceable(24) %5, i64 noundef %31)
          to label %32 unwind label %147

32:                                               ; preds = %29
  %33 = load ptr, ptr %26, align 8
  %34 = call ptr @_ZNSt6vectorIN8nlohmann10basic_jsonISt3mapS_NSt7__cxx1112basic_stringIcSt11char_traitsIcESaIcEEEblmdSaNS0_14adl_serializerEEESaISA_EE5beginEv(ptr noundef nonnull align 8 dereferenceable(24) %33) #3
  %35 = getelementptr inbounds %"union.nlohmann::basic_json<>::json_value", ptr %6, i32 0, i32 0
  store ptr %34, ptr %35, align 8
  %36 = load ptr, ptr %26, align 8
  %37 = call ptr @_ZNSt6vectorIN8nlohmann10basic_jsonISt3mapS_NSt7__cxx1112basic_stringIcSt11char_traitsIcESaIcEEEblmdSaNS0_14adl_serializerEEESaISA_EE3endEv(ptr noundef nonnull align 8 dereferenceable(24) %36) #3
  %38 = getelementptr inbounds %"union.nlohmann::basic_json<>::json_value", ptr %7, i32 0, i32 0
  store ptr %37, ptr %38, align 8
  %39 = invoke ptr @_ZSt13back_inserterISt6vectorIN8nlohmann10basic_jsonISt3mapS0_NSt7__cxx1112basic_stringIcSt11char_traitsIcESaIcEEEblmdSaNS1_14adl_serializerEEESaISB_EEESt20back_insert_iteratorIT_ERSF_(ptr noundef nonnull align 8 dereferenceable(24) %5)
          to label %40 unwind label %147

40:                                               ; preds = %32
  %41 = getelementptr inbounds %"union.nlohmann::basic_json<>::json_value", ptr %8, i32 0, i32 0
  store ptr %39, ptr %41, align 8
  %42 = getelementptr inbounds %"union.nlohmann::basic_json<>::json_value", ptr %6, i32 0, i32 0
  %43 = load ptr, ptr %42, align 8
  %44 = getelementptr inbounds %"union.nlohmann::basic_json<>::json_value", ptr %7, i32 0, i32 0
  %45 = load ptr, ptr %44, align 8
  %46 = getelementptr inbounds %"union.nlohmann::basic_json<>::json_value", ptr %8, i32 0, i32 0
  %47 = load ptr, ptr %46, align 8
  %48 = invoke ptr @_ZSt4moveIN9__gnu_cxx17__normal_iteratorIPN8nlohmann10basic_jsonISt3mapSt6vectorNSt7__cxx1112basic_stringIcSt11char_traitsIcESaIcEEEblmdSaNS2_14adl_serializerEEES5_ISD_SaISD_EEEESt20back_insert_iteratorISG_EET0_T_SL_SK_(ptr %43, ptr %45, ptr %47)
          to label %49 unwind label %147

49:                                               ; preds = %40
  %50 = getelementptr inbounds %"union.nlohmann::basic_json<>::json_value", ptr %9, i32 0, i32 0
  store ptr %48, ptr %50, align 8
  br label %76

51:                                               ; preds = %2
  %52 = load i8, ptr %4, align 1
  %53 = icmp eq i8 %52, 1
  br i1 %53, label %54, label %75

54:                                               ; preds = %51
  %55 = load ptr, ptr %26, align 8
  %56 = call noundef i64 @_ZNKSt3mapINSt7__cxx1112basic_stringIcSt11char_traitsIcESaIcEEEN8nlohmann10basic_jsonIS_St6vectorS5_blmdSaNS6_14adl_serializerEEESt4lessIvESaISt4pairIKS5_SA_EEE4sizeEv(ptr noundef nonnull align 8 dereferenceable(48) %55) #3
  invoke void @_ZNSt6vectorIN8nlohmann10basic_jsonISt3mapS_NSt7__cxx1112basic_stringIcSt11char_traitsIcESaIcEEEblmdSaNS0_14adl_serializerEEESaISA_EE7reserveEm(ptr noundef nonnull align 8 dereferenceable(24) %5, i64 noundef %56)
          to label %57 unwind label %147

57:                                               ; preds = %54
  %58 = load ptr, ptr %26, align 8
  store ptr %58, ptr %10, align 8
  %59 = load ptr, ptr %10, align 8
  %60 = call ptr @_ZNSt3mapINSt7__cxx1112basic_stringIcSt11char_traitsIcESaIcEEEN8nlohmann10basic_jsonIS_St6vectorS5_blmdSaNS6_14adl_serializerEEESt4lessIvESaISt4pairIKS5_SA_EEE5beginEv(ptr noundef nonnull align 8 dereferenceable(48) %59) #3
  %61 = getelementptr inbounds %"union.nlohmann::basic_json<>::json_value", ptr %11, i32 0, i32 0
  store ptr %60, ptr %61, align 8
  %62 = load ptr, ptr %10, align 8
  %63 = call ptr @_ZNSt3mapINSt7__cxx1112basic_stringIcSt11char_traitsIcESaIcEEEN8nlohmann10basic_jsonIS_St6vectorS5_blmdSaNS6_14adl_serializerEEESt4lessIvESaISt4pairIKS5_SA_EEE3endEv(ptr noundef nonnull align 8 dereferenceable(48) %62) #3
  %64 = getelementptr inbounds %"union.nlohmann::basic_json<>::json_value", ptr %12, i32 0, i32 0
  store ptr %63, ptr %64, align 8
  br label %65

65:                                               ; preds = %72, %57
  %66 = call noundef zeroext i1 @_ZStneRKSt17_Rb_tree_iteratorISt4pairIKNSt7__cxx1112basic_stringIcSt11char_traitsIcESaIcEEEN8nlohmann10basic_jsonISt3mapSt6vectorS6_blmdSaNS8_14adl_serializerEEEEESH_(ptr noundef nonnull align 8 dereferenceable(8) %11, ptr noundef nonnull align 8 dereferenceable(8) %12) #3
  br i1 %66, label %67, label %74

67:                                               ; preds = %65
  %68 = call noundef nonnull align 8 dereferenceable(48) ptr @_ZNKSt17_Rb_tree_iteratorISt4pairIKNSt7__cxx1112basic_stringIcSt11char_traitsIcESaIcEEEN8nlohmann10basic_jsonISt3mapSt6vectorS6_blmdSaNS8_14adl_serializerEEEEEdeEv(ptr noundef nonnull align 8 dereferenceable(8) %11) #3
  store ptr %68, ptr %13, align 8
  %69 = load ptr, ptr %13, align 8
  %70 = getelementptr inbounds %"struct.std::pair", ptr %69, i32 0, i32 1
  invoke void @_ZNSt6vectorIN8nlohmann10basic_jsonISt3mapS_NSt7__cxx1112basic_stringIcSt11char_traitsIcESaIcEEEblmdSaNS0_14adl_serializerEEESaISA_EE9push_backEOSA_(ptr noundef nonnull align 8 dereferenceable(24) %5, ptr noundef nonnull align 8 dereferenceable(16) %70)
          to label %71 unwind label %147

71:                                               ; preds = %67
  br label %72

72:                                               ; preds = %71
  %73 = call noundef nonnull align 8 dereferenceable(8) ptr @_ZNSt17_Rb_tree_iteratorISt4pairIKNSt7__cxx1112basic_stringIcSt11char_traitsIcESaIcEEEN8nlohmann10basic_jsonISt3mapSt6vectorS6_blmdSaNS8_14adl_serializerEEEEEppEv(ptr noundef nonnull align 8 dereferenceable(8) %11) #3
  br label %65

74:                                               ; preds = %65
  br label %75

75:                                               ; preds = %74, %51
  br label %76

76:                                               ; preds = %75, %49
  br label %77

77:                                               ; preds = %130, %76
  %78 = call noundef zeroext i1 @_ZNKSt6vectorIN8nlohmann10basic_jsonISt3mapS_NSt7__cxx1112basic_stringIcSt11char_traitsIcESaIcEEEblmdSaNS0_14adl_serializerEEESaISA_EE5emptyEv(ptr noundef nonnull align 8 dereferenceable(24) %5) #3
  %79 = xor i1 %78, true
  br i1 %79, label %80, label %131

80:                                               ; preds = %77
  %81 = call noundef nonnull align 8 dereferenceable(16) ptr @_ZNSt6vectorIN8nlohmann10basic_jsonISt3mapS_NSt7__cxx1112basic_stringIcSt11char_traitsIcESaIcEEEblmdSaNS0_14adl_serializerEEESaISA_EE4backEv(ptr noundef nonnull align 8 dereferenceable(24) %5) #3
  call void @_ZN8nlohmann10basic_jsonISt3mapSt6vectorNSt7__cxx1112basic_stringIcSt11char_traitsIcESaIcEEEblmdSaNS_14adl_serializerEEC2EOSA_(ptr noundef nonnull align 8 dereferenceable(16) %14, ptr noundef nonnull align 8 dereferenceable(16) %81) #3
  call void @_ZNSt6vectorIN8nlohmann10basic_jsonISt3mapS_NSt7__cxx1112basic_stringIcSt11char_traitsIcESaIcEEEblmdSaNS0_14adl_serializerEEESaISA_EE8pop_backEv(ptr noundef nonnull align 8 dereferenceable(24) %5) #3
  %82 = call noundef zeroext i1 @_ZNK8nlohmann10basic_jsonISt3mapSt6vectorNSt7__cxx1112basic_stringIcSt11char_traitsIcESaIcEEEblmdSaNS_14adl_serializerEE8is_arrayEv(ptr noundef nonnull align 8 dereferenceable(16) %14) #3
  br i1 %82, label %83, label %106

83:                                               ; preds = %80
  %84 = getelementptr inbounds %"class.nlohmann::basic_json", ptr %14, i32 0, i32 1
  %85 = load ptr, ptr %84, align 8
  %86 = call ptr @_ZNSt6vectorIN8nlohmann10basic_jsonISt3mapS_NSt7__cxx1112basic_stringIcSt11char_traitsIcESaIcEEEblmdSaNS0_14adl_serializerEEESaISA_EE5beginEv(ptr noundef nonnull align 8 dereferenceable(24) %85) #3
  %87 = getelementptr inbounds %"union.nlohmann::basic_json<>::json_value", ptr %15, i32 0, i32 0
  store ptr %86, ptr %87, align 8
  %88 = getelementptr inbounds %"class.nlohmann::basic_json", ptr %14, i32 0, i32 1
  %89 = load ptr, ptr %88, align 8
  %90 = call ptr @_ZNSt6vectorIN8nlohmann10basic_jsonISt3mapS_NSt7__cxx1112basic_stringIcSt11char_traitsIcESaIcEEEblmdSaNS0_14adl_serializerEEESaISA_EE3endEv(ptr noundef nonnull align 8 dereferenceable(24) %89) #3
  %91 = getelementptr inbounds %"union.nlohmann::basic_json<>::json_value", ptr %16, i32 0, i32 0
  store ptr %90, ptr %91, align 8
  %92 = invoke ptr @_ZSt13back_inserterISt6vectorIN8nlohmann10basic_jsonISt3mapS0_NSt7__cxx1112basic_stringIcSt11char_traitsIcESaIcEEEblmdSaNS1_14adl_serializerEEESaISB_EEESt20back_insert_iteratorIT_ERSF_(ptr noundef nonnull align 8 dereferenceable(24) %5)
          to label %93 unwind label %147

93:                                               ; preds = %83
  %94 = getelementptr inbounds %"union.nlohmann::basic_json<>::json_value", ptr %17, i32 0, i32 0
  store ptr %92, ptr %94, align 8
  %95 = getelementptr inbounds %"union.nlohmann::basic_json<>::json_value", ptr %15, i32 0, i32 0
  %96 = load ptr, ptr %95, align 8
  %97 = getelementptr inbounds %"union.nlohmann::basic_json<>::json_value", ptr %16, i32 0, i32 0
  %98 = load ptr, ptr %97, align 8
  %99 = getelementptr inbounds %"union.nlohmann::basic_json<>::json_value", ptr %17, i32 0, i32 0
  %100 = load ptr, ptr %99, align 8
  %101 = invoke ptr @_ZSt4moveIN9__gnu_cxx17__normal_iteratorIPN8nlohmann10basic_jsonISt3mapSt6vectorNSt7__cxx1112basic_stringIcSt11char_traitsIcESaIcEEEblmdSaNS2_14adl_serializerEEES5_ISD_SaISD_EEEESt20back_insert_iteratorISG_EET0_T_SL_SK_(ptr %96, ptr %98, ptr %100)
          to label %102 unwind label %147

102:                                              ; preds = %93
  %103 = getelementptr inbounds %"union.nlohmann::basic_json<>::json_value", ptr %18, i32 0, i32 0
  store ptr %101, ptr %103, align 8
  %104 = getelementptr inbounds %"class.nlohmann::basic_json", ptr %14, i32 0, i32 1
  %105 = load ptr, ptr %104, align 8
  call void @_ZNSt6vectorIN8nlohmann10basic_jsonISt3mapS_NSt7__cxx1112basic_stringIcSt11char_traitsIcESaIcEEEblmdSaNS0_14adl_serializerEEESaISA_EE5clearEv(ptr noundef nonnull align 8 dereferenceable(24) %105) #3
  br label %130

106:                                              ; preds = %80
  %107 = call noundef zeroext i1 @_ZNK8nlohmann10basic_jsonISt3mapSt6vectorNSt7__cxx1112basic_stringIcSt11char_traitsIcESaIcEEEblmdSaNS_14adl_serializerEE9is_objectEv(ptr noundef nonnull align 8 dereferenceable(16) %14) #3
  br i1 %107, label %108, label %129

108:                                              ; preds = %106
  %109 = getelementptr inbounds %"class.nlohmann::basic_json", ptr %14, i32 0, i32 1
  %110 = load ptr, ptr %109, align 8
  store ptr %110, ptr %19, align 8
  %111 = load ptr, ptr %19, align 8
  %112 = call ptr @_ZNSt3mapINSt7__cxx1112basic_stringIcSt11char_traitsIcESaIcEEEN8nlohmann10basic_jsonIS_St6vectorS5_blmdSaNS6_14adl_serializerEEESt4lessIvESaISt4pairIKS5_SA_EEE5beginEv(ptr noundef nonnull align 8 dereferenceable(48) %111) #3
  %113 = getelementptr inbounds %"union.nlohmann::basic_json<>::json_value", ptr %20, i32 0, i32 0
  store ptr %112, ptr %113, align 8
  %114 = load ptr, ptr %19, align 8
  %115 = call ptr @_ZNSt3mapINSt7__cxx1112basic_stringIcSt11char_traitsIcESaIcEEEN8nlohmann10basic_jsonIS_St6vectorS5_blmdSaNS6_14adl_serializerEEESt4lessIvESaISt4pairIKS5_SA_EEE3endEv(ptr noundef nonnull align 8 dereferenceable(48) %114) #3
  %116 = getelementptr inbounds %"union.nlohmann::basic_json<>::json_value", ptr %21, i32 0, i32 0
  store ptr %115, ptr %116, align 8
  br label %117

117:                                              ; preds = %124, %108
  %118 = call noundef zeroext i1 @_ZStneRKSt17_Rb_tree_iteratorISt4pairIKNSt7__cxx1112basic_stringIcSt11char_traitsIcESaIcEEEN8nlohmann10basic_jsonISt3mapSt6vectorS6_blmdSaNS8_14adl_serializerEEEEESH_(ptr noundef nonnull align 8 dereferenceable(8) %20, ptr noundef nonnull align 8 dereferenceable(8) %21) #3
  br i1 %118, label %119, label %126

119:                                              ; preds = %117
  %120 = call noundef nonnull align 8 dereferenceable(48) ptr @_ZNKSt17_Rb_tree_iteratorISt4pairIKNSt7__cxx1112basic_stringIcSt11char_traitsIcESaIcEEEN8nlohmann10basic_jsonISt3mapSt6vectorS6_blmdSaNS8_14adl_serializerEEEEEdeEv(ptr noundef nonnull align 8 dereferenceable(8) %20) #3
  store ptr %120, ptr %22, align 8
  %121 = load ptr, ptr %22, align 8
  %122 = getelementptr inbounds %"struct.std::pair", ptr %121, i32 0, i32 1
  invoke void @_ZNSt6vectorIN8nlohmann10basic_jsonISt3mapS_NSt7__cxx1112basic_stringIcSt11char_traitsIcESaIcEEEblmdSaNS0_14adl_serializerEEESaISA_EE9push_backEOSA_(ptr noundef nonnull align 8 dereferenceable(24) %5, ptr noundef nonnull align 8 dereferenceable(16) %122)
          to label %123 unwind label %147

123:                                              ; preds = %119
  br label %124

124:                                              ; preds = %123
  %125 = call noundef nonnull align 8 dereferenceable(8) ptr @_ZNSt17_Rb_tree_iteratorISt4pairIKNSt7__cxx1112basic_stringIcSt11char_traitsIcESaIcEEEN8nlohmann10basic_jsonISt3mapSt6vectorS6_blmdSaNS8_14adl_serializerEEEEEppEv(ptr noundef nonnull align 8 dereferenceable(8) %20) #3
  br label %117

126:                                              ; preds = %117
  %127 = getelementptr inbounds %"class.nlohmann::basic_json", ptr %14, i32 0, i32 1
  %128 = load ptr, ptr %127, align 8
  call void @_ZNSt3mapINSt7__cxx1112basic_stringIcSt11char_traitsIcESaIcEEEN8nlohmann10basic_jsonIS_St6vectorS5_blmdSaNS6_14adl_serializerEEESt4lessIvESaISt4pairIKS5_SA_EEE5clearEv(ptr noundef nonnull align 8 dereferenceable(48) %128) #3
  br label %129

129:                                              ; preds = %126, %106
  br label %130

130:                                              ; preds = %129, %102
  call void @_ZN8nlohmann10basic_jsonISt3mapSt6vectorNSt7__cxx1112basic_stringIcSt11char_traitsIcESaIcEEEblmdSaNS_14adl_serializerEED2Ev(ptr noundef nonnull align 8 dereferenceable(16) %14) #3
  br label %77, !llvm.loop !6

131:                                              ; preds = %77
  %132 = load i8, ptr %4, align 1
  switch i8 %132, label %145 [
    i8 1, label %133
    i8 2, label %137
    i8 3, label %141
  ]

133:                                              ; preds = %131
  call void @_ZNSaISt3mapINSt7__cxx1112basic_stringIcSt11char_traitsIcESaIcEEEN8nlohmann10basic_jsonIS_St6vectorS5_blmdSaNS6_14adl_serializerEEESt4lessIvESaISt4pairIKS5_SA_EEEEC2Ev(ptr noundef nonnull align 1 dereferenceable(1) %23) #3
  %134 = load ptr, ptr %26, align 8
  call void @_ZNSt16allocator_traitsISaISt3mapINSt7__cxx1112basic_stringIcSt11char_traitsIcESaIcEEEN8nlohmann10basic_jsonIS0_St6vectorS6_blmdSaNS7_14adl_serializerEEESt4lessIvESaISt4pairIKS6_SB_EEEEE7destroyISI_EEvRSJ_PT_(ptr noundef nonnull align 1 dereferenceable(1) %23, ptr noundef %134) #3
  %135 = load ptr, ptr %26, align 8
  invoke void @_ZNSt16allocator_traitsISaISt3mapINSt7__cxx1112basic_stringIcSt11char_traitsIcESaIcEEEN8nlohmann10basic_jsonIS0_St6vectorS6_blmdSaNS7_14adl_serializerEEESt4lessIvESaISt4pairIKS6_SB_EEEEE10deallocateERSJ_PSI_m(ptr noundef nonnull align 1 dereferenceable(1) %23, ptr noundef %135, i64 noundef 1)
          to label %136 unwind label %147

136:                                              ; preds = %133
  call void @_ZNSaISt3mapINSt7__cxx1112basic_stringIcSt11char_traitsIcESaIcEEEN8nlohmann10basic_jsonIS_St6vectorS5_blmdSaNS6_14adl_serializerEEESt4lessIvESaISt4pairIKS5_SA_EEEED2Ev(ptr noundef nonnull align 1 dereferenceable(1) %23) #3
  br label %146

137:                                              ; preds = %131
  call void @_ZNSaISt6vectorIN8nlohmann10basic_jsonISt3mapS_NSt7__cxx1112basic_stringIcSt11char_traitsIcESaIcEEEblmdSaNS0_14adl_serializerEEESaISA_EEEC2Ev(ptr noundef nonnull align 1 dereferenceable(1) %24) #3
  %138 = load ptr, ptr %26, align 8
  call void @_ZNSt16allocator_traitsISaISt6vectorIN8nlohmann10basic_jsonISt3mapS0_NSt7__cxx1112basic_stringIcSt11char_traitsIcESaIcEEEblmdSaNS1_14adl_serializerEEESaISB_EEEE7destroyISD_EEvRSE_PT_(ptr noundef nonnull align 1 dereferenceable(1) %24, ptr noundef %138) #3
  %139 = load ptr, ptr %26, align 8
  invoke void @_ZNSt16allocator_traitsISaISt6vectorIN8nlohmann10basic_jsonISt3mapS0_NSt7__cxx1112basic_stringIcSt11char_traitsIcESaIcEEEblmdSaNS1_14adl_serializerEEESaISB_EEEE10deallocateERSE_PSD_m(ptr noundef nonnull align 1 dereferenceable(1) %24, ptr noundef %139, i64 noundef 1)
          to label %140 unwind label %147

140:                                              ; preds = %137
  call void @_ZNSaISt6vectorIN8nlohmann10basic_jsonISt3mapS_NSt7__cxx1112basic_stringIcSt11char_traitsIcESaIcEEEblmdSaNS0_14adl_serializerEEESaISA_EEED2Ev(ptr noundef nonnull align 1 dereferenceable(1) %24) #3
  br label %146

141:                                              ; preds = %131
  call void @_ZNSaINSt7__cxx1112basic_stringIcSt11char_traitsIcESaIcEEEEC2Ev(ptr noundef nonnull align 1 dereferenceable(1) %25) #3
  %142 = load ptr, ptr %26, align 8
  call void @_ZNSt16allocator_traitsISaINSt7__cxx1112basic_stringIcSt11char_traitsIcESaIcEEEEE7destroyIS5_EEvRS6_PT_(ptr noundef nonnull align 1 dereferenceable(1) %25, ptr noundef %142) #3
  %143 = load ptr, ptr %26, align 8
  invoke void @_ZNSt16allocator_traitsISaINSt7__cxx1112basic_stringIcSt11char_traitsIcESaIcEEEEE10deallocateERS6_PS5_m(ptr noundef nonnull align 1 dereferenceable(1) %25, ptr noundef %143, i64 noundef 1)
          to label %144 unwind label %147

144:                                              ; preds = %141
  call void @_ZNSaINSt7__cxx1112basic_stringIcSt11char_traitsIcESaIcEEEED2Ev(ptr noundef nonnull align 1 dereferenceable(1) %25) #3
  br label %146

145:                                              ; preds = %131
  br label %146

146:                                              ; preds = %145, %144, %140, %136
  call void @_ZNSt6vectorIN8nlohmann10basic_jsonISt3mapS_NSt7__cxx1112basic_stringIcSt11char_traitsIcESaIcEEEblmdSaNS0_14adl_serializerEEESaISA_EED2Ev(ptr noundef nonnull align 8 dereferenceable(24) %5) #3
  ret void

147:                                              ; preds = %141, %137, %133, %119, %93, %83, %67, %54, %40, %32, %29
  %148 = landingpad { ptr, i32 }
          catch ptr null
  %149 = extractvalue { ptr, i32 } %148, 0
  call void @__clang_call_terminate(ptr %149) #22
  unreachable
}

; Function Attrs: noinline nounwind optnone uwtable
define linkonce_odr dso_local void @_ZNSt6vectorIN8nlohmann10basic_jsonISt3mapS_NSt7__cxx1112basic_stringIcSt11char_traitsIcESaIcEEEblmdSaNS0_14adl_serializerEEESaISA_EEC2Ev(ptr noundef nonnull align 8 dereferenceable(24) %0) unnamed_addr #7 comdat align 2 {
  %2 = alloca ptr, align 8
  store ptr %0, ptr %2, align 8
  %3 = load ptr, ptr %2, align 8
  call void @_ZNSt12_Vector_baseIN8nlohmann10basic_jsonISt3mapSt6vectorNSt7__cxx1112basic_stringIcSt11char_traitsIcESaIcEEEblmdSaNS0_14adl_serializerEEESaISB_EEC2Ev(ptr noundef nonnull align 8 dereferenceable(24) %3) #3
  ret void
}

; Function Attrs: mustprogress noinline nounwind optnone uwtable
define linkonce_odr dso_local noundef i64 @_ZNKSt6vectorIN8nlohmann10basic_jsonISt3mapS_NSt7__cxx1112basic_stringIcSt11char_traitsIcESaIcEEEblmdSaNS0_14adl_serializerEEESaISA_EE4sizeEv(ptr noundef nonnull align 8 dereferenceable(24) %0) #6 comdat align 2 {
  %2 = alloca ptr, align 8
  store ptr %0, ptr %2, align 8
  %3 = load ptr, ptr %2, align 8
  %4 = getelementptr inbounds %"struct.std::_Vector_base.17", ptr %3, i32 0, i32 0
  %5 = getelementptr inbounds %"struct.std::_Vector_base<nlohmann::basic_json<>, std::allocator<nlohmann::basic_json<>>>::_Vector_impl_data", ptr %4, i32 0, i32 1
  %6 = load ptr, ptr %5, align 8
  %7 = getelementptr inbounds %"struct.std::_Vector_base.17", ptr %3, i32 0, i32 0
  %8 = getelementptr inbounds %"struct.std::_Vector_base<nlohmann::basic_json<>, std::allocator<nlohmann::basic_json<>>>::_Vector_impl_data", ptr %7, i32 0, i32 0
  %9 = load ptr, ptr %8, align 8
  %10 = ptrtoint ptr %6 to i64
  %11 = ptrtoint ptr %9 to i64
  %12 = sub i64 %10, %11
  %13 = sdiv exact i64 %12, 16
  ret i64 %13
}

; Function Attrs: mustprogress noinline optnone uwtable
define linkonce_odr dso_local void @_ZNSt6vectorIN8nlohmann10basic_jsonISt3mapS_NSt7__cxx1112basic_stringIcSt11char_traitsIcESaIcEEEblmdSaNS0_14adl_serializerEEESaISA_EE7reserveEm(ptr noundef nonnull align 8 dereferenceable(24) %0, i64 noundef %1) #4 comdat align 2 {
  %3 = alloca ptr, align 8
  %4 = alloca i64, align 8
  %5 = alloca i64, align 8
  %6 = alloca ptr, align 8
  store ptr %0, ptr %3, align 8
  store i64 %1, ptr %4, align 8
  %7 = load ptr, ptr %3, align 8
  %8 = load i64, ptr %4, align 8
  %9 = call noundef i64 @_ZNKSt6vectorIN8nlohmann10basic_jsonISt3mapS_NSt7__cxx1112basic_stringIcSt11char_traitsIcESaIcEEEblmdSaNS0_14adl_serializerEEESaISA_EE8max_sizeEv(ptr noundef nonnull align 8 dereferenceable(24) %7) #3
  %10 = icmp ugt i64 %8, %9
  br i1 %10, label %11, label %12

11:                                               ; preds = %2
  call void @_ZSt20__throw_length_errorPKc(ptr noundef @.str.83) #21
  unreachable

12:                                               ; preds = %2
  %13 = call noundef i64 @_ZNKSt6vectorIN8nlohmann10basic_jsonISt3mapS_NSt7__cxx1112basic_stringIcSt11char_traitsIcESaIcEEEblmdSaNS0_14adl_serializerEEESaISA_EE8capacityEv(ptr noundef nonnull align 8 dereferenceable(24) %7) #3
  %14 = load i64, ptr %4, align 8
  %15 = icmp ult i64 %13, %14
  br i1 %15, label %16, label %57

16:                                               ; preds = %12
  %17 = call noundef i64 @_ZNKSt6vectorIN8nlohmann10basic_jsonISt3mapS_NSt7__cxx1112basic_stringIcSt11char_traitsIcESaIcEEEblmdSaNS0_14adl_serializerEEESaISA_EE4sizeEv(ptr noundef nonnull align 8 dereferenceable(24) %7) #3
  store i64 %17, ptr %5, align 8
  %18 = load i64, ptr %4, align 8
  %19 = call noundef ptr @_ZNSt12_Vector_baseIN8nlohmann10basic_jsonISt3mapSt6vectorNSt7__cxx1112basic_stringIcSt11char_traitsIcESaIcEEEblmdSaNS0_14adl_serializerEEESaISB_EE11_M_allocateEm(ptr noundef nonnull align 8 dereferenceable(24) %7, i64 noundef %18)
  store ptr %19, ptr %6, align 8
  %20 = getelementptr inbounds %"struct.std::_Vector_base.17", ptr %7, i32 0, i32 0
  %21 = getelementptr inbounds %"struct.std::_Vector_base<nlohmann::basic_json<>, std::allocator<nlohmann::basic_json<>>>::_Vector_impl_data", ptr %20, i32 0, i32 0
  %22 = load ptr, ptr %21, align 8
  %23 = getelementptr inbounds %"struct.std::_Vector_base.17", ptr %7, i32 0, i32 0
  %24 = getelementptr inbounds %"struct.std::_Vector_base<nlohmann::basic_json<>, std::allocator<nlohmann::basic_json<>>>::_Vector_impl_data", ptr %23, i32 0, i32 1
  %25 = load ptr, ptr %24, align 8
  %26 = load ptr, ptr %6, align 8
  %27 = call noundef nonnull align 1 dereferenceable(1) ptr @_ZNSt12_Vector_baseIN8nlohmann10basic_jsonISt3mapSt6vectorNSt7__cxx1112basic_stringIcSt11char_traitsIcESaIcEEEblmdSaNS0_14adl_serializerEEESaISB_EE19_M_get_Tp_allocatorEv(ptr noundef nonnull align 8 dereferenceable(24) %7) #3
  %28 = call noundef ptr @_ZNSt6vectorIN8nlohmann10basic_jsonISt3mapS_NSt7__cxx1112basic_stringIcSt11char_traitsIcESaIcEEEblmdSaNS0_14adl_serializerEEESaISA_EE11_S_relocateEPSA_SD_SD_RSB_(ptr noundef %22, ptr noundef %25, ptr noundef %26, ptr noundef nonnull align 1 dereferenceable(1) %27) #3
  %29 = getelementptr inbounds %"struct.std::_Vector_base.17", ptr %7, i32 0, i32 0
  %30 = getelementptr inbounds %"struct.std::_Vector_base<nlohmann::basic_json<>, std::allocator<nlohmann::basic_json<>>>::_Vector_impl_data", ptr %29, i32 0, i32 0
  %31 = load ptr, ptr %30, align 8
  %32 = getelementptr inbounds %"struct.std::_Vector_base.17", ptr %7, i32 0, i32 0
  %33 = getelementptr inbounds %"struct.std::_Vector_base<nlohmann::basic_json<>, std::allocator<nlohmann::basic_json<>>>::_Vector_impl_data", ptr %32, i32 0, i32 2
  %34 = load ptr, ptr %33, align 8
  %35 = getelementptr inbounds %"struct.std::_Vector_base.17", ptr %7, i32 0, i32 0
  %36 = getelementptr inbounds %"struct.std::_Vector_base<nlohmann::basic_json<>, std::allocator<nlohmann::basic_json<>>>::_Vector_impl_data", ptr %35, i32 0, i32 0
  %37 = load ptr, ptr %36, align 8
  %38 = ptrtoint ptr %34 to i64
  %39 = ptrtoint ptr %37 to i64
  %40 = sub i64 %38, %39
  %41 = sdiv exact i64 %40, 16
  call void @_ZNSt12_Vector_baseIN8nlohmann10basic_jsonISt3mapSt6vectorNSt7__cxx1112basic_stringIcSt11char_traitsIcESaIcEEEblmdSaNS0_14adl_serializerEEESaISB_EE13_M_deallocateEPSB_m(ptr noundef nonnull align 8 dereferenceable(24) %7, ptr noundef %31, i64 noundef %41)
  %42 = load ptr, ptr %6, align 8
  %43 = getelementptr inbounds %"struct.std::_Vector_base.17", ptr %7, i32 0, i32 0
  %44 = getelementptr inbounds %"struct.std::_Vector_base<nlohmann::basic_json<>, std::allocator<nlohmann::basic_json<>>>::_Vector_impl_data", ptr %43, i32 0, i32 0
  store ptr %42, ptr %44, align 8
  %45 = load ptr, ptr %6, align 8
  %46 = load i64, ptr %5, align 8
  %47 = getelementptr inbounds %"class.nlohmann::basic_json", ptr %45, i64 %46
  %48 = getelementptr inbounds %"struct.std::_Vector_base.17", ptr %7, i32 0, i32 0
  %49 = getelementptr inbounds %"struct.std::_Vector_base<nlohmann::basic_json<>, std::allocator<nlohmann::basic_json<>>>::_Vector_impl_data", ptr %48, i32 0, i32 1
  store ptr %47, ptr %49, align 8
  %50 = getelementptr inbounds %"struct.std::_Vector_base.17", ptr %7, i32 0, i32 0
  %51 = getelementptr inbounds %"struct.std::_Vector_base<nlohmann::basic_json<>, std::allocator<nlohmann::basic_json<>>>::_Vector_impl_data", ptr %50, i32 0, i32 0
  %52 = load ptr, ptr %51, align 8
  %53 = load i64, ptr %4, align 8
  %54 = getelementptr inbounds %"class.nlohmann::basic_json", ptr %52, i64 %53
  %55 = getelementptr inbounds %"struct.std::_Vector_base.17", ptr %7, i32 0, i32 0
  %56 = getelementptr inbounds %"struct.std::_Vector_base<nlohmann::basic_json<>, std::allocator<nlohmann::basic_json<>>>::_Vector_impl_data", ptr %55, i32 0, i32 2
  store ptr %54, ptr %56, align 8
  br label %57

57:                                               ; preds = %16, %12
  ret void
}

; Function Attrs: mustprogress noinline nounwind optnone uwtable
define linkonce_odr dso_local ptr @_ZNSt6vectorIN8nlohmann10basic_jsonISt3mapS_NSt7__cxx1112basic_stringIcSt11char_traitsIcESaIcEEEblmdSaNS0_14adl_serializerEEESaISA_EE5beginEv(ptr noundef nonnull align 8 dereferenceable(24) %0) #6 comdat align 2 {
  %2 = alloca %"union.nlohmann::basic_json<>::json_value", align 8
  %3 = alloca ptr, align 8
  store ptr %0, ptr %3, align 8
  %4 = load ptr, ptr %3, align 8
  %5 = getelementptr inbounds %"struct.std::_Vector_base.17", ptr %4, i32 0, i32 0
  %6 = getelementptr inbounds %"struct.std::_Vector_base<nlohmann::basic_json<>, std::allocator<nlohmann::basic_json<>>>::_Vector_impl_data", ptr %5, i32 0, i32 0
  call void @_ZN9__gnu_cxx17__normal_iteratorIPN8nlohmann10basic_jsonISt3mapSt6vectorNSt7__cxx1112basic_stringIcSt11char_traitsIcESaIcEEEblmdSaNS1_14adl_serializerEEES4_ISC_SaISC_EEEC2ERKSD_(ptr noundef nonnull align 8 dereferenceable(8) %2, ptr noundef nonnull align 8 dereferenceable(8) %6) #3
  %7 = getelementptr inbounds %"union.nlohmann::basic_json<>::json_value", ptr %2, i32 0, i32 0
  %8 = load ptr, ptr %7, align 8
  ret ptr %8
}

; Function Attrs: mustprogress noinline nounwind optnone uwtable
define linkonce_odr dso_local ptr @_ZNSt6vectorIN8nlohmann10basic_jsonISt3mapS_NSt7__cxx1112basic_stringIcSt11char_traitsIcESaIcEEEblmdSaNS0_14adl_serializerEEESaISA_EE3endEv(ptr noundef nonnull align 8 dereferenceable(24) %0) #6 comdat align 2 {
  %2 = alloca %"union.nlohmann::basic_json<>::json_value", align 8
  %3 = alloca ptr, align 8
  store ptr %0, ptr %3, align 8
  %4 = load ptr, ptr %3, align 8
  %5 = getelementptr inbounds %"struct.std::_Vector_base.17", ptr %4, i32 0, i32 0
  %6 = getelementptr inbounds %"struct.std::_Vector_base<nlohmann::basic_json<>, std::allocator<nlohmann::basic_json<>>>::_Vector_impl_data", ptr %5, i32 0, i32 1
  call void @_ZN9__gnu_cxx17__normal_iteratorIPN8nlohmann10basic_jsonISt3mapSt6vectorNSt7__cxx1112basic_stringIcSt11char_traitsIcESaIcEEEblmdSaNS1_14adl_serializerEEES4_ISC_SaISC_EEEC2ERKSD_(ptr noundef nonnull align 8 dereferenceable(8) %2, ptr noundef nonnull align 8 dereferenceable(8) %6) #3
  %7 = getelementptr inbounds %"union.nlohmann::basic_json<>::json_value", ptr %2, i32 0, i32 0
  %8 = load ptr, ptr %7, align 8
  ret ptr %8
}

; Function Attrs: mustprogress noinline optnone uwtable
define linkonce_odr dso_local ptr @_ZSt13back_inserterISt6vectorIN8nlohmann10basic_jsonISt3mapS0_NSt7__cxx1112basic_stringIcSt11char_traitsIcESaIcEEEblmdSaNS1_14adl_serializerEEESaISB_EEESt20back_insert_iteratorIT_ERSF_(ptr noundef nonnull align 8 dereferenceable(24) %0) #4 comdat {
  %2 = alloca %"union.nlohmann::basic_json<>::json_value", align 8
  %3 = alloca ptr, align 8
  store ptr %0, ptr %3, align 8
  %4 = load ptr, ptr %3, align 8
  call void @_ZNSt20back_insert_iteratorISt6vectorIN8nlohmann10basic_jsonISt3mapS0_NSt7__cxx1112basic_stringIcSt11char_traitsIcESaIcEEEblmdSaNS1_14adl_serializerEEESaISB_EEEC2ERSD_(ptr noundef nonnull align 8 dereferenceable(8) %2, ptr noundef nonnull align 8 dereferenceable(24) %4)
  %5 = getelementptr inbounds %"union.nlohmann::basic_json<>::json_value", ptr %2, i32 0, i32 0
  %6 = load ptr, ptr %5, align 8
  ret ptr %6
}

; Function Attrs: mustprogress noinline optnone uwtable
define linkonce_odr dso_local ptr @_ZSt4moveIN9__gnu_cxx17__normal_iteratorIPN8nlohmann10basic_jsonISt3mapSt6vectorNSt7__cxx1112basic_stringIcSt11char_traitsIcESaIcEEEblmdSaNS2_14adl_serializerEEES5_ISD_SaISD_EEEESt20back_insert_iteratorISG_EET0_T_SL_SK_(ptr %0, ptr %1, ptr %2) #4 comdat {
  %4 = alloca %"union.nlohmann::basic_json<>::json_value", align 8
  %5 = alloca %"union.nlohmann::basic_json<>::json_value", align 8
  %6 = alloca %"union.nlohmann::basic_json<>::json_value", align 8
  %7 = alloca %"union.nlohmann::basic_json<>::json_value", align 8
  %8 = alloca %"union.nlohmann::basic_json<>::json_value", align 8
  %9 = alloca %"union.nlohmann::basic_json<>::json_value", align 8
  %10 = alloca %"union.nlohmann::basic_json<>::json_value", align 8
  %11 = alloca %"union.nlohmann::basic_json<>::json_value", align 8
  %12 = alloca %"union.nlohmann::basic_json<>::json_value", align 8
  %13 = getelementptr inbounds %"union.nlohmann::basic_json<>::json_value", ptr %5, i32 0, i32 0
  store ptr %0, ptr %13, align 8
  %14 = getelementptr inbounds %"union.nlohmann::basic_json<>::json_value", ptr %6, i32 0, i32 0
  store ptr %1, ptr %14, align 8
  %15 = getelementptr inbounds %"union.nlohmann::basic_json<>::json_value", ptr %7, i32 0, i32 0
  store ptr %2, ptr %15, align 8
  call void @llvm.memcpy.p0.p0.i64(ptr align 8 %9, ptr align 8 %5, i64 8, i1 false)
  %16 = getelementptr inbounds %"union.nlohmann::basic_json<>::json_value", ptr %9, i32 0, i32 0
  %17 = load ptr, ptr %16, align 8
  %18 = call ptr @_ZSt12__miter_baseIN9__gnu_cxx17__normal_iteratorIPN8nlohmann10basic_jsonISt3mapSt6vectorNSt7__cxx1112basic_stringIcSt11char_traitsIcESaIcEEEblmdSaNS2_14adl_serializerEEES5_ISD_SaISD_EEEEET_SI_(ptr %17)
  %19 = getelementptr inbounds %"union.nlohmann::basic_json<>::json_value", ptr %8, i32 0, i32 0
  store ptr %18, ptr %19, align 8
  call void @llvm.memcpy.p0.p0.i64(ptr align 8 %11, ptr align 8 %6, i64 8, i1 false)
  %20 = getelementptr inbounds %"union.nlohmann::basic_json<>::json_value", ptr %11, i32 0, i32 0
  %21 = load ptr, ptr %20, align 8
  %22 = call ptr @_ZSt12__miter_baseIN9__gnu_cxx17__normal_iteratorIPN8nlohmann10basic_jsonISt3mapSt6vectorNSt7__cxx1112basic_stringIcSt11char_traitsIcESaIcEEEblmdSaNS2_14adl_serializerEEES5_ISD_SaISD_EEEEET_SI_(ptr %21)
  %23 = getelementptr inbounds %"union.nlohmann::basic_json<>::json_value", ptr %10, i32 0, i32 0
  store ptr %22, ptr %23, align 8
  call void @llvm.memcpy.p0.p0.i64(ptr align 8 %12, ptr align 8 %7, i64 8, i1 false)
  %24 = getelementptr inbounds %"union.nlohmann::basic_json<>::json_value", ptr %8, i32 0, i32 0
  %25 = load ptr, ptr %24, align 8
  %26 = getelementptr inbounds %"union.nlohmann::basic_json<>::json_value", ptr %10, i32 0, i32 0
  %27 = load ptr, ptr %26, align 8
  %28 = getelementptr inbounds %"union.nlohmann::basic_json<>::json_value", ptr %12, i32 0, i32 0
  %29 = load ptr, ptr %28, align 8
  %30 = call ptr @_ZSt14__copy_move_a2ILb1EN9__gnu_cxx17__normal_iteratorIPN8nlohmann10basic_jsonISt3mapSt6vectorNSt7__cxx1112basic_stringIcSt11char_traitsIcESaIcEEEblmdSaNS2_14adl_serializerEEES5_ISD_SaISD_EEEESt20back_insert_iteratorISG_EET1_T0_SL_SK_(ptr %25, ptr %27, ptr %29)
  %31 = getelementptr inbounds %"union.nlohmann::basic_json<>::json_value", ptr %4, i32 0, i32 0
  store ptr %30, ptr %31, align 8
  %32 = getelementptr inbounds %"union.nlohmann::basic_json<>::json_value", ptr %4, i32 0, i32 0
  %33 = load ptr, ptr %32, align 8
  ret ptr %33
}

; Function Attrs: mustprogress noinline nounwind optnone uwtable
define linkonce_odr dso_local noundef i64 @_ZNKSt3mapINSt7__cxx1112basic_stringIcSt11char_traitsIcESaIcEEEN8nlohmann10basic_jsonIS_St6vectorS5_blmdSaNS6_14adl_serializerEEESt4lessIvESaISt4pairIKS5_SA_EEE4sizeEv(ptr noundef nonnull align 8 dereferenceable(48) %0) #6 comdat align 2 {
  %2 = alloca ptr, align 8
  store ptr %0, ptr %2, align 8
  %3 = load ptr, ptr %2, align 8
  %4 = getelementptr inbounds %"class.std::map", ptr %3, i32 0, i32 0
  %5 = call noundef i64 @_ZNKSt8_Rb_treeINSt7__cxx1112basic_stringIcSt11char_traitsIcESaIcEEESt4pairIKS5_N8nlohmann10basic_jsonISt3mapSt6vectorS5_blmdSaNS8_14adl_serializerEEEESt10_Select1stISE_ESt4lessIvESaISE_EE4sizeEv(ptr noundef nonnull align 8 dereferenceable(48) %4) #3
  ret i64 %5
}

; Function Attrs: mustprogress noinline nounwind optnone uwtable
define linkonce_odr dso_local ptr @_ZNSt3mapINSt7__cxx1112basic_stringIcSt11char_traitsIcESaIcEEEN8nlohmann10basic_jsonIS_St6vectorS5_blmdSaNS6_14adl_serializerEEESt4lessIvESaISt4pairIKS5_SA_EEE5beginEv(ptr noundef nonnull align 8 dereferenceable(48) %0) #6 comdat align 2 {
  %2 = alloca %"union.nlohmann::basic_json<>::json_value", align 8
  %3 = alloca ptr, align 8
  store ptr %0, ptr %3, align 8
  %4 = load ptr, ptr %3, align 8
  %5 = getelementptr inbounds %"class.std::map", ptr %4, i32 0, i32 0
  %6 = call ptr @_ZNSt8_Rb_treeINSt7__cxx1112basic_stringIcSt11char_traitsIcESaIcEEESt4pairIKS5_N8nlohmann10basic_jsonISt3mapSt6vectorS5_blmdSaNS8_14adl_serializerEEEESt10_Select1stISE_ESt4lessIvESaISE_EE5beginEv(ptr noundef nonnull align 8 dereferenceable(48) %5) #3
  %7 = getelementptr inbounds %"union.nlohmann::basic_json<>::json_value", ptr %2, i32 0, i32 0
  store ptr %6, ptr %7, align 8
  %8 = getelementptr inbounds %"union.nlohmann::basic_json<>::json_value", ptr %2, i32 0, i32 0
  %9 = load ptr, ptr %8, align 8
  ret ptr %9
}

; Function Attrs: mustprogress noinline nounwind optnone uwtable
define linkonce_odr dso_local ptr @_ZNSt3mapINSt7__cxx1112basic_stringIcSt11char_traitsIcESaIcEEEN8nlohmann10basic_jsonIS_St6vectorS5_blmdSaNS6_14adl_serializerEEESt4lessIvESaISt4pairIKS5_SA_EEE3endEv(ptr noundef nonnull align 8 dereferenceable(48) %0) #6 comdat align 2 {
  %2 = alloca %"union.nlohmann::basic_json<>::json_value", align 8
  %3 = alloca ptr, align 8
  store ptr %0, ptr %3, align 8
  %4 = load ptr, ptr %3, align 8
  %5 = getelementptr inbounds %"class.std::map", ptr %4, i32 0, i32 0
  %6 = call ptr @_ZNSt8_Rb_treeINSt7__cxx1112basic_stringIcSt11char_traitsIcESaIcEEESt4pairIKS5_N8nlohmann10basic_jsonISt3mapSt6vectorS5_blmdSaNS8_14adl_serializerEEEESt10_Select1stISE_ESt4lessIvESaISE_EE3endEv(ptr noundef nonnull align 8 dereferenceable(48) %5) #3
  %7 = getelementptr inbounds %"union.nlohmann::basic_json<>::json_value", ptr %2, i32 0, i32 0
  store ptr %6, ptr %7, align 8
  %8 = getelementptr inbounds %"union.nlohmann::basic_json<>::json_value", ptr %2, i32 0, i32 0
  %9 = load ptr, ptr %8, align 8
  ret ptr %9
}

; Function Attrs: mustprogress noinline nounwind optnone uwtable
define linkonce_odr dso_local noundef zeroext i1 @_ZStneRKSt17_Rb_tree_iteratorISt4pairIKNSt7__cxx1112basic_stringIcSt11char_traitsIcESaIcEEEN8nlohmann10basic_jsonISt3mapSt6vectorS6_blmdSaNS8_14adl_serializerEEEEESH_(ptr noundef nonnull align 8 dereferenceable(8) %0, ptr noundef nonnull align 8 dereferenceable(8) %1) #6 comdat {
  %3 = alloca ptr, align 8
  %4 = alloca ptr, align 8
  store ptr %0, ptr %3, align 8
  store ptr %1, ptr %4, align 8
  %5 = load ptr, ptr %3, align 8
  %6 = getelementptr inbounds %"union.nlohmann::basic_json<>::json_value", ptr %5, i32 0, i32 0
  %7 = load ptr, ptr %6, align 8
  %8 = load ptr, ptr %4, align 8
  %9 = getelementptr inbounds %"union.nlohmann::basic_json<>::json_value", ptr %8, i32 0, i32 0
  %10 = load ptr, ptr %9, align 8
  %11 = icmp ne ptr %7, %10
  ret i1 %11
}

; Function Attrs: mustprogress noinline nounwind optnone uwtable
define linkonce_odr dso_local noundef nonnull align 8 dereferenceable(48) ptr @_ZNKSt17_Rb_tree_iteratorISt4pairIKNSt7__cxx1112basic_stringIcSt11char_traitsIcESaIcEEEN8nlohmann10basic_jsonISt3mapSt6vectorS6_blmdSaNS8_14adl_serializerEEEEEdeEv(ptr noundef nonnull align 8 dereferenceable(8) %0) #6 comdat align 2 personality ptr @__gxx_personality_v0 {
  %2 = alloca ptr, align 8
  store ptr %0, ptr %2, align 8
  %3 = load ptr, ptr %2, align 8
  %4 = getelementptr inbounds %"union.nlohmann::basic_json<>::json_value", ptr %3, i32 0, i32 0
  %5 = load ptr, ptr %4, align 8
  %6 = invoke noundef ptr @_ZNSt13_Rb_tree_nodeISt4pairIKNSt7__cxx1112basic_stringIcSt11char_traitsIcESaIcEEEN8nlohmann10basic_jsonISt3mapSt6vectorS6_blmdSaNS8_14adl_serializerEEEEE9_M_valptrEv(ptr noundef nonnull align 8 dereferenceable(80) %5)
          to label %7 unwind label %8

7:                                                ; preds = %1
  ret ptr %6

8:                                                ; preds = %1
  %9 = landingpad { ptr, i32 }
          catch ptr null
  %10 = extractvalue { ptr, i32 } %9, 0
  call void @__clang_call_terminate(ptr %10) #22
  unreachable
}

; Function Attrs: mustprogress noinline optnone uwtable
define linkonce_odr dso_local void @_ZNSt6vectorIN8nlohmann10basic_jsonISt3mapS_NSt7__cxx1112basic_stringIcSt11char_traitsIcESaIcEEEblmdSaNS0_14adl_serializerEEESaISA_EE9push_backEOSA_(ptr noundef nonnull align 8 dereferenceable(24) %0, ptr noundef nonnull align 8 dereferenceable(16) %1) #4 comdat align 2 {
  %3 = alloca ptr, align 8
  %4 = alloca ptr, align 8
  store ptr %0, ptr %3, align 8
  store ptr %1, ptr %4, align 8
  %5 = load ptr, ptr %3, align 8
  %6 = load ptr, ptr %4, align 8
  %7 = call noundef nonnull align 8 dereferenceable(16) ptr @_ZNSt6vectorIN8nlohmann10basic_jsonISt3mapS_NSt7__cxx1112basic_stringIcSt11char_traitsIcESaIcEEEblmdSaNS0_14adl_serializerEEESaISA_EE12emplace_backIJSA_EEERSA_DpOT_(ptr noundef nonnull align 8 dereferenceable(24) %5, ptr noundef nonnull align 8 dereferenceable(16) %6)
  ret void
}

; Function Attrs: mustprogress noinline nounwind optnone uwtable
define linkonce_odr dso_local noundef nonnull align 8 dereferenceable(8) ptr @_ZNSt17_Rb_tree_iteratorISt4pairIKNSt7__cxx1112basic_stringIcSt11char_traitsIcESaIcEEEN8nlohmann10basic_jsonISt3mapSt6vectorS6_blmdSaNS8_14adl_serializerEEEEEppEv(ptr noundef nonnull align 8 dereferenceable(8) %0) #6 comdat align 2 {
  %2 = alloca ptr, align 8
  store ptr %0, ptr %2, align 8
  %3 = load ptr, ptr %2, align 8
  %4 = getelementptr inbounds %"union.nlohmann::basic_json<>::json_value", ptr %3, i32 0, i32 0
  %5 = load ptr, ptr %4, align 8
  %6 = call noundef ptr @_ZSt18_Rb_tree_incrementPSt18_Rb_tree_node_base(ptr noundef %5) #23
  %7 = getelementptr inbounds %"union.nlohmann::basic_json<>::json_value", ptr %3, i32 0, i32 0
  store ptr %6, ptr %7, align 8
  ret ptr %3
}

; Function Attrs: mustprogress noinline nounwind optnone uwtable
define linkonce_odr dso_local noundef zeroext i1 @_ZNKSt6vectorIN8nlohmann10basic_jsonISt3mapS_NSt7__cxx1112basic_stringIcSt11char_traitsIcESaIcEEEblmdSaNS0_14adl_serializerEEESaISA_EE5emptyEv(ptr noundef nonnull align 8 dereferenceable(24) %0) #6 comdat align 2 {
  %2 = alloca ptr, align 8
  %3 = alloca %"union.nlohmann::basic_json<>::json_value", align 8
  %4 = alloca %"union.nlohmann::basic_json<>::json_value", align 8
  store ptr %0, ptr %2, align 8
  %5 = load ptr, ptr %2, align 8
  %6 = call ptr @_ZNKSt6vectorIN8nlohmann10basic_jsonISt3mapS_NSt7__cxx1112basic_stringIcSt11char_traitsIcESaIcEEEblmdSaNS0_14adl_serializerEEESaISA_EE5beginEv(ptr noundef nonnull align 8 dereferenceable(24) %5) #3
  %7 = getelementptr inbounds %"union.nlohmann::basic_json<>::json_value", ptr %3, i32 0, i32 0
  store ptr %6, ptr %7, align 8
  %8 = call ptr @_ZNKSt6vectorIN8nlohmann10basic_jsonISt3mapS_NSt7__cxx1112basic_stringIcSt11char_traitsIcESaIcEEEblmdSaNS0_14adl_serializerEEESaISA_EE3endEv(ptr noundef nonnull align 8 dereferenceable(24) %5) #3
  %9 = getelementptr inbounds %"union.nlohmann::basic_json<>::json_value", ptr %4, i32 0, i32 0
  store ptr %8, ptr %9, align 8
  %10 = call noundef zeroext i1 @_ZN9__gnu_cxxeqIPKN8nlohmann10basic_jsonISt3mapSt6vectorNSt7__cxx1112basic_stringIcSt11char_traitsIcESaIcEEEblmdSaNS1_14adl_serializerEEES4_ISC_SaISC_EEEEbRKNS_17__normal_iteratorIT_T0_EESM_(ptr noundef nonnull align 8 dereferenceable(8) %3, ptr noundef nonnull align 8 dereferenceable(8) %4) #3
  ret i1 %10
}

; Function Attrs: mustprogress noinline nounwind optnone uwtable
define linkonce_odr dso_local noundef nonnull align 8 dereferenceable(16) ptr @_ZNSt6vectorIN8nlohmann10basic_jsonISt3mapS_NSt7__cxx1112basic_stringIcSt11char_traitsIcESaIcEEEblmdSaNS0_14adl_serializerEEESaISA_EE4backEv(ptr noundef nonnull align 8 dereferenceable(24) %0) #6 comdat align 2 {
  %2 = alloca ptr, align 8
  %3 = alloca %"union.nlohmann::basic_json<>::json_value", align 8
  %4 = alloca %"union.nlohmann::basic_json<>::json_value", align 8
  store ptr %0, ptr %2, align 8
  %5 = load ptr, ptr %2, align 8
  %6 = call ptr @_ZNSt6vectorIN8nlohmann10basic_jsonISt3mapS_NSt7__cxx1112basic_stringIcSt11char_traitsIcESaIcEEEblmdSaNS0_14adl_serializerEEESaISA_EE3endEv(ptr noundef nonnull align 8 dereferenceable(24) %5) #3
  %7 = getelementptr inbounds %"union.nlohmann::basic_json<>::json_value", ptr %4, i32 0, i32 0
  store ptr %6, ptr %7, align 8
  %8 = call ptr @_ZNK9__gnu_cxx17__normal_iteratorIPN8nlohmann10basic_jsonISt3mapSt6vectorNSt7__cxx1112basic_stringIcSt11char_traitsIcESaIcEEEblmdSaNS1_14adl_serializerEEES4_ISC_SaISC_EEEmiEl(ptr noundef nonnull align 8 dereferenceable(8) %4, i64 noundef 1) #3
  %9 = getelementptr inbounds %"union.nlohmann::basic_json<>::json_value", ptr %3, i32 0, i32 0
  store ptr %8, ptr %9, align 8
  %10 = call noundef nonnull align 8 dereferenceable(16) ptr @_ZNK9__gnu_cxx17__normal_iteratorIPN8nlohmann10basic_jsonISt3mapSt6vectorNSt7__cxx1112basic_stringIcSt11char_traitsIcESaIcEEEblmdSaNS1_14adl_serializerEEES4_ISC_SaISC_EEEdeEv(ptr noundef nonnull align 8 dereferenceable(8) %3) #3
  ret ptr %10
}

; Function Attrs: noinline nounwind optnone uwtable
define linkonce_odr dso_local void @_ZN8nlohmann10basic_jsonISt3mapSt6vectorNSt7__cxx1112basic_stringIcSt11char_traitsIcESaIcEEEblmdSaNS_14adl_serializerEEC2EOSA_(ptr noundef nonnull align 8 dereferenceable(16) %0, ptr noundef nonnull align 8 dereferenceable(16) %1) unnamed_addr #7 comdat align 2 {
  %3 = alloca ptr, align 8
  %4 = alloca ptr, align 8
  %5 = alloca %"union.nlohmann::basic_json<>::json_value", align 8
  store ptr %0, ptr %3, align 8
  store ptr %1, ptr %4, align 8
  %6 = load ptr, ptr %3, align 8
  %7 = getelementptr inbounds %"class.nlohmann::basic_json", ptr %6, i32 0, i32 0
  %8 = load ptr, ptr %4, align 8
  %9 = getelementptr inbounds %"class.nlohmann::basic_json", ptr %8, i32 0, i32 0
  %10 = load i8, ptr %9, align 1
  store i8 %10, ptr %7, align 8
  %11 = getelementptr inbounds %"class.nlohmann::basic_json", ptr %6, i32 0, i32 1
  %12 = load ptr, ptr %4, align 8
  %13 = getelementptr inbounds %"class.nlohmann::basic_json", ptr %12, i32 0, i32 1
  call void @llvm.memcpy.p0.p0.i64(ptr align 8 %11, ptr align 8 %13, i64 8, i1 false)
  %14 = load ptr, ptr %4, align 8
  call void @_ZNK8nlohmann10basic_jsonISt3mapSt6vectorNSt7__cxx1112basic_stringIcSt11char_traitsIcESaIcEEEblmdSaNS_14adl_serializerEE16assert_invariantEv(ptr noundef nonnull align 8 dereferenceable(16) %14) #3
  %15 = load ptr, ptr %4, align 8
  %16 = getelementptr inbounds %"class.nlohmann::basic_json", ptr %15, i32 0, i32 0
  store i8 0, ptr %16, align 8
  call void @llvm.memset.p0.i64(ptr align 8 %5, i8 0, i64 8, i1 false)
  %17 = load ptr, ptr %4, align 8
  %18 = getelementptr inbounds %"class.nlohmann::basic_json", ptr %17, i32 0, i32 1
  call void @llvm.memcpy.p0.p0.i64(ptr align 8 %18, ptr align 8 %5, i64 8, i1 false)
  call void @_ZNK8nlohmann10basic_jsonISt3mapSt6vectorNSt7__cxx1112basic_stringIcSt11char_traitsIcESaIcEEEblmdSaNS_14adl_serializerEE16assert_invariantEv(ptr noundef nonnull align 8 dereferenceable(16) %6) #3
  ret void
}

; Function Attrs: mustprogress noinline nounwind optnone uwtable
define linkonce_odr dso_local void @_ZNSt6vectorIN8nlohmann10basic_jsonISt3mapS_NSt7__cxx1112basic_stringIcSt11char_traitsIcESaIcEEEblmdSaNS0_14adl_serializerEEESaISA_EE8pop_backEv(ptr noundef nonnull align 8 dereferenceable(24) %0) #6 comdat align 2 {
  %2 = alloca ptr, align 8
  store ptr %0, ptr %2, align 8
  %3 = load ptr, ptr %2, align 8
  %4 = getelementptr inbounds %"struct.std::_Vector_base.17", ptr %3, i32 0, i32 0
  %5 = getelementptr inbounds %"struct.std::_Vector_base<nlohmann::basic_json<>, std::allocator<nlohmann::basic_json<>>>::_Vector_impl_data", ptr %4, i32 0, i32 1
  %6 = load ptr, ptr %5, align 8
  %7 = getelementptr inbounds %"class.nlohmann::basic_json", ptr %6, i32 -1
  store ptr %7, ptr %5, align 8
  %8 = getelementptr inbounds %"struct.std::_Vector_base.17", ptr %3, i32 0, i32 0
  %9 = getelementptr inbounds %"struct.std::_Vector_base.17", ptr %3, i32 0, i32 0
  %10 = getelementptr inbounds %"struct.std::_Vector_base<nlohmann::basic_json<>, std::allocator<nlohmann::basic_json<>>>::_Vector_impl_data", ptr %9, i32 0, i32 1
  %11 = load ptr, ptr %10, align 8
  call void @_ZNSt16allocator_traitsISaIN8nlohmann10basic_jsonISt3mapSt6vectorNSt7__cxx1112basic_stringIcSt11char_traitsIcESaIcEEEblmdSaNS0_14adl_serializerEEEEE7destroyISB_EEvRSC_PT_(ptr noundef nonnull align 1 dereferenceable(1) %8, ptr noundef %11) #3
  ret void
}

; Function Attrs: mustprogress noinline nounwind optnone uwtable
define linkonce_odr dso_local noundef zeroext i1 @_ZNK8nlohmann10basic_jsonISt3mapSt6vectorNSt7__cxx1112basic_stringIcSt11char_traitsIcESaIcEEEblmdSaNS_14adl_serializerEE8is_arrayEv(ptr noundef nonnull align 8 dereferenceable(16) %0) #6 comdat align 2 {
  %2 = alloca ptr, align 8
  store ptr %0, ptr %2, align 8
  %3 = load ptr, ptr %2, align 8
  %4 = getelementptr inbounds %"class.nlohmann::basic_json", ptr %3, i32 0, i32 0
  %5 = load i8, ptr %4, align 8
  %6 = icmp eq i8 %5, 2
  ret i1 %6
}

; Function Attrs: mustprogress noinline nounwind optnone uwtable
define linkonce_odr dso_local void @_ZNSt6vectorIN8nlohmann10basic_jsonISt3mapS_NSt7__cxx1112basic_stringIcSt11char_traitsIcESaIcEEEblmdSaNS0_14adl_serializerEEESaISA_EE5clearEv(ptr noundef nonnull align 8 dereferenceable(24) %0) #6 comdat align 2 {
  %2 = alloca ptr, align 8
  store ptr %0, ptr %2, align 8
  %3 = load ptr, ptr %2, align 8
  %4 = getelementptr inbounds %"struct.std::_Vector_base.17", ptr %3, i32 0, i32 0
  %5 = getelementptr inbounds %"struct.std::_Vector_base<nlohmann::basic_json<>, std::allocator<nlohmann::basic_json<>>>::_Vector_impl_data", ptr %4, i32 0, i32 0
  %6 = load ptr, ptr %5, align 8
  call void @_ZNSt6vectorIN8nlohmann10basic_jsonISt3mapS_NSt7__cxx1112basic_stringIcSt11char_traitsIcESaIcEEEblmdSaNS0_14adl_serializerEEESaISA_EE15_M_erase_at_endEPSA_(ptr noundef nonnull align 8 dereferenceable(24) %3, ptr noundef %6) #3
  ret void
}

; Function Attrs: mustprogress noinline nounwind optnone uwtable
define linkonce_odr dso_local noundef zeroext i1 @_ZNK8nlohmann10basic_jsonISt3mapSt6vectorNSt7__cxx1112basic_stringIcSt11char_traitsIcESaIcEEEblmdSaNS_14adl_serializerEE9is_objectEv(ptr noundef nonnull align 8 dereferenceable(16) %0) #6 comdat align 2 {
  %2 = alloca ptr, align 8
  store ptr %0, ptr %2, align 8
  %3 = load ptr, ptr %2, align 8
  %4 = getelementptr inbounds %"class.nlohmann::basic_json", ptr %3, i32 0, i32 0
  %5 = load i8, ptr %4, align 8
  %6 = icmp eq i8 %5, 1
  ret i1 %6
}

; Function Attrs: mustprogress noinline nounwind optnone uwtable
define linkonce_odr dso_local void @_ZNSt3mapINSt7__cxx1112basic_stringIcSt11char_traitsIcESaIcEEEN8nlohmann10basic_jsonIS_St6vectorS5_blmdSaNS6_14adl_serializerEEESt4lessIvESaISt4pairIKS5_SA_EEE5clearEv(ptr noundef nonnull align 8 dereferenceable(48) %0) #6 comdat align 2 {
  %2 = alloca ptr, align 8
  store ptr %0, ptr %2, align 8
  %3 = load ptr, ptr %2, align 8
  %4 = getelementptr inbounds %"class.std::map", ptr %3, i32 0, i32 0
  call void @_ZNSt8_Rb_treeINSt7__cxx1112basic_stringIcSt11char_traitsIcESaIcEEESt4pairIKS5_N8nlohmann10basic_jsonISt3mapSt6vectorS5_blmdSaNS8_14adl_serializerEEEESt10_Select1stISE_ESt4lessIvESaISE_EE5clearEv(ptr noundef nonnull align 8 dereferenceable(48) %4) #3
  ret void
}

; Function Attrs: noinline nounwind optnone uwtable
define linkonce_odr dso_local void @_ZNSaISt3mapINSt7__cxx1112basic_stringIcSt11char_traitsIcESaIcEEEN8nlohmann10basic_jsonIS_St6vectorS5_blmdSaNS6_14adl_serializerEEESt4lessIvESaISt4pairIKS5_SA_EEEEC2Ev(ptr noundef nonnull align 1 dereferenceable(1) %0) unnamed_addr #7 comdat align 2 {
  %2 = alloca ptr, align 8
  store ptr %0, ptr %2, align 8
  %3 = load ptr, ptr %2, align 8
  call void @_ZN9__gnu_cxx13new_allocatorISt3mapINSt7__cxx1112basic_stringIcSt11char_traitsIcESaIcEEEN8nlohmann10basic_jsonIS1_St6vectorS7_blmdSaNS8_14adl_serializerEEESt4lessIvESaISt4pairIKS7_SC_EEEEC2Ev(ptr noundef nonnull align 1 dereferenceable(1) %3) #3
  ret void
}

; Function Attrs: mustprogress noinline nounwind optnone uwtable
define linkonce_odr dso_local void @_ZNSt16allocator_traitsISaISt3mapINSt7__cxx1112basic_stringIcSt11char_traitsIcESaIcEEEN8nlohmann10basic_jsonIS0_St6vectorS6_blmdSaNS7_14adl_serializerEEESt4lessIvESaISt4pairIKS6_SB_EEEEE7destroyISI_EEvRSJ_PT_(ptr noundef nonnull align 1 dereferenceable(1) %0, ptr noundef %1) #6 comdat align 2 {
  %3 = alloca ptr, align 8
  %4 = alloca ptr, align 8
  store ptr %0, ptr %3, align 8
  store ptr %1, ptr %4, align 8
  %5 = load ptr, ptr %3, align 8
  %6 = load ptr, ptr %4, align 8
  call void @_ZN9__gnu_cxx13new_allocatorISt3mapINSt7__cxx1112basic_stringIcSt11char_traitsIcESaIcEEEN8nlohmann10basic_jsonIS1_St6vectorS7_blmdSaNS8_14adl_serializerEEESt4lessIvESaISt4pairIKS7_SC_EEEE7destroyISJ_EEvPT_(ptr noundef nonnull align 1 dereferenceable(1) %5, ptr noundef %6) #3
  ret void
}

; Function Attrs: mustprogress noinline optnone uwtable
define linkonce_odr dso_local void @_ZNSt16allocator_traitsISaISt3mapINSt7__cxx1112basic_stringIcSt11char_traitsIcESaIcEEEN8nlohmann10basic_jsonIS0_St6vectorS6_blmdSaNS7_14adl_serializerEEESt4lessIvESaISt4pairIKS6_SB_EEEEE10deallocateERSJ_PSI_m(ptr noundef nonnull align 1 dereferenceable(1) %0, ptr noundef %1, i64 noundef %2) #4 comdat align 2 {
  %4 = alloca ptr, align 8
  %5 = alloca ptr, align 8
  %6 = alloca i64, align 8
  store ptr %0, ptr %4, align 8
  store ptr %1, ptr %5, align 8
  store i64 %2, ptr %6, align 8
  %7 = load ptr, ptr %4, align 8
  %8 = load ptr, ptr %5, align 8
  %9 = load i64, ptr %6, align 8
  call void @_ZN9__gnu_cxx13new_allocatorISt3mapINSt7__cxx1112basic_stringIcSt11char_traitsIcESaIcEEEN8nlohmann10basic_jsonIS1_St6vectorS7_blmdSaNS8_14adl_serializerEEESt4lessIvESaISt4pairIKS7_SC_EEEE10deallocateEPSJ_m(ptr noundef nonnull align 1 dereferenceable(1) %7, ptr noundef %8, i64 noundef %9)
  ret void
}

; Function Attrs: noinline nounwind optnone uwtable
define linkonce_odr dso_local void @_ZNSaISt3mapINSt7__cxx1112basic_stringIcSt11char_traitsIcESaIcEEEN8nlohmann10basic_jsonIS_St6vectorS5_blmdSaNS6_14adl_serializerEEESt4lessIvESaISt4pairIKS5_SA_EEEED2Ev(ptr noundef nonnull align 1 dereferenceable(1) %0) unnamed_addr #7 comdat align 2 {
  %2 = alloca ptr, align 8
  store ptr %0, ptr %2, align 8
  %3 = load ptr, ptr %2, align 8
  call void @_ZN9__gnu_cxx13new_allocatorISt3mapINSt7__cxx1112basic_stringIcSt11char_traitsIcESaIcEEEN8nlohmann10basic_jsonIS1_St6vectorS7_blmdSaNS8_14adl_serializerEEESt4lessIvESaISt4pairIKS7_SC_EEEED2Ev(ptr noundef nonnull align 1 dereferenceable(1) %3) #3
  ret void
}

; Function Attrs: noinline nounwind optnone uwtable
define linkonce_odr dso_local void @_ZNSaISt6vectorIN8nlohmann10basic_jsonISt3mapS_NSt7__cxx1112basic_stringIcSt11char_traitsIcESaIcEEEblmdSaNS0_14adl_serializerEEESaISA_EEEC2Ev(ptr noundef nonnull align 1 dereferenceable(1) %0) unnamed_addr #7 comdat align 2 {
  %2 = alloca ptr, align 8
  store ptr %0, ptr %2, align 8
  %3 = load ptr, ptr %2, align 8
  call void @_ZN9__gnu_cxx13new_allocatorISt6vectorIN8nlohmann10basic_jsonISt3mapS1_NSt7__cxx1112basic_stringIcSt11char_traitsIcESaIcEEEblmdSaNS2_14adl_serializerEEESaISC_EEEC2Ev(ptr noundef nonnull align 1 dereferenceable(1) %3) #3
  ret void
}

; Function Attrs: mustprogress noinline nounwind optnone uwtable
define linkonce_odr dso_local void @_ZNSt16allocator_traitsISaISt6vectorIN8nlohmann10basic_jsonISt3mapS0_NSt7__cxx1112basic_stringIcSt11char_traitsIcESaIcEEEblmdSaNS1_14adl_serializerEEESaISB_EEEE7destroyISD_EEvRSE_PT_(ptr noundef nonnull align 1 dereferenceable(1) %0, ptr noundef %1) #6 comdat align 2 {
  %3 = alloca ptr, align 8
  %4 = alloca ptr, align 8
  store ptr %0, ptr %3, align 8
  store ptr %1, ptr %4, align 8
  %5 = load ptr, ptr %3, align 8
  %6 = load ptr, ptr %4, align 8
  call void @_ZN9__gnu_cxx13new_allocatorISt6vectorIN8nlohmann10basic_jsonISt3mapS1_NSt7__cxx1112basic_stringIcSt11char_traitsIcESaIcEEEblmdSaNS2_14adl_serializerEEESaISC_EEE7destroyISE_EEvPT_(ptr noundef nonnull align 1 dereferenceable(1) %5, ptr noundef %6) #3
  ret void
}

; Function Attrs: mustprogress noinline optnone uwtable
define linkonce_odr dso_local void @_ZNSt16allocator_traitsISaISt6vectorIN8nlohmann10basic_jsonISt3mapS0_NSt7__cxx1112basic_stringIcSt11char_traitsIcESaIcEEEblmdSaNS1_14adl_serializerEEESaISB_EEEE10deallocateERSE_PSD_m(ptr noundef nonnull align 1 dereferenceable(1) %0, ptr noundef %1, i64 noundef %2) #4 comdat align 2 {
  %4 = alloca ptr, align 8
  %5 = alloca ptr, align 8
  %6 = alloca i64, align 8
  store ptr %0, ptr %4, align 8
  store ptr %1, ptr %5, align 8
  store i64 %2, ptr %6, align 8
  %7 = load ptr, ptr %4, align 8
  %8 = load ptr, ptr %5, align 8
  %9 = load i64, ptr %6, align 8
  call void @_ZN9__gnu_cxx13new_allocatorISt6vectorIN8nlohmann10basic_jsonISt3mapS1_NSt7__cxx1112basic_stringIcSt11char_traitsIcESaIcEEEblmdSaNS2_14adl_serializerEEESaISC_EEE10deallocateEPSE_m(ptr noundef nonnull align 1 dereferenceable(1) %7, ptr noundef %8, i64 noundef %9)
  ret void
}

; Function Attrs: noinline nounwind optnone uwtable
define linkonce_odr dso_local void @_ZNSaISt6vectorIN8nlohmann10basic_jsonISt3mapS_NSt7__cxx1112basic_stringIcSt11char_traitsIcESaIcEEEblmdSaNS0_14adl_serializerEEESaISA_EEED2Ev(ptr noundef nonnull align 1 dereferenceable(1) %0) unnamed_addr #7 comdat align 2 {
  %2 = alloca ptr, align 8
  store ptr %0, ptr %2, align 8
  %3 = load ptr, ptr %2, align 8
  call void @_ZN9__gnu_cxx13new_allocatorISt6vectorIN8nlohmann10basic_jsonISt3mapS1_NSt7__cxx1112basic_stringIcSt11char_traitsIcESaIcEEEblmdSaNS2_14adl_serializerEEESaISC_EEED2Ev(ptr noundef nonnull align 1 dereferenceable(1) %3) #3
  ret void
}

; Function Attrs: noinline nounwind optnone uwtable
define linkonce_odr dso_local void @_ZNSaINSt7__cxx1112basic_stringIcSt11char_traitsIcESaIcEEEEC2Ev(ptr noundef nonnull align 1 dereferenceable(1) %0) unnamed_addr #7 comdat align 2 {
  %2 = alloca ptr, align 8
  store ptr %0, ptr %2, align 8
  %3 = load ptr, ptr %2, align 8
  call void @_ZN9__gnu_cxx13new_allocatorINSt7__cxx1112basic_stringIcSt11char_traitsIcESaIcEEEEC2Ev(ptr noundef nonnull align 1 dereferenceable(1) %3) #3
  ret void
}

; Function Attrs: mustprogress noinline nounwind optnone uwtable
define linkonce_odr dso_local void @_ZNSt16allocator_traitsISaINSt7__cxx1112basic_stringIcSt11char_traitsIcESaIcEEEEE7destroyIS5_EEvRS6_PT_(ptr noundef nonnull align 1 dereferenceable(1) %0, ptr noundef %1) #6 comdat align 2 {
  %3 = alloca ptr, align 8
  %4 = alloca ptr, align 8
  store ptr %0, ptr %3, align 8
  store ptr %1, ptr %4, align 8
  %5 = load ptr, ptr %3, align 8
  %6 = load ptr, ptr %4, align 8
  call void @_ZN9__gnu_cxx13new_allocatorINSt7__cxx1112basic_stringIcSt11char_traitsIcESaIcEEEE7destroyIS6_EEvPT_(ptr noundef nonnull align 1 dereferenceable(1) %5, ptr noundef %6) #3
  ret void
}

; Function Attrs: mustprogress noinline optnone uwtable
define linkonce_odr dso_local void @_ZNSt16allocator_traitsISaINSt7__cxx1112basic_stringIcSt11char_traitsIcESaIcEEEEE10deallocateERS6_PS5_m(ptr noundef nonnull align 1 dereferenceable(1) %0, ptr noundef %1, i64 noundef %2) #4 comdat align 2 {
  %4 = alloca ptr, align 8
  %5 = alloca ptr, align 8
  %6 = alloca i64, align 8
  store ptr %0, ptr %4, align 8
  store ptr %1, ptr %5, align 8
  store i64 %2, ptr %6, align 8
  %7 = load ptr, ptr %4, align 8
  %8 = load ptr, ptr %5, align 8
  %9 = load i64, ptr %6, align 8
  call void @_ZN9__gnu_cxx13new_allocatorINSt7__cxx1112basic_stringIcSt11char_traitsIcESaIcEEEE10deallocateEPS6_m(ptr noundef nonnull align 1 dereferenceable(1) %7, ptr noundef %8, i64 noundef %9)
  ret void
}

; Function Attrs: noinline nounwind optnone uwtable
define linkonce_odr dso_local void @_ZNSaINSt7__cxx1112basic_stringIcSt11char_traitsIcESaIcEEEED2Ev(ptr noundef nonnull align 1 dereferenceable(1) %0) unnamed_addr #7 comdat align 2 {
  %2 = alloca ptr, align 8
  store ptr %0, ptr %2, align 8
  %3 = load ptr, ptr %2, align 8
  call void @_ZN9__gnu_cxx13new_allocatorINSt7__cxx1112basic_stringIcSt11char_traitsIcESaIcEEEED2Ev(ptr noundef nonnull align 1 dereferenceable(1) %3) #3
  ret void
}

; Function Attrs: noinline nounwind optnone uwtable
define linkonce_odr dso_local void @_ZNSt6vectorIN8nlohmann10basic_jsonISt3mapS_NSt7__cxx1112basic_stringIcSt11char_traitsIcESaIcEEEblmdSaNS0_14adl_serializerEEESaISA_EED2Ev(ptr noundef nonnull align 8 dereferenceable(24) %0) unnamed_addr #7 comdat align 2 personality ptr @__gxx_personality_v0 {
  %2 = alloca ptr, align 8
  store ptr %0, ptr %2, align 8
  %3 = load ptr, ptr %2, align 8
  %4 = getelementptr inbounds %"struct.std::_Vector_base.17", ptr %3, i32 0, i32 0
  %5 = getelementptr inbounds %"struct.std::_Vector_base<nlohmann::basic_json<>, std::allocator<nlohmann::basic_json<>>>::_Vector_impl_data", ptr %4, i32 0, i32 0
  %6 = load ptr, ptr %5, align 8
  %7 = getelementptr inbounds %"struct.std::_Vector_base.17", ptr %3, i32 0, i32 0
  %8 = getelementptr inbounds %"struct.std::_Vector_base<nlohmann::basic_json<>, std::allocator<nlohmann::basic_json<>>>::_Vector_impl_data", ptr %7, i32 0, i32 1
  %9 = load ptr, ptr %8, align 8
  %10 = call noundef nonnull align 1 dereferenceable(1) ptr @_ZNSt12_Vector_baseIN8nlohmann10basic_jsonISt3mapSt6vectorNSt7__cxx1112basic_stringIcSt11char_traitsIcESaIcEEEblmdSaNS0_14adl_serializerEEESaISB_EE19_M_get_Tp_allocatorEv(ptr noundef nonnull align 8 dereferenceable(24) %3) #3
  invoke void @_ZSt8_DestroyIPN8nlohmann10basic_jsonISt3mapSt6vectorNSt7__cxx1112basic_stringIcSt11char_traitsIcESaIcEEEblmdSaNS0_14adl_serializerEEESB_EvT_SD_RSaIT0_E(ptr noundef %6, ptr noundef %9, ptr noundef nonnull align 1 dereferenceable(1) %10)
          to label %11 unwind label %12

11:                                               ; preds = %1
  call void @_ZNSt12_Vector_baseIN8nlohmann10basic_jsonISt3mapSt6vectorNSt7__cxx1112basic_stringIcSt11char_traitsIcESaIcEEEblmdSaNS0_14adl_serializerEEESaISB_EED2Ev(ptr noundef nonnull align 8 dereferenceable(24) %3) #3
  ret void

12:                                               ; preds = %1
  %13 = landingpad { ptr, i32 }
          catch ptr null
  %14 = extractvalue { ptr, i32 } %13, 0
  call void @__clang_call_terminate(ptr %14) #22
  unreachable
}

; Function Attrs: noinline noreturn nounwind uwtable
define linkonce_odr hidden void @__clang_call_terminate(ptr noundef %0) #8 comdat {
  %2 = call ptr @__cxa_begin_catch(ptr %0) #3
  call void @_ZSt9terminatev() #22
  unreachable
}

declare ptr @__cxa_begin_catch(ptr)

declare void @_ZSt9terminatev()

; Function Attrs: mustprogress noinline nounwind optnone uwtable
define linkonce_odr dso_local noundef nonnull align 1 dereferenceable(1) ptr @_ZNSt12_Vector_baseIN8nlohmann10basic_jsonISt3mapSt6vectorNSt7__cxx1112basic_stringIcSt11char_traitsIcESaIcEEEblmdSaNS0_14adl_serializerEEESaISB_EE19_M_get_Tp_allocatorEv(ptr noundef nonnull align 8 dereferenceable(24) %0) #6 comdat align 2 {
  %2 = alloca ptr, align 8
  store ptr %0, ptr %2, align 8
  %3 = load ptr, ptr %2, align 8
  %4 = getelementptr inbounds %"struct.std::_Vector_base.17", ptr %3, i32 0, i32 0
  ret ptr %4
}

; Function Attrs: mustprogress noinline optnone uwtable
define linkonce_odr dso_local void @_ZSt8_DestroyIPN8nlohmann10basic_jsonISt3mapSt6vectorNSt7__cxx1112basic_stringIcSt11char_traitsIcESaIcEEEblmdSaNS0_14adl_serializerEEESB_EvT_SD_RSaIT0_E(ptr noundef %0, ptr noundef %1, ptr noundef nonnull align 1 dereferenceable(1) %2) #4 comdat {
  %4 = alloca ptr, align 8
  %5 = alloca ptr, align 8
  %6 = alloca ptr, align 8
  store ptr %0, ptr %4, align 8
  store ptr %1, ptr %5, align 8
  store ptr %2, ptr %6, align 8
  %7 = load ptr, ptr %4, align 8
  %8 = load ptr, ptr %5, align 8
  call void @_ZSt8_DestroyIPN8nlohmann10basic_jsonISt3mapSt6vectorNSt7__cxx1112basic_stringIcSt11char_traitsIcESaIcEEEblmdSaNS0_14adl_serializerEEEEvT_SD_(ptr noundef %7, ptr noundef %8)
  ret void
}

; Function Attrs: noinline nounwind optnone uwtable
define linkonce_odr dso_local void @_ZNSt12_Vector_baseIN8nlohmann10basic_jsonISt3mapSt6vectorNSt7__cxx1112basic_stringIcSt11char_traitsIcESaIcEEEblmdSaNS0_14adl_serializerEEESaISB_EED2Ev(ptr noundef nonnull align 8 dereferenceable(24) %0) unnamed_addr #7 comdat align 2 personality ptr @__gxx_personality_v0 {
  %2 = alloca ptr, align 8
  store ptr %0, ptr %2, align 8
  %3 = load ptr, ptr %2, align 8
  %4 = getelementptr inbounds %"struct.std::_Vector_base.17", ptr %3, i32 0, i32 0
  %5 = getelementptr inbounds %"struct.std::_Vector_base<nlohmann::basic_json<>, std::allocator<nlohmann::basic_json<>>>::_Vector_impl_data", ptr %4, i32 0, i32 0
  %6 = load ptr, ptr %5, align 8
  %7 = getelementptr inbounds %"struct.std::_Vector_base.17", ptr %3, i32 0, i32 0
  %8 = getelementptr inbounds %"struct.std::_Vector_base<nlohmann::basic_json<>, std::allocator<nlohmann::basic_json<>>>::_Vector_impl_data", ptr %7, i32 0, i32 2
  %9 = load ptr, ptr %8, align 8
  %10 = getelementptr inbounds %"struct.std::_Vector_base.17", ptr %3, i32 0, i32 0
  %11 = getelementptr inbounds %"struct.std::_Vector_base<nlohmann::basic_json<>, std::allocator<nlohmann::basic_json<>>>::_Vector_impl_data", ptr %10, i32 0, i32 0
  %12 = load ptr, ptr %11, align 8
  %13 = ptrtoint ptr %9 to i64
  %14 = ptrtoint ptr %12 to i64
  %15 = sub i64 %13, %14
  %16 = sdiv exact i64 %15, 16
  invoke void @_ZNSt12_Vector_baseIN8nlohmann10basic_jsonISt3mapSt6vectorNSt7__cxx1112basic_stringIcSt11char_traitsIcESaIcEEEblmdSaNS0_14adl_serializerEEESaISB_EE13_M_deallocateEPSB_m(ptr noundef nonnull align 8 dereferenceable(24) %3, ptr noundef %6, i64 noundef %16)
          to label %17 unwind label %19

17:                                               ; preds = %1
  %18 = getelementptr inbounds %"struct.std::_Vector_base.17", ptr %3, i32 0, i32 0
  call void @_ZNSt12_Vector_baseIN8nlohmann10basic_jsonISt3mapSt6vectorNSt7__cxx1112basic_stringIcSt11char_traitsIcESaIcEEEblmdSaNS0_14adl_serializerEEESaISB_EE12_Vector_implD2Ev(ptr noundef nonnull align 8 dereferenceable(24) %18) #3
  ret void

19:                                               ; preds = %1
  %20 = landingpad { ptr, i32 }
          catch ptr null
  %21 = extractvalue { ptr, i32 } %20, 0
  call void @__clang_call_terminate(ptr %21) #22
  unreachable
}

; Function Attrs: mustprogress noinline optnone uwtable
define linkonce_odr dso_local void @_ZNSt12_Vector_baseIN8nlohmann10basic_jsonISt3mapSt6vectorNSt7__cxx1112basic_stringIcSt11char_traitsIcESaIcEEEblmdSaNS0_14adl_serializerEEESaISB_EE13_M_deallocateEPSB_m(ptr noundef nonnull align 8 dereferenceable(24) %0, ptr noundef %1, i64 noundef %2) #4 comdat align 2 {
  %4 = alloca ptr, align 8
  %5 = alloca ptr, align 8
  %6 = alloca i64, align 8
  store ptr %0, ptr %4, align 8
  store ptr %1, ptr %5, align 8
  store i64 %2, ptr %6, align 8
  %7 = load ptr, ptr %4, align 8
  %8 = load ptr, ptr %5, align 8
  %9 = icmp ne ptr %8, null
  br i1 %9, label %10, label %14

10:                                               ; preds = %3
  %11 = getelementptr inbounds %"struct.std::_Vector_base.17", ptr %7, i32 0, i32 0
  %12 = load ptr, ptr %5, align 8
  %13 = load i64, ptr %6, align 8
  call void @_ZNSt16allocator_traitsISaIN8nlohmann10basic_jsonISt3mapSt6vectorNSt7__cxx1112basic_stringIcSt11char_traitsIcESaIcEEEblmdSaNS0_14adl_serializerEEEEE10deallocateERSC_PSB_m(ptr noundef nonnull align 1 dereferenceable(1) %11, ptr noundef %12, i64 noundef %13)
  br label %14

14:                                               ; preds = %10, %3
  ret void
}

; Function Attrs: noinline nounwind optnone uwtable
define linkonce_odr dso_local void @_ZNSt12_Vector_baseIN8nlohmann10basic_jsonISt3mapSt6vectorNSt7__cxx1112basic_stringIcSt11char_traitsIcESaIcEEEblmdSaNS0_14adl_serializerEEESaISB_EE12_Vector_implD2Ev(ptr noundef nonnull align 8 dereferenceable(24) %0) unnamed_addr #7 comdat align 2 {
  %2 = alloca ptr, align 8
  store ptr %0, ptr %2, align 8
  %3 = load ptr, ptr %2, align 8
  call void @_ZNSaIN8nlohmann10basic_jsonISt3mapSt6vectorNSt7__cxx1112basic_stringIcSt11char_traitsIcESaIcEEEblmdSaNS_14adl_serializerEEEED2Ev(ptr noundef nonnull align 1 dereferenceable(1) %3) #3
  ret void
}

; Function Attrs: noinline nounwind optnone uwtable
define linkonce_odr dso_local void @_ZNSaIN8nlohmann10basic_jsonISt3mapSt6vectorNSt7__cxx1112basic_stringIcSt11char_traitsIcESaIcEEEblmdSaNS_14adl_serializerEEEED2Ev(ptr noundef nonnull align 1 dereferenceable(1) %0) unnamed_addr #7 comdat align 2 {
  %2 = alloca ptr, align 8
  store ptr %0, ptr %2, align 8
  %3 = load ptr, ptr %2, align 8
  call void @_ZN9__gnu_cxx13new_allocatorIN8nlohmann10basic_jsonISt3mapSt6vectorNSt7__cxx1112basic_stringIcSt11char_traitsIcESaIcEEEblmdSaNS1_14adl_serializerEEEED2Ev(ptr noundef nonnull align 1 dereferenceable(1) %3) #3
  ret void
}

; Function Attrs: noinline nounwind optnone uwtable
define linkonce_odr dso_local void @_ZN9__gnu_cxx13new_allocatorIN8nlohmann10basic_jsonISt3mapSt6vectorNSt7__cxx1112basic_stringIcSt11char_traitsIcESaIcEEEblmdSaNS1_14adl_serializerEEEED2Ev(ptr noundef nonnull align 1 dereferenceable(1) %0) unnamed_addr #7 comdat align 2 {
  %2 = alloca ptr, align 8
  store ptr %0, ptr %2, align 8
  %3 = load ptr, ptr %2, align 8
  ret void
}

; Function Attrs: mustprogress noinline optnone uwtable
define linkonce_odr dso_local void @_ZNSt16allocator_traitsISaIN8nlohmann10basic_jsonISt3mapSt6vectorNSt7__cxx1112basic_stringIcSt11char_traitsIcESaIcEEEblmdSaNS0_14adl_serializerEEEEE10deallocateERSC_PSB_m(ptr noundef nonnull align 1 dereferenceable(1) %0, ptr noundef %1, i64 noundef %2) #4 comdat align 2 {
  %4 = alloca ptr, align 8
  %5 = alloca ptr, align 8
  %6 = alloca i64, align 8
  store ptr %0, ptr %4, align 8
  store ptr %1, ptr %5, align 8
  store i64 %2, ptr %6, align 8
  %7 = load ptr, ptr %4, align 8
  %8 = load ptr, ptr %5, align 8
  %9 = load i64, ptr %6, align 8
  call void @_ZN9__gnu_cxx13new_allocatorIN8nlohmann10basic_jsonISt3mapSt6vectorNSt7__cxx1112basic_stringIcSt11char_traitsIcESaIcEEEblmdSaNS1_14adl_serializerEEEE10deallocateEPSC_m(ptr noundef nonnull align 1 dereferenceable(1) %7, ptr noundef %8, i64 noundef %9)
  ret void
}

; Function Attrs: mustprogress noinline nounwind optnone uwtable
define linkonce_odr dso_local void @_ZN9__gnu_cxx13new_allocatorIN8nlohmann10basic_jsonISt3mapSt6vectorNSt7__cxx1112basic_stringIcSt11char_traitsIcESaIcEEEblmdSaNS1_14adl_serializerEEEE10deallocateEPSC_m(ptr noundef nonnull align 1 dereferenceable(1) %0, ptr noundef %1, i64 noundef %2) #6 comdat align 2 {
  %4 = alloca ptr, align 8
  %5 = alloca ptr, align 8
  %6 = alloca i64, align 8
  store ptr %0, ptr %4, align 8
  store ptr %1, ptr %5, align 8
  store i64 %2, ptr %6, align 8
  %7 = load ptr, ptr %4, align 8
  %8 = load ptr, ptr %5, align 8
  call void @_ZdlPv(ptr noundef %8) #3
  ret void
}

; Function Attrs: nobuiltin nounwind
declare void @_ZdlPv(ptr noundef) #9

; Function Attrs: mustprogress noinline optnone uwtable
define linkonce_odr dso_local void @_ZSt8_DestroyIPN8nlohmann10basic_jsonISt3mapSt6vectorNSt7__cxx1112basic_stringIcSt11char_traitsIcESaIcEEEblmdSaNS0_14adl_serializerEEEEvT_SD_(ptr noundef %0, ptr noundef %1) #4 comdat {
  %3 = alloca ptr, align 8
  %4 = alloca ptr, align 8
  store ptr %0, ptr %3, align 8
  store ptr %1, ptr %4, align 8
  %5 = load ptr, ptr %3, align 8
  %6 = load ptr, ptr %4, align 8
  call void @_ZNSt12_Destroy_auxILb0EE9__destroyIPN8nlohmann10basic_jsonISt3mapSt6vectorNSt7__cxx1112basic_stringIcSt11char_traitsIcESaIcEEEblmdSaNS2_14adl_serializerEEEEEvT_SF_(ptr noundef %5, ptr noundef %6)
  ret void
}

; Function Attrs: mustprogress noinline optnone uwtable
define linkonce_odr dso_local void @_ZNSt12_Destroy_auxILb0EE9__destroyIPN8nlohmann10basic_jsonISt3mapSt6vectorNSt7__cxx1112basic_stringIcSt11char_traitsIcESaIcEEEblmdSaNS2_14adl_serializerEEEEEvT_SF_(ptr noundef %0, ptr noundef %1) #4 comdat align 2 {
  %3 = alloca ptr, align 8
  %4 = alloca ptr, align 8
  store ptr %0, ptr %3, align 8
  store ptr %1, ptr %4, align 8
  br label %5

5:                                                ; preds = %11, %2
  %6 = load ptr, ptr %3, align 8
  %7 = load ptr, ptr %4, align 8
  %8 = icmp ne ptr %6, %7
  br i1 %8, label %9, label %14

9:                                                ; preds = %5
  %10 = load ptr, ptr %3, align 8
  call void @_ZSt8_DestroyIN8nlohmann10basic_jsonISt3mapSt6vectorNSt7__cxx1112basic_stringIcSt11char_traitsIcESaIcEEEblmdSaNS0_14adl_serializerEEEEvPT_(ptr noundef %10)
  br label %11

11:                                               ; preds = %9
  %12 = load ptr, ptr %3, align 8
  %13 = getelementptr inbounds %"class.nlohmann::basic_json", ptr %12, i32 1
  store ptr %13, ptr %3, align 8
  br label %5, !llvm.loop !8

14:                                               ; preds = %5
  ret void
}

; Function Attrs: mustprogress noinline nounwind optnone uwtable
define linkonce_odr dso_local void @_ZSt8_DestroyIN8nlohmann10basic_jsonISt3mapSt6vectorNSt7__cxx1112basic_stringIcSt11char_traitsIcESaIcEEEblmdSaNS0_14adl_serializerEEEEvPT_(ptr noundef %0) #6 comdat {
  %2 = alloca ptr, align 8
  store ptr %0, ptr %2, align 8
  %3 = load ptr, ptr %2, align 8
  call void @_ZN8nlohmann10basic_jsonISt3mapSt6vectorNSt7__cxx1112basic_stringIcSt11char_traitsIcESaIcEEEblmdSaNS_14adl_serializerEED2Ev(ptr noundef nonnull align 8 dereferenceable(16) %3) #3
  ret void
}

; Function Attrs: noinline nounwind optnone uwtable
define linkonce_odr dso_local void @_ZN9__gnu_cxx13new_allocatorINSt7__cxx1112basic_stringIcSt11char_traitsIcESaIcEEEED2Ev(ptr noundef nonnull align 1 dereferenceable(1) %0) unnamed_addr #7 comdat align 2 {
  %2 = alloca ptr, align 8
  store ptr %0, ptr %2, align 8
  %3 = load ptr, ptr %2, align 8
  ret void
}

; Function Attrs: mustprogress noinline nounwind optnone uwtable
define linkonce_odr dso_local void @_ZN9__gnu_cxx13new_allocatorINSt7__cxx1112basic_stringIcSt11char_traitsIcESaIcEEEE10deallocateEPS6_m(ptr noundef nonnull align 1 dereferenceable(1) %0, ptr noundef %1, i64 noundef %2) #6 comdat align 2 {
  %4 = alloca ptr, align 8
  %5 = alloca ptr, align 8
  %6 = alloca i64, align 8
  store ptr %0, ptr %4, align 8
  store ptr %1, ptr %5, align 8
  store i64 %2, ptr %6, align 8
  %7 = load ptr, ptr %4, align 8
  %8 = load ptr, ptr %5, align 8
  call void @_ZdlPv(ptr noundef %8) #3
  ret void
}

; Function Attrs: mustprogress noinline nounwind optnone uwtable
define linkonce_odr dso_local void @_ZN9__gnu_cxx13new_allocatorINSt7__cxx1112basic_stringIcSt11char_traitsIcESaIcEEEE7destroyIS6_EEvPT_(ptr noundef nonnull align 1 dereferenceable(1) %0, ptr noundef %1) #6 comdat align 2 {
  %3 = alloca ptr, align 8
  %4 = alloca ptr, align 8
  store ptr %0, ptr %3, align 8
  store ptr %1, ptr %4, align 8
  %5 = load ptr, ptr %3, align 8
  %6 = load ptr, ptr %4, align 8
  call void @_ZNSt7__cxx1112basic_stringIcSt11char_traitsIcESaIcEED1Ev(ptr noundef nonnull align 8 dereferenceable(32) %6) #3
  ret void
}

; Function Attrs: nounwind
declare void @_ZNSt7__cxx1112basic_stringIcSt11char_traitsIcESaIcEED1Ev(ptr noundef nonnull align 8 dereferenceable(32)) unnamed_addr #2

; Function Attrs: noinline nounwind optnone uwtable
define linkonce_odr dso_local void @_ZN9__gnu_cxx13new_allocatorINSt7__cxx1112basic_stringIcSt11char_traitsIcESaIcEEEEC2Ev(ptr noundef nonnull align 1 dereferenceable(1) %0) unnamed_addr #7 comdat align 2 {
  %2 = alloca ptr, align 8
  store ptr %0, ptr %2, align 8
  %3 = load ptr, ptr %2, align 8
  ret void
}

; Function Attrs: noinline nounwind optnone uwtable
define linkonce_odr dso_local void @_ZN9__gnu_cxx13new_allocatorISt6vectorIN8nlohmann10basic_jsonISt3mapS1_NSt7__cxx1112basic_stringIcSt11char_traitsIcESaIcEEEblmdSaNS2_14adl_serializerEEESaISC_EEED2Ev(ptr noundef nonnull align 1 dereferenceable(1) %0) unnamed_addr #7 comdat align 2 {
  %2 = alloca ptr, align 8
  store ptr %0, ptr %2, align 8
  %3 = load ptr, ptr %2, align 8
  ret void
}

; Function Attrs: mustprogress noinline nounwind optnone uwtable
define linkonce_odr dso_local void @_ZN9__gnu_cxx13new_allocatorISt6vectorIN8nlohmann10basic_jsonISt3mapS1_NSt7__cxx1112basic_stringIcSt11char_traitsIcESaIcEEEblmdSaNS2_14adl_serializerEEESaISC_EEE10deallocateEPSE_m(ptr noundef nonnull align 1 dereferenceable(1) %0, ptr noundef %1, i64 noundef %2) #6 comdat align 2 {
  %4 = alloca ptr, align 8
  %5 = alloca ptr, align 8
  %6 = alloca i64, align 8
  store ptr %0, ptr %4, align 8
  store ptr %1, ptr %5, align 8
  store i64 %2, ptr %6, align 8
  %7 = load ptr, ptr %4, align 8
  %8 = load ptr, ptr %5, align 8
  call void @_ZdlPv(ptr noundef %8) #3
  ret void
}

; Function Attrs: mustprogress noinline nounwind optnone uwtable
define linkonce_odr dso_local void @_ZN9__gnu_cxx13new_allocatorISt6vectorIN8nlohmann10basic_jsonISt3mapS1_NSt7__cxx1112basic_stringIcSt11char_traitsIcESaIcEEEblmdSaNS2_14adl_serializerEEESaISC_EEE7destroyISE_EEvPT_(ptr noundef nonnull align 1 dereferenceable(1) %0, ptr noundef %1) #6 comdat align 2 {
  %3 = alloca ptr, align 8
  %4 = alloca ptr, align 8
  store ptr %0, ptr %3, align 8
  store ptr %1, ptr %4, align 8
  %5 = load ptr, ptr %3, align 8
  %6 = load ptr, ptr %4, align 8
  call void @_ZNSt6vectorIN8nlohmann10basic_jsonISt3mapS_NSt7__cxx1112basic_stringIcSt11char_traitsIcESaIcEEEblmdSaNS0_14adl_serializerEEESaISA_EED2Ev(ptr noundef nonnull align 8 dereferenceable(24) %6) #3
  ret void
}

; Function Attrs: noinline nounwind optnone uwtable
define linkonce_odr dso_local void @_ZN9__gnu_cxx13new_allocatorISt6vectorIN8nlohmann10basic_jsonISt3mapS1_NSt7__cxx1112basic_stringIcSt11char_traitsIcESaIcEEEblmdSaNS2_14adl_serializerEEESaISC_EEEC2Ev(ptr noundef nonnull align 1 dereferenceable(1) %0) unnamed_addr #7 comdat align 2 {
  %2 = alloca ptr, align 8
  store ptr %0, ptr %2, align 8
  %3 = load ptr, ptr %2, align 8
  ret void
}

; Function Attrs: noinline nounwind optnone uwtable
define linkonce_odr dso_local void @_ZN9__gnu_cxx13new_allocatorISt3mapINSt7__cxx1112basic_stringIcSt11char_traitsIcESaIcEEEN8nlohmann10basic_jsonIS1_St6vectorS7_blmdSaNS8_14adl_serializerEEESt4lessIvESaISt4pairIKS7_SC_EEEED2Ev(ptr noundef nonnull align 1 dereferenceable(1) %0) unnamed_addr #7 comdat align 2 {
  %2 = alloca ptr, align 8
  store ptr %0, ptr %2, align 8
  %3 = load ptr, ptr %2, align 8
  ret void
}

; Function Attrs: mustprogress noinline nounwind optnone uwtable
define linkonce_odr dso_local void @_ZN9__gnu_cxx13new_allocatorISt3mapINSt7__cxx1112basic_stringIcSt11char_traitsIcESaIcEEEN8nlohmann10basic_jsonIS1_St6vectorS7_blmdSaNS8_14adl_serializerEEESt4lessIvESaISt4pairIKS7_SC_EEEE10deallocateEPSJ_m(ptr noundef nonnull align 1 dereferenceable(1) %0, ptr noundef %1, i64 noundef %2) #6 comdat align 2 {
  %4 = alloca ptr, align 8
  %5 = alloca ptr, align 8
  %6 = alloca i64, align 8
  store ptr %0, ptr %4, align 8
  store ptr %1, ptr %5, align 8
  store i64 %2, ptr %6, align 8
  %7 = load ptr, ptr %4, align 8
  %8 = load ptr, ptr %5, align 8
  call void @_ZdlPv(ptr noundef %8) #3
  ret void
}

; Function Attrs: mustprogress noinline nounwind optnone uwtable
define linkonce_odr dso_local void @_ZN9__gnu_cxx13new_allocatorISt3mapINSt7__cxx1112basic_stringIcSt11char_traitsIcESaIcEEEN8nlohmann10basic_jsonIS1_St6vectorS7_blmdSaNS8_14adl_serializerEEESt4lessIvESaISt4pairIKS7_SC_EEEE7destroyISJ_EEvPT_(ptr noundef nonnull align 1 dereferenceable(1) %0, ptr noundef %1) #6 comdat align 2 {
  %3 = alloca ptr, align 8
  %4 = alloca ptr, align 8
  store ptr %0, ptr %3, align 8
  store ptr %1, ptr %4, align 8
  %5 = load ptr, ptr %3, align 8
  %6 = load ptr, ptr %4, align 8
  call void @_ZNSt3mapINSt7__cxx1112basic_stringIcSt11char_traitsIcESaIcEEEN8nlohmann10basic_jsonIS_St6vectorS5_blmdSaNS6_14adl_serializerEEESt4lessIvESaISt4pairIKS5_SA_EEED2Ev(ptr noundef nonnull align 8 dereferenceable(48) %6) #3
  ret void
}

; Function Attrs: noinline nounwind optnone uwtable
define linkonce_odr dso_local void @_ZNSt3mapINSt7__cxx1112basic_stringIcSt11char_traitsIcESaIcEEEN8nlohmann10basic_jsonIS_St6vectorS5_blmdSaNS6_14adl_serializerEEESt4lessIvESaISt4pairIKS5_SA_EEED2Ev(ptr noundef nonnull align 8 dereferenceable(48) %0) unnamed_addr #7 comdat align 2 {
  %2 = alloca ptr, align 8
  store ptr %0, ptr %2, align 8
  %3 = load ptr, ptr %2, align 8
  %4 = getelementptr inbounds %"class.std::map", ptr %3, i32 0, i32 0
  call void @_ZNSt8_Rb_treeINSt7__cxx1112basic_stringIcSt11char_traitsIcESaIcEEESt4pairIKS5_N8nlohmann10basic_jsonISt3mapSt6vectorS5_blmdSaNS8_14adl_serializerEEEESt10_Select1stISE_ESt4lessIvESaISE_EED2Ev(ptr noundef nonnull align 8 dereferenceable(48) %4) #3
  ret void
}

; Function Attrs: noinline nounwind optnone uwtable
define linkonce_odr dso_local void @_ZNSt8_Rb_treeINSt7__cxx1112basic_stringIcSt11char_traitsIcESaIcEEESt4pairIKS5_N8nlohmann10basic_jsonISt3mapSt6vectorS5_blmdSaNS8_14adl_serializerEEEESt10_Select1stISE_ESt4lessIvESaISE_EED2Ev(ptr noundef nonnull align 8 dereferenceable(48) %0) unnamed_addr #7 comdat align 2 personality ptr @__gxx_personality_v0 {
  %2 = alloca ptr, align 8
  store ptr %0, ptr %2, align 8
  %3 = load ptr, ptr %2, align 8
  %4 = call noundef ptr @_ZNSt8_Rb_treeINSt7__cxx1112basic_stringIcSt11char_traitsIcESaIcEEESt4pairIKS5_N8nlohmann10basic_jsonISt3mapSt6vectorS5_blmdSaNS8_14adl_serializerEEEESt10_Select1stISE_ESt4lessIvESaISE_EE8_M_beginEv(ptr noundef nonnull align 8 dereferenceable(48) %3) #3
  invoke void @_ZNSt8_Rb_treeINSt7__cxx1112basic_stringIcSt11char_traitsIcESaIcEEESt4pairIKS5_N8nlohmann10basic_jsonISt3mapSt6vectorS5_blmdSaNS8_14adl_serializerEEEESt10_Select1stISE_ESt4lessIvESaISE_EE8_M_eraseEPSt13_Rb_tree_nodeISE_E(ptr noundef nonnull align 8 dereferenceable(48) %3, ptr noundef %4)
          to label %5 unwind label %7

5:                                                ; preds = %1
  %6 = getelementptr inbounds %"class.std::_Rb_tree", ptr %3, i32 0, i32 0
  call void @_ZNSt8_Rb_treeINSt7__cxx1112basic_stringIcSt11char_traitsIcESaIcEEESt4pairIKS5_N8nlohmann10basic_jsonISt3mapSt6vectorS5_blmdSaNS8_14adl_serializerEEEESt10_Select1stISE_ESt4lessIvESaISE_EE13_Rb_tree_implISI_Lb1EED2Ev(ptr noundef nonnull align 8 dereferenceable(48) %6) #3
  ret void

7:                                                ; preds = %1
  %8 = landingpad { ptr, i32 }
          catch ptr null
  %9 = extractvalue { ptr, i32 } %8, 0
  call void @__clang_call_terminate(ptr %9) #22
  unreachable
}

; Function Attrs: mustprogress noinline nounwind optnone uwtable
define linkonce_odr dso_local noundef ptr @_ZNSt8_Rb_treeINSt7__cxx1112basic_stringIcSt11char_traitsIcESaIcEEESt4pairIKS5_N8nlohmann10basic_jsonISt3mapSt6vectorS5_blmdSaNS8_14adl_serializerEEEESt10_Select1stISE_ESt4lessIvESaISE_EE8_M_beginEv(ptr noundef nonnull align 8 dereferenceable(48) %0) #6 comdat align 2 {
  %2 = alloca ptr, align 8
  store ptr %0, ptr %2, align 8
  %3 = load ptr, ptr %2, align 8
  %4 = getelementptr inbounds %"class.std::_Rb_tree", ptr %3, i32 0, i32 0
  %5 = getelementptr inbounds i8, ptr %4, i64 8
  %6 = getelementptr inbounds %"struct.std::_Rb_tree_header", ptr %5, i32 0, i32 0
  %7 = getelementptr inbounds %"struct.std::_Rb_tree_node_base", ptr %6, i32 0, i32 1
  %8 = load ptr, ptr %7, align 8
  ret ptr %8
}

; Function Attrs: mustprogress noinline optnone uwtable
define linkonce_odr dso_local void @_ZNSt8_Rb_treeINSt7__cxx1112basic_stringIcSt11char_traitsIcESaIcEEESt4pairIKS5_N8nlohmann10basic_jsonISt3mapSt6vectorS5_blmdSaNS8_14adl_serializerEEEESt10_Select1stISE_ESt4lessIvESaISE_EE8_M_eraseEPSt13_Rb_tree_nodeISE_E(ptr noundef nonnull align 8 dereferenceable(48) %0, ptr noundef %1) #4 comdat align 2 {
  %3 = alloca ptr, align 8
  %4 = alloca ptr, align 8
  %5 = alloca ptr, align 8
  store ptr %0, ptr %3, align 8
  store ptr %1, ptr %4, align 8
  %6 = load ptr, ptr %3, align 8
  br label %7

7:                                                ; preds = %10, %2
  %8 = load ptr, ptr %4, align 8
  %9 = icmp ne ptr %8, null
  br i1 %9, label %10, label %17

10:                                               ; preds = %7
  %11 = load ptr, ptr %4, align 8
  %12 = call noundef ptr @_ZNSt8_Rb_treeINSt7__cxx1112basic_stringIcSt11char_traitsIcESaIcEEESt4pairIKS5_N8nlohmann10basic_jsonISt3mapSt6vectorS5_blmdSaNS8_14adl_serializerEEEESt10_Select1stISE_ESt4lessIvESaISE_EE8_S_rightEPSt18_Rb_tree_node_base(ptr noundef %11) #3
  call void @_ZNSt8_Rb_treeINSt7__cxx1112basic_stringIcSt11char_traitsIcESaIcEEESt4pairIKS5_N8nlohmann10basic_jsonISt3mapSt6vectorS5_blmdSaNS8_14adl_serializerEEEESt10_Select1stISE_ESt4lessIvESaISE_EE8_M_eraseEPSt13_Rb_tree_nodeISE_E(ptr noundef nonnull align 8 dereferenceable(48) %6, ptr noundef %12)
  %13 = load ptr, ptr %4, align 8
  %14 = call noundef ptr @_ZNSt8_Rb_treeINSt7__cxx1112basic_stringIcSt11char_traitsIcESaIcEEESt4pairIKS5_N8nlohmann10basic_jsonISt3mapSt6vectorS5_blmdSaNS8_14adl_serializerEEEESt10_Select1stISE_ESt4lessIvESaISE_EE7_S_leftEPSt18_Rb_tree_node_base(ptr noundef %13) #3
  store ptr %14, ptr %5, align 8
  %15 = load ptr, ptr %4, align 8
  call void @_ZNSt8_Rb_treeINSt7__cxx1112basic_stringIcSt11char_traitsIcESaIcEEESt4pairIKS5_N8nlohmann10basic_jsonISt3mapSt6vectorS5_blmdSaNS8_14adl_serializerEEEESt10_Select1stISE_ESt4lessIvESaISE_EE12_M_drop_nodeEPSt13_Rb_tree_nodeISE_E(ptr noundef nonnull align 8 dereferenceable(48) %6, ptr noundef %15) #3
  %16 = load ptr, ptr %5, align 8
  store ptr %16, ptr %4, align 8
  br label %7, !llvm.loop !9

17:                                               ; preds = %7
  ret void
}

; Function Attrs: noinline nounwind optnone uwtable
define linkonce_odr dso_local void @_ZNSt8_Rb_treeINSt7__cxx1112basic_stringIcSt11char_traitsIcESaIcEEESt4pairIKS5_N8nlohmann10basic_jsonISt3mapSt6vectorS5_blmdSaNS8_14adl_serializerEEEESt10_Select1stISE_ESt4lessIvESaISE_EE13_Rb_tree_implISI_Lb1EED2Ev(ptr noundef nonnull align 8 dereferenceable(48) %0) unnamed_addr #7 comdat align 2 {
  %2 = alloca ptr, align 8
  store ptr %0, ptr %2, align 8
  %3 = load ptr, ptr %2, align 8
  call void @_ZNSaISt13_Rb_tree_nodeISt4pairIKNSt7__cxx1112basic_stringIcSt11char_traitsIcESaIcEEEN8nlohmann10basic_jsonISt3mapSt6vectorS6_blmdSaNS8_14adl_serializerEEEEEED2Ev(ptr noundef nonnull align 1 dereferenceable(1) %3) #3
  ret void
}

; Function Attrs: noinline nounwind optnone uwtable
define linkonce_odr dso_local void @_ZNSaISt13_Rb_tree_nodeISt4pairIKNSt7__cxx1112basic_stringIcSt11char_traitsIcESaIcEEEN8nlohmann10basic_jsonISt3mapSt6vectorS6_blmdSaNS8_14adl_serializerEEEEEED2Ev(ptr noundef nonnull align 1 dereferenceable(1) %0) unnamed_addr #7 comdat align 2 {
  %2 = alloca ptr, align 8
  store ptr %0, ptr %2, align 8
  %3 = load ptr, ptr %2, align 8
  call void @_ZN9__gnu_cxx13new_allocatorISt13_Rb_tree_nodeISt4pairIKNSt7__cxx1112basic_stringIcSt11char_traitsIcESaIcEEEN8nlohmann10basic_jsonISt3mapSt6vectorS8_blmdSaNSA_14adl_serializerEEEEEED2Ev(ptr noundef nonnull align 1 dereferenceable(1) %3) #3
  ret void
}

; Function Attrs: noinline nounwind optnone uwtable
define linkonce_odr dso_local void @_ZN9__gnu_cxx13new_allocatorISt13_Rb_tree_nodeISt4pairIKNSt7__cxx1112basic_stringIcSt11char_traitsIcESaIcEEEN8nlohmann10basic_jsonISt3mapSt6vectorS8_blmdSaNSA_14adl_serializerEEEEEED2Ev(ptr noundef nonnull align 1 dereferenceable(1) %0) unnamed_addr #7 comdat align 2 {
  %2 = alloca ptr, align 8
  store ptr %0, ptr %2, align 8
  %3 = load ptr, ptr %2, align 8
  ret void
}

; Function Attrs: mustprogress noinline nounwind optnone uwtable
define linkonce_odr dso_local noundef ptr @_ZNSt8_Rb_treeINSt7__cxx1112basic_stringIcSt11char_traitsIcESaIcEEESt4pairIKS5_N8nlohmann10basic_jsonISt3mapSt6vectorS5_blmdSaNS8_14adl_serializerEEEESt10_Select1stISE_ESt4lessIvESaISE_EE8_S_rightEPSt18_Rb_tree_node_base(ptr noundef %0) #6 comdat align 2 {
  %2 = alloca ptr, align 8
  store ptr %0, ptr %2, align 8
  %3 = load ptr, ptr %2, align 8
  %4 = getelementptr inbounds %"struct.std::_Rb_tree_node_base", ptr %3, i32 0, i32 3
  %5 = load ptr, ptr %4, align 8
  ret ptr %5
}

; Function Attrs: mustprogress noinline nounwind optnone uwtable
define linkonce_odr dso_local noundef ptr @_ZNSt8_Rb_treeINSt7__cxx1112basic_stringIcSt11char_traitsIcESaIcEEESt4pairIKS5_N8nlohmann10basic_jsonISt3mapSt6vectorS5_blmdSaNS8_14adl_serializerEEEESt10_Select1stISE_ESt4lessIvESaISE_EE7_S_leftEPSt18_Rb_tree_node_base(ptr noundef %0) #6 comdat align 2 {
  %2 = alloca ptr, align 8
  store ptr %0, ptr %2, align 8
  %3 = load ptr, ptr %2, align 8
  %4 = getelementptr inbounds %"struct.std::_Rb_tree_node_base", ptr %3, i32 0, i32 2
  %5 = load ptr, ptr %4, align 8
  ret ptr %5
}

; Function Attrs: mustprogress noinline nounwind optnone uwtable
define linkonce_odr dso_local void @_ZNSt8_Rb_treeINSt7__cxx1112basic_stringIcSt11char_traitsIcESaIcEEESt4pairIKS5_N8nlohmann10basic_jsonISt3mapSt6vectorS5_blmdSaNS8_14adl_serializerEEEESt10_Select1stISE_ESt4lessIvESaISE_EE12_M_drop_nodeEPSt13_Rb_tree_nodeISE_E(ptr noundef nonnull align 8 dereferenceable(48) %0, ptr noundef %1) #6 comdat align 2 {
  %3 = alloca ptr, align 8
  %4 = alloca ptr, align 8
  store ptr %0, ptr %3, align 8
  store ptr %1, ptr %4, align 8
  %5 = load ptr, ptr %3, align 8
  %6 = load ptr, ptr %4, align 8
  call void @_ZNSt8_Rb_treeINSt7__cxx1112basic_stringIcSt11char_traitsIcESaIcEEESt4pairIKS5_N8nlohmann10basic_jsonISt3mapSt6vectorS5_blmdSaNS8_14adl_serializerEEEESt10_Select1stISE_ESt4lessIvESaISE_EE15_M_destroy_nodeEPSt13_Rb_tree_nodeISE_E(ptr noundef nonnull align 8 dereferenceable(48) %5, ptr noundef %6) #3
  %7 = load ptr, ptr %4, align 8
  call void @_ZNSt8_Rb_treeINSt7__cxx1112basic_stringIcSt11char_traitsIcESaIcEEESt4pairIKS5_N8nlohmann10basic_jsonISt3mapSt6vectorS5_blmdSaNS8_14adl_serializerEEEESt10_Select1stISE_ESt4lessIvESaISE_EE11_M_put_nodeEPSt13_Rb_tree_nodeISE_E(ptr noundef nonnull align 8 dereferenceable(48) %5, ptr noundef %7) #3
  ret void
}

; Function Attrs: mustprogress noinline nounwind optnone uwtable
define linkonce_odr dso_local void @_ZNSt8_Rb_treeINSt7__cxx1112basic_stringIcSt11char_traitsIcESaIcEEESt4pairIKS5_N8nlohmann10basic_jsonISt3mapSt6vectorS5_blmdSaNS8_14adl_serializerEEEESt10_Select1stISE_ESt4lessIvESaISE_EE15_M_destroy_nodeEPSt13_Rb_tree_nodeISE_E(ptr noundef nonnull align 8 dereferenceable(48) %0, ptr noundef %1) #6 comdat align 2 {
  %3 = alloca ptr, align 8
  %4 = alloca ptr, align 8
  store ptr %0, ptr %3, align 8
  store ptr %1, ptr %4, align 8
  %5 = load ptr, ptr %3, align 8
  %6 = call noundef nonnull align 1 dereferenceable(1) ptr @_ZNSt8_Rb_treeINSt7__cxx1112basic_stringIcSt11char_traitsIcESaIcEEESt4pairIKS5_N8nlohmann10basic_jsonISt3mapSt6vectorS5_blmdSaNS8_14adl_serializerEEEESt10_Select1stISE_ESt4lessIvESaISE_EE21_M_get_Node_allocatorEv(ptr noundef nonnull align 8 dereferenceable(48) %5) #3
  %7 = load ptr, ptr %4, align 8
  %8 = call noundef ptr @_ZNSt13_Rb_tree_nodeISt4pairIKNSt7__cxx1112basic_stringIcSt11char_traitsIcESaIcEEEN8nlohmann10basic_jsonISt3mapSt6vectorS6_blmdSaNS8_14adl_serializerEEEEE9_M_valptrEv(ptr noundef nonnull align 8 dereferenceable(80) %7)
  call void @_ZNSt16allocator_traitsISaISt13_Rb_tree_nodeISt4pairIKNSt7__cxx1112basic_stringIcSt11char_traitsIcESaIcEEEN8nlohmann10basic_jsonISt3mapSt6vectorS7_blmdSaNS9_14adl_serializerEEEEEEE7destroyISF_EEvRSH_PT_(ptr noundef nonnull align 1 dereferenceable(1) %6, ptr noundef %8) #3
  %9 = load ptr, ptr %4, align 8
  ret void
}

; Function Attrs: mustprogress noinline nounwind optnone uwtable
define linkonce_odr dso_local void @_ZNSt8_Rb_treeINSt7__cxx1112basic_stringIcSt11char_traitsIcESaIcEEESt4pairIKS5_N8nlohmann10basic_jsonISt3mapSt6vectorS5_blmdSaNS8_14adl_serializerEEEESt10_Select1stISE_ESt4lessIvESaISE_EE11_M_put_nodeEPSt13_Rb_tree_nodeISE_E(ptr noundef nonnull align 8 dereferenceable(48) %0, ptr noundef %1) #6 comdat align 2 personality ptr @__gxx_personality_v0 {
  %3 = alloca ptr, align 8
  %4 = alloca ptr, align 8
  store ptr %0, ptr %3, align 8
  store ptr %1, ptr %4, align 8
  %5 = load ptr, ptr %3, align 8
  %6 = call noundef nonnull align 1 dereferenceable(1) ptr @_ZNSt8_Rb_treeINSt7__cxx1112basic_stringIcSt11char_traitsIcESaIcEEESt4pairIKS5_N8nlohmann10basic_jsonISt3mapSt6vectorS5_blmdSaNS8_14adl_serializerEEEESt10_Select1stISE_ESt4lessIvESaISE_EE21_M_get_Node_allocatorEv(ptr noundef nonnull align 8 dereferenceable(48) %5) #3
  %7 = load ptr, ptr %4, align 8
  invoke void @_ZNSt16allocator_traitsISaISt13_Rb_tree_nodeISt4pairIKNSt7__cxx1112basic_stringIcSt11char_traitsIcESaIcEEEN8nlohmann10basic_jsonISt3mapSt6vectorS7_blmdSaNS9_14adl_serializerEEEEEEE10deallocateERSH_PSG_m(ptr noundef nonnull align 1 dereferenceable(1) %6, ptr noundef %7, i64 noundef 1)
          to label %8 unwind label %9

8:                                                ; preds = %2
  ret void

9:                                                ; preds = %2
  %10 = landingpad { ptr, i32 }
          catch ptr null
  %11 = extractvalue { ptr, i32 } %10, 0
  call void @__clang_call_terminate(ptr %11) #22
  unreachable
}

; Function Attrs: mustprogress noinline nounwind optnone uwtable
define linkonce_odr dso_local noundef nonnull align 1 dereferenceable(1) ptr @_ZNSt8_Rb_treeINSt7__cxx1112basic_stringIcSt11char_traitsIcESaIcEEESt4pairIKS5_N8nlohmann10basic_jsonISt3mapSt6vectorS5_blmdSaNS8_14adl_serializerEEEESt10_Select1stISE_ESt4lessIvESaISE_EE21_M_get_Node_allocatorEv(ptr noundef nonnull align 8 dereferenceable(48) %0) #6 comdat align 2 {
  %2 = alloca ptr, align 8
  store ptr %0, ptr %2, align 8
  %3 = load ptr, ptr %2, align 8
  %4 = getelementptr inbounds %"class.std::_Rb_tree", ptr %3, i32 0, i32 0
  ret ptr %4
}

; Function Attrs: mustprogress noinline optnone uwtable
define linkonce_odr dso_local void @_ZNSt16allocator_traitsISaISt13_Rb_tree_nodeISt4pairIKNSt7__cxx1112basic_stringIcSt11char_traitsIcESaIcEEEN8nlohmann10basic_jsonISt3mapSt6vectorS7_blmdSaNS9_14adl_serializerEEEEEEE10deallocateERSH_PSG_m(ptr noundef nonnull align 1 dereferenceable(1) %0, ptr noundef %1, i64 noundef %2) #4 comdat align 2 {
  %4 = alloca ptr, align 8
  %5 = alloca ptr, align 8
  %6 = alloca i64, align 8
  store ptr %0, ptr %4, align 8
  store ptr %1, ptr %5, align 8
  store i64 %2, ptr %6, align 8
  %7 = load ptr, ptr %4, align 8
  %8 = load ptr, ptr %5, align 8
  %9 = load i64, ptr %6, align 8
  call void @_ZN9__gnu_cxx13new_allocatorISt13_Rb_tree_nodeISt4pairIKNSt7__cxx1112basic_stringIcSt11char_traitsIcESaIcEEEN8nlohmann10basic_jsonISt3mapSt6vectorS8_blmdSaNSA_14adl_serializerEEEEEE10deallocateEPSH_m(ptr noundef nonnull align 1 dereferenceable(1) %7, ptr noundef %8, i64 noundef %9)
  ret void
}

; Function Attrs: mustprogress noinline nounwind optnone uwtable
define linkonce_odr dso_local void @_ZN9__gnu_cxx13new_allocatorISt13_Rb_tree_nodeISt4pairIKNSt7__cxx1112basic_stringIcSt11char_traitsIcESaIcEEEN8nlohmann10basic_jsonISt3mapSt6vectorS8_blmdSaNSA_14adl_serializerEEEEEE10deallocateEPSH_m(ptr noundef nonnull align 1 dereferenceable(1) %0, ptr noundef %1, i64 noundef %2) #6 comdat align 2 {
  %4 = alloca ptr, align 8
  %5 = alloca ptr, align 8
  %6 = alloca i64, align 8
  store ptr %0, ptr %4, align 8
  store ptr %1, ptr %5, align 8
  store i64 %2, ptr %6, align 8
  %7 = load ptr, ptr %4, align 8
  %8 = load ptr, ptr %5, align 8
  call void @_ZdlPv(ptr noundef %8) #3
  ret void
}

; Function Attrs: mustprogress noinline nounwind optnone uwtable
define linkonce_odr dso_local noundef ptr @_ZNSt13_Rb_tree_nodeISt4pairIKNSt7__cxx1112basic_stringIcSt11char_traitsIcESaIcEEEN8nlohmann10basic_jsonISt3mapSt6vectorS6_blmdSaNS8_14adl_serializerEEEEE9_M_valptrEv(ptr noundef nonnull align 8 dereferenceable(80) %0) #6 comdat align 2 {
  %2 = alloca ptr, align 8
  store ptr %0, ptr %2, align 8
  %3 = load ptr, ptr %2, align 8
  %4 = getelementptr inbounds %"struct.std::_Rb_tree_node", ptr %3, i32 0, i32 1
  %5 = call noundef ptr @_ZN9__gnu_cxx16__aligned_membufISt4pairIKNSt7__cxx1112basic_stringIcSt11char_traitsIcESaIcEEEN8nlohmann10basic_jsonISt3mapSt6vectorS7_blmdSaNS9_14adl_serializerEEEEE6_M_ptrEv(ptr noundef nonnull align 8 dereferenceable(48) %4) #3
  ret ptr %5
}

; Function Attrs: mustprogress noinline nounwind optnone uwtable
define linkonce_odr dso_local void @_ZNSt16allocator_traitsISaISt13_Rb_tree_nodeISt4pairIKNSt7__cxx1112basic_stringIcSt11char_traitsIcESaIcEEEN8nlohmann10basic_jsonISt3mapSt6vectorS7_blmdSaNS9_14adl_serializerEEEEEEE7destroyISF_EEvRSH_PT_(ptr noundef nonnull align 1 dereferenceable(1) %0, ptr noundef %1) #6 comdat align 2 {
  %3 = alloca ptr, align 8
  %4 = alloca ptr, align 8
  store ptr %0, ptr %3, align 8
  store ptr %1, ptr %4, align 8
  %5 = load ptr, ptr %3, align 8
  %6 = load ptr, ptr %4, align 8
  call void @_ZN9__gnu_cxx13new_allocatorISt13_Rb_tree_nodeISt4pairIKNSt7__cxx1112basic_stringIcSt11char_traitsIcESaIcEEEN8nlohmann10basic_jsonISt3mapSt6vectorS8_blmdSaNSA_14adl_serializerEEEEEE7destroyISG_EEvPT_(ptr noundef nonnull align 1 dereferenceable(1) %5, ptr noundef %6) #3
  ret void
}

; Function Attrs: mustprogress noinline nounwind optnone uwtable
define linkonce_odr dso_local void @_ZN9__gnu_cxx13new_allocatorISt13_Rb_tree_nodeISt4pairIKNSt7__cxx1112basic_stringIcSt11char_traitsIcESaIcEEEN8nlohmann10basic_jsonISt3mapSt6vectorS8_blmdSaNSA_14adl_serializerEEEEEE7destroyISG_EEvPT_(ptr noundef nonnull align 1 dereferenceable(1) %0, ptr noundef %1) #6 comdat align 2 {
  %3 = alloca ptr, align 8
  %4 = alloca ptr, align 8
  store ptr %0, ptr %3, align 8
  store ptr %1, ptr %4, align 8
  %5 = load ptr, ptr %3, align 8
  %6 = load ptr, ptr %4, align 8
  call void @_ZNSt4pairIKNSt7__cxx1112basic_stringIcSt11char_traitsIcESaIcEEEN8nlohmann10basic_jsonISt3mapSt6vectorS5_blmdSaNS7_14adl_serializerEEEED2Ev(ptr noundef nonnull align 8 dereferenceable(48) %6) #3
  ret void
}

; Function Attrs: noinline nounwind optnone uwtable
define linkonce_odr dso_local void @_ZNSt4pairIKNSt7__cxx1112basic_stringIcSt11char_traitsIcESaIcEEEN8nlohmann10basic_jsonISt3mapSt6vectorS5_blmdSaNS7_14adl_serializerEEEED2Ev(ptr noundef nonnull align 8 dereferenceable(48) %0) unnamed_addr #7 comdat align 2 {
  %2 = alloca ptr, align 8
  store ptr %0, ptr %2, align 8
  %3 = load ptr, ptr %2, align 8
  %4 = getelementptr inbounds %"struct.std::pair", ptr %3, i32 0, i32 1
  call void @_ZN8nlohmann10basic_jsonISt3mapSt6vectorNSt7__cxx1112basic_stringIcSt11char_traitsIcESaIcEEEblmdSaNS_14adl_serializerEED2Ev(ptr noundef nonnull align 8 dereferenceable(16) %4) #3
  %5 = getelementptr inbounds %"struct.std::pair", ptr %3, i32 0, i32 0
  call void @_ZNSt7__cxx1112basic_stringIcSt11char_traitsIcESaIcEED1Ev(ptr noundef nonnull align 8 dereferenceable(32) %5) #3
  ret void
}

; Function Attrs: mustprogress noinline nounwind optnone uwtable
define linkonce_odr dso_local noundef ptr @_ZN9__gnu_cxx16__aligned_membufISt4pairIKNSt7__cxx1112basic_stringIcSt11char_traitsIcESaIcEEEN8nlohmann10basic_jsonISt3mapSt6vectorS7_blmdSaNS9_14adl_serializerEEEEE6_M_ptrEv(ptr noundef nonnull align 8 dereferenceable(48) %0) #6 comdat align 2 {
  %2 = alloca ptr, align 8
  store ptr %0, ptr %2, align 8
  %3 = load ptr, ptr %2, align 8
  %4 = call noundef ptr @_ZN9__gnu_cxx16__aligned_membufISt4pairIKNSt7__cxx1112basic_stringIcSt11char_traitsIcESaIcEEEN8nlohmann10basic_jsonISt3mapSt6vectorS7_blmdSaNS9_14adl_serializerEEEEE7_M_addrEv(ptr noundef nonnull align 8 dereferenceable(48) %3) #3
  ret ptr %4
}

; Function Attrs: mustprogress noinline nounwind optnone uwtable
define linkonce_odr dso_local noundef ptr @_ZN9__gnu_cxx16__aligned_membufISt4pairIKNSt7__cxx1112basic_stringIcSt11char_traitsIcESaIcEEEN8nlohmann10basic_jsonISt3mapSt6vectorS7_blmdSaNS9_14adl_serializerEEEEE7_M_addrEv(ptr noundef nonnull align 8 dereferenceable(48) %0) #6 comdat align 2 {
  %2 = alloca ptr, align 8
  store ptr %0, ptr %2, align 8
  %3 = load ptr, ptr %2, align 8
  %4 = getelementptr inbounds %"struct.__gnu_cxx::__aligned_membuf", ptr %3, i32 0, i32 0
  ret ptr %4
}

; Function Attrs: noinline nounwind optnone uwtable
define linkonce_odr dso_local void @_ZN9__gnu_cxx13new_allocatorISt3mapINSt7__cxx1112basic_stringIcSt11char_traitsIcESaIcEEEN8nlohmann10basic_jsonIS1_St6vectorS7_blmdSaNS8_14adl_serializerEEESt4lessIvESaISt4pairIKS7_SC_EEEEC2Ev(ptr noundef nonnull align 1 dereferenceable(1) %0) unnamed_addr #7 comdat align 2 {
  %2 = alloca ptr, align 8
  store ptr %0, ptr %2, align 8
  %3 = load ptr, ptr %2, align 8
  ret void
}

; Function Attrs: mustprogress noinline nounwind optnone uwtable
define linkonce_odr dso_local void @_ZNSt8_Rb_treeINSt7__cxx1112basic_stringIcSt11char_traitsIcESaIcEEESt4pairIKS5_N8nlohmann10basic_jsonISt3mapSt6vectorS5_blmdSaNS8_14adl_serializerEEEESt10_Select1stISE_ESt4lessIvESaISE_EE5clearEv(ptr noundef nonnull align 8 dereferenceable(48) %0) #6 comdat align 2 personality ptr @__gxx_personality_v0 {
  %2 = alloca ptr, align 8
  store ptr %0, ptr %2, align 8
  %3 = load ptr, ptr %2, align 8
  %4 = call noundef ptr @_ZNSt8_Rb_treeINSt7__cxx1112basic_stringIcSt11char_traitsIcESaIcEEESt4pairIKS5_N8nlohmann10basic_jsonISt3mapSt6vectorS5_blmdSaNS8_14adl_serializerEEEESt10_Select1stISE_ESt4lessIvESaISE_EE8_M_beginEv(ptr noundef nonnull align 8 dereferenceable(48) %3) #3
  invoke void @_ZNSt8_Rb_treeINSt7__cxx1112basic_stringIcSt11char_traitsIcESaIcEEESt4pairIKS5_N8nlohmann10basic_jsonISt3mapSt6vectorS5_blmdSaNS8_14adl_serializerEEEESt10_Select1stISE_ESt4lessIvESaISE_EE8_M_eraseEPSt13_Rb_tree_nodeISE_E(ptr noundef nonnull align 8 dereferenceable(48) %3, ptr noundef %4)
          to label %5 unwind label %9

5:                                                ; preds = %1
  %6 = getelementptr inbounds %"class.std::_Rb_tree", ptr %3, i32 0, i32 0
  %7 = getelementptr inbounds i8, ptr %6, i64 8
  invoke void @_ZNSt15_Rb_tree_header8_M_resetEv(ptr noundef nonnull align 8 dereferenceable(40) %7)
          to label %8 unwind label %9

8:                                                ; preds = %5
  ret void

9:                                                ; preds = %5, %1
  %10 = landingpad { ptr, i32 }
          catch ptr null
  %11 = extractvalue { ptr, i32 } %10, 0
  call void @__clang_call_terminate(ptr %11) #22
  unreachable
}

; Function Attrs: mustprogress noinline nounwind optnone uwtable
define linkonce_odr dso_local void @_ZNSt15_Rb_tree_header8_M_resetEv(ptr noundef nonnull align 8 dereferenceable(40) %0) #6 comdat align 2 {
  %2 = alloca ptr, align 8
  store ptr %0, ptr %2, align 8
  %3 = load ptr, ptr %2, align 8
  %4 = getelementptr inbounds %"struct.std::_Rb_tree_header", ptr %3, i32 0, i32 0
  %5 = getelementptr inbounds %"struct.std::_Rb_tree_node_base", ptr %4, i32 0, i32 1
  store ptr null, ptr %5, align 8
  %6 = getelementptr inbounds %"struct.std::_Rb_tree_header", ptr %3, i32 0, i32 0
  %7 = getelementptr inbounds %"struct.std::_Rb_tree_header", ptr %3, i32 0, i32 0
  %8 = getelementptr inbounds %"struct.std::_Rb_tree_node_base", ptr %7, i32 0, i32 2
  store ptr %6, ptr %8, align 8
  %9 = getelementptr inbounds %"struct.std::_Rb_tree_header", ptr %3, i32 0, i32 0
  %10 = getelementptr inbounds %"struct.std::_Rb_tree_header", ptr %3, i32 0, i32 0
  %11 = getelementptr inbounds %"struct.std::_Rb_tree_node_base", ptr %10, i32 0, i32 3
  store ptr %9, ptr %11, align 8
  %12 = getelementptr inbounds %"struct.std::_Rb_tree_header", ptr %3, i32 0, i32 1
  store i64 0, ptr %12, align 8
  ret void
}

; Function Attrs: mustprogress noinline nounwind optnone uwtable
define linkonce_odr dso_local void @_ZNSt6vectorIN8nlohmann10basic_jsonISt3mapS_NSt7__cxx1112basic_stringIcSt11char_traitsIcESaIcEEEblmdSaNS0_14adl_serializerEEESaISA_EE15_M_erase_at_endEPSA_(ptr noundef nonnull align 8 dereferenceable(24) %0, ptr noundef %1) #6 comdat align 2 personality ptr @__gxx_personality_v0 {
  %3 = alloca ptr, align 8
  %4 = alloca ptr, align 8
  %5 = alloca i64, align 8
  store ptr %0, ptr %3, align 8
  store ptr %1, ptr %4, align 8
  %6 = load ptr, ptr %3, align 8
  %7 = getelementptr inbounds %"struct.std::_Vector_base.17", ptr %6, i32 0, i32 0
  %8 = getelementptr inbounds %"struct.std::_Vector_base<nlohmann::basic_json<>, std::allocator<nlohmann::basic_json<>>>::_Vector_impl_data", ptr %7, i32 0, i32 1
  %9 = load ptr, ptr %8, align 8
  %10 = load ptr, ptr %4, align 8
  %11 = ptrtoint ptr %9 to i64
  %12 = ptrtoint ptr %10 to i64
  %13 = sub i64 %11, %12
  %14 = sdiv exact i64 %13, 16
  store i64 %14, ptr %5, align 8
  %15 = load i64, ptr %5, align 8
  %16 = icmp ne i64 %15, 0
  br i1 %16, label %17, label %27

17:                                               ; preds = %2
  %18 = load ptr, ptr %4, align 8
  %19 = getelementptr inbounds %"struct.std::_Vector_base.17", ptr %6, i32 0, i32 0
  %20 = getelementptr inbounds %"struct.std::_Vector_base<nlohmann::basic_json<>, std::allocator<nlohmann::basic_json<>>>::_Vector_impl_data", ptr %19, i32 0, i32 1
  %21 = load ptr, ptr %20, align 8
  %22 = call noundef nonnull align 1 dereferenceable(1) ptr @_ZNSt12_Vector_baseIN8nlohmann10basic_jsonISt3mapSt6vectorNSt7__cxx1112basic_stringIcSt11char_traitsIcESaIcEEEblmdSaNS0_14adl_serializerEEESaISB_EE19_M_get_Tp_allocatorEv(ptr noundef nonnull align 8 dereferenceable(24) %6) #3
  invoke void @_ZSt8_DestroyIPN8nlohmann10basic_jsonISt3mapSt6vectorNSt7__cxx1112basic_stringIcSt11char_traitsIcESaIcEEEblmdSaNS0_14adl_serializerEEESB_EvT_SD_RSaIT0_E(ptr noundef %18, ptr noundef %21, ptr noundef nonnull align 1 dereferenceable(1) %22)
          to label %23 unwind label %28

23:                                               ; preds = %17
  %24 = load ptr, ptr %4, align 8
  %25 = getelementptr inbounds %"struct.std::_Vector_base.17", ptr %6, i32 0, i32 0
  %26 = getelementptr inbounds %"struct.std::_Vector_base<nlohmann::basic_json<>, std::allocator<nlohmann::basic_json<>>>::_Vector_impl_data", ptr %25, i32 0, i32 1
  store ptr %24, ptr %26, align 8
  br label %27

27:                                               ; preds = %23, %2
  ret void

28:                                               ; preds = %17
  %29 = landingpad { ptr, i32 }
          catch ptr null
  %30 = extractvalue { ptr, i32 } %29, 0
  call void @__clang_call_terminate(ptr %30) #22
  unreachable
}

; Function Attrs: mustprogress noinline nounwind optnone uwtable
define linkonce_odr dso_local void @_ZNSt16allocator_traitsISaIN8nlohmann10basic_jsonISt3mapSt6vectorNSt7__cxx1112basic_stringIcSt11char_traitsIcESaIcEEEblmdSaNS0_14adl_serializerEEEEE7destroyISB_EEvRSC_PT_(ptr noundef nonnull align 1 dereferenceable(1) %0, ptr noundef %1) #6 comdat align 2 {
  %3 = alloca ptr, align 8
  %4 = alloca ptr, align 8
  store ptr %0, ptr %3, align 8
  store ptr %1, ptr %4, align 8
  %5 = load ptr, ptr %3, align 8
  %6 = load ptr, ptr %4, align 8
  call void @_ZN9__gnu_cxx13new_allocatorIN8nlohmann10basic_jsonISt3mapSt6vectorNSt7__cxx1112basic_stringIcSt11char_traitsIcESaIcEEEblmdSaNS1_14adl_serializerEEEE7destroyISC_EEvPT_(ptr noundef nonnull align 1 dereferenceable(1) %5, ptr noundef %6) #3
  ret void
}

; Function Attrs: mustprogress noinline nounwind optnone uwtable
define linkonce_odr dso_local void @_ZN9__gnu_cxx13new_allocatorIN8nlohmann10basic_jsonISt3mapSt6vectorNSt7__cxx1112basic_stringIcSt11char_traitsIcESaIcEEEblmdSaNS1_14adl_serializerEEEE7destroyISC_EEvPT_(ptr noundef nonnull align 1 dereferenceable(1) %0, ptr noundef %1) #6 comdat align 2 {
  %3 = alloca ptr, align 8
  %4 = alloca ptr, align 8
  store ptr %0, ptr %3, align 8
  store ptr %1, ptr %4, align 8
  %5 = load ptr, ptr %3, align 8
  %6 = load ptr, ptr %4, align 8
  call void @_ZN8nlohmann10basic_jsonISt3mapSt6vectorNSt7__cxx1112basic_stringIcSt11char_traitsIcESaIcEEEblmdSaNS_14adl_serializerEED2Ev(ptr noundef nonnull align 8 dereferenceable(16) %6) #3
  ret void
}

; Function Attrs: nocallback nofree nounwind willreturn memory(argmem: readwrite)
declare void @llvm.memcpy.p0.p0.i64(ptr noalias nocapture writeonly, ptr noalias nocapture readonly, i64, i1 immarg) #10

; Function Attrs: nocallback nofree nounwind willreturn memory(argmem: write)
declare void @llvm.memset.p0.i64(ptr nocapture writeonly, i8, i64, i1 immarg) #11

; Function Attrs: mustprogress noinline nounwind optnone uwtable
define linkonce_odr dso_local ptr @_ZNK9__gnu_cxx17__normal_iteratorIPN8nlohmann10basic_jsonISt3mapSt6vectorNSt7__cxx1112basic_stringIcSt11char_traitsIcESaIcEEEblmdSaNS1_14adl_serializerEEES4_ISC_SaISC_EEEmiEl(ptr noundef nonnull align 8 dereferenceable(8) %0, i64 noundef %1) #6 comdat align 2 {
  %3 = alloca %"union.nlohmann::basic_json<>::json_value", align 8
  %4 = alloca ptr, align 8
  %5 = alloca i64, align 8
  %6 = alloca ptr, align 8
  store ptr %0, ptr %4, align 8
  store i64 %1, ptr %5, align 8
  %7 = load ptr, ptr %4, align 8
  %8 = getelementptr inbounds %"union.nlohmann::basic_json<>::json_value", ptr %7, i32 0, i32 0
  %9 = load ptr, ptr %8, align 8
  %10 = load i64, ptr %5, align 8
  %11 = sub i64 0, %10
  %12 = getelementptr inbounds %"class.nlohmann::basic_json", ptr %9, i64 %11
  store ptr %12, ptr %6, align 8
  call void @_ZN9__gnu_cxx17__normal_iteratorIPN8nlohmann10basic_jsonISt3mapSt6vectorNSt7__cxx1112basic_stringIcSt11char_traitsIcESaIcEEEblmdSaNS1_14adl_serializerEEES4_ISC_SaISC_EEEC2ERKSD_(ptr noundef nonnull align 8 dereferenceable(8) %3, ptr noundef nonnull align 8 dereferenceable(8) %6) #3
  %13 = getelementptr inbounds %"union.nlohmann::basic_json<>::json_value", ptr %3, i32 0, i32 0
  %14 = load ptr, ptr %13, align 8
  ret ptr %14
}

; Function Attrs: mustprogress noinline nounwind optnone uwtable
define linkonce_odr dso_local noundef nonnull align 8 dereferenceable(16) ptr @_ZNK9__gnu_cxx17__normal_iteratorIPN8nlohmann10basic_jsonISt3mapSt6vectorNSt7__cxx1112basic_stringIcSt11char_traitsIcESaIcEEEblmdSaNS1_14adl_serializerEEES4_ISC_SaISC_EEEdeEv(ptr noundef nonnull align 8 dereferenceable(8) %0) #6 comdat align 2 {
  %2 = alloca ptr, align 8
  store ptr %0, ptr %2, align 8
  %3 = load ptr, ptr %2, align 8
  %4 = getelementptr inbounds %"union.nlohmann::basic_json<>::json_value", ptr %3, i32 0, i32 0
  %5 = load ptr, ptr %4, align 8
  ret ptr %5
}

; Function Attrs: noinline nounwind optnone uwtable
define linkonce_odr dso_local void @_ZN9__gnu_cxx17__normal_iteratorIPN8nlohmann10basic_jsonISt3mapSt6vectorNSt7__cxx1112basic_stringIcSt11char_traitsIcESaIcEEEblmdSaNS1_14adl_serializerEEES4_ISC_SaISC_EEEC2ERKSD_(ptr noundef nonnull align 8 dereferenceable(8) %0, ptr noundef nonnull align 8 dereferenceable(8) %1) unnamed_addr #7 comdat align 2 {
  %3 = alloca ptr, align 8
  %4 = alloca ptr, align 8
  store ptr %0, ptr %3, align 8
  store ptr %1, ptr %4, align 8
  %5 = load ptr, ptr %3, align 8
  %6 = getelementptr inbounds %"union.nlohmann::basic_json<>::json_value", ptr %5, i32 0, i32 0
  %7 = load ptr, ptr %4, align 8
  %8 = load ptr, ptr %7, align 8
  store ptr %8, ptr %6, align 8
  ret void
}

; Function Attrs: mustprogress noinline nounwind optnone uwtable
define linkonce_odr dso_local ptr @_ZNKSt6vectorIN8nlohmann10basic_jsonISt3mapS_NSt7__cxx1112basic_stringIcSt11char_traitsIcESaIcEEEblmdSaNS0_14adl_serializerEEESaISA_EE5beginEv(ptr noundef nonnull align 8 dereferenceable(24) %0) #6 comdat align 2 {
  %2 = alloca %"union.nlohmann::basic_json<>::json_value", align 8
  %3 = alloca ptr, align 8
  store ptr %0, ptr %3, align 8
  %4 = load ptr, ptr %3, align 8
  %5 = getelementptr inbounds %"struct.std::_Vector_base.17", ptr %4, i32 0, i32 0
  %6 = getelementptr inbounds %"struct.std::_Vector_base<nlohmann::basic_json<>, std::allocator<nlohmann::basic_json<>>>::_Vector_impl_data", ptr %5, i32 0, i32 0
  call void @_ZN9__gnu_cxx17__normal_iteratorIPKN8nlohmann10basic_jsonISt3mapSt6vectorNSt7__cxx1112basic_stringIcSt11char_traitsIcESaIcEEEblmdSaNS1_14adl_serializerEEES4_ISC_SaISC_EEEC2ERKSE_(ptr noundef nonnull align 8 dereferenceable(8) %2, ptr noundef nonnull align 8 dereferenceable(8) %6) #3
  %7 = getelementptr inbounds %"union.nlohmann::basic_json<>::json_value", ptr %2, i32 0, i32 0
  %8 = load ptr, ptr %7, align 8
  ret ptr %8
}

; Function Attrs: mustprogress noinline nounwind optnone uwtable
define linkonce_odr dso_local ptr @_ZNKSt6vectorIN8nlohmann10basic_jsonISt3mapS_NSt7__cxx1112basic_stringIcSt11char_traitsIcESaIcEEEblmdSaNS0_14adl_serializerEEESaISA_EE3endEv(ptr noundef nonnull align 8 dereferenceable(24) %0) #6 comdat align 2 {
  %2 = alloca %"union.nlohmann::basic_json<>::json_value", align 8
  %3 = alloca ptr, align 8
  store ptr %0, ptr %3, align 8
  %4 = load ptr, ptr %3, align 8
  %5 = getelementptr inbounds %"struct.std::_Vector_base.17", ptr %4, i32 0, i32 0
  %6 = getelementptr inbounds %"struct.std::_Vector_base<nlohmann::basic_json<>, std::allocator<nlohmann::basic_json<>>>::_Vector_impl_data", ptr %5, i32 0, i32 1
  call void @_ZN9__gnu_cxx17__normal_iteratorIPKN8nlohmann10basic_jsonISt3mapSt6vectorNSt7__cxx1112basic_stringIcSt11char_traitsIcESaIcEEEblmdSaNS1_14adl_serializerEEES4_ISC_SaISC_EEEC2ERKSE_(ptr noundef nonnull align 8 dereferenceable(8) %2, ptr noundef nonnull align 8 dereferenceable(8) %6) #3
  %7 = getelementptr inbounds %"union.nlohmann::basic_json<>::json_value", ptr %2, i32 0, i32 0
  %8 = load ptr, ptr %7, align 8
  ret ptr %8
}

; Function Attrs: mustprogress noinline nounwind optnone uwtable
define linkonce_odr dso_local noundef zeroext i1 @_ZN9__gnu_cxxeqIPKN8nlohmann10basic_jsonISt3mapSt6vectorNSt7__cxx1112basic_stringIcSt11char_traitsIcESaIcEEEblmdSaNS1_14adl_serializerEEES4_ISC_SaISC_EEEEbRKNS_17__normal_iteratorIT_T0_EESM_(ptr noundef nonnull align 8 dereferenceable(8) %0, ptr noundef nonnull align 8 dereferenceable(8) %1) #6 comdat {
  %3 = alloca ptr, align 8
  %4 = alloca ptr, align 8
  store ptr %0, ptr %3, align 8
  store ptr %1, ptr %4, align 8
  %5 = load ptr, ptr %3, align 8
  %6 = call noundef nonnull align 8 dereferenceable(8) ptr @_ZNK9__gnu_cxx17__normal_iteratorIPKN8nlohmann10basic_jsonISt3mapSt6vectorNSt7__cxx1112basic_stringIcSt11char_traitsIcESaIcEEEblmdSaNS1_14adl_serializerEEES4_ISC_SaISC_EEE4baseEv(ptr noundef nonnull align 8 dereferenceable(8) %5) #3
  %7 = load ptr, ptr %6, align 8
  %8 = load ptr, ptr %4, align 8
  %9 = call noundef nonnull align 8 dereferenceable(8) ptr @_ZNK9__gnu_cxx17__normal_iteratorIPKN8nlohmann10basic_jsonISt3mapSt6vectorNSt7__cxx1112basic_stringIcSt11char_traitsIcESaIcEEEblmdSaNS1_14adl_serializerEEES4_ISC_SaISC_EEE4baseEv(ptr noundef nonnull align 8 dereferenceable(8) %8) #3
  %10 = load ptr, ptr %9, align 8
  %11 = icmp eq ptr %7, %10
  ret i1 %11
}

; Function Attrs: mustprogress noinline nounwind optnone uwtable
define linkonce_odr dso_local noundef nonnull align 8 dereferenceable(8) ptr @_ZNK9__gnu_cxx17__normal_iteratorIPKN8nlohmann10basic_jsonISt3mapSt6vectorNSt7__cxx1112basic_stringIcSt11char_traitsIcESaIcEEEblmdSaNS1_14adl_serializerEEES4_ISC_SaISC_EEE4baseEv(ptr noundef nonnull align 8 dereferenceable(8) %0) #6 comdat align 2 {
  %2 = alloca ptr, align 8
  store ptr %0, ptr %2, align 8
  %3 = load ptr, ptr %2, align 8
  %4 = getelementptr inbounds %"union.nlohmann::basic_json<>::json_value", ptr %3, i32 0, i32 0
  ret ptr %4
}

; Function Attrs: noinline nounwind optnone uwtable
define linkonce_odr dso_local void @_ZN9__gnu_cxx17__normal_iteratorIPKN8nlohmann10basic_jsonISt3mapSt6vectorNSt7__cxx1112basic_stringIcSt11char_traitsIcESaIcEEEblmdSaNS1_14adl_serializerEEES4_ISC_SaISC_EEEC2ERKSE_(ptr noundef nonnull align 8 dereferenceable(8) %0, ptr noundef nonnull align 8 dereferenceable(8) %1) unnamed_addr #7 comdat align 2 {
  %3 = alloca ptr, align 8
  %4 = alloca ptr, align 8
  store ptr %0, ptr %3, align 8
  store ptr %1, ptr %4, align 8
  %5 = load ptr, ptr %3, align 8
  %6 = getelementptr inbounds %"union.nlohmann::basic_json<>::json_value", ptr %5, i32 0, i32 0
  %7 = load ptr, ptr %4, align 8
  %8 = load ptr, ptr %7, align 8
  store ptr %8, ptr %6, align 8
  ret void
}

; Function Attrs: nounwind willreturn memory(read)
declare noundef ptr @_ZSt18_Rb_tree_incrementPSt18_Rb_tree_node_base(ptr noundef) #12

; Function Attrs: mustprogress noinline optnone uwtable
define linkonce_odr dso_local noundef nonnull align 8 dereferenceable(16) ptr @_ZNSt6vectorIN8nlohmann10basic_jsonISt3mapS_NSt7__cxx1112basic_stringIcSt11char_traitsIcESaIcEEEblmdSaNS0_14adl_serializerEEESaISA_EE12emplace_backIJSA_EEERSA_DpOT_(ptr noundef nonnull align 8 dereferenceable(24) %0, ptr noundef nonnull align 8 dereferenceable(16) %1) #4 comdat align 2 {
  %3 = alloca ptr, align 8
  %4 = alloca ptr, align 8
  %5 = alloca %"union.nlohmann::basic_json<>::json_value", align 8
  store ptr %0, ptr %3, align 8
  store ptr %1, ptr %4, align 8
  %6 = load ptr, ptr %3, align 8
  %7 = getelementptr inbounds %"struct.std::_Vector_base.17", ptr %6, i32 0, i32 0
  %8 = getelementptr inbounds %"struct.std::_Vector_base<nlohmann::basic_json<>, std::allocator<nlohmann::basic_json<>>>::_Vector_impl_data", ptr %7, i32 0, i32 1
  %9 = load ptr, ptr %8, align 8
  %10 = getelementptr inbounds %"struct.std::_Vector_base.17", ptr %6, i32 0, i32 0
  %11 = getelementptr inbounds %"struct.std::_Vector_base<nlohmann::basic_json<>, std::allocator<nlohmann::basic_json<>>>::_Vector_impl_data", ptr %10, i32 0, i32 2
  %12 = load ptr, ptr %11, align 8
  %13 = icmp ne ptr %9, %12
  br i1 %13, label %14, label %24

14:                                               ; preds = %2
  %15 = getelementptr inbounds %"struct.std::_Vector_base.17", ptr %6, i32 0, i32 0
  %16 = getelementptr inbounds %"struct.std::_Vector_base.17", ptr %6, i32 0, i32 0
  %17 = getelementptr inbounds %"struct.std::_Vector_base<nlohmann::basic_json<>, std::allocator<nlohmann::basic_json<>>>::_Vector_impl_data", ptr %16, i32 0, i32 1
  %18 = load ptr, ptr %17, align 8
  %19 = load ptr, ptr %4, align 8
  call void @_ZNSt16allocator_traitsISaIN8nlohmann10basic_jsonISt3mapSt6vectorNSt7__cxx1112basic_stringIcSt11char_traitsIcESaIcEEEblmdSaNS0_14adl_serializerEEEEE9constructISB_JSB_EEEvRSC_PT_DpOT0_(ptr noundef nonnull align 1 dereferenceable(1) %15, ptr noundef %18, ptr noundef nonnull align 8 dereferenceable(16) %19) #3
  %20 = getelementptr inbounds %"struct.std::_Vector_base.17", ptr %6, i32 0, i32 0
  %21 = getelementptr inbounds %"struct.std::_Vector_base<nlohmann::basic_json<>, std::allocator<nlohmann::basic_json<>>>::_Vector_impl_data", ptr %20, i32 0, i32 1
  %22 = load ptr, ptr %21, align 8
  %23 = getelementptr inbounds %"class.nlohmann::basic_json", ptr %22, i32 1
  store ptr %23, ptr %21, align 8
  br label %30

24:                                               ; preds = %2
  %25 = call ptr @_ZNSt6vectorIN8nlohmann10basic_jsonISt3mapS_NSt7__cxx1112basic_stringIcSt11char_traitsIcESaIcEEEblmdSaNS0_14adl_serializerEEESaISA_EE3endEv(ptr noundef nonnull align 8 dereferenceable(24) %6) #3
  %26 = getelementptr inbounds %"union.nlohmann::basic_json<>::json_value", ptr %5, i32 0, i32 0
  store ptr %25, ptr %26, align 8
  %27 = load ptr, ptr %4, align 8
  %28 = getelementptr inbounds %"union.nlohmann::basic_json<>::json_value", ptr %5, i32 0, i32 0
  %29 = load ptr, ptr %28, align 8
  call void @_ZNSt6vectorIN8nlohmann10basic_jsonISt3mapS_NSt7__cxx1112basic_stringIcSt11char_traitsIcESaIcEEEblmdSaNS0_14adl_serializerEEESaISA_EE17_M_realloc_insertIJSA_EEEvN9__gnu_cxx17__normal_iteratorIPSA_SC_EEDpOT_(ptr noundef nonnull align 8 dereferenceable(24) %6, ptr %29, ptr noundef nonnull align 8 dereferenceable(16) %27)
  br label %30

30:                                               ; preds = %24, %14
  %31 = call noundef nonnull align 8 dereferenceable(16) ptr @_ZNSt6vectorIN8nlohmann10basic_jsonISt3mapS_NSt7__cxx1112basic_stringIcSt11char_traitsIcESaIcEEEblmdSaNS0_14adl_serializerEEESaISA_EE4backEv(ptr noundef nonnull align 8 dereferenceable(24) %6) #3
  ret ptr %31
}

; Function Attrs: mustprogress noinline nounwind optnone uwtable
define linkonce_odr dso_local void @_ZNSt16allocator_traitsISaIN8nlohmann10basic_jsonISt3mapSt6vectorNSt7__cxx1112basic_stringIcSt11char_traitsIcESaIcEEEblmdSaNS0_14adl_serializerEEEEE9constructISB_JSB_EEEvRSC_PT_DpOT0_(ptr noundef nonnull align 1 dereferenceable(1) %0, ptr noundef %1, ptr noundef nonnull align 8 dereferenceable(16) %2) #6 comdat align 2 {
  %4 = alloca ptr, align 8
  %5 = alloca ptr, align 8
  %6 = alloca ptr, align 8
  store ptr %0, ptr %4, align 8
  store ptr %1, ptr %5, align 8
  store ptr %2, ptr %6, align 8
  %7 = load ptr, ptr %4, align 8
  %8 = load ptr, ptr %5, align 8
  %9 = load ptr, ptr %6, align 8
  call void @_ZN9__gnu_cxx13new_allocatorIN8nlohmann10basic_jsonISt3mapSt6vectorNSt7__cxx1112basic_stringIcSt11char_traitsIcESaIcEEEblmdSaNS1_14adl_serializerEEEE9constructISC_JSC_EEEvPT_DpOT0_(ptr noundef nonnull align 1 dereferenceable(1) %7, ptr noundef %8, ptr noundef nonnull align 8 dereferenceable(16) %9) #3
  ret void
}

; Function Attrs: mustprogress noinline optnone uwtable
define linkonce_odr dso_local void @_ZNSt6vectorIN8nlohmann10basic_jsonISt3mapS_NSt7__cxx1112basic_stringIcSt11char_traitsIcESaIcEEEblmdSaNS0_14adl_serializerEEESaISA_EE17_M_realloc_insertIJSA_EEEvN9__gnu_cxx17__normal_iteratorIPSA_SC_EEDpOT_(ptr noundef nonnull align 8 dereferenceable(24) %0, ptr %1, ptr noundef nonnull align 8 dereferenceable(16) %2) #4 comdat align 2 {
  %4 = alloca %"union.nlohmann::basic_json<>::json_value", align 8
  %5 = alloca ptr, align 8
  %6 = alloca ptr, align 8
  %7 = alloca i64, align 8
  %8 = alloca ptr, align 8
  %9 = alloca ptr, align 8
  %10 = alloca i64, align 8
  %11 = alloca %"union.nlohmann::basic_json<>::json_value", align 8
  %12 = alloca ptr, align 8
  %13 = alloca ptr, align 8
  %14 = getelementptr inbounds %"union.nlohmann::basic_json<>::json_value", ptr %4, i32 0, i32 0
  store ptr %1, ptr %14, align 8
  store ptr %0, ptr %5, align 8
  store ptr %2, ptr %6, align 8
  %15 = load ptr, ptr %5, align 8
  %16 = call noundef i64 @_ZNKSt6vectorIN8nlohmann10basic_jsonISt3mapS_NSt7__cxx1112basic_stringIcSt11char_traitsIcESaIcEEEblmdSaNS0_14adl_serializerEEESaISA_EE12_M_check_lenEmPKc(ptr noundef nonnull align 8 dereferenceable(24) %15, i64 noundef 1, ptr noundef @.str.84)
  store i64 %16, ptr %7, align 8
  %17 = getelementptr inbounds %"struct.std::_Vector_base.17", ptr %15, i32 0, i32 0
  %18 = getelementptr inbounds %"struct.std::_Vector_base<nlohmann::basic_json<>, std::allocator<nlohmann::basic_json<>>>::_Vector_impl_data", ptr %17, i32 0, i32 0
  %19 = load ptr, ptr %18, align 8
  store ptr %19, ptr %8, align 8
  %20 = getelementptr inbounds %"struct.std::_Vector_base.17", ptr %15, i32 0, i32 0
  %21 = getelementptr inbounds %"struct.std::_Vector_base<nlohmann::basic_json<>, std::allocator<nlohmann::basic_json<>>>::_Vector_impl_data", ptr %20, i32 0, i32 1
  %22 = load ptr, ptr %21, align 8
  store ptr %22, ptr %9, align 8
  %23 = call ptr @_ZNSt6vectorIN8nlohmann10basic_jsonISt3mapS_NSt7__cxx1112basic_stringIcSt11char_traitsIcESaIcEEEblmdSaNS0_14adl_serializerEEESaISA_EE5beginEv(ptr noundef nonnull align 8 dereferenceable(24) %15) #3
  %24 = getelementptr inbounds %"union.nlohmann::basic_json<>::json_value", ptr %11, i32 0, i32 0
  store ptr %23, ptr %24, align 8
  %25 = call noundef i64 @_ZN9__gnu_cxxmiIPN8nlohmann10basic_jsonISt3mapSt6vectorNSt7__cxx1112basic_stringIcSt11char_traitsIcESaIcEEEblmdSaNS1_14adl_serializerEEES4_ISC_SaISC_EEEENS_17__normal_iteratorIT_T0_E15difference_typeERKSJ_SM_(ptr noundef nonnull align 8 dereferenceable(8) %4, ptr noundef nonnull align 8 dereferenceable(8) %11) #3
  store i64 %25, ptr %10, align 8
  %26 = load i64, ptr %7, align 8
  %27 = call noundef ptr @_ZNSt12_Vector_baseIN8nlohmann10basic_jsonISt3mapSt6vectorNSt7__cxx1112basic_stringIcSt11char_traitsIcESaIcEEEblmdSaNS0_14adl_serializerEEESaISB_EE11_M_allocateEm(ptr noundef nonnull align 8 dereferenceable(24) %15, i64 noundef %26)
  store ptr %27, ptr %12, align 8
  %28 = load ptr, ptr %12, align 8
  store ptr %28, ptr %13, align 8
  %29 = getelementptr inbounds %"struct.std::_Vector_base.17", ptr %15, i32 0, i32 0
  %30 = load ptr, ptr %12, align 8
  %31 = load i64, ptr %10, align 8
  %32 = getelementptr inbounds %"class.nlohmann::basic_json", ptr %30, i64 %31
  %33 = load ptr, ptr %6, align 8
  call void @_ZNSt16allocator_traitsISaIN8nlohmann10basic_jsonISt3mapSt6vectorNSt7__cxx1112basic_stringIcSt11char_traitsIcESaIcEEEblmdSaNS0_14adl_serializerEEEEE9constructISB_JSB_EEEvRSC_PT_DpOT0_(ptr noundef nonnull align 1 dereferenceable(1) %29, ptr noundef %32, ptr noundef nonnull align 8 dereferenceable(16) %33) #3
  store ptr null, ptr %13, align 8
  %34 = load ptr, ptr %8, align 8
  %35 = call noundef nonnull align 8 dereferenceable(8) ptr @_ZNK9__gnu_cxx17__normal_iteratorIPN8nlohmann10basic_jsonISt3mapSt6vectorNSt7__cxx1112basic_stringIcSt11char_traitsIcESaIcEEEblmdSaNS1_14adl_serializerEEES4_ISC_SaISC_EEE4baseEv(ptr noundef nonnull align 8 dereferenceable(8) %4) #3
  %36 = load ptr, ptr %35, align 8
  %37 = load ptr, ptr %12, align 8
  %38 = call noundef nonnull align 1 dereferenceable(1) ptr @_ZNSt12_Vector_baseIN8nlohmann10basic_jsonISt3mapSt6vectorNSt7__cxx1112basic_stringIcSt11char_traitsIcESaIcEEEblmdSaNS0_14adl_serializerEEESaISB_EE19_M_get_Tp_allocatorEv(ptr noundef nonnull align 8 dereferenceable(24) %15) #3
  %39 = call noundef ptr @_ZNSt6vectorIN8nlohmann10basic_jsonISt3mapS_NSt7__cxx1112basic_stringIcSt11char_traitsIcESaIcEEEblmdSaNS0_14adl_serializerEEESaISA_EE11_S_relocateEPSA_SD_SD_RSB_(ptr noundef %34, ptr noundef %36, ptr noundef %37, ptr noundef nonnull align 1 dereferenceable(1) %38) #3
  store ptr %39, ptr %13, align 8
  %40 = load ptr, ptr %13, align 8
  %41 = getelementptr inbounds %"class.nlohmann::basic_json", ptr %40, i32 1
  store ptr %41, ptr %13, align 8
  %42 = call noundef nonnull align 8 dereferenceable(8) ptr @_ZNK9__gnu_cxx17__normal_iteratorIPN8nlohmann10basic_jsonISt3mapSt6vectorNSt7__cxx1112basic_stringIcSt11char_traitsIcESaIcEEEblmdSaNS1_14adl_serializerEEES4_ISC_SaISC_EEE4baseEv(ptr noundef nonnull align 8 dereferenceable(8) %4) #3
  %43 = load ptr, ptr %42, align 8
  %44 = load ptr, ptr %9, align 8
  %45 = load ptr, ptr %13, align 8
  %46 = call noundef nonnull align 1 dereferenceable(1) ptr @_ZNSt12_Vector_baseIN8nlohmann10basic_jsonISt3mapSt6vectorNSt7__cxx1112basic_stringIcSt11char_traitsIcESaIcEEEblmdSaNS0_14adl_serializerEEESaISB_EE19_M_get_Tp_allocatorEv(ptr noundef nonnull align 8 dereferenceable(24) %15) #3
  %47 = call noundef ptr @_ZNSt6vectorIN8nlohmann10basic_jsonISt3mapS_NSt7__cxx1112basic_stringIcSt11char_traitsIcESaIcEEEblmdSaNS0_14adl_serializerEEESaISA_EE11_S_relocateEPSA_SD_SD_RSB_(ptr noundef %43, ptr noundef %44, ptr noundef %45, ptr noundef nonnull align 1 dereferenceable(1) %46) #3
  store ptr %47, ptr %13, align 8
  %48 = load ptr, ptr %8, align 8
  %49 = getelementptr inbounds %"struct.std::_Vector_base.17", ptr %15, i32 0, i32 0
  %50 = getelementptr inbounds %"struct.std::_Vector_base<nlohmann::basic_json<>, std::allocator<nlohmann::basic_json<>>>::_Vector_impl_data", ptr %49, i32 0, i32 2
  %51 = load ptr, ptr %50, align 8
  %52 = load ptr, ptr %8, align 8
  %53 = ptrtoint ptr %51 to i64
  %54 = ptrtoint ptr %52 to i64
  %55 = sub i64 %53, %54
  %56 = sdiv exact i64 %55, 16
  call void @_ZNSt12_Vector_baseIN8nlohmann10basic_jsonISt3mapSt6vectorNSt7__cxx1112basic_stringIcSt11char_traitsIcESaIcEEEblmdSaNS0_14adl_serializerEEESaISB_EE13_M_deallocateEPSB_m(ptr noundef nonnull align 8 dereferenceable(24) %15, ptr noundef %48, i64 noundef %56)
  %57 = load ptr, ptr %12, align 8
  %58 = getelementptr inbounds %"struct.std::_Vector_base.17", ptr %15, i32 0, i32 0
  %59 = getelementptr inbounds %"struct.std::_Vector_base<nlohmann::basic_json<>, std::allocator<nlohmann::basic_json<>>>::_Vector_impl_data", ptr %58, i32 0, i32 0
  store ptr %57, ptr %59, align 8
  %60 = load ptr, ptr %13, align 8
  %61 = getelementptr inbounds %"struct.std::_Vector_base.17", ptr %15, i32 0, i32 0
  %62 = getelementptr inbounds %"struct.std::_Vector_base<nlohmann::basic_json<>, std::allocator<nlohmann::basic_json<>>>::_Vector_impl_data", ptr %61, i32 0, i32 1
  store ptr %60, ptr %62, align 8
  %63 = load ptr, ptr %12, align 8
  %64 = load i64, ptr %7, align 8
  %65 = getelementptr inbounds %"class.nlohmann::basic_json", ptr %63, i64 %64
  %66 = getelementptr inbounds %"struct.std::_Vector_base.17", ptr %15, i32 0, i32 0
  %67 = getelementptr inbounds %"struct.std::_Vector_base<nlohmann::basic_json<>, std::allocator<nlohmann::basic_json<>>>::_Vector_impl_data", ptr %66, i32 0, i32 2
  store ptr %65, ptr %67, align 8
  ret void
}

; Function Attrs: mustprogress noinline optnone uwtable
define linkonce_odr dso_local noundef i64 @_ZNKSt6vectorIN8nlohmann10basic_jsonISt3mapS_NSt7__cxx1112basic_stringIcSt11char_traitsIcESaIcEEEblmdSaNS0_14adl_serializerEEESaISA_EE12_M_check_lenEmPKc(ptr noundef nonnull align 8 dereferenceable(24) %0, i64 noundef %1, ptr noundef %2) #4 comdat align 2 {
  %4 = alloca ptr, align 8
  %5 = alloca i64, align 8
  %6 = alloca ptr, align 8
  %7 = alloca i64, align 8
  %8 = alloca i64, align 8
  store ptr %0, ptr %4, align 8
  store i64 %1, ptr %5, align 8
  store ptr %2, ptr %6, align 8
  %9 = load ptr, ptr %4, align 8
  %10 = call noundef i64 @_ZNKSt6vectorIN8nlohmann10basic_jsonISt3mapS_NSt7__cxx1112basic_stringIcSt11char_traitsIcESaIcEEEblmdSaNS0_14adl_serializerEEESaISA_EE8max_sizeEv(ptr noundef nonnull align 8 dereferenceable(24) %9) #3
  %11 = call noundef i64 @_ZNKSt6vectorIN8nlohmann10basic_jsonISt3mapS_NSt7__cxx1112basic_stringIcSt11char_traitsIcESaIcEEEblmdSaNS0_14adl_serializerEEESaISA_EE4sizeEv(ptr noundef nonnull align 8 dereferenceable(24) %9) #3
  %12 = sub i64 %10, %11
  %13 = load i64, ptr %5, align 8
  %14 = icmp ult i64 %12, %13
  br i1 %14, label %15, label %17

15:                                               ; preds = %3
  %16 = load ptr, ptr %6, align 8
  call void @_ZSt20__throw_length_errorPKc(ptr noundef %16) #21
  unreachable

17:                                               ; preds = %3
  %18 = call noundef i64 @_ZNKSt6vectorIN8nlohmann10basic_jsonISt3mapS_NSt7__cxx1112basic_stringIcSt11char_traitsIcESaIcEEEblmdSaNS0_14adl_serializerEEESaISA_EE4sizeEv(ptr noundef nonnull align 8 dereferenceable(24) %9) #3
  %19 = call noundef i64 @_ZNKSt6vectorIN8nlohmann10basic_jsonISt3mapS_NSt7__cxx1112basic_stringIcSt11char_traitsIcESaIcEEEblmdSaNS0_14adl_serializerEEESaISA_EE4sizeEv(ptr noundef nonnull align 8 dereferenceable(24) %9) #3
  store i64 %19, ptr %8, align 8
  %20 = call noundef nonnull align 8 dereferenceable(8) ptr @_ZSt3maxImERKT_S2_S2_(ptr noundef nonnull align 8 dereferenceable(8) %8, ptr noundef nonnull align 8 dereferenceable(8) %5)
  %21 = load i64, ptr %20, align 8
  %22 = add i64 %18, %21
  store i64 %22, ptr %7, align 8
  %23 = load i64, ptr %7, align 8
  %24 = call noundef i64 @_ZNKSt6vectorIN8nlohmann10basic_jsonISt3mapS_NSt7__cxx1112basic_stringIcSt11char_traitsIcESaIcEEEblmdSaNS0_14adl_serializerEEESaISA_EE4sizeEv(ptr noundef nonnull align 8 dereferenceable(24) %9) #3
  %25 = icmp ult i64 %23, %24
  br i1 %25, label %30, label %26

26:                                               ; preds = %17
  %27 = load i64, ptr %7, align 8
  %28 = call noundef i64 @_ZNKSt6vectorIN8nlohmann10basic_jsonISt3mapS_NSt7__cxx1112basic_stringIcSt11char_traitsIcESaIcEEEblmdSaNS0_14adl_serializerEEESaISA_EE8max_sizeEv(ptr noundef nonnull align 8 dereferenceable(24) %9) #3
  %29 = icmp ugt i64 %27, %28
  br i1 %29, label %30, label %32

30:                                               ; preds = %26, %17
  %31 = call noundef i64 @_ZNKSt6vectorIN8nlohmann10basic_jsonISt3mapS_NSt7__cxx1112basic_stringIcSt11char_traitsIcESaIcEEEblmdSaNS0_14adl_serializerEEESaISA_EE8max_sizeEv(ptr noundef nonnull align 8 dereferenceable(24) %9) #3
  br label %34

32:                                               ; preds = %26
  %33 = load i64, ptr %7, align 8
  br label %34

34:                                               ; preds = %32, %30
  %35 = phi i64 [ %31, %30 ], [ %33, %32 ]
  ret i64 %35
}

; Function Attrs: mustprogress noinline nounwind optnone uwtable
define linkonce_odr dso_local noundef i64 @_ZN9__gnu_cxxmiIPN8nlohmann10basic_jsonISt3mapSt6vectorNSt7__cxx1112basic_stringIcSt11char_traitsIcESaIcEEEblmdSaNS1_14adl_serializerEEES4_ISC_SaISC_EEEENS_17__normal_iteratorIT_T0_E15difference_typeERKSJ_SM_(ptr noundef nonnull align 8 dereferenceable(8) %0, ptr noundef nonnull align 8 dereferenceable(8) %1) #6 comdat {
  %3 = alloca ptr, align 8
  %4 = alloca ptr, align 8
  store ptr %0, ptr %3, align 8
  store ptr %1, ptr %4, align 8
  %5 = load ptr, ptr %3, align 8
  %6 = call noundef nonnull align 8 dereferenceable(8) ptr @_ZNK9__gnu_cxx17__normal_iteratorIPN8nlohmann10basic_jsonISt3mapSt6vectorNSt7__cxx1112basic_stringIcSt11char_traitsIcESaIcEEEblmdSaNS1_14adl_serializerEEES4_ISC_SaISC_EEE4baseEv(ptr noundef nonnull align 8 dereferenceable(8) %5) #3
  %7 = load ptr, ptr %6, align 8
  %8 = load ptr, ptr %4, align 8
  %9 = call noundef nonnull align 8 dereferenceable(8) ptr @_ZNK9__gnu_cxx17__normal_iteratorIPN8nlohmann10basic_jsonISt3mapSt6vectorNSt7__cxx1112basic_stringIcSt11char_traitsIcESaIcEEEblmdSaNS1_14adl_serializerEEES4_ISC_SaISC_EEE4baseEv(ptr noundef nonnull align 8 dereferenceable(8) %8) #3
  %10 = load ptr, ptr %9, align 8
  %11 = ptrtoint ptr %7 to i64
  %12 = ptrtoint ptr %10 to i64
  %13 = sub i64 %11, %12
  %14 = sdiv exact i64 %13, 16
  ret i64 %14
}

; Function Attrs: mustprogress noinline optnone uwtable
define linkonce_odr dso_local noundef ptr @_ZNSt12_Vector_baseIN8nlohmann10basic_jsonISt3mapSt6vectorNSt7__cxx1112basic_stringIcSt11char_traitsIcESaIcEEEblmdSaNS0_14adl_serializerEEESaISB_EE11_M_allocateEm(ptr noundef nonnull align 8 dereferenceable(24) %0, i64 noundef %1) #4 comdat align 2 {
  %3 = alloca ptr, align 8
  %4 = alloca i64, align 8
  store ptr %0, ptr %3, align 8
  store i64 %1, ptr %4, align 8
  %5 = load ptr, ptr %3, align 8
  %6 = load i64, ptr %4, align 8
  %7 = icmp ne i64 %6, 0
  br i1 %7, label %8, label %12

8:                                                ; preds = %2
  %9 = getelementptr inbounds %"struct.std::_Vector_base.17", ptr %5, i32 0, i32 0
  %10 = load i64, ptr %4, align 8
  %11 = call noundef ptr @_ZNSt16allocator_traitsISaIN8nlohmann10basic_jsonISt3mapSt6vectorNSt7__cxx1112basic_stringIcSt11char_traitsIcESaIcEEEblmdSaNS0_14adl_serializerEEEEE8allocateERSC_m(ptr noundef nonnull align 1 dereferenceable(1) %9, i64 noundef %10)
  br label %13

12:                                               ; preds = %2
  br label %13

13:                                               ; preds = %12, %8
  %14 = phi ptr [ %11, %8 ], [ null, %12 ]
  ret ptr %14
}

; Function Attrs: mustprogress noinline nounwind optnone uwtable
define linkonce_odr dso_local noundef nonnull align 8 dereferenceable(8) ptr @_ZNK9__gnu_cxx17__normal_iteratorIPN8nlohmann10basic_jsonISt3mapSt6vectorNSt7__cxx1112basic_stringIcSt11char_traitsIcESaIcEEEblmdSaNS1_14adl_serializerEEES4_ISC_SaISC_EEE4baseEv(ptr noundef nonnull align 8 dereferenceable(8) %0) #6 comdat align 2 {
  %2 = alloca ptr, align 8
  store ptr %0, ptr %2, align 8
  %3 = load ptr, ptr %2, align 8
  %4 = getelementptr inbounds %"union.nlohmann::basic_json<>::json_value", ptr %3, i32 0, i32 0
  ret ptr %4
}

; Function Attrs: mustprogress noinline nounwind optnone uwtable
define linkonce_odr dso_local noundef ptr @_ZNSt6vectorIN8nlohmann10basic_jsonISt3mapS_NSt7__cxx1112basic_stringIcSt11char_traitsIcESaIcEEEblmdSaNS0_14adl_serializerEEESaISA_EE11_S_relocateEPSA_SD_SD_RSB_(ptr noundef %0, ptr noundef %1, ptr noundef %2, ptr noundef nonnull align 1 dereferenceable(1) %3) #6 comdat align 2 {
  %5 = alloca ptr, align 8
  %6 = alloca ptr, align 8
  %7 = alloca ptr, align 8
  %8 = alloca ptr, align 8
  %9 = alloca %"class.std::ios_base::Init", align 1
  store ptr %0, ptr %5, align 8
  store ptr %1, ptr %6, align 8
  store ptr %2, ptr %7, align 8
  store ptr %3, ptr %8, align 8
  %10 = load ptr, ptr %5, align 8
  %11 = load ptr, ptr %6, align 8
  %12 = load ptr, ptr %7, align 8
  %13 = load ptr, ptr %8, align 8
  %14 = call noundef ptr @_ZNSt6vectorIN8nlohmann10basic_jsonISt3mapS_NSt7__cxx1112basic_stringIcSt11char_traitsIcESaIcEEEblmdSaNS0_14adl_serializerEEESaISA_EE14_S_do_relocateEPSA_SD_SD_RSB_St17integral_constantIbLb1EE(ptr noundef %10, ptr noundef %11, ptr noundef %12, ptr noundef nonnull align 1 dereferenceable(1) %13) #3
  ret ptr %14
}

; Function Attrs: mustprogress noinline nounwind optnone uwtable
define linkonce_odr dso_local noundef ptr @_ZNSt6vectorIN8nlohmann10basic_jsonISt3mapS_NSt7__cxx1112basic_stringIcSt11char_traitsIcESaIcEEEblmdSaNS0_14adl_serializerEEESaISA_EE14_S_do_relocateEPSA_SD_SD_RSB_St17integral_constantIbLb1EE(ptr noundef %0, ptr noundef %1, ptr noundef %2, ptr noundef nonnull align 1 dereferenceable(1) %3) #6 comdat align 2 {
  %5 = alloca %"class.std::ios_base::Init", align 1
  %6 = alloca ptr, align 8
  %7 = alloca ptr, align 8
  %8 = alloca ptr, align 8
  %9 = alloca ptr, align 8
  store ptr %0, ptr %6, align 8
  store ptr %1, ptr %7, align 8
  store ptr %2, ptr %8, align 8
  store ptr %3, ptr %9, align 8
  %10 = load ptr, ptr %6, align 8
  %11 = load ptr, ptr %7, align 8
  %12 = load ptr, ptr %8, align 8
  %13 = load ptr, ptr %9, align 8
  %14 = call noundef ptr @_ZSt12__relocate_aIPN8nlohmann10basic_jsonISt3mapSt6vectorNSt7__cxx1112basic_stringIcSt11char_traitsIcESaIcEEEblmdSaNS0_14adl_serializerEEESC_SaISB_EET0_T_SF_SE_RT1_(ptr noundef %10, ptr noundef %11, ptr noundef %12, ptr noundef nonnull align 1 dereferenceable(1) %13) #3
  ret ptr %14
}

; Function Attrs: mustprogress noinline nounwind optnone uwtable
define linkonce_odr dso_local noundef ptr @_ZSt12__relocate_aIPN8nlohmann10basic_jsonISt3mapSt6vectorNSt7__cxx1112basic_stringIcSt11char_traitsIcESaIcEEEblmdSaNS0_14adl_serializerEEESC_SaISB_EET0_T_SF_SE_RT1_(ptr noundef %0, ptr noundef %1, ptr noundef %2, ptr noundef nonnull align 1 dereferenceable(1) %3) #6 comdat {
  %5 = alloca ptr, align 8
  %6 = alloca ptr, align 8
  %7 = alloca ptr, align 8
  %8 = alloca ptr, align 8
  store ptr %0, ptr %5, align 8
  store ptr %1, ptr %6, align 8
  store ptr %2, ptr %7, align 8
  store ptr %3, ptr %8, align 8
  %9 = load ptr, ptr %5, align 8
  %10 = call noundef ptr @_ZSt12__niter_baseIPN8nlohmann10basic_jsonISt3mapSt6vectorNSt7__cxx1112basic_stringIcSt11char_traitsIcESaIcEEEblmdSaNS0_14adl_serializerEEEET_SD_(ptr noundef %9) #3
  %11 = load ptr, ptr %6, align 8
  %12 = call noundef ptr @_ZSt12__niter_baseIPN8nlohmann10basic_jsonISt3mapSt6vectorNSt7__cxx1112basic_stringIcSt11char_traitsIcESaIcEEEblmdSaNS0_14adl_serializerEEEET_SD_(ptr noundef %11) #3
  %13 = load ptr, ptr %7, align 8
  %14 = call noundef ptr @_ZSt12__niter_baseIPN8nlohmann10basic_jsonISt3mapSt6vectorNSt7__cxx1112basic_stringIcSt11char_traitsIcESaIcEEEblmdSaNS0_14adl_serializerEEEET_SD_(ptr noundef %13) #3
  %15 = load ptr, ptr %8, align 8
  %16 = call noundef ptr @_ZSt14__relocate_a_1IPN8nlohmann10basic_jsonISt3mapSt6vectorNSt7__cxx1112basic_stringIcSt11char_traitsIcESaIcEEEblmdSaNS0_14adl_serializerEEESC_SaISB_EET0_T_SF_SE_RT1_(ptr noundef %10, ptr noundef %12, ptr noundef %14, ptr noundef nonnull align 1 dereferenceable(1) %15) #3
  ret ptr %16
}

; Function Attrs: mustprogress noinline nounwind optnone uwtable
define linkonce_odr dso_local noundef ptr @_ZSt12__niter_baseIPN8nlohmann10basic_jsonISt3mapSt6vectorNSt7__cxx1112basic_stringIcSt11char_traitsIcESaIcEEEblmdSaNS0_14adl_serializerEEEET_SD_(ptr noundef %0) #6 comdat {
  %2 = alloca ptr, align 8
  store ptr %0, ptr %2, align 8
  %3 = load ptr, ptr %2, align 8
  ret ptr %3
}

; Function Attrs: mustprogress noinline nounwind optnone uwtable
define linkonce_odr dso_local noundef ptr @_ZSt14__relocate_a_1IPN8nlohmann10basic_jsonISt3mapSt6vectorNSt7__cxx1112basic_stringIcSt11char_traitsIcESaIcEEEblmdSaNS0_14adl_serializerEEESC_SaISB_EET0_T_SF_SE_RT1_(ptr noundef %0, ptr noundef %1, ptr noundef %2, ptr noundef nonnull align 1 dereferenceable(1) %3) #6 comdat {
  %5 = alloca ptr, align 8
  %6 = alloca ptr, align 8
  %7 = alloca ptr, align 8
  %8 = alloca ptr, align 8
  %9 = alloca ptr, align 8
  store ptr %0, ptr %5, align 8
  store ptr %1, ptr %6, align 8
  store ptr %2, ptr %7, align 8
  store ptr %3, ptr %8, align 8
  %10 = load ptr, ptr %7, align 8
  store ptr %10, ptr %9, align 8
  br label %11

11:                                               ; preds = %19, %4
  %12 = load ptr, ptr %5, align 8
  %13 = load ptr, ptr %6, align 8
  %14 = icmp ne ptr %12, %13
  br i1 %14, label %15, label %24

15:                                               ; preds = %11
  %16 = load ptr, ptr %9, align 8
  %17 = load ptr, ptr %5, align 8
  %18 = load ptr, ptr %8, align 8
  call void @_ZSt19__relocate_object_aIN8nlohmann10basic_jsonISt3mapSt6vectorNSt7__cxx1112basic_stringIcSt11char_traitsIcESaIcEEEblmdSaNS0_14adl_serializerEEESB_SaISB_EEvPT_PT0_RT1_(ptr noundef %16, ptr noundef %17, ptr noundef nonnull align 1 dereferenceable(1) %18) #3
  br label %19

19:                                               ; preds = %15
  %20 = load ptr, ptr %5, align 8
  %21 = getelementptr inbounds %"class.nlohmann::basic_json", ptr %20, i32 1
  store ptr %21, ptr %5, align 8
  %22 = load ptr, ptr %9, align 8
  %23 = getelementptr inbounds %"class.nlohmann::basic_json", ptr %22, i32 1
  store ptr %23, ptr %9, align 8
  br label %11, !llvm.loop !10

24:                                               ; preds = %11
  %25 = load ptr, ptr %9, align 8
  ret ptr %25
}

; Function Attrs: mustprogress noinline nounwind optnone uwtable
define linkonce_odr dso_local void @_ZSt19__relocate_object_aIN8nlohmann10basic_jsonISt3mapSt6vectorNSt7__cxx1112basic_stringIcSt11char_traitsIcESaIcEEEblmdSaNS0_14adl_serializerEEESB_SaISB_EEvPT_PT0_RT1_(ptr noundef %0, ptr noundef %1, ptr noundef nonnull align 1 dereferenceable(1) %2) #6 comdat {
  %4 = alloca ptr, align 8
  %5 = alloca ptr, align 8
  %6 = alloca ptr, align 8
  store ptr %0, ptr %4, align 8
  store ptr %1, ptr %5, align 8
  store ptr %2, ptr %6, align 8
  %7 = load ptr, ptr %6, align 8
  %8 = load ptr, ptr %4, align 8
  %9 = load ptr, ptr %5, align 8
  call void @_ZNSt16allocator_traitsISaIN8nlohmann10basic_jsonISt3mapSt6vectorNSt7__cxx1112basic_stringIcSt11char_traitsIcESaIcEEEblmdSaNS0_14adl_serializerEEEEE9constructISB_JSB_EEEvRSC_PT_DpOT0_(ptr noundef nonnull align 1 dereferenceable(1) %7, ptr noundef %8, ptr noundef nonnull align 8 dereferenceable(16) %9) #3
  %10 = load ptr, ptr %6, align 8
  %11 = load ptr, ptr %5, align 8
  call void @_ZNSt16allocator_traitsISaIN8nlohmann10basic_jsonISt3mapSt6vectorNSt7__cxx1112basic_stringIcSt11char_traitsIcESaIcEEEblmdSaNS0_14adl_serializerEEEEE7destroyISB_EEvRSC_PT_(ptr noundef nonnull align 1 dereferenceable(1) %10, ptr noundef %11) #3
  ret void
}

; Function Attrs: mustprogress noinline optnone uwtable
define linkonce_odr dso_local noundef ptr @_ZNSt16allocator_traitsISaIN8nlohmann10basic_jsonISt3mapSt6vectorNSt7__cxx1112basic_stringIcSt11char_traitsIcESaIcEEEblmdSaNS0_14adl_serializerEEEEE8allocateERSC_m(ptr noundef nonnull align 1 dereferenceable(1) %0, i64 noundef %1) #4 comdat align 2 {
  %3 = alloca ptr, align 8
  %4 = alloca i64, align 8
  store ptr %0, ptr %3, align 8
  store i64 %1, ptr %4, align 8
  %5 = load ptr, ptr %3, align 8
  %6 = load i64, ptr %4, align 8
  %7 = call noundef ptr @_ZN9__gnu_cxx13new_allocatorIN8nlohmann10basic_jsonISt3mapSt6vectorNSt7__cxx1112basic_stringIcSt11char_traitsIcESaIcEEEblmdSaNS1_14adl_serializerEEEE8allocateEmPKv(ptr noundef nonnull align 1 dereferenceable(1) %5, i64 noundef %6, ptr noundef null)
  ret ptr %7
}

; Function Attrs: mustprogress noinline optnone uwtable
define linkonce_odr dso_local noundef ptr @_ZN9__gnu_cxx13new_allocatorIN8nlohmann10basic_jsonISt3mapSt6vectorNSt7__cxx1112basic_stringIcSt11char_traitsIcESaIcEEEblmdSaNS1_14adl_serializerEEEE8allocateEmPKv(ptr noundef nonnull align 1 dereferenceable(1) %0, i64 noundef %1, ptr noundef %2) #4 comdat align 2 {
  %4 = alloca ptr, align 8
  %5 = alloca i64, align 8
  %6 = alloca ptr, align 8
  store ptr %0, ptr %4, align 8
  store i64 %1, ptr %5, align 8
  store ptr %2, ptr %6, align 8
  %7 = load ptr, ptr %4, align 8
  %8 = load i64, ptr %5, align 8
  %9 = call noundef i64 @_ZNK9__gnu_cxx13new_allocatorIN8nlohmann10basic_jsonISt3mapSt6vectorNSt7__cxx1112basic_stringIcSt11char_traitsIcESaIcEEEblmdSaNS1_14adl_serializerEEEE8max_sizeEv(ptr noundef nonnull align 1 dereferenceable(1) %7) #3
  %10 = icmp ugt i64 %8, %9
  br i1 %10, label %11, label %12

11:                                               ; preds = %3
  call void @_ZSt17__throw_bad_allocv() #21
  unreachable

12:                                               ; preds = %3
  %13 = load i64, ptr %5, align 8
  %14 = mul i64 %13, 16
  %15 = call noalias noundef nonnull ptr @_Znwm(i64 noundef %14) #24
  ret ptr %15
}

; Function Attrs: mustprogress noinline nounwind optnone uwtable
define linkonce_odr dso_local noundef i64 @_ZNK9__gnu_cxx13new_allocatorIN8nlohmann10basic_jsonISt3mapSt6vectorNSt7__cxx1112basic_stringIcSt11char_traitsIcESaIcEEEblmdSaNS1_14adl_serializerEEEE8max_sizeEv(ptr noundef nonnull align 1 dereferenceable(1) %0) #6 comdat align 2 {
  %2 = alloca ptr, align 8
  store ptr %0, ptr %2, align 8
  %3 = load ptr, ptr %2, align 8
  ret i64 576460752303423487
}

; Function Attrs: noreturn
declare void @_ZSt17__throw_bad_allocv() #13

; Function Attrs: nobuiltin allocsize(0)
declare noundef nonnull ptr @_Znwm(i64 noundef) #14

; Function Attrs: mustprogress noinline nounwind optnone uwtable
define linkonce_odr dso_local noundef i64 @_ZNKSt6vectorIN8nlohmann10basic_jsonISt3mapS_NSt7__cxx1112basic_stringIcSt11char_traitsIcESaIcEEEblmdSaNS0_14adl_serializerEEESaISA_EE8max_sizeEv(ptr noundef nonnull align 8 dereferenceable(24) %0) #6 comdat align 2 {
  %2 = alloca ptr, align 8
  store ptr %0, ptr %2, align 8
  %3 = load ptr, ptr %2, align 8
  %4 = call noundef nonnull align 1 dereferenceable(1) ptr @_ZNKSt12_Vector_baseIN8nlohmann10basic_jsonISt3mapSt6vectorNSt7__cxx1112basic_stringIcSt11char_traitsIcESaIcEEEblmdSaNS0_14adl_serializerEEESaISB_EE19_M_get_Tp_allocatorEv(ptr noundef nonnull align 8 dereferenceable(24) %3) #3
  %5 = call noundef i64 @_ZNSt6vectorIN8nlohmann10basic_jsonISt3mapS_NSt7__cxx1112basic_stringIcSt11char_traitsIcESaIcEEEblmdSaNS0_14adl_serializerEEESaISA_EE11_S_max_sizeERKSB_(ptr noundef nonnull align 1 dereferenceable(1) %4) #3
  ret i64 %5
}

; Function Attrs: noreturn
declare void @_ZSt20__throw_length_errorPKc(ptr noundef) #13

; Function Attrs: mustprogress noinline nounwind optnone uwtable
define linkonce_odr dso_local noundef nonnull align 8 dereferenceable(8) ptr @_ZSt3maxImERKT_S2_S2_(ptr noundef nonnull align 8 dereferenceable(8) %0, ptr noundef nonnull align 8 dereferenceable(8) %1) #6 comdat {
  %3 = alloca ptr, align 8
  %4 = alloca ptr, align 8
  %5 = alloca ptr, align 8
  store ptr %0, ptr %4, align 8
  store ptr %1, ptr %5, align 8
  %6 = load ptr, ptr %4, align 8
  %7 = load i64, ptr %6, align 8
  %8 = load ptr, ptr %5, align 8
  %9 = load i64, ptr %8, align 8
  %10 = icmp ult i64 %7, %9
  br i1 %10, label %11, label %13

11:                                               ; preds = %2
  %12 = load ptr, ptr %5, align 8
  store ptr %12, ptr %3, align 8
  br label %15

13:                                               ; preds = %2
  %14 = load ptr, ptr %4, align 8
  store ptr %14, ptr %3, align 8
  br label %15

15:                                               ; preds = %13, %11
  %16 = load ptr, ptr %3, align 8
  ret ptr %16
}

; Function Attrs: mustprogress noinline nounwind optnone uwtable
define linkonce_odr dso_local noundef nonnull align 1 dereferenceable(1) ptr @_ZNKSt12_Vector_baseIN8nlohmann10basic_jsonISt3mapSt6vectorNSt7__cxx1112basic_stringIcSt11char_traitsIcESaIcEEEblmdSaNS0_14adl_serializerEEESaISB_EE19_M_get_Tp_allocatorEv(ptr noundef nonnull align 8 dereferenceable(24) %0) #6 comdat align 2 {
  %2 = alloca ptr, align 8
  store ptr %0, ptr %2, align 8
  %3 = load ptr, ptr %2, align 8
  %4 = getelementptr inbounds %"struct.std::_Vector_base.17", ptr %3, i32 0, i32 0
  ret ptr %4
}

; Function Attrs: mustprogress noinline nounwind optnone uwtable
define linkonce_odr dso_local noundef i64 @_ZNSt6vectorIN8nlohmann10basic_jsonISt3mapS_NSt7__cxx1112basic_stringIcSt11char_traitsIcESaIcEEEblmdSaNS0_14adl_serializerEEESaISA_EE11_S_max_sizeERKSB_(ptr noundef nonnull align 1 dereferenceable(1) %0) #6 comdat align 2 personality ptr @__gxx_personality_v0 {
  %2 = alloca ptr, align 8
  %3 = alloca i64, align 8
  %4 = alloca i64, align 8
  store ptr %0, ptr %2, align 8
  store i64 576460752303423487, ptr %3, align 8
  %5 = load ptr, ptr %2, align 8
  %6 = call noundef i64 @_ZNSt16allocator_traitsISaIN8nlohmann10basic_jsonISt3mapSt6vectorNSt7__cxx1112basic_stringIcSt11char_traitsIcESaIcEEEblmdSaNS0_14adl_serializerEEEEE8max_sizeERKSC_(ptr noundef nonnull align 1 dereferenceable(1) %5) #3
  store i64 %6, ptr %4, align 8
  %7 = invoke noundef nonnull align 8 dereferenceable(8) ptr @_ZSt3minImERKT_S2_S2_(ptr noundef nonnull align 8 dereferenceable(8) %3, ptr noundef nonnull align 8 dereferenceable(8) %4)
          to label %8 unwind label %10

8:                                                ; preds = %1
  %9 = load i64, ptr %7, align 8
  ret i64 %9

10:                                               ; preds = %1
  %11 = landingpad { ptr, i32 }
          catch ptr null
  %12 = extractvalue { ptr, i32 } %11, 0
  call void @__clang_call_terminate(ptr %12) #22
  unreachable
}

; Function Attrs: mustprogress noinline nounwind optnone uwtable
define linkonce_odr dso_local noundef i64 @_ZNSt16allocator_traitsISaIN8nlohmann10basic_jsonISt3mapSt6vectorNSt7__cxx1112basic_stringIcSt11char_traitsIcESaIcEEEblmdSaNS0_14adl_serializerEEEEE8max_sizeERKSC_(ptr noundef nonnull align 1 dereferenceable(1) %0) #6 comdat align 2 {
  %2 = alloca ptr, align 8
  store ptr %0, ptr %2, align 8
  %3 = load ptr, ptr %2, align 8
  %4 = call noundef i64 @_ZNK9__gnu_cxx13new_allocatorIN8nlohmann10basic_jsonISt3mapSt6vectorNSt7__cxx1112basic_stringIcSt11char_traitsIcESaIcEEEblmdSaNS1_14adl_serializerEEEE8max_sizeEv(ptr noundef nonnull align 1 dereferenceable(1) %3) #3
  ret i64 %4
}

; Function Attrs: mustprogress noinline nounwind optnone uwtable
define linkonce_odr dso_local noundef nonnull align 8 dereferenceable(8) ptr @_ZSt3minImERKT_S2_S2_(ptr noundef nonnull align 8 dereferenceable(8) %0, ptr noundef nonnull align 8 dereferenceable(8) %1) #6 comdat {
  %3 = alloca ptr, align 8
  %4 = alloca ptr, align 8
  %5 = alloca ptr, align 8
  store ptr %0, ptr %4, align 8
  store ptr %1, ptr %5, align 8
  %6 = load ptr, ptr %5, align 8
  %7 = load i64, ptr %6, align 8
  %8 = load ptr, ptr %4, align 8
  %9 = load i64, ptr %8, align 8
  %10 = icmp ult i64 %7, %9
  br i1 %10, label %11, label %13

11:                                               ; preds = %2
  %12 = load ptr, ptr %5, align 8
  store ptr %12, ptr %3, align 8
  br label %15

13:                                               ; preds = %2
  %14 = load ptr, ptr %4, align 8
  store ptr %14, ptr %3, align 8
  br label %15

15:                                               ; preds = %13, %11
  %16 = load ptr, ptr %3, align 8
  ret ptr %16
}

; Function Attrs: mustprogress noinline nounwind optnone uwtable
define linkonce_odr dso_local void @_ZN9__gnu_cxx13new_allocatorIN8nlohmann10basic_jsonISt3mapSt6vectorNSt7__cxx1112basic_stringIcSt11char_traitsIcESaIcEEEblmdSaNS1_14adl_serializerEEEE9constructISC_JSC_EEEvPT_DpOT0_(ptr noundef nonnull align 1 dereferenceable(1) %0, ptr noundef %1, ptr noundef nonnull align 8 dereferenceable(16) %2) #6 comdat align 2 {
  %4 = alloca ptr, align 8
  %5 = alloca ptr, align 8
  %6 = alloca ptr, align 8
  store ptr %0, ptr %4, align 8
  store ptr %1, ptr %5, align 8
  store ptr %2, ptr %6, align 8
  %7 = load ptr, ptr %4, align 8
  %8 = load ptr, ptr %5, align 8
  %9 = load ptr, ptr %6, align 8
  call void @_ZN8nlohmann10basic_jsonISt3mapSt6vectorNSt7__cxx1112basic_stringIcSt11char_traitsIcESaIcEEEblmdSaNS_14adl_serializerEEC2EOSA_(ptr noundef nonnull align 8 dereferenceable(16) %8, ptr noundef nonnull align 8 dereferenceable(16) %9) #3
  ret void
}

; Function Attrs: mustprogress noinline nounwind optnone uwtable
define linkonce_odr dso_local ptr @_ZNSt8_Rb_treeINSt7__cxx1112basic_stringIcSt11char_traitsIcESaIcEEESt4pairIKS5_N8nlohmann10basic_jsonISt3mapSt6vectorS5_blmdSaNS8_14adl_serializerEEEESt10_Select1stISE_ESt4lessIvESaISE_EE3endEv(ptr noundef nonnull align 8 dereferenceable(48) %0) #6 comdat align 2 {
  %2 = alloca %"union.nlohmann::basic_json<>::json_value", align 8
  %3 = alloca ptr, align 8
  store ptr %0, ptr %3, align 8
  %4 = load ptr, ptr %3, align 8
  %5 = getelementptr inbounds %"class.std::_Rb_tree", ptr %4, i32 0, i32 0
  %6 = getelementptr inbounds i8, ptr %5, i64 8
  %7 = getelementptr inbounds %"struct.std::_Rb_tree_header", ptr %6, i32 0, i32 0
  call void @_ZNSt17_Rb_tree_iteratorISt4pairIKNSt7__cxx1112basic_stringIcSt11char_traitsIcESaIcEEEN8nlohmann10basic_jsonISt3mapSt6vectorS6_blmdSaNS8_14adl_serializerEEEEEC2EPSt18_Rb_tree_node_base(ptr noundef nonnull align 8 dereferenceable(8) %2, ptr noundef %7) #3
  %8 = getelementptr inbounds %"union.nlohmann::basic_json<>::json_value", ptr %2, i32 0, i32 0
  %9 = load ptr, ptr %8, align 8
  ret ptr %9
}

; Function Attrs: noinline nounwind optnone uwtable
define linkonce_odr dso_local void @_ZNSt17_Rb_tree_iteratorISt4pairIKNSt7__cxx1112basic_stringIcSt11char_traitsIcESaIcEEEN8nlohmann10basic_jsonISt3mapSt6vectorS6_blmdSaNS8_14adl_serializerEEEEEC2EPSt18_Rb_tree_node_base(ptr noundef nonnull align 8 dereferenceable(8) %0, ptr noundef %1) unnamed_addr #7 comdat align 2 {
  %3 = alloca ptr, align 8
  %4 = alloca ptr, align 8
  store ptr %0, ptr %3, align 8
  store ptr %1, ptr %4, align 8
  %5 = load ptr, ptr %3, align 8
  %6 = getelementptr inbounds %"union.nlohmann::basic_json<>::json_value", ptr %5, i32 0, i32 0
  %7 = load ptr, ptr %4, align 8
  store ptr %7, ptr %6, align 8
  ret void
}

; Function Attrs: mustprogress noinline nounwind optnone uwtable
define linkonce_odr dso_local ptr @_ZNSt8_Rb_treeINSt7__cxx1112basic_stringIcSt11char_traitsIcESaIcEEESt4pairIKS5_N8nlohmann10basic_jsonISt3mapSt6vectorS5_blmdSaNS8_14adl_serializerEEEESt10_Select1stISE_ESt4lessIvESaISE_EE5beginEv(ptr noundef nonnull align 8 dereferenceable(48) %0) #6 comdat align 2 {
  %2 = alloca %"union.nlohmann::basic_json<>::json_value", align 8
  %3 = alloca ptr, align 8
  store ptr %0, ptr %3, align 8
  %4 = load ptr, ptr %3, align 8
  %5 = getelementptr inbounds %"class.std::_Rb_tree", ptr %4, i32 0, i32 0
  %6 = getelementptr inbounds i8, ptr %5, i64 8
  %7 = getelementptr inbounds %"struct.std::_Rb_tree_header", ptr %6, i32 0, i32 0
  %8 = getelementptr inbounds %"struct.std::_Rb_tree_node_base", ptr %7, i32 0, i32 2
  %9 = load ptr, ptr %8, align 8
  call void @_ZNSt17_Rb_tree_iteratorISt4pairIKNSt7__cxx1112basic_stringIcSt11char_traitsIcESaIcEEEN8nlohmann10basic_jsonISt3mapSt6vectorS6_blmdSaNS8_14adl_serializerEEEEEC2EPSt18_Rb_tree_node_base(ptr noundef nonnull align 8 dereferenceable(8) %2, ptr noundef %9) #3
  %10 = getelementptr inbounds %"union.nlohmann::basic_json<>::json_value", ptr %2, i32 0, i32 0
  %11 = load ptr, ptr %10, align 8
  ret ptr %11
}

; Function Attrs: mustprogress noinline nounwind optnone uwtable
define linkonce_odr dso_local noundef i64 @_ZNKSt8_Rb_treeINSt7__cxx1112basic_stringIcSt11char_traitsIcESaIcEEESt4pairIKS5_N8nlohmann10basic_jsonISt3mapSt6vectorS5_blmdSaNS8_14adl_serializerEEEESt10_Select1stISE_ESt4lessIvESaISE_EE4sizeEv(ptr noundef nonnull align 8 dereferenceable(48) %0) #6 comdat align 2 {
  %2 = alloca ptr, align 8
  store ptr %0, ptr %2, align 8
  %3 = load ptr, ptr %2, align 8
  %4 = getelementptr inbounds %"class.std::_Rb_tree", ptr %3, i32 0, i32 0
  %5 = getelementptr inbounds i8, ptr %4, i64 8
  %6 = getelementptr inbounds %"struct.std::_Rb_tree_header", ptr %5, i32 0, i32 1
  %7 = load i64, ptr %6, align 8
  ret i64 %7
}

; Function Attrs: mustprogress noinline nounwind optnone uwtable
define linkonce_odr dso_local ptr @_ZSt12__miter_baseIN9__gnu_cxx17__normal_iteratorIPN8nlohmann10basic_jsonISt3mapSt6vectorNSt7__cxx1112basic_stringIcSt11char_traitsIcESaIcEEEblmdSaNS2_14adl_serializerEEES5_ISD_SaISD_EEEEET_SI_(ptr %0) #6 comdat {
  %2 = alloca %"union.nlohmann::basic_json<>::json_value", align 8
  %3 = alloca %"union.nlohmann::basic_json<>::json_value", align 8
  %4 = getelementptr inbounds %"union.nlohmann::basic_json<>::json_value", ptr %3, i32 0, i32 0
  store ptr %0, ptr %4, align 8
  call void @llvm.memcpy.p0.p0.i64(ptr align 8 %2, ptr align 8 %3, i64 8, i1 false)
  %5 = getelementptr inbounds %"union.nlohmann::basic_json<>::json_value", ptr %2, i32 0, i32 0
  %6 = load ptr, ptr %5, align 8
  ret ptr %6
}

; Function Attrs: mustprogress noinline optnone uwtable
define linkonce_odr dso_local ptr @_ZSt14__copy_move_a2ILb1EN9__gnu_cxx17__normal_iteratorIPN8nlohmann10basic_jsonISt3mapSt6vectorNSt7__cxx1112basic_stringIcSt11char_traitsIcESaIcEEEblmdSaNS2_14adl_serializerEEES5_ISD_SaISD_EEEESt20back_insert_iteratorISG_EET1_T0_SL_SK_(ptr %0, ptr %1, ptr %2) #4 comdat {
  %4 = alloca %"union.nlohmann::basic_json<>::json_value", align 8
  %5 = alloca %"union.nlohmann::basic_json<>::json_value", align 8
  %6 = alloca %"union.nlohmann::basic_json<>::json_value", align 8
  %7 = alloca %"union.nlohmann::basic_json<>::json_value", align 8
  %8 = alloca %"union.nlohmann::basic_json<>::json_value", align 8
  %9 = alloca %"union.nlohmann::basic_json<>::json_value", align 8
  %10 = alloca %"union.nlohmann::basic_json<>::json_value", align 8
  %11 = alloca %"union.nlohmann::basic_json<>::json_value", align 8
  %12 = alloca %"union.nlohmann::basic_json<>::json_value", align 8
  %13 = getelementptr inbounds %"union.nlohmann::basic_json<>::json_value", ptr %5, i32 0, i32 0
  store ptr %0, ptr %13, align 8
  %14 = getelementptr inbounds %"union.nlohmann::basic_json<>::json_value", ptr %6, i32 0, i32 0
  store ptr %1, ptr %14, align 8
  %15 = getelementptr inbounds %"union.nlohmann::basic_json<>::json_value", ptr %7, i32 0, i32 0
  store ptr %2, ptr %15, align 8
  call void @llvm.memcpy.p0.p0.i64(ptr align 8 %9, ptr align 8 %5, i64 8, i1 false)
  %16 = getelementptr inbounds %"union.nlohmann::basic_json<>::json_value", ptr %9, i32 0, i32 0
  %17 = load ptr, ptr %16, align 8
  %18 = call noundef ptr @_ZSt12__niter_baseIPN8nlohmann10basic_jsonISt3mapSt6vectorNSt7__cxx1112basic_stringIcSt11char_traitsIcESaIcEEEblmdSaNS0_14adl_serializerEEES3_ISB_SaISB_EEET_N9__gnu_cxx17__normal_iteratorISF_T0_EE(ptr %17) #3
  call void @llvm.memcpy.p0.p0.i64(ptr align 8 %10, ptr align 8 %6, i64 8, i1 false)
  %19 = getelementptr inbounds %"union.nlohmann::basic_json<>::json_value", ptr %10, i32 0, i32 0
  %20 = load ptr, ptr %19, align 8
  %21 = call noundef ptr @_ZSt12__niter_baseIPN8nlohmann10basic_jsonISt3mapSt6vectorNSt7__cxx1112basic_stringIcSt11char_traitsIcESaIcEEEblmdSaNS0_14adl_serializerEEES3_ISB_SaISB_EEET_N9__gnu_cxx17__normal_iteratorISF_T0_EE(ptr %20) #3
  call void @llvm.memcpy.p0.p0.i64(ptr align 8 %12, ptr align 8 %7, i64 8, i1 false)
  %22 = getelementptr inbounds %"union.nlohmann::basic_json<>::json_value", ptr %12, i32 0, i32 0
  %23 = load ptr, ptr %22, align 8
  %24 = call ptr @_ZSt12__niter_baseISt20back_insert_iteratorISt6vectorIN8nlohmann10basic_jsonISt3mapS1_NSt7__cxx1112basic_stringIcSt11char_traitsIcESaIcEEEblmdSaNS2_14adl_serializerEEESaISC_EEEET_SG_(ptr %23) #3
  %25 = getelementptr inbounds %"union.nlohmann::basic_json<>::json_value", ptr %11, i32 0, i32 0
  store ptr %24, ptr %25, align 8
  %26 = getelementptr inbounds %"union.nlohmann::basic_json<>::json_value", ptr %11, i32 0, i32 0
  %27 = load ptr, ptr %26, align 8
  %28 = call ptr @_ZSt13__copy_move_aILb1EPN8nlohmann10basic_jsonISt3mapSt6vectorNSt7__cxx1112basic_stringIcSt11char_traitsIcESaIcEEEblmdSaNS0_14adl_serializerEEESt20back_insert_iteratorIS3_ISB_SaISB_EEEET1_T0_SI_SH_(ptr noundef %18, ptr noundef %21, ptr %27)
  %29 = getelementptr inbounds %"union.nlohmann::basic_json<>::json_value", ptr %8, i32 0, i32 0
  store ptr %28, ptr %29, align 8
  %30 = getelementptr inbounds %"union.nlohmann::basic_json<>::json_value", ptr %8, i32 0, i32 0
  %31 = load ptr, ptr %30, align 8
  %32 = call ptr @_ZSt12__niter_wrapISt20back_insert_iteratorISt6vectorIN8nlohmann10basic_jsonISt3mapS1_NSt7__cxx1112basic_stringIcSt11char_traitsIcESaIcEEEblmdSaNS2_14adl_serializerEEESaISC_EEEET_RKSG_SG_(ptr noundef nonnull align 8 dereferenceable(8) %7, ptr %31)
  %33 = getelementptr inbounds %"union.nlohmann::basic_json<>::json_value", ptr %4, i32 0, i32 0
  store ptr %32, ptr %33, align 8
  %34 = getelementptr inbounds %"union.nlohmann::basic_json<>::json_value", ptr %4, i32 0, i32 0
  %35 = load ptr, ptr %34, align 8
  ret ptr %35
}

; Function Attrs: mustprogress noinline nounwind optnone uwtable
define linkonce_odr dso_local noundef ptr @_ZSt12__niter_baseIPN8nlohmann10basic_jsonISt3mapSt6vectorNSt7__cxx1112basic_stringIcSt11char_traitsIcESaIcEEEblmdSaNS0_14adl_serializerEEES3_ISB_SaISB_EEET_N9__gnu_cxx17__normal_iteratorISF_T0_EE(ptr %0) #6 comdat {
  %2 = alloca %"union.nlohmann::basic_json<>::json_value", align 8
  %3 = getelementptr inbounds %"union.nlohmann::basic_json<>::json_value", ptr %2, i32 0, i32 0
  store ptr %0, ptr %3, align 8
  %4 = call noundef nonnull align 8 dereferenceable(8) ptr @_ZNK9__gnu_cxx17__normal_iteratorIPN8nlohmann10basic_jsonISt3mapSt6vectorNSt7__cxx1112basic_stringIcSt11char_traitsIcESaIcEEEblmdSaNS1_14adl_serializerEEES4_ISC_SaISC_EEE4baseEv(ptr noundef nonnull align 8 dereferenceable(8) %2) #3
  %5 = load ptr, ptr %4, align 8
  ret ptr %5
}

; Function Attrs: mustprogress noinline nounwind optnone uwtable
define linkonce_odr dso_local ptr @_ZSt12__niter_baseISt20back_insert_iteratorISt6vectorIN8nlohmann10basic_jsonISt3mapS1_NSt7__cxx1112basic_stringIcSt11char_traitsIcESaIcEEEblmdSaNS2_14adl_serializerEEESaISC_EEEET_SG_(ptr %0) #6 comdat {
  %2 = alloca %"union.nlohmann::basic_json<>::json_value", align 8
  %3 = alloca %"union.nlohmann::basic_json<>::json_value", align 8
  %4 = getelementptr inbounds %"union.nlohmann::basic_json<>::json_value", ptr %3, i32 0, i32 0
  store ptr %0, ptr %4, align 8
  call void @llvm.memcpy.p0.p0.i64(ptr align 8 %2, ptr align 8 %3, i64 8, i1 false)
  %5 = getelementptr inbounds %"union.nlohmann::basic_json<>::json_value", ptr %2, i32 0, i32 0
  %6 = load ptr, ptr %5, align 8
  ret ptr %6
}

; Function Attrs: mustprogress noinline optnone uwtable
define linkonce_odr dso_local ptr @_ZSt13__copy_move_aILb1EPN8nlohmann10basic_jsonISt3mapSt6vectorNSt7__cxx1112basic_stringIcSt11char_traitsIcESaIcEEEblmdSaNS0_14adl_serializerEEESt20back_insert_iteratorIS3_ISB_SaISB_EEEET1_T0_SI_SH_(ptr noundef %0, ptr noundef %1, ptr %2) #4 comdat {
  %4 = alloca %"union.nlohmann::basic_json<>::json_value", align 8
  %5 = alloca %"union.nlohmann::basic_json<>::json_value", align 8
  %6 = alloca ptr, align 8
  %7 = alloca ptr, align 8
  %8 = alloca i8, align 1
  %9 = alloca %"union.nlohmann::basic_json<>::json_value", align 8
  %10 = getelementptr inbounds %"union.nlohmann::basic_json<>::json_value", ptr %5, i32 0, i32 0
  store ptr %2, ptr %10, align 8
  store ptr %0, ptr %6, align 8
  store ptr %1, ptr %7, align 8
  store i8 0, ptr %8, align 1
  %11 = load ptr, ptr %6, align 8
  %12 = load ptr, ptr %7, align 8
  call void @llvm.memcpy.p0.p0.i64(ptr align 8 %9, ptr align 8 %5, i64 8, i1 false)
  %13 = getelementptr inbounds %"union.nlohmann::basic_json<>::json_value", ptr %9, i32 0, i32 0
  %14 = load ptr, ptr %13, align 8
  %15 = call ptr @_ZNSt11__copy_moveILb1ELb0ESt26random_access_iterator_tagE8__copy_mIPN8nlohmann10basic_jsonISt3mapSt6vectorNSt7__cxx1112basic_stringIcSt11char_traitsIcESaIcEEEblmdSaNS3_14adl_serializerEEESt20back_insert_iteratorIS6_ISE_SaISE_EEEEET0_T_SL_SK_(ptr noundef %11, ptr noundef %12, ptr %14)
  %16 = getelementptr inbounds %"union.nlohmann::basic_json<>::json_value", ptr %4, i32 0, i32 0
  store ptr %15, ptr %16, align 8
  %17 = getelementptr inbounds %"union.nlohmann::basic_json<>::json_value", ptr %4, i32 0, i32 0
  %18 = load ptr, ptr %17, align 8
  ret ptr %18
}

; Function Attrs: mustprogress noinline nounwind optnone uwtable
define linkonce_odr dso_local ptr @_ZSt12__niter_wrapISt20back_insert_iteratorISt6vectorIN8nlohmann10basic_jsonISt3mapS1_NSt7__cxx1112basic_stringIcSt11char_traitsIcESaIcEEEblmdSaNS2_14adl_serializerEEESaISC_EEEET_RKSG_SG_(ptr noundef nonnull align 8 dereferenceable(8) %0, ptr %1) #6 comdat {
  %3 = alloca %"union.nlohmann::basic_json<>::json_value", align 8
  %4 = alloca %"union.nlohmann::basic_json<>::json_value", align 8
  %5 = alloca ptr, align 8
  %6 = getelementptr inbounds %"union.nlohmann::basic_json<>::json_value", ptr %4, i32 0, i32 0
  store ptr %1, ptr %6, align 8
  store ptr %0, ptr %5, align 8
  call void @llvm.memcpy.p0.p0.i64(ptr align 8 %3, ptr align 8 %4, i64 8, i1 false)
  %7 = getelementptr inbounds %"union.nlohmann::basic_json<>::json_value", ptr %3, i32 0, i32 0
  %8 = load ptr, ptr %7, align 8
  ret ptr %8
}

; Function Attrs: mustprogress noinline optnone uwtable
define linkonce_odr dso_local ptr @_ZNSt11__copy_moveILb1ELb0ESt26random_access_iterator_tagE8__copy_mIPN8nlohmann10basic_jsonISt3mapSt6vectorNSt7__cxx1112basic_stringIcSt11char_traitsIcESaIcEEEblmdSaNS3_14adl_serializerEEESt20back_insert_iteratorIS6_ISE_SaISE_EEEEET0_T_SL_SK_(ptr noundef %0, ptr noundef %1, ptr %2) #4 comdat align 2 {
  %4 = alloca %"union.nlohmann::basic_json<>::json_value", align 8
  %5 = alloca %"union.nlohmann::basic_json<>::json_value", align 8
  %6 = alloca ptr, align 8
  %7 = alloca ptr, align 8
  %8 = alloca i64, align 8
  %9 = getelementptr inbounds %"union.nlohmann::basic_json<>::json_value", ptr %5, i32 0, i32 0
  store ptr %2, ptr %9, align 8
  store ptr %0, ptr %6, align 8
  store ptr %1, ptr %7, align 8
  %10 = load ptr, ptr %7, align 8
  %11 = load ptr, ptr %6, align 8
  %12 = ptrtoint ptr %10 to i64
  %13 = ptrtoint ptr %11 to i64
  %14 = sub i64 %12, %13
  %15 = sdiv exact i64 %14, 16
  store i64 %15, ptr %8, align 8
  br label %16

16:                                               ; preds = %26, %3
  %17 = load i64, ptr %8, align 8
  %18 = icmp sgt i64 %17, 0
  br i1 %18, label %19, label %29

19:                                               ; preds = %16
  %20 = load ptr, ptr %6, align 8
  %21 = call noundef nonnull align 8 dereferenceable(8) ptr @_ZNSt20back_insert_iteratorISt6vectorIN8nlohmann10basic_jsonISt3mapS0_NSt7__cxx1112basic_stringIcSt11char_traitsIcESaIcEEEblmdSaNS1_14adl_serializerEEESaISB_EEEdeEv(ptr noundef nonnull align 8 dereferenceable(8) %5)
  %22 = call noundef nonnull align 8 dereferenceable(8) ptr @_ZNSt20back_insert_iteratorISt6vectorIN8nlohmann10basic_jsonISt3mapS0_NSt7__cxx1112basic_stringIcSt11char_traitsIcESaIcEEEblmdSaNS1_14adl_serializerEEESaISB_EEEaSEOSB_(ptr noundef nonnull align 8 dereferenceable(8) %21, ptr noundef nonnull align 8 dereferenceable(16) %20)
  %23 = load ptr, ptr %6, align 8
  %24 = getelementptr inbounds %"class.nlohmann::basic_json", ptr %23, i32 1
  store ptr %24, ptr %6, align 8
  %25 = call noundef nonnull align 8 dereferenceable(8) ptr @_ZNSt20back_insert_iteratorISt6vectorIN8nlohmann10basic_jsonISt3mapS0_NSt7__cxx1112basic_stringIcSt11char_traitsIcESaIcEEEblmdSaNS1_14adl_serializerEEESaISB_EEEppEv(ptr noundef nonnull align 8 dereferenceable(8) %5)
  br label %26

26:                                               ; preds = %19
  %27 = load i64, ptr %8, align 8
  %28 = add nsw i64 %27, -1
  store i64 %28, ptr %8, align 8
  br label %16, !llvm.loop !11

29:                                               ; preds = %16
  call void @llvm.memcpy.p0.p0.i64(ptr align 8 %4, ptr align 8 %5, i64 8, i1 false)
  %30 = getelementptr inbounds %"union.nlohmann::basic_json<>::json_value", ptr %4, i32 0, i32 0
  %31 = load ptr, ptr %30, align 8
  ret ptr %31
}

; Function Attrs: mustprogress noinline nounwind optnone uwtable
define linkonce_odr dso_local noundef nonnull align 8 dereferenceable(8) ptr @_ZNSt20back_insert_iteratorISt6vectorIN8nlohmann10basic_jsonISt3mapS0_NSt7__cxx1112basic_stringIcSt11char_traitsIcESaIcEEEblmdSaNS1_14adl_serializerEEESaISB_EEEdeEv(ptr noundef nonnull align 8 dereferenceable(8) %0) #6 comdat align 2 {
  %2 = alloca ptr, align 8
  store ptr %0, ptr %2, align 8
  %3 = load ptr, ptr %2, align 8
  ret ptr %3
}

; Function Attrs: mustprogress noinline optnone uwtable
define linkonce_odr dso_local noundef nonnull align 8 dereferenceable(8) ptr @_ZNSt20back_insert_iteratorISt6vectorIN8nlohmann10basic_jsonISt3mapS0_NSt7__cxx1112basic_stringIcSt11char_traitsIcESaIcEEEblmdSaNS1_14adl_serializerEEESaISB_EEEaSEOSB_(ptr noundef nonnull align 8 dereferenceable(8) %0, ptr noundef nonnull align 8 dereferenceable(16) %1) #4 comdat align 2 {
  %3 = alloca ptr, align 8
  %4 = alloca ptr, align 8
  store ptr %0, ptr %3, align 8
  store ptr %1, ptr %4, align 8
  %5 = load ptr, ptr %3, align 8
  %6 = getelementptr inbounds %"union.nlohmann::basic_json<>::json_value", ptr %5, i32 0, i32 0
  %7 = load ptr, ptr %6, align 8
  %8 = load ptr, ptr %4, align 8
  call void @_ZNSt6vectorIN8nlohmann10basic_jsonISt3mapS_NSt7__cxx1112basic_stringIcSt11char_traitsIcESaIcEEEblmdSaNS0_14adl_serializerEEESaISA_EE9push_backEOSA_(ptr noundef nonnull align 8 dereferenceable(24) %7, ptr noundef nonnull align 8 dereferenceable(16) %8)
  ret ptr %5
}

; Function Attrs: mustprogress noinline nounwind optnone uwtable
define linkonce_odr dso_local noundef nonnull align 8 dereferenceable(8) ptr @_ZNSt20back_insert_iteratorISt6vectorIN8nlohmann10basic_jsonISt3mapS0_NSt7__cxx1112basic_stringIcSt11char_traitsIcESaIcEEEblmdSaNS1_14adl_serializerEEESaISB_EEEppEv(ptr noundef nonnull align 8 dereferenceable(8) %0) #6 comdat align 2 {
  %2 = alloca ptr, align 8
  store ptr %0, ptr %2, align 8
  %3 = load ptr, ptr %2, align 8
  ret ptr %3
}

; Function Attrs: noinline nounwind optnone uwtable
define linkonce_odr dso_local void @_ZNSt20back_insert_iteratorISt6vectorIN8nlohmann10basic_jsonISt3mapS0_NSt7__cxx1112basic_stringIcSt11char_traitsIcESaIcEEEblmdSaNS1_14adl_serializerEEESaISB_EEEC2ERSD_(ptr noundef nonnull align 8 dereferenceable(8) %0, ptr noundef nonnull align 8 dereferenceable(24) %1) unnamed_addr #7 comdat align 2 {
  %3 = alloca ptr, align 8
  %4 = alloca ptr, align 8
  store ptr %0, ptr %3, align 8
  store ptr %1, ptr %4, align 8
  %5 = load ptr, ptr %3, align 8
  %6 = getelementptr inbounds %"union.nlohmann::basic_json<>::json_value", ptr %5, i32 0, i32 0
  %7 = load ptr, ptr %4, align 8
  store ptr %7, ptr %6, align 8
  ret void
}

; Function Attrs: mustprogress noinline nounwind optnone uwtable
define linkonce_odr dso_local noundef i64 @_ZNKSt6vectorIN8nlohmann10basic_jsonISt3mapS_NSt7__cxx1112basic_stringIcSt11char_traitsIcESaIcEEEblmdSaNS0_14adl_serializerEEESaISA_EE8capacityEv(ptr noundef nonnull align 8 dereferenceable(24) %0) #6 comdat align 2 {
  %2 = alloca ptr, align 8
  store ptr %0, ptr %2, align 8
  %3 = load ptr, ptr %2, align 8
  %4 = getelementptr inbounds %"struct.std::_Vector_base.17", ptr %3, i32 0, i32 0
  %5 = getelementptr inbounds %"struct.std::_Vector_base<nlohmann::basic_json<>, std::allocator<nlohmann::basic_json<>>>::_Vector_impl_data", ptr %4, i32 0, i32 2
  %6 = load ptr, ptr %5, align 8
  %7 = getelementptr inbounds %"struct.std::_Vector_base.17", ptr %3, i32 0, i32 0
  %8 = getelementptr inbounds %"struct.std::_Vector_base<nlohmann::basic_json<>, std::allocator<nlohmann::basic_json<>>>::_Vector_impl_data", ptr %7, i32 0, i32 0
  %9 = load ptr, ptr %8, align 8
  %10 = ptrtoint ptr %6 to i64
  %11 = ptrtoint ptr %9 to i64
  %12 = sub i64 %10, %11
  %13 = sdiv exact i64 %12, 16
  ret i64 %13
}

; Function Attrs: noinline nounwind optnone uwtable
define linkonce_odr dso_local void @_ZNSt12_Vector_baseIN8nlohmann10basic_jsonISt3mapSt6vectorNSt7__cxx1112basic_stringIcSt11char_traitsIcESaIcEEEblmdSaNS0_14adl_serializerEEESaISB_EEC2Ev(ptr noundef nonnull align 8 dereferenceable(24) %0) unnamed_addr #7 comdat align 2 {
  %2 = alloca ptr, align 8
  store ptr %0, ptr %2, align 8
  %3 = load ptr, ptr %2, align 8
  %4 = getelementptr inbounds %"struct.std::_Vector_base.17", ptr %3, i32 0, i32 0
  call void @_ZNSt12_Vector_baseIN8nlohmann10basic_jsonISt3mapSt6vectorNSt7__cxx1112basic_stringIcSt11char_traitsIcESaIcEEEblmdSaNS0_14adl_serializerEEESaISB_EE12_Vector_implC2Ev(ptr noundef nonnull align 8 dereferenceable(24) %4) #3
  ret void
}

; Function Attrs: noinline nounwind optnone uwtable
define linkonce_odr dso_local void @_ZNSt12_Vector_baseIN8nlohmann10basic_jsonISt3mapSt6vectorNSt7__cxx1112basic_stringIcSt11char_traitsIcESaIcEEEblmdSaNS0_14adl_serializerEEESaISB_EE12_Vector_implC2Ev(ptr noundef nonnull align 8 dereferenceable(24) %0) unnamed_addr #7 comdat align 2 {
  %2 = alloca ptr, align 8
  store ptr %0, ptr %2, align 8
  %3 = load ptr, ptr %2, align 8
  call void @_ZNSaIN8nlohmann10basic_jsonISt3mapSt6vectorNSt7__cxx1112basic_stringIcSt11char_traitsIcESaIcEEEblmdSaNS_14adl_serializerEEEEC2Ev(ptr noundef nonnull align 1 dereferenceable(1) %3) #3
  call void @_ZNSt12_Vector_baseIN8nlohmann10basic_jsonISt3mapSt6vectorNSt7__cxx1112basic_stringIcSt11char_traitsIcESaIcEEEblmdSaNS0_14adl_serializerEEESaISB_EE17_Vector_impl_dataC2Ev(ptr noundef nonnull align 8 dereferenceable(24) %3) #3
  ret void
}

; Function Attrs: noinline nounwind optnone uwtable
define linkonce_odr dso_local void @_ZNSaIN8nlohmann10basic_jsonISt3mapSt6vectorNSt7__cxx1112basic_stringIcSt11char_traitsIcESaIcEEEblmdSaNS_14adl_serializerEEEEC2Ev(ptr noundef nonnull align 1 dereferenceable(1) %0) unnamed_addr #7 comdat align 2 {
  %2 = alloca ptr, align 8
  store ptr %0, ptr %2, align 8
  %3 = load ptr, ptr %2, align 8
  call void @_ZN9__gnu_cxx13new_allocatorIN8nlohmann10basic_jsonISt3mapSt6vectorNSt7__cxx1112basic_stringIcSt11char_traitsIcESaIcEEEblmdSaNS1_14adl_serializerEEEEC2Ev(ptr noundef nonnull align 1 dereferenceable(1) %3) #3
  ret void
}

; Function Attrs: noinline nounwind optnone uwtable
define linkonce_odr dso_local void @_ZNSt12_Vector_baseIN8nlohmann10basic_jsonISt3mapSt6vectorNSt7__cxx1112basic_stringIcSt11char_traitsIcESaIcEEEblmdSaNS0_14adl_serializerEEESaISB_EE17_Vector_impl_dataC2Ev(ptr noundef nonnull align 8 dereferenceable(24) %0) unnamed_addr #7 comdat align 2 {
  %2 = alloca ptr, align 8
  store ptr %0, ptr %2, align 8
  %3 = load ptr, ptr %2, align 8
  %4 = getelementptr inbounds %"struct.std::_Vector_base<nlohmann::basic_json<>, std::allocator<nlohmann::basic_json<>>>::_Vector_impl_data", ptr %3, i32 0, i32 0
  store ptr null, ptr %4, align 8
  %5 = getelementptr inbounds %"struct.std::_Vector_base<nlohmann::basic_json<>, std::allocator<nlohmann::basic_json<>>>::_Vector_impl_data", ptr %3, i32 0, i32 1
  store ptr null, ptr %5, align 8
  %6 = getelementptr inbounds %"struct.std::_Vector_base<nlohmann::basic_json<>, std::allocator<nlohmann::basic_json<>>>::_Vector_impl_data", ptr %3, i32 0, i32 2
  store ptr null, ptr %6, align 8
  ret void
}

; Function Attrs: noinline nounwind optnone uwtable
define linkonce_odr dso_local void @_ZN9__gnu_cxx13new_allocatorIN8nlohmann10basic_jsonISt3mapSt6vectorNSt7__cxx1112basic_stringIcSt11char_traitsIcESaIcEEEblmdSaNS1_14adl_serializerEEEEC2Ev(ptr noundef nonnull align 1 dereferenceable(1) %0) unnamed_addr #7 comdat align 2 {
  %2 = alloca ptr, align 8
  store ptr %0, ptr %2, align 8
  %3 = load ptr, ptr %2, align 8
  ret void
}

; Function Attrs: noreturn nounwind
declare void @__assert_fail(ptr noundef, ptr noundef, i32 noundef, ptr noundef) #15

; Function Attrs: mustprogress noinline nounwind optnone uwtable
define linkonce_odr dso_local void @_ZSt4swapIN8nlohmann6detail7value_tEENSt9enable_ifIXsr6__and_ISt6__not_ISt15__is_tuple_likeIT_EESt21is_move_constructibleIS6_ESt18is_move_assignableIS6_EEE5valueEvE4typeERS6_SF_(ptr noundef nonnull align 1 dereferenceable(1) %0, ptr noundef nonnull align 1 dereferenceable(1) %1) #6 comdat {
  %3 = alloca ptr, align 8
  %4 = alloca ptr, align 8
  %5 = alloca i8, align 1
  store ptr %0, ptr %3, align 8
  store ptr %1, ptr %4, align 8
  %6 = load ptr, ptr %3, align 8
  %7 = load i8, ptr %6, align 1
  store i8 %7, ptr %5, align 1
  %8 = load ptr, ptr %4, align 8
  %9 = load i8, ptr %8, align 1
  %10 = load ptr, ptr %3, align 8
  store i8 %9, ptr %10, align 1
  %11 = load i8, ptr %5, align 1
  %12 = load ptr, ptr %4, align 8
  store i8 %11, ptr %12, align 1
  ret void
}

; Function Attrs: mustprogress noinline nounwind optnone uwtable
define linkonce_odr dso_local void @_ZSt4swapIN8nlohmann10basic_jsonISt3mapSt6vectorNSt7__cxx1112basic_stringIcSt11char_traitsIcESaIcEEEblmdSaNS0_14adl_serializerEE10json_valueEENSt9enable_ifIXsr6__and_ISt6__not_ISt15__is_tuple_likeIT_EESt21is_move_constructibleISG_ESt18is_move_assignableISG_EEE5valueEvE4typeERSG_SP_(ptr noundef nonnull align 8 dereferenceable(8) %0, ptr noundef nonnull align 8 dereferenceable(8) %1) #6 comdat {
  %3 = alloca ptr, align 8
  %4 = alloca ptr, align 8
  %5 = alloca %"union.nlohmann::basic_json<>::json_value", align 8
  store ptr %0, ptr %3, align 8
  store ptr %1, ptr %4, align 8
  %6 = load ptr, ptr %3, align 8
  call void @llvm.memcpy.p0.p0.i64(ptr align 8 %5, ptr align 8 %6, i64 8, i1 false)
  %7 = load ptr, ptr %4, align 8
  %8 = load ptr, ptr %3, align 8
  call void @llvm.memcpy.p0.p0.i64(ptr align 8 %8, ptr align 8 %7, i64 8, i1 false)
  %9 = load ptr, ptr %4, align 8
  call void @llvm.memcpy.p0.p0.i64(ptr align 8 %9, ptr align 8 %5, i64 8, i1 false)
  ret void
}

; Function Attrs: mustprogress noinline nounwind optnone uwtable
define linkonce_odr dso_local noundef ptr @_ZNKSt16initializer_listIN8nlohmann6detail8json_refINS0_10basic_jsonISt3mapSt6vectorNSt7__cxx1112basic_stringIcSt11char_traitsIcESaIcEEEblmdSaNS0_14adl_serializerEEEEEE5beginEv(ptr noundef nonnull align 8 dereferenceable(16) %0) #6 comdat align 2 {
  %2 = alloca ptr, align 8
  store ptr %0, ptr %2, align 8
  %3 = load ptr, ptr %2, align 8
  %4 = getelementptr inbounds %"class.std::initializer_list", ptr %3, i32 0, i32 0
  %5 = load ptr, ptr %4, align 8
  ret ptr %5
}

; Function Attrs: mustprogress noinline nounwind optnone uwtable
define linkonce_odr dso_local noundef ptr @_ZNKSt16initializer_listIN8nlohmann6detail8json_refINS0_10basic_jsonISt3mapSt6vectorNSt7__cxx1112basic_stringIcSt11char_traitsIcESaIcEEEblmdSaNS0_14adl_serializerEEEEEE3endEv(ptr noundef nonnull align 8 dereferenceable(16) %0) #6 comdat align 2 {
  %2 = alloca ptr, align 8
  store ptr %0, ptr %2, align 8
  %3 = load ptr, ptr %2, align 8
  %4 = call noundef ptr @_ZNKSt16initializer_listIN8nlohmann6detail8json_refINS0_10basic_jsonISt3mapSt6vectorNSt7__cxx1112basic_stringIcSt11char_traitsIcESaIcEEEblmdSaNS0_14adl_serializerEEEEEE5beginEv(ptr noundef nonnull align 8 dereferenceable(16) %3) #3
  %5 = call noundef i64 @_ZNKSt16initializer_listIN8nlohmann6detail8json_refINS0_10basic_jsonISt3mapSt6vectorNSt7__cxx1112basic_stringIcSt11char_traitsIcESaIcEEEblmdSaNS0_14adl_serializerEEEEEE4sizeEv(ptr noundef nonnull align 8 dereferenceable(16) %3) #3
  %6 = getelementptr inbounds %"class.nlohmann::detail::json_ref", ptr %4, i64 %5
  ret ptr %6
}

; Function Attrs: mustprogress noinline optnone uwtable
define linkonce_odr dso_local noundef zeroext i1 @_ZSt6all_ofIPKN8nlohmann6detail8json_refINS0_10basic_jsonISt3mapSt6vectorNSt7__cxx1112basic_stringIcSt11char_traitsIcESaIcEEEblmdSaNS0_14adl_serializerEEEEEZNSD_C1ESt16initializer_listISE_EbNS1_7value_tEEUlRSF_E_EbT_SM_T0_(ptr noundef %0, ptr noundef %1) #4 comdat {
  %3 = alloca %"class.std::ios_base::Init", align 1
  %4 = alloca ptr, align 8
  %5 = alloca ptr, align 8
  %6 = alloca %"class.std::ios_base::Init", align 1
  store ptr %0, ptr %4, align 8
  store ptr %1, ptr %5, align 8
  %7 = load ptr, ptr %5, align 8
  %8 = load ptr, ptr %4, align 8
  %9 = load ptr, ptr %5, align 8
  %10 = call noundef ptr @_ZSt11find_if_notIPKN8nlohmann6detail8json_refINS0_10basic_jsonISt3mapSt6vectorNSt7__cxx1112basic_stringIcSt11char_traitsIcESaIcEEEblmdSaNS0_14adl_serializerEEEEEZNSD_C1ESt16initializer_listISE_EbNS1_7value_tEEUlRSF_E_ET_SM_SM_T0_(ptr noundef %8, ptr noundef %9)
  %11 = icmp eq ptr %7, %10
  ret i1 %11
}

declare ptr @__cxa_allocate_exception(i64)

; Function Attrs: nounwind
declare void @_ZNSaIcEC1Ev(ptr noundef nonnull align 1 dereferenceable(1)) unnamed_addr #2

; Function Attrs: noinline optnone uwtable
define linkonce_odr dso_local void @_ZNSt7__cxx1112basic_stringIcSt11char_traitsIcESaIcEEC2IS3_EEPKcRKS3_(ptr noundef nonnull align 8 dereferenceable(32) %0, ptr noundef %1, ptr noundef nonnull align 1 dereferenceable(1) %2) unnamed_addr #5 comdat align 2 personality ptr @__gxx_personality_v0 {
  %4 = alloca ptr, align 8
  %5 = alloca ptr, align 8
  %6 = alloca ptr, align 8
  %7 = alloca ptr, align 8
  %8 = alloca i32, align 4
  store ptr %0, ptr %4, align 8
  store ptr %1, ptr %5, align 8
  store ptr %2, ptr %6, align 8
  %9 = load ptr, ptr %4, align 8
  %10 = getelementptr inbounds %"class.std::__cxx11::basic_string", ptr %9, i32 0, i32 0
  %11 = call noundef ptr @_ZNSt7__cxx1112basic_stringIcSt11char_traitsIcESaIcEE13_M_local_dataEv(ptr noundef nonnull align 8 dereferenceable(32) %9)
  %12 = load ptr, ptr %6, align 8
  call void @_ZNSt7__cxx1112basic_stringIcSt11char_traitsIcESaIcEE12_Alloc_hiderC1EPcRKS3_(ptr noundef nonnull align 8 dereferenceable(8) %10, ptr noundef %11, ptr noundef nonnull align 1 dereferenceable(1) %12)
  %13 = load ptr, ptr %5, align 8
  %14 = load ptr, ptr %5, align 8
  %15 = icmp ne ptr %14, null
  br i1 %15, label %16, label %22

16:                                               ; preds = %3
  %17 = load ptr, ptr %5, align 8
  %18 = load ptr, ptr %5, align 8
  %19 = invoke noundef i64 @_ZNSt11char_traitsIcE6lengthEPKc(ptr noundef %18)
          to label %20 unwind label %28

20:                                               ; preds = %16
  %21 = getelementptr inbounds i8, ptr %17, i64 %19
  br label %25

22:                                               ; preds = %3
  %23 = load ptr, ptr %5, align 8
  %24 = getelementptr inbounds i8, ptr %23, i64 -1
  br label %25

25:                                               ; preds = %22, %20
  %26 = phi ptr [ %21, %20 ], [ %24, %22 ]
  invoke void @_ZNSt7__cxx1112basic_stringIcSt11char_traitsIcESaIcEE12_M_constructIPKcEEvT_S8_(ptr noundef nonnull align 8 dereferenceable(32) %9, ptr noundef %13, ptr noundef %26)
          to label %27 unwind label %28

27:                                               ; preds = %25
  ret void

28:                                               ; preds = %25, %16
  %29 = landingpad { ptr, i32 }
          cleanup
  %30 = extractvalue { ptr, i32 } %29, 0
  store ptr %30, ptr %7, align 8
  %31 = extractvalue { ptr, i32 } %29, 1
  store i32 %31, ptr %8, align 4
  call void @_ZNSt7__cxx1112basic_stringIcSt11char_traitsIcESaIcEE12_Alloc_hiderD2Ev(ptr noundef nonnull align 8 dereferenceable(8) %10) #3
  br label %32

32:                                               ; preds = %28
  %33 = load ptr, ptr %7, align 8
  %34 = load i32, ptr %8, align 4
  %35 = insertvalue { ptr, i32 } poison, ptr %33, 0
  %36 = insertvalue { ptr, i32 } %35, i32 %34, 1
  resume { ptr, i32 } %36
}

; Function Attrs: mustprogress noinline optnone uwtable
define linkonce_odr dso_local void @_ZN8nlohmann6detail10type_error6createEiRKNSt7__cxx1112basic_stringIcSt11char_traitsIcESaIcEEE(ptr noalias sret(%"class.nlohmann::detail::type_error") align 8 %0, i32 noundef %1, ptr noundef nonnull align 8 dereferenceable(32) %2) #4 comdat align 2 personality ptr @__gxx_personality_v0 {
  %4 = alloca ptr, align 8
  %5 = alloca i32, align 4
  %6 = alloca ptr, align 8
  %7 = alloca %"class.std::__cxx11::basic_string", align 8
  %8 = alloca %"class.std::__cxx11::basic_string", align 8
  %9 = alloca %"class.std::__cxx11::basic_string", align 8
  %10 = alloca %"class.std::ios_base::Init", align 1
  %11 = alloca ptr, align 8
  %12 = alloca i32, align 4
  store ptr %0, ptr %4, align 8
  store i32 %1, ptr %5, align 4
  store ptr %2, ptr %6, align 8
  call void @_ZNSaIcEC1Ev(ptr noundef nonnull align 1 dereferenceable(1) %10) #3
  invoke void @_ZNSt7__cxx1112basic_stringIcSt11char_traitsIcESaIcEEC2IS3_EEPKcRKS3_(ptr noundef nonnull align 8 dereferenceable(32) %9, ptr noundef @.str.34, ptr noundef nonnull align 1 dereferenceable(1) %10)
          to label %13 unwind label %21

13:                                               ; preds = %3
  %14 = load i32, ptr %5, align 4
  invoke void @_ZN8nlohmann6detail9exception4nameERKNSt7__cxx1112basic_stringIcSt11char_traitsIcESaIcEEEi(ptr sret(%"class.std::__cxx11::basic_string") align 8 %8, ptr noundef nonnull align 8 dereferenceable(32) %9, i32 noundef %14)
          to label %15 unwind label %25

15:                                               ; preds = %13
  %16 = load ptr, ptr %6, align 8
  invoke void @_ZStplIcSt11char_traitsIcESaIcEENSt7__cxx1112basic_stringIT_T0_T1_EEOS8_RKS8_(ptr sret(%"class.std::__cxx11::basic_string") align 8 %7, ptr noundef nonnull align 8 dereferenceable(32) %8, ptr noundef nonnull align 8 dereferenceable(32) %16)
          to label %17 unwind label %29

17:                                               ; preds = %15
  call void @_ZNSt7__cxx1112basic_stringIcSt11char_traitsIcESaIcEED1Ev(ptr noundef nonnull align 8 dereferenceable(32) %8) #3
  call void @_ZNSt7__cxx1112basic_stringIcSt11char_traitsIcESaIcEED1Ev(ptr noundef nonnull align 8 dereferenceable(32) %9) #3
  call void @_ZNSaIcED1Ev(ptr noundef nonnull align 1 dereferenceable(1) %10) #3
  %18 = load i32, ptr %5, align 4
  %19 = call noundef ptr @_ZNKSt7__cxx1112basic_stringIcSt11char_traitsIcESaIcEE5c_strEv(ptr noundef nonnull align 8 dereferenceable(32) %7) #3
  invoke void @_ZN8nlohmann6detail10type_errorC2EiPKc(ptr noundef nonnull align 8 dereferenceable(32) %0, i32 noundef %18, ptr noundef %19)
          to label %20 unwind label %35

20:                                               ; preds = %17
  call void @_ZNSt7__cxx1112basic_stringIcSt11char_traitsIcESaIcEED1Ev(ptr noundef nonnull align 8 dereferenceable(32) %7) #3
  ret void

21:                                               ; preds = %3
  %22 = landingpad { ptr, i32 }
          cleanup
  %23 = extractvalue { ptr, i32 } %22, 0
  store ptr %23, ptr %11, align 8
  %24 = extractvalue { ptr, i32 } %22, 1
  store i32 %24, ptr %12, align 4
  br label %34

25:                                               ; preds = %13
  %26 = landingpad { ptr, i32 }
          cleanup
  %27 = extractvalue { ptr, i32 } %26, 0
  store ptr %27, ptr %11, align 8
  %28 = extractvalue { ptr, i32 } %26, 1
  store i32 %28, ptr %12, align 4
  br label %33

29:                                               ; preds = %15
  %30 = landingpad { ptr, i32 }
          cleanup
  %31 = extractvalue { ptr, i32 } %30, 0
  store ptr %31, ptr %11, align 8
  %32 = extractvalue { ptr, i32 } %30, 1
  store i32 %32, ptr %12, align 4
  call void @_ZNSt7__cxx1112basic_stringIcSt11char_traitsIcESaIcEED1Ev(ptr noundef nonnull align 8 dereferenceable(32) %8) #3
  br label %33

33:                                               ; preds = %29, %25
  call void @_ZNSt7__cxx1112basic_stringIcSt11char_traitsIcESaIcEED1Ev(ptr noundef nonnull align 8 dereferenceable(32) %9) #3
  br label %34

34:                                               ; preds = %33, %21
  call void @_ZNSaIcED1Ev(ptr noundef nonnull align 1 dereferenceable(1) %10) #3
  br label %39

35:                                               ; preds = %17
  %36 = landingpad { ptr, i32 }
          cleanup
  %37 = extractvalue { ptr, i32 } %36, 0
  store ptr %37, ptr %11, align 8
  %38 = extractvalue { ptr, i32 } %36, 1
  store i32 %38, ptr %12, align 4
  call void @_ZNSt7__cxx1112basic_stringIcSt11char_traitsIcESaIcEED1Ev(ptr noundef nonnull align 8 dereferenceable(32) %7) #3
  br label %39

39:                                               ; preds = %35, %34
  %40 = load ptr, ptr %11, align 8
  %41 = load i32, ptr %12, align 4
  %42 = insertvalue { ptr, i32 } poison, ptr %40, 0
  %43 = insertvalue { ptr, i32 } %42, i32 %41, 1
  resume { ptr, i32 } %43
}

; Function Attrs: noinline nounwind optnone uwtable
define linkonce_odr dso_local void @_ZN8nlohmann6detail10type_errorD2Ev(ptr noundef nonnull align 8 dereferenceable(32) %0) unnamed_addr #7 comdat align 2 {
  %2 = alloca ptr, align 8
  store ptr %0, ptr %2, align 8
  %3 = load ptr, ptr %2, align 8
  call void @_ZN8nlohmann6detail9exceptionD2Ev(ptr noundef nonnull align 8 dereferenceable(32) %3) #3
  ret void
}

declare void @__cxa_throw(ptr, ptr, ptr)

; Function Attrs: nounwind
declare void @_ZNSaIcED1Ev(ptr noundef nonnull align 1 dereferenceable(1)) unnamed_addr #2

declare void @__cxa_free_exception(ptr)

; Function Attrs: noinline optnone uwtable
define linkonce_odr dso_local void @_ZN8nlohmann10basic_jsonISt3mapSt6vectorNSt7__cxx1112basic_stringIcSt11char_traitsIcESaIcEEEblmdSaNS_14adl_serializerEE10json_valueC2ENS_6detail7value_tE(ptr noundef nonnull align 8 dereferenceable(8) %0, i8 noundef zeroext %1) unnamed_addr #5 comdat align 2 personality ptr @__gxx_personality_v0 {
  %3 = alloca ptr, align 8
  %4 = alloca i8, align 1
  %5 = alloca %"class.std::__cxx11::basic_string", align 8
  %6 = alloca %"class.std::ios_base::Init", align 1
  %7 = alloca ptr, align 8
  %8 = alloca i32, align 4
  %9 = alloca i1, align 1
  store ptr %0, ptr %3, align 8
  store i8 %1, ptr %4, align 1
  %10 = load ptr, ptr %3, align 8
  %11 = load i8, ptr %4, align 1
  switch i8 %11, label %23 [
    i8 1, label %12
    i8 2, label %14
    i8 3, label %16
    i8 4, label %18
    i8 5, label %19
    i8 6, label %20
    i8 7, label %21
    i8 0, label %22
  ]

12:                                               ; preds = %2
  %13 = call noundef nonnull ptr @_ZN8nlohmann10basic_jsonISt3mapSt6vectorNSt7__cxx1112basic_stringIcSt11char_traitsIcESaIcEEEblmdSaNS_14adl_serializerEE6createIS1_IS8_SA_St4lessIvESaISt4pairIKS8_SA_EEEJEEEPT_DpOT0_()
  store ptr %13, ptr %10, align 8
  br label %45

14:                                               ; preds = %2
  %15 = call noundef nonnull ptr @_ZN8nlohmann10basic_jsonISt3mapSt6vectorNSt7__cxx1112basic_stringIcSt11char_traitsIcESaIcEEEblmdSaNS_14adl_serializerEE6createIS2_ISA_SaISA_EEJEEEPT_DpOT0_()
  store ptr %15, ptr %10, align 8
  br label %45

16:                                               ; preds = %2
  %17 = call noundef nonnull ptr @_ZN8nlohmann10basic_jsonISt3mapSt6vectorNSt7__cxx1112basic_stringIcSt11char_traitsIcESaIcEEEblmdSaNS_14adl_serializerEE6createIS8_JRA1_KcEEEPT_DpOT0_(ptr noundef nonnull align 1 dereferenceable(1) @.str.2)
  store ptr %17, ptr %10, align 8
  br label %45

18:                                               ; preds = %2
  store i8 0, ptr %10, align 8
  br label %45

19:                                               ; preds = %2
  store i64 0, ptr %10, align 8
  br label %45

20:                                               ; preds = %2
  store i64 0, ptr %10, align 8
  br label %45

21:                                               ; preds = %2
  store double 0.000000e+00, ptr %10, align 8
  br label %45

22:                                               ; preds = %2
  store ptr null, ptr %10, align 8
  br label %45

23:                                               ; preds = %2
  store ptr null, ptr %10, align 8
  %24 = load i8, ptr %4, align 1
  %25 = icmp eq i8 %24, 0
  %26 = xor i1 %25, true
  %27 = xor i1 %26, true
  br i1 %27, label %28, label %44

28:                                               ; preds = %23
  store i1 true, ptr %9, align 1
  %29 = call ptr @__cxa_allocate_exception(i64 32) #3
  call void @_ZNSaIcEC1Ev(ptr noundef nonnull align 1 dereferenceable(1) %6) #3
  invoke void @_ZNSt7__cxx1112basic_stringIcSt11char_traitsIcESaIcEEC2IS3_EEPKcRKS3_(ptr noundef nonnull align 8 dereferenceable(32) %5, ptr noundef @.str.94, ptr noundef nonnull align 1 dereferenceable(1) %6)
          to label %30 unwind label %32

30:                                               ; preds = %28
  invoke void @_ZN8nlohmann6detail11other_error6createEiRKNSt7__cxx1112basic_stringIcSt11char_traitsIcESaIcEEE(ptr sret(%"class.nlohmann::detail::type_error") align 8 %29, i32 noundef 500, ptr noundef nonnull align 8 dereferenceable(32) %5)
          to label %31 unwind label %36

31:                                               ; preds = %30
  store i1 false, ptr %9, align 1
  invoke void @__cxa_throw(ptr %29, ptr @_ZTIN8nlohmann6detail11other_errorE, ptr @_ZN8nlohmann6detail11other_errorD2Ev) #21
          to label %51 unwind label %36

32:                                               ; preds = %28
  %33 = landingpad { ptr, i32 }
          cleanup
  %34 = extractvalue { ptr, i32 } %33, 0
  store ptr %34, ptr %7, align 8
  %35 = extractvalue { ptr, i32 } %33, 1
  store i32 %35, ptr %8, align 4
  br label %40

36:                                               ; preds = %31, %30
  %37 = landingpad { ptr, i32 }
          cleanup
  %38 = extractvalue { ptr, i32 } %37, 0
  store ptr %38, ptr %7, align 8
  %39 = extractvalue { ptr, i32 } %37, 1
  store i32 %39, ptr %8, align 4
  call void @_ZNSt7__cxx1112basic_stringIcSt11char_traitsIcESaIcEED1Ev(ptr noundef nonnull align 8 dereferenceable(32) %5) #3
  br label %40

40:                                               ; preds = %36, %32
  call void @_ZNSaIcED1Ev(ptr noundef nonnull align 1 dereferenceable(1) %6) #3
  %41 = load i1, ptr %9, align 1
  br i1 %41, label %42, label %43

42:                                               ; preds = %40
  call void @__cxa_free_exception(ptr %29) #3
  br label %43

43:                                               ; preds = %42, %40
  br label %46

44:                                               ; preds = %23
  br label %45

45:                                               ; preds = %44, %22, %21, %20, %19, %18, %16, %14, %12
  ret void

46:                                               ; preds = %43
  %47 = load ptr, ptr %7, align 8
  %48 = load i32, ptr %8, align 4
  %49 = insertvalue { ptr, i32 } poison, ptr %47, 0
  %50 = insertvalue { ptr, i32 } %49, i32 %48, 1
  resume { ptr, i32 } %50

51:                                               ; preds = %31
  unreachable
}

; Function Attrs: mustprogress noinline optnone uwtable
define linkonce_odr dso_local ptr @_ZSt8for_eachIPKN8nlohmann6detail8json_refINS0_10basic_jsonISt3mapSt6vectorNSt7__cxx1112basic_stringIcSt11char_traitsIcESaIcEEEblmdSaNS0_14adl_serializerEEEEEZNSD_C1ESt16initializer_listISE_EbNS1_7value_tEEUlRSF_E0_ET0_T_SN_SM_(ptr noundef %0, ptr noundef %1, ptr %2) #4 comdat {
  %4 = alloca %"union.nlohmann::basic_json<>::json_value", align 8
  %5 = alloca %"union.nlohmann::basic_json<>::json_value", align 8
  %6 = alloca ptr, align 8
  %7 = alloca ptr, align 8
  %8 = getelementptr inbounds %"union.nlohmann::basic_json<>::json_value", ptr %5, i32 0, i32 0
  store ptr %2, ptr %8, align 8
  store ptr %0, ptr %6, align 8
  store ptr %1, ptr %7, align 8
  br label %9

9:                                                ; preds = %15, %3
  %10 = load ptr, ptr %6, align 8
  %11 = load ptr, ptr %7, align 8
  %12 = icmp ne ptr %10, %11
  br i1 %12, label %13, label %18

13:                                               ; preds = %9
  %14 = load ptr, ptr %6, align 8
  call void @_ZZN8nlohmann10basic_jsonISt3mapSt6vectorNSt7__cxx1112basic_stringIcSt11char_traitsIcESaIcEEEblmdSaNS_14adl_serializerEEC1ESt16initializer_listINS_6detail8json_refISA_EEEbNSC_7value_tEENKUlRKSE_E0_clESI_(ptr noundef nonnull align 8 dereferenceable(8) %5, ptr noundef nonnull align 8 dereferenceable(25) %14)
  br label %15

15:                                               ; preds = %13
  %16 = load ptr, ptr %6, align 8
  %17 = getelementptr inbounds %"class.nlohmann::detail::json_ref", ptr %16, i32 1
  store ptr %17, ptr %6, align 8
  br label %9, !llvm.loop !12

18:                                               ; preds = %9
  call void @llvm.memcpy.p0.p0.i64(ptr align 8 %4, ptr align 8 %5, i64 8, i1 false)
  %19 = getelementptr inbounds %"union.nlohmann::basic_json<>::json_value", ptr %4, i32 0, i32 0
  %20 = load ptr, ptr %19, align 8
  ret ptr %20
}

; Function Attrs: mustprogress noinline optnone uwtable
define linkonce_odr dso_local noundef nonnull ptr @_ZN8nlohmann10basic_jsonISt3mapSt6vectorNSt7__cxx1112basic_stringIcSt11char_traitsIcESaIcEEEblmdSaNS_14adl_serializerEE6createIS2_ISA_SaISA_EEJPKNS_6detail8json_refISA_EESI_EEEPT_DpOT0_(ptr noundef nonnull align 8 dereferenceable(8) %0, ptr noundef nonnull align 8 dereferenceable(8) %1) #4 comdat align 2 personality ptr @__gxx_personality_v0 {
  %3 = alloca ptr, align 8
  %4 = alloca ptr, align 8
  %5 = alloca %"class.std::ios_base::Init", align 1
  %6 = alloca %"union.nlohmann::basic_json<>::json_value", align 8
  %7 = alloca %"class.std::unique_ptr.90", align 8
  %8 = alloca ptr, align 8
  %9 = alloca i32, align 4
  store ptr %0, ptr %3, align 8
  store ptr %1, ptr %4, align 8
  call void @_ZNSaISt6vectorIN8nlohmann10basic_jsonISt3mapS_NSt7__cxx1112basic_stringIcSt11char_traitsIcESaIcEEEblmdSaNS0_14adl_serializerEEESaISA_EEEC2Ev(ptr noundef nonnull align 1 dereferenceable(1) %5) #3
  %10 = getelementptr inbounds %"union.nlohmann::basic_json<>::json_value", ptr %6, i32 0, i32 0
  store ptr %5, ptr %10, align 8
  %11 = invoke noundef ptr @_ZNSt16allocator_traitsISaISt6vectorIN8nlohmann10basic_jsonISt3mapS0_NSt7__cxx1112basic_stringIcSt11char_traitsIcESaIcEEEblmdSaNS1_14adl_serializerEEESaISB_EEEE8allocateERSE_m(ptr noundef nonnull align 1 dereferenceable(1) %5, i64 noundef 1)
          to label %12 unwind label %20

12:                                               ; preds = %2
  call void @_ZNSt10unique_ptrISt6vectorIN8nlohmann10basic_jsonISt3mapS0_NSt7__cxx1112basic_stringIcSt11char_traitsIcESaIcEEEblmdSaNS1_14adl_serializerEEESaISB_EEZNSB_6createISD_JPKNS1_6detail8json_refISB_EESJ_EEEPT_DpOT0_EUlPSD_E_EC2ISQ_vEESP_RKSQ_(ptr noundef nonnull align 8 dereferenceable(16) %7, ptr noundef %11, ptr noundef nonnull align 8 dereferenceable(8) %6) #3
  %13 = call noundef ptr @_ZNKSt10unique_ptrISt6vectorIN8nlohmann10basic_jsonISt3mapS0_NSt7__cxx1112basic_stringIcSt11char_traitsIcESaIcEEEblmdSaNS1_14adl_serializerEEESaISB_EEZNSB_6createISD_JPKNS1_6detail8json_refISB_EESJ_EEEPT_DpOT0_EUlPSD_E_E3getEv(ptr noundef nonnull align 8 dereferenceable(16) %7) #3
  %14 = load ptr, ptr %3, align 8
  %15 = load ptr, ptr %4, align 8
  invoke void @_ZNSt16allocator_traitsISaISt6vectorIN8nlohmann10basic_jsonISt3mapS0_NSt7__cxx1112basic_stringIcSt11char_traitsIcESaIcEEEblmdSaNS1_14adl_serializerEEESaISB_EEEE9constructISD_JPKNS1_6detail8json_refISB_EESL_EEEvRSE_PT_DpOT0_(ptr noundef nonnull align 1 dereferenceable(1) %5, ptr noundef %13, ptr noundef nonnull align 8 dereferenceable(8) %14, ptr noundef nonnull align 8 dereferenceable(8) %15)
          to label %16 unwind label %24

16:                                               ; preds = %12
  %17 = call noundef zeroext i1 @_ZStneISt6vectorIN8nlohmann10basic_jsonISt3mapS0_NSt7__cxx1112basic_stringIcSt11char_traitsIcESaIcEEEblmdSaNS1_14adl_serializerEEESaISB_EEZNSB_6createISD_JPKNS1_6detail8json_refISB_EESJ_EEEPT_DpOT0_EUlPSD_E_EbRKSt10unique_ptrISK_T0_EDn(ptr noundef nonnull align 8 dereferenceable(16) %7, ptr null) #3
  br i1 %17, label %18, label %19

18:                                               ; preds = %16
  br label %29

19:                                               ; preds = %16
  call void @__assert_fail(ptr noundef @.str.85, ptr noundef @.str.80, i32 noundef 839, ptr noundef @__PRETTY_FUNCTION__._ZN8nlohmann10basic_jsonISt3mapSt6vectorNSt7__cxx1112basic_stringIcSt11char_traitsIcESaIcEEEblmdSaNS_14adl_serializerEE6createIS2_ISA_SaISA_EEJPKNS_6detail8json_refISA_EESI_EEEPT_DpOT0_) #22
  unreachable

20:                                               ; preds = %2
  %21 = landingpad { ptr, i32 }
          cleanup
  %22 = extractvalue { ptr, i32 } %21, 0
  store ptr %22, ptr %8, align 8
  %23 = extractvalue { ptr, i32 } %21, 1
  store i32 %23, ptr %9, align 4
  br label %31

24:                                               ; preds = %12
  %25 = landingpad { ptr, i32 }
          cleanup
  %26 = extractvalue { ptr, i32 } %25, 0
  store ptr %26, ptr %8, align 8
  %27 = extractvalue { ptr, i32 } %25, 1
  store i32 %27, ptr %9, align 4
  call void @_ZNSt10unique_ptrISt6vectorIN8nlohmann10basic_jsonISt3mapS0_NSt7__cxx1112basic_stringIcSt11char_traitsIcESaIcEEEblmdSaNS1_14adl_serializerEEESaISB_EEZNSB_6createISD_JPKNS1_6detail8json_refISB_EESJ_EEEPT_DpOT0_EUlPSD_E_ED2Ev(ptr noundef nonnull align 8 dereferenceable(16) %7) #3
  br label %31

28:                                               ; No predecessors!
  br label %29

29:                                               ; preds = %28, %18
  %30 = call noundef ptr @_ZNSt10unique_ptrISt6vectorIN8nlohmann10basic_jsonISt3mapS0_NSt7__cxx1112basic_stringIcSt11char_traitsIcESaIcEEEblmdSaNS1_14adl_serializerEEESaISB_EEZNSB_6createISD_JPKNS1_6detail8json_refISB_EESJ_EEEPT_DpOT0_EUlPSD_E_E7releaseEv(ptr noundef nonnull align 8 dereferenceable(16) %7) #3
  call void @_ZNSt10unique_ptrISt6vectorIN8nlohmann10basic_jsonISt3mapS0_NSt7__cxx1112basic_stringIcSt11char_traitsIcESaIcEEEblmdSaNS1_14adl_serializerEEESaISB_EEZNSB_6createISD_JPKNS1_6detail8json_refISB_EESJ_EEEPT_DpOT0_EUlPSD_E_ED2Ev(ptr noundef nonnull align 8 dereferenceable(16) %7) #3
  call void @_ZNSaISt6vectorIN8nlohmann10basic_jsonISt3mapS_NSt7__cxx1112basic_stringIcSt11char_traitsIcESaIcEEEblmdSaNS0_14adl_serializerEEESaISA_EEED2Ev(ptr noundef nonnull align 1 dereferenceable(1) %5) #3
  ret ptr %30

31:                                               ; preds = %24, %20
  call void @_ZNSaISt6vectorIN8nlohmann10basic_jsonISt3mapS_NSt7__cxx1112basic_stringIcSt11char_traitsIcESaIcEEEblmdSaNS0_14adl_serializerEEESaISA_EEED2Ev(ptr noundef nonnull align 1 dereferenceable(1) %5) #3
  br label %32

32:                                               ; preds = %31
  %33 = load ptr, ptr %8, align 8
  %34 = load i32, ptr %9, align 4
  %35 = insertvalue { ptr, i32 } poison, ptr %33, 0
  %36 = insertvalue { ptr, i32 } %35, i32 %34, 1
  resume { ptr, i32 } %36
}

; Function Attrs: mustprogress noinline optnone uwtable
define linkonce_odr dso_local noundef ptr @_ZNSt16allocator_traitsISaISt6vectorIN8nlohmann10basic_jsonISt3mapS0_NSt7__cxx1112basic_stringIcSt11char_traitsIcESaIcEEEblmdSaNS1_14adl_serializerEEESaISB_EEEE8allocateERSE_m(ptr noundef nonnull align 1 dereferenceable(1) %0, i64 noundef %1) #4 comdat align 2 {
  %3 = alloca ptr, align 8
  %4 = alloca i64, align 8
  store ptr %0, ptr %3, align 8
  store i64 %1, ptr %4, align 8
  %5 = load ptr, ptr %3, align 8
  %6 = load i64, ptr %4, align 8
  %7 = call noundef ptr @_ZN9__gnu_cxx13new_allocatorISt6vectorIN8nlohmann10basic_jsonISt3mapS1_NSt7__cxx1112basic_stringIcSt11char_traitsIcESaIcEEEblmdSaNS2_14adl_serializerEEESaISC_EEE8allocateEmPKv(ptr noundef nonnull align 1 dereferenceable(1) %5, i64 noundef %6, ptr noundef null)
  ret ptr %7
}

; Function Attrs: noinline nounwind optnone uwtable
define linkonce_odr dso_local void @_ZNSt10unique_ptrISt6vectorIN8nlohmann10basic_jsonISt3mapS0_NSt7__cxx1112basic_stringIcSt11char_traitsIcESaIcEEEblmdSaNS1_14adl_serializerEEESaISB_EEZNSB_6createISD_JPKNS1_6detail8json_refISB_EESJ_EEEPT_DpOT0_EUlPSD_E_EC2ISQ_vEESP_RKSQ_(ptr noundef nonnull align 8 dereferenceable(16) %0, ptr noundef %1, ptr noundef nonnull align 8 dereferenceable(8) %2) unnamed_addr #7 comdat align 2 personality ptr @__gxx_personality_v0 {
  %4 = alloca ptr, align 8
  %5 = alloca ptr, align 8
  %6 = alloca ptr, align 8
  store ptr %0, ptr %4, align 8
  store ptr %1, ptr %5, align 8
  store ptr %2, ptr %6, align 8
  %7 = load ptr, ptr %4, align 8
  %8 = getelementptr inbounds %"class.std::unique_ptr.90", ptr %7, i32 0, i32 0
  %9 = load ptr, ptr %5, align 8
  %10 = load ptr, ptr %6, align 8
  invoke void @_ZNSt15__uniq_ptr_implISt6vectorIN8nlohmann10basic_jsonISt3mapS0_NSt7__cxx1112basic_stringIcSt11char_traitsIcESaIcEEEblmdSaNS1_14adl_serializerEEESaISB_EEZNSB_6createISD_JPKNS1_6detail8json_refISB_EESJ_EEEPT_DpOT0_EUlPSD_E_EC2IRKSQ_EESP_OSK_(ptr noundef nonnull align 8 dereferenceable(16) %8, ptr noundef %9, ptr noundef nonnull align 8 dereferenceable(8) %10)
          to label %11 unwind label %12

11:                                               ; preds = %3
  ret void

12:                                               ; preds = %3
  %13 = landingpad { ptr, i32 }
          catch ptr null
  %14 = extractvalue { ptr, i32 } %13, 0
  call void @__clang_call_terminate(ptr %14) #22
  unreachable
}

; Function Attrs: mustprogress noinline nounwind optnone uwtable
define linkonce_odr dso_local noundef ptr @_ZNKSt10unique_ptrISt6vectorIN8nlohmann10basic_jsonISt3mapS0_NSt7__cxx1112basic_stringIcSt11char_traitsIcESaIcEEEblmdSaNS1_14adl_serializerEEESaISB_EEZNSB_6createISD_JPKNS1_6detail8json_refISB_EESJ_EEEPT_DpOT0_EUlPSD_E_E3getEv(ptr noundef nonnull align 8 dereferenceable(16) %0) #6 comdat align 2 personality ptr @__gxx_personality_v0 {
  %2 = alloca ptr, align 8
  store ptr %0, ptr %2, align 8
  %3 = load ptr, ptr %2, align 8
  %4 = getelementptr inbounds %"class.std::unique_ptr.90", ptr %3, i32 0, i32 0
  %5 = invoke noundef ptr @_ZNKSt15__uniq_ptr_implISt6vectorIN8nlohmann10basic_jsonISt3mapS0_NSt7__cxx1112basic_stringIcSt11char_traitsIcESaIcEEEblmdSaNS1_14adl_serializerEEESaISB_EEZNSB_6createISD_JPKNS1_6detail8json_refISB_EESJ_EEEPT_DpOT0_EUlPSD_E_E6_M_ptrEv(ptr noundef nonnull align 8 dereferenceable(16) %4)
          to label %6 unwind label %7

6:                                                ; preds = %1
  ret ptr %5

7:                                                ; preds = %1
  %8 = landingpad { ptr, i32 }
          catch ptr null
  %9 = extractvalue { ptr, i32 } %8, 0
  call void @__clang_call_terminate(ptr %9) #22
  unreachable
}

; Function Attrs: mustprogress noinline optnone uwtable
define linkonce_odr dso_local void @_ZNSt16allocator_traitsISaISt6vectorIN8nlohmann10basic_jsonISt3mapS0_NSt7__cxx1112basic_stringIcSt11char_traitsIcESaIcEEEblmdSaNS1_14adl_serializerEEESaISB_EEEE9constructISD_JPKNS1_6detail8json_refISB_EESL_EEEvRSE_PT_DpOT0_(ptr noundef nonnull align 1 dereferenceable(1) %0, ptr noundef %1, ptr noundef nonnull align 8 dereferenceable(8) %2, ptr noundef nonnull align 8 dereferenceable(8) %3) #4 comdat align 2 {
  %5 = alloca ptr, align 8
  %6 = alloca ptr, align 8
  %7 = alloca ptr, align 8
  %8 = alloca ptr, align 8
  store ptr %0, ptr %5, align 8
  store ptr %1, ptr %6, align 8
  store ptr %2, ptr %7, align 8
  store ptr %3, ptr %8, align 8
  %9 = load ptr, ptr %5, align 8
  %10 = load ptr, ptr %6, align 8
  %11 = load ptr, ptr %7, align 8
  %12 = load ptr, ptr %8, align 8
  call void @_ZN9__gnu_cxx13new_allocatorISt6vectorIN8nlohmann10basic_jsonISt3mapS1_NSt7__cxx1112basic_stringIcSt11char_traitsIcESaIcEEEblmdSaNS2_14adl_serializerEEESaISC_EEE9constructISE_JPKNS2_6detail8json_refISC_EESL_EEEvPT_DpOT0_(ptr noundef nonnull align 1 dereferenceable(1) %9, ptr noundef %10, ptr noundef nonnull align 8 dereferenceable(8) %11, ptr noundef nonnull align 8 dereferenceable(8) %12)
  ret void
}

; Function Attrs: mustprogress noinline nounwind optnone uwtable
define linkonce_odr dso_local noundef zeroext i1 @_ZStneISt6vectorIN8nlohmann10basic_jsonISt3mapS0_NSt7__cxx1112basic_stringIcSt11char_traitsIcESaIcEEEblmdSaNS1_14adl_serializerEEESaISB_EEZNSB_6createISD_JPKNS1_6detail8json_refISB_EESJ_EEEPT_DpOT0_EUlPSD_E_EbRKSt10unique_ptrISK_T0_EDn(ptr noundef nonnull align 8 dereferenceable(16) %0, ptr %1) #6 comdat {
  %3 = alloca ptr, align 8
  %4 = alloca ptr, align 8
  store ptr %0, ptr %3, align 8
  store ptr %1, ptr %4, align 8
  %5 = load ptr, ptr %3, align 8
  %6 = call noundef zeroext i1 @_ZNKSt10unique_ptrISt6vectorIN8nlohmann10basic_jsonISt3mapS0_NSt7__cxx1112basic_stringIcSt11char_traitsIcESaIcEEEblmdSaNS1_14adl_serializerEEESaISB_EEZNSB_6createISD_JPKNS1_6detail8json_refISB_EESJ_EEEPT_DpOT0_EUlPSD_E_EcvbEv(ptr noundef nonnull align 8 dereferenceable(16) %5) #3
  ret i1 %6
}

; Function Attrs: noinline nounwind optnone uwtable
define linkonce_odr dso_local void @_ZNSt10unique_ptrISt6vectorIN8nlohmann10basic_jsonISt3mapS0_NSt7__cxx1112basic_stringIcSt11char_traitsIcESaIcEEEblmdSaNS1_14adl_serializerEEESaISB_EEZNSB_6createISD_JPKNS1_6detail8json_refISB_EESJ_EEEPT_DpOT0_EUlPSD_E_ED2Ev(ptr noundef nonnull align 8 dereferenceable(16) %0) unnamed_addr #7 comdat align 2 personality ptr @__gxx_personality_v0 {
  %2 = alloca ptr, align 8
  %3 = alloca ptr, align 8
  store ptr %0, ptr %2, align 8
  %4 = load ptr, ptr %2, align 8
  %5 = getelementptr inbounds %"class.std::unique_ptr.90", ptr %4, i32 0, i32 0
  %6 = call noundef nonnull align 8 dereferenceable(8) ptr @_ZNSt15__uniq_ptr_implISt6vectorIN8nlohmann10basic_jsonISt3mapS0_NSt7__cxx1112basic_stringIcSt11char_traitsIcESaIcEEEblmdSaNS1_14adl_serializerEEESaISB_EEZNSB_6createISD_JPKNS1_6detail8json_refISB_EESJ_EEEPT_DpOT0_EUlPSD_E_E6_M_ptrEv(ptr noundef nonnull align 8 dereferenceable(16) %5)
  store ptr %6, ptr %3, align 8
  %7 = load ptr, ptr %3, align 8
  %8 = load ptr, ptr %7, align 8
  %9 = icmp ne ptr %8, null
  br i1 %9, label %10, label %15

10:                                               ; preds = %1
  %11 = call noundef nonnull align 8 dereferenceable(8) ptr @_ZNSt10unique_ptrISt6vectorIN8nlohmann10basic_jsonISt3mapS0_NSt7__cxx1112basic_stringIcSt11char_traitsIcESaIcEEEblmdSaNS1_14adl_serializerEEESaISB_EEZNSB_6createISD_JPKNS1_6detail8json_refISB_EESJ_EEEPT_DpOT0_EUlPSD_E_E11get_deleterEv(ptr noundef nonnull align 8 dereferenceable(16) %4) #3
  %12 = load ptr, ptr %3, align 8
  %13 = load ptr, ptr %12, align 8
  invoke void @_ZZN8nlohmann10basic_jsonISt3mapSt6vectorNSt7__cxx1112basic_stringIcSt11char_traitsIcESaIcEEEblmdSaNS_14adl_serializerEE6createIS2_ISA_SaISA_EEJPKNS_6detail8json_refISA_EESI_EEEPT_DpOT0_ENKUlPSD_E_clESO_(ptr noundef nonnull align 8 dereferenceable(8) %11, ptr noundef %13)
          to label %14 unwind label %17

14:                                               ; preds = %10
  br label %15

15:                                               ; preds = %14, %1
  %16 = load ptr, ptr %3, align 8
  store ptr null, ptr %16, align 8
  ret void

17:                                               ; preds = %10
  %18 = landingpad { ptr, i32 }
          catch ptr null
  %19 = extractvalue { ptr, i32 } %18, 0
  call void @__clang_call_terminate(ptr %19) #22
  unreachable
}

; Function Attrs: mustprogress noinline nounwind optnone uwtable
define linkonce_odr dso_local noundef ptr @_ZNSt10unique_ptrISt6vectorIN8nlohmann10basic_jsonISt3mapS0_NSt7__cxx1112basic_stringIcSt11char_traitsIcESaIcEEEblmdSaNS1_14adl_serializerEEESaISB_EEZNSB_6createISD_JPKNS1_6detail8json_refISB_EESJ_EEEPT_DpOT0_EUlPSD_E_E7releaseEv(ptr noundef nonnull align 8 dereferenceable(16) %0) #6 comdat align 2 personality ptr @__gxx_personality_v0 {
  %2 = alloca ptr, align 8
  %3 = alloca ptr, align 8
  store ptr %0, ptr %2, align 8
  %4 = load ptr, ptr %2, align 8
  %5 = call noundef ptr @_ZNKSt10unique_ptrISt6vectorIN8nlohmann10basic_jsonISt3mapS0_NSt7__cxx1112basic_stringIcSt11char_traitsIcESaIcEEEblmdSaNS1_14adl_serializerEEESaISB_EEZNSB_6createISD_JPKNS1_6detail8json_refISB_EESJ_EEEPT_DpOT0_EUlPSD_E_E3getEv(ptr noundef nonnull align 8 dereferenceable(16) %4) #3
  store ptr %5, ptr %3, align 8
  %6 = getelementptr inbounds %"class.std::unique_ptr.90", ptr %4, i32 0, i32 0
  %7 = invoke noundef nonnull align 8 dereferenceable(8) ptr @_ZNSt15__uniq_ptr_implISt6vectorIN8nlohmann10basic_jsonISt3mapS0_NSt7__cxx1112basic_stringIcSt11char_traitsIcESaIcEEEblmdSaNS1_14adl_serializerEEESaISB_EEZNSB_6createISD_JPKNS1_6detail8json_refISB_EESJ_EEEPT_DpOT0_EUlPSD_E_E6_M_ptrEv(ptr noundef nonnull align 8 dereferenceable(16) %6)
          to label %8 unwind label %10

8:                                                ; preds = %1
  store ptr null, ptr %7, align 8
  %9 = load ptr, ptr %3, align 8
  ret ptr %9

10:                                               ; preds = %1
  %11 = landingpad { ptr, i32 }
          catch ptr null
  %12 = extractvalue { ptr, i32 } %11, 0
  call void @__clang_call_terminate(ptr %12) #22
  unreachable
}

; Function Attrs: mustprogress noinline nounwind optnone uwtable
define linkonce_odr dso_local noundef nonnull align 8 dereferenceable(8) ptr @_ZNSt15__uniq_ptr_implISt6vectorIN8nlohmann10basic_jsonISt3mapS0_NSt7__cxx1112basic_stringIcSt11char_traitsIcESaIcEEEblmdSaNS1_14adl_serializerEEESaISB_EEZNSB_6createISD_JPKNS1_6detail8json_refISB_EESJ_EEEPT_DpOT0_EUlPSD_E_E6_M_ptrEv(ptr noundef nonnull align 8 dereferenceable(16) %0) #6 comdat align 2 {
  %2 = alloca ptr, align 8
  store ptr %0, ptr %2, align 8
  %3 = load ptr, ptr %2, align 8
  %4 = getelementptr inbounds %"class.std::__uniq_ptr_impl.91", ptr %3, i32 0, i32 0
  %5 = call noundef nonnull align 8 dereferenceable(8) ptr @_ZSt3getILm0EJPSt6vectorIN8nlohmann10basic_jsonISt3mapS0_NSt7__cxx1112basic_stringIcSt11char_traitsIcESaIcEEEblmdSaNS1_14adl_serializerEEESaISB_EEZNSB_6createISD_JPKNS1_6detail8json_refISB_EESK_EEEPT_DpOT0_EUlSE_E_EERNSt13tuple_elementIXT_ESt5tupleIJDpSN_EEE4typeERSU_(ptr noundef nonnull align 8 dereferenceable(16) %4) #3
  ret ptr %5
}

; Function Attrs: mustprogress noinline nounwind optnone uwtable
define linkonce_odr dso_local noundef nonnull align 8 dereferenceable(8) ptr @_ZSt3getILm0EJPSt6vectorIN8nlohmann10basic_jsonISt3mapS0_NSt7__cxx1112basic_stringIcSt11char_traitsIcESaIcEEEblmdSaNS1_14adl_serializerEEESaISB_EEZNSB_6createISD_JPKNS1_6detail8json_refISB_EESK_EEEPT_DpOT0_EUlSE_E_EERNSt13tuple_elementIXT_ESt5tupleIJDpSN_EEE4typeERSU_(ptr noundef nonnull align 8 dereferenceable(16) %0) #6 comdat {
  %2 = alloca ptr, align 8
  store ptr %0, ptr %2, align 8
  %3 = load ptr, ptr %2, align 8
  %4 = call noundef nonnull align 8 dereferenceable(8) ptr @_ZSt12__get_helperILm0EPSt6vectorIN8nlohmann10basic_jsonISt3mapS0_NSt7__cxx1112basic_stringIcSt11char_traitsIcESaIcEEEblmdSaNS1_14adl_serializerEEESaISB_EEJZNSB_6createISD_JPKNS1_6detail8json_refISB_EESK_EEEPT_DpOT0_EUlSE_E_EERT0_RSt11_Tuple_implIXT_EJSR_DpT1_EE(ptr noundef nonnull align 8 dereferenceable(16) %3) #3
  ret ptr %4
}

; Function Attrs: mustprogress noinline nounwind optnone uwtable
define linkonce_odr dso_local noundef nonnull align 8 dereferenceable(8) ptr @_ZSt12__get_helperILm0EPSt6vectorIN8nlohmann10basic_jsonISt3mapS0_NSt7__cxx1112basic_stringIcSt11char_traitsIcESaIcEEEblmdSaNS1_14adl_serializerEEESaISB_EEJZNSB_6createISD_JPKNS1_6detail8json_refISB_EESK_EEEPT_DpOT0_EUlSE_E_EERT0_RSt11_Tuple_implIXT_EJSR_DpT1_EE(ptr noundef nonnull align 8 dereferenceable(16) %0) #6 comdat {
  %2 = alloca ptr, align 8
  store ptr %0, ptr %2, align 8
  %3 = load ptr, ptr %2, align 8
  %4 = call noundef nonnull align 8 dereferenceable(8) ptr @_ZNSt11_Tuple_implILm0EJPSt6vectorIN8nlohmann10basic_jsonISt3mapS0_NSt7__cxx1112basic_stringIcSt11char_traitsIcESaIcEEEblmdSaNS1_14adl_serializerEEESaISB_EEZNSB_6createISD_JPKNS1_6detail8json_refISB_EESK_EEEPT_DpOT0_EUlSE_E_EE7_M_headERSR_(ptr noundef nonnull align 8 dereferenceable(16) %3) #3
  ret ptr %4
}

; Function Attrs: mustprogress noinline nounwind optnone uwtable
define linkonce_odr dso_local noundef nonnull align 8 dereferenceable(8) ptr @_ZNSt11_Tuple_implILm0EJPSt6vectorIN8nlohmann10basic_jsonISt3mapS0_NSt7__cxx1112basic_stringIcSt11char_traitsIcESaIcEEEblmdSaNS1_14adl_serializerEEESaISB_EEZNSB_6createISD_JPKNS1_6detail8json_refISB_EESK_EEEPT_DpOT0_EUlSE_E_EE7_M_headERSR_(ptr noundef nonnull align 8 dereferenceable(16) %0) #6 comdat align 2 {
  %2 = alloca ptr, align 8
  store ptr %0, ptr %2, align 8
  %3 = load ptr, ptr %2, align 8
  %4 = getelementptr inbounds i8, ptr %3, i64 8
  %5 = call noundef nonnull align 8 dereferenceable(8) ptr @_ZNSt10_Head_baseILm0EPSt6vectorIN8nlohmann10basic_jsonISt3mapS0_NSt7__cxx1112basic_stringIcSt11char_traitsIcESaIcEEEblmdSaNS1_14adl_serializerEEESaISB_EELb0EE7_M_headERSF_(ptr noundef nonnull align 8 dereferenceable(8) %4) #3
  ret ptr %5
}

; Function Attrs: mustprogress noinline nounwind optnone uwtable
define linkonce_odr dso_local noundef nonnull align 8 dereferenceable(8) ptr @_ZNSt10_Head_baseILm0EPSt6vectorIN8nlohmann10basic_jsonISt3mapS0_NSt7__cxx1112basic_stringIcSt11char_traitsIcESaIcEEEblmdSaNS1_14adl_serializerEEESaISB_EELb0EE7_M_headERSF_(ptr noundef nonnull align 8 dereferenceable(8) %0) #6 comdat align 2 {
  %2 = alloca ptr, align 8
  store ptr %0, ptr %2, align 8
  %3 = load ptr, ptr %2, align 8
  %4 = getelementptr inbounds %"union.nlohmann::basic_json<>::json_value", ptr %3, i32 0, i32 0
  ret ptr %4
}

; Function Attrs: mustprogress noinline nounwind optnone uwtable
define linkonce_odr dso_local noundef nonnull align 8 dereferenceable(8) ptr @_ZNSt10unique_ptrISt6vectorIN8nlohmann10basic_jsonISt3mapS0_NSt7__cxx1112basic_stringIcSt11char_traitsIcESaIcEEEblmdSaNS1_14adl_serializerEEESaISB_EEZNSB_6createISD_JPKNS1_6detail8json_refISB_EESJ_EEEPT_DpOT0_EUlPSD_E_E11get_deleterEv(ptr noundef nonnull align 8 dereferenceable(16) %0) #6 comdat align 2 personality ptr @__gxx_personality_v0 {
  %2 = alloca ptr, align 8
  store ptr %0, ptr %2, align 8
  %3 = load ptr, ptr %2, align 8
  %4 = getelementptr inbounds %"class.std::unique_ptr.90", ptr %3, i32 0, i32 0
  %5 = invoke noundef nonnull align 8 dereferenceable(8) ptr @_ZNSt15__uniq_ptr_implISt6vectorIN8nlohmann10basic_jsonISt3mapS0_NSt7__cxx1112basic_stringIcSt11char_traitsIcESaIcEEEblmdSaNS1_14adl_serializerEEESaISB_EEZNSB_6createISD_JPKNS1_6detail8json_refISB_EESJ_EEEPT_DpOT0_EUlPSD_E_E10_M_deleterEv(ptr noundef nonnull align 8 dereferenceable(16) %4)
          to label %6 unwind label %7

6:                                                ; preds = %1
  ret ptr %5

7:                                                ; preds = %1
  %8 = landingpad { ptr, i32 }
          catch ptr null
  %9 = extractvalue { ptr, i32 } %8, 0
  call void @__clang_call_terminate(ptr %9) #22
  unreachable
}

; Function Attrs: mustprogress noinline optnone uwtable
define linkonce_odr dso_local void @_ZZN8nlohmann10basic_jsonISt3mapSt6vectorNSt7__cxx1112basic_stringIcSt11char_traitsIcESaIcEEEblmdSaNS_14adl_serializerEE6createIS2_ISA_SaISA_EEJPKNS_6detail8json_refISA_EESI_EEEPT_DpOT0_ENKUlPSD_E_clESO_(ptr noundef nonnull align 8 dereferenceable(8) %0, ptr noundef %1) #4 comdat align 2 {
  %3 = alloca ptr, align 8
  %4 = alloca ptr, align 8
  store ptr %0, ptr %3, align 8
  store ptr %1, ptr %4, align 8
  %5 = load ptr, ptr %3, align 8
  %6 = getelementptr inbounds %"union.nlohmann::basic_json<>::json_value", ptr %5, i32 0, i32 0
  %7 = load ptr, ptr %6, align 8
  %8 = load ptr, ptr %4, align 8
  call void @_ZNSt16allocator_traitsISaISt6vectorIN8nlohmann10basic_jsonISt3mapS0_NSt7__cxx1112basic_stringIcSt11char_traitsIcESaIcEEEblmdSaNS1_14adl_serializerEEESaISB_EEEE10deallocateERSE_PSD_m(ptr noundef nonnull align 1 dereferenceable(1) %7, ptr noundef %8, i64 noundef 1)
  ret void
}

; Function Attrs: mustprogress noinline nounwind optnone uwtable
define linkonce_odr dso_local noundef nonnull align 8 dereferenceable(8) ptr @_ZNSt15__uniq_ptr_implISt6vectorIN8nlohmann10basic_jsonISt3mapS0_NSt7__cxx1112basic_stringIcSt11char_traitsIcESaIcEEEblmdSaNS1_14adl_serializerEEESaISB_EEZNSB_6createISD_JPKNS1_6detail8json_refISB_EESJ_EEEPT_DpOT0_EUlPSD_E_E10_M_deleterEv(ptr noundef nonnull align 8 dereferenceable(16) %0) #6 comdat align 2 {
  %2 = alloca ptr, align 8
  store ptr %0, ptr %2, align 8
  %3 = load ptr, ptr %2, align 8
  %4 = getelementptr inbounds %"class.std::__uniq_ptr_impl.91", ptr %3, i32 0, i32 0
  %5 = call noundef nonnull align 8 dereferenceable(8) ptr @_ZSt3getILm1EJPSt6vectorIN8nlohmann10basic_jsonISt3mapS0_NSt7__cxx1112basic_stringIcSt11char_traitsIcESaIcEEEblmdSaNS1_14adl_serializerEEESaISB_EEZNSB_6createISD_JPKNS1_6detail8json_refISB_EESK_EEEPT_DpOT0_EUlSE_E_EERNSt13tuple_elementIXT_ESt5tupleIJDpSN_EEE4typeERSU_(ptr noundef nonnull align 8 dereferenceable(16) %4) #3
  ret ptr %5
}

; Function Attrs: mustprogress noinline nounwind optnone uwtable
define linkonce_odr dso_local noundef nonnull align 8 dereferenceable(8) ptr @_ZSt3getILm1EJPSt6vectorIN8nlohmann10basic_jsonISt3mapS0_NSt7__cxx1112basic_stringIcSt11char_traitsIcESaIcEEEblmdSaNS1_14adl_serializerEEESaISB_EEZNSB_6createISD_JPKNS1_6detail8json_refISB_EESK_EEEPT_DpOT0_EUlSE_E_EERNSt13tuple_elementIXT_ESt5tupleIJDpSN_EEE4typeERSU_(ptr noundef nonnull align 8 dereferenceable(16) %0) #6 comdat {
  %2 = alloca ptr, align 8
  store ptr %0, ptr %2, align 8
  %3 = load ptr, ptr %2, align 8
  %4 = call noundef nonnull align 8 dereferenceable(8) ptr @_ZSt12__get_helperILm1EZN8nlohmann10basic_jsonISt3mapSt6vectorNSt7__cxx1112basic_stringIcSt11char_traitsIcESaIcEEEblmdSaNS0_14adl_serializerEE6createIS3_ISB_SaISB_EEJPKNS0_6detail8json_refISB_EESJ_EEEPT_DpOT0_EUlPSE_E_JEERT0_RSt11_Tuple_implIXT_EJSR_DpT1_EE(ptr noundef nonnull align 8 dereferenceable(8) %3) #3
  ret ptr %4
}

; Function Attrs: mustprogress noinline nounwind optnone uwtable
define linkonce_odr dso_local noundef nonnull align 8 dereferenceable(8) ptr @_ZSt12__get_helperILm1EZN8nlohmann10basic_jsonISt3mapSt6vectorNSt7__cxx1112basic_stringIcSt11char_traitsIcESaIcEEEblmdSaNS0_14adl_serializerEE6createIS3_ISB_SaISB_EEJPKNS0_6detail8json_refISB_EESJ_EEEPT_DpOT0_EUlPSE_E_JEERT0_RSt11_Tuple_implIXT_EJSR_DpT1_EE(ptr noundef nonnull align 8 dereferenceable(8) %0) #6 comdat {
  %2 = alloca ptr, align 8
  store ptr %0, ptr %2, align 8
  %3 = load ptr, ptr %2, align 8
  %4 = call noundef nonnull align 8 dereferenceable(8) ptr @_ZNSt11_Tuple_implILm1EJZN8nlohmann10basic_jsonISt3mapSt6vectorNSt7__cxx1112basic_stringIcSt11char_traitsIcESaIcEEEblmdSaNS0_14adl_serializerEE6createIS3_ISB_SaISB_EEJPKNS0_6detail8json_refISB_EESJ_EEEPT_DpOT0_EUlPSE_E_EE7_M_headERSR_(ptr noundef nonnull align 8 dereferenceable(8) %3) #3
  ret ptr %4
}

; Function Attrs: mustprogress noinline nounwind optnone uwtable
define linkonce_odr dso_local noundef nonnull align 8 dereferenceable(8) ptr @_ZNSt11_Tuple_implILm1EJZN8nlohmann10basic_jsonISt3mapSt6vectorNSt7__cxx1112basic_stringIcSt11char_traitsIcESaIcEEEblmdSaNS0_14adl_serializerEE6createIS3_ISB_SaISB_EEJPKNS0_6detail8json_refISB_EESJ_EEEPT_DpOT0_EUlPSE_E_EE7_M_headERSR_(ptr noundef nonnull align 8 dereferenceable(8) %0) #6 comdat align 2 {
  %2 = alloca ptr, align 8
  store ptr %0, ptr %2, align 8
  %3 = load ptr, ptr %2, align 8
  %4 = call noundef nonnull align 8 dereferenceable(8) ptr @_ZNSt10_Head_baseILm1EZN8nlohmann10basic_jsonISt3mapSt6vectorNSt7__cxx1112basic_stringIcSt11char_traitsIcESaIcEEEblmdSaNS0_14adl_serializerEE6createIS3_ISB_SaISB_EEJPKNS0_6detail8json_refISB_EESJ_EEEPT_DpOT0_EUlPSE_E_Lb0EE7_M_headERSR_(ptr noundef nonnull align 8 dereferenceable(8) %3) #3
  ret ptr %4
}

; Function Attrs: mustprogress noinline nounwind optnone uwtable
define linkonce_odr dso_local noundef nonnull align 8 dereferenceable(8) ptr @_ZNSt10_Head_baseILm1EZN8nlohmann10basic_jsonISt3mapSt6vectorNSt7__cxx1112basic_stringIcSt11char_traitsIcESaIcEEEblmdSaNS0_14adl_serializerEE6createIS3_ISB_SaISB_EEJPKNS0_6detail8json_refISB_EESJ_EEEPT_DpOT0_EUlPSE_E_Lb0EE7_M_headERSR_(ptr noundef nonnull align 8 dereferenceable(8) %0) #6 comdat align 2 {
  %2 = alloca ptr, align 8
  store ptr %0, ptr %2, align 8
  %3 = load ptr, ptr %2, align 8
  %4 = getelementptr inbounds %"struct.std::__cow_string", ptr %3, i32 0, i32 0
  ret ptr %4
}

; Function Attrs: mustprogress noinline nounwind optnone uwtable
define linkonce_odr dso_local noundef zeroext i1 @_ZNKSt10unique_ptrISt6vectorIN8nlohmann10basic_jsonISt3mapS0_NSt7__cxx1112basic_stringIcSt11char_traitsIcESaIcEEEblmdSaNS1_14adl_serializerEEESaISB_EEZNSB_6createISD_JPKNS1_6detail8json_refISB_EESJ_EEEPT_DpOT0_EUlPSD_E_EcvbEv(ptr noundef nonnull align 8 dereferenceable(16) %0) #6 comdat align 2 {
  %2 = alloca ptr, align 8
  store ptr %0, ptr %2, align 8
  %3 = load ptr, ptr %2, align 8
  %4 = call noundef ptr @_ZNKSt10unique_ptrISt6vectorIN8nlohmann10basic_jsonISt3mapS0_NSt7__cxx1112basic_stringIcSt11char_traitsIcESaIcEEEblmdSaNS1_14adl_serializerEEESaISB_EEZNSB_6createISD_JPKNS1_6detail8json_refISB_EESJ_EEEPT_DpOT0_EUlPSD_E_E3getEv(ptr noundef nonnull align 8 dereferenceable(16) %3) #3
  %5 = icmp eq ptr %4, null
  %6 = zext i1 %5 to i64
  %7 = select i1 %5, i1 false, i1 true
  ret i1 %7
}

; Function Attrs: mustprogress noinline optnone uwtable
define linkonce_odr dso_local void @_ZN9__gnu_cxx13new_allocatorISt6vectorIN8nlohmann10basic_jsonISt3mapS1_NSt7__cxx1112basic_stringIcSt11char_traitsIcESaIcEEEblmdSaNS2_14adl_serializerEEESaISC_EEE9constructISE_JPKNS2_6detail8json_refISC_EESL_EEEvPT_DpOT0_(ptr noundef nonnull align 1 dereferenceable(1) %0, ptr noundef %1, ptr noundef nonnull align 8 dereferenceable(8) %2, ptr noundef nonnull align 8 dereferenceable(8) %3) #4 comdat align 2 personality ptr @__gxx_personality_v0 {
  %5 = alloca ptr, align 8
  %6 = alloca ptr, align 8
  %7 = alloca ptr, align 8
  %8 = alloca ptr, align 8
  %9 = alloca %"class.std::ios_base::Init", align 1
  %10 = alloca ptr, align 8
  %11 = alloca i32, align 4
  store ptr %0, ptr %5, align 8
  store ptr %1, ptr %6, align 8
  store ptr %2, ptr %7, align 8
  store ptr %3, ptr %8, align 8
  %12 = load ptr, ptr %5, align 8
  %13 = load ptr, ptr %6, align 8
  %14 = load ptr, ptr %7, align 8
  %15 = load ptr, ptr %14, align 8
  %16 = load ptr, ptr %8, align 8
  %17 = load ptr, ptr %16, align 8
  call void @_ZNSaIN8nlohmann10basic_jsonISt3mapSt6vectorNSt7__cxx1112basic_stringIcSt11char_traitsIcESaIcEEEblmdSaNS_14adl_serializerEEEEC2Ev(ptr noundef nonnull align 1 dereferenceable(1) %9) #3
  invoke void @_ZNSt6vectorIN8nlohmann10basic_jsonISt3mapS_NSt7__cxx1112basic_stringIcSt11char_traitsIcESaIcEEEblmdSaNS0_14adl_serializerEEESaISA_EEC2IPKNS0_6detail8json_refISA_EEvEET_SJ_RKSB_(ptr noundef nonnull align 8 dereferenceable(24) %13, ptr noundef %15, ptr noundef %17, ptr noundef nonnull align 1 dereferenceable(1) %9)
          to label %18 unwind label %19

18:                                               ; preds = %4
  call void @_ZNSaIN8nlohmann10basic_jsonISt3mapSt6vectorNSt7__cxx1112basic_stringIcSt11char_traitsIcESaIcEEEblmdSaNS_14adl_serializerEEEED2Ev(ptr noundef nonnull align 1 dereferenceable(1) %9) #3
  ret void

19:                                               ; preds = %4
  %20 = landingpad { ptr, i32 }
          cleanup
  %21 = extractvalue { ptr, i32 } %20, 0
  store ptr %21, ptr %10, align 8
  %22 = extractvalue { ptr, i32 } %20, 1
  store i32 %22, ptr %11, align 4
  call void @_ZNSaIN8nlohmann10basic_jsonISt3mapSt6vectorNSt7__cxx1112basic_stringIcSt11char_traitsIcESaIcEEEblmdSaNS_14adl_serializerEEEED2Ev(ptr noundef nonnull align 1 dereferenceable(1) %9) #3
  br label %23

23:                                               ; preds = %19
  %24 = load ptr, ptr %10, align 8
  %25 = load i32, ptr %11, align 4
  %26 = insertvalue { ptr, i32 } poison, ptr %24, 0
  %27 = insertvalue { ptr, i32 } %26, i32 %25, 1
  resume { ptr, i32 } %27
}

; Function Attrs: noinline optnone uwtable
define linkonce_odr dso_local void @_ZNSt6vectorIN8nlohmann10basic_jsonISt3mapS_NSt7__cxx1112basic_stringIcSt11char_traitsIcESaIcEEEblmdSaNS0_14adl_serializerEEESaISA_EEC2IPKNS0_6detail8json_refISA_EEvEET_SJ_RKSB_(ptr noundef nonnull align 8 dereferenceable(24) %0, ptr noundef %1, ptr noundef %2, ptr noundef nonnull align 1 dereferenceable(1) %3) unnamed_addr #5 comdat align 2 personality ptr @__gxx_personality_v0 {
  %5 = alloca ptr, align 8
  %6 = alloca ptr, align 8
  %7 = alloca ptr, align 8
  %8 = alloca ptr, align 8
  %9 = alloca %"class.std::ios_base::Init", align 1
  %10 = alloca %"class.std::ios_base::Init", align 1
  %11 = alloca %"class.std::ios_base::Init", align 1
  %12 = alloca ptr, align 8
  %13 = alloca i32, align 4
  store ptr %0, ptr %5, align 8
  store ptr %1, ptr %6, align 8
  store ptr %2, ptr %7, align 8
  store ptr %3, ptr %8, align 8
  %14 = load ptr, ptr %5, align 8
  %15 = load ptr, ptr %8, align 8
  call void @_ZNSt12_Vector_baseIN8nlohmann10basic_jsonISt3mapSt6vectorNSt7__cxx1112basic_stringIcSt11char_traitsIcESaIcEEEblmdSaNS0_14adl_serializerEEESaISB_EEC2ERKSC_(ptr noundef nonnull align 8 dereferenceable(24) %14, ptr noundef nonnull align 1 dereferenceable(1) %15) #3
  %16 = load ptr, ptr %6, align 8
  %17 = load ptr, ptr %7, align 8
  call void @_ZSt19__iterator_categoryIPKN8nlohmann6detail8json_refINS0_10basic_jsonISt3mapSt6vectorNSt7__cxx1112basic_stringIcSt11char_traitsIcESaIcEEEblmdSaNS0_14adl_serializerEEEEEENSt15iterator_traitsIT_E17iterator_categoryERKSI_(ptr noundef nonnull align 8 dereferenceable(8) %6)
  invoke void @_ZNSt6vectorIN8nlohmann10basic_jsonISt3mapS_NSt7__cxx1112basic_stringIcSt11char_traitsIcESaIcEEEblmdSaNS0_14adl_serializerEEESaISA_EE19_M_range_initializeIPKNS0_6detail8json_refISA_EEEEvT_SJ_St20forward_iterator_tag(ptr noundef nonnull align 8 dereferenceable(24) %14, ptr noundef %16, ptr noundef %17)
          to label %18 unwind label %19

18:                                               ; preds = %4
  ret void

19:                                               ; preds = %4
  %20 = landingpad { ptr, i32 }
          cleanup
  %21 = extractvalue { ptr, i32 } %20, 0
  store ptr %21, ptr %12, align 8
  %22 = extractvalue { ptr, i32 } %20, 1
  store i32 %22, ptr %13, align 4
  call void @_ZNSt12_Vector_baseIN8nlohmann10basic_jsonISt3mapSt6vectorNSt7__cxx1112basic_stringIcSt11char_traitsIcESaIcEEEblmdSaNS0_14adl_serializerEEESaISB_EED2Ev(ptr noundef nonnull align 8 dereferenceable(24) %14) #3
  br label %23

23:                                               ; preds = %19
  %24 = load ptr, ptr %12, align 8
  %25 = load i32, ptr %13, align 4
  %26 = insertvalue { ptr, i32 } poison, ptr %24, 0
  %27 = insertvalue { ptr, i32 } %26, i32 %25, 1
  resume { ptr, i32 } %27
}

; Function Attrs: noinline nounwind optnone uwtable
define linkonce_odr dso_local void @_ZNSt12_Vector_baseIN8nlohmann10basic_jsonISt3mapSt6vectorNSt7__cxx1112basic_stringIcSt11char_traitsIcESaIcEEEblmdSaNS0_14adl_serializerEEESaISB_EEC2ERKSC_(ptr noundef nonnull align 8 dereferenceable(24) %0, ptr noundef nonnull align 1 dereferenceable(1) %1) unnamed_addr #7 comdat align 2 {
  %3 = alloca ptr, align 8
  %4 = alloca ptr, align 8
  store ptr %0, ptr %3, align 8
  store ptr %1, ptr %4, align 8
  %5 = load ptr, ptr %3, align 8
  %6 = getelementptr inbounds %"struct.std::_Vector_base.17", ptr %5, i32 0, i32 0
  %7 = load ptr, ptr %4, align 8
  call void @_ZNSt12_Vector_baseIN8nlohmann10basic_jsonISt3mapSt6vectorNSt7__cxx1112basic_stringIcSt11char_traitsIcESaIcEEEblmdSaNS0_14adl_serializerEEESaISB_EE12_Vector_implC2ERKSC_(ptr noundef nonnull align 8 dereferenceable(24) %6, ptr noundef nonnull align 1 dereferenceable(1) %7) #3
  ret void
}

; Function Attrs: mustprogress noinline nounwind optnone uwtable
define linkonce_odr dso_local void @_ZSt19__iterator_categoryIPKN8nlohmann6detail8json_refINS0_10basic_jsonISt3mapSt6vectorNSt7__cxx1112basic_stringIcSt11char_traitsIcESaIcEEEblmdSaNS0_14adl_serializerEEEEEENSt15iterator_traitsIT_E17iterator_categoryERKSI_(ptr noundef nonnull align 8 dereferenceable(8) %0) #6 comdat {
  %2 = alloca ptr, align 8
  store ptr %0, ptr %2, align 8
  ret void
}

; Function Attrs: mustprogress noinline optnone uwtable
define linkonce_odr dso_local void @_ZNSt6vectorIN8nlohmann10basic_jsonISt3mapS_NSt7__cxx1112basic_stringIcSt11char_traitsIcESaIcEEEblmdSaNS0_14adl_serializerEEESaISA_EE19_M_range_initializeIPKNS0_6detail8json_refISA_EEEEvT_SJ_St20forward_iterator_tag(ptr noundef nonnull align 8 dereferenceable(24) %0, ptr noundef %1, ptr noundef %2) #4 comdat align 2 {
  %4 = alloca %"class.std::ios_base::Init", align 1
  %5 = alloca ptr, align 8
  %6 = alloca ptr, align 8
  %7 = alloca ptr, align 8
  %8 = alloca i64, align 8
  store ptr %0, ptr %5, align 8
  store ptr %1, ptr %6, align 8
  store ptr %2, ptr %7, align 8
  %9 = load ptr, ptr %5, align 8
  %10 = load ptr, ptr %6, align 8
  %11 = load ptr, ptr %7, align 8
  %12 = call noundef i64 @_ZSt8distanceIPKN8nlohmann6detail8json_refINS0_10basic_jsonISt3mapSt6vectorNSt7__cxx1112basic_stringIcSt11char_traitsIcESaIcEEEblmdSaNS0_14adl_serializerEEEEEENSt15iterator_traitsIT_E15difference_typeESI_SI_(ptr noundef %10, ptr noundef %11)
  store i64 %12, ptr %8, align 8
  %13 = load i64, ptr %8, align 8
  %14 = call noundef nonnull align 1 dereferenceable(1) ptr @_ZNSt12_Vector_baseIN8nlohmann10basic_jsonISt3mapSt6vectorNSt7__cxx1112basic_stringIcSt11char_traitsIcESaIcEEEblmdSaNS0_14adl_serializerEEESaISB_EE19_M_get_Tp_allocatorEv(ptr noundef nonnull align 8 dereferenceable(24) %9) #3
  %15 = call noundef i64 @_ZNSt6vectorIN8nlohmann10basic_jsonISt3mapS_NSt7__cxx1112basic_stringIcSt11char_traitsIcESaIcEEEblmdSaNS0_14adl_serializerEEESaISA_EE17_S_check_init_lenEmRKSB_(i64 noundef %13, ptr noundef nonnull align 1 dereferenceable(1) %14)
  %16 = call noundef ptr @_ZNSt12_Vector_baseIN8nlohmann10basic_jsonISt3mapSt6vectorNSt7__cxx1112basic_stringIcSt11char_traitsIcESaIcEEEblmdSaNS0_14adl_serializerEEESaISB_EE11_M_allocateEm(ptr noundef nonnull align 8 dereferenceable(24) %9, i64 noundef %15)
  %17 = getelementptr inbounds %"struct.std::_Vector_base.17", ptr %9, i32 0, i32 0
  %18 = getelementptr inbounds %"struct.std::_Vector_base<nlohmann::basic_json<>, std::allocator<nlohmann::basic_json<>>>::_Vector_impl_data", ptr %17, i32 0, i32 0
  store ptr %16, ptr %18, align 8
  %19 = getelementptr inbounds %"struct.std::_Vector_base.17", ptr %9, i32 0, i32 0
  %20 = getelementptr inbounds %"struct.std::_Vector_base<nlohmann::basic_json<>, std::allocator<nlohmann::basic_json<>>>::_Vector_impl_data", ptr %19, i32 0, i32 0
  %21 = load ptr, ptr %20, align 8
  %22 = load i64, ptr %8, align 8
  %23 = getelementptr inbounds %"class.nlohmann::basic_json", ptr %21, i64 %22
  %24 = getelementptr inbounds %"struct.std::_Vector_base.17", ptr %9, i32 0, i32 0
  %25 = getelementptr inbounds %"struct.std::_Vector_base<nlohmann::basic_json<>, std::allocator<nlohmann::basic_json<>>>::_Vector_impl_data", ptr %24, i32 0, i32 2
  store ptr %23, ptr %25, align 8
  %26 = load ptr, ptr %6, align 8
  %27 = load ptr, ptr %7, align 8
  %28 = getelementptr inbounds %"struct.std::_Vector_base.17", ptr %9, i32 0, i32 0
  %29 = getelementptr inbounds %"struct.std::_Vector_base<nlohmann::basic_json<>, std::allocator<nlohmann::basic_json<>>>::_Vector_impl_data", ptr %28, i32 0, i32 0
  %30 = load ptr, ptr %29, align 8
  %31 = call noundef nonnull align 1 dereferenceable(1) ptr @_ZNSt12_Vector_baseIN8nlohmann10basic_jsonISt3mapSt6vectorNSt7__cxx1112basic_stringIcSt11char_traitsIcESaIcEEEblmdSaNS0_14adl_serializerEEESaISB_EE19_M_get_Tp_allocatorEv(ptr noundef nonnull align 8 dereferenceable(24) %9) #3
  %32 = call noundef ptr @_ZSt22__uninitialized_copy_aIPKN8nlohmann6detail8json_refINS0_10basic_jsonISt3mapSt6vectorNSt7__cxx1112basic_stringIcSt11char_traitsIcESaIcEEEblmdSaNS0_14adl_serializerEEEEEPSD_SD_ET0_T_SJ_SI_RSaIT1_E(ptr noundef %26, ptr noundef %27, ptr noundef %30, ptr noundef nonnull align 1 dereferenceable(1) %31)
  %33 = getelementptr inbounds %"struct.std::_Vector_base.17", ptr %9, i32 0, i32 0
  %34 = getelementptr inbounds %"struct.std::_Vector_base<nlohmann::basic_json<>, std::allocator<nlohmann::basic_json<>>>::_Vector_impl_data", ptr %33, i32 0, i32 1
  store ptr %32, ptr %34, align 8
  ret void
}

; Function Attrs: mustprogress noinline optnone uwtable
define linkonce_odr dso_local noundef i64 @_ZSt8distanceIPKN8nlohmann6detail8json_refINS0_10basic_jsonISt3mapSt6vectorNSt7__cxx1112basic_stringIcSt11char_traitsIcESaIcEEEblmdSaNS0_14adl_serializerEEEEEENSt15iterator_traitsIT_E15difference_typeESI_SI_(ptr noundef %0, ptr noundef %1) #4 comdat {
  %3 = alloca ptr, align 8
  %4 = alloca ptr, align 8
  %5 = alloca %"class.std::ios_base::Init", align 1
  %6 = alloca %"class.std::ios_base::Init", align 1
  store ptr %0, ptr %3, align 8
  store ptr %1, ptr %4, align 8
  %7 = load ptr, ptr %3, align 8
  %8 = load ptr, ptr %4, align 8
  call void @_ZSt19__iterator_categoryIPKN8nlohmann6detail8json_refINS0_10basic_jsonISt3mapSt6vectorNSt7__cxx1112basic_stringIcSt11char_traitsIcESaIcEEEblmdSaNS0_14adl_serializerEEEEEENSt15iterator_traitsIT_E17iterator_categoryERKSI_(ptr noundef nonnull align 8 dereferenceable(8) %3)
  %9 = call noundef i64 @_ZSt10__distanceIPKN8nlohmann6detail8json_refINS0_10basic_jsonISt3mapSt6vectorNSt7__cxx1112basic_stringIcSt11char_traitsIcESaIcEEEblmdSaNS0_14adl_serializerEEEEEENSt15iterator_traitsIT_E15difference_typeESI_SI_St26random_access_iterator_tag(ptr noundef %7, ptr noundef %8)
  ret i64 %9
}

; Function Attrs: mustprogress noinline optnone uwtable
define linkonce_odr dso_local noundef i64 @_ZNSt6vectorIN8nlohmann10basic_jsonISt3mapS_NSt7__cxx1112basic_stringIcSt11char_traitsIcESaIcEEEblmdSaNS0_14adl_serializerEEESaISA_EE17_S_check_init_lenEmRKSB_(i64 noundef %0, ptr noundef nonnull align 1 dereferenceable(1) %1) #4 comdat align 2 {
  %3 = alloca i64, align 8
  %4 = alloca ptr, align 8
  %5 = alloca %"class.std::ios_base::Init", align 1
  store i64 %0, ptr %3, align 8
  store ptr %1, ptr %4, align 8
  %6 = load i64, ptr %3, align 8
  %7 = load ptr, ptr %4, align 8
  call void @_ZNSaIN8nlohmann10basic_jsonISt3mapSt6vectorNSt7__cxx1112basic_stringIcSt11char_traitsIcESaIcEEEblmdSaNS_14adl_serializerEEEEC2ERKSB_(ptr noundef nonnull align 1 dereferenceable(1) %5, ptr noundef nonnull align 1 dereferenceable(1) %7) #3
  %8 = call noundef i64 @_ZNSt6vectorIN8nlohmann10basic_jsonISt3mapS_NSt7__cxx1112basic_stringIcSt11char_traitsIcESaIcEEEblmdSaNS0_14adl_serializerEEESaISA_EE11_S_max_sizeERKSB_(ptr noundef nonnull align 1 dereferenceable(1) %5) #3
  %9 = icmp ugt i64 %6, %8
  call void @_ZNSaIN8nlohmann10basic_jsonISt3mapSt6vectorNSt7__cxx1112basic_stringIcSt11char_traitsIcESaIcEEEblmdSaNS_14adl_serializerEEEED2Ev(ptr noundef nonnull align 1 dereferenceable(1) %5) #3
  br i1 %9, label %10, label %11

10:                                               ; preds = %2
  call void @_ZSt20__throw_length_errorPKc(ptr noundef @.str.96) #21
  unreachable

11:                                               ; preds = %2
  %12 = load i64, ptr %3, align 8
  ret i64 %12
}

; Function Attrs: mustprogress noinline optnone uwtable
define linkonce_odr dso_local noundef ptr @_ZSt22__uninitialized_copy_aIPKN8nlohmann6detail8json_refINS0_10basic_jsonISt3mapSt6vectorNSt7__cxx1112basic_stringIcSt11char_traitsIcESaIcEEEblmdSaNS0_14adl_serializerEEEEEPSD_SD_ET0_T_SJ_SI_RSaIT1_E(ptr noundef %0, ptr noundef %1, ptr noundef %2, ptr noundef nonnull align 1 dereferenceable(1) %3) #4 comdat {
  %5 = alloca ptr, align 8
  %6 = alloca ptr, align 8
  %7 = alloca ptr, align 8
  %8 = alloca ptr, align 8
  store ptr %0, ptr %5, align 8
  store ptr %1, ptr %6, align 8
  store ptr %2, ptr %7, align 8
  store ptr %3, ptr %8, align 8
  %9 = load ptr, ptr %5, align 8
  %10 = load ptr, ptr %6, align 8
  %11 = load ptr, ptr %7, align 8
  %12 = call noundef ptr @_ZSt18uninitialized_copyIPKN8nlohmann6detail8json_refINS0_10basic_jsonISt3mapSt6vectorNSt7__cxx1112basic_stringIcSt11char_traitsIcESaIcEEEblmdSaNS0_14adl_serializerEEEEEPSD_ET0_T_SJ_SI_(ptr noundef %9, ptr noundef %10, ptr noundef %11)
  ret ptr %12
}

; Function Attrs: mustprogress noinline optnone uwtable
define linkonce_odr dso_local noundef ptr @_ZSt18uninitialized_copyIPKN8nlohmann6detail8json_refINS0_10basic_jsonISt3mapSt6vectorNSt7__cxx1112basic_stringIcSt11char_traitsIcESaIcEEEblmdSaNS0_14adl_serializerEEEEEPSD_ET0_T_SJ_SI_(ptr noundef %0, ptr noundef %1, ptr noundef %2) #4 comdat {
  %4 = alloca ptr, align 8
  %5 = alloca ptr, align 8
  %6 = alloca ptr, align 8
  %7 = alloca i8, align 1
  store ptr %0, ptr %4, align 8
  store ptr %1, ptr %5, align 8
  store ptr %2, ptr %6, align 8
  store i8 1, ptr %7, align 1
  %8 = load ptr, ptr %4, align 8
  %9 = load ptr, ptr %5, align 8
  %10 = load ptr, ptr %6, align 8
  %11 = call noundef ptr @_ZNSt20__uninitialized_copyILb0EE13__uninit_copyIPKN8nlohmann6detail8json_refINS2_10basic_jsonISt3mapSt6vectorNSt7__cxx1112basic_stringIcSt11char_traitsIcESaIcEEEblmdSaNS2_14adl_serializerEEEEEPSF_EET0_T_SL_SK_(ptr noundef %8, ptr noundef %9, ptr noundef %10)
  ret ptr %11
}

; Function Attrs: mustprogress noinline optnone uwtable
define linkonce_odr dso_local noundef ptr @_ZNSt20__uninitialized_copyILb0EE13__uninit_copyIPKN8nlohmann6detail8json_refINS2_10basic_jsonISt3mapSt6vectorNSt7__cxx1112basic_stringIcSt11char_traitsIcESaIcEEEblmdSaNS2_14adl_serializerEEEEEPSF_EET0_T_SL_SK_(ptr noundef %0, ptr noundef %1, ptr noundef %2) #4 comdat align 2 personality ptr @__gxx_personality_v0 {
  %4 = alloca ptr, align 8
  %5 = alloca ptr, align 8
  %6 = alloca ptr, align 8
  %7 = alloca ptr, align 8
  %8 = alloca ptr, align 8
  %9 = alloca i32, align 4
  store ptr %0, ptr %4, align 8
  store ptr %1, ptr %5, align 8
  store ptr %2, ptr %6, align 8
  %10 = load ptr, ptr %6, align 8
  store ptr %10, ptr %7, align 8
  br label %11

11:                                               ; preds = %19, %3
  %12 = load ptr, ptr %4, align 8
  %13 = load ptr, ptr %5, align 8
  %14 = icmp ne ptr %12, %13
  br i1 %14, label %15, label %34

15:                                               ; preds = %11
  %16 = load ptr, ptr %7, align 8
  %17 = load ptr, ptr %4, align 8
  invoke void @_ZSt10_ConstructIN8nlohmann10basic_jsonISt3mapSt6vectorNSt7__cxx1112basic_stringIcSt11char_traitsIcESaIcEEEblmdSaNS0_14adl_serializerEEEJRKNS0_6detail8json_refISB_EEEEvPT_DpOT0_(ptr noundef %16, ptr noundef nonnull align 8 dereferenceable(25) %17)
          to label %18 unwind label %24

18:                                               ; preds = %15
  br label %19

19:                                               ; preds = %18
  %20 = load ptr, ptr %4, align 8
  %21 = getelementptr inbounds %"class.nlohmann::detail::json_ref", ptr %20, i32 1
  store ptr %21, ptr %4, align 8
  %22 = load ptr, ptr %7, align 8
  %23 = getelementptr inbounds %"class.nlohmann::basic_json", ptr %22, i32 1
  store ptr %23, ptr %7, align 8
  br label %11, !llvm.loop !13

24:                                               ; preds = %15
  %25 = landingpad { ptr, i32 }
          catch ptr null
  %26 = extractvalue { ptr, i32 } %25, 0
  store ptr %26, ptr %8, align 8
  %27 = extractvalue { ptr, i32 } %25, 1
  store i32 %27, ptr %9, align 4
  br label %28

28:                                               ; preds = %24
  %29 = load ptr, ptr %8, align 8
  %30 = call ptr @__cxa_begin_catch(ptr %29) #3
  %31 = load ptr, ptr %6, align 8
  %32 = load ptr, ptr %7, align 8
  invoke void @_ZSt8_DestroyIPN8nlohmann10basic_jsonISt3mapSt6vectorNSt7__cxx1112basic_stringIcSt11char_traitsIcESaIcEEEblmdSaNS0_14adl_serializerEEEEvT_SD_(ptr noundef %31, ptr noundef %32)
          to label %33 unwind label %36

33:                                               ; preds = %28
  invoke void @__cxa_rethrow() #21
          to label %50 unwind label %36

34:                                               ; preds = %11
  %35 = load ptr, ptr %7, align 8
  ret ptr %35

36:                                               ; preds = %33, %28
  %37 = landingpad { ptr, i32 }
          cleanup
  %38 = extractvalue { ptr, i32 } %37, 0
  store ptr %38, ptr %8, align 8
  %39 = extractvalue { ptr, i32 } %37, 1
  store i32 %39, ptr %9, align 4
  invoke void @__cxa_end_catch()
          to label %40 unwind label %47

40:                                               ; preds = %36
  br label %42

41:                                               ; No predecessors!
  call void @llvm.trap()
  unreachable

42:                                               ; preds = %40
  %43 = load ptr, ptr %8, align 8
  %44 = load i32, ptr %9, align 4
  %45 = insertvalue { ptr, i32 } poison, ptr %43, 0
  %46 = insertvalue { ptr, i32 } %45, i32 %44, 1
  resume { ptr, i32 } %46

47:                                               ; preds = %36
  %48 = landingpad { ptr, i32 }
          catch ptr null
  %49 = extractvalue { ptr, i32 } %48, 0
  call void @__clang_call_terminate(ptr %49) #22
  unreachable

50:                                               ; preds = %33
  unreachable
}

; Function Attrs: mustprogress noinline optnone uwtable
define linkonce_odr dso_local void @_ZSt10_ConstructIN8nlohmann10basic_jsonISt3mapSt6vectorNSt7__cxx1112basic_stringIcSt11char_traitsIcESaIcEEEblmdSaNS0_14adl_serializerEEEJRKNS0_6detail8json_refISB_EEEEvPT_DpOT0_(ptr noundef %0, ptr noundef nonnull align 8 dereferenceable(25) %1) #4 comdat {
  %3 = alloca ptr, align 8
  %4 = alloca ptr, align 8
  store ptr %0, ptr %3, align 8
  store ptr %1, ptr %4, align 8
  %5 = load ptr, ptr %3, align 8
  %6 = load ptr, ptr %4, align 8
  call void @_ZN8nlohmann10basic_jsonISt3mapSt6vectorNSt7__cxx1112basic_stringIcSt11char_traitsIcESaIcEEEblmdSaNS_14adl_serializerEEC2ERKNS_6detail8json_refISA_EE(ptr noundef nonnull align 8 dereferenceable(16) %5, ptr noundef nonnull align 8 dereferenceable(25) %6)
  ret void
}

declare void @__cxa_rethrow()

declare void @__cxa_end_catch()

; Function Attrs: cold noreturn nounwind
declare void @llvm.trap() #16

; Function Attrs: noinline optnone uwtable
define linkonce_odr dso_local void @_ZN8nlohmann10basic_jsonISt3mapSt6vectorNSt7__cxx1112basic_stringIcSt11char_traitsIcESaIcEEEblmdSaNS_14adl_serializerEEC2ERKNS_6detail8json_refISA_EE(ptr noundef nonnull align 8 dereferenceable(16) %0, ptr noundef nonnull align 8 dereferenceable(25) %1) unnamed_addr #5 comdat align 2 {
  %3 = alloca ptr, align 8
  %4 = alloca ptr, align 8
  %5 = alloca %"class.nlohmann::basic_json", align 8
  store ptr %0, ptr %3, align 8
  store ptr %1, ptr %4, align 8
  %6 = load ptr, ptr %3, align 8
  %7 = load ptr, ptr %4, align 8
  call void @_ZNK8nlohmann6detail8json_refINS_10basic_jsonISt3mapSt6vectorNSt7__cxx1112basic_stringIcSt11char_traitsIcESaIcEEEblmdSaNS_14adl_serializerEEEE15moved_or_copiedEv(ptr sret(%"class.nlohmann::basic_json") align 8 %5, ptr noundef nonnull align 8 dereferenceable(25) %7)
  call void @_ZN8nlohmann10basic_jsonISt3mapSt6vectorNSt7__cxx1112basic_stringIcSt11char_traitsIcESaIcEEEblmdSaNS_14adl_serializerEEC2EOSA_(ptr noundef nonnull align 8 dereferenceable(16) %6, ptr noundef nonnull align 8 dereferenceable(16) %5) #3
  call void @_ZN8nlohmann10basic_jsonISt3mapSt6vectorNSt7__cxx1112basic_stringIcSt11char_traitsIcESaIcEEEblmdSaNS_14adl_serializerEED2Ev(ptr noundef nonnull align 8 dereferenceable(16) %5) #3
  ret void
}

; Function Attrs: mustprogress noinline optnone uwtable
define linkonce_odr dso_local void @_ZNK8nlohmann6detail8json_refINS_10basic_jsonISt3mapSt6vectorNSt7__cxx1112basic_stringIcSt11char_traitsIcESaIcEEEblmdSaNS_14adl_serializerEEEE15moved_or_copiedEv(ptr noalias sret(%"class.nlohmann::basic_json") align 8 %0, ptr noundef nonnull align 8 dereferenceable(25) %1) #4 comdat align 2 {
  %3 = alloca ptr, align 8
  %4 = alloca ptr, align 8
  store ptr %0, ptr %3, align 8
  store ptr %1, ptr %4, align 8
  %5 = load ptr, ptr %4, align 8
  %6 = getelementptr inbounds %"class.nlohmann::detail::json_ref", ptr %5, i32 0, i32 2
  %7 = load i8, ptr %6, align 8
  %8 = trunc i8 %7 to i1
  br i1 %8, label %9, label %12

9:                                                ; preds = %2
  %10 = getelementptr inbounds %"class.nlohmann::detail::json_ref", ptr %5, i32 0, i32 1
  %11 = load ptr, ptr %10, align 8
  call void @_ZN8nlohmann10basic_jsonISt3mapSt6vectorNSt7__cxx1112basic_stringIcSt11char_traitsIcESaIcEEEblmdSaNS_14adl_serializerEEC2EOSA_(ptr noundef nonnull align 8 dereferenceable(16) %0, ptr noundef nonnull align 8 dereferenceable(16) %11) #3
  br label %15

12:                                               ; preds = %2
  %13 = getelementptr inbounds %"class.nlohmann::detail::json_ref", ptr %5, i32 0, i32 1
  %14 = load ptr, ptr %13, align 8
  call void @_ZN8nlohmann10basic_jsonISt3mapSt6vectorNSt7__cxx1112basic_stringIcSt11char_traitsIcESaIcEEEblmdSaNS_14adl_serializerEEC2ERKSA_(ptr noundef nonnull align 8 dereferenceable(16) %0, ptr noundef nonnull align 8 dereferenceable(16) %14)
  br label %15

15:                                               ; preds = %12, %9
  ret void
}

; Function Attrs: noinline optnone uwtable
define linkonce_odr dso_local void @_ZN8nlohmann10basic_jsonISt3mapSt6vectorNSt7__cxx1112basic_stringIcSt11char_traitsIcESaIcEEEblmdSaNS_14adl_serializerEEC2ERKSA_(ptr noundef nonnull align 8 dereferenceable(16) %0, ptr noundef nonnull align 8 dereferenceable(16) %1) unnamed_addr #5 comdat align 2 {
  %3 = alloca ptr, align 8
  %4 = alloca ptr, align 8
  %5 = alloca %"union.nlohmann::basic_json<>::json_value", align 8
  %6 = alloca %"union.nlohmann::basic_json<>::json_value", align 8
  %7 = alloca %"union.nlohmann::basic_json<>::json_value", align 8
  %8 = alloca %"union.nlohmann::basic_json<>::json_value", align 8
  %9 = alloca %"union.nlohmann::basic_json<>::json_value", align 8
  %10 = alloca %"union.nlohmann::basic_json<>::json_value", align 8
  %11 = alloca %"union.nlohmann::basic_json<>::json_value", align 8
  store ptr %0, ptr %3, align 8
  store ptr %1, ptr %4, align 8
  %12 = load ptr, ptr %3, align 8
  %13 = getelementptr inbounds %"class.nlohmann::basic_json", ptr %12, i32 0, i32 0
  %14 = load ptr, ptr %4, align 8
  %15 = getelementptr inbounds %"class.nlohmann::basic_json", ptr %14, i32 0, i32 0
  %16 = load i8, ptr %15, align 8
  store i8 %16, ptr %13, align 8
  %17 = getelementptr inbounds %"class.nlohmann::basic_json", ptr %12, i32 0, i32 1
  call void @llvm.memset.p0.i64(ptr align 8 %17, i8 0, i64 8, i1 false)
  %18 = load ptr, ptr %4, align 8
  call void @_ZNK8nlohmann10basic_jsonISt3mapSt6vectorNSt7__cxx1112basic_stringIcSt11char_traitsIcESaIcEEEblmdSaNS_14adl_serializerEE16assert_invariantEv(ptr noundef nonnull align 8 dereferenceable(16) %18) #3
  %19 = getelementptr inbounds %"class.nlohmann::basic_json", ptr %12, i32 0, i32 0
  %20 = load i8, ptr %19, align 8
  switch i8 %20, label %57 [
    i8 1, label %21
    i8 2, label %26
    i8 3, label %31
    i8 4, label %36
    i8 5, label %42
    i8 6, label %47
    i8 7, label %52
  ]

21:                                               ; preds = %2
  %22 = load ptr, ptr %4, align 8
  %23 = getelementptr inbounds %"class.nlohmann::basic_json", ptr %22, i32 0, i32 1
  %24 = load ptr, ptr %23, align 8
  call void @_ZN8nlohmann10basic_jsonISt3mapSt6vectorNSt7__cxx1112basic_stringIcSt11char_traitsIcESaIcEEEblmdSaNS_14adl_serializerEE10json_valueC2ERKS1_IS8_SA_St4lessIvESaISt4pairIKS8_SA_EEE(ptr noundef nonnull align 8 dereferenceable(8) %5, ptr noundef nonnull align 8 dereferenceable(48) %24)
  %25 = getelementptr inbounds %"class.nlohmann::basic_json", ptr %12, i32 0, i32 1
  call void @llvm.memcpy.p0.p0.i64(ptr align 8 %25, ptr align 8 %5, i64 8, i1 false)
  br label %58

26:                                               ; preds = %2
  %27 = load ptr, ptr %4, align 8
  %28 = getelementptr inbounds %"class.nlohmann::basic_json", ptr %27, i32 0, i32 1
  %29 = load ptr, ptr %28, align 8
  call void @_ZN8nlohmann10basic_jsonISt3mapSt6vectorNSt7__cxx1112basic_stringIcSt11char_traitsIcESaIcEEEblmdSaNS_14adl_serializerEE10json_valueC2ERKS2_ISA_SaISA_EE(ptr noundef nonnull align 8 dereferenceable(8) %6, ptr noundef nonnull align 8 dereferenceable(24) %29)
  %30 = getelementptr inbounds %"class.nlohmann::basic_json", ptr %12, i32 0, i32 1
  call void @llvm.memcpy.p0.p0.i64(ptr align 8 %30, ptr align 8 %6, i64 8, i1 false)
  br label %58

31:                                               ; preds = %2
  %32 = load ptr, ptr %4, align 8
  %33 = getelementptr inbounds %"class.nlohmann::basic_json", ptr %32, i32 0, i32 1
  %34 = load ptr, ptr %33, align 8
  call void @_ZN8nlohmann10basic_jsonISt3mapSt6vectorNSt7__cxx1112basic_stringIcSt11char_traitsIcESaIcEEEblmdSaNS_14adl_serializerEE10json_valueC2ERKS8_(ptr noundef nonnull align 8 dereferenceable(8) %7, ptr noundef nonnull align 8 dereferenceable(32) %34)
  %35 = getelementptr inbounds %"class.nlohmann::basic_json", ptr %12, i32 0, i32 1
  call void @llvm.memcpy.p0.p0.i64(ptr align 8 %35, ptr align 8 %7, i64 8, i1 false)
  br label %58

36:                                               ; preds = %2
  %37 = load ptr, ptr %4, align 8
  %38 = getelementptr inbounds %"class.nlohmann::basic_json", ptr %37, i32 0, i32 1
  %39 = load i8, ptr %38, align 8
  %40 = trunc i8 %39 to i1
  call void @_ZN8nlohmann10basic_jsonISt3mapSt6vectorNSt7__cxx1112basic_stringIcSt11char_traitsIcESaIcEEEblmdSaNS_14adl_serializerEE10json_valueC2Eb(ptr noundef nonnull align 8 dereferenceable(8) %8, i1 noundef zeroext %40) #3
  %41 = getelementptr inbounds %"class.nlohmann::basic_json", ptr %12, i32 0, i32 1
  call void @llvm.memcpy.p0.p0.i64(ptr align 8 %41, ptr align 8 %8, i64 8, i1 false)
  br label %58

42:                                               ; preds = %2
  %43 = load ptr, ptr %4, align 8
  %44 = getelementptr inbounds %"class.nlohmann::basic_json", ptr %43, i32 0, i32 1
  %45 = load i64, ptr %44, align 8
  call void @_ZN8nlohmann10basic_jsonISt3mapSt6vectorNSt7__cxx1112basic_stringIcSt11char_traitsIcESaIcEEEblmdSaNS_14adl_serializerEE10json_valueC2El(ptr noundef nonnull align 8 dereferenceable(8) %9, i64 noundef %45) #3
  %46 = getelementptr inbounds %"class.nlohmann::basic_json", ptr %12, i32 0, i32 1
  call void @llvm.memcpy.p0.p0.i64(ptr align 8 %46, ptr align 8 %9, i64 8, i1 false)
  br label %58

47:                                               ; preds = %2
  %48 = load ptr, ptr %4, align 8
  %49 = getelementptr inbounds %"class.nlohmann::basic_json", ptr %48, i32 0, i32 1
  %50 = load i64, ptr %49, align 8
  call void @_ZN8nlohmann10basic_jsonISt3mapSt6vectorNSt7__cxx1112basic_stringIcSt11char_traitsIcESaIcEEEblmdSaNS_14adl_serializerEE10json_valueC2Em(ptr noundef nonnull align 8 dereferenceable(8) %10, i64 noundef %50) #3
  %51 = getelementptr inbounds %"class.nlohmann::basic_json", ptr %12, i32 0, i32 1
  call void @llvm.memcpy.p0.p0.i64(ptr align 8 %51, ptr align 8 %10, i64 8, i1 false)
  br label %58

52:                                               ; preds = %2
  %53 = load ptr, ptr %4, align 8
  %54 = getelementptr inbounds %"class.nlohmann::basic_json", ptr %53, i32 0, i32 1
  %55 = load double, ptr %54, align 8
  call void @_ZN8nlohmann10basic_jsonISt3mapSt6vectorNSt7__cxx1112basic_stringIcSt11char_traitsIcESaIcEEEblmdSaNS_14adl_serializerEE10json_valueC2Ed(ptr noundef nonnull align 8 dereferenceable(8) %11, double noundef %55) #3
  %56 = getelementptr inbounds %"class.nlohmann::basic_json", ptr %12, i32 0, i32 1
  call void @llvm.memcpy.p0.p0.i64(ptr align 8 %56, ptr align 8 %11, i64 8, i1 false)
  br label %58

57:                                               ; preds = %2
  br label %58

58:                                               ; preds = %57, %52, %47, %42, %36, %31, %26, %21
  call void @_ZNK8nlohmann10basic_jsonISt3mapSt6vectorNSt7__cxx1112basic_stringIcSt11char_traitsIcESaIcEEEblmdSaNS_14adl_serializerEE16assert_invariantEv(ptr noundef nonnull align 8 dereferenceable(16) %12) #3
  ret void
}

; Function Attrs: noinline optnone uwtable
define linkonce_odr dso_local void @_ZN8nlohmann10basic_jsonISt3mapSt6vectorNSt7__cxx1112basic_stringIcSt11char_traitsIcESaIcEEEblmdSaNS_14adl_serializerEE10json_valueC2ERKS1_IS8_SA_St4lessIvESaISt4pairIKS8_SA_EEE(ptr noundef nonnull align 8 dereferenceable(8) %0, ptr noundef nonnull align 8 dereferenceable(48) %1) unnamed_addr #5 comdat align 2 {
  %3 = alloca ptr, align 8
  %4 = alloca ptr, align 8
  store ptr %0, ptr %3, align 8
  store ptr %1, ptr %4, align 8
  %5 = load ptr, ptr %3, align 8
  %6 = load ptr, ptr %4, align 8
  %7 = call noundef nonnull ptr @_ZN8nlohmann10basic_jsonISt3mapSt6vectorNSt7__cxx1112basic_stringIcSt11char_traitsIcESaIcEEEblmdSaNS_14adl_serializerEE6createIS1_IS8_SA_St4lessIvESaISt4pairIKS8_SA_EEEJRKSI_EEEPT_DpOT0_(ptr noundef nonnull align 8 dereferenceable(48) %6)
  store ptr %7, ptr %5, align 8
  ret void
}

; Function Attrs: noinline optnone uwtable
define linkonce_odr dso_local void @_ZN8nlohmann10basic_jsonISt3mapSt6vectorNSt7__cxx1112basic_stringIcSt11char_traitsIcESaIcEEEblmdSaNS_14adl_serializerEE10json_valueC2ERKS2_ISA_SaISA_EE(ptr noundef nonnull align 8 dereferenceable(8) %0, ptr noundef nonnull align 8 dereferenceable(24) %1) unnamed_addr #5 comdat align 2 {
  %3 = alloca ptr, align 8
  %4 = alloca ptr, align 8
  store ptr %0, ptr %3, align 8
  store ptr %1, ptr %4, align 8
  %5 = load ptr, ptr %3, align 8
  %6 = load ptr, ptr %4, align 8
  %7 = call noundef nonnull ptr @_ZN8nlohmann10basic_jsonISt3mapSt6vectorNSt7__cxx1112basic_stringIcSt11char_traitsIcESaIcEEEblmdSaNS_14adl_serializerEE6createIS2_ISA_SaISA_EEJRKSD_EEEPT_DpOT0_(ptr noundef nonnull align 8 dereferenceable(24) %6)
  store ptr %7, ptr %5, align 8
  ret void
}

; Function Attrs: noinline optnone uwtable
define linkonce_odr dso_local void @_ZN8nlohmann10basic_jsonISt3mapSt6vectorNSt7__cxx1112basic_stringIcSt11char_traitsIcESaIcEEEblmdSaNS_14adl_serializerEE10json_valueC2ERKS8_(ptr noundef nonnull align 8 dereferenceable(8) %0, ptr noundef nonnull align 8 dereferenceable(32) %1) unnamed_addr #5 comdat align 2 {
  %3 = alloca ptr, align 8
  %4 = alloca ptr, align 8
  store ptr %0, ptr %3, align 8
  store ptr %1, ptr %4, align 8
  %5 = load ptr, ptr %3, align 8
  %6 = load ptr, ptr %4, align 8
  %7 = call noundef nonnull ptr @_ZN8nlohmann10basic_jsonISt3mapSt6vectorNSt7__cxx1112basic_stringIcSt11char_traitsIcESaIcEEEblmdSaNS_14adl_serializerEE6createIS8_JRKS8_EEEPT_DpOT0_(ptr noundef nonnull align 8 dereferenceable(32) %6)
  store ptr %7, ptr %5, align 8
  ret void
}

; Function Attrs: noinline nounwind optnone uwtable
define linkonce_odr dso_local void @_ZN8nlohmann10basic_jsonISt3mapSt6vectorNSt7__cxx1112basic_stringIcSt11char_traitsIcESaIcEEEblmdSaNS_14adl_serializerEE10json_valueC2Eb(ptr noundef nonnull align 8 dereferenceable(8) %0, i1 noundef zeroext %1) unnamed_addr #7 comdat align 2 {
  %3 = alloca ptr, align 8
  %4 = alloca i8, align 1
  store ptr %0, ptr %3, align 8
  %5 = zext i1 %1 to i8
  store i8 %5, ptr %4, align 1
  %6 = load ptr, ptr %3, align 8
  %7 = load i8, ptr %4, align 1
  %8 = trunc i8 %7 to i1
  %9 = zext i1 %8 to i8
  store i8 %9, ptr %6, align 8
  ret void
}

; Function Attrs: noinline nounwind optnone uwtable
define linkonce_odr dso_local void @_ZN8nlohmann10basic_jsonISt3mapSt6vectorNSt7__cxx1112basic_stringIcSt11char_traitsIcESaIcEEEblmdSaNS_14adl_serializerEE10json_valueC2El(ptr noundef nonnull align 8 dereferenceable(8) %0, i64 noundef %1) unnamed_addr #7 comdat align 2 {
  %3 = alloca ptr, align 8
  %4 = alloca i64, align 8
  store ptr %0, ptr %3, align 8
  store i64 %1, ptr %4, align 8
  %5 = load ptr, ptr %3, align 8
  %6 = load i64, ptr %4, align 8
  store i64 %6, ptr %5, align 8
  ret void
}

; Function Attrs: noinline nounwind optnone uwtable
define linkonce_odr dso_local void @_ZN8nlohmann10basic_jsonISt3mapSt6vectorNSt7__cxx1112basic_stringIcSt11char_traitsIcESaIcEEEblmdSaNS_14adl_serializerEE10json_valueC2Em(ptr noundef nonnull align 8 dereferenceable(8) %0, i64 noundef %1) unnamed_addr #7 comdat align 2 {
  %3 = alloca ptr, align 8
  %4 = alloca i64, align 8
  store ptr %0, ptr %3, align 8
  store i64 %1, ptr %4, align 8
  %5 = load ptr, ptr %3, align 8
  %6 = load i64, ptr %4, align 8
  store i64 %6, ptr %5, align 8
  ret void
}

; Function Attrs: noinline nounwind optnone uwtable
define linkonce_odr dso_local void @_ZN8nlohmann10basic_jsonISt3mapSt6vectorNSt7__cxx1112basic_stringIcSt11char_traitsIcESaIcEEEblmdSaNS_14adl_serializerEE10json_valueC2Ed(ptr noundef nonnull align 8 dereferenceable(8) %0, double noundef %1) unnamed_addr #7 comdat align 2 {
  %3 = alloca ptr, align 8
  %4 = alloca double, align 8
  store ptr %0, ptr %3, align 8
  store double %1, ptr %4, align 8
  %5 = load ptr, ptr %3, align 8
  %6 = load double, ptr %4, align 8
  store double %6, ptr %5, align 8
  ret void
}

; Function Attrs: mustprogress noinline optnone uwtable
define linkonce_odr dso_local noundef nonnull ptr @_ZN8nlohmann10basic_jsonISt3mapSt6vectorNSt7__cxx1112basic_stringIcSt11char_traitsIcESaIcEEEblmdSaNS_14adl_serializerEE6createIS8_JRKS8_EEEPT_DpOT0_(ptr noundef nonnull align 8 dereferenceable(32) %0) #4 comdat align 2 personality ptr @__gxx_personality_v0 {
  %2 = alloca ptr, align 8
  %3 = alloca %"class.std::ios_base::Init", align 1
  %4 = alloca %"union.nlohmann::basic_json<>::json_value", align 8
  %5 = alloca %"class.std::unique_ptr.90", align 8
  %6 = alloca ptr, align 8
  %7 = alloca i32, align 4
  store ptr %0, ptr %2, align 8
  call void @_ZNSaINSt7__cxx1112basic_stringIcSt11char_traitsIcESaIcEEEEC2Ev(ptr noundef nonnull align 1 dereferenceable(1) %3) #3
  %8 = getelementptr inbounds %"union.nlohmann::basic_json<>::json_value", ptr %4, i32 0, i32 0
  store ptr %3, ptr %8, align 8
  %9 = invoke noundef ptr @_ZNSt16allocator_traitsISaINSt7__cxx1112basic_stringIcSt11char_traitsIcESaIcEEEEE8allocateERS6_m(ptr noundef nonnull align 1 dereferenceable(1) %3, i64 noundef 1)
          to label %10 unwind label %17

10:                                               ; preds = %1
  call void @_ZNSt10unique_ptrINSt7__cxx1112basic_stringIcSt11char_traitsIcESaIcEEEZN8nlohmann10basic_jsonISt3mapSt6vectorS5_blmdSaNS6_14adl_serializerEE6createIS5_JRKS5_EEEPT_DpOT0_EUlPS5_E_EC2ISL_vEESK_RKSL_(ptr noundef nonnull align 8 dereferenceable(16) %5, ptr noundef %9, ptr noundef nonnull align 8 dereferenceable(8) %4) #3
  %11 = call noundef ptr @_ZNKSt10unique_ptrINSt7__cxx1112basic_stringIcSt11char_traitsIcESaIcEEEZN8nlohmann10basic_jsonISt3mapSt6vectorS5_blmdSaNS6_14adl_serializerEE6createIS5_JRKS5_EEEPT_DpOT0_EUlPS5_E_E3getEv(ptr noundef nonnull align 8 dereferenceable(16) %5) #3
  %12 = load ptr, ptr %2, align 8
  invoke void @_ZNSt16allocator_traitsISaINSt7__cxx1112basic_stringIcSt11char_traitsIcESaIcEEEEE9constructIS5_JRKS5_EEEvRS6_PT_DpOT0_(ptr noundef nonnull align 1 dereferenceable(1) %3, ptr noundef %11, ptr noundef nonnull align 8 dereferenceable(32) %12)
          to label %13 unwind label %21

13:                                               ; preds = %10
  %14 = call noundef zeroext i1 @_ZStneINSt7__cxx1112basic_stringIcSt11char_traitsIcESaIcEEEZN8nlohmann10basic_jsonISt3mapSt6vectorS5_blmdSaNS6_14adl_serializerEE6createIS5_JRKS5_EEEPT_DpOT0_EUlPS5_E_EbRKSt10unique_ptrISF_T0_EDn(ptr noundef nonnull align 8 dereferenceable(16) %5, ptr null) #3
  br i1 %14, label %15, label %16

15:                                               ; preds = %13
  br label %26

16:                                               ; preds = %13
  call void @__assert_fail(ptr noundef @.str.85, ptr noundef @.str.80, i32 noundef 839, ptr noundef @__PRETTY_FUNCTION__._ZN8nlohmann10basic_jsonISt3mapSt6vectorNSt7__cxx1112basic_stringIcSt11char_traitsIcESaIcEEEblmdSaNS_14adl_serializerEE6createIS8_JRKS8_EEEPT_DpOT0_) #22
  unreachable

17:                                               ; preds = %1
  %18 = landingpad { ptr, i32 }
          cleanup
  %19 = extractvalue { ptr, i32 } %18, 0
  store ptr %19, ptr %6, align 8
  %20 = extractvalue { ptr, i32 } %18, 1
  store i32 %20, ptr %7, align 4
  br label %28

21:                                               ; preds = %10
  %22 = landingpad { ptr, i32 }
          cleanup
  %23 = extractvalue { ptr, i32 } %22, 0
  store ptr %23, ptr %6, align 8
  %24 = extractvalue { ptr, i32 } %22, 1
  store i32 %24, ptr %7, align 4
  call void @_ZNSt10unique_ptrINSt7__cxx1112basic_stringIcSt11char_traitsIcESaIcEEEZN8nlohmann10basic_jsonISt3mapSt6vectorS5_blmdSaNS6_14adl_serializerEE6createIS5_JRKS5_EEEPT_DpOT0_EUlPS5_E_ED2Ev(ptr noundef nonnull align 8 dereferenceable(16) %5) #3
  br label %28

25:                                               ; No predecessors!
  br label %26

26:                                               ; preds = %25, %15
  %27 = call noundef ptr @_ZNSt10unique_ptrINSt7__cxx1112basic_stringIcSt11char_traitsIcESaIcEEEZN8nlohmann10basic_jsonISt3mapSt6vectorS5_blmdSaNS6_14adl_serializerEE6createIS5_JRKS5_EEEPT_DpOT0_EUlPS5_E_E7releaseEv(ptr noundef nonnull align 8 dereferenceable(16) %5) #3
  call void @_ZNSt10unique_ptrINSt7__cxx1112basic_stringIcSt11char_traitsIcESaIcEEEZN8nlohmann10basic_jsonISt3mapSt6vectorS5_blmdSaNS6_14adl_serializerEE6createIS5_JRKS5_EEEPT_DpOT0_EUlPS5_E_ED2Ev(ptr noundef nonnull align 8 dereferenceable(16) %5) #3
  call void @_ZNSaINSt7__cxx1112basic_stringIcSt11char_traitsIcESaIcEEEED2Ev(ptr noundef nonnull align 1 dereferenceable(1) %3) #3
  ret ptr %27

28:                                               ; preds = %21, %17
  call void @_ZNSaINSt7__cxx1112basic_stringIcSt11char_traitsIcESaIcEEEED2Ev(ptr noundef nonnull align 1 dereferenceable(1) %3) #3
  br label %29

29:                                               ; preds = %28
  %30 = load ptr, ptr %6, align 8
  %31 = load i32, ptr %7, align 4
  %32 = insertvalue { ptr, i32 } poison, ptr %30, 0
  %33 = insertvalue { ptr, i32 } %32, i32 %31, 1
  resume { ptr, i32 } %33
}

; Function Attrs: mustprogress noinline optnone uwtable
define linkonce_odr dso_local noundef ptr @_ZNSt16allocator_traitsISaINSt7__cxx1112basic_stringIcSt11char_traitsIcESaIcEEEEE8allocateERS6_m(ptr noundef nonnull align 1 dereferenceable(1) %0, i64 noundef %1) #4 comdat align 2 {
  %3 = alloca ptr, align 8
  %4 = alloca i64, align 8
  store ptr %0, ptr %3, align 8
  store i64 %1, ptr %4, align 8
  %5 = load ptr, ptr %3, align 8
  %6 = load i64, ptr %4, align 8
  %7 = call noundef ptr @_ZN9__gnu_cxx13new_allocatorINSt7__cxx1112basic_stringIcSt11char_traitsIcESaIcEEEE8allocateEmPKv(ptr noundef nonnull align 1 dereferenceable(1) %5, i64 noundef %6, ptr noundef null)
  ret ptr %7
}

; Function Attrs: noinline nounwind optnone uwtable
define linkonce_odr dso_local void @_ZNSt10unique_ptrINSt7__cxx1112basic_stringIcSt11char_traitsIcESaIcEEEZN8nlohmann10basic_jsonISt3mapSt6vectorS5_blmdSaNS6_14adl_serializerEE6createIS5_JRKS5_EEEPT_DpOT0_EUlPS5_E_EC2ISL_vEESK_RKSL_(ptr noundef nonnull align 8 dereferenceable(16) %0, ptr noundef %1, ptr noundef nonnull align 8 dereferenceable(8) %2) unnamed_addr #7 comdat align 2 personality ptr @__gxx_personality_v0 {
  %4 = alloca ptr, align 8
  %5 = alloca ptr, align 8
  %6 = alloca ptr, align 8
  store ptr %0, ptr %4, align 8
  store ptr %1, ptr %5, align 8
  store ptr %2, ptr %6, align 8
  %7 = load ptr, ptr %4, align 8
  %8 = getelementptr inbounds %"class.std::unique_ptr.90", ptr %7, i32 0, i32 0
  %9 = load ptr, ptr %5, align 8
  %10 = load ptr, ptr %6, align 8
  invoke void @_ZNSt15__uniq_ptr_implINSt7__cxx1112basic_stringIcSt11char_traitsIcESaIcEEEZN8nlohmann10basic_jsonISt3mapSt6vectorS5_blmdSaNS6_14adl_serializerEE6createIS5_JRKS5_EEEPT_DpOT0_EUlPS5_E_EC2IRKSL_EESK_OSF_(ptr noundef nonnull align 8 dereferenceable(16) %8, ptr noundef %9, ptr noundef nonnull align 8 dereferenceable(8) %10)
          to label %11 unwind label %12

11:                                               ; preds = %3
  ret void

12:                                               ; preds = %3
  %13 = landingpad { ptr, i32 }
          catch ptr null
  %14 = extractvalue { ptr, i32 } %13, 0
  call void @__clang_call_terminate(ptr %14) #22
  unreachable
}

; Function Attrs: mustprogress noinline nounwind optnone uwtable
define linkonce_odr dso_local noundef ptr @_ZNKSt10unique_ptrINSt7__cxx1112basic_stringIcSt11char_traitsIcESaIcEEEZN8nlohmann10basic_jsonISt3mapSt6vectorS5_blmdSaNS6_14adl_serializerEE6createIS5_JRKS5_EEEPT_DpOT0_EUlPS5_E_E3getEv(ptr noundef nonnull align 8 dereferenceable(16) %0) #6 comdat align 2 personality ptr @__gxx_personality_v0 {
  %2 = alloca ptr, align 8
  store ptr %0, ptr %2, align 8
  %3 = load ptr, ptr %2, align 8
  %4 = getelementptr inbounds %"class.std::unique_ptr.90", ptr %3, i32 0, i32 0
  %5 = invoke noundef ptr @_ZNKSt15__uniq_ptr_implINSt7__cxx1112basic_stringIcSt11char_traitsIcESaIcEEEZN8nlohmann10basic_jsonISt3mapSt6vectorS5_blmdSaNS6_14adl_serializerEE6createIS5_JRKS5_EEEPT_DpOT0_EUlPS5_E_E6_M_ptrEv(ptr noundef nonnull align 8 dereferenceable(16) %4)
          to label %6 unwind label %7

6:                                                ; preds = %1
  ret ptr %5

7:                                                ; preds = %1
  %8 = landingpad { ptr, i32 }
          catch ptr null
  %9 = extractvalue { ptr, i32 } %8, 0
  call void @__clang_call_terminate(ptr %9) #22
  unreachable
}

; Function Attrs: mustprogress noinline optnone uwtable
define linkonce_odr dso_local void @_ZNSt16allocator_traitsISaINSt7__cxx1112basic_stringIcSt11char_traitsIcESaIcEEEEE9constructIS5_JRKS5_EEEvRS6_PT_DpOT0_(ptr noundef nonnull align 1 dereferenceable(1) %0, ptr noundef %1, ptr noundef nonnull align 8 dereferenceable(32) %2) #4 comdat align 2 {
  %4 = alloca ptr, align 8
  %5 = alloca ptr, align 8
  %6 = alloca ptr, align 8
  store ptr %0, ptr %4, align 8
  store ptr %1, ptr %5, align 8
  store ptr %2, ptr %6, align 8
  %7 = load ptr, ptr %4, align 8
