; ModuleID = 'kupnp3r5qljbmgl'
source_filename = "kupnp3r5qljbmgl"
target datalayout = "e-m:e-p270:32:32-p271:32:32-p272:64:64-i64:64-f80:128-n8:16:32:64-S128"
target triple = "x86_64-unknown-linux-gnu"

%"core::result::Result<usize, std::io::error::Error>" = type { i64, [1 x i64] }
%"core::ops::range::Range<usize>" = type { i64, i64 }
%"core::result::Result<usize, std::io::error::Error>::Ok" = type { [1 x i64], i64 }
%"core::slice::iter::Iter<'_, u8>" = type { ptr, ptr, %"core::marker::PhantomData<&u8>" }
%"core::marker::PhantomData<&u8>" = type {}
%"core::fmt::builders::DebugList<'_, '_>" = type { %"core::fmt::builders::DebugInner<'_, '_>" }
%"core::fmt::builders::DebugInner<'_, '_>" = type { ptr, i8, i8, [6 x i8] }
%"core::fmt::Formatter<'_>" = type { %"core::option::Option<usize>", %"core::option::Option<usize>", { ptr, ptr }, i32, i32, i8, [7 x i8] }
%"core::option::Option<usize>" = type { i64, [1 x i64] }
%"core::fmt::Arguments<'_>" = type { { ptr, i64 }, { ptr, i64 }, %"core::option::Option<&[core::fmt::rt::Placeholder]>" }
%"core::option::Option<&[core::fmt::rt::Placeholder]>" = type { ptr, [1 x i64] }
%"core::result::Result<usize, curl::easy::handler::ReadError>" = type { i8, [15 x i8] }
%"core::result::Result<usize, std::io::error::Error>::Err" = type { [1 x i64], ptr }
%"core::option::Option<(&[u8], &[u8])>" = type { ptr, [3 x i64] }
%"core::ptr::metadata::PtrComponents<[u8]>" = type { ptr, i64 }
%"core::ptr::metadata::PtrRepr<[u8]>" = type { [2 x i64] }
%"core::result::Result<(), curl::error::Error>" = type { i64, [3 x i64] }
%"core::option::Option<alloc::boxed::Box<dyn for<'a> core::ops::function::FnMut(&'a mut [u8]) -> core::result::Result<usize, curl::easy::handler::ReadError>>>" = type { ptr, [1 x i64] }
%"curl::easy::handle::Callbacks<'_>" = type { %"core::option::Option<alloc::boxed::Box<dyn for<'a> core::ops::function::FnMut(&'a [u8]) -> core::result::Result<usize, curl::easy::handler::WriteError>>>", %"core::option::Option<alloc::boxed::Box<dyn for<'a> core::ops::function::FnMut(&'a mut [u8]) -> core::result::Result<usize, curl::easy::handler::ReadError>>>", %"core::option::Option<alloc::boxed::Box<dyn core::ops::function::FnMut(std::io::SeekFrom) -> curl::easy::handler::SeekResult>>", %"core::option::Option<alloc::boxed::Box<dyn for<'a> core::ops::function::FnMut(curl::easy::handler::InfoType, &'a [u8])>>", %"core::option::Option<alloc::boxed::Box<dyn for<'a> core::ops::function::FnMut(&'a [u8]) -> bool>>", %"core::option::Option<alloc::boxed::Box<dyn core::ops::function::FnMut(f64, f64, f64, f64) -> bool>>", %"core::option::Option<alloc::boxed::Box<dyn core::ops::function::FnMut(*mut core::ffi::c_void) -> core::result::Result<(), curl::error::Error>>>" }
%"core::option::Option<alloc::boxed::Box<dyn for<'a> core::ops::function::FnMut(&'a [u8]) -> core::result::Result<usize, curl::easy::handler::WriteError>>>" = type { ptr, [1 x i64] }
%"core::option::Option<alloc::boxed::Box<dyn core::ops::function::FnMut(std::io::SeekFrom) -> curl::easy::handler::SeekResult>>" = type { ptr, [1 x i64] }
%"core::option::Option<alloc::boxed::Box<dyn for<'a> core::ops::function::FnMut(curl::easy::handler::InfoType, &'a [u8])>>" = type { ptr, [1 x i64] }
%"core::option::Option<alloc::boxed::Box<dyn for<'a> core::ops::function::FnMut(&'a [u8]) -> bool>>" = type { ptr, [1 x i64] }
%"core::option::Option<alloc::boxed::Box<dyn core::ops::function::FnMut(f64, f64, f64, f64) -> bool>>" = type { ptr, [1 x i64] }
%"core::option::Option<alloc::boxed::Box<dyn core::ops::function::FnMut(*mut core::ffi::c_void) -> core::result::Result<(), curl::error::Error>>>" = type { ptr, [1 x i64] }
%"alloc::string::String" = type { %"alloc::vec::Vec<u8>" }
%"alloc::vec::Vec<u8>" = type { %"alloc::raw_vec::RawVec<u8>", i64 }
%"alloc::raw_vec::RawVec<u8>" = type { i64, ptr, %"alloc::alloc::Global" }
%"alloc::alloc::Global" = type {}
%"core::ptr::non_null::NonNull<[u8]>" = type { { ptr, i64 } }
%"core::result::Result<core::ptr::non_null::NonNull<[u8]>, core::alloc::AllocError>" = type { ptr, [1 x i64] }
%"core::alloc::layout::Layout" = type { i64, i64 }
%"core::alloc::AllocError" = type {}
%"core::result::Result<core::convert::Infallible, core::alloc::AllocError>::Err" = type { %"core::alloc::AllocError" }
%"core::result::Result<alloc::string::String, alloc::string::FromUtf8Error>" = type { i64, [4 x i64] }
%"alloc::string::FromUtf8Error" = type { %"alloc::vec::Vec<u8>", %"core::str::error::Utf8Error" }
%"core::str::error::Utf8Error" = type { i64, %"core::option::Option<u8>", [6 x i8] }
%"core::option::Option<u8>" = type { i8, [1 x i8] }
%"core::result::Result<&str, core::str::error::Utf8Error>" = type { i64, [2 x i64] }
%"core::result::Result<alloc::string::String, alloc::string::FromUtf8Error>::Ok" = type { [1 x i64], %"alloc::string::String" }
%"core::result::Result<&str, core::str::error::Utf8Error>::Err" = type { [1 x i64], %"core::str::error::Utf8Error" }
%"curl::error::Error" = type { %"core::option::Option<alloc::boxed::Box<str>>", i32, [1 x i32] }
%"core::option::Option<alloc::boxed::Box<str>>" = type { ptr, [1 x i64] }
%"curl::easy::handle::Transfer<'_, '_>" = type { ptr, ptr }
%"core::result::Result<(), curl::error::Error>::Err" = type { [1 x i64], %"curl::error::Error" }
%"core::result::Result<usize, curl::easy::handler::ReadError>::Ok" = type { [1 x i64], i64 }
%"core::result::Result<usize, curl::easy::handler::WriteError>" = type { i64, [1 x i64] }
%"core::fmt::rt::Argument<'_>" = type { ptr, ptr }

@alloc_7bc1dbf51a9579e17b25af269e049abc = private unnamed_addr constant <{ [75 x i8] }> <{ [75 x i8] c"/rustc/aedd173a2c086e558c2b66d3743b344f977621a7/library/std/src/io/impls.rs" }>, align 1
@alloc_f7a53e93a34b326801b35ec54ed276b2 = private unnamed_addr constant <{ ptr, [16 x i8] }> <{ ptr @alloc_7bc1dbf51a9579e17b25af269e049abc, [16 x i8] c"K\00\00\00\00\00\00\00\ED\00\00\00\1B\00\00\00" }>, align 8
@alloc_fb9ee3e61d1ac5ec1543376ccb51a209 = private unnamed_addr constant <{ ptr, [16 x i8] }> <{ ptr @alloc_7bc1dbf51a9579e17b25af269e049abc, [16 x i8] c"K\00\00\00\00\00\00\00\F3\00\00\00\16\00\00\00" }>, align 8
@alloc_d828e77f732994fc491dd3141c066445 = private unnamed_addr constant <{ ptr, [16 x i8] }> <{ ptr @alloc_7bc1dbf51a9579e17b25af269e049abc, [16 x i8] c"K\00\00\00\00\00\00\00\F3\00\00\00\0D\00\00\00" }>, align 8
@alloc_05aa3a651f2d86d9d57ea1522ae6e97c = private unnamed_addr constant <{ ptr, [16 x i8] }> <{ ptr @alloc_7bc1dbf51a9579e17b25af269e049abc, [16 x i8] c"K\00\00\00\00\00\00\00\F5\00\00\00\10\00\00\00" }>, align 8
@alloc_0d741e49f58cdfe68de09a797c3c98bd = private unnamed_addr constant <{ ptr, [16 x i8] }> <{ ptr @alloc_7bc1dbf51a9579e17b25af269e049abc, [16 x i8] c"K\00\00\00\00\00\00\00\F5\00\00\00\18\00\00\00" }>, align 8
@vtable.0 = private constant <{ ptr, [16 x i8], ptr, ptr, ptr }> <{ ptr @"_ZN4core3ptr85drop_in_place$LT$std..rt..lang_start$LT$$LP$$RP$$GT$..$u7b$$u7b$closure$u7d$$u7d$$GT$17he7adcf40094571c3E", [16 x i8] c"\08\00\00\00\00\00\00\00\08\00\00\00\00\00\00\00", ptr @"_ZN4core3ops8function6FnOnce40call_once$u7b$$u7b$vtable.shim$u7d$$u7d$17h008bafb720fa27e0E", ptr @"_ZN3std2rt10lang_start28_$u7b$$u7b$closure$u7d$$u7d$17hb1acdfcf9cab6dd5E", ptr @"_ZN3std2rt10lang_start28_$u7b$$u7b$closure$u7d$$u7d$17hb1acdfcf9cab6dd5E" }>, align 8, !dbg !0
@vtable.1 = private constant <{ ptr, [16 x i8], ptr }> <{ ptr @"_ZN4core3ptr27drop_in_place$LT$$RF$u8$GT$17hba1c2eb3f84fdd06E", [16 x i8] c"\08\00\00\00\00\00\00\00\08\00\00\00\00\00\00\00", ptr @"_ZN42_$LT$$RF$T$u20$as$u20$core..fmt..Debug$GT$3fmt17hc263d2b261a33dbbE" }>, align 8, !dbg !24
@0 = private unnamed_addr constant <{ [8 x i8], [8 x i8] }> <{ [8 x i8] zeroinitializer, [8 x i8] undef }>, align 8
@alloc_91c7fa63c3cfeaa3c795652d5cf060e4 = private unnamed_addr constant <{ [12 x i8] }> <{ [12 x i8] c"invalid args" }>, align 1
@alloc_af99043bc04c419363a7f04d23183506 = private unnamed_addr constant <{ ptr, [8 x i8] }> <{ ptr @alloc_91c7fa63c3cfeaa3c795652d5cf060e4, [8 x i8] c"\0C\00\00\00\00\00\00\00" }>, align 8
@alloc_513570631223a12912d85da2bec3b15a = private unnamed_addr constant <{}> zeroinitializer, align 8
@alloc_6de2818331109612dbb09d5e2073dc73 = private unnamed_addr constant <{ [75 x i8] }> <{ [75 x i8] c"/rustc/aedd173a2c086e558c2b66d3743b344f977621a7/library/core/src/fmt/mod.rs" }>, align 1
@alloc_b96933a8148f906cfb135db9ebeba42b = private unnamed_addr constant <{ ptr, [16 x i8] }> <{ ptr @alloc_6de2818331109612dbb09d5e2073dc73, [16 x i8] c"K\00\00\00\00\00\00\00M\01\00\00\0D\00\00\00" }>, align 8
@alloc_b1c9b46fd6543b9e0f93a51d745efa2a = private unnamed_addr constant <{ ptr, [16 x i8] }> <{ ptr @alloc_6de2818331109612dbb09d5e2073dc73, [16 x i8] c"K\00\00\00\00\00\00\00C\01\00\00\0D\00\00\00" }>, align 8
@alloc_d1084648e479974e70c9329824bf76f9 = private unnamed_addr constant <{ [9 x i8] }> <{ [9 x i8] c"mid > len" }>, align 1
@alloc_2b3e40161faa82f936e1f97ea2aea002 = private unnamed_addr constant <{ ptr, [8 x i8] }> <{ ptr @alloc_d1084648e479974e70c9329824bf76f9, [8 x i8] c"\09\00\00\00\00\00\00\00" }>, align 8
@alloc_00ae4b301f7fab8ac9617c03fcbd7274 = private unnamed_addr constant <{ [43 x i8] }> <{ [43 x i8] c"called `Result::unwrap()` on an `Err` value" }>, align 1
@vtable.2 = private constant <{ ptr, [16 x i8], ptr }> <{ ptr @"_ZN4core3ptr49drop_in_place$LT$alloc..string..FromUtf8Error$GT$17hd21bf16a4fbdb359E", [16 x i8] c"(\00\00\00\00\00\00\00\08\00\00\00\00\00\00\00", ptr @"_ZN65_$LT$alloc..string..FromUtf8Error$u20$as$u20$core..fmt..Debug$GT$3fmt17h0d5276227c6f6ee2E" }>, align 8, !dbg !34
@vtable.3 = private constant <{ ptr, [16 x i8], ptr }> <{ ptr @"_ZN4core3ptr39drop_in_place$LT$curl..error..Error$GT$17h597f09d3660fb20eE", [16 x i8] c"\18\00\00\00\00\00\00\00\08\00\00\00\00\00\00\00", ptr @"_ZN55_$LT$curl..error..Error$u20$as$u20$core..fmt..Debug$GT$3fmt17hd77bd782d1904c55E" }>, align 8, !dbg !100
@vtable.4 = private constant <{ ptr, [16 x i8], ptr, ptr }> <{ ptr @"_ZN4core3ptr68drop_in_place$LT$function..make_rpc..$u7b$$u7b$closure$u7d$$u7d$$GT$17hc9b979d9c3b14a6cE", [16 x i8] c"\08\00\00\00\00\00\00\00\08\00\00\00\00\00\00\00", ptr @"_ZN4core3ops8function6FnOnce40call_once$u7b$$u7b$vtable.shim$u7d$$u7d$17hf80dec0d86bddc7aE", ptr @"_ZN8function8make_rpc28_$u7b$$u7b$closure$u7d$$u7d$17h863144bdbd454280E" }>, align 8, !dbg !134
@alloc_6f598b05420eb7c9596d5b98a7bba24f = private unnamed_addr constant <{ [98 x i8] }> <{ [98 x i8] c"/users/zyuxuan/.cargo/registry/src/index.crates.io-6f17d22bba15001f/curl-0.4.46/src/easy/handle.rs" }>, align 1
@alloc_c8d54b66c5404bccc7cd9c414b3529f0 = private unnamed_addr constant <{ ptr, [16 x i8] }> <{ ptr @alloc_6f598b05420eb7c9596d5b98a7bba24f, [16 x i8] c"b\00\00\00\00\00\00\00=\06\00\00\09\00\00\00" }>, align 8
@vtable.5 = private constant <{ ptr, [16 x i8], ptr, ptr }> <{ ptr @"_ZN4core3ptr68drop_in_place$LT$function..make_rpc..$u7b$$u7b$closure$u7d$$u7d$$GT$17hb5d3a3ab92f1ec59E", [16 x i8] c"\08\00\00\00\00\00\00\00\08\00\00\00\00\00\00\00", ptr @"_ZN4core3ops8function6FnOnce40call_once$u7b$$u7b$vtable.shim$u7d$$u7d$17hd1e1ce84c0a8d779E", ptr @"_ZN8function8make_rpc28_$u7b$$u7b$closure$u7d$$u7d$17h5a47607b7b4311baE" }>, align 8, !dbg !153
@alloc_16c983473bd57c642bcfa584e58e5107 = private unnamed_addr constant <{ ptr, [16 x i8] }> <{ ptr @alloc_6f598b05420eb7c9596d5b98a7bba24f, [16 x i8] c"b\00\00\00\00\00\00\003\06\00\00\09\00\00\00" }>, align 8
@__rust_no_alloc_shim_is_unstable = external global i8
@alloc_8e685ef482aec04a2d7a8ed5ef1228a3 = private unnamed_addr constant <{ [9 x i8] }> <{ [9 x i8] c"Utf8Error" }>, align 1
@alloc_f34017a1538f19bf68b6d6294eec0bb3 = private unnamed_addr constant <{ [11 x i8] }> <{ [11 x i8] c"valid_up_to" }>, align 1
@vtable.6 = private constant <{ ptr, [16 x i8], ptr }> <{ ptr @"_ZN4core3ptr26drop_in_place$LT$usize$GT$17h5f0d0347f7f93162E", [16 x i8] c"\08\00\00\00\00\00\00\00\08\00\00\00\00\00\00\00", ptr @"_ZN4core3fmt3num52_$LT$impl$u20$core..fmt..Debug$u20$for$u20$usize$GT$3fmt17h73ab642b6bf45271E" }>, align 8, !dbg !169
@alloc_91eca80c47235190e5fbed3d6d8be36c = private unnamed_addr constant <{ [9 x i8] }> <{ [9 x i8] c"error_len" }>, align 1
@vtable.7 = private constant <{ ptr, [16 x i8], ptr }> <{ ptr @"_ZN4core3ptr55drop_in_place$LT$$RF$core..option..Option$LT$u8$GT$$GT$17h5f5dc52e937ee7c1E", [16 x i8] c"\08\00\00\00\00\00\00\00\08\00\00\00\00\00\00\00", ptr @"_ZN42_$LT$$RF$T$u20$as$u20$core..fmt..Debug$GT$3fmt17h403819fc4a983a8eE" }>, align 8, !dbg !177
@alloc_b44d52c0728a956e7d16327f52693b58 = private unnamed_addr constant <{ [13 x i8] }> <{ [13 x i8] c"FromUtf8Error" }>, align 1
@alloc_dd4ffb6a82fadbcfa53fa009063078f4 = private unnamed_addr constant <{ [5 x i8] }> <{ [5 x i8] c"bytes" }>, align 1
@vtable.8 = private constant <{ ptr, [16 x i8], ptr }> <{ ptr @"_ZN4core3ptr46drop_in_place$LT$alloc..vec..Vec$LT$u8$GT$$GT$17h7cd5af2bd54d4f8eE", [16 x i8] c"\18\00\00\00\00\00\00\00\08\00\00\00\00\00\00\00", ptr @"_ZN65_$LT$alloc..vec..Vec$LT$T$C$A$GT$$u20$as$u20$core..fmt..Debug$GT$3fmt17h6729ef2490d54670E" }>, align 8, !dbg !186
@alloc_3f7b77ecc8a3c421d9a84c3c3ee05b1c = private unnamed_addr constant <{ [5 x i8] }> <{ [5 x i8] c"error" }>, align 1
@vtable.9 = private constant <{ ptr, [16 x i8], ptr }> <{ ptr @"_ZN4core3ptr52drop_in_place$LT$$RF$core..str..error..Utf8Error$GT$17h67ae1bd9c403ed6eE", [16 x i8] c"\08\00\00\00\00\00\00\00\08\00\00\00\00\00\00\00", ptr @"_ZN42_$LT$$RF$T$u20$as$u20$core..fmt..Debug$GT$3fmt17h9febf898cc93d89aE" }>, align 8, !dbg !194
@alloc_437a374ac02e27f22c5c45bc3d1c6b36 = private unnamed_addr constant <{ [57 x i8] }> <{ [57 x i8] c"http://gateway.openfaas.svc.cluster.local.:8080/function/" }>, align 1
@alloc_3ba7eeeabd3d9c4a56f56d0cfe62277d = private unnamed_addr constant <{ [11 x i8] }> <{ [11 x i8] c"src/main.rs" }>, align 1
@alloc_96771df3bbd84dce7ec2f85b9ff9b292 = private unnamed_addr constant <{ ptr, [16 x i8] }> <{ ptr @alloc_3ba7eeeabd3d9c4a56f56d0cfe62277d, [16 x i8] c"\0B\00\00\00\00\00\00\00\0A\00\00\00\12\00\00\00" }>, align 8
@alloc_dad947a9164f01efca171c5bac1a1306 = private unnamed_addr constant <{ ptr, [16 x i8] }> <{ ptr @alloc_3ba7eeeabd3d9c4a56f56d0cfe62277d, [16 x i8] c"\0B\00\00\00\00\00\00\00\0B\00\00\00\13\00\00\00" }>, align 8
@alloc_899f5dfa867cc08f0a95a93e5f2845aa = private unnamed_addr constant <{ ptr, [16 x i8] }> <{ ptr @alloc_3ba7eeeabd3d9c4a56f56d0cfe62277d, [16 x i8] c"\0B\00\00\00\00\00\00\00\0C\00\00\007\00\00\00" }>, align 8
@alloc_4a8509a3c6947b701e2a6cc64723f0ca = private unnamed_addr constant <{ ptr, [16 x i8] }> <{ ptr @alloc_3ba7eeeabd3d9c4a56f56d0cfe62277d, [16 x i8] c"\0B\00\00\00\00\00\00\00\13\00\00\00\08\00\00\00" }>, align 8
@alloc_b096f38da042439788738cf6c4a277cd = private unnamed_addr constant <{ ptr, [16 x i8] }> <{ ptr @alloc_3ba7eeeabd3d9c4a56f56d0cfe62277d, [16 x i8] c"\0B\00\00\00\00\00\00\00\18\00\00\00\08\00\00\00" }>, align 8
@alloc_389535b89d2cb068fbaf524b753cbb0c = private unnamed_addr constant <{ ptr, [16 x i8] }> <{ ptr @alloc_3ba7eeeabd3d9c4a56f56d0cfe62277d, [16 x i8] c"\0B\00\00\00\00\00\00\00\1A\00\00\00\18\00\00\00" }>, align 8
@alloc_4201e686d318546e103a27924476cf21 = private unnamed_addr constant <{ ptr, [16 x i8] }> <{ ptr @alloc_3ba7eeeabd3d9c4a56f56d0cfe62277d, [16 x i8] c"\0B\00\00\00\00\00\00\00\16\00\00\006\00\00\00" }>, align 8
@alloc_49a1e817e911805af64bbc7efb390101 = private unnamed_addr constant <{ [1 x i8] }> <{ [1 x i8] c"\0A" }>, align 1
@alloc_3cf8a28b1a0b9f6efeedeb779c4e30d8 = private unnamed_addr constant <{ ptr, [8 x i8], ptr, [8 x i8] }> <{ ptr @alloc_513570631223a12912d85da2bec3b15a, [8 x i8] zeroinitializer, ptr @alloc_49a1e817e911805af64bbc7efb390101, [8 x i8] c"\01\00\00\00\00\00\00\00" }>, align 8
@alloc_cdb78bd1888bb658cb17aeb3ca449c00 = private unnamed_addr constant <{ [18 x i8] }> <{ [18 x i8] c"From Rust Caller: " }>, align 1
@alloc_4960c6e0cf11257e795dec02e75bf85c = private unnamed_addr constant <{ [8 x i8] }> <{ [8 x i8] c"callee-c" }>, align 1
@__rustc_debug_gdb_scripts_section__ = linkonce_odr unnamed_addr constant [34 x i8] c"\01gdb_load_rust_pretty_printers.py\00", section ".debug_gdb_scripts", align 1

; std::sys_common::backtrace::__rust_begin_short_backtrace
; Function Attrs: noinline nonlazybind uwtable
define internal void @_ZN3std10sys_common9backtrace28__rust_begin_short_backtrace17hc2abbc2b7062a82dE(ptr %f) unnamed_addr #0 !dbg !339 {
start:
  %f.dbg.spill = alloca ptr, align 8
  %result.dbg.spill = alloca {}, align 1
  %dummy.dbg.spill = alloca {}, align 1
  call void @llvm.dbg.declare(metadata ptr %dummy.dbg.spill, metadata !352, metadata !DIExpression()), !dbg !361
  call void @llvm.dbg.declare(metadata ptr %result.dbg.spill, metadata !347, metadata !DIExpression()), !dbg !363
  store ptr %f, ptr %f.dbg.spill, align 8, !dbg !361
  call void @llvm.dbg.declare(metadata ptr %f.dbg.spill, metadata !346, metadata !DIExpression()), !dbg !364
; call core::ops::function::FnOnce::call_once
  call void @_ZN4core3ops8function6FnOnce9call_once17hce802eb4818e6b0aE(ptr %f), !dbg !365
  call void asm sideeffect "", "~{memory}"(), !dbg !366, !srcloc !367
  ret void, !dbg !368
}

; std::io::impls::<impl std::io::Read for &[u8]>::read
; Function Attrs: inlinehint nonlazybind uwtable
define internal void @"_ZN3std2io5impls60_$LT$impl$u20$std..io..Read$u20$for$u20$$RF$$u5b$u8$u5d$$GT$4read17hdd5bf2c56daa084cE"(ptr sret(%"core::result::Result<usize, std::io::error::Error>") align 8 %_0, ptr align 8 %self, ptr align 1 %buf.0, i64 %buf.1) unnamed_addr #1 !dbg !369 {
start:
  %b.dbg.spill = alloca { ptr, i64 }, align 8
  %a.dbg.spill = alloca { ptr, i64 }, align 8
  %amt.dbg.spill = alloca i64, align 8
  %v2.dbg.spill = alloca i64, align 8
  %v1.dbg.spill = alloca i64, align 8
  %buf.dbg.spill = alloca { ptr, i64 }, align 8
  %self.dbg.spill = alloca ptr, align 8
  %_18 = alloca %"core::ops::range::Range<usize>", align 8
  %_8 = alloca { { ptr, i64 }, { ptr, i64 } }, align 8
  store ptr %self, ptr %self.dbg.spill, align 8
  call void @llvm.dbg.declare(metadata ptr %self.dbg.spill, metadata !459, metadata !DIExpression()), !dbg !466
  store ptr %buf.0, ptr %buf.dbg.spill, align 8
  %0 = getelementptr inbounds i8, ptr %buf.dbg.spill, i64 8
  store i64 %buf.1, ptr %0, align 8
  call void @llvm.dbg.declare(metadata ptr %buf.dbg.spill, metadata !460, metadata !DIExpression()), !dbg !467
  call void @llvm.dbg.declare(metadata ptr %buf.dbg.spill, metadata !468, metadata !DIExpression()), !dbg !496
  call void @llvm.dbg.declare(metadata ptr %buf.dbg.spill, metadata !498, metadata !DIExpression()), !dbg !506
  store i64 %buf.1, ptr %v1.dbg.spill, align 8, !dbg !508
  call void @llvm.dbg.declare(metadata ptr %v1.dbg.spill, metadata !509, metadata !DIExpression()), !dbg !519
  call void @llvm.dbg.declare(metadata ptr %v1.dbg.spill, metadata !521, metadata !DIExpression()), !dbg !529
  %_16.0 = load ptr, ptr %self, align 8, !dbg !531, !nonnull !23, !align !532, !noundef !23
  %1 = getelementptr inbounds i8, ptr %self, i64 8, !dbg !531
  %_16.1 = load i64, ptr %1, align 8, !dbg !531, !noundef !23
  store i64 %_16.1, ptr %v2.dbg.spill, align 8, !dbg !531
  call void @llvm.dbg.declare(metadata ptr %v2.dbg.spill, metadata !517, metadata !DIExpression()), !dbg !533
  call void @llvm.dbg.declare(metadata ptr %v2.dbg.spill, metadata !526, metadata !DIExpression()), !dbg !534
; call core::cmp::min_by
  %amt = call i64 @_ZN4core3cmp6min_by17h74f511c3cf96be1eE(i64 %buf.1, i64 %_16.1), !dbg !535
  store i64 %amt, ptr %amt.dbg.spill, align 8, !dbg !535
  call void @llvm.dbg.declare(metadata ptr %amt.dbg.spill, metadata !461, metadata !DIExpression()), !dbg !536
  call void @llvm.dbg.declare(metadata ptr %amt.dbg.spill, metadata !493, metadata !DIExpression()), !dbg !537
  call void @llvm.dbg.declare(metadata ptr %amt.dbg.spill, metadata !505, metadata !DIExpression()), !dbg !538
  %_17.0 = load ptr, ptr %self, align 8, !dbg !539, !nonnull !23, !align !532, !noundef !23
  %2 = getelementptr inbounds i8, ptr %self, i64 8, !dbg !539
  %_17.1 = load i64, ptr %2, align 8, !dbg !539, !noundef !23
; call core::slice::<impl [T]>::split_at
  call void @"_ZN4core5slice29_$LT$impl$u20$$u5b$T$u5d$$GT$8split_at17h30e0d66c208b0e61E"(ptr sret({ { ptr, i64 }, { ptr, i64 } }) align 8 %_8, ptr align 1 %_17.0, i64 %_17.1, i64 %amt, ptr align 8 @alloc_f7a53e93a34b326801b35ec54ed276b2), !dbg !539
  %a.0 = load ptr, ptr %_8, align 8, !dbg !540, !nonnull !23, !align !532, !noundef !23
  %3 = getelementptr inbounds i8, ptr %_8, i64 8, !dbg !540
  %a.1 = load i64, ptr %3, align 8, !dbg !540, !noundef !23
  store ptr %a.0, ptr %a.dbg.spill, align 8, !dbg !540
  %4 = getelementptr inbounds i8, ptr %a.dbg.spill, i64 8, !dbg !540
  store i64 %a.1, ptr %4, align 8, !dbg !540
  call void @llvm.dbg.declare(metadata ptr %a.dbg.spill, metadata !463, metadata !DIExpression()), !dbg !541
  %5 = getelementptr inbounds { { ptr, i64 }, { ptr, i64 } }, ptr %_8, i32 0, i32 1, !dbg !542
  %b.0 = load ptr, ptr %5, align 8, !dbg !542, !nonnull !23, !align !532, !noundef !23
  %6 = getelementptr inbounds i8, ptr %5, i64 8, !dbg !542
  %b.1 = load i64, ptr %6, align 8, !dbg !542, !noundef !23
  store ptr %b.0, ptr %b.dbg.spill, align 8, !dbg !542
  %7 = getelementptr inbounds i8, ptr %b.dbg.spill, i64 8, !dbg !542
  store i64 %b.1, ptr %7, align 8, !dbg !542
  call void @llvm.dbg.declare(metadata ptr %b.dbg.spill, metadata !465, metadata !DIExpression()), !dbg !543
  %8 = icmp eq i64 %amt, 1, !dbg !544
  br i1 %8, label %bb2, label %bb5, !dbg !544

bb2:                                              ; preds = %start
  %_11 = icmp ult i64 0, %a.1, !dbg !545
  %9 = call i1 @llvm.expect.i1(i1 %_11, i1 true), !dbg !545
  br i1 %9, label %bb3, label %panic, !dbg !545

bb5:                                              ; preds = %start
  store i64 0, ptr %_18, align 8, !dbg !546
  %10 = getelementptr inbounds i8, ptr %_18, i64 8, !dbg !546
  store i64 %amt, ptr %10, align 8, !dbg !546
  %11 = load i64, ptr %_18, align 8, !dbg !546, !noundef !23
  %12 = getelementptr inbounds i8, ptr %_18, i64 8, !dbg !546
  %13 = load i64, ptr %12, align 8, !dbg !546, !noundef !23
; call <core::ops::range::Range<usize> as core::slice::index::SliceIndex<[T]>>::index_mut
  %14 = call { ptr, i64 } @"_ZN106_$LT$core..ops..range..Range$LT$usize$GT$$u20$as$u20$core..slice..index..SliceIndex$LT$$u5b$T$u5d$$GT$$GT$9index_mut17h0da8120cc3a3b70eE"(i64 %11, i64 %13, ptr align 1 %buf.0, i64 %buf.1, ptr align 8 @alloc_05aa3a651f2d86d9d57ea1522ae6e97c), !dbg !546
  %_15.0 = extractvalue { ptr, i64 } %14, 0, !dbg !546
  %_15.1 = extractvalue { ptr, i64 } %14, 1, !dbg !546
; call core::slice::<impl [T]>::copy_from_slice
  call void @"_ZN4core5slice29_$LT$impl$u20$$u5b$T$u5d$$GT$15copy_from_slice17h6723ed7a3e1dfa3fE"(ptr align 1 %_15.0, i64 %_15.1, ptr align 1 %a.0, i64 %a.1, ptr align 8 @alloc_0d741e49f58cdfe68de09a797c3c98bd), !dbg !547
  br label %bb6, !dbg !547

bb3:                                              ; preds = %bb2
  %15 = getelementptr inbounds [0 x i8], ptr %a.0, i64 0, i64 0, !dbg !545
  %_9 = load i8, ptr %15, align 1, !dbg !545, !noundef !23
  %_13 = icmp ult i64 0, %buf.1, !dbg !548
  %16 = call i1 @llvm.expect.i1(i1 %_13, i1 true), !dbg !548
  br i1 %16, label %bb4, label %panic1, !dbg !548

panic:                                            ; preds = %bb2
; call core::panicking::panic_bounds_check
  call void @_ZN4core9panicking18panic_bounds_check17hf45ce6debf926a45E(i64 0, i64 %a.1, ptr align 8 @alloc_fb9ee3e61d1ac5ec1543376ccb51a209) #13, !dbg !545
  unreachable, !dbg !545

bb4:                                              ; preds = %bb3
  %17 = getelementptr inbounds [0 x i8], ptr %buf.0, i64 0, i64 0, !dbg !548
  store i8 %_9, ptr %17, align 1, !dbg !548
  br label %bb6, !dbg !549

panic1:                                           ; preds = %bb3
; call core::panicking::panic_bounds_check
  call void @_ZN4core9panicking18panic_bounds_check17hf45ce6debf926a45E(i64 0, i64 %buf.1, ptr align 8 @alloc_d828e77f732994fc491dd3141c066445) #13, !dbg !548
  unreachable, !dbg !548

bb6:                                              ; preds = %bb5, %bb4
  store ptr %b.0, ptr %self, align 8, !dbg !550
  %18 = getelementptr inbounds i8, ptr %self, i64 8, !dbg !550
  store i64 %b.1, ptr %18, align 8, !dbg !550
  %19 = getelementptr inbounds %"core::result::Result<usize, std::io::error::Error>::Ok", ptr %_0, i32 0, i32 1, !dbg !551
  store i64 %amt, ptr %19, align 8, !dbg !551
  store i64 0, ptr %_0, align 8, !dbg !551
  ret void, !dbg !552
}

; std::rt::lang_start
; Function Attrs: nonlazybind uwtable
define hidden i64 @_ZN3std2rt10lang_start17h9dbee000ca5548a0E(ptr %main, i64 %argc, ptr %argv, i8 %sigpipe) unnamed_addr #2 !dbg !553 {
start:
  %v.dbg.spill = alloca i64, align 8
  %sigpipe.dbg.spill = alloca i8, align 1
  %argv.dbg.spill = alloca ptr, align 8
  %argc.dbg.spill = alloca i64, align 8
  %main.dbg.spill = alloca ptr, align 8
  %_8 = alloca ptr, align 8
  %_5 = alloca i64, align 8
  store ptr %main, ptr %main.dbg.spill, align 8
  call void @llvm.dbg.declare(metadata ptr %main.dbg.spill, metadata !560, metadata !DIExpression()), !dbg !566
  store i64 %argc, ptr %argc.dbg.spill, align 8
  call void @llvm.dbg.declare(metadata ptr %argc.dbg.spill, metadata !561, metadata !DIExpression()), !dbg !567
  store ptr %argv, ptr %argv.dbg.spill, align 8
  call void @llvm.dbg.declare(metadata ptr %argv.dbg.spill, metadata !562, metadata !DIExpression()), !dbg !568
  store i8 %sigpipe, ptr %sigpipe.dbg.spill, align 1
  call void @llvm.dbg.declare(metadata ptr %sigpipe.dbg.spill, metadata !563, metadata !DIExpression()), !dbg !569
  store ptr %main, ptr %_8, align 8, !dbg !570
; call std::rt::lang_start_internal
  %0 = call i64 @_ZN3std2rt19lang_start_internal17hc3f700406209db2cE(ptr align 1 %_8, ptr align 8 @vtable.0, i64 %argc, ptr %argv, i8 %sigpipe), !dbg !571
  store i64 %0, ptr %_5, align 8, !dbg !571
  %v = load i64, ptr %_5, align 8, !dbg !572, !noundef !23
  store i64 %v, ptr %v.dbg.spill, align 8, !dbg !572
  call void @llvm.dbg.declare(metadata ptr %v.dbg.spill, metadata !564, metadata !DIExpression()), !dbg !573
  ret i64 %v, !dbg !574
}

; std::rt::lang_start::{{closure}}
; Function Attrs: inlinehint nonlazybind uwtable
define internal i32 @"_ZN3std2rt10lang_start28_$u7b$$u7b$closure$u7d$$u7d$17hb1acdfcf9cab6dd5E"(ptr align 8 %_1) unnamed_addr #1 !dbg !575 {
start:
  %self.dbg.spill = alloca ptr, align 8
  %_1.dbg.spill = alloca ptr, align 8
  %self = alloca i8, align 1
  store ptr %_1, ptr %_1.dbg.spill, align 8
  call void @llvm.dbg.declare(metadata ptr %_1.dbg.spill, metadata !580, metadata !DIExpression(DW_OP_deref)), !dbg !581
  call void @llvm.dbg.declare(metadata ptr %self, metadata !582, metadata !DIExpression()), !dbg !602
  %_4 = load ptr, ptr %_1, align 8, !dbg !604, !nonnull !23, !noundef !23
; call std::sys_common::backtrace::__rust_begin_short_backtrace
  call void @_ZN3std10sys_common9backtrace28__rust_begin_short_backtrace17hc2abbc2b7062a82dE(ptr %_4), !dbg !605
; call <() as std::process::Termination>::report
  %0 = call i8 @"_ZN54_$LT$$LP$$RP$$u20$as$u20$std..process..Termination$GT$6report17h369ca347eafe42b0E"(), !dbg !605
  store i8 %0, ptr %self, align 1, !dbg !605
  store ptr %self, ptr %self.dbg.spill, align 8, !dbg !606
  call void @llvm.dbg.declare(metadata ptr %self.dbg.spill, metadata !607, metadata !DIExpression()), !dbg !616
  %_6 = load i8, ptr %self, align 1, !dbg !618, !noundef !23
  %_0 = zext i8 %_6 to i32, !dbg !618
  ret i32 %_0, !dbg !619
}

; <&T as core::fmt::Debug>::fmt
; Function Attrs: nonlazybind uwtable
define internal zeroext i1 @"_ZN42_$LT$$RF$T$u20$as$u20$core..fmt..Debug$GT$3fmt17h9febf898cc93d89aE"(ptr align 8 %self, ptr align 8 %f) unnamed_addr #2 !dbg !620 {
start:
  %f.dbg.spill = alloca ptr, align 8
  %self.dbg.spill = alloca ptr, align 8
  store ptr %self, ptr %self.dbg.spill, align 8
  call void @llvm.dbg.declare(metadata ptr %self.dbg.spill, metadata !670, metadata !DIExpression()), !dbg !674
  store ptr %f, ptr %f.dbg.spill, align 8
  call void @llvm.dbg.declare(metadata ptr %f.dbg.spill, metadata !671, metadata !DIExpression()), !dbg !675
  %_3 = load ptr, ptr %self, align 8, !dbg !676, !nonnull !23, !align !677, !noundef !23
; call <core::str::error::Utf8Error as core::fmt::Debug>::fmt
  %_0 = call zeroext i1 @"_ZN64_$LT$core..str..error..Utf8Error$u20$as$u20$core..fmt..Debug$GT$3fmt17h65841dffd5f3a589E"(ptr align 8 %_3, ptr align 8 %f), !dbg !678
  ret i1 %_0, !dbg !679
}

; <[T] as core::fmt::Debug>::fmt
; Function Attrs: nonlazybind uwtable
define internal zeroext i1 @"_ZN48_$LT$$u5b$T$u5d$$u20$as$u20$core..fmt..Debug$GT$3fmt17h56cf23593e15b208E"(ptr align 1 %self.0, i64 %self.1, ptr align 8 %f) unnamed_addr #2 !dbg !680 {
start:
  %ptr.dbg.spill1 = alloca ptr, align 8
  %addr.dbg.spill = alloca i64, align 8
  %count.dbg.spill = alloca i64, align 8
  %ptr.dbg.spill = alloca ptr, align 8
  %f.dbg.spill = alloca ptr, align 8
  %self.dbg.spill = alloca { ptr, i64 }, align 8
  %_12 = alloca ptr, align 8
  %end_or_len = alloca ptr, align 8
  %_6 = alloca %"core::slice::iter::Iter<'_, u8>", align 8
  %_5 = alloca %"core::fmt::builders::DebugList<'_, '_>", align 8
  store ptr %self.0, ptr %self.dbg.spill, align 8
  %0 = getelementptr inbounds i8, ptr %self.dbg.spill, i64 8
  store i64 %self.1, ptr %0, align 8
  call void @llvm.dbg.declare(metadata ptr %self.dbg.spill, metadata !685, metadata !DIExpression()), !dbg !687
  call void @llvm.dbg.declare(metadata ptr %self.dbg.spill, metadata !688, metadata !DIExpression()), !dbg !705
  call void @llvm.dbg.declare(metadata ptr %self.dbg.spill, metadata !707, metadata !DIExpression()), !dbg !717
  call void @llvm.dbg.declare(metadata ptr %self.dbg.spill, metadata !719, metadata !DIExpression()), !dbg !725
  store ptr %f, ptr %f.dbg.spill, align 8
  call void @llvm.dbg.declare(metadata ptr %f.dbg.spill, metadata !686, metadata !DIExpression()), !dbg !727
  call void @llvm.dbg.declare(metadata ptr %end_or_len, metadata !715, metadata !DIExpression()), !dbg !728
; call core::fmt::Formatter::debug_list
  call void @_ZN4core3fmt9Formatter10debug_list17h876a1c15cedf3397E(ptr sret(%"core::fmt::builders::DebugList<'_, '_>") align 8 %_5, ptr align 8 %f), !dbg !729
  store ptr %self.0, ptr %ptr.dbg.spill, align 8, !dbg !730
  call void @llvm.dbg.declare(metadata ptr %ptr.dbg.spill, metadata !713, metadata !DIExpression()), !dbg !731
  call void @llvm.dbg.declare(metadata ptr %ptr.dbg.spill, metadata !732, metadata !DIExpression()), !dbg !742
  br i1 false, label %bb4, label %bb5, !dbg !744

bb5:                                              ; preds = %start
  store i64 %self.1, ptr %count.dbg.spill, align 8, !dbg !745
  call void @llvm.dbg.declare(metadata ptr %count.dbg.spill, metadata !741, metadata !DIExpression()), !dbg !746
  %1 = getelementptr inbounds i8, ptr %self.0, i64 %self.1, !dbg !747
  store ptr %1, ptr %end_or_len, align 8, !dbg !747
  br label %bb6, !dbg !748

bb4:                                              ; preds = %start
  store i64 %self.1, ptr %addr.dbg.spill, align 8, !dbg !749
  call void @llvm.dbg.declare(metadata ptr %addr.dbg.spill, metadata !750, metadata !DIExpression()), !dbg !757
  %2 = inttoptr i64 %self.1 to ptr, !dbg !759
  store ptr %2, ptr %end_or_len, align 8, !dbg !759
  br label %bb6, !dbg !748

bb6:                                              ; preds = %bb4, %bb5
  store ptr %self.0, ptr %ptr.dbg.spill1, align 8, !dbg !760
  call void @llvm.dbg.declare(metadata ptr %ptr.dbg.spill1, metadata !761, metadata !DIExpression()), !dbg !770
  store ptr %self.0, ptr %_12, align 8, !dbg !772
  %_14 = load ptr, ptr %end_or_len, align 8, !dbg !773, !noundef !23
  %3 = load ptr, ptr %_12, align 8, !dbg !774, !nonnull !23, !noundef !23
  store ptr %3, ptr %_6, align 8, !dbg !774
  %4 = getelementptr inbounds i8, ptr %_6, i64 8, !dbg !774
  store ptr %_14, ptr %4, align 8, !dbg !774
  %5 = load ptr, ptr %_6, align 8, !dbg !729, !nonnull !23, !noundef !23
  %6 = getelementptr inbounds i8, ptr %_6, i64 8, !dbg !729
  %7 = load ptr, ptr %6, align 8, !dbg !729, !noundef !23
; call core::fmt::builders::DebugList::entries
  %_3 = call align 8 ptr @_ZN4core3fmt8builders9DebugList7entries17h20be575e96fb94e0E(ptr align 8 %_5, ptr %5, ptr %7), !dbg !729
; call core::fmt::builders::DebugList::finish
  %_0 = call zeroext i1 @_ZN4core3fmt8builders9DebugList6finish17h052888958915dc88E(ptr align 8 %_3), !dbg !729
  ret i1 %_0, !dbg !775
}

; core::fmt::num::<impl core::fmt::Debug for usize>::fmt
; Function Attrs: inlinehint nonlazybind uwtable
define internal zeroext i1 @"_ZN4core3fmt3num52_$LT$impl$u20$core..fmt..Debug$u20$for$u20$usize$GT$3fmt17h73ab642b6bf45271E"(ptr align 8 %self, ptr align 8 %f) unnamed_addr #1 !dbg !776 {
start:
  %f.dbg.spill = alloca ptr, align 8
  %self.dbg.spill = alloca ptr, align 8
  %_0 = alloca i8, align 1
  store ptr %self, ptr %self.dbg.spill, align 8
  call void @llvm.dbg.declare(metadata ptr %self.dbg.spill, metadata !784, metadata !DIExpression()), !dbg !786
  store ptr %f, ptr %f.dbg.spill, align 8
  call void @llvm.dbg.declare(metadata ptr %f.dbg.spill, metadata !785, metadata !DIExpression()), !dbg !787
  call void @llvm.dbg.declare(metadata ptr %f.dbg.spill, metadata !788, metadata !DIExpression()), !dbg !797
  call void @llvm.dbg.declare(metadata ptr %f.dbg.spill, metadata !799, metadata !DIExpression()), !dbg !804
  %0 = getelementptr inbounds %"core::fmt::Formatter<'_>", ptr %f, i32 0, i32 4, !dbg !806
  %_4 = load i32, ptr %0, align 4, !dbg !806, !noundef !23
  %_3 = and i32 %_4, 16, !dbg !806
  %1 = icmp eq i32 %_3, 0, !dbg !807
  br i1 %1, label %bb2, label %bb1, !dbg !807

bb2:                                              ; preds = %start
  %2 = getelementptr inbounds %"core::fmt::Formatter<'_>", ptr %f, i32 0, i32 4, !dbg !808
  %_6 = load i32, ptr %2, align 4, !dbg !808, !noundef !23
  %_5 = and i32 %_6, 32, !dbg !808
  %3 = icmp eq i32 %_5, 0, !dbg !809
  br i1 %3, label %bb4, label %bb3, !dbg !809

bb1:                                              ; preds = %start
; call core::fmt::num::<impl core::fmt::LowerHex for usize>::fmt
  %4 = call zeroext i1 @"_ZN4core3fmt3num55_$LT$impl$u20$core..fmt..LowerHex$u20$for$u20$usize$GT$3fmt17hdcbbec87e7e8bf7bE"(ptr align 8 %self, ptr align 8 %f), !dbg !810
  %5 = zext i1 %4 to i8, !dbg !810
  store i8 %5, ptr %_0, align 1, !dbg !810
  br label %bb6, !dbg !810

bb4:                                              ; preds = %bb2
; call core::fmt::num::imp::<impl core::fmt::Display for usize>::fmt
  %6 = call zeroext i1 @"_ZN4core3fmt3num3imp54_$LT$impl$u20$core..fmt..Display$u20$for$u20$usize$GT$3fmt17h7bbbd896a38dcccaE"(ptr align 8 %self, ptr align 8 %f), !dbg !811
  %7 = zext i1 %6 to i8, !dbg !811
  store i8 %7, ptr %_0, align 1, !dbg !811
  br label %bb5, !dbg !811

bb3:                                              ; preds = %bb2
; call core::fmt::num::<impl core::fmt::UpperHex for usize>::fmt
  %8 = call zeroext i1 @"_ZN4core3fmt3num55_$LT$impl$u20$core..fmt..UpperHex$u20$for$u20$usize$GT$3fmt17hdaf6f71ebb81ebeeE"(ptr align 8 %self, ptr align 8 %f), !dbg !812
  %9 = zext i1 %8 to i8, !dbg !812
  store i8 %9, ptr %_0, align 1, !dbg !812
  br label %bb5, !dbg !812

bb5:                                              ; preds = %bb3, %bb4
  br label %bb6, !dbg !813

bb6:                                              ; preds = %bb1, %bb5
  %10 = load i8, ptr %_0, align 1, !dbg !814, !range !815, !noundef !23
  %11 = trunc i8 %10 to i1, !dbg !814
  ret i1 %11, !dbg !814
}

; core::fmt::builders::DebugList::entries
; Function Attrs: nonlazybind uwtable
define internal align 8 ptr @_ZN4core3fmt8builders9DebugList7entries17h20be575e96fb94e0E(ptr align 8 %self, ptr %entries.0, ptr %entries.1) unnamed_addr #2 personality ptr @rust_eh_personality !dbg !816 {
start:
  %0 = alloca { ptr, i32, [1 x i32] }, align 8
  %entries.dbg.spill = alloca %"core::slice::iter::Iter<'_, u8>", align 8
  %self.dbg.spill = alloca ptr, align 8
  %entry = alloca ptr, align 8
  %_5 = alloca ptr, align 8
  %iter = alloca %"core::slice::iter::Iter<'_, u8>", align 8
  store ptr %self, ptr %self.dbg.spill, align 8
  call void @llvm.dbg.declare(metadata ptr %self.dbg.spill, metadata !835, metadata !DIExpression()), !dbg !841
  store ptr %entries.0, ptr %entries.dbg.spill, align 8
  %1 = getelementptr inbounds i8, ptr %entries.dbg.spill, i64 8
  store ptr %entries.1, ptr %1, align 8
  call void @llvm.dbg.declare(metadata ptr %entries.dbg.spill, metadata !836, metadata !DIExpression()), !dbg !842
  call void @llvm.dbg.declare(metadata ptr %iter, metadata !837, metadata !DIExpression()), !dbg !843
  call void @llvm.dbg.declare(metadata ptr %entry, metadata !839, metadata !DIExpression()), !dbg !844
; call <I as core::iter::traits::collect::IntoIterator>::into_iter
  %2 = call { ptr, ptr } @"_ZN63_$LT$I$u20$as$u20$core..iter..traits..collect..IntoIterator$GT$9into_iter17hf7824c27c51d6a60E"(ptr %entries.0, ptr %entries.1), !dbg !845
  %_3.0 = extractvalue { ptr, ptr } %2, 0, !dbg !845
  %_3.1 = extractvalue { ptr, ptr } %2, 1, !dbg !845
  store ptr %_3.0, ptr %iter, align 8, !dbg !845
  %3 = getelementptr inbounds i8, ptr %iter, i64 8, !dbg !845
  store ptr %_3.1, ptr %3, align 8, !dbg !845
  br label %bb2, !dbg !846

bb2:                                              ; preds = %bb8, %start
; invoke <core::slice::iter::Iter<T> as core::iter::traits::iterator::Iterator>::next
  %4 = invoke align 1 ptr @"_ZN91_$LT$core..slice..iter..Iter$LT$T$GT$$u20$as$u20$core..iter..traits..iterator..Iterator$GT$4next17hf2438c5008858589E"(ptr align 8 %iter)
          to label %bb3 unwind label %cleanup, !dbg !843

bb11:                                             ; preds = %bb10, %cleanup
  %5 = load ptr, ptr %0, align 8, !dbg !847, !noundef !23
  %6 = getelementptr inbounds i8, ptr %0, i64 8, !dbg !847
  %7 = load i32, ptr %6, align 8, !dbg !847, !noundef !23
  %8 = insertvalue { ptr, i32 } poison, ptr %5, 0, !dbg !847
  %9 = insertvalue { ptr, i32 } %8, i32 %7, 1, !dbg !847
  resume { ptr, i32 } %9, !dbg !847

cleanup:                                          ; preds = %bb2
  %10 = landingpad { ptr, i32 }
          cleanup
  %11 = extractvalue { ptr, i32 } %10, 0
  %12 = extractvalue { ptr, i32 } %10, 1
  store ptr %11, ptr %0, align 8
  %13 = getelementptr inbounds i8, ptr %0, i64 8
  store i32 %12, ptr %13, align 8
  br label %bb11

bb3:                                              ; preds = %bb2
  store ptr %4, ptr %_5, align 8, !dbg !843
  %14 = load ptr, ptr %_5, align 8, !dbg !843, !noundef !23
  %15 = ptrtoint ptr %14 to i64, !dbg !843
  %16 = icmp eq i64 %15, 0, !dbg !843
  %_7 = select i1 %16, i64 0, i64 1, !dbg !843
  %17 = icmp eq i64 %_7, 0, !dbg !843
  br i1 %17, label %bb6, label %bb4, !dbg !843

bb6:                                              ; preds = %bb3
  ret ptr %self, !dbg !848

bb4:                                              ; preds = %bb3
  %18 = load ptr, ptr %_5, align 8, !dbg !849, !nonnull !23, !align !532, !noundef !23
  store ptr %18, ptr %entry, align 8, !dbg !849
; invoke core::fmt::builders::DebugList::entry
  %_9 = invoke align 8 ptr @_ZN4core3fmt8builders9DebugList5entry17hd1d9a4a9a039c3ebE(ptr align 8 %self, ptr align 1 %entry, ptr align 8 @vtable.1)
          to label %bb7 unwind label %cleanup1, !dbg !850

bb10:                                             ; preds = %cleanup1
  br label %bb11, !dbg !851

cleanup1:                                         ; preds = %bb4
  %19 = landingpad { ptr, i32 }
          cleanup
  %20 = extractvalue { ptr, i32 } %19, 0
  %21 = extractvalue { ptr, i32 } %19, 1
  store ptr %20, ptr %0, align 8
  %22 = getelementptr inbounds i8, ptr %0, i64 8
  store i32 %21, ptr %22, align 8
  br label %bb10

bb7:                                              ; preds = %bb4
  br label %bb8, !dbg !851

bb8:                                              ; preds = %bb7
  br label %bb2, !dbg !846

bb5:                                              ; No predecessors!
  unreachable, !dbg !843
}

; core::fmt::Arguments::new_v1
; Function Attrs: inlinehint nonlazybind uwtable
define internal void @_ZN4core3fmt9Arguments6new_v117h2bd42c43f6f82d3fE(ptr sret(%"core::fmt::Arguments<'_>") align 8 %_0, ptr align 8 %pieces.0, i64 %pieces.1, ptr align 8 %args.0, i64 %args.1) unnamed_addr #1 !dbg !852 {
start:
  %pieces.dbg.spill1 = alloca { ptr, i64 }, align 8
  %args.dbg.spill = alloca { ptr, i64 }, align 8
  %pieces.dbg.spill = alloca { ptr, i64 }, align 8
  %_14 = alloca %"core::fmt::Arguments<'_>", align 8
  %_9 = alloca %"core::fmt::Arguments<'_>", align 8
  store ptr %pieces.0, ptr %pieces.dbg.spill, align 8
  %0 = getelementptr inbounds i8, ptr %pieces.dbg.spill, i64 8
  store i64 %pieces.1, ptr %0, align 8
  call void @llvm.dbg.declare(metadata ptr %pieces.dbg.spill, metadata !923, metadata !DIExpression()), !dbg !925
  store ptr %args.0, ptr %args.dbg.spill, align 8
  %1 = getelementptr inbounds i8, ptr %args.dbg.spill, i64 8
  store i64 %args.1, ptr %1, align 8
  call void @llvm.dbg.declare(metadata ptr %args.dbg.spill, metadata !924, metadata !DIExpression()), !dbg !926
  %_3 = icmp ult i64 %pieces.1, %args.1, !dbg !927
  br i1 %_3, label %bb2, label %bb1, !dbg !927

bb1:                                              ; preds = %start
  %_7 = add i64 %args.1, 1, !dbg !928
  %_6 = icmp ugt i64 %pieces.1, %_7, !dbg !929
  br i1 %_6, label %bb2, label %bb3, !dbg !929

bb2:                                              ; preds = %bb1, %start
  store ptr @alloc_af99043bc04c419363a7f04d23183506, ptr %pieces.dbg.spill1, align 8, !dbg !930
  %2 = getelementptr inbounds i8, ptr %pieces.dbg.spill1, i64 8, !dbg !930
  store i64 1, ptr %2, align 8, !dbg !930
  call void @llvm.dbg.declare(metadata ptr %pieces.dbg.spill1, metadata !931, metadata !DIExpression()), !dbg !938
  br i1 false, label %bb4, label %bb6, !dbg !942

bb3:                                              ; preds = %bb1
  store ptr %pieces.0, ptr %_0, align 8, !dbg !943
  %3 = getelementptr inbounds i8, ptr %_0, i64 8, !dbg !943
  store i64 %pieces.1, ptr %3, align 8, !dbg !943
  %4 = load ptr, ptr @0, align 8, !dbg !943, !align !677, !noundef !23
  %5 = load i64, ptr getelementptr inbounds (i8, ptr @0, i64 8), align 8, !dbg !943
  %6 = getelementptr inbounds %"core::fmt::Arguments<'_>", ptr %_0, i32 0, i32 2, !dbg !943
  store ptr %4, ptr %6, align 8, !dbg !943
  %7 = getelementptr inbounds i8, ptr %6, i64 8, !dbg !943
  store i64 %5, ptr %7, align 8, !dbg !943
  %8 = getelementptr inbounds %"core::fmt::Arguments<'_>", ptr %_0, i32 0, i32 1, !dbg !943
  store ptr %args.0, ptr %8, align 8, !dbg !943
  %9 = getelementptr inbounds i8, ptr %8, i64 8, !dbg !943
  store i64 %args.1, ptr %9, align 8, !dbg !943
  ret void, !dbg !944

bb6:                                              ; preds = %bb2
  store ptr @alloc_af99043bc04c419363a7f04d23183506, ptr %_9, align 8, !dbg !945
  %10 = getelementptr inbounds i8, ptr %_9, i64 8, !dbg !945
  store i64 1, ptr %10, align 8, !dbg !945
  %11 = load ptr, ptr @0, align 8, !dbg !945, !align !677, !noundef !23
  %12 = load i64, ptr getelementptr inbounds (i8, ptr @0, i64 8), align 8, !dbg !945
  %13 = getelementptr inbounds %"core::fmt::Arguments<'_>", ptr %_9, i32 0, i32 2, !dbg !945
  store ptr %11, ptr %13, align 8, !dbg !945
  %14 = getelementptr inbounds i8, ptr %13, i64 8, !dbg !945
  store i64 %12, ptr %14, align 8, !dbg !945
  %15 = getelementptr inbounds %"core::fmt::Arguments<'_>", ptr %_9, i32 0, i32 1, !dbg !945
  store ptr @alloc_513570631223a12912d85da2bec3b15a, ptr %15, align 8, !dbg !945
  %16 = getelementptr inbounds i8, ptr %15, i64 8, !dbg !945
  store i64 0, ptr %16, align 8, !dbg !945
; call core::panicking::panic_fmt
  call void @_ZN4core9panicking9panic_fmt17h0d3f1893e38be419E(ptr align 8 %_9, ptr align 8 @alloc_b96933a8148f906cfb135db9ebeba42b) #13, !dbg !946
  unreachable, !dbg !946

bb4:                                              ; preds = %bb2
; call core::fmt::Arguments::new_const
  call void @_ZN4core3fmt9Arguments9new_const17h8fdbc97b8318abf2E(ptr sret(%"core::fmt::Arguments<'_>") align 8 %_14, ptr align 8 @alloc_af99043bc04c419363a7f04d23183506, i64 1), !dbg !947
; call core::panicking::panic_fmt
  call void @_ZN4core9panicking9panic_fmt17h0d3f1893e38be419E(ptr align 8 %_14, ptr align 8 @alloc_b1c9b46fd6543b9e0f93a51d745efa2a) #13, !dbg !947
  unreachable, !dbg !947
}

; core::fmt::Arguments::new_const
; Function Attrs: inlinehint nonlazybind uwtable
define internal void @_ZN4core3fmt9Arguments9new_const17h8fdbc97b8318abf2E(ptr sret(%"core::fmt::Arguments<'_>") align 8 %_0, ptr align 8 %pieces.0, i64 %pieces.1) unnamed_addr #1 !dbg !948 {
start:
  %pieces.dbg.spill = alloca { ptr, i64 }, align 8
  %_5 = alloca %"core::fmt::Arguments<'_>", align 8
  store ptr %pieces.0, ptr %pieces.dbg.spill, align 8
  %0 = getelementptr inbounds i8, ptr %pieces.dbg.spill, i64 8
  store i64 %pieces.1, ptr %0, align 8
  call void @llvm.dbg.declare(metadata ptr %pieces.dbg.spill, metadata !950, metadata !DIExpression()), !dbg !951
  %_2 = icmp ugt i64 %pieces.1, 1, !dbg !952
  br i1 %_2, label %bb1, label %bb3, !dbg !952

bb3:                                              ; preds = %start
  store ptr %pieces.0, ptr %_0, align 8, !dbg !953
  %1 = getelementptr inbounds i8, ptr %_0, i64 8, !dbg !953
  store i64 %pieces.1, ptr %1, align 8, !dbg !953
  %2 = load ptr, ptr @0, align 8, !dbg !953, !align !677, !noundef !23
  %3 = load i64, ptr getelementptr inbounds (i8, ptr @0, i64 8), align 8, !dbg !953
  %4 = getelementptr inbounds %"core::fmt::Arguments<'_>", ptr %_0, i32 0, i32 2, !dbg !953
  store ptr %2, ptr %4, align 8, !dbg !953
  %5 = getelementptr inbounds i8, ptr %4, i64 8, !dbg !953
  store i64 %3, ptr %5, align 8, !dbg !953
  %6 = getelementptr inbounds %"core::fmt::Arguments<'_>", ptr %_0, i32 0, i32 1, !dbg !953
  store ptr @alloc_513570631223a12912d85da2bec3b15a, ptr %6, align 8, !dbg !953
  %7 = getelementptr inbounds i8, ptr %6, i64 8, !dbg !953
  store i64 0, ptr %7, align 8, !dbg !953
  ret void, !dbg !954

bb1:                                              ; preds = %start
; call core::fmt::Arguments::new_const
  call void @_ZN4core3fmt9Arguments9new_const17h8fdbc97b8318abf2E(ptr sret(%"core::fmt::Arguments<'_>") align 8 %_5, ptr align 8 @alloc_af99043bc04c419363a7f04d23183506, i64 1), !dbg !955
; call core::panicking::panic_fmt
  call void @_ZN4core9panicking9panic_fmt17h0d3f1893e38be419E(ptr align 8 %_5, ptr align 8 @alloc_b1c9b46fd6543b9e0f93a51d745efa2a) #13, !dbg !955
  unreachable, !dbg !955
}

; core::ops::function::FnOnce::call_once{{vtable.shim}}
; Function Attrs: inlinehint nonlazybind uwtable
define internal i32 @"_ZN4core3ops8function6FnOnce40call_once$u7b$$u7b$vtable.shim$u7d$$u7d$17h008bafb720fa27e0E"(ptr %_1) unnamed_addr #1 !dbg !956 {
start:
  %_1.dbg.spill = alloca ptr, align 8
  %_2 = alloca {}, align 1
  store ptr %_1, ptr %_1.dbg.spill, align 8
  call void @llvm.dbg.declare(metadata ptr %_1.dbg.spill, metadata !964, metadata !DIExpression()), !dbg !969
  call void @llvm.dbg.declare(metadata ptr %_2, metadata !965, metadata !DIExpression()), !dbg !969
  %0 = load ptr, ptr %_1, align 8, !dbg !969, !nonnull !23, !noundef !23
; call core::ops::function::FnOnce::call_once
  %_0 = call i32 @_ZN4core3ops8function6FnOnce9call_once17h02d31a2468aa4f5cE(ptr %0), !dbg !969
  ret i32 %_0, !dbg !969
}

; core::ops::function::FnOnce::call_once{{vtable.shim}}
; Function Attrs: inlinehint nonlazybind uwtable
define internal { i64, i64 } @"_ZN4core3ops8function6FnOnce40call_once$u7b$$u7b$vtable.shim$u7d$$u7d$17hd1e1ce84c0a8d779E"(ptr %_1, ptr align 1 %0, i64 %1) unnamed_addr #1 !dbg !970 {
start:
  %_1.dbg.spill = alloca ptr, align 8
  %_2 = alloca { { ptr, i64 } }, align 8
  store ptr %0, ptr %_2, align 8
  %2 = getelementptr inbounds i8, ptr %_2, i64 8
  store i64 %1, ptr %2, align 8
  store ptr %_1, ptr %_1.dbg.spill, align 8
  call void @llvm.dbg.declare(metadata ptr %_1.dbg.spill, metadata !996, metadata !DIExpression()), !dbg !1004
  call void @llvm.dbg.declare(metadata ptr %_2, metadata !997, metadata !DIExpression()), !dbg !1004
  %3 = load ptr, ptr %_1, align 8, !dbg !1004, !nonnull !23, !align !677, !noundef !23
  %4 = load ptr, ptr %_2, align 8, !dbg !1004, !nonnull !23, !align !532, !noundef !23
  %5 = getelementptr inbounds i8, ptr %_2, i64 8, !dbg !1004
  %6 = load i64, ptr %5, align 8, !dbg !1004, !noundef !23
; call core::ops::function::FnOnce::call_once
  %7 = call { i64, i64 } @_ZN4core3ops8function6FnOnce9call_once17h5d9598c611d951b5E(ptr align 8 %3, ptr align 1 %4, i64 %6), !dbg !1004
  %_0.0 = extractvalue { i64, i64 } %7, 0, !dbg !1004
  %_0.1 = extractvalue { i64, i64 } %7, 1, !dbg !1004
  %8 = insertvalue { i64, i64 } poison, i64 %_0.0, 0, !dbg !1004
  %9 = insertvalue { i64, i64 } %8, i64 %_0.1, 1, !dbg !1004
  ret { i64, i64 } %9, !dbg !1004
}

; core::ops::function::FnOnce::call_once{{vtable.shim}}
; Function Attrs: inlinehint nonlazybind uwtable
define internal void @"_ZN4core3ops8function6FnOnce40call_once$u7b$$u7b$vtable.shim$u7d$$u7d$17hf80dec0d86bddc7aE"(ptr sret(%"core::result::Result<usize, curl::easy::handler::ReadError>") align 8 %_0, ptr %_1, ptr align 1 %0, i64 %1) unnamed_addr #1 !dbg !1005 {
start:
  %_1.dbg.spill = alloca ptr, align 8
  %_2 = alloca { { ptr, i64 } }, align 8
  store ptr %0, ptr %_2, align 8
  %2 = getelementptr inbounds i8, ptr %_2, i64 8
  store i64 %1, ptr %2, align 8
  store ptr %_1, ptr %_1.dbg.spill, align 8
  call void @llvm.dbg.declare(metadata ptr %_1.dbg.spill, metadata !1025, metadata !DIExpression()), !dbg !1033
  call void @llvm.dbg.declare(metadata ptr %_2, metadata !1026, metadata !DIExpression()), !dbg !1033
  %3 = load ptr, ptr %_1, align 8, !dbg !1033, !nonnull !23, !align !677, !noundef !23
  %4 = load ptr, ptr %_2, align 8, !dbg !1033, !nonnull !23, !align !532, !noundef !23
  %5 = getelementptr inbounds i8, ptr %_2, i64 8, !dbg !1033
  %6 = load i64, ptr %5, align 8, !dbg !1033, !noundef !23
; call core::ops::function::FnOnce::call_once
  call void @_ZN4core3ops8function6FnOnce9call_once17heaee3ca41f3c5a0fE(ptr sret(%"core::result::Result<usize, curl::easy::handler::ReadError>") align 8 %_0, ptr align 8 %3, ptr align 1 %4, i64 %6), !dbg !1033
  ret void, !dbg !1033
}

; core::ops::function::FnOnce::call_once
; Function Attrs: inlinehint nonlazybind uwtable
define internal i32 @_ZN4core3ops8function6FnOnce9call_once17h02d31a2468aa4f5cE(ptr %0) unnamed_addr #1 personality ptr @rust_eh_personality !dbg !1034 {
start:
  %1 = alloca { ptr, i32, [1 x i32] }, align 8
  %_2 = alloca {}, align 1
  %_1 = alloca ptr, align 8
  store ptr %0, ptr %_1, align 8
  call void @llvm.dbg.declare(metadata ptr %_1, metadata !1038, metadata !DIExpression()), !dbg !1040
  call void @llvm.dbg.declare(metadata ptr %_2, metadata !1039, metadata !DIExpression()), !dbg !1040
; invoke std::rt::lang_start::{{closure}}
  %_0 = invoke i32 @"_ZN3std2rt10lang_start28_$u7b$$u7b$closure$u7d$$u7d$17hb1acdfcf9cab6dd5E"(ptr align 8 %_1)
          to label %bb1 unwind label %cleanup, !dbg !1040

bb3:                                              ; preds = %cleanup
  %2 = load ptr, ptr %1, align 8, !dbg !1040, !noundef !23
  %3 = getelementptr inbounds i8, ptr %1, i64 8, !dbg !1040
  %4 = load i32, ptr %3, align 8, !dbg !1040, !noundef !23
  %5 = insertvalue { ptr, i32 } poison, ptr %2, 0, !dbg !1040
  %6 = insertvalue { ptr, i32 } %5, i32 %4, 1, !dbg !1040
  resume { ptr, i32 } %6, !dbg !1040

cleanup:                                          ; preds = %start
  %7 = landingpad { ptr, i32 }
          cleanup
  %8 = extractvalue { ptr, i32 } %7, 0
  %9 = extractvalue { ptr, i32 } %7, 1
  store ptr %8, ptr %1, align 8
  %10 = getelementptr inbounds i8, ptr %1, i64 8
  store i32 %9, ptr %10, align 8
  br label %bb3

bb1:                                              ; preds = %start
  ret i32 %_0, !dbg !1040
}

; core::ops::function::FnOnce::call_once
; Function Attrs: inlinehint nonlazybind uwtable
define internal { i64, i64 } @_ZN4core3ops8function6FnOnce9call_once17h5d9598c611d951b5E(ptr align 8 %0, ptr align 1 %1, i64 %2) unnamed_addr #1 personality ptr @rust_eh_personality !dbg !1041 {
start:
  %3 = alloca { ptr, i32, [1 x i32] }, align 8
  %_2 = alloca { { ptr, i64 } }, align 8
  %_1 = alloca ptr, align 8
  store ptr %0, ptr %_1, align 8
  store ptr %1, ptr %_2, align 8
  %4 = getelementptr inbounds i8, ptr %_2, i64 8
  store i64 %2, ptr %4, align 8
  call void @llvm.dbg.declare(metadata ptr %_1, metadata !1045, metadata !DIExpression()), !dbg !1047
  call void @llvm.dbg.declare(metadata ptr %_2, metadata !1046, metadata !DIExpression()), !dbg !1047
  %5 = load ptr, ptr %_2, align 8, !dbg !1047, !nonnull !23, !align !532, !noundef !23
  %6 = getelementptr inbounds i8, ptr %_2, i64 8, !dbg !1047
  %7 = load i64, ptr %6, align 8, !dbg !1047, !noundef !23
; invoke function::make_rpc::{{closure}}
  %8 = invoke { i64, i64 } @"_ZN8function8make_rpc28_$u7b$$u7b$closure$u7d$$u7d$17h5a47607b7b4311baE"(ptr align 8 %_1, ptr align 1 %5, i64 %7)
          to label %bb1 unwind label %cleanup, !dbg !1047

bb3:                                              ; preds = %cleanup
  %9 = load ptr, ptr %3, align 8, !dbg !1047, !noundef !23
  %10 = getelementptr inbounds i8, ptr %3, i64 8, !dbg !1047
  %11 = load i32, ptr %10, align 8, !dbg !1047, !noundef !23
  %12 = insertvalue { ptr, i32 } poison, ptr %9, 0, !dbg !1047
  %13 = insertvalue { ptr, i32 } %12, i32 %11, 1, !dbg !1047
  resume { ptr, i32 } %13, !dbg !1047

cleanup:                                          ; preds = %start
  %14 = landingpad { ptr, i32 }
          cleanup
  %15 = extractvalue { ptr, i32 } %14, 0
  %16 = extractvalue { ptr, i32 } %14, 1
  store ptr %15, ptr %3, align 8
  %17 = getelementptr inbounds i8, ptr %3, i64 8
  store i32 %16, ptr %17, align 8
  br label %bb3

bb1:                                              ; preds = %start
  %_0.0 = extractvalue { i64, i64 } %8, 0, !dbg !1047
  %_0.1 = extractvalue { i64, i64 } %8, 1, !dbg !1047
  %18 = insertvalue { i64, i64 } poison, i64 %_0.0, 0, !dbg !1047
  %19 = insertvalue { i64, i64 } %18, i64 %_0.1, 1, !dbg !1047
  ret { i64, i64 } %19, !dbg !1047
}

; core::ops::function::FnOnce::call_once
; Function Attrs: inlinehint nonlazybind uwtable
define internal void @_ZN4core3ops8function6FnOnce9call_once17hce802eb4818e6b0aE(ptr %_1) unnamed_addr #1 !dbg !1048 {
start:
  %_1.dbg.spill = alloca ptr, align 8
  %_2 = alloca {}, align 1
  store ptr %_1, ptr %_1.dbg.spill, align 8
  call void @llvm.dbg.declare(metadata ptr %_1.dbg.spill, metadata !1050, metadata !DIExpression()), !dbg !1054
  call void @llvm.dbg.declare(metadata ptr %_2, metadata !1051, metadata !DIExpression()), !dbg !1054
  call void %_1(), !dbg !1054
  ret void, !dbg !1054
}

; core::ops::function::FnOnce::call_once
; Function Attrs: inlinehint nonlazybind uwtable
define internal void @_ZN4core3ops8function6FnOnce9call_once17heaee3ca41f3c5a0fE(ptr sret(%"core::result::Result<usize, curl::easy::handler::ReadError>") align 8 %_0, ptr align 8 %0, ptr align 1 %1, i64 %2) unnamed_addr #1 personality ptr @rust_eh_personality !dbg !1055 {
start:
  %3 = alloca { ptr, i32, [1 x i32] }, align 8
  %_2 = alloca { { ptr, i64 } }, align 8
  %_1 = alloca ptr, align 8
  store ptr %0, ptr %_1, align 8
  store ptr %1, ptr %_2, align 8
  %4 = getelementptr inbounds i8, ptr %_2, i64 8
  store i64 %2, ptr %4, align 8
  call void @llvm.dbg.declare(metadata ptr %_1, metadata !1059, metadata !DIExpression()), !dbg !1061
  call void @llvm.dbg.declare(metadata ptr %_2, metadata !1060, metadata !DIExpression()), !dbg !1061
  %5 = load ptr, ptr %_2, align 8, !dbg !1061, !nonnull !23, !align !532, !noundef !23
  %6 = getelementptr inbounds i8, ptr %_2, i64 8, !dbg !1061
  %7 = load i64, ptr %6, align 8, !dbg !1061, !noundef !23
; invoke function::make_rpc::{{closure}}
  invoke void @"_ZN8function8make_rpc28_$u7b$$u7b$closure$u7d$$u7d$17h863144bdbd454280E"(ptr sret(%"core::result::Result<usize, curl::easy::handler::ReadError>") align 8 %_0, ptr align 8 %_1, ptr align 1 %5, i64 %7)
          to label %bb1 unwind label %cleanup, !dbg !1061

bb3:                                              ; preds = %cleanup
  %8 = load ptr, ptr %3, align 8, !dbg !1061, !noundef !23
  %9 = getelementptr inbounds i8, ptr %3, i64 8, !dbg !1061
  %10 = load i32, ptr %9, align 8, !dbg !1061, !noundef !23
  %11 = insertvalue { ptr, i32 } poison, ptr %8, 0, !dbg !1061
  %12 = insertvalue { ptr, i32 } %11, i32 %10, 1, !dbg !1061
  resume { ptr, i32 } %12, !dbg !1061

cleanup:                                          ; preds = %start
  %13 = landingpad { ptr, i32 }
          cleanup
  %14 = extractvalue { ptr, i32 } %13, 0
  %15 = extractvalue { ptr, i32 } %13, 1
  store ptr %14, ptr %3, align 8
  %16 = getelementptr inbounds i8, ptr %3, i64 8
  store i32 %15, ptr %16, align 8
  br label %bb3

bb1:                                              ; preds = %start
  ret void, !dbg !1061
}

; core::ptr::drop_in_place<usize>
; Function Attrs: inlinehint nonlazybind uwtable
define internal void @"_ZN4core3ptr26drop_in_place$LT$usize$GT$17h5f0d0347f7f93162E"(ptr align 8 %_1) unnamed_addr #1 !dbg !1062 {
start:
  %_1.dbg.spill = alloca ptr, align 8
  store ptr %_1, ptr %_1.dbg.spill, align 8
  call void @llvm.dbg.declare(metadata ptr %_1.dbg.spill, metadata !1067, metadata !DIExpression()), !dbg !1068
  ret void, !dbg !1068
}

; core::ptr::drop_in_place<&u8>
; Function Attrs: inlinehint nonlazybind uwtable
define internal void @"_ZN4core3ptr27drop_in_place$LT$$RF$u8$GT$17hba1c2eb3f84fdd06E"(ptr align 8 %_1) unnamed_addr #1 !dbg !1069 {
start:
  %_1.dbg.spill = alloca ptr, align 8
  store ptr %_1, ptr %_1.dbg.spill, align 8
  call void @llvm.dbg.declare(metadata ptr %_1.dbg.spill, metadata !1074, metadata !DIExpression()), !dbg !1075
  ret void, !dbg !1075
}

; core::ptr::drop_in_place<alloc::string::FromUtf8Error>
; Function Attrs: nonlazybind uwtable
define internal void @"_ZN4core3ptr49drop_in_place$LT$alloc..string..FromUtf8Error$GT$17hd21bf16a4fbdb359E"(ptr align 8 %_1) unnamed_addr #2 !dbg !1076 {
start:
  %_1.dbg.spill = alloca ptr, align 8
  store ptr %_1, ptr %_1.dbg.spill, align 8
  call void @llvm.dbg.declare(metadata ptr %_1.dbg.spill, metadata !1081, metadata !DIExpression()), !dbg !1084
; call core::ptr::drop_in_place<alloc::vec::Vec<u8>>
  call void @"_ZN4core3ptr46drop_in_place$LT$alloc..vec..Vec$LT$u8$GT$$GT$17h7cd5af2bd54d4f8eE"(ptr align 8 %_1), !dbg !1084
  ret void, !dbg !1084
}

; core::ptr::drop_in_place<&core::str::error::Utf8Error>
; Function Attrs: inlinehint nonlazybind uwtable
define internal void @"_ZN4core3ptr52drop_in_place$LT$$RF$core..str..error..Utf8Error$GT$17h67ae1bd9c403ed6eE"(ptr align 8 %_1) unnamed_addr #1 !dbg !1085 {
start:
  %_1.dbg.spill = alloca ptr, align 8
  store ptr %_1, ptr %_1.dbg.spill, align 8
  call void @llvm.dbg.declare(metadata ptr %_1.dbg.spill, metadata !1090, metadata !DIExpression()), !dbg !1093
  ret void, !dbg !1093
}

; core::ptr::drop_in_place<&core::option::Option<u8>>
; Function Attrs: inlinehint nonlazybind uwtable
define internal void @"_ZN4core3ptr55drop_in_place$LT$$RF$core..option..Option$LT$u8$GT$$GT$17h5f5dc52e937ee7c1E"(ptr align 8 %_1) unnamed_addr #1 !dbg !1094 {
start:
  %_1.dbg.spill = alloca ptr, align 8
  store ptr %_1, ptr %_1.dbg.spill, align 8
  call void @llvm.dbg.declare(metadata ptr %_1.dbg.spill, metadata !1099, metadata !DIExpression()), !dbg !1102
  ret void, !dbg !1102
}

; core::ptr::drop_in_place<function::make_rpc::{{closure}}>
; Function Attrs: inlinehint nonlazybind uwtable
define internal void @"_ZN4core3ptr68drop_in_place$LT$function..make_rpc..$u7b$$u7b$closure$u7d$$u7d$$GT$17hb5d3a3ab92f1ec59E"(ptr align 8 %_1) unnamed_addr #1 !dbg !1103 {
start:
  %_1.dbg.spill = alloca ptr, align 8
  store ptr %_1, ptr %_1.dbg.spill, align 8
  call void @llvm.dbg.declare(metadata ptr %_1.dbg.spill, metadata !1107, metadata !DIExpression()), !dbg !1110
  ret void, !dbg !1110
}

; core::ptr::drop_in_place<function::make_rpc::{{closure}}>
; Function Attrs: inlinehint nonlazybind uwtable
define internal void @"_ZN4core3ptr68drop_in_place$LT$function..make_rpc..$u7b$$u7b$closure$u7d$$u7d$$GT$17hc9b979d9c3b14a6cE"(ptr align 8 %_1) unnamed_addr #1 !dbg !1111 {
start:
  %_1.dbg.spill = alloca ptr, align 8
  store ptr %_1, ptr %_1.dbg.spill, align 8
  call void @llvm.dbg.declare(metadata ptr %_1.dbg.spill, metadata !1115, metadata !DIExpression()), !dbg !1118
  ret void, !dbg !1118
}

; core::ptr::drop_in_place<core::result::Result<usize,std::io::error::Error>>
; Function Attrs: nonlazybind uwtable
define internal void @"_ZN4core3ptr78drop_in_place$LT$core..result..Result$LT$usize$C$std..io..error..Error$GT$$GT$17ha7e9974dad518386E"(ptr align 8 %_1) unnamed_addr #2 !dbg !1119 {
start:
  %_1.dbg.spill = alloca ptr, align 8
  store ptr %_1, ptr %_1.dbg.spill, align 8
  call void @llvm.dbg.declare(metadata ptr %_1.dbg.spill, metadata !1124, metadata !DIExpression()), !dbg !1127
  %_2 = load i64, ptr %_1, align 8, !dbg !1127, !range !1128, !noundef !23
  %0 = icmp eq i64 %_2, 0, !dbg !1127
  br i1 %0, label %bb1, label %bb2, !dbg !1127

bb1:                                              ; preds = %bb2, %start
  ret void, !dbg !1127

bb2:                                              ; preds = %start
  %1 = getelementptr inbounds %"core::result::Result<usize, std::io::error::Error>::Err", ptr %_1, i32 0, i32 1, !dbg !1127
; call core::ptr::drop_in_place<std::io::error::Error>
  call void @"_ZN4core3ptr42drop_in_place$LT$std..io..error..Error$GT$17hfd03b64205700279E"(ptr align 8 %1), !dbg !1127
  br label %bb1, !dbg !1127
}

; core::ptr::drop_in_place<std::rt::lang_start<()>::{{closure}}>
; Function Attrs: inlinehint nonlazybind uwtable
define internal void @"_ZN4core3ptr85drop_in_place$LT$std..rt..lang_start$LT$$LP$$RP$$GT$..$u7b$$u7b$closure$u7d$$u7d$$GT$17he7adcf40094571c3E"(ptr align 8 %_1) unnamed_addr #1 !dbg !1129 {
start:
  %_1.dbg.spill = alloca ptr, align 8
  store ptr %_1, ptr %_1.dbg.spill, align 8
  call void @llvm.dbg.declare(metadata ptr %_1.dbg.spill, metadata !1133, metadata !DIExpression()), !dbg !1136
  ret void, !dbg !1136
}

; core::slice::<impl [T]>::copy_from_slice
; Function Attrs: nonlazybind uwtable
define internal void @"_ZN4core5slice29_$LT$impl$u20$$u5b$T$u5d$$GT$15copy_from_slice17h6723ed7a3e1dfa3fE"(ptr align 1 %self.0, i64 %self.1, ptr align 1 %src.0, i64 %src.1, ptr align 8 %0) unnamed_addr #2 !dbg !1137 {
start:
  %count.dbg.spill = alloca i64, align 8
  %dst.dbg.spill = alloca ptr, align 8
  %src.dbg.spill1 = alloca ptr, align 8
  %src.dbg.spill = alloca { ptr, i64 }, align 8
  %self.dbg.spill = alloca { ptr, i64 }, align 8
  store ptr %self.0, ptr %self.dbg.spill, align 8
  %1 = getelementptr inbounds i8, ptr %self.dbg.spill, i64 8
  store i64 %self.1, ptr %1, align 8
  call void @llvm.dbg.declare(metadata ptr %self.dbg.spill, metadata !1141, metadata !DIExpression()), !dbg !1143
  call void @llvm.dbg.declare(metadata ptr %self.dbg.spill, metadata !1144, metadata !DIExpression()), !dbg !1150
  store ptr %src.0, ptr %src.dbg.spill, align 8
  %2 = getelementptr inbounds i8, ptr %src.dbg.spill, i64 8
  store i64 %src.1, ptr %2, align 8
  call void @llvm.dbg.declare(metadata ptr %src.dbg.spill, metadata !1142, metadata !DIExpression()), !dbg !1152
  call void @llvm.dbg.declare(metadata ptr %src.dbg.spill, metadata !1153, metadata !DIExpression()), !dbg !1157
  %_3 = icmp ne i64 %self.1, %src.1, !dbg !1159
  br i1 %_3, label %bb1, label %bb2, !dbg !1159

bb2:                                              ; preds = %start
  store ptr %src.0, ptr %src.dbg.spill1, align 8, !dbg !1160
  call void @llvm.dbg.declare(metadata ptr %src.dbg.spill1, metadata !1161, metadata !DIExpression()), !dbg !1171
  store ptr %self.0, ptr %dst.dbg.spill, align 8, !dbg !1173
  call void @llvm.dbg.declare(metadata ptr %dst.dbg.spill, metadata !1169, metadata !DIExpression()), !dbg !1174
  store i64 %self.1, ptr %count.dbg.spill, align 8, !dbg !1175
  call void @llvm.dbg.declare(metadata ptr %count.dbg.spill, metadata !1170, metadata !DIExpression()), !dbg !1176
  %3 = mul i64 %self.1, 1, !dbg !1177
  call void @llvm.memcpy.p0.p0.i64(ptr align 1 %self.0, ptr align 1 %src.0, i64 %3, i1 false), !dbg !1177
  ret void, !dbg !1178

bb1:                                              ; preds = %start
; call core::slice::<impl [T]>::copy_from_slice::len_mismatch_fail
  call void @"_ZN4core5slice29_$LT$impl$u20$$u5b$T$u5d$$GT$15copy_from_slice17len_mismatch_fail17h91356e456d8f3056E"(i64 %self.1, i64 %src.1, ptr align 8 %0) #13, !dbg !1179
  unreachable, !dbg !1179
}

; core::slice::<impl [T]>::split_at_checked
; Function Attrs: inlinehint nonlazybind uwtable
define internal void @"_ZN4core5slice29_$LT$impl$u20$$u5b$T$u5d$$GT$16split_at_checked17ha974952410cd44e6E"(ptr sret(%"core::option::Option<(&[u8], &[u8])>") align 8 %_0, ptr align 1 %self.0, i64 %self.1, i64 %mid) unnamed_addr #1 !dbg !1180 {
start:
  %data_pointer.dbg.spill2 = alloca ptr, align 8
  %len.dbg.spill1 = alloca i64, align 8
  %data.dbg.spill = alloca ptr, align 8
  %data_pointer.dbg.spill = alloca ptr, align 8
  %ptr.dbg.spill = alloca ptr, align 8
  %len.dbg.spill = alloca i64, align 8
  %mid.dbg.spill = alloca i64, align 8
  %self.dbg.spill = alloca { ptr, i64 }, align 8
  %_21 = alloca %"core::ptr::metadata::PtrComponents<[u8]>", align 8
  %_20 = alloca %"core::ptr::metadata::PtrRepr<[u8]>", align 8
  %_17 = alloca %"core::ptr::metadata::PtrComponents<[u8]>", align 8
  %_16 = alloca %"core::ptr::metadata::PtrRepr<[u8]>", align 8
  %_5 = alloca { { ptr, i64 }, { ptr, i64 } }, align 8
  store ptr %self.0, ptr %self.dbg.spill, align 8
  %0 = getelementptr inbounds i8, ptr %self.dbg.spill, i64 8
  store i64 %self.1, ptr %0, align 8
  call void @llvm.dbg.declare(metadata ptr %self.dbg.spill, metadata !1201, metadata !DIExpression()), !dbg !1203
  call void @llvm.dbg.declare(metadata ptr %self.dbg.spill, metadata !1204, metadata !DIExpression()), !dbg !1215
  call void @llvm.dbg.declare(metadata ptr %self.dbg.spill, metadata !1217, metadata !DIExpression()), !dbg !1221
  store i64 %mid, ptr %mid.dbg.spill, align 8
  call void @llvm.dbg.declare(metadata ptr %mid.dbg.spill, metadata !1202, metadata !DIExpression()), !dbg !1223
  call void @llvm.dbg.declare(metadata ptr %mid.dbg.spill, metadata !1210, metadata !DIExpression()), !dbg !1224
  call void @llvm.dbg.declare(metadata ptr %mid.dbg.spill, metadata !1225, metadata !DIExpression()), !dbg !1237
  call void @llvm.dbg.declare(metadata ptr %mid.dbg.spill, metadata !1239, metadata !DIExpression()), !dbg !1253
  call void @llvm.dbg.declare(metadata ptr %mid.dbg.spill, metadata !1255, metadata !DIExpression()), !dbg !1267
  call void @llvm.dbg.declare(metadata ptr %mid.dbg.spill, metadata !1269, metadata !DIExpression()), !dbg !1274
  %_3 = icmp ule i64 %mid, %self.1, !dbg !1276
  br i1 %_3, label %bb1, label %bb2, !dbg !1276

bb2:                                              ; preds = %start
  store ptr null, ptr %_0, align 8, !dbg !1277
  br label %bb3, !dbg !1278

bb1:                                              ; preds = %start
  store i64 %self.1, ptr %len.dbg.spill, align 8, !dbg !1279
  call void @llvm.dbg.declare(metadata ptr %len.dbg.spill, metadata !1211, metadata !DIExpression()), !dbg !1280
  store ptr %self.0, ptr %ptr.dbg.spill, align 8, !dbg !1281
  call void @llvm.dbg.declare(metadata ptr %ptr.dbg.spill, metadata !1213, metadata !DIExpression()), !dbg !1282
  call void @llvm.dbg.declare(metadata ptr %ptr.dbg.spill, metadata !1233, metadata !DIExpression()), !dbg !1283
  call void @llvm.dbg.declare(metadata ptr %ptr.dbg.spill, metadata !1249, metadata !DIExpression()), !dbg !1284
  call void @llvm.dbg.declare(metadata ptr %ptr.dbg.spill, metadata !1285, metadata !DIExpression()), !dbg !1295
  call void @llvm.dbg.declare(metadata ptr %ptr.dbg.spill, metadata !1273, metadata !DIExpression()), !dbg !1297
  store ptr %self.0, ptr %data_pointer.dbg.spill, align 8, !dbg !1298
  call void @llvm.dbg.declare(metadata ptr %data_pointer.dbg.spill, metadata !1263, metadata !DIExpression()), !dbg !1299
  store ptr %self.0, ptr %_17, align 8, !dbg !1300
  %1 = getelementptr inbounds i8, ptr %_17, i64 8, !dbg !1300
  store i64 %mid, ptr %1, align 8, !dbg !1300
  %2 = load ptr, ptr %_17, align 8, !dbg !1301, !noundef !23
  %3 = getelementptr inbounds i8, ptr %_17, i64 8, !dbg !1301
  %4 = load i64, ptr %3, align 8, !dbg !1301, !noundef !23
  store ptr %2, ptr %_16, align 8, !dbg !1301
  %5 = getelementptr inbounds i8, ptr %_16, i64 8, !dbg !1301
  store i64 %4, ptr %5, align 8, !dbg !1301
  %_14.0 = load ptr, ptr %_16, align 8, !dbg !1301, !noundef !23
  %6 = getelementptr inbounds i8, ptr %_16, i64 8, !dbg !1301
  %_14.1 = load i64, ptr %6, align 8, !dbg !1301, !noundef !23
  %data = getelementptr inbounds i8, ptr %self.0, i64 %mid, !dbg !1302
  store ptr %data, ptr %data.dbg.spill, align 8, !dbg !1302
  call void @llvm.dbg.declare(metadata ptr %data.dbg.spill, metadata !1234, metadata !DIExpression()), !dbg !1303
  call void @llvm.dbg.declare(metadata ptr %data.dbg.spill, metadata !1250, metadata !DIExpression()), !dbg !1305
  call void @llvm.dbg.declare(metadata ptr %data.dbg.spill, metadata !1291, metadata !DIExpression()), !dbg !1307
  %len = sub i64 %self.1, %mid, !dbg !1309
  store i64 %len, ptr %len.dbg.spill1, align 8, !dbg !1309
  call void @llvm.dbg.declare(metadata ptr %len.dbg.spill1, metadata !1236, metadata !DIExpression()), !dbg !1310
  call void @llvm.dbg.declare(metadata ptr %len.dbg.spill1, metadata !1252, metadata !DIExpression()), !dbg !1311
  call void @llvm.dbg.declare(metadata ptr %len.dbg.spill1, metadata !1266, metadata !DIExpression()), !dbg !1312
  store ptr %data, ptr %data_pointer.dbg.spill2, align 8, !dbg !1314
  call void @llvm.dbg.declare(metadata ptr %data_pointer.dbg.spill2, metadata !1264, metadata !DIExpression()), !dbg !1315
  store ptr %data, ptr %_21, align 8, !dbg !1316
  %7 = getelementptr inbounds i8, ptr %_21, i64 8, !dbg !1316
  store i64 %len, ptr %7, align 8, !dbg !1316
  %8 = load ptr, ptr %_21, align 8, !dbg !1317, !noundef !23
  %9 = getelementptr inbounds i8, ptr %_21, i64 8, !dbg !1317
  %10 = load i64, ptr %9, align 8, !dbg !1317, !noundef !23
  store ptr %8, ptr %_20, align 8, !dbg !1317
  %11 = getelementptr inbounds i8, ptr %_20, i64 8, !dbg !1317
  store i64 %10, ptr %11, align 8, !dbg !1317
  %_18.0 = load ptr, ptr %_20, align 8, !dbg !1317, !noundef !23
  %12 = getelementptr inbounds i8, ptr %_20, i64 8, !dbg !1317
  %_18.1 = load i64, ptr %12, align 8, !dbg !1317, !noundef !23
  store ptr %_14.0, ptr %_5, align 8, !dbg !1318
  %13 = getelementptr inbounds i8, ptr %_5, i64 8, !dbg !1318
  store i64 %_14.1, ptr %13, align 8, !dbg !1318
  %14 = getelementptr inbounds { { ptr, i64 }, { ptr, i64 } }, ptr %_5, i32 0, i32 1, !dbg !1318
  store ptr %_18.0, ptr %14, align 8, !dbg !1318
  %15 = getelementptr inbounds i8, ptr %14, i64 8, !dbg !1318
  store i64 %_18.1, ptr %15, align 8, !dbg !1318
  call void @llvm.memcpy.p0.p0.i64(ptr align 8 %_0, ptr align 8 %_5, i64 32, i1 false), !dbg !1319
  br label %bb3, !dbg !1278

bb3:                                              ; preds = %bb1, %bb2
  ret void, !dbg !1320
}

; core::slice::<impl [T]>::split_at
; Function Attrs: inlinehint nonlazybind uwtable
define internal void @"_ZN4core5slice29_$LT$impl$u20$$u5b$T$u5d$$GT$8split_at17h30e0d66c208b0e61E"(ptr sret({ { ptr, i64 }, { ptr, i64 } }) align 8 %pair, ptr align 1 %self.0, i64 %self.1, i64 %mid, ptr align 8 %0) unnamed_addr #1 !dbg !1321 {
start:
  %pieces.dbg.spill = alloca { ptr, i64 }, align 8
  %mid.dbg.spill = alloca i64, align 8
  %self.dbg.spill = alloca { ptr, i64 }, align 8
  %_11 = alloca %"core::fmt::Arguments<'_>", align 8
  %_6 = alloca %"core::fmt::Arguments<'_>", align 8
  %_3 = alloca %"core::option::Option<(&[u8], &[u8])>", align 8
  call void @llvm.dbg.declare(metadata ptr %pair, metadata !1327, metadata !DIExpression()), !dbg !1329
  store ptr %self.0, ptr %self.dbg.spill, align 8
  %1 = getelementptr inbounds i8, ptr %self.dbg.spill, i64 8
  store i64 %self.1, ptr %1, align 8
  call void @llvm.dbg.declare(metadata ptr %self.dbg.spill, metadata !1325, metadata !DIExpression()), !dbg !1330
  store i64 %mid, ptr %mid.dbg.spill, align 8
  call void @llvm.dbg.declare(metadata ptr %mid.dbg.spill, metadata !1326, metadata !DIExpression()), !dbg !1331
; call core::slice::<impl [T]>::split_at_checked
  call void @"_ZN4core5slice29_$LT$impl$u20$$u5b$T$u5d$$GT$16split_at_checked17ha974952410cd44e6E"(ptr sret(%"core::option::Option<(&[u8], &[u8])>") align 8 %_3, ptr align 1 %self.0, i64 %self.1, i64 %mid), !dbg !1332
  %2 = load ptr, ptr %_3, align 8, !dbg !1332, !noundef !23
  %3 = ptrtoint ptr %2 to i64, !dbg !1332
  %4 = icmp eq i64 %3, 0, !dbg !1332
  %_4 = select i1 %4, i64 0, i64 1, !dbg !1332
  %5 = icmp eq i64 %_4, 0, !dbg !1333
  br i1 %5, label %bb2, label %bb3, !dbg !1333

bb2:                                              ; preds = %start
  store ptr @alloc_2b3e40161faa82f936e1f97ea2aea002, ptr %pieces.dbg.spill, align 8, !dbg !1334
  %6 = getelementptr inbounds i8, ptr %pieces.dbg.spill, i64 8, !dbg !1334
  store i64 1, ptr %6, align 8, !dbg !1334
  call void @llvm.dbg.declare(metadata ptr %pieces.dbg.spill, metadata !1335, metadata !DIExpression()), !dbg !1339
  br i1 false, label %bb4, label %bb6, !dbg !1342

bb3:                                              ; preds = %start
  call void @llvm.memcpy.p0.p0.i64(ptr align 8 %pair, ptr align 8 %_3, i64 32, i1 false), !dbg !1343
  ret void, !dbg !1344

bb6:                                              ; preds = %bb2
  store ptr @alloc_2b3e40161faa82f936e1f97ea2aea002, ptr %_6, align 8, !dbg !1345
  %7 = getelementptr inbounds i8, ptr %_6, i64 8, !dbg !1345
  store i64 1, ptr %7, align 8, !dbg !1345
  %8 = load ptr, ptr @0, align 8, !dbg !1345, !align !677, !noundef !23
  %9 = load i64, ptr getelementptr inbounds (i8, ptr @0, i64 8), align 8, !dbg !1345
  %10 = getelementptr inbounds %"core::fmt::Arguments<'_>", ptr %_6, i32 0, i32 2, !dbg !1345
  store ptr %8, ptr %10, align 8, !dbg !1345
  %11 = getelementptr inbounds i8, ptr %10, i64 8, !dbg !1345
  store i64 %9, ptr %11, align 8, !dbg !1345
  %12 = getelementptr inbounds %"core::fmt::Arguments<'_>", ptr %_6, i32 0, i32 1, !dbg !1345
  store ptr @alloc_513570631223a12912d85da2bec3b15a, ptr %12, align 8, !dbg !1345
  %13 = getelementptr inbounds i8, ptr %12, i64 8, !dbg !1345
  store i64 0, ptr %13, align 8, !dbg !1345
; call core::panicking::panic_fmt
  call void @_ZN4core9panicking9panic_fmt17h0d3f1893e38be419E(ptr align 8 %_6, ptr align 8 %0) #13, !dbg !1346
  unreachable, !dbg !1346

bb4:                                              ; preds = %bb2
; call core::fmt::Arguments::new_const
  call void @_ZN4core3fmt9Arguments9new_const17h8fdbc97b8318abf2E(ptr sret(%"core::fmt::Arguments<'_>") align 8 %_11, ptr align 8 @alloc_af99043bc04c419363a7f04d23183506, i64 1), !dbg !1347
; call core::panicking::panic_fmt
  call void @_ZN4core9panicking9panic_fmt17h0d3f1893e38be419E(ptr align 8 %_11, ptr align 8 @alloc_b1c9b46fd6543b9e0f93a51d745efa2a) #13, !dbg !1347
  unreachable, !dbg !1347

bb7:                                              ; No predecessors!
  unreachable, !dbg !1333
}

; core::result::Result<T,E>::unwrap_or
; Function Attrs: inlinehint nonlazybind uwtable
define internal i64 @"_ZN4core6result19Result$LT$T$C$E$GT$9unwrap_or17h499195346fba80d3E"(ptr align 8 %self, i64 %default) unnamed_addr #1 personality ptr @rust_eh_personality !dbg !1348 {
start:
  %0 = alloca { ptr, i32, [1 x i32] }, align 8
  %t.dbg.spill = alloca i64, align 8
  %default.dbg.spill = alloca i64, align 8
  %_5 = alloca i8, align 1
  %_0 = alloca i64, align 8
  call void @llvm.dbg.declare(metadata ptr %self, metadata !1354, metadata !DIExpression()), !dbg !1358
  store i64 %default, ptr %default.dbg.spill, align 8
  call void @llvm.dbg.declare(metadata ptr %default.dbg.spill, metadata !1355, metadata !DIExpression()), !dbg !1359
  store i8 1, ptr %_5, align 1, !dbg !1360
  %_3 = load i64, ptr %self, align 8, !dbg !1360, !range !1128, !noundef !23
  %1 = icmp eq i64 %_3, 0, !dbg !1361
  br i1 %1, label %bb3, label %bb1, !dbg !1361

bb3:                                              ; preds = %start
  %2 = getelementptr inbounds %"core::result::Result<usize, std::io::error::Error>::Ok", ptr %self, i32 0, i32 1, !dbg !1362
  %t = load i64, ptr %2, align 8, !dbg !1362, !noundef !23
  store i64 %t, ptr %t.dbg.spill, align 8, !dbg !1362
  call void @llvm.dbg.declare(metadata ptr %t.dbg.spill, metadata !1356, metadata !DIExpression()), !dbg !1363
  store i64 %t, ptr %_0, align 8, !dbg !1364
  br label %bb8, !dbg !1365

bb1:                                              ; preds = %start
  store i8 0, ptr %_5, align 1, !dbg !1366
  store i64 %default, ptr %_0, align 8, !dbg !1366
  br label %bb8, !dbg !1366

bb8:                                              ; preds = %bb1, %bb3
  %3 = load i8, ptr %_5, align 1, !dbg !1367, !range !815, !noundef !23
  %4 = trunc i8 %3 to i1, !dbg !1367
  br i1 %4, label %bb7, label %bb4, !dbg !1367

bb4:                                              ; preds = %bb7, %bb8
  %_6 = load i64, ptr %self, align 8, !dbg !1367, !range !1128, !noundef !23
  %5 = icmp eq i64 %_6, 0, !dbg !1367
  br i1 %5, label %bb9, label %bb10, !dbg !1367

bb7:                                              ; preds = %bb8
  br label %bb4, !dbg !1367

bb9:                                              ; preds = %bb10, %bb4
  %6 = load i64, ptr %_0, align 8, !dbg !1368, !noundef !23
  ret i64 %6, !dbg !1368

bb10:                                             ; preds = %bb4
; call core::ptr::drop_in_place<core::result::Result<usize,std::io::error::Error>>
  call void @"_ZN4core3ptr78drop_in_place$LT$core..result..Result$LT$usize$C$std..io..error..Error$GT$$GT$17ha7e9974dad518386E"(ptr align 8 %self), !dbg !1367
  br label %bb9, !dbg !1367

bb5:                                              ; No predecessors!
  %_7 = load i64, ptr %self, align 8, !dbg !1367, !range !1128, !noundef !23
  %7 = icmp eq i64 %_7, 0, !dbg !1367
  br i1 %7, label %bb6, label %bb11, !dbg !1367

bb6:                                              ; preds = %bb11, %bb5
  %8 = load ptr, ptr %0, align 8, !dbg !1369, !noundef !23
  %9 = getelementptr inbounds i8, ptr %0, i64 8, !dbg !1369
  %10 = load i32, ptr %9, align 8, !dbg !1369, !noundef !23
  %11 = insertvalue { ptr, i32 } poison, ptr %8, 0, !dbg !1369
  %12 = insertvalue { ptr, i32 } %11, i32 %10, 1, !dbg !1369
  resume { ptr, i32 } %12, !dbg !1369

bb11:                                             ; preds = %bb5
; invoke core::ptr::drop_in_place<core::result::Result<usize,std::io::error::Error>>
  invoke void @"_ZN4core3ptr78drop_in_place$LT$core..result..Result$LT$usize$C$std..io..error..Error$GT$$GT$17ha7e9974dad518386E"(ptr align 8 %self) #14
          to label %bb6 unwind label %terminate, !dbg !1367

terminate:                                        ; preds = %bb11
  %13 = landingpad { ptr, i32 }
          filter [0 x ptr] zeroinitializer
  %14 = extractvalue { ptr, i32 } %13, 0
  %15 = extractvalue { ptr, i32 } %13, 1
; call core::panicking::panic_in_cleanup
  call void @_ZN4core9panicking16panic_in_cleanup17h803841cec7522372E() #15, !dbg !1369
  unreachable, !dbg !1369

bb2:                                              ; No predecessors!
  unreachable, !dbg !1360
}

; curl::easy::handle::Transfer::read_function
; Function Attrs: nonlazybind uwtable
define internal void @_ZN4curl4easy6handle8Transfer13read_function17hb95fbfd07c1098bbE(ptr sret(%"core::result::Result<(), curl::error::Error>") align 8 %_0, ptr align 8 %self, ptr align 8 %f) unnamed_addr #2 personality ptr @rust_eh_personality !dbg !1370 {
start:
  %0 = alloca { ptr, i32, [1 x i32] }, align 8
  %x.dbg.spill.i = alloca ptr, align 8
  %1 = alloca { ptr, i32, [1 x i32] }, align 8
  %f.dbg.spill = alloca ptr, align 8
  %self.dbg.spill = alloca ptr, align 8
  %_3 = alloca %"core::option::Option<alloc::boxed::Box<dyn for<'a> core::ops::function::FnMut(&'a mut [u8]) -> core::result::Result<usize, curl::easy::handler::ReadError>>>", align 8
  store ptr %self, ptr %self.dbg.spill, align 8
  call void @llvm.dbg.declare(metadata ptr %self.dbg.spill, metadata !1723, metadata !DIExpression()), !dbg !1725
  store ptr %f, ptr %f.dbg.spill, align 8
  call void @llvm.dbg.declare(metadata ptr %f.dbg.spill, metadata !1724, metadata !DIExpression()), !dbg !1726
  store ptr %f, ptr %x.dbg.spill.i, align 8
  call void @llvm.dbg.declare(metadata ptr %x.dbg.spill.i, metadata !1727, metadata !DIExpression()), !dbg !1736
; invoke alloc::alloc::exchange_malloc
  %_4.i = invoke ptr @_ZN5alloc5alloc15exchange_malloc17h95759607079df377E(i64 8, i64 8)
          to label %"_ZN5alloc5boxed12Box$LT$T$GT$3new17h9e5cf0badfc9baa1E.exit" unwind label %cleanup.i, !dbg !1738

cleanup.i:                                        ; preds = %start
  %2 = landingpad { ptr, i32 }
          cleanup
  %3 = extractvalue { ptr, i32 } %2, 0
  %4 = extractvalue { ptr, i32 } %2, 1
  store ptr %3, ptr %0, align 8
  %5 = getelementptr inbounds i8, ptr %0, i64 8
  store i32 %4, ptr %5, align 8
  %6 = load ptr, ptr %0, align 8, !dbg !1739, !noundef !23
  %7 = getelementptr inbounds i8, ptr %0, i64 8, !dbg !1739
  %8 = load i32, ptr %7, align 8, !dbg !1739, !noundef !23
  %9 = insertvalue { ptr, i32 } poison, ptr %6, 0, !dbg !1739
  %10 = insertvalue { ptr, i32 } %9, i32 %8, 1, !dbg !1739
  resume { ptr, i32 } %10, !dbg !1739

"_ZN5alloc5boxed12Box$LT$T$GT$3new17h9e5cf0badfc9baa1E.exit": ; preds = %start
  store ptr %f, ptr %_4.i, align 8, !dbg !1740
  store ptr %_4.i, ptr %_3, align 8, !dbg !1741
  %11 = getelementptr inbounds i8, ptr %_3, i64 8, !dbg !1741
  store ptr @vtable.4, ptr %11, align 8, !dbg !1741
  %12 = getelementptr inbounds i8, ptr %self, i64 8, !dbg !1742
  %_6 = load ptr, ptr %12, align 8, !dbg !1742, !nonnull !23, !align !677, !noundef !23
  %13 = getelementptr inbounds %"curl::easy::handle::Callbacks<'_>", ptr %_6, i32 0, i32 1, !dbg !1742
; invoke core::ptr::drop_in_place<core::option::Option<alloc::boxed::Box<dyn core::ops::function::FnMut<(&mut [u8],)>+Output = core::result::Result<usize,curl::easy::handler::ReadError>>>>
  invoke void @"_ZN4core3ptr243drop_in_place$LT$core..option..Option$LT$alloc..boxed..Box$LT$dyn$u20$core..ops..function..FnMut$LT$$LP$$RF$mut$u20$$u5b$u8$u5d$$C$$RP$$GT$$u2b$Output$u20$$u3d$$u20$core..result..Result$LT$usize$C$curl..easy..handler..ReadError$GT$$GT$$GT$$GT$17hf6a0325c6569e144E"(ptr align 8 %13)
          to label %bb2 unwind label %cleanup, !dbg !1742

bb3:                                              ; preds = %cleanup
  %14 = getelementptr inbounds i8, ptr %self, i64 8, !dbg !1742
  %_8 = load ptr, ptr %14, align 8, !dbg !1742, !nonnull !23, !align !677, !noundef !23
  %_13 = ptrtoint ptr %_8 to i64, !dbg !1742
  %_16 = and i64 %_13, 7, !dbg !1742
  %_17 = icmp eq i64 %_16, 0, !dbg !1742
  %15 = call i1 @llvm.expect.i1(i1 %_17, i1 true), !dbg !1742
  br i1 %15, label %bb4, label %panic1, !dbg !1742

cleanup:                                          ; preds = %"_ZN5alloc5boxed12Box$LT$T$GT$3new17h9e5cf0badfc9baa1E.exit"
  %16 = landingpad { ptr, i32 }
          cleanup
  %17 = extractvalue { ptr, i32 } %16, 0
  %18 = extractvalue { ptr, i32 } %16, 1
  store ptr %17, ptr %1, align 8
  %19 = getelementptr inbounds i8, ptr %1, i64 8
  store i32 %18, ptr %19, align 8
  br label %bb3

bb2:                                              ; preds = %"_ZN5alloc5boxed12Box$LT$T$GT$3new17h9e5cf0badfc9baa1E.exit"
  %20 = getelementptr inbounds i8, ptr %self, i64 8, !dbg !1742
  %_7 = load ptr, ptr %20, align 8, !dbg !1742, !nonnull !23, !align !677, !noundef !23
  %_19 = ptrtoint ptr %_7 to i64, !dbg !1742
  %_22 = and i64 %_19, 7, !dbg !1742
  %_23 = icmp eq i64 %_22, 0, !dbg !1742
  %21 = call i1 @llvm.expect.i1(i1 %_23, i1 true), !dbg !1742
  br i1 %21, label %bb5, label %panic, !dbg !1742

bb5:                                              ; preds = %bb2
  %22 = getelementptr inbounds %"curl::easy::handle::Callbacks<'_>", ptr %_7, i32 0, i32 1, !dbg !1742
  %23 = load ptr, ptr %_3, align 8, !dbg !1742, !align !532, !noundef !23
  %24 = getelementptr inbounds i8, ptr %_3, i64 8, !dbg !1742
  %25 = load ptr, ptr %24, align 8, !dbg !1742
  store ptr %23, ptr %22, align 8, !dbg !1742
  %26 = getelementptr inbounds i8, ptr %22, i64 8, !dbg !1742
  store ptr %25, ptr %26, align 8, !dbg !1742
  store i64 0, ptr %_0, align 8, !dbg !1743
  ret void, !dbg !1744

panic:                                            ; preds = %bb2
; call core::panicking::panic_misaligned_pointer_dereference
  call void @_ZN4core9panicking36panic_misaligned_pointer_dereference17hd2b8821d4f285972E(i64 8, i64 %_19, ptr align 8 @alloc_c8d54b66c5404bccc7cd9c414b3529f0) #16, !dbg !1742
  unreachable, !dbg !1742

bb4:                                              ; preds = %bb3
  %27 = getelementptr inbounds %"curl::easy::handle::Callbacks<'_>", ptr %_8, i32 0, i32 1, !dbg !1742
  %28 = load ptr, ptr %_3, align 8, !dbg !1742, !align !532, !noundef !23
  %29 = getelementptr inbounds i8, ptr %_3, i64 8, !dbg !1742
  %30 = load ptr, ptr %29, align 8, !dbg !1742
  store ptr %28, ptr %27, align 8, !dbg !1742
  %31 = getelementptr inbounds i8, ptr %27, i64 8, !dbg !1742
  store ptr %30, ptr %31, align 8, !dbg !1742
  %32 = load ptr, ptr %1, align 8, !dbg !1745, !noundef !23
  %33 = getelementptr inbounds i8, ptr %1, i64 8, !dbg !1745
  %34 = load i32, ptr %33, align 8, !dbg !1745, !noundef !23
  %35 = insertvalue { ptr, i32 } poison, ptr %32, 0, !dbg !1745
  %36 = insertvalue { ptr, i32 } %35, i32 %34, 1, !dbg !1745
  resume { ptr, i32 } %36, !dbg !1745

panic1:                                           ; preds = %bb3
; call core::panicking::panic_misaligned_pointer_dereference
  call void @_ZN4core9panicking36panic_misaligned_pointer_dereference17hd2b8821d4f285972E(i64 8, i64 %_13, ptr align 8 @alloc_c8d54b66c5404bccc7cd9c414b3529f0) #15, !dbg !1742
  unreachable, !dbg !1742
}

; curl::easy::handle::Transfer::write_function
; Function Attrs: nonlazybind uwtable
define internal void @_ZN4curl4easy6handle8Transfer14write_function17hf617c16ee8bea413E(ptr sret(%"core::result::Result<(), curl::error::Error>") align 8 %_0, ptr align 8 %self, ptr align 8 %f) unnamed_addr #2 personality ptr @rust_eh_personality !dbg !1746 {
start:
  %0 = alloca { ptr, i32, [1 x i32] }, align 8
  %x.dbg.spill.i = alloca ptr, align 8
  %1 = alloca { ptr, i32, [1 x i32] }, align 8
  %f.dbg.spill = alloca ptr, align 8
  %self.dbg.spill = alloca ptr, align 8
  %_3 = alloca %"core::option::Option<alloc::boxed::Box<dyn for<'a> core::ops::function::FnMut(&'a [u8]) -> core::result::Result<usize, curl::easy::handler::WriteError>>>", align 8
  store ptr %self, ptr %self.dbg.spill, align 8
  call void @llvm.dbg.declare(metadata ptr %self.dbg.spill, metadata !1753, metadata !DIExpression()), !dbg !1755
  store ptr %f, ptr %f.dbg.spill, align 8
  call void @llvm.dbg.declare(metadata ptr %f.dbg.spill, metadata !1754, metadata !DIExpression()), !dbg !1756
  store ptr %f, ptr %x.dbg.spill.i, align 8
  call void @llvm.dbg.declare(metadata ptr %x.dbg.spill.i, metadata !1757, metadata !DIExpression()), !dbg !1763
; invoke alloc::alloc::exchange_malloc
  %_4.i = invoke ptr @_ZN5alloc5alloc15exchange_malloc17h95759607079df377E(i64 8, i64 8)
          to label %"_ZN5alloc5boxed12Box$LT$T$GT$3new17hed5812d817330b3cE.exit" unwind label %cleanup.i, !dbg !1765

cleanup.i:                                        ; preds = %start
  %2 = landingpad { ptr, i32 }
          cleanup
  %3 = extractvalue { ptr, i32 } %2, 0
  %4 = extractvalue { ptr, i32 } %2, 1
  store ptr %3, ptr %0, align 8
  %5 = getelementptr inbounds i8, ptr %0, i64 8
  store i32 %4, ptr %5, align 8
  %6 = load ptr, ptr %0, align 8, !dbg !1766, !noundef !23
  %7 = getelementptr inbounds i8, ptr %0, i64 8, !dbg !1766
  %8 = load i32, ptr %7, align 8, !dbg !1766, !noundef !23
  %9 = insertvalue { ptr, i32 } poison, ptr %6, 0, !dbg !1766
  %10 = insertvalue { ptr, i32 } %9, i32 %8, 1, !dbg !1766
  resume { ptr, i32 } %10, !dbg !1766

"_ZN5alloc5boxed12Box$LT$T$GT$3new17hed5812d817330b3cE.exit": ; preds = %start
  store ptr %f, ptr %_4.i, align 8, !dbg !1767
  store ptr %_4.i, ptr %_3, align 8, !dbg !1768
  %11 = getelementptr inbounds i8, ptr %_3, i64 8, !dbg !1768
  store ptr @vtable.5, ptr %11, align 8, !dbg !1768
  %12 = getelementptr inbounds i8, ptr %self, i64 8, !dbg !1769
  %_6 = load ptr, ptr %12, align 8, !dbg !1769, !nonnull !23, !align !677, !noundef !23
; invoke core::ptr::drop_in_place<core::option::Option<alloc::boxed::Box<dyn core::ops::function::FnMut<(&[u8],)>+Output = core::result::Result<usize,curl::easy::handler::WriteError>>>>
  invoke void @"_ZN4core3ptr236drop_in_place$LT$core..option..Option$LT$alloc..boxed..Box$LT$dyn$u20$core..ops..function..FnMut$LT$$LP$$RF$$u5b$u8$u5d$$C$$RP$$GT$$u2b$Output$u20$$u3d$$u20$core..result..Result$LT$usize$C$curl..easy..handler..WriteError$GT$$GT$$GT$$GT$17hf1c6e96a88b49dd1E"(ptr align 8 %_6)
          to label %bb2 unwind label %cleanup, !dbg !1769

bb3:                                              ; preds = %cleanup
  %13 = getelementptr inbounds i8, ptr %self, i64 8, !dbg !1769
  %_8 = load ptr, ptr %13, align 8, !dbg !1769, !nonnull !23, !align !677, !noundef !23
  %_13 = ptrtoint ptr %_8 to i64, !dbg !1769
  %_16 = and i64 %_13, 7, !dbg !1769
  %_17 = icmp eq i64 %_16, 0, !dbg !1769
  %14 = call i1 @llvm.expect.i1(i1 %_17, i1 true), !dbg !1769
  br i1 %14, label %bb4, label %panic1, !dbg !1769

cleanup:                                          ; preds = %"_ZN5alloc5boxed12Box$LT$T$GT$3new17hed5812d817330b3cE.exit"
  %15 = landingpad { ptr, i32 }
          cleanup
  %16 = extractvalue { ptr, i32 } %15, 0
  %17 = extractvalue { ptr, i32 } %15, 1
  store ptr %16, ptr %1, align 8
  %18 = getelementptr inbounds i8, ptr %1, i64 8
  store i32 %17, ptr %18, align 8
  br label %bb3

bb2:                                              ; preds = %"_ZN5alloc5boxed12Box$LT$T$GT$3new17hed5812d817330b3cE.exit"
  %19 = getelementptr inbounds i8, ptr %self, i64 8, !dbg !1769
  %_7 = load ptr, ptr %19, align 8, !dbg !1769, !nonnull !23, !align !677, !noundef !23
  %_19 = ptrtoint ptr %_7 to i64, !dbg !1769
  %_22 = and i64 %_19, 7, !dbg !1769
  %_23 = icmp eq i64 %_22, 0, !dbg !1769
  %20 = call i1 @llvm.expect.i1(i1 %_23, i1 true), !dbg !1769
  br i1 %20, label %bb5, label %panic, !dbg !1769

bb5:                                              ; preds = %bb2
  %21 = load ptr, ptr %_3, align 8, !dbg !1769, !align !532, !noundef !23
  %22 = getelementptr inbounds i8, ptr %_3, i64 8, !dbg !1769
  %23 = load ptr, ptr %22, align 8, !dbg !1769
  store ptr %21, ptr %_7, align 8, !dbg !1769
  %24 = getelementptr inbounds i8, ptr %_7, i64 8, !dbg !1769
  store ptr %23, ptr %24, align 8, !dbg !1769
  store i64 0, ptr %_0, align 8, !dbg !1770
  ret void, !dbg !1771

panic:                                            ; preds = %bb2
; call core::panicking::panic_misaligned_pointer_dereference
  call void @_ZN4core9panicking36panic_misaligned_pointer_dereference17hd2b8821d4f285972E(i64 8, i64 %_19, ptr align 8 @alloc_16c983473bd57c642bcfa584e58e5107) #16, !dbg !1769
  unreachable, !dbg !1769

bb4:                                              ; preds = %bb3
  %25 = load ptr, ptr %_3, align 8, !dbg !1769, !align !532, !noundef !23
  %26 = getelementptr inbounds i8, ptr %_3, i64 8, !dbg !1769
  %27 = load ptr, ptr %26, align 8, !dbg !1769
  store ptr %25, ptr %_8, align 8, !dbg !1769
  %28 = getelementptr inbounds i8, ptr %_8, i64 8, !dbg !1769
  store ptr %27, ptr %28, align 8, !dbg !1769
  %29 = load ptr, ptr %1, align 8, !dbg !1772, !noundef !23
  %30 = getelementptr inbounds i8, ptr %1, i64 8, !dbg !1772
  %31 = load i32, ptr %30, align 8, !dbg !1772, !noundef !23
  %32 = insertvalue { ptr, i32 } poison, ptr %29, 0, !dbg !1772
  %33 = insertvalue { ptr, i32 } %32, i32 %31, 1, !dbg !1772
  resume { ptr, i32 } %33, !dbg !1772

panic1:                                           ; preds = %bb3
; call core::panicking::panic_misaligned_pointer_dereference
  call void @_ZN4core9panicking36panic_misaligned_pointer_dereference17hd2b8821d4f285972E(i64 8, i64 %_13, ptr align 8 @alloc_16c983473bd57c642bcfa584e58e5107) #15, !dbg !1769
  unreachable, !dbg !1769
}

; <() as std::process::Termination>::report
; Function Attrs: inlinehint nonlazybind uwtable
define internal i8 @"_ZN54_$LT$$LP$$RP$$u20$as$u20$std..process..Termination$GT$6report17h369ca347eafe42b0E"() unnamed_addr #1 !dbg !1773 {
start:
  %_1.dbg.spill = alloca {}, align 1
  %self.dbg.spill = alloca {}, align 1
  call void @llvm.dbg.declare(metadata ptr %self.dbg.spill, metadata !1778, metadata !DIExpression()), !dbg !1780
  call void @llvm.dbg.declare(metadata ptr %_1.dbg.spill, metadata !1779, metadata !DIExpression()), !dbg !1780
  ret i8 0, !dbg !1781
}

; alloc::str::<impl alloc::borrow::ToOwned for str>::to_owned
; Function Attrs: inlinehint nonlazybind uwtable
define internal void @"_ZN5alloc3str56_$LT$impl$u20$alloc..borrow..ToOwned$u20$for$u20$str$GT$8to_owned17h95c81f33fcfdddecE"(ptr sret(%"alloc::string::String") align 8 %_0, ptr align 1 %self.0, i64 %self.1) unnamed_addr #1 !dbg !1782 {
start:
  %self.dbg.spill10 = alloca ptr, align 8
  %dest.dbg.spill = alloca ptr, align 8
  %self.dbg.spill9 = alloca ptr, align 8
  %self.dbg.spill8 = alloca ptr, align 8
  %self.dbg.spill7 = alloca ptr, align 8
  %self.dbg.spill6 = alloca ptr, align 8
  %capacity.dbg.spill = alloca i64, align 8
  %self.dbg.spill5 = alloca { ptr, i64 }, align 8
  %self.dbg.spill = alloca { ptr, i64 }, align 8
  %v = alloca %"alloc::vec::Vec<u8>", align 8
  %bytes = alloca %"alloc::vec::Vec<u8>", align 8
  %alloc.dbg.spill4 = alloca %"alloc::alloc::Global", align 1
  %alloc.dbg.spill3 = alloca %"alloc::alloc::Global", align 1
  %alloc.dbg.spill2 = alloca %"alloc::alloc::Global", align 1
  %alloc.dbg.spill1 = alloca %"alloc::alloc::Global", align 1
  %alloc.dbg.spill = alloca %"alloc::alloc::Global", align 1
  call void @llvm.dbg.declare(metadata ptr %alloc.dbg.spill, metadata !1790, metadata !DIExpression()), !dbg !1800
  call void @llvm.dbg.declare(metadata ptr %alloc.dbg.spill1, metadata !1815, metadata !DIExpression()), !dbg !1821
  call void @llvm.dbg.declare(metadata ptr %alloc.dbg.spill2, metadata !1823, metadata !DIExpression()), !dbg !1831
  call void @llvm.dbg.declare(metadata ptr %alloc.dbg.spill3, metadata !1833, metadata !DIExpression()), !dbg !1842
  call void @llvm.dbg.declare(metadata ptr %alloc.dbg.spill4, metadata !1844, metadata !DIExpression()), !dbg !1853
  store ptr %self.0, ptr %self.dbg.spill, align 8, !dbg !1853
  %0 = getelementptr inbounds i8, ptr %self.dbg.spill, i64 8, !dbg !1853
  store i64 %self.1, ptr %0, align 8, !dbg !1853
  call void @llvm.dbg.declare(metadata ptr %self.dbg.spill, metadata !1789, metadata !DIExpression()), !dbg !1855
  call void @llvm.dbg.declare(metadata ptr %self.dbg.spill, metadata !1856, metadata !DIExpression()), !dbg !1864
  call void @llvm.dbg.declare(metadata ptr %bytes, metadata !1866, metadata !DIExpression()), !dbg !1874
  call void @llvm.dbg.declare(metadata ptr %v, metadata !1829, metadata !DIExpression()), !dbg !1876
  store ptr %self.0, ptr %self.dbg.spill5, align 8, !dbg !1877
  %1 = getelementptr inbounds i8, ptr %self.dbg.spill5, i64 8, !dbg !1877
  store i64 %self.1, ptr %1, align 8, !dbg !1877
  call void @llvm.dbg.declare(metadata ptr %self.dbg.spill5, metadata !1813, metadata !DIExpression()), !dbg !1878
  call void @llvm.dbg.declare(metadata ptr %self.dbg.spill5, metadata !1807, metadata !DIExpression()), !dbg !1879
  call void @llvm.dbg.declare(metadata ptr %self.dbg.spill5, metadata !1799, metadata !DIExpression()), !dbg !1880
  call void @llvm.dbg.declare(metadata ptr %self.dbg.spill5, metadata !1820, metadata !DIExpression()), !dbg !1881
  call void @llvm.dbg.declare(metadata ptr %self.dbg.spill5, metadata !1828, metadata !DIExpression()), !dbg !1882
  call void @llvm.dbg.declare(metadata ptr %self.dbg.spill5, metadata !1883, metadata !DIExpression()), !dbg !1887
  store i64 %self.1, ptr %capacity.dbg.spill, align 8, !dbg !1889
  call void @llvm.dbg.declare(metadata ptr %capacity.dbg.spill, metadata !1841, metadata !DIExpression()), !dbg !1890
  call void @llvm.dbg.declare(metadata ptr %capacity.dbg.spill, metadata !1852, metadata !DIExpression()), !dbg !1891
  call void @llvm.dbg.declare(metadata ptr %capacity.dbg.spill, metadata !1892, metadata !DIExpression()), !dbg !1898
  call void @llvm.dbg.declare(metadata ptr %capacity.dbg.spill, metadata !1900, metadata !DIExpression()), !dbg !1906
  call void @llvm.dbg.declare(metadata ptr %capacity.dbg.spill, metadata !1908, metadata !DIExpression()), !dbg !1917
; call alloc::raw_vec::RawVec<T,A>::allocate_in
  %2 = call { i64, ptr } @"_ZN5alloc7raw_vec19RawVec$LT$T$C$A$GT$11allocate_in17hf233f763ba172f41E"(i64 %self.1, i1 zeroext false), !dbg !1919
  %_10.0 = extractvalue { i64, ptr } %2, 0, !dbg !1919
  %_10.1 = extractvalue { i64, ptr } %2, 1, !dbg !1919
  store i64 %_10.0, ptr %v, align 8, !dbg !1920
  %3 = getelementptr inbounds i8, ptr %v, i64 8, !dbg !1920
  store ptr %_10.1, ptr %3, align 8, !dbg !1920
  %4 = getelementptr inbounds %"alloc::vec::Vec<u8>", ptr %v, i32 0, i32 1, !dbg !1920
  store i64 0, ptr %4, align 8, !dbg !1920
  store ptr %self.0, ptr %self.dbg.spill6, align 8, !dbg !1921
  call void @llvm.dbg.declare(metadata ptr %self.dbg.spill6, metadata !1896, metadata !DIExpression()), !dbg !1922
  call void @llvm.dbg.declare(metadata ptr %self.dbg.spill6, metadata !1904, metadata !DIExpression()), !dbg !1923
  store ptr %v, ptr %self.dbg.spill7, align 8, !dbg !1924
  call void @llvm.dbg.declare(metadata ptr %self.dbg.spill7, metadata !1925, metadata !DIExpression()), !dbg !1932
  store ptr %v, ptr %self.dbg.spill8, align 8, !dbg !1934
  call void @llvm.dbg.declare(metadata ptr %self.dbg.spill8, metadata !1935, metadata !DIExpression()), !dbg !1943
  %5 = getelementptr inbounds i8, ptr %v, i64 8, !dbg !1945
  %self = load ptr, ptr %5, align 8, !dbg !1945, !nonnull !23, !noundef !23
  store ptr %self, ptr %self.dbg.spill9, align 8, !dbg !1945
  call void @llvm.dbg.declare(metadata ptr %self.dbg.spill9, metadata !1946, metadata !DIExpression()), !dbg !1954
  call void @llvm.dbg.declare(metadata ptr %self.dbg.spill9, metadata !1956, metadata !DIExpression()), !dbg !1963
  store ptr %self, ptr %dest.dbg.spill, align 8, !dbg !1965
  call void @llvm.dbg.declare(metadata ptr %dest.dbg.spill, metadata !1897, metadata !DIExpression()), !dbg !1966
  call void @llvm.dbg.declare(metadata ptr %dest.dbg.spill, metadata !1905, metadata !DIExpression()), !dbg !1967
  %6 = mul i64 %self.1, 1, !dbg !1968
  call void @llvm.memcpy.p0.p0.i64(ptr align 1 %self, ptr align 1 %self.0, i64 %6, i1 false), !dbg !1968
  store ptr %v, ptr %self.dbg.spill10, align 8, !dbg !1969
  call void @llvm.dbg.declare(metadata ptr %self.dbg.spill10, metadata !1916, metadata !DIExpression()), !dbg !1970
  call void @llvm.dbg.declare(metadata ptr %self.dbg.spill10, metadata !1971, metadata !DIExpression()), !dbg !1979
  %7 = getelementptr inbounds %"alloc::vec::Vec<u8>", ptr %v, i32 0, i32 1, !dbg !1981
  store i64 %self.1, ptr %7, align 8, !dbg !1981
  call void @llvm.memcpy.p0.p0.i64(ptr align 8 %bytes, ptr align 8 %v, i64 24, i1 false), !dbg !1982
  call void @llvm.memcpy.p0.p0.i64(ptr align 8 %_0, ptr align 8 %bytes, i64 24, i1 false), !dbg !1983
  ret void, !dbg !1984
}

; alloc::alloc::exchange_malloc
; Function Attrs: inlinehint nonlazybind uwtable
define internal ptr @_ZN5alloc5alloc15exchange_malloc17h95759607079df377E(i64 %size, i64 %align) unnamed_addr #1 !dbg !1985 {
start:
  %ptr.dbg.spill2 = alloca ptr, align 8
  %self.dbg.spill1 = alloca { ptr, i64 }, align 8
  %ptr.dbg.spill = alloca %"core::ptr::non_null::NonNull<[u8]>", align 8
  %align.dbg.spill = alloca i64, align 8
  %size.dbg.spill = alloca i64, align 8
  %self = alloca ptr, align 8
  %_4 = alloca %"core::result::Result<core::ptr::non_null::NonNull<[u8]>, core::alloc::AllocError>", align 8
  %layout = alloca %"core::alloc::layout::Layout", align 8
  %self.dbg.spill = alloca ptr, align 8
  store ptr @alloc_513570631223a12912d85da2bec3b15a, ptr %self.dbg.spill, align 8, !dbg !2008
  call void @llvm.dbg.declare(metadata ptr %self.dbg.spill, metadata !2033, metadata !DIExpression()), !dbg !2008
  store i64 %size, ptr %size.dbg.spill, align 8, !dbg !2008
  call void @llvm.dbg.declare(metadata ptr %size.dbg.spill, metadata !1990, metadata !DIExpression()), !dbg !2036
  call void @llvm.dbg.declare(metadata ptr %size.dbg.spill, metadata !2037, metadata !DIExpression()), !dbg !2046
  store i64 %align, ptr %align.dbg.spill, align 8, !dbg !2008
  call void @llvm.dbg.declare(metadata ptr %align.dbg.spill, metadata !1991, metadata !DIExpression()), !dbg !2048
  call void @llvm.dbg.declare(metadata ptr %align.dbg.spill, metadata !2045, metadata !DIExpression()), !dbg !2049
  call void @llvm.dbg.declare(metadata ptr %align.dbg.spill, metadata !2050, metadata !DIExpression()), !dbg !2058
  call void @llvm.dbg.declare(metadata ptr %layout, metadata !1992, metadata !DIExpression()), !dbg !2060
  call void @llvm.dbg.declare(metadata ptr %layout, metadata !2034, metadata !DIExpression()), !dbg !2061
  call void @llvm.dbg.declare(metadata ptr %self, metadata !2062, metadata !DIExpression()), !dbg !2066
  %0 = getelementptr inbounds i8, ptr %layout, i64 8, !dbg !2076
  store i64 %size, ptr %0, align 8, !dbg !2076
  store i64 %align, ptr %layout, align 8, !dbg !2076
  %1 = load i64, ptr %layout, align 8, !dbg !2077, !range !2078, !noundef !23
  %2 = getelementptr inbounds i8, ptr %layout, i64 8, !dbg !2077
  %3 = load i64, ptr %2, align 8, !dbg !2077, !noundef !23
; call alloc::alloc::Global::alloc_impl
  %4 = call { ptr, i64 } @_ZN5alloc5alloc6Global10alloc_impl17h75992adccd847fbbE(ptr align 1 @alloc_513570631223a12912d85da2bec3b15a, i64 %1, i64 %3, i1 zeroext false), !dbg !2077
  %5 = extractvalue { ptr, i64 } %4, 0, !dbg !2077
  %6 = extractvalue { ptr, i64 } %4, 1, !dbg !2077
  store ptr %5, ptr %_4, align 8, !dbg !2077
  %7 = getelementptr inbounds i8, ptr %_4, i64 8, !dbg !2077
  store i64 %6, ptr %7, align 8, !dbg !2077
  %8 = load ptr, ptr %_4, align 8, !dbg !2079, !noundef !23
  %9 = ptrtoint ptr %8 to i64, !dbg !2079
  %10 = icmp eq i64 %9, 0, !dbg !2079
  %_5 = select i1 %10, i64 1, i64 0, !dbg !2079
  %11 = icmp eq i64 %_5, 0, !dbg !2080
  br i1 %11, label %bb2, label %bb1, !dbg !2080

bb2:                                              ; preds = %start
  %ptr.0 = load ptr, ptr %_4, align 8, !dbg !2081, !nonnull !23, !noundef !23
  %12 = getelementptr inbounds i8, ptr %_4, i64 8, !dbg !2081
  %ptr.1 = load i64, ptr %12, align 8, !dbg !2081, !noundef !23
  store ptr %ptr.0, ptr %ptr.dbg.spill, align 8, !dbg !2081
  %13 = getelementptr inbounds i8, ptr %ptr.dbg.spill, i64 8, !dbg !2081
  store i64 %ptr.1, ptr %13, align 8, !dbg !2081
  call void @llvm.dbg.declare(metadata ptr %ptr.dbg.spill, metadata !2003, metadata !DIExpression()), !dbg !2082
  call void @llvm.dbg.declare(metadata ptr %ptr.dbg.spill, metadata !2074, metadata !DIExpression()), !dbg !2083
  call void @llvm.dbg.declare(metadata ptr %ptr.dbg.spill, metadata !2084, metadata !DIExpression()), !dbg !2091
  call void @llvm.dbg.declare(metadata ptr %ptr.dbg.spill, metadata !2093, metadata !DIExpression()), !dbg !2104
  store ptr %ptr.0, ptr %self.dbg.spill1, align 8, !dbg !2106
  %14 = getelementptr inbounds i8, ptr %self.dbg.spill1, i64 8, !dbg !2106
  store i64 %ptr.1, ptr %14, align 8, !dbg !2106
  call void @llvm.dbg.declare(metadata ptr %self.dbg.spill1, metadata !2107, metadata !DIExpression()), !dbg !2116
  store ptr %ptr.0, ptr %ptr.dbg.spill2, align 8, !dbg !2118
  call void @llvm.dbg.declare(metadata ptr %ptr.dbg.spill2, metadata !2119, metadata !DIExpression()), !dbg !2123
  store ptr %ptr.0, ptr %self, align 8, !dbg !2125
  ret ptr %ptr.0, !dbg !2126

bb1:                                              ; preds = %start
  %15 = load i64, ptr %layout, align 8, !dbg !2127, !range !2078, !noundef !23
  %16 = getelementptr inbounds i8, ptr %layout, i64 8, !dbg !2127
  %17 = load i64, ptr %16, align 8, !dbg !2127, !noundef !23
; call alloc::alloc::handle_alloc_error
  call void @_ZN5alloc5alloc18handle_alloc_error17h48039cdfd0d60c1cE(i64 %15, i64 %17) #13, !dbg !2127
  unreachable, !dbg !2127

bb4:                                              ; No predecessors!
  unreachable, !dbg !2080
}

; alloc::alloc::Global::alloc_impl
; Function Attrs: inlinehint nonlazybind uwtable
define internal { ptr, i64 } @_ZN5alloc5alloc6Global10alloc_impl17h75992adccd847fbbE(ptr align 1 %self, i64 %0, i64 %1, i1 zeroext %zeroed) unnamed_addr #1 !dbg !2128 {
start:
  %ptr.dbg.spill31 = alloca { ptr, i64 }, align 8
  %data_pointer.dbg.spill28 = alloca ptr, align 8
  %data.dbg.spill27 = alloca ptr, align 8
  %ptr.dbg.spill26 = alloca ptr, align 8
  %v.dbg.spill24 = alloca ptr, align 8
  %v.dbg.spill = alloca ptr, align 8
  %ptr.dbg.spill22 = alloca ptr, align 8
  %self.dbg.spill20 = alloca i64, align 8
  %self.dbg.spill18 = alloca ptr, align 8
  %self.dbg.spill17 = alloca ptr, align 8
  %self.dbg.spill16 = alloca i64, align 8
  %self.dbg.spill14 = alloca ptr, align 8
  %self.dbg.spill13 = alloca ptr, align 8
  %2 = alloca i8, align 1
  %ptr.dbg.spill12 = alloca { ptr, i64 }, align 8
  %data_pointer.dbg.spill = alloca ptr, align 8
  %data.dbg.spill = alloca ptr, align 8
  %ptr.dbg.spill = alloca ptr, align 8
  %addr.dbg.spill = alloca i64, align 8
  %self.dbg.spill11 = alloca i64, align 8
  %self.dbg.spill9 = alloca ptr, align 8
  %size.dbg.spill = alloca i64, align 8
  %self.dbg.spill8 = alloca ptr, align 8
  %zeroed.dbg.spill = alloca i8, align 1
  %self.dbg.spill = alloca ptr, align 8
  %_79 = alloca %"core::ptr::metadata::PtrComponents<[u8]>", align 8
  %_78 = alloca %"core::ptr::metadata::PtrRepr<[u8]>", align 8
  %_64 = alloca ptr, align 8
  %_59 = alloca i64, align 8
  %_44 = alloca i64, align 8
  %_34 = alloca %"core::ptr::metadata::PtrComponents<[u8]>", align 8
  %_33 = alloca %"core::ptr::metadata::PtrRepr<[u8]>", align 8
  %_22 = alloca i64, align 8
  %_18 = alloca %"core::ptr::non_null::NonNull<[u8]>", align 8
  %self7 = alloca ptr, align 8
  %self6 = alloca ptr, align 8
  %_12 = alloca ptr, align 8
  %layout5 = alloca %"core::alloc::layout::Layout", align 8
  %layout4 = alloca %"core::alloc::layout::Layout", align 8
  %raw_ptr = alloca ptr, align 8
  %data = alloca ptr, align 8
  %_6 = alloca %"core::ptr::non_null::NonNull<[u8]>", align 8
  %_0 = alloca %"core::result::Result<core::ptr::non_null::NonNull<[u8]>, core::alloc::AllocError>", align 8
  %layout = alloca %"core::alloc::layout::Layout", align 8
  %t.dbg.spill = alloca %"core::alloc::AllocError", align 1
  %e.dbg.spill3 = alloca %"core::alloc::AllocError", align 1
  %residual.dbg.spill2 = alloca %"core::result::Result<core::convert::Infallible, core::alloc::AllocError>::Err", align 1
  %e.dbg.spill = alloca %"core::alloc::AllocError", align 1
  %err.dbg.spill = alloca %"core::alloc::AllocError", align 1
  %src.dbg.spill = alloca ptr, align 8
  %metadata.dbg.spill = alloca i64, align 8
  %len.dbg.spill1 = alloca i64, align 8
  %len.dbg.spill = alloca i64, align 8
  %residual.dbg.spill = alloca %"core::result::Result<core::convert::Infallible, core::alloc::AllocError>::Err", align 1
  call void @llvm.dbg.declare(metadata ptr %residual.dbg.spill, metadata !2142, metadata !DIExpression()), !dbg !2164
  store i64 0, ptr %len.dbg.spill, align 8, !dbg !2165
  call void @llvm.dbg.declare(metadata ptr %len.dbg.spill, metadata !2173, metadata !DIExpression()), !dbg !2165
  store i64 0, ptr %len.dbg.spill1, align 8, !dbg !2178
  call void @llvm.dbg.declare(metadata ptr %len.dbg.spill1, metadata !2185, metadata !DIExpression()), !dbg !2178
  store i64 0, ptr %metadata.dbg.spill, align 8, !dbg !2190
  call void @llvm.dbg.declare(metadata ptr %metadata.dbg.spill, metadata !2198, metadata !DIExpression()), !dbg !2190
  store ptr @__rust_no_alloc_shim_is_unstable, ptr %src.dbg.spill, align 8, !dbg !2203
  call void @llvm.dbg.declare(metadata ptr %src.dbg.spill, metadata !2209, metadata !DIExpression()), !dbg !2203
  call void @llvm.dbg.declare(metadata ptr %err.dbg.spill, metadata !2218, metadata !DIExpression()), !dbg !2256
  call void @llvm.dbg.declare(metadata ptr %e.dbg.spill, metadata !2258, metadata !DIExpression()), !dbg !2286
  call void @llvm.dbg.declare(metadata ptr %residual.dbg.spill2, metadata !2288, metadata !DIExpression()), !dbg !2299
  call void @llvm.dbg.declare(metadata ptr %e.dbg.spill3, metadata !2295, metadata !DIExpression()), !dbg !2301
  call void @llvm.dbg.declare(metadata ptr %t.dbg.spill, metadata !2302, metadata !DIExpression()), !dbg !2312
  store i64 %0, ptr %layout, align 8, !dbg !2312
  %3 = getelementptr inbounds i8, ptr %layout, i64 8, !dbg !2312
  store i64 %1, ptr %3, align 8, !dbg !2312
  store ptr %self, ptr %self.dbg.spill, align 8, !dbg !2312
  call void @llvm.dbg.declare(metadata ptr %self.dbg.spill, metadata !2133, metadata !DIExpression()), !dbg !2314
  call void @llvm.dbg.declare(metadata ptr %layout, metadata !2134, metadata !DIExpression()), !dbg !2315
  %4 = zext i1 %zeroed to i8, !dbg !2312
  store i8 %4, ptr %zeroed.dbg.spill, align 1, !dbg !2312
  call void @llvm.dbg.declare(metadata ptr %zeroed.dbg.spill, metadata !2135, metadata !DIExpression()), !dbg !2316
  call void @llvm.dbg.declare(metadata ptr %data, metadata !2172, metadata !DIExpression()), !dbg !2317
  call void @llvm.dbg.declare(metadata ptr %data, metadata !2318, metadata !DIExpression()), !dbg !2324
  call void @llvm.dbg.declare(metadata ptr %raw_ptr, metadata !2138, metadata !DIExpression()), !dbg !2326
  call void @llvm.dbg.declare(metadata ptr %layout4, metadata !2327, metadata !DIExpression()), !dbg !2331
  call void @llvm.dbg.declare(metadata ptr %layout5, metadata !2216, metadata !DIExpression()), !dbg !2333
  call void @llvm.dbg.declare(metadata ptr %self6, metadata !2283, metadata !DIExpression()), !dbg !2334
  call void @llvm.dbg.declare(metadata ptr %self7, metadata !2253, metadata !DIExpression()), !dbg !2335
  store ptr %layout, ptr %self.dbg.spill8, align 8, !dbg !2336
  call void @llvm.dbg.declare(metadata ptr %self.dbg.spill8, metadata !2337, metadata !DIExpression()), !dbg !2349
  %5 = getelementptr inbounds i8, ptr %layout, i64 8, !dbg !2351
  %size = load i64, ptr %5, align 8, !dbg !2351, !noundef !23
  store i64 %size, ptr %size.dbg.spill, align 8, !dbg !2351
  call void @llvm.dbg.declare(metadata ptr %size.dbg.spill, metadata !2136, metadata !DIExpression()), !dbg !2352
  call void @llvm.dbg.declare(metadata ptr %size.dbg.spill, metadata !2176, metadata !DIExpression()), !dbg !2353
  call void @llvm.dbg.declare(metadata ptr %size.dbg.spill, metadata !2188, metadata !DIExpression()), !dbg !2355
  call void @llvm.dbg.declare(metadata ptr %size.dbg.spill, metadata !2201, metadata !DIExpression()), !dbg !2357
  %6 = icmp eq i64 %size, 0, !dbg !2359
  br i1 %6, label %bb2, label %bb1, !dbg !2359

bb2:                                              ; preds = %start
  store ptr %layout, ptr %self.dbg.spill9, align 8, !dbg !2360
  call void @llvm.dbg.declare(metadata ptr %self.dbg.spill9, metadata !2361, metadata !DIExpression()), !dbg !2368
  call void @llvm.dbg.declare(metadata ptr %self.dbg.spill9, metadata !2370, metadata !DIExpression()), !dbg !2379
  %self10 = load i64, ptr %layout, align 8, !dbg !2381, !range !2078, !noundef !23
  store i64 %self10, ptr %self.dbg.spill11, align 8, !dbg !2381
  call void @llvm.dbg.declare(metadata ptr %self.dbg.spill11, metadata !2382, metadata !DIExpression()), !dbg !2393
  store i64 %self10, ptr %_22, align 8, !dbg !2395
  %_23 = load i64, ptr %_22, align 8, !dbg !2395, !range !2078, !noundef !23
  %_24 = icmp uge i64 %_23, 1, !dbg !2395
  %_25 = icmp ule i64 %_23, -9223372036854775808, !dbg !2395
  %_26 = and i1 %_24, %_25, !dbg !2395
  call void @llvm.assume(i1 %_26), !dbg !2395
  store i64 %_23, ptr %addr.dbg.spill, align 8, !dbg !2395
  call void @llvm.dbg.declare(metadata ptr %addr.dbg.spill, metadata !2396, metadata !DIExpression()), !dbg !2402
  %ptr = inttoptr i64 %_23 to ptr, !dbg !2404
  store ptr %ptr, ptr %ptr.dbg.spill, align 8, !dbg !2404
  call void @llvm.dbg.declare(metadata ptr %ptr.dbg.spill, metadata !2405, metadata !DIExpression()), !dbg !2411
  store ptr %ptr, ptr %data, align 8, !dbg !2413
  store ptr %ptr, ptr %data.dbg.spill, align 8, !dbg !2414
  call void @llvm.dbg.declare(metadata ptr %data.dbg.spill, metadata !2184, metadata !DIExpression()), !dbg !2415
  call void @llvm.dbg.declare(metadata ptr %data.dbg.spill, metadata !2416, metadata !DIExpression()), !dbg !2435
  store ptr %ptr, ptr %data_pointer.dbg.spill, align 8, !dbg !2437
  call void @llvm.dbg.declare(metadata ptr %data_pointer.dbg.spill, metadata !2197, metadata !DIExpression()), !dbg !2438
  store ptr %ptr, ptr %_34, align 8, !dbg !2439
  %7 = getelementptr inbounds i8, ptr %_34, i64 8, !dbg !2439
  store i64 0, ptr %7, align 8, !dbg !2439
  %8 = load ptr, ptr %_34, align 8, !dbg !2440, !noundef !23
  %9 = getelementptr inbounds i8, ptr %_34, i64 8, !dbg !2440
  %10 = load i64, ptr %9, align 8, !dbg !2440, !noundef !23
  store ptr %8, ptr %_33, align 8, !dbg !2440
  %11 = getelementptr inbounds i8, ptr %_33, i64 8, !dbg !2440
  store i64 %10, ptr %11, align 8, !dbg !2440
  %ptr.0 = load ptr, ptr %_33, align 8, !dbg !2440, !noundef !23
  %12 = getelementptr inbounds i8, ptr %_33, i64 8, !dbg !2440
  %ptr.1 = load i64, ptr %12, align 8, !dbg !2440, !noundef !23
  store ptr %ptr.0, ptr %ptr.dbg.spill12, align 8, !dbg !2440
  %13 = getelementptr inbounds i8, ptr %ptr.dbg.spill12, i64 8, !dbg !2440
  store i64 %ptr.1, ptr %13, align 8, !dbg !2440
  call void @llvm.dbg.declare(metadata ptr %ptr.dbg.spill12, metadata !2441, metadata !DIExpression()), !dbg !2450
  store ptr %ptr.0, ptr %_6, align 8, !dbg !2452
  %14 = getelementptr inbounds i8, ptr %_6, i64 8, !dbg !2452
  store i64 %ptr.1, ptr %14, align 8, !dbg !2452
  %15 = load ptr, ptr %_6, align 8, !dbg !2453, !nonnull !23, !noundef !23
  %16 = getelementptr inbounds i8, ptr %_6, i64 8, !dbg !2453
  %17 = load i64, ptr %16, align 8, !dbg !2453, !noundef !23
  store ptr %15, ptr %_0, align 8, !dbg !2453
  %18 = getelementptr inbounds i8, ptr %_0, i64 8, !dbg !2453
  store i64 %17, ptr %18, align 8, !dbg !2453
  br label %bb8, !dbg !2454

bb1:                                              ; preds = %start
  br i1 %zeroed, label %bb3, label %bb4, !dbg !2455

bb8:                                              ; preds = %bb7, %bb6, %bb2
  %19 = load ptr, ptr %_0, align 8, !dbg !2456, !noundef !23
  %20 = getelementptr inbounds i8, ptr %_0, i64 8, !dbg !2456
  %21 = load i64, ptr %20, align 8, !dbg !2456
  %22 = insertvalue { ptr, i64 } poison, ptr %19, 0, !dbg !2456
  %23 = insertvalue { ptr, i64 } %22, i64 %21, 1, !dbg !2456
  ret { ptr, i64 } %23, !dbg !2456

bb4:                                              ; preds = %bb1
  %24 = load i64, ptr %layout, align 8, !dbg !2457, !range !2078, !noundef !23
  %25 = getelementptr inbounds i8, ptr %layout, i64 8, !dbg !2457
  %26 = load i64, ptr %25, align 8, !dbg !2457, !noundef !23
  store i64 %24, ptr %layout5, align 8, !dbg !2457
  %27 = getelementptr inbounds i8, ptr %layout5, i64 8, !dbg !2457
  store i64 %26, ptr %27, align 8, !dbg !2457
  %28 = load volatile i8, ptr @__rust_no_alloc_shim_is_unstable, align 1, !dbg !2458
  store i8 %28, ptr %2, align 1, !dbg !2458
  %_49 = load i8, ptr %2, align 1, !dbg !2458, !noundef !23
  store ptr %layout5, ptr %self.dbg.spill13, align 8, !dbg !2459
  call void @llvm.dbg.declare(metadata ptr %self.dbg.spill13, metadata !2347, metadata !DIExpression()), !dbg !2460
  %29 = getelementptr inbounds i8, ptr %layout5, i64 8, !dbg !2462
  %_52 = load i64, ptr %29, align 8, !dbg !2462, !noundef !23
  store ptr %layout5, ptr %self.dbg.spill14, align 8, !dbg !2463
  call void @llvm.dbg.declare(metadata ptr %self.dbg.spill14, metadata !2377, metadata !DIExpression()), !dbg !2464
  %self15 = load i64, ptr %layout5, align 8, !dbg !2466, !range !2078, !noundef !23
  store i64 %self15, ptr %self.dbg.spill16, align 8, !dbg !2466
  call void @llvm.dbg.declare(metadata ptr %self.dbg.spill16, metadata !2391, metadata !DIExpression()), !dbg !2467
  store i64 %self15, ptr %_59, align 8, !dbg !2469
  %_60 = load i64, ptr %_59, align 8, !dbg !2469, !range !2078, !noundef !23
  %_61 = icmp uge i64 %_60, 1, !dbg !2469
  %_62 = icmp ule i64 %_60, -9223372036854775808, !dbg !2469
  %_63 = and i1 %_61, %_62, !dbg !2469
  call void @llvm.assume(i1 %_63), !dbg !2469
  %30 = call ptr @__rust_alloc(i64 %_52, i64 %_60) #17, !dbg !2470
  store ptr %30, ptr %raw_ptr, align 8, !dbg !2470
  br label %bb5, !dbg !2471

bb3:                                              ; preds = %bb1
  %31 = load i64, ptr %layout, align 8, !dbg !2472, !range !2078, !noundef !23
  %32 = getelementptr inbounds i8, ptr %layout, i64 8, !dbg !2472
  %33 = load i64, ptr %32, align 8, !dbg !2472, !noundef !23
  store i64 %31, ptr %layout4, align 8, !dbg !2472
  %34 = getelementptr inbounds i8, ptr %layout4, i64 8, !dbg !2472
  store i64 %33, ptr %34, align 8, !dbg !2472
  store ptr %layout4, ptr %self.dbg.spill17, align 8, !dbg !2473
  call void @llvm.dbg.declare(metadata ptr %self.dbg.spill17, metadata !2345, metadata !DIExpression()), !dbg !2474
  %35 = getelementptr inbounds i8, ptr %layout4, i64 8, !dbg !2476
  %_39 = load i64, ptr %35, align 8, !dbg !2476, !noundef !23
  store ptr %layout4, ptr %self.dbg.spill18, align 8, !dbg !2477
  call void @llvm.dbg.declare(metadata ptr %self.dbg.spill18, metadata !2375, metadata !DIExpression()), !dbg !2478
  %self19 = load i64, ptr %layout4, align 8, !dbg !2480, !range !2078, !noundef !23
  store i64 %self19, ptr %self.dbg.spill20, align 8, !dbg !2480
  call void @llvm.dbg.declare(metadata ptr %self.dbg.spill20, metadata !2389, metadata !DIExpression()), !dbg !2481
  store i64 %self19, ptr %_44, align 8, !dbg !2483
  %_45 = load i64, ptr %_44, align 8, !dbg !2483, !range !2078, !noundef !23
  %_46 = icmp uge i64 %_45, 1, !dbg !2483
  %_47 = icmp ule i64 %_45, -9223372036854775808, !dbg !2483
  %_48 = and i1 %_46, %_47, !dbg !2483
  call void @llvm.assume(i1 %_48), !dbg !2483
  %36 = call ptr @__rust_alloc_zeroed(i64 %_39, i64 %_45) #17, !dbg !2484
  store ptr %36, ptr %raw_ptr, align 8, !dbg !2484
  br label %bb5, !dbg !2471

bb5:                                              ; preds = %bb3, %bb4
  %ptr21 = load ptr, ptr %raw_ptr, align 8, !dbg !2485, !noundef !23
  store ptr %ptr21, ptr %ptr.dbg.spill22, align 8, !dbg !2485
  call void @llvm.dbg.declare(metadata ptr %ptr.dbg.spill22, metadata !2486, metadata !DIExpression()), !dbg !2493
  call void @llvm.dbg.declare(metadata ptr %ptr.dbg.spill22, metadata !2494, metadata !DIExpression()), !dbg !2504
  call void @llvm.dbg.declare(metadata ptr %ptr.dbg.spill22, metadata !2506, metadata !DIExpression()), !dbg !2519
  call void @llvm.dbg.declare(metadata ptr %ptr.dbg.spill22, metadata !2521, metadata !DIExpression()), !dbg !2535
  call void @llvm.dbg.declare(metadata ptr %ptr.dbg.spill22, metadata !2427, metadata !DIExpression()), !dbg !2537
  call void @llvm.dbg.declare(metadata ptr %ptr.dbg.spill22, metadata !2409, metadata !DIExpression()), !dbg !2539
  %_65 = ptrtoint ptr %ptr21 to i64, !dbg !2541
  %37 = icmp eq i64 %_65, 0, !dbg !2542
  br i1 %37, label %bb13, label %bb14, !dbg !2542

bb13:                                             ; preds = %bb5
  store ptr null, ptr %self7, align 8, !dbg !2543
  br label %bb12, !dbg !2544

bb14:                                             ; preds = %bb5
  store ptr %ptr21, ptr %_64, align 8, !dbg !2545
  %38 = load ptr, ptr %_64, align 8, !dbg !2546, !nonnull !23, !noundef !23
  store ptr %38, ptr %self7, align 8, !dbg !2546
  br label %bb12, !dbg !2544

bb12:                                             ; preds = %bb14, %bb13
  %39 = load ptr, ptr %self7, align 8, !dbg !2547, !noundef !23
  %40 = ptrtoint ptr %39 to i64, !dbg !2547
  %41 = icmp eq i64 %40, 0, !dbg !2547
  %_70 = select i1 %41, i64 0, i64 1, !dbg !2547
  %42 = icmp eq i64 %_70, 0, !dbg !2548
  br i1 %42, label %bb15, label %bb16, !dbg !2548

bb15:                                             ; preds = %bb12
  store ptr null, ptr %self6, align 8, !dbg !2549
  br label %bb17, !dbg !2550

bb16:                                             ; preds = %bb12
  %v = load ptr, ptr %self7, align 8, !dbg !2551, !nonnull !23, !noundef !23
  store ptr %v, ptr %v.dbg.spill, align 8, !dbg !2551
  call void @llvm.dbg.declare(metadata ptr %v.dbg.spill, metadata !2254, metadata !DIExpression()), !dbg !2552
  store ptr %v, ptr %self6, align 8, !dbg !2553
  br label %bb17, !dbg !2554

bb17:                                             ; preds = %bb16, %bb15
  %43 = load ptr, ptr %self6, align 8, !dbg !2555, !noundef !23
  %44 = ptrtoint ptr %43 to i64, !dbg !2555
  %45 = icmp eq i64 %44, 0, !dbg !2555
  %_72 = select i1 %45, i64 1, i64 0, !dbg !2555
  %46 = icmp eq i64 %_72, 0, !dbg !2556
  br i1 %46, label %bb20, label %bb19, !dbg !2556

bb20:                                             ; preds = %bb17
  %v23 = load ptr, ptr %self6, align 8, !dbg !2557, !nonnull !23, !noundef !23
  store ptr %v23, ptr %v.dbg.spill24, align 8, !dbg !2557
  call void @llvm.dbg.declare(metadata ptr %v.dbg.spill24, metadata !2284, metadata !DIExpression()), !dbg !2558
  store ptr %v23, ptr %_12, align 8, !dbg !2559
  br label %bb18, !dbg !2560

bb19:                                             ; preds = %bb17
  store ptr null, ptr %_12, align 8, !dbg !2561
  br label %bb18, !dbg !2562

bb18:                                             ; preds = %bb19, %bb20
  %47 = load ptr, ptr %_12, align 8, !dbg !2287, !noundef !23
  %48 = ptrtoint ptr %47 to i64, !dbg !2287
  %49 = icmp eq i64 %48, 0, !dbg !2287
  %_16 = select i1 %49, i64 1, i64 0, !dbg !2287
  %50 = icmp eq i64 %_16, 0, !dbg !2287
  br i1 %50, label %bb6, label %bb7, !dbg !2287

bb6:                                              ; preds = %bb18
  %ptr25 = load ptr, ptr %_12, align 8, !dbg !2287, !nonnull !23, !noundef !23
  store ptr %ptr25, ptr %ptr.dbg.spill26, align 8, !dbg !2287
  call void @llvm.dbg.declare(metadata ptr %ptr.dbg.spill26, metadata !2140, metadata !DIExpression()), !dbg !2563
  call void @llvm.dbg.declare(metadata ptr %ptr.dbg.spill26, metadata !2162, metadata !DIExpression()), !dbg !2564
  call void @llvm.dbg.declare(metadata ptr %ptr.dbg.spill26, metadata !2174, metadata !DIExpression()), !dbg !2565
  call void @llvm.dbg.declare(metadata ptr %ptr.dbg.spill26, metadata !2322, metadata !DIExpression()), !dbg !2566
  store ptr %ptr25, ptr %data.dbg.spill27, align 8, !dbg !2568
  call void @llvm.dbg.declare(metadata ptr %data.dbg.spill27, metadata !2186, metadata !DIExpression()), !dbg !2569
  call void @llvm.dbg.declare(metadata ptr %data.dbg.spill27, metadata !2431, metadata !DIExpression()), !dbg !2570
  store ptr %ptr25, ptr %data_pointer.dbg.spill28, align 8, !dbg !2572
  call void @llvm.dbg.declare(metadata ptr %data_pointer.dbg.spill28, metadata !2199, metadata !DIExpression()), !dbg !2573
  store ptr %ptr25, ptr %_79, align 8, !dbg !2574
  %51 = getelementptr inbounds i8, ptr %_79, i64 8, !dbg !2574
  store i64 %size, ptr %51, align 8, !dbg !2574
  %52 = load ptr, ptr %_79, align 8, !dbg !2575, !noundef !23
  %53 = getelementptr inbounds i8, ptr %_79, i64 8, !dbg !2575
  %54 = load i64, ptr %53, align 8, !dbg !2575, !noundef !23
  store ptr %52, ptr %_78, align 8, !dbg !2575
  %55 = getelementptr inbounds i8, ptr %_78, i64 8, !dbg !2575
  store i64 %54, ptr %55, align 8, !dbg !2575
  %ptr.029 = load ptr, ptr %_78, align 8, !dbg !2575, !noundef !23
  %56 = getelementptr inbounds i8, ptr %_78, i64 8, !dbg !2575
  %ptr.130 = load i64, ptr %56, align 8, !dbg !2575, !noundef !23
  store ptr %ptr.029, ptr %ptr.dbg.spill31, align 8, !dbg !2575
  %57 = getelementptr inbounds i8, ptr %ptr.dbg.spill31, i64 8, !dbg !2575
  store i64 %ptr.130, ptr %57, align 8, !dbg !2575
  call void @llvm.dbg.declare(metadata ptr %ptr.dbg.spill31, metadata !2448, metadata !DIExpression()), !dbg !2576
  store ptr %ptr.029, ptr %_18, align 8, !dbg !2578
  %58 = getelementptr inbounds i8, ptr %_18, i64 8, !dbg !2578
  store i64 %ptr.130, ptr %58, align 8, !dbg !2578
  %59 = load ptr, ptr %_18, align 8, !dbg !2579, !nonnull !23, !noundef !23
  %60 = getelementptr inbounds i8, ptr %_18, i64 8, !dbg !2579
  %61 = load i64, ptr %60, align 8, !dbg !2579, !noundef !23
  store ptr %59, ptr %_0, align 8, !dbg !2579
  %62 = getelementptr inbounds i8, ptr %_0, i64 8, !dbg !2579
  store i64 %61, ptr %62, align 8, !dbg !2579
  br label %bb8, !dbg !2580

bb7:                                              ; preds = %bb18
  %63 = load ptr, ptr @0, align 8, !dbg !2581, !noundef !23
  %64 = load i64, ptr getelementptr inbounds (i8, ptr @0, i64 8), align 8, !dbg !2581
  store ptr %63, ptr %_0, align 8, !dbg !2581
  %65 = getelementptr inbounds i8, ptr %_0, i64 8, !dbg !2581
  store i64 %64, ptr %65, align 8, !dbg !2581
  br label %bb8, !dbg !2456

bb21:                                             ; No predecessors!
  unreachable, !dbg !2548
}

; alloc::string::String::new
; Function Attrs: inlinehint nonlazybind uwtable
define internal void @_ZN5alloc6string6String3new17h7ea8f40de88ae795E(ptr sret(%"alloc::string::String") align 8 %_0) unnamed_addr #1 !dbg !2582 {
start:
  %_1 = alloca %"alloc::vec::Vec<u8>", align 8
  store i64 0, ptr %_1, align 8, !dbg !2586
  %0 = getelementptr inbounds i8, ptr %_1, i64 8, !dbg !2586
  store ptr inttoptr (i64 1 to ptr), ptr %0, align 8, !dbg !2586
  %1 = getelementptr inbounds %"alloc::vec::Vec<u8>", ptr %_1, i32 0, i32 1, !dbg !2586
  store i64 0, ptr %1, align 8, !dbg !2586
  call void @llvm.memcpy.p0.p0.i64(ptr align 8 %_0, ptr align 8 %_1, i64 24, i1 false), !dbg !2593
  ret void, !dbg !2594
}

; alloc::string::String::as_bytes
; Function Attrs: inlinehint nonlazybind uwtable
define internal { ptr, i64 } @_ZN5alloc6string6String8as_bytes17h94544ac82876f995E(ptr align 8 %self) unnamed_addr #1 !dbg !2595 {
start:
  %data_pointer.dbg.spill = alloca ptr, align 8
  %len.dbg.spill = alloca i64, align 8
  %data.dbg.spill = alloca ptr, align 8
  %self.dbg.spill4 = alloca ptr, align 8
  %self.dbg.spill2 = alloca ptr, align 8
  %self.dbg.spill1 = alloca ptr, align 8
  %self.dbg.spill = alloca ptr, align 8
  %_12 = alloca %"core::ptr::metadata::PtrComponents<[u8]>", align 8
  %_11 = alloca %"core::ptr::metadata::PtrRepr<[u8]>", align 8
  store ptr %self, ptr %self.dbg.spill, align 8
  call void @llvm.dbg.declare(metadata ptr %self.dbg.spill, metadata !2601, metadata !DIExpression()), !dbg !2602
  store ptr %self, ptr %self.dbg.spill1, align 8, !dbg !2603
  call void @llvm.dbg.declare(metadata ptr %self.dbg.spill1, metadata !2604, metadata !DIExpression()), !dbg !2611
  call void @llvm.dbg.declare(metadata ptr %self.dbg.spill1, metadata !2612, metadata !DIExpression()), !dbg !2619
  store ptr %self, ptr %self.dbg.spill2, align 8, !dbg !2621
  call void @llvm.dbg.declare(metadata ptr %self.dbg.spill2, metadata !2622, metadata !DIExpression()), !dbg !2626
  %0 = getelementptr inbounds i8, ptr %self, i64 8, !dbg !2628
  %self3 = load ptr, ptr %0, align 8, !dbg !2628, !nonnull !23, !noundef !23
  store ptr %self3, ptr %self.dbg.spill4, align 8, !dbg !2628
  call void @llvm.dbg.declare(metadata ptr %self.dbg.spill4, metadata !2629, metadata !DIExpression()), !dbg !2633
  call void @llvm.dbg.declare(metadata ptr %self.dbg.spill4, metadata !2635, metadata !DIExpression()), !dbg !2639
  store ptr %self3, ptr %data.dbg.spill, align 8, !dbg !2621
  call void @llvm.dbg.declare(metadata ptr %data.dbg.spill, metadata !2641, metadata !DIExpression()), !dbg !2646
  call void @llvm.dbg.declare(metadata ptr %data.dbg.spill, metadata !2648, metadata !DIExpression()), !dbg !2653
  call void @llvm.dbg.declare(metadata ptr %data.dbg.spill, metadata !2655, metadata !DIExpression()), !dbg !2659
  %1 = getelementptr inbounds %"alloc::vec::Vec<u8>", ptr %self, i32 0, i32 1, !dbg !2661
  %len = load i64, ptr %1, align 8, !dbg !2661, !noundef !23
  store i64 %len, ptr %len.dbg.spill, align 8, !dbg !2661
  call void @llvm.dbg.declare(metadata ptr %len.dbg.spill, metadata !2645, metadata !DIExpression()), !dbg !2662
  call void @llvm.dbg.declare(metadata ptr %len.dbg.spill, metadata !2652, metadata !DIExpression()), !dbg !2663
  call void @llvm.dbg.declare(metadata ptr %len.dbg.spill, metadata !2664, metadata !DIExpression()), !dbg !2669
  store ptr %self3, ptr %data_pointer.dbg.spill, align 8, !dbg !2671
  call void @llvm.dbg.declare(metadata ptr %data_pointer.dbg.spill, metadata !2668, metadata !DIExpression()), !dbg !2672
  store ptr %self3, ptr %_12, align 8, !dbg !2673
  %2 = getelementptr inbounds i8, ptr %_12, i64 8, !dbg !2673
  store i64 %len, ptr %2, align 8, !dbg !2673
  %3 = load ptr, ptr %_12, align 8, !dbg !2674, !noundef !23
  %4 = getelementptr inbounds i8, ptr %_12, i64 8, !dbg !2674
  %5 = load i64, ptr %4, align 8, !dbg !2674, !noundef !23
  store ptr %3, ptr %_11, align 8, !dbg !2674
  %6 = getelementptr inbounds i8, ptr %_11, i64 8, !dbg !2674
  store i64 %5, ptr %6, align 8, !dbg !2674
  %_9.0 = load ptr, ptr %_11, align 8, !dbg !2674, !noundef !23
  %7 = getelementptr inbounds i8, ptr %_11, i64 8, !dbg !2674
  %_9.1 = load i64, ptr %7, align 8, !dbg !2674, !noundef !23
  %8 = insertvalue { ptr, i64 } poison, ptr %_9.0, 0, !dbg !2675
  %9 = insertvalue { ptr, i64 } %8, i64 %_9.1, 1, !dbg !2675
  ret { ptr, i64 } %9, !dbg !2675
}

; alloc::string::String::push_str
; Function Attrs: inlinehint nonlazybind uwtable
define internal void @_ZN5alloc6string6String8push_str17h07cd09ba30ebdd5bE(ptr align 8 %self, ptr align 1 %string.0, i64 %string.1) unnamed_addr #1 !dbg !2676 {
start:
  %string.dbg.spill = alloca { ptr, i64 }, align 8
  %self.dbg.spill = alloca ptr, align 8
  store ptr %self, ptr %self.dbg.spill, align 8
  call void @llvm.dbg.declare(metadata ptr %self.dbg.spill, metadata !2681, metadata !DIExpression()), !dbg !2683
  store ptr %string.0, ptr %string.dbg.spill, align 8
  %0 = getelementptr inbounds i8, ptr %string.dbg.spill, i64 8
  store i64 %string.1, ptr %0, align 8
  call void @llvm.dbg.declare(metadata ptr %string.dbg.spill, metadata !2682, metadata !DIExpression()), !dbg !2684
  call void @llvm.dbg.declare(metadata ptr %string.dbg.spill, metadata !2685, metadata !DIExpression()), !dbg !2689
; call alloc::vec::Vec<T,A>::extend_from_slice
  call void @"_ZN5alloc3vec16Vec$LT$T$C$A$GT$17extend_from_slice17h8c067d0c806c46b7E"(ptr align 8 %self, ptr align 1 %string.0, i64 %string.1), !dbg !2691
  ret void, !dbg !2692
}

; alloc::string::String::from_utf8
; Function Attrs: inlinehint nonlazybind uwtable
define internal void @_ZN5alloc6string6String9from_utf817hb58c89089a472428E(ptr sret(%"core::result::Result<alloc::string::String, alloc::string::FromUtf8Error>") align 8 %_0, ptr align 8 %vec) unnamed_addr #1 personality ptr @rust_eh_personality !dbg !2693 {
start:
  %0 = alloca { ptr, i32, [1 x i32] }, align 8
  %data_pointer.dbg.spill = alloca ptr, align 8
  %len.dbg.spill = alloca i64, align 8
  %data.dbg.spill = alloca ptr, align 8
  %self.dbg.spill2 = alloca ptr, align 8
  %self.dbg.spill1 = alloca ptr, align 8
  %self.dbg.spill = alloca ptr, align 8
  %_20 = alloca %"core::ptr::metadata::PtrComponents<[u8]>", align 8
  %_19 = alloca %"core::ptr::metadata::PtrRepr<[u8]>", align 8
  %_10 = alloca %"alloc::vec::Vec<u8>", align 8
  %_9 = alloca %"alloc::string::FromUtf8Error", align 8
  %e = alloca %"core::str::error::Utf8Error", align 8
  %_7 = alloca %"alloc::vec::Vec<u8>", align 8
  %_6 = alloca %"alloc::string::String", align 8
  %_2 = alloca %"core::result::Result<&str, core::str::error::Utf8Error>", align 8
  call void @llvm.dbg.declare(metadata ptr %vec, metadata !2714, metadata !DIExpression()), !dbg !2717
  call void @llvm.dbg.declare(metadata ptr %e, metadata !2715, metadata !DIExpression()), !dbg !2718
  store ptr %vec, ptr %self.dbg.spill, align 8, !dbg !2719
  call void @llvm.dbg.declare(metadata ptr %self.dbg.spill, metadata !2720, metadata !DIExpression()), !dbg !2724
  call void @llvm.dbg.declare(metadata ptr %self.dbg.spill, metadata !2725, metadata !DIExpression()), !dbg !2729
  store ptr %vec, ptr %self.dbg.spill1, align 8, !dbg !2731
  call void @llvm.dbg.declare(metadata ptr %self.dbg.spill1, metadata !2732, metadata !DIExpression()), !dbg !2736
  %1 = getelementptr inbounds i8, ptr %vec, i64 8, !dbg !2738
  %self = load ptr, ptr %1, align 8, !dbg !2738, !nonnull !23, !noundef !23
  store ptr %self, ptr %self.dbg.spill2, align 8, !dbg !2738
  call void @llvm.dbg.declare(metadata ptr %self.dbg.spill2, metadata !2739, metadata !DIExpression()), !dbg !2743
  call void @llvm.dbg.declare(metadata ptr %self.dbg.spill2, metadata !2745, metadata !DIExpression()), !dbg !2749
  store ptr %self, ptr %data.dbg.spill, align 8, !dbg !2731
  call void @llvm.dbg.declare(metadata ptr %data.dbg.spill, metadata !2751, metadata !DIExpression()), !dbg !2756
  call void @llvm.dbg.declare(metadata ptr %data.dbg.spill, metadata !2758, metadata !DIExpression()), !dbg !2763
  call void @llvm.dbg.declare(metadata ptr %data.dbg.spill, metadata !2765, metadata !DIExpression()), !dbg !2769
  %2 = getelementptr inbounds %"alloc::vec::Vec<u8>", ptr %vec, i32 0, i32 1, !dbg !2771
  %len = load i64, ptr %2, align 8, !dbg !2771, !noundef !23
  store i64 %len, ptr %len.dbg.spill, align 8, !dbg !2771
  call void @llvm.dbg.declare(metadata ptr %len.dbg.spill, metadata !2755, metadata !DIExpression()), !dbg !2772
  call void @llvm.dbg.declare(metadata ptr %len.dbg.spill, metadata !2762, metadata !DIExpression()), !dbg !2773
  call void @llvm.dbg.declare(metadata ptr %len.dbg.spill, metadata !2774, metadata !DIExpression()), !dbg !2779
  store ptr %self, ptr %data_pointer.dbg.spill, align 8, !dbg !2781
  call void @llvm.dbg.declare(metadata ptr %data_pointer.dbg.spill, metadata !2778, metadata !DIExpression()), !dbg !2782
  store ptr %self, ptr %_20, align 8, !dbg !2783
  %3 = getelementptr inbounds i8, ptr %_20, i64 8, !dbg !2783
  store i64 %len, ptr %3, align 8, !dbg !2783
  %4 = load ptr, ptr %_20, align 8, !dbg !2784, !noundef !23
  %5 = getelementptr inbounds i8, ptr %_20, i64 8, !dbg !2784
  %6 = load i64, ptr %5, align 8, !dbg !2784, !noundef !23
  store ptr %4, ptr %_19, align 8, !dbg !2784
  %7 = getelementptr inbounds i8, ptr %_19, i64 8, !dbg !2784
  store i64 %6, ptr %7, align 8, !dbg !2784
  %_17.0 = load ptr, ptr %_19, align 8, !dbg !2784, !noundef !23
  %8 = getelementptr inbounds i8, ptr %_19, i64 8, !dbg !2784
  %_17.1 = load i64, ptr %8, align 8, !dbg !2784, !noundef !23
; invoke core::str::converts::from_utf8
  invoke void @_ZN4core3str8converts9from_utf817hc8e8a5bde000841dE(ptr sret(%"core::result::Result<&str, core::str::error::Utf8Error>") align 8 %_2, ptr align 1 %_17.0, i64 %_17.1)
          to label %bb1 unwind label %cleanup, !dbg !2785

bb5:                                              ; preds = %cleanup
; invoke core::ptr::drop_in_place<alloc::vec::Vec<u8>>
  invoke void @"_ZN4core3ptr46drop_in_place$LT$alloc..vec..Vec$LT$u8$GT$$GT$17h7cd5af2bd54d4f8eE"(ptr align 8 %vec) #14
          to label %bb6 unwind label %terminate, !dbg !2786

cleanup:                                          ; preds = %start
  %9 = landingpad { ptr, i32 }
          cleanup
  %10 = extractvalue { ptr, i32 } %9, 0
  %11 = extractvalue { ptr, i32 } %9, 1
  store ptr %10, ptr %0, align 8
  %12 = getelementptr inbounds i8, ptr %0, i64 8
  store i32 %11, ptr %12, align 8
  br label %bb5

bb1:                                              ; preds = %start
  %_5 = load i64, ptr %_2, align 8, !dbg !2785, !range !1128, !noundef !23
  %13 = icmp eq i64 %_5, 0, !dbg !2787
  br i1 %13, label %bb3, label %bb2, !dbg !2787

bb3:                                              ; preds = %bb1
  call void @llvm.memcpy.p0.p0.i64(ptr align 8 %_7, ptr align 8 %vec, i64 24, i1 false), !dbg !2788
  call void @llvm.memcpy.p0.p0.i64(ptr align 8 %_6, ptr align 8 %_7, i64 24, i1 false), !dbg !2789
  %14 = getelementptr inbounds %"core::result::Result<alloc::string::String, alloc::string::FromUtf8Error>::Ok", ptr %_0, i32 0, i32 1, !dbg !2790
  call void @llvm.memcpy.p0.p0.i64(ptr align 8 %14, ptr align 8 %_6, i64 24, i1 false), !dbg !2790
  store i64 -9223372036854775808, ptr %_0, align 8, !dbg !2790
  br label %bb4, !dbg !2791

bb2:                                              ; preds = %bb1
  %15 = getelementptr inbounds %"core::result::Result<&str, core::str::error::Utf8Error>::Err", ptr %_2, i32 0, i32 1, !dbg !2792
  call void @llvm.memcpy.p0.p0.i64(ptr align 8 %e, ptr align 8 %15, i64 16, i1 false), !dbg !2792
  call void @llvm.memcpy.p0.p0.i64(ptr align 8 %_10, ptr align 8 %vec, i64 24, i1 false), !dbg !2793
  call void @llvm.memcpy.p0.p0.i64(ptr align 8 %_9, ptr align 8 %_10, i64 24, i1 false), !dbg !2794
  %16 = getelementptr inbounds %"alloc::string::FromUtf8Error", ptr %_9, i32 0, i32 1, !dbg !2794
  call void @llvm.memcpy.p0.p0.i64(ptr align 8 %16, ptr align 8 %e, i64 16, i1 false), !dbg !2794
  call void @llvm.memcpy.p0.p0.i64(ptr align 8 %_0, ptr align 8 %_9, i64 40, i1 false), !dbg !2795
  br label %bb4, !dbg !2796

bb4:                                              ; preds = %bb2, %bb3
  ret void, !dbg !2797

bb7:                                              ; No predecessors!
  unreachable, !dbg !2787

terminate:                                        ; preds = %bb5
  %17 = landingpad { ptr, i32 }
          filter [0 x ptr] zeroinitializer
  %18 = extractvalue { ptr, i32 } %17, 0
  %19 = extractvalue { ptr, i32 } %17, 1
; call core::panicking::panic_in_cleanup
  call void @_ZN4core9panicking16panic_in_cleanup17h803841cec7522372E() #15, !dbg !2798
  unreachable, !dbg !2798

bb6:                                              ; preds = %bb5
  %20 = load ptr, ptr %0, align 8, !dbg !2798, !noundef !23
  %21 = getelementptr inbounds i8, ptr %0, i64 8, !dbg !2798
  %22 = load i32, ptr %21, align 8, !dbg !2798, !noundef !23
  %23 = insertvalue { ptr, i32 } poison, ptr %20, 0, !dbg !2798
  %24 = insertvalue { ptr, i32 } %23, i32 %22, 1, !dbg !2798
  resume { ptr, i32 } %24, !dbg !2798
}

; <alloc::string::String as core::fmt::Display>::fmt
; Function Attrs: inlinehint nonlazybind uwtable
define internal zeroext i1 @"_ZN60_$LT$alloc..string..String$u20$as$u20$core..fmt..Display$GT$3fmt17hb071d869e47a5a4cE"(ptr align 8 %self, ptr align 8 %f) unnamed_addr #1 !dbg !2799 {
start:
  %v.dbg.spill = alloca { ptr, i64 }, align 8
  %data_pointer.dbg.spill = alloca ptr, align 8
  %len.dbg.spill = alloca i64, align 8
  %data.dbg.spill = alloca ptr, align 8
  %self.dbg.spill4 = alloca ptr, align 8
  %self.dbg.spill2 = alloca ptr, align 8
  %self.dbg.spill1 = alloca ptr, align 8
  %f.dbg.spill = alloca ptr, align 8
  %self.dbg.spill = alloca ptr, align 8
  %_15 = alloca %"core::ptr::metadata::PtrComponents<[u8]>", align 8
  %_14 = alloca %"core::ptr::metadata::PtrRepr<[u8]>", align 8
  store ptr %self, ptr %self.dbg.spill, align 8
  call void @llvm.dbg.declare(metadata ptr %self.dbg.spill, metadata !2804, metadata !DIExpression()), !dbg !2806
  call void @llvm.dbg.declare(metadata ptr %self.dbg.spill, metadata !2807, metadata !DIExpression()), !dbg !2814
  store ptr %f, ptr %f.dbg.spill, align 8
  call void @llvm.dbg.declare(metadata ptr %f.dbg.spill, metadata !2805, metadata !DIExpression()), !dbg !2816
  store ptr %self, ptr %self.dbg.spill1, align 8, !dbg !2817
  call void @llvm.dbg.declare(metadata ptr %self.dbg.spill1, metadata !2818, metadata !DIExpression()), !dbg !2822
  call void @llvm.dbg.declare(metadata ptr %self.dbg.spill1, metadata !2823, metadata !DIExpression()), !dbg !2827
  store ptr %self, ptr %self.dbg.spill2, align 8, !dbg !2829
  call void @llvm.dbg.declare(metadata ptr %self.dbg.spill2, metadata !2830, metadata !DIExpression()), !dbg !2834
  %0 = getelementptr inbounds i8, ptr %self, i64 8, !dbg !2836
  %self3 = load ptr, ptr %0, align 8, !dbg !2836, !nonnull !23, !noundef !23
  store ptr %self3, ptr %self.dbg.spill4, align 8, !dbg !2836
  call void @llvm.dbg.declare(metadata ptr %self.dbg.spill4, metadata !2837, metadata !DIExpression()), !dbg !2841
  call void @llvm.dbg.declare(metadata ptr %self.dbg.spill4, metadata !2843, metadata !DIExpression()), !dbg !2847
  store ptr %self3, ptr %data.dbg.spill, align 8, !dbg !2829
  call void @llvm.dbg.declare(metadata ptr %data.dbg.spill, metadata !2849, metadata !DIExpression()), !dbg !2854
  call void @llvm.dbg.declare(metadata ptr %data.dbg.spill, metadata !2856, metadata !DIExpression()), !dbg !2861
  call void @llvm.dbg.declare(metadata ptr %data.dbg.spill, metadata !2863, metadata !DIExpression()), !dbg !2867
  %1 = getelementptr inbounds %"alloc::vec::Vec<u8>", ptr %self, i32 0, i32 1, !dbg !2869
  %len = load i64, ptr %1, align 8, !dbg !2869, !noundef !23
  store i64 %len, ptr %len.dbg.spill, align 8, !dbg !2869
  call void @llvm.dbg.declare(metadata ptr %len.dbg.spill, metadata !2853, metadata !DIExpression()), !dbg !2870
  call void @llvm.dbg.declare(metadata ptr %len.dbg.spill, metadata !2860, metadata !DIExpression()), !dbg !2871
  call void @llvm.dbg.declare(metadata ptr %len.dbg.spill, metadata !2872, metadata !DIExpression()), !dbg !2877
  store ptr %self3, ptr %data_pointer.dbg.spill, align 8, !dbg !2879
  call void @llvm.dbg.declare(metadata ptr %data_pointer.dbg.spill, metadata !2876, metadata !DIExpression()), !dbg !2880
  store ptr %self3, ptr %_15, align 8, !dbg !2881
  %2 = getelementptr inbounds i8, ptr %_15, i64 8, !dbg !2881
  store i64 %len, ptr %2, align 8, !dbg !2881
  %3 = load ptr, ptr %_15, align 8, !dbg !2882, !noundef !23
  %4 = getelementptr inbounds i8, ptr %_15, i64 8, !dbg !2882
  %5 = load i64, ptr %4, align 8, !dbg !2882, !noundef !23
  store ptr %3, ptr %_14, align 8, !dbg !2882
  %6 = getelementptr inbounds i8, ptr %_14, i64 8, !dbg !2882
  store i64 %5, ptr %6, align 8, !dbg !2882
  %v.0 = load ptr, ptr %_14, align 8, !dbg !2882, !noundef !23
  %7 = getelementptr inbounds i8, ptr %_14, i64 8, !dbg !2882
  %v.1 = load i64, ptr %7, align 8, !dbg !2882, !noundef !23
  store ptr %v.0, ptr %v.dbg.spill, align 8, !dbg !2882
  %8 = getelementptr inbounds i8, ptr %v.dbg.spill, i64 8, !dbg !2882
  store i64 %v.1, ptr %8, align 8, !dbg !2882
  call void @llvm.dbg.declare(metadata ptr %v.dbg.spill, metadata !2883, metadata !DIExpression()), !dbg !2891
; call <str as core::fmt::Display>::fmt
  %_0 = call zeroext i1 @"_ZN42_$LT$str$u20$as$u20$core..fmt..Display$GT$3fmt17h86309c7b5dd516e7E"(ptr align 1 %v.0, i64 %v.1, ptr align 8 %f), !dbg !2893
  ret i1 %_0, !dbg !2894
}

; <I as core::iter::traits::collect::IntoIterator>::into_iter
; Function Attrs: inlinehint nonlazybind uwtable
define internal { ptr, ptr } @"_ZN63_$LT$I$u20$as$u20$core..iter..traits..collect..IntoIterator$GT$9into_iter17hf7824c27c51d6a60E"(ptr %self.0, ptr %self.1) unnamed_addr #1 !dbg !2895 {
start:
  %self.dbg.spill = alloca %"core::slice::iter::Iter<'_, u8>", align 8
  store ptr %self.0, ptr %self.dbg.spill, align 8
  %0 = getelementptr inbounds i8, ptr %self.dbg.spill, i64 8
  store ptr %self.1, ptr %0, align 8
  call void @llvm.dbg.declare(metadata ptr %self.dbg.spill, metadata !2904, metadata !DIExpression()), !dbg !2906
  %1 = insertvalue { ptr, ptr } poison, ptr %self.0, 0, !dbg !2907
  %2 = insertvalue { ptr, ptr } %1, ptr %self.1, 1, !dbg !2907
  ret { ptr, ptr } %2, !dbg !2907
}

; <core::str::error::Utf8Error as core::fmt::Debug>::fmt
; Function Attrs: inlinehint nonlazybind uwtable
define internal zeroext i1 @"_ZN64_$LT$core..str..error..Utf8Error$u20$as$u20$core..fmt..Debug$GT$3fmt17h65841dffd5f3a589E"(ptr align 8 %self, ptr align 8 %f) unnamed_addr #1 !dbg !2908 {
start:
  %f.dbg.spill = alloca ptr, align 8
  %self.dbg.spill = alloca ptr, align 8
  %_10 = alloca ptr, align 8
  store ptr %self, ptr %self.dbg.spill, align 8
  call void @llvm.dbg.declare(metadata ptr %self.dbg.spill, metadata !2914, metadata !DIExpression()), !dbg !2916
  store ptr %f, ptr %f.dbg.spill, align 8
  call void @llvm.dbg.declare(metadata ptr %f.dbg.spill, metadata !2915, metadata !DIExpression()), !dbg !2916
  %0 = getelementptr inbounds %"core::str::error::Utf8Error", ptr %self, i32 0, i32 1, !dbg !2917
  store ptr %0, ptr %_10, align 8, !dbg !2917
; call core::fmt::Formatter::debug_struct_field2_finish
  %_0 = call zeroext i1 @_ZN4core3fmt9Formatter26debug_struct_field2_finish17h1f3ee845d6554337E(ptr align 8 %f, ptr align 1 @alloc_8e685ef482aec04a2d7a8ed5ef1228a3, i64 9, ptr align 1 @alloc_f34017a1538f19bf68b6d6294eec0bb3, i64 11, ptr align 1 %self, ptr align 8 @vtable.6, ptr align 1 @alloc_91eca80c47235190e5fbed3d6d8be36c, i64 9, ptr align 1 %_10, ptr align 8 @vtable.7), !dbg !2916
  ret i1 %_0, !dbg !2918
}

; <alloc::string::FromUtf8Error as core::fmt::Debug>::fmt
; Function Attrs: inlinehint nonlazybind uwtable
define internal zeroext i1 @"_ZN65_$LT$alloc..string..FromUtf8Error$u20$as$u20$core..fmt..Debug$GT$3fmt17h0d5276227c6f6ee2E"(ptr align 8 %self, ptr align 8 %f) unnamed_addr #1 !dbg !2919 {
start:
  %f.dbg.spill = alloca ptr, align 8
  %self.dbg.spill = alloca ptr, align 8
  %_10 = alloca ptr, align 8
  store ptr %self, ptr %self.dbg.spill, align 8
  call void @llvm.dbg.declare(metadata ptr %self.dbg.spill, metadata !2925, metadata !DIExpression()), !dbg !2927
  store ptr %f, ptr %f.dbg.spill, align 8
  call void @llvm.dbg.declare(metadata ptr %f.dbg.spill, metadata !2926, metadata !DIExpression()), !dbg !2927
  %0 = getelementptr inbounds %"alloc::string::FromUtf8Error", ptr %self, i32 0, i32 1, !dbg !2928
  store ptr %0, ptr %_10, align 8, !dbg !2928
; call core::fmt::Formatter::debug_struct_field2_finish
  %_0 = call zeroext i1 @_ZN4core3fmt9Formatter26debug_struct_field2_finish17h1f3ee845d6554337E(ptr align 8 %f, ptr align 1 @alloc_b44d52c0728a956e7d16327f52693b58, i64 13, ptr align 1 @alloc_dd4ffb6a82fadbcfa53fa009063078f4, i64 5, ptr align 1 %self, ptr align 8 @vtable.8, ptr align 1 @alloc_3f7b77ecc8a3c421d9a84c3c3ee05b1c, i64 5, ptr align 1 %_10, ptr align 8 @vtable.9), !dbg !2927
  ret i1 %_0, !dbg !2929
}

; <alloc::string::String as core::ops::deref::Deref>::deref
; Function Attrs: inlinehint nonlazybind uwtable
define internal { ptr, i64 } @"_ZN65_$LT$alloc..string..String$u20$as$u20$core..ops..deref..Deref$GT$5deref17h57c1af5cf5c4a56cE"(ptr align 8 %self) unnamed_addr #1 !dbg !2930 {
start:
  %v.dbg.spill = alloca { ptr, i64 }, align 8
  %data_pointer.dbg.spill = alloca ptr, align 8
  %len.dbg.spill = alloca i64, align 8
  %data.dbg.spill = alloca ptr, align 8
  %self.dbg.spill4 = alloca ptr, align 8
  %self.dbg.spill2 = alloca ptr, align 8
  %self.dbg.spill1 = alloca ptr, align 8
  %self.dbg.spill = alloca ptr, align 8
  %_13 = alloca %"core::ptr::metadata::PtrComponents<[u8]>", align 8
  %_12 = alloca %"core::ptr::metadata::PtrRepr<[u8]>", align 8
  store ptr %self, ptr %self.dbg.spill, align 8
  call void @llvm.dbg.declare(metadata ptr %self.dbg.spill, metadata !2932, metadata !DIExpression()), !dbg !2933
  store ptr %self, ptr %self.dbg.spill1, align 8, !dbg !2934
  call void @llvm.dbg.declare(metadata ptr %self.dbg.spill1, metadata !2935, metadata !DIExpression()), !dbg !2939
  call void @llvm.dbg.declare(metadata ptr %self.dbg.spill1, metadata !2940, metadata !DIExpression()), !dbg !2944
  store ptr %self, ptr %self.dbg.spill2, align 8, !dbg !2946
  call void @llvm.dbg.declare(metadata ptr %self.dbg.spill2, metadata !2947, metadata !DIExpression()), !dbg !2951
  %0 = getelementptr inbounds i8, ptr %self, i64 8, !dbg !2953
  %self3 = load ptr, ptr %0, align 8, !dbg !2953, !nonnull !23, !noundef !23
  store ptr %self3, ptr %self.dbg.spill4, align 8, !dbg !2953
  call void @llvm.dbg.declare(metadata ptr %self.dbg.spill4, metadata !2954, metadata !DIExpression()), !dbg !2958
  call void @llvm.dbg.declare(metadata ptr %self.dbg.spill4, metadata !2960, metadata !DIExpression()), !dbg !2964
  store ptr %self3, ptr %data.dbg.spill, align 8, !dbg !2946
  call void @llvm.dbg.declare(metadata ptr %data.dbg.spill, metadata !2966, metadata !DIExpression()), !dbg !2971
  call void @llvm.dbg.declare(metadata ptr %data.dbg.spill, metadata !2973, metadata !DIExpression()), !dbg !2978
  call void @llvm.dbg.declare(metadata ptr %data.dbg.spill, metadata !2980, metadata !DIExpression()), !dbg !2984
  %1 = getelementptr inbounds %"alloc::vec::Vec<u8>", ptr %self, i32 0, i32 1, !dbg !2986
  %len = load i64, ptr %1, align 8, !dbg !2986, !noundef !23
  store i64 %len, ptr %len.dbg.spill, align 8, !dbg !2986
  call void @llvm.dbg.declare(metadata ptr %len.dbg.spill, metadata !2970, metadata !DIExpression()), !dbg !2987
  call void @llvm.dbg.declare(metadata ptr %len.dbg.spill, metadata !2977, metadata !DIExpression()), !dbg !2988
  call void @llvm.dbg.declare(metadata ptr %len.dbg.spill, metadata !2989, metadata !DIExpression()), !dbg !2994
  store ptr %self3, ptr %data_pointer.dbg.spill, align 8, !dbg !2996
  call void @llvm.dbg.declare(metadata ptr %data_pointer.dbg.spill, metadata !2993, metadata !DIExpression()), !dbg !2997
  store ptr %self3, ptr %_13, align 8, !dbg !2998
  %2 = getelementptr inbounds i8, ptr %_13, i64 8, !dbg !2998
  store i64 %len, ptr %2, align 8, !dbg !2998
  %3 = load ptr, ptr %_13, align 8, !dbg !2999, !noundef !23
  %4 = getelementptr inbounds i8, ptr %_13, i64 8, !dbg !2999
  %5 = load i64, ptr %4, align 8, !dbg !2999, !noundef !23
  store ptr %3, ptr %_12, align 8, !dbg !2999
  %6 = getelementptr inbounds i8, ptr %_12, i64 8, !dbg !2999
  store i64 %5, ptr %6, align 8, !dbg !2999
  %v.0 = load ptr, ptr %_12, align 8, !dbg !2999, !noundef !23
  %7 = getelementptr inbounds i8, ptr %_12, i64 8, !dbg !2999
  %v.1 = load i64, ptr %7, align 8, !dbg !2999, !noundef !23
  store ptr %v.0, ptr %v.dbg.spill, align 8, !dbg !2999
  %8 = getelementptr inbounds i8, ptr %v.dbg.spill, i64 8, !dbg !2999
  store i64 %v.1, ptr %8, align 8, !dbg !2999
  call void @llvm.dbg.declare(metadata ptr %v.dbg.spill, metadata !3000, metadata !DIExpression()), !dbg !3004
  %9 = insertvalue { ptr, i64 } poison, ptr %v.0, 0, !dbg !3006
  %10 = insertvalue { ptr, i64 } %9, i64 %v.1, 1, !dbg !3006
  ret { ptr, i64 } %10, !dbg !3006
}

; <alloc::vec::Vec<T,A> as core::fmt::Debug>::fmt
; Function Attrs: nonlazybind uwtable
define internal zeroext i1 @"_ZN65_$LT$alloc..vec..Vec$LT$T$C$A$GT$$u20$as$u20$core..fmt..Debug$GT$3fmt17h6729ef2490d54670E"(ptr align 8 %self, ptr align 8 %f) unnamed_addr #2 !dbg !3007 {
start:
  %data_pointer.dbg.spill = alloca ptr, align 8
  %len.dbg.spill = alloca i64, align 8
  %data.dbg.spill = alloca ptr, align 8
  %self.dbg.spill3 = alloca ptr, align 8
  %self.dbg.spill1 = alloca ptr, align 8
  %f.dbg.spill = alloca ptr, align 8
  %self.dbg.spill = alloca ptr, align 8
  %_13 = alloca %"core::ptr::metadata::PtrComponents<[u8]>", align 8
  %_12 = alloca %"core::ptr::metadata::PtrRepr<[u8]>", align 8
  store ptr %self, ptr %self.dbg.spill, align 8
  call void @llvm.dbg.declare(metadata ptr %self.dbg.spill, metadata !3012, metadata !DIExpression()), !dbg !3014
  call void @llvm.dbg.declare(metadata ptr %self.dbg.spill, metadata !3015, metadata !DIExpression()), !dbg !3019
  call void @llvm.dbg.declare(metadata ptr %self.dbg.spill, metadata !3021, metadata !DIExpression()), !dbg !3025
  store ptr %f, ptr %f.dbg.spill, align 8
  call void @llvm.dbg.declare(metadata ptr %f.dbg.spill, metadata !3013, metadata !DIExpression()), !dbg !3027
  store ptr %self, ptr %self.dbg.spill1, align 8, !dbg !3028
  call void @llvm.dbg.declare(metadata ptr %self.dbg.spill1, metadata !3029, metadata !DIExpression()), !dbg !3033
  %0 = getelementptr inbounds i8, ptr %self, i64 8, !dbg !3035
  %self2 = load ptr, ptr %0, align 8, !dbg !3035, !nonnull !23, !noundef !23
  store ptr %self2, ptr %self.dbg.spill3, align 8, !dbg !3035
  call void @llvm.dbg.declare(metadata ptr %self.dbg.spill3, metadata !3036, metadata !DIExpression()), !dbg !3040
  call void @llvm.dbg.declare(metadata ptr %self.dbg.spill3, metadata !3042, metadata !DIExpression()), !dbg !3046
  store ptr %self2, ptr %data.dbg.spill, align 8, !dbg !3028
  call void @llvm.dbg.declare(metadata ptr %data.dbg.spill, metadata !3048, metadata !DIExpression()), !dbg !3053
  call void @llvm.dbg.declare(metadata ptr %data.dbg.spill, metadata !3055, metadata !DIExpression()), !dbg !3060
  call void @llvm.dbg.declare(metadata ptr %data.dbg.spill, metadata !3062, metadata !DIExpression()), !dbg !3066
  %1 = getelementptr inbounds %"alloc::vec::Vec<u8>", ptr %self, i32 0, i32 1, !dbg !3068
  %len = load i64, ptr %1, align 8, !dbg !3068, !noundef !23
  store i64 %len, ptr %len.dbg.spill, align 8, !dbg !3068
  call void @llvm.dbg.declare(metadata ptr %len.dbg.spill, metadata !3052, metadata !DIExpression()), !dbg !3069
  call void @llvm.dbg.declare(metadata ptr %len.dbg.spill, metadata !3059, metadata !DIExpression()), !dbg !3070
  call void @llvm.dbg.declare(metadata ptr %len.dbg.spill, metadata !3071, metadata !DIExpression()), !dbg !3076
  store ptr %self2, ptr %data_pointer.dbg.spill, align 8, !dbg !3078
  call void @llvm.dbg.declare(metadata ptr %data_pointer.dbg.spill, metadata !3075, metadata !DIExpression()), !dbg !3079
  store ptr %self2, ptr %_13, align 8, !dbg !3080
  %2 = getelementptr inbounds i8, ptr %_13, i64 8, !dbg !3080
  store i64 %len, ptr %2, align 8, !dbg !3080
  %3 = load ptr, ptr %_13, align 8, !dbg !3081, !noundef !23
  %4 = getelementptr inbounds i8, ptr %_13, i64 8, !dbg !3081
  %5 = load i64, ptr %4, align 8, !dbg !3081, !noundef !23
  store ptr %3, ptr %_12, align 8, !dbg !3081
  %6 = getelementptr inbounds i8, ptr %_12, i64 8, !dbg !3081
  store i64 %5, ptr %6, align 8, !dbg !3081
  %_10.0 = load ptr, ptr %_12, align 8, !dbg !3081, !noundef !23
  %7 = getelementptr inbounds i8, ptr %_12, i64 8, !dbg !3081
  %_10.1 = load i64, ptr %7, align 8, !dbg !3081, !noundef !23
; call <[T] as core::fmt::Debug>::fmt
  %_0 = call zeroext i1 @"_ZN48_$LT$$u5b$T$u5d$$u20$as$u20$core..fmt..Debug$GT$3fmt17h56cf23593e15b208E"(ptr align 1 %_10.0, i64 %_10.1, ptr align 8 %f), !dbg !3082
  ret i1 %_0, !dbg !3083
}

; <alloc::string::String as core::convert::From<&str>>::from
; Function Attrs: inlinehint nonlazybind uwtable
define internal void @"_ZN76_$LT$alloc..string..String$u20$as$u20$core..convert..From$LT$$RF$str$GT$$GT$4from17he03f5da8d026ff2dE"(ptr sret(%"alloc::string::String") align 8 %_0, ptr align 1 %s.0, i64 %s.1) unnamed_addr #1 !dbg !3084 {
start:
  %self.dbg.spill9 = alloca ptr, align 8
  %dest.dbg.spill = alloca ptr, align 8
  %self.dbg.spill8 = alloca ptr, align 8
  %self.dbg.spill7 = alloca ptr, align 8
  %self.dbg.spill6 = alloca ptr, align 8
  %self.dbg.spill5 = alloca ptr, align 8
  %capacity.dbg.spill = alloca i64, align 8
  %self.dbg.spill = alloca { ptr, i64 }, align 8
  %s.dbg.spill = alloca { ptr, i64 }, align 8
  %v = alloca %"alloc::vec::Vec<u8>", align 8
  %bytes = alloca %"alloc::vec::Vec<u8>", align 8
  %alloc.dbg.spill4 = alloca %"alloc::alloc::Global", align 1
  %alloc.dbg.spill3 = alloca %"alloc::alloc::Global", align 1
  %alloc.dbg.spill2 = alloca %"alloc::alloc::Global", align 1
  %alloc.dbg.spill1 = alloca %"alloc::alloc::Global", align 1
  %alloc.dbg.spill = alloca %"alloc::alloc::Global", align 1
  call void @llvm.dbg.declare(metadata ptr %alloc.dbg.spill, metadata !3088, metadata !DIExpression()), !dbg !3093
  call void @llvm.dbg.declare(metadata ptr %alloc.dbg.spill1, metadata !3110, metadata !DIExpression()), !dbg !3115
  call void @llvm.dbg.declare(metadata ptr %alloc.dbg.spill2, metadata !3117, metadata !DIExpression()), !dbg !3124
  call void @llvm.dbg.declare(metadata ptr %alloc.dbg.spill3, metadata !3126, metadata !DIExpression()), !dbg !3131
  call void @llvm.dbg.declare(metadata ptr %alloc.dbg.spill4, metadata !3133, metadata !DIExpression()), !dbg !3138
  store ptr %s.0, ptr %s.dbg.spill, align 8, !dbg !3138
  %0 = getelementptr inbounds i8, ptr %s.dbg.spill, i64 8, !dbg !3138
  store i64 %s.1, ptr %0, align 8, !dbg !3138
  call void @llvm.dbg.declare(metadata ptr %s.dbg.spill, metadata !3087, metadata !DIExpression()), !dbg !3140
  call void @llvm.dbg.declare(metadata ptr %s.dbg.spill, metadata !3108, metadata !DIExpression()), !dbg !3141
  call void @llvm.dbg.declare(metadata ptr %s.dbg.spill, metadata !3142, metadata !DIExpression()), !dbg !3146
  call void @llvm.dbg.declare(metadata ptr %bytes, metadata !3148, metadata !DIExpression()), !dbg !3152
  call void @llvm.dbg.declare(metadata ptr %v, metadata !3122, metadata !DIExpression()), !dbg !3154
  store ptr %s.0, ptr %self.dbg.spill, align 8, !dbg !3155
  %1 = getelementptr inbounds i8, ptr %self.dbg.spill, i64 8, !dbg !3155
  store i64 %s.1, ptr %1, align 8, !dbg !3155
  call void @llvm.dbg.declare(metadata ptr %self.dbg.spill, metadata !3103, metadata !DIExpression()), !dbg !3156
  call void @llvm.dbg.declare(metadata ptr %self.dbg.spill, metadata !3098, metadata !DIExpression()), !dbg !3157
  call void @llvm.dbg.declare(metadata ptr %self.dbg.spill, metadata !3092, metadata !DIExpression()), !dbg !3158
  call void @llvm.dbg.declare(metadata ptr %self.dbg.spill, metadata !3114, metadata !DIExpression()), !dbg !3159
  call void @llvm.dbg.declare(metadata ptr %self.dbg.spill, metadata !3121, metadata !DIExpression()), !dbg !3160
  call void @llvm.dbg.declare(metadata ptr %self.dbg.spill, metadata !3161, metadata !DIExpression()), !dbg !3165
  store i64 %s.1, ptr %capacity.dbg.spill, align 8, !dbg !3167
  call void @llvm.dbg.declare(metadata ptr %capacity.dbg.spill, metadata !3130, metadata !DIExpression()), !dbg !3168
  call void @llvm.dbg.declare(metadata ptr %capacity.dbg.spill, metadata !3137, metadata !DIExpression()), !dbg !3169
  call void @llvm.dbg.declare(metadata ptr %capacity.dbg.spill, metadata !3170, metadata !DIExpression()), !dbg !3176
  call void @llvm.dbg.declare(metadata ptr %capacity.dbg.spill, metadata !3178, metadata !DIExpression()), !dbg !3184
  call void @llvm.dbg.declare(metadata ptr %capacity.dbg.spill, metadata !3186, metadata !DIExpression()), !dbg !3191
; call alloc::raw_vec::RawVec<T,A>::allocate_in
  %2 = call { i64, ptr } @"_ZN5alloc7raw_vec19RawVec$LT$T$C$A$GT$11allocate_in17hf233f763ba172f41E"(i64 %s.1, i1 zeroext false), !dbg !3193
  %_10.0 = extractvalue { i64, ptr } %2, 0, !dbg !3193
  %_10.1 = extractvalue { i64, ptr } %2, 1, !dbg !3193
  store i64 %_10.0, ptr %v, align 8, !dbg !3194
  %3 = getelementptr inbounds i8, ptr %v, i64 8, !dbg !3194
  store ptr %_10.1, ptr %3, align 8, !dbg !3194
  %4 = getelementptr inbounds %"alloc::vec::Vec<u8>", ptr %v, i32 0, i32 1, !dbg !3194
  store i64 0, ptr %4, align 8, !dbg !3194
  store ptr %s.0, ptr %self.dbg.spill5, align 8, !dbg !3195
  call void @llvm.dbg.declare(metadata ptr %self.dbg.spill5, metadata !3174, metadata !DIExpression()), !dbg !3196
  call void @llvm.dbg.declare(metadata ptr %self.dbg.spill5, metadata !3182, metadata !DIExpression()), !dbg !3197
  store ptr %v, ptr %self.dbg.spill6, align 8, !dbg !3198
  call void @llvm.dbg.declare(metadata ptr %self.dbg.spill6, metadata !3199, metadata !DIExpression()), !dbg !3203
  store ptr %v, ptr %self.dbg.spill7, align 8, !dbg !3205
  call void @llvm.dbg.declare(metadata ptr %self.dbg.spill7, metadata !3206, metadata !DIExpression()), !dbg !3210
  %5 = getelementptr inbounds i8, ptr %v, i64 8, !dbg !3212
  %self = load ptr, ptr %5, align 8, !dbg !3212, !nonnull !23, !noundef !23
  store ptr %self, ptr %self.dbg.spill8, align 8, !dbg !3212
  call void @llvm.dbg.declare(metadata ptr %self.dbg.spill8, metadata !3213, metadata !DIExpression()), !dbg !3217
  call void @llvm.dbg.declare(metadata ptr %self.dbg.spill8, metadata !3219, metadata !DIExpression()), !dbg !3223
  store ptr %self, ptr %dest.dbg.spill, align 8, !dbg !3225
  call void @llvm.dbg.declare(metadata ptr %dest.dbg.spill, metadata !3175, metadata !DIExpression()), !dbg !3226
  call void @llvm.dbg.declare(metadata ptr %dest.dbg.spill, metadata !3183, metadata !DIExpression()), !dbg !3227
  %6 = mul i64 %s.1, 1, !dbg !3228
  call void @llvm.memcpy.p0.p0.i64(ptr align 1 %self, ptr align 1 %s.0, i64 %6, i1 false), !dbg !3228
  store ptr %v, ptr %self.dbg.spill9, align 8, !dbg !3229
  call void @llvm.dbg.declare(metadata ptr %self.dbg.spill9, metadata !3190, metadata !DIExpression()), !dbg !3230
  call void @llvm.dbg.declare(metadata ptr %self.dbg.spill9, metadata !3231, metadata !DIExpression()), !dbg !3235
  %7 = getelementptr inbounds %"alloc::vec::Vec<u8>", ptr %v, i32 0, i32 1, !dbg !3237
  store i64 %s.1, ptr %7, align 8, !dbg !3237
  call void @llvm.memcpy.p0.p0.i64(ptr align 8 %bytes, ptr align 8 %v, i64 24, i1 false), !dbg !3238
  call void @llvm.memcpy.p0.p0.i64(ptr align 8 %_0, ptr align 8 %bytes, i64 24, i1 false), !dbg !3239
  ret void, !dbg !3240
}

; <alloc::vec::Vec<T> as core::convert::From<&[T]>>::from
; Function Attrs: nonlazybind uwtable
define internal void @"_ZN87_$LT$alloc..vec..Vec$LT$T$GT$$u20$as$u20$core..convert..From$LT$$RF$$u5b$T$u5d$$GT$$GT$4from17h58a86b7e5aa2b8b3E"(ptr sret(%"alloc::vec::Vec<u8>") align 8 %_0, ptr align 1 %s.0, i64 %s.1) unnamed_addr #2 !dbg !3241 {
start:
  %s.dbg.spill = alloca { ptr, i64 }, align 8
  %alloc.dbg.spill1 = alloca %"alloc::alloc::Global", align 1
  %alloc.dbg.spill = alloca %"alloc::alloc::Global", align 1
  call void @llvm.dbg.declare(metadata ptr %alloc.dbg.spill, metadata !3245, metadata !DIExpression()), !dbg !3250
  call void @llvm.dbg.declare(metadata ptr %alloc.dbg.spill1, metadata !3257, metadata !DIExpression()), !dbg !3262
  store ptr %s.0, ptr %s.dbg.spill, align 8, !dbg !3262
  %0 = getelementptr inbounds i8, ptr %s.dbg.spill, i64 8, !dbg !3262
  store i64 %s.1, ptr %0, align 8, !dbg !3262
  call void @llvm.dbg.declare(metadata ptr %s.dbg.spill, metadata !3244, metadata !DIExpression()), !dbg !3264
  call void @llvm.dbg.declare(metadata ptr %s.dbg.spill, metadata !3255, metadata !DIExpression()), !dbg !3265
  call void @llvm.dbg.declare(metadata ptr %s.dbg.spill, metadata !3249, metadata !DIExpression()), !dbg !3266
  call void @llvm.dbg.declare(metadata ptr %s.dbg.spill, metadata !3261, metadata !DIExpression()), !dbg !3267
; call <T as alloc::slice::hack::ConvertVec>::to_vec
  call void @"_ZN52_$LT$T$u20$as$u20$alloc..slice..hack..ConvertVec$GT$6to_vec17h782059ccc7dc61c2E"(ptr sret(%"alloc::vec::Vec<u8>") align 8 %_0, ptr align 1 %s.0, i64 %s.1), !dbg !3268
  ret void, !dbg !3269
}

; function::make_rpc
; Function Attrs: nonlazybind uwtable
define internal void @_ZN8function8make_rpc17hee7d0329c32aa90cE(ptr sret(%"alloc::string::String") align 8 %_0, ptr align 1 %func_name.0, i64 %func_name.1, ptr align 8 %input) unnamed_addr #2 personality ptr @rust_eh_personality !dbg !3270 {
start:
  %0 = alloca { ptr, i32, [1 x i32] }, align 8
  %e.i44 = alloca %"curl::error::Error", align 8
  %1 = alloca { ptr, i32, [1 x i32] }, align 8
  %e.i34 = alloca %"curl::error::Error", align 8
  %2 = alloca { ptr, i32, [1 x i32] }, align 8
  %e.i25 = alloca %"curl::error::Error", align 8
  %3 = alloca { ptr, i32, [1 x i32] }, align 8
  %e.i15 = alloca %"curl::error::Error", align 8
  %4 = alloca { ptr, i32, [1 x i32] }, align 8
  %e.i5 = alloca %"curl::error::Error", align 8
  %5 = alloca { ptr, i32, [1 x i32] }, align 8
  %e.i = alloca %"curl::error::Error", align 8
  %6 = alloca { ptr, i32, [1 x i32] }, align 8
  %func_name.dbg.spill = alloca { ptr, i64 }, align 8
  %_37 = alloca %"core::result::Result<(), curl::error::Error>", align 8
  %_34 = alloca ptr, align 8
  %_32 = alloca %"core::result::Result<(), curl::error::Error>", align 8
  %_29 = alloca ptr, align 8
  %_27 = alloca %"core::result::Result<(), curl::error::Error>", align 8
  %transfer = alloca %"curl::easy::handle::Transfer<'_, '_>", align 8
  %html_data = alloca %"alloc::string::String", align 8
  %_18 = alloca %"core::result::Result<(), curl::error::Error>", align 8
  %_15 = alloca %"core::result::Result<(), curl::error::Error>", align 8
  %_10 = alloca %"core::result::Result<(), curl::error::Error>", align 8
  %input_to_be_sent = alloca { ptr, i64 }, align 8
  %url = alloca %"alloc::string::String", align 8
  %easy = alloca ptr, align 8
  store ptr %func_name.0, ptr %func_name.dbg.spill, align 8
  %7 = getelementptr inbounds i8, ptr %func_name.dbg.spill, i64 8
  store i64 %func_name.1, ptr %7, align 8
  call void @llvm.dbg.declare(metadata ptr %func_name.dbg.spill, metadata !3275, metadata !DIExpression()), !dbg !3287
  call void @llvm.dbg.declare(metadata ptr %input, metadata !3276, metadata !DIExpression()), !dbg !3288
  call void @llvm.dbg.declare(metadata ptr %easy, metadata !3277, metadata !DIExpression()), !dbg !3289
  call void @llvm.dbg.declare(metadata ptr %url, metadata !3279, metadata !DIExpression()), !dbg !3290
  call void @llvm.dbg.declare(metadata ptr %input_to_be_sent, metadata !3281, metadata !DIExpression()), !dbg !3291
  call void @llvm.dbg.declare(metadata ptr %html_data, metadata !3283, metadata !DIExpression()), !dbg !3292
  call void @llvm.dbg.declare(metadata ptr %transfer, metadata !3285, metadata !DIExpression()), !dbg !3293
; invoke curl::easy::handle::Easy::new
  %8 = invoke align 8 ptr @_ZN4curl4easy6handle4Easy3new17h1b55e2d450a08989E()
          to label %bb1 unwind label %cleanup, !dbg !3294

bb28:                                             ; preds = %bb27, %cleanup
; invoke core::ptr::drop_in_place<alloc::string::String>
  invoke void @"_ZN4core3ptr42drop_in_place$LT$alloc..string..String$GT$17h70525e2644847313E"(ptr align 8 %input) #14
          to label %bb29 unwind label %terminate, !dbg !3295

cleanup:                                          ; preds = %bb21, %start
  %9 = landingpad { ptr, i32 }
          cleanup
  %10 = extractvalue { ptr, i32 } %9, 0
  %11 = extractvalue { ptr, i32 } %9, 1
  store ptr %10, ptr %6, align 8
  %12 = getelementptr inbounds i8, ptr %6, i64 8
  store i32 %11, ptr %12, align 8
  br label %bb28

bb1:                                              ; preds = %start
  store ptr %8, ptr %easy, align 8, !dbg !3294
; invoke <alloc::string::String as core::convert::From<&str>>::from
  invoke void @"_ZN76_$LT$alloc..string..String$u20$as$u20$core..convert..From$LT$$RF$str$GT$$GT$4from17he03f5da8d026ff2dE"(ptr sret(%"alloc::string::String") align 8 %url, ptr align 1 @alloc_437a374ac02e27f22c5c45bc3d1c6b36, i64 57)
          to label %bb2 unwind label %cleanup1, !dbg !3296

bb27:                                             ; preds = %bb26, %cleanup1
; invoke core::ptr::drop_in_place<curl::easy::handle::Easy>
  invoke void @"_ZN4core3ptr45drop_in_place$LT$curl..easy..handle..Easy$GT$17hb7e8485251885beaE"(ptr align 8 %easy) #14
          to label %bb28 unwind label %terminate, !dbg !3295

cleanup1:                                         ; preds = %bb20, %bb1
  %13 = landingpad { ptr, i32 }
          cleanup
  %14 = extractvalue { ptr, i32 } %13, 0
  %15 = extractvalue { ptr, i32 } %13, 1
  store ptr %14, ptr %6, align 8
  %16 = getelementptr inbounds i8, ptr %6, i64 8
  store i32 %15, ptr %16, align 8
  br label %bb27

bb2:                                              ; preds = %bb1
; invoke alloc::string::String::as_bytes
  %17 = invoke { ptr, i64 } @_ZN5alloc6string6String8as_bytes17h94544ac82876f995E(ptr align 8 %input)
          to label %bb3 unwind label %cleanup2, !dbg !3297

bb26:                                             ; preds = %bb25, %cleanup2.body
; invoke core::ptr::drop_in_place<alloc::string::String>
  invoke void @"_ZN4core3ptr42drop_in_place$LT$alloc..string..String$GT$17h70525e2644847313E"(ptr align 8 %url) #14
          to label %bb27 unwind label %terminate, !dbg !3298

cleanup2:                                         ; preds = %bb11, %bb9, %bb7, %bb5, %bb4, %bb3, %bb2
  %18 = landingpad { ptr, i32 }
          cleanup
  br label %cleanup2.body51

cleanup2.body51:                                  ; preds = %bb5.i49, %cleanup2
  %eh.lpad-body52 = phi { ptr, i32 } [ %18, %cleanup2 ], [ %39, %bb5.i49 ]
  br label %cleanup2.body41

cleanup2.body41:                                  ; preds = %bb5.i39, %cleanup2.body51
  %eh.lpad-body42 = phi { ptr, i32 } [ %eh.lpad-body52, %cleanup2.body51 ], [ %53, %bb5.i39 ]
  br label %cleanup2.body

cleanup2.body:                                    ; preds = %bb5.i30, %cleanup2.body41
  %eh.lpad-body32 = phi { ptr, i32 } [ %eh.lpad-body42, %cleanup2.body41 ], [ %68, %bb5.i30 ]
  %19 = extractvalue { ptr, i32 } %eh.lpad-body32, 0
  %20 = extractvalue { ptr, i32 } %eh.lpad-body32, 1
  store ptr %19, ptr %6, align 8
  %21 = getelementptr inbounds i8, ptr %6, i64 8
  store i32 %20, ptr %21, align 8
  br label %bb26

bb3:                                              ; preds = %bb2
  %22 = extractvalue { ptr, i64 } %17, 0, !dbg !3297
  %23 = extractvalue { ptr, i64 } %17, 1, !dbg !3297
  store ptr %22, ptr %input_to_be_sent, align 8, !dbg !3297
  %24 = getelementptr inbounds i8, ptr %input_to_be_sent, i64 8, !dbg !3297
  store i64 %23, ptr %24, align 8, !dbg !3297
; invoke alloc::string::String::push_str
  invoke void @_ZN5alloc6string6String8push_str17h07cd09ba30ebdd5bE(ptr align 8 %url, ptr align 1 %func_name.0, i64 %func_name.1)
          to label %bb4 unwind label %cleanup2, !dbg !3299

bb4:                                              ; preds = %bb3
; invoke <alloc::string::String as core::ops::deref::Deref>::deref
  %25 = invoke { ptr, i64 } @"_ZN65_$LT$alloc..string..String$u20$as$u20$core..ops..deref..Deref$GT$5deref17h57c1af5cf5c4a56cE"(ptr align 8 %url)
          to label %bb5 unwind label %cleanup2, !dbg !3300

bb5:                                              ; preds = %bb4
  %_12.0 = extractvalue { ptr, i64 } %25, 0, !dbg !3300
  %_12.1 = extractvalue { ptr, i64 } %25, 1, !dbg !3300
; invoke curl::easy::handle::Easy::url
  invoke void @_ZN4curl4easy6handle4Easy3url17h7e3b74680c553659E(ptr sret(%"core::result::Result<(), curl::error::Error>") align 8 %_10, ptr align 8 %easy, ptr align 1 %_12.0, i64 %_12.1)
          to label %bb6 unwind label %cleanup2, !dbg !3301

bb6:                                              ; preds = %bb5
  call void @llvm.dbg.declare(metadata ptr undef, metadata !3302, metadata !DIExpression()), !dbg !3312
  call void @llvm.dbg.declare(metadata ptr %_10, metadata !3309, metadata !DIExpression()), !dbg !3314
  call void @llvm.dbg.declare(metadata ptr %e.i44, metadata !3310, metadata !DIExpression()), !dbg !3315
  %_2.i45 = load i64, ptr %_10, align 8, !dbg !3316, !range !1128, !noundef !23
  %26 = icmp eq i64 %_2.i45, 0, !dbg !3317
  br i1 %26, label %"_ZN4core6result19Result$LT$T$C$E$GT$6unwrap17h32d4b47b9fa3b445E.exit53", label %bb1.i46, !dbg !3317

bb1.i46:                                          ; preds = %bb6
  %27 = getelementptr inbounds %"core::result::Result<(), curl::error::Error>::Err", ptr %_10, i32 0, i32 1, !dbg !3318
  call void @llvm.memcpy.p0.p0.i64(ptr align 8 %e.i44, ptr align 8 %27, i64 24, i1 false), !dbg !3318
; invoke core::result::unwrap_failed
  invoke void @_ZN4core6result13unwrap_failed17h1356562ef8bc898cE(ptr align 1 @alloc_00ae4b301f7fab8ac9617c03fcbd7274, i64 43, ptr align 1 %e.i44, ptr align 8 @vtable.3, ptr align 8 @alloc_96771df3bbd84dce7ec2f85b9ff9b292) #13
          to label %unreachable.i50 unwind label %cleanup.i47, !dbg !3319

cleanup.i47:                                      ; preds = %bb1.i46
  %28 = landingpad { ptr, i32 }
          cleanup
  %29 = extractvalue { ptr, i32 } %28, 0
  %30 = extractvalue { ptr, i32 } %28, 1
  store ptr %29, ptr %0, align 8
  %31 = getelementptr inbounds i8, ptr %0, i64 8
  store i32 %30, ptr %31, align 8
; invoke core::ptr::drop_in_place<curl::error::Error>
  invoke void @"_ZN4core3ptr39drop_in_place$LT$curl..error..Error$GT$17h597f09d3660fb20eE"(ptr align 8 %e.i44) #14
          to label %bb5.i49 unwind label %terminate.i48, !dbg !3320

unreachable.i50:                                  ; preds = %bb1.i46
  unreachable

terminate.i48:                                    ; preds = %cleanup.i47
  %32 = landingpad { ptr, i32 }
          cleanup
          filter [0 x ptr] zeroinitializer
  %33 = extractvalue { ptr, i32 } %32, 0
  %34 = extractvalue { ptr, i32 } %32, 1
; call core::panicking::panic_in_cleanup
  call void @_ZN4core9panicking16panic_in_cleanup17h803841cec7522372E() #15, !dbg !3321
  unreachable, !dbg !3321

bb5.i49:                                          ; preds = %cleanup.i47
  %35 = load ptr, ptr %0, align 8, !dbg !3321, !noundef !23
  %36 = getelementptr inbounds i8, ptr %0, i64 8, !dbg !3321
  %37 = load i32, ptr %36, align 8, !dbg !3321, !noundef !23
  %38 = insertvalue { ptr, i32 } poison, ptr %35, 0, !dbg !3321
  %39 = insertvalue { ptr, i32 } %38, i32 %37, 1, !dbg !3321
  br label %cleanup2.body51

"_ZN4core6result19Result$LT$T$C$E$GT$6unwrap17h32d4b47b9fa3b445E.exit53": ; preds = %bb6
  br label %bb7, !dbg !3322

bb7:                                              ; preds = %"_ZN4core6result19Result$LT$T$C$E$GT$6unwrap17h32d4b47b9fa3b445E.exit53"
; invoke curl::easy::handle::Easy::post
  invoke void @_ZN4curl4easy6handle4Easy4post17hda04471ab5e97b35E(ptr sret(%"core::result::Result<(), curl::error::Error>") align 8 %_15, ptr align 8 %easy, i1 zeroext true)
          to label %bb8 unwind label %cleanup2, !dbg !3323

bb8:                                              ; preds = %bb7
  call void @llvm.dbg.declare(metadata ptr undef, metadata !3302, metadata !DIExpression()), !dbg !3324
  call void @llvm.dbg.declare(metadata ptr %_15, metadata !3309, metadata !DIExpression()), !dbg !3326
  call void @llvm.dbg.declare(metadata ptr %e.i34, metadata !3310, metadata !DIExpression()), !dbg !3327
  %_2.i35 = load i64, ptr %_15, align 8, !dbg !3328, !range !1128, !noundef !23
  %40 = icmp eq i64 %_2.i35, 0, !dbg !3329
  br i1 %40, label %"_ZN4core6result19Result$LT$T$C$E$GT$6unwrap17h32d4b47b9fa3b445E.exit43", label %bb1.i36, !dbg !3329

bb1.i36:                                          ; preds = %bb8
  %41 = getelementptr inbounds %"core::result::Result<(), curl::error::Error>::Err", ptr %_15, i32 0, i32 1, !dbg !3330
  call void @llvm.memcpy.p0.p0.i64(ptr align 8 %e.i34, ptr align 8 %41, i64 24, i1 false), !dbg !3330
; invoke core::result::unwrap_failed
  invoke void @_ZN4core6result13unwrap_failed17h1356562ef8bc898cE(ptr align 1 @alloc_00ae4b301f7fab8ac9617c03fcbd7274, i64 43, ptr align 1 %e.i34, ptr align 8 @vtable.3, ptr align 8 @alloc_dad947a9164f01efca171c5bac1a1306) #13
          to label %unreachable.i40 unwind label %cleanup.i37, !dbg !3331

cleanup.i37:                                      ; preds = %bb1.i36
  %42 = landingpad { ptr, i32 }
          cleanup
  %43 = extractvalue { ptr, i32 } %42, 0
  %44 = extractvalue { ptr, i32 } %42, 1
  store ptr %43, ptr %1, align 8
  %45 = getelementptr inbounds i8, ptr %1, i64 8
  store i32 %44, ptr %45, align 8
; invoke core::ptr::drop_in_place<curl::error::Error>
  invoke void @"_ZN4core3ptr39drop_in_place$LT$curl..error..Error$GT$17h597f09d3660fb20eE"(ptr align 8 %e.i34) #14
          to label %bb5.i39 unwind label %terminate.i38, !dbg !3332

unreachable.i40:                                  ; preds = %bb1.i36
  unreachable

terminate.i38:                                    ; preds = %cleanup.i37
  %46 = landingpad { ptr, i32 }
          cleanup
          filter [0 x ptr] zeroinitializer
  %47 = extractvalue { ptr, i32 } %46, 0
  %48 = extractvalue { ptr, i32 } %46, 1
; call core::panicking::panic_in_cleanup
  call void @_ZN4core9panicking16panic_in_cleanup17h803841cec7522372E() #15, !dbg !3333
  unreachable, !dbg !3333

bb5.i39:                                          ; preds = %cleanup.i37
  %49 = load ptr, ptr %1, align 8, !dbg !3333, !noundef !23
  %50 = getelementptr inbounds i8, ptr %1, i64 8, !dbg !3333
  %51 = load i32, ptr %50, align 8, !dbg !3333, !noundef !23
  %52 = insertvalue { ptr, i32 } poison, ptr %49, 0, !dbg !3333
  %53 = insertvalue { ptr, i32 } %52, i32 %51, 1, !dbg !3333
  br label %cleanup2.body41

"_ZN4core6result19Result$LT$T$C$E$GT$6unwrap17h32d4b47b9fa3b445E.exit43": ; preds = %bb8
  br label %bb9, !dbg !3334

bb9:                                              ; preds = %"_ZN4core6result19Result$LT$T$C$E$GT$6unwrap17h32d4b47b9fa3b445E.exit43"
  %_22.0 = load ptr, ptr %input_to_be_sent, align 8, !dbg !3335, !nonnull !23, !align !532, !noundef !23
  %54 = getelementptr inbounds i8, ptr %input_to_be_sent, i64 8, !dbg !3335
  %_22.1 = load i64, ptr %54, align 8, !dbg !3335, !noundef !23
; invoke curl::easy::handle::Easy::post_field_size
  invoke void @_ZN4curl4easy6handle4Easy15post_field_size17hf8e2eb1496b0835dE(ptr sret(%"core::result::Result<(), curl::error::Error>") align 8 %_18, ptr align 8 %easy, i64 %_22.1)
          to label %bb10 unwind label %cleanup2, !dbg !3336

bb10:                                             ; preds = %bb9
  call void @llvm.dbg.declare(metadata ptr undef, metadata !3302, metadata !DIExpression()), !dbg !3337
  call void @llvm.dbg.declare(metadata ptr %_18, metadata !3309, metadata !DIExpression()), !dbg !3339
  call void @llvm.dbg.declare(metadata ptr %e.i25, metadata !3310, metadata !DIExpression()), !dbg !3340
  %_2.i26 = load i64, ptr %_18, align 8, !dbg !3341, !range !1128, !noundef !23
  %55 = icmp eq i64 %_2.i26, 0, !dbg !3342
  br i1 %55, label %"_ZN4core6result19Result$LT$T$C$E$GT$6unwrap17h32d4b47b9fa3b445E.exit33", label %bb1.i27, !dbg !3342

bb1.i27:                                          ; preds = %bb10
  %56 = getelementptr inbounds %"core::result::Result<(), curl::error::Error>::Err", ptr %_18, i32 0, i32 1, !dbg !3343
  call void @llvm.memcpy.p0.p0.i64(ptr align 8 %e.i25, ptr align 8 %56, i64 24, i1 false), !dbg !3343
; invoke core::result::unwrap_failed
  invoke void @_ZN4core6result13unwrap_failed17h1356562ef8bc898cE(ptr align 1 @alloc_00ae4b301f7fab8ac9617c03fcbd7274, i64 43, ptr align 1 %e.i25, ptr align 8 @vtable.3, ptr align 8 @alloc_899f5dfa867cc08f0a95a93e5f2845aa) #13
          to label %unreachable.i31 unwind label %cleanup.i28, !dbg !3344

cleanup.i28:                                      ; preds = %bb1.i27
  %57 = landingpad { ptr, i32 }
          cleanup
  %58 = extractvalue { ptr, i32 } %57, 0
  %59 = extractvalue { ptr, i32 } %57, 1
  store ptr %58, ptr %2, align 8
  %60 = getelementptr inbounds i8, ptr %2, i64 8
  store i32 %59, ptr %60, align 8
; invoke core::ptr::drop_in_place<curl::error::Error>
  invoke void @"_ZN4core3ptr39drop_in_place$LT$curl..error..Error$GT$17h597f09d3660fb20eE"(ptr align 8 %e.i25) #14
          to label %bb5.i30 unwind label %terminate.i29, !dbg !3345

unreachable.i31:                                  ; preds = %bb1.i27
  unreachable

terminate.i29:                                    ; preds = %cleanup.i28
  %61 = landingpad { ptr, i32 }
          cleanup
          filter [0 x ptr] zeroinitializer
  %62 = extractvalue { ptr, i32 } %61, 0
  %63 = extractvalue { ptr, i32 } %61, 1
; call core::panicking::panic_in_cleanup
  call void @_ZN4core9panicking16panic_in_cleanup17h803841cec7522372E() #15, !dbg !3346
  unreachable, !dbg !3346

bb5.i30:                                          ; preds = %cleanup.i28
  %64 = load ptr, ptr %2, align 8, !dbg !3346, !noundef !23
  %65 = getelementptr inbounds i8, ptr %2, i64 8, !dbg !3346
  %66 = load i32, ptr %65, align 8, !dbg !3346, !noundef !23
  %67 = insertvalue { ptr, i32 } poison, ptr %64, 0, !dbg !3346
  %68 = insertvalue { ptr, i32 } %67, i32 %66, 1, !dbg !3346
  br label %cleanup2.body

"_ZN4core6result19Result$LT$T$C$E$GT$6unwrap17h32d4b47b9fa3b445E.exit33": ; preds = %bb10
  br label %bb11, !dbg !3347

bb11:                                             ; preds = %"_ZN4core6result19Result$LT$T$C$E$GT$6unwrap17h32d4b47b9fa3b445E.exit33"
; invoke alloc::string::String::new
  invoke void @_ZN5alloc6string6String3new17h7ea8f40de88ae795E(ptr sret(%"alloc::string::String") align 8 %html_data)
          to label %bb12 unwind label %cleanup2, !dbg !3348

bb12:                                             ; preds = %bb11
; invoke curl::easy::handle::Easy::transfer
  %69 = invoke { ptr, ptr } @_ZN4curl4easy6handle4Easy8transfer17he3f721cd4ac7f2a3E(ptr align 8 %easy)
          to label %bb13 unwind label %cleanup3, !dbg !3349

bb25:                                             ; preds = %bb24, %cleanup3
; invoke core::ptr::drop_in_place<alloc::string::String>
  invoke void @"_ZN4core3ptr42drop_in_place$LT$alloc..string..String$GT$17h70525e2644847313E"(ptr align 8 %html_data) #14
          to label %bb26 unwind label %terminate, !dbg !3350

cleanup3:                                         ; preds = %bb19, %bb12
  %70 = landingpad { ptr, i32 }
          cleanup
  %71 = extractvalue { ptr, i32 } %70, 0
  %72 = extractvalue { ptr, i32 } %70, 1
  store ptr %71, ptr %6, align 8
  %73 = getelementptr inbounds i8, ptr %6, i64 8
  store i32 %72, ptr %73, align 8
  br label %bb25

bb13:                                             ; preds = %bb12
  %74 = extractvalue { ptr, ptr } %69, 0, !dbg !3349
  %75 = extractvalue { ptr, ptr } %69, 1, !dbg !3349
  store ptr %74, ptr %transfer, align 8, !dbg !3349
  %76 = getelementptr inbounds i8, ptr %transfer, i64 8, !dbg !3349
  store ptr %75, ptr %76, align 8, !dbg !3349
  store ptr %input_to_be_sent, ptr %_29, align 8, !dbg !3351
  %77 = load ptr, ptr %_29, align 8, !dbg !3352, !nonnull !23, !align !677, !noundef !23
; invoke curl::easy::handle::Transfer::read_function
  invoke void @_ZN4curl4easy6handle8Transfer13read_function17hb95fbfd07c1098bbE(ptr sret(%"core::result::Result<(), curl::error::Error>") align 8 %_27, ptr align 8 %transfer, ptr align 8 %77)
          to label %bb14 unwind label %cleanup4, !dbg !3352

bb24:                                             ; preds = %cleanup4.body
; invoke core::ptr::drop_in_place<curl::easy::handle::Transfer>
  invoke void @"_ZN4core3ptr49drop_in_place$LT$curl..easy..handle..Transfer$GT$17h18e5fb3949e3f48aE"(ptr align 8 %transfer) #14
          to label %bb25 unwind label %terminate, !dbg !3353

cleanup4:                                         ; preds = %bb17, %bb15, %bb13
  %78 = landingpad { ptr, i32 }
          cleanup
  br label %cleanup4.body22

cleanup4.body22:                                  ; preds = %bb5.i20, %cleanup4
  %eh.lpad-body23 = phi { ptr, i32 } [ %78, %cleanup4 ], [ %95, %bb5.i20 ]
  br label %cleanup4.body12

cleanup4.body12:                                  ; preds = %bb5.i10, %cleanup4.body22
  %eh.lpad-body13 = phi { ptr, i32 } [ %eh.lpad-body23, %cleanup4.body22 ], [ %110, %bb5.i10 ]
  br label %cleanup4.body

cleanup4.body:                                    ; preds = %bb5.i, %cleanup4.body12
  %eh.lpad-body = phi { ptr, i32 } [ %eh.lpad-body13, %cleanup4.body12 ], [ %124, %bb5.i ]
  %79 = extractvalue { ptr, i32 } %eh.lpad-body, 0
  %80 = extractvalue { ptr, i32 } %eh.lpad-body, 1
  store ptr %79, ptr %6, align 8
  %81 = getelementptr inbounds i8, ptr %6, i64 8
  store i32 %80, ptr %81, align 8
  br label %bb24

bb14:                                             ; preds = %bb13
  call void @llvm.dbg.declare(metadata ptr undef, metadata !3302, metadata !DIExpression()), !dbg !3354
  call void @llvm.dbg.declare(metadata ptr %_27, metadata !3309, metadata !DIExpression()), !dbg !3356
  call void @llvm.dbg.declare(metadata ptr %e.i15, metadata !3310, metadata !DIExpression()), !dbg !3357
  %_2.i16 = load i64, ptr %_27, align 8, !dbg !3358, !range !1128, !noundef !23
  %82 = icmp eq i64 %_2.i16, 0, !dbg !3359
  br i1 %82, label %"_ZN4core6result19Result$LT$T$C$E$GT$6unwrap17h32d4b47b9fa3b445E.exit24", label %bb1.i17, !dbg !3359

bb1.i17:                                          ; preds = %bb14
  %83 = getelementptr inbounds %"core::result::Result<(), curl::error::Error>::Err", ptr %_27, i32 0, i32 1, !dbg !3360
  call void @llvm.memcpy.p0.p0.i64(ptr align 8 %e.i15, ptr align 8 %83, i64 24, i1 false), !dbg !3360
; invoke core::result::unwrap_failed
  invoke void @_ZN4core6result13unwrap_failed17h1356562ef8bc898cE(ptr align 1 @alloc_00ae4b301f7fab8ac9617c03fcbd7274, i64 43, ptr align 1 %e.i15, ptr align 8 @vtable.3, ptr align 8 @alloc_4a8509a3c6947b701e2a6cc64723f0ca) #13
          to label %unreachable.i21 unwind label %cleanup.i18, !dbg !3361

cleanup.i18:                                      ; preds = %bb1.i17
  %84 = landingpad { ptr, i32 }
          cleanup
  %85 = extractvalue { ptr, i32 } %84, 0
  %86 = extractvalue { ptr, i32 } %84, 1
  store ptr %85, ptr %3, align 8
  %87 = getelementptr inbounds i8, ptr %3, i64 8
  store i32 %86, ptr %87, align 8
; invoke core::ptr::drop_in_place<curl::error::Error>
  invoke void @"_ZN4core3ptr39drop_in_place$LT$curl..error..Error$GT$17h597f09d3660fb20eE"(ptr align 8 %e.i15) #14
          to label %bb5.i20 unwind label %terminate.i19, !dbg !3362

unreachable.i21:                                  ; preds = %bb1.i17
  unreachable

terminate.i19:                                    ; preds = %cleanup.i18
  %88 = landingpad { ptr, i32 }
          cleanup
          filter [0 x ptr] zeroinitializer
  %89 = extractvalue { ptr, i32 } %88, 0
  %90 = extractvalue { ptr, i32 } %88, 1
; call core::panicking::panic_in_cleanup
  call void @_ZN4core9panicking16panic_in_cleanup17h803841cec7522372E() #15, !dbg !3363
  unreachable, !dbg !3363

bb5.i20:                                          ; preds = %cleanup.i18
  %91 = load ptr, ptr %3, align 8, !dbg !3363, !noundef !23
  %92 = getelementptr inbounds i8, ptr %3, i64 8, !dbg !3363
  %93 = load i32, ptr %92, align 8, !dbg !3363, !noundef !23
  %94 = insertvalue { ptr, i32 } poison, ptr %91, 0, !dbg !3363
  %95 = insertvalue { ptr, i32 } %94, i32 %93, 1, !dbg !3363
  br label %cleanup4.body22

"_ZN4core6result19Result$LT$T$C$E$GT$6unwrap17h32d4b47b9fa3b445E.exit24": ; preds = %bb14
  br label %bb15, !dbg !3364

bb15:                                             ; preds = %"_ZN4core6result19Result$LT$T$C$E$GT$6unwrap17h32d4b47b9fa3b445E.exit24"
  store ptr %html_data, ptr %_34, align 8, !dbg !3365
  %96 = load ptr, ptr %_34, align 8, !dbg !3366, !nonnull !23, !align !677, !noundef !23
; invoke curl::easy::handle::Transfer::write_function
  invoke void @_ZN4curl4easy6handle8Transfer14write_function17hf617c16ee8bea413E(ptr sret(%"core::result::Result<(), curl::error::Error>") align 8 %_32, ptr align 8 %transfer, ptr align 8 %96)
          to label %bb16 unwind label %cleanup4, !dbg !3366

bb16:                                             ; preds = %bb15
  call void @llvm.dbg.declare(metadata ptr undef, metadata !3302, metadata !DIExpression()), !dbg !3367
  call void @llvm.dbg.declare(metadata ptr %_32, metadata !3309, metadata !DIExpression()), !dbg !3369
  call void @llvm.dbg.declare(metadata ptr %e.i5, metadata !3310, metadata !DIExpression()), !dbg !3370
  %_2.i6 = load i64, ptr %_32, align 8, !dbg !3371, !range !1128, !noundef !23
  %97 = icmp eq i64 %_2.i6, 0, !dbg !3372
  br i1 %97, label %"_ZN4core6result19Result$LT$T$C$E$GT$6unwrap17h32d4b47b9fa3b445E.exit14", label %bb1.i7, !dbg !3372

bb1.i7:                                           ; preds = %bb16
  %98 = getelementptr inbounds %"core::result::Result<(), curl::error::Error>::Err", ptr %_32, i32 0, i32 1, !dbg !3373
  call void @llvm.memcpy.p0.p0.i64(ptr align 8 %e.i5, ptr align 8 %98, i64 24, i1 false), !dbg !3373
; invoke core::result::unwrap_failed
  invoke void @_ZN4core6result13unwrap_failed17h1356562ef8bc898cE(ptr align 1 @alloc_00ae4b301f7fab8ac9617c03fcbd7274, i64 43, ptr align 1 %e.i5, ptr align 8 @vtable.3, ptr align 8 @alloc_b096f38da042439788738cf6c4a277cd) #13
          to label %unreachable.i11 unwind label %cleanup.i8, !dbg !3374

cleanup.i8:                                       ; preds = %bb1.i7
  %99 = landingpad { ptr, i32 }
          cleanup
  %100 = extractvalue { ptr, i32 } %99, 0
  %101 = extractvalue { ptr, i32 } %99, 1
  store ptr %100, ptr %4, align 8
  %102 = getelementptr inbounds i8, ptr %4, i64 8
  store i32 %101, ptr %102, align 8
; invoke core::ptr::drop_in_place<curl::error::Error>
  invoke void @"_ZN4core3ptr39drop_in_place$LT$curl..error..Error$GT$17h597f09d3660fb20eE"(ptr align 8 %e.i5) #14
          to label %bb5.i10 unwind label %terminate.i9, !dbg !3375

unreachable.i11:                                  ; preds = %bb1.i7
  unreachable

terminate.i9:                                     ; preds = %cleanup.i8
  %103 = landingpad { ptr, i32 }
          cleanup
          filter [0 x ptr] zeroinitializer
  %104 = extractvalue { ptr, i32 } %103, 0
  %105 = extractvalue { ptr, i32 } %103, 1
; call core::panicking::panic_in_cleanup
  call void @_ZN4core9panicking16panic_in_cleanup17h803841cec7522372E() #15, !dbg !3376
  unreachable, !dbg !3376

bb5.i10:                                          ; preds = %cleanup.i8
  %106 = load ptr, ptr %4, align 8, !dbg !3376, !noundef !23
  %107 = getelementptr inbounds i8, ptr %4, i64 8, !dbg !3376
  %108 = load i32, ptr %107, align 8, !dbg !3376, !noundef !23
  %109 = insertvalue { ptr, i32 } poison, ptr %106, 0, !dbg !3376
  %110 = insertvalue { ptr, i32 } %109, i32 %108, 1, !dbg !3376
  br label %cleanup4.body12

"_ZN4core6result19Result$LT$T$C$E$GT$6unwrap17h32d4b47b9fa3b445E.exit14": ; preds = %bb16
  br label %bb17, !dbg !3377

bb17:                                             ; preds = %"_ZN4core6result19Result$LT$T$C$E$GT$6unwrap17h32d4b47b9fa3b445E.exit14"
; invoke curl::easy::handle::Transfer::perform
  invoke void @_ZN4curl4easy6handle8Transfer7perform17hbafc5eeec68b5dedE(ptr sret(%"core::result::Result<(), curl::error::Error>") align 8 %_37, ptr align 8 %transfer)
          to label %bb18 unwind label %cleanup4, !dbg !3378

bb18:                                             ; preds = %bb17
  call void @llvm.dbg.declare(metadata ptr undef, metadata !3302, metadata !DIExpression()), !dbg !3379
  call void @llvm.dbg.declare(metadata ptr %_37, metadata !3309, metadata !DIExpression()), !dbg !3381
  call void @llvm.dbg.declare(metadata ptr %e.i, metadata !3310, metadata !DIExpression()), !dbg !3382
  %_2.i = load i64, ptr %_37, align 8, !dbg !3383, !range !1128, !noundef !23
  %111 = icmp eq i64 %_2.i, 0, !dbg !3384
  br i1 %111, label %"_ZN4core6result19Result$LT$T$C$E$GT$6unwrap17h32d4b47b9fa3b445E.exit", label %bb1.i, !dbg !3384

bb1.i:                                            ; preds = %bb18
  %112 = getelementptr inbounds %"core::result::Result<(), curl::error::Error>::Err", ptr %_37, i32 0, i32 1, !dbg !3385
  call void @llvm.memcpy.p0.p0.i64(ptr align 8 %e.i, ptr align 8 %112, i64 24, i1 false), !dbg !3385
; invoke core::result::unwrap_failed
  invoke void @_ZN4core6result13unwrap_failed17h1356562ef8bc898cE(ptr align 1 @alloc_00ae4b301f7fab8ac9617c03fcbd7274, i64 43, ptr align 1 %e.i, ptr align 8 @vtable.3, ptr align 8 @alloc_389535b89d2cb068fbaf524b753cbb0c) #13
          to label %unreachable.i unwind label %cleanup.i, !dbg !3386

cleanup.i:                                        ; preds = %bb1.i
  %113 = landingpad { ptr, i32 }
          cleanup
  %114 = extractvalue { ptr, i32 } %113, 0
  %115 = extractvalue { ptr, i32 } %113, 1
  store ptr %114, ptr %5, align 8
  %116 = getelementptr inbounds i8, ptr %5, i64 8
  store i32 %115, ptr %116, align 8
; invoke core::ptr::drop_in_place<curl::error::Error>
  invoke void @"_ZN4core3ptr39drop_in_place$LT$curl..error..Error$GT$17h597f09d3660fb20eE"(ptr align 8 %e.i) #14
          to label %bb5.i unwind label %terminate.i, !dbg !3387

unreachable.i:                                    ; preds = %bb1.i
  unreachable

terminate.i:                                      ; preds = %cleanup.i
  %117 = landingpad { ptr, i32 }
          cleanup
          filter [0 x ptr] zeroinitializer
  %118 = extractvalue { ptr, i32 } %117, 0
  %119 = extractvalue { ptr, i32 } %117, 1
; call core::panicking::panic_in_cleanup
  call void @_ZN4core9panicking16panic_in_cleanup17h803841cec7522372E() #15, !dbg !3388
  unreachable, !dbg !3388

bb5.i:                                            ; preds = %cleanup.i
  %120 = load ptr, ptr %5, align 8, !dbg !3388, !noundef !23
  %121 = getelementptr inbounds i8, ptr %5, i64 8, !dbg !3388
  %122 = load i32, ptr %121, align 8, !dbg !3388, !noundef !23
  %123 = insertvalue { ptr, i32 } poison, ptr %120, 0, !dbg !3388
  %124 = insertvalue { ptr, i32 } %123, i32 %122, 1, !dbg !3388
  br label %cleanup4.body

"_ZN4core6result19Result$LT$T$C$E$GT$6unwrap17h32d4b47b9fa3b445E.exit": ; preds = %bb18
  br label %bb19, !dbg !3389

bb19:                                             ; preds = %"_ZN4core6result19Result$LT$T$C$E$GT$6unwrap17h32d4b47b9fa3b445E.exit"
; invoke core::ptr::drop_in_place<curl::easy::handle::Transfer>
  invoke void @"_ZN4core3ptr49drop_in_place$LT$curl..easy..handle..Transfer$GT$17h18e5fb3949e3f48aE"(ptr align 8 %transfer)
          to label %bb20 unwind label %cleanup3, !dbg !3353

bb20:                                             ; preds = %bb19
  call void @llvm.memcpy.p0.p0.i64(ptr align 8 %_0, ptr align 8 %html_data, i64 24, i1 false), !dbg !3390
; invoke core::ptr::drop_in_place<alloc::string::String>
  invoke void @"_ZN4core3ptr42drop_in_place$LT$alloc..string..String$GT$17h70525e2644847313E"(ptr align 8 %url)
          to label %bb21 unwind label %cleanup1, !dbg !3298

bb21:                                             ; preds = %bb20
; invoke core::ptr::drop_in_place<curl::easy::handle::Easy>
  invoke void @"_ZN4core3ptr45drop_in_place$LT$curl..easy..handle..Easy$GT$17hb7e8485251885beaE"(ptr align 8 %easy)
          to label %bb22 unwind label %cleanup, !dbg !3295

bb22:                                             ; preds = %bb21
; call core::ptr::drop_in_place<alloc::string::String>
  call void @"_ZN4core3ptr42drop_in_place$LT$alloc..string..String$GT$17h70525e2644847313E"(ptr align 8 %input), !dbg !3295
  ret void, !dbg !3391

terminate:                                        ; preds = %bb28, %bb27, %bb26, %bb25, %bb24
  %125 = landingpad { ptr, i32 }
          filter [0 x ptr] zeroinitializer
  %126 = extractvalue { ptr, i32 } %125, 0
  %127 = extractvalue { ptr, i32 } %125, 1
; call core::panicking::panic_in_cleanup
  call void @_ZN4core9panicking16panic_in_cleanup17h803841cec7522372E() #15, !dbg !3392
  unreachable, !dbg !3392

bb29:                                             ; preds = %bb28
  %128 = load ptr, ptr %6, align 8, !dbg !3392, !noundef !23
  %129 = getelementptr inbounds i8, ptr %6, i64 8, !dbg !3392
  %130 = load i32, ptr %129, align 8, !dbg !3392, !noundef !23
  %131 = insertvalue { ptr, i32 } poison, ptr %128, 0, !dbg !3392
  %132 = insertvalue { ptr, i32 } %131, i32 %130, 1, !dbg !3392
  resume { ptr, i32 } %132, !dbg !3392
}

; function::make_rpc::{{closure}}
; Function Attrs: inlinehint nonlazybind uwtable
define internal void @"_ZN8function8make_rpc28_$u7b$$u7b$closure$u7d$$u7d$17h863144bdbd454280E"(ptr sret(%"core::result::Result<usize, curl::easy::handler::ReadError>") align 8 %_0, ptr align 8 %_1, ptr align 1 %buf.0, i64 %buf.1) unnamed_addr #1 !dbg !3393 {
start:
  %buf.dbg.spill = alloca { ptr, i64 }, align 8
  %_1.dbg.spill = alloca ptr, align 8
  %_4 = alloca %"core::result::Result<usize, std::io::error::Error>", align 8
  store ptr %_1, ptr %_1.dbg.spill, align 8
  call void @llvm.dbg.declare(metadata ptr %_1.dbg.spill, metadata !3399, metadata !DIExpression(DW_OP_deref, DW_OP_deref)), !dbg !3400
  store ptr %buf.0, ptr %buf.dbg.spill, align 8
  %0 = getelementptr inbounds i8, ptr %buf.dbg.spill, i64 8
  store i64 %buf.1, ptr %0, align 8
  call void @llvm.dbg.declare(metadata ptr %buf.dbg.spill, metadata !3398, metadata !DIExpression()), !dbg !3401
  %_5 = load ptr, ptr %_1, align 8, !dbg !3402, !nonnull !23, !align !677, !noundef !23
; call std::io::impls::<impl std::io::Read for &[u8]>::read
  call void @"_ZN3std2io5impls60_$LT$impl$u20$std..io..Read$u20$for$u20$$RF$$u5b$u8$u5d$$GT$4read17hdd5bf2c56daa084cE"(ptr sret(%"core::result::Result<usize, std::io::error::Error>") align 8 %_4, ptr align 8 %_5, ptr align 1 %buf.0, i64 %buf.1), !dbg !3402
; call core::result::Result<T,E>::unwrap_or
  %_3 = call i64 @"_ZN4core6result19Result$LT$T$C$E$GT$9unwrap_or17h499195346fba80d3E"(ptr align 8 %_4, i64 0), !dbg !3402
  %1 = getelementptr inbounds %"core::result::Result<usize, curl::easy::handler::ReadError>::Ok", ptr %_0, i32 0, i32 1, !dbg !3403
  store i64 %_3, ptr %1, align 8, !dbg !3403
  store i8 0, ptr %_0, align 8, !dbg !3403
  ret void, !dbg !3404
}

; function::make_rpc::{{closure}}
; Function Attrs: inlinehint nonlazybind uwtable
define internal { i64, i64 } @"_ZN8function8make_rpc28_$u7b$$u7b$closure$u7d$$u7d$17h5a47607b7b4311baE"(ptr align 8 %_1, ptr align 1 %data.0, i64 %data.1) unnamed_addr #1 personality ptr @rust_eh_personality !dbg !3405 {
start:
  %0 = alloca { ptr, i32, [1 x i32] }, align 8
  %e.i = alloca %"alloc::string::FromUtf8Error", align 8
  %1 = alloca { ptr, i32, [1 x i32] }, align 8
  %data.dbg.spill = alloca { ptr, i64 }, align 8
  %_1.dbg.spill = alloca ptr, align 8
  %_5 = alloca %"alloc::vec::Vec<u8>", align 8
  %_4 = alloca %"core::result::Result<alloc::string::String, alloc::string::FromUtf8Error>", align 8
  %_3 = alloca %"alloc::string::String", align 8
  %_0 = alloca %"core::result::Result<usize, curl::easy::handler::WriteError>", align 8
  store ptr %_1, ptr %_1.dbg.spill, align 8
  call void @llvm.dbg.declare(metadata ptr %_1.dbg.spill, metadata !3411, metadata !DIExpression(DW_OP_deref, DW_OP_deref)), !dbg !3412
  store ptr %data.0, ptr %data.dbg.spill, align 8
  %2 = getelementptr inbounds i8, ptr %data.dbg.spill, i64 8
  store i64 %data.1, ptr %2, align 8
  call void @llvm.dbg.declare(metadata ptr %data.dbg.spill, metadata !3410, metadata !DIExpression()), !dbg !3413
; call <alloc::vec::Vec<T> as core::convert::From<&[T]>>::from
  call void @"_ZN87_$LT$alloc..vec..Vec$LT$T$GT$$u20$as$u20$core..convert..From$LT$$RF$$u5b$T$u5d$$GT$$GT$4from17h58a86b7e5aa2b8b3E"(ptr sret(%"alloc::vec::Vec<u8>") align 8 %_5, ptr align 1 %data.0, i64 %data.1), !dbg !3414
; call alloc::string::String::from_utf8
  call void @_ZN5alloc6string6String9from_utf817hb58c89089a472428E(ptr sret(%"core::result::Result<alloc::string::String, alloc::string::FromUtf8Error>") align 8 %_4, ptr align 8 %_5), !dbg !3415
  call void @llvm.dbg.declare(metadata ptr %_3, metadata !3416, metadata !DIExpression()), !dbg !3426
  call void @llvm.dbg.declare(metadata ptr %_4, metadata !3423, metadata !DIExpression()), !dbg !3428
  call void @llvm.dbg.declare(metadata ptr %e.i, metadata !3424, metadata !DIExpression()), !dbg !3429
  %3 = load i64, ptr %_4, align 8, !dbg !3430, !range !3431, !noundef !23
  %4 = icmp eq i64 %3, -9223372036854775808, !dbg !3430
  %_2.i = select i1 %4, i64 0, i64 1, !dbg !3430
  br i1 %4, label %"_ZN4core6result19Result$LT$T$C$E$GT$6unwrap17h17dc31f5564dfeeaE.exit", label %bb1.i, !dbg !3432

bb1.i:                                            ; preds = %start
  call void @llvm.memcpy.p0.p0.i64(ptr align 8 %e.i, ptr align 8 %_4, i64 40, i1 false), !dbg !3433
; invoke core::result::unwrap_failed
  invoke void @_ZN4core6result13unwrap_failed17h1356562ef8bc898cE(ptr align 1 @alloc_00ae4b301f7fab8ac9617c03fcbd7274, i64 43, ptr align 1 %e.i, ptr align 8 @vtable.2, ptr align 8 @alloc_4201e686d318546e103a27924476cf21) #13
          to label %unreachable.i unwind label %cleanup.i, !dbg !3434

cleanup.i:                                        ; preds = %bb1.i
  %5 = landingpad { ptr, i32 }
          cleanup
  %6 = extractvalue { ptr, i32 } %5, 0
  %7 = extractvalue { ptr, i32 } %5, 1
  store ptr %6, ptr %0, align 8
  %8 = getelementptr inbounds i8, ptr %0, i64 8
  store i32 %7, ptr %8, align 8
; invoke core::ptr::drop_in_place<alloc::string::FromUtf8Error>
  invoke void @"_ZN4core3ptr49drop_in_place$LT$alloc..string..FromUtf8Error$GT$17hd21bf16a4fbdb359E"(ptr align 8 %e.i) #14
          to label %bb5.i unwind label %terminate.i, !dbg !3435

unreachable.i:                                    ; preds = %bb1.i
  unreachable

terminate.i:                                      ; preds = %cleanup.i
  %9 = landingpad { ptr, i32 }
          filter [0 x ptr] zeroinitializer
  %10 = extractvalue { ptr, i32 } %9, 0
  %11 = extractvalue { ptr, i32 } %9, 1
; call core::panicking::panic_in_cleanup
  call void @_ZN4core9panicking16panic_in_cleanup17h803841cec7522372E() #15, !dbg !3436
  unreachable, !dbg !3436

bb5.i:                                            ; preds = %cleanup.i
  %12 = load ptr, ptr %0, align 8, !dbg !3436, !noundef !23
  %13 = getelementptr inbounds i8, ptr %0, i64 8, !dbg !3436
  %14 = load i32, ptr %13, align 8, !dbg !3436, !noundef !23
  %15 = insertvalue { ptr, i32 } poison, ptr %12, 0, !dbg !3436
  %16 = insertvalue { ptr, i32 } %15, i32 %14, 1, !dbg !3436
  resume { ptr, i32 } %16, !dbg !3436

"_ZN4core6result19Result$LT$T$C$E$GT$6unwrap17h17dc31f5564dfeeaE.exit": ; preds = %start
  %17 = getelementptr inbounds %"core::result::Result<alloc::string::String, alloc::string::FromUtf8Error>::Ok", ptr %_4, i32 0, i32 1, !dbg !3437
  call void @llvm.memcpy.p0.p0.i64(ptr align 8 %_3, ptr align 8 %17, i64 24, i1 false), !dbg !3437
  %_7 = load ptr, ptr %_1, align 8, !dbg !3438, !nonnull !23, !align !677, !noundef !23
; invoke core::ptr::drop_in_place<alloc::string::String>
  invoke void @"_ZN4core3ptr42drop_in_place$LT$alloc..string..String$GT$17h70525e2644847313E"(ptr align 8 %_7)
          to label %bb4 unwind label %cleanup, !dbg !3438

bb5:                                              ; preds = %cleanup
  %_9 = load ptr, ptr %_1, align 8, !dbg !3438, !nonnull !23, !align !677, !noundef !23
  call void @llvm.memcpy.p0.p0.i64(ptr align 8 %_9, ptr align 8 %_3, i64 24, i1 false), !dbg !3438
  %18 = load ptr, ptr %1, align 8, !dbg !3439, !noundef !23
  %19 = getelementptr inbounds i8, ptr %1, i64 8, !dbg !3439
  %20 = load i32, ptr %19, align 8, !dbg !3439, !noundef !23
  %21 = insertvalue { ptr, i32 } poison, ptr %18, 0, !dbg !3439
  %22 = insertvalue { ptr, i32 } %21, i32 %20, 1, !dbg !3439
  resume { ptr, i32 } %22, !dbg !3439

cleanup:                                          ; preds = %"_ZN4core6result19Result$LT$T$C$E$GT$6unwrap17h17dc31f5564dfeeaE.exit"
  %23 = landingpad { ptr, i32 }
          cleanup
  %24 = extractvalue { ptr, i32 } %23, 0
  %25 = extractvalue { ptr, i32 } %23, 1
  store ptr %24, ptr %1, align 8
  %26 = getelementptr inbounds i8, ptr %1, i64 8
  store i32 %25, ptr %26, align 8
  br label %bb5

bb4:                                              ; preds = %"_ZN4core6result19Result$LT$T$C$E$GT$6unwrap17h17dc31f5564dfeeaE.exit"
  %_8 = load ptr, ptr %_1, align 8, !dbg !3438, !nonnull !23, !align !677, !noundef !23
  call void @llvm.memcpy.p0.p0.i64(ptr align 8 %_8, ptr align 8 %_3, i64 24, i1 false), !dbg !3438
  %27 = getelementptr inbounds i8, ptr %_0, i64 8, !dbg !3440
  store i64 %data.1, ptr %27, align 8, !dbg !3440
  store i64 0, ptr %_0, align 8, !dbg !3440
  %28 = load i64, ptr %_0, align 8, !dbg !3441, !range !1128, !noundef !23
  %29 = getelementptr inbounds i8, ptr %_0, i64 8, !dbg !3441
  %30 = load i64, ptr %29, align 8, !dbg !3441
  %31 = insertvalue { i64, i64 } poison, i64 %28, 0, !dbg !3441
  %32 = insertvalue { i64, i64 } %31, i64 %30, 1, !dbg !3441
  ret { i64, i64 } %32, !dbg !3441
}

; function::get_arg_from_caller
; Function Attrs: nonlazybind uwtable
define internal void @_ZN8function19get_arg_from_caller17hc28c2e36d963c8a8E(ptr sret(%"alloc::string::String") align 8 %_0) unnamed_addr #2 personality ptr @rust_eh_personality !dbg !3442 {
start:
  %0 = alloca { ptr, i32, [1 x i32] }, align 8
  %_4 = alloca ptr, align 8
  %_2 = alloca %"core::result::Result<usize, std::io::error::Error>", align 8
  %buffer = alloca %"alloc::string::String", align 8
  call void @llvm.dbg.declare(metadata ptr %buffer, metadata !3444, metadata !DIExpression()), !dbg !3446
; call alloc::string::String::new
  call void @_ZN5alloc6string6String3new17h7ea8f40de88ae795E(ptr sret(%"alloc::string::String") align 8 %buffer), !dbg !3447
; invoke std::io::stdio::stdin
  %1 = invoke align 8 ptr @_ZN3std2io5stdio5stdin17hb2dfe1137d85b920E()
          to label %bb2 unwind label %cleanup, !dbg !3448

bb5:                                              ; preds = %cleanup
; invoke core::ptr::drop_in_place<alloc::string::String>
  invoke void @"_ZN4core3ptr42drop_in_place$LT$alloc..string..String$GT$17h70525e2644847313E"(ptr align 8 %buffer) #14
          to label %bb6 unwind label %terminate, !dbg !3449

cleanup:                                          ; preds = %bb3, %bb2, %start
  %2 = landingpad { ptr, i32 }
          cleanup
  %3 = extractvalue { ptr, i32 } %2, 0
  %4 = extractvalue { ptr, i32 } %2, 1
  store ptr %3, ptr %0, align 8
  %5 = getelementptr inbounds i8, ptr %0, i64 8
  store i32 %4, ptr %5, align 8
  br label %bb5

bb2:                                              ; preds = %start
  store ptr %1, ptr %_4, align 8, !dbg !3448
; invoke std::io::stdio::Stdin::read_line
  invoke void @_ZN3std2io5stdio5Stdin9read_line17h4fbeed56d7bf9076E(ptr sret(%"core::result::Result<usize, std::io::error::Error>") align 8 %_2, ptr align 8 %_4, ptr align 8 %buffer)
          to label %bb3 unwind label %cleanup, !dbg !3448

bb3:                                              ; preds = %bb2
; invoke core::ptr::drop_in_place<core::result::Result<usize,std::io::error::Error>>
  invoke void @"_ZN4core3ptr78drop_in_place$LT$core..result..Result$LT$usize$C$std..io..error..Error$GT$$GT$17ha7e9974dad518386E"(ptr align 8 %_2)
          to label %bb4 unwind label %cleanup, !dbg !3450

bb4:                                              ; preds = %bb3
  call void @llvm.memcpy.p0.p0.i64(ptr align 8 %_0, ptr align 8 %buffer, i64 24, i1 false), !dbg !3451
  ret void, !dbg !3452

terminate:                                        ; preds = %bb5
  %6 = landingpad { ptr, i32 }
          filter [0 x ptr] zeroinitializer
  %7 = extractvalue { ptr, i32 } %6, 0
  %8 = extractvalue { ptr, i32 } %6, 1
; call core::panicking::panic_in_cleanup
  call void @_ZN4core9panicking16panic_in_cleanup17h803841cec7522372E() #15, !dbg !3453
  unreachable, !dbg !3453

bb6:                                              ; preds = %bb5
  %9 = load ptr, ptr %0, align 8, !dbg !3453, !noundef !23
  %10 = getelementptr inbounds i8, ptr %0, i64 8, !dbg !3453
  %11 = load i32, ptr %10, align 8, !dbg !3453, !noundef !23
  %12 = insertvalue { ptr, i32 } poison, ptr %9, 0, !dbg !3453
  %13 = insertvalue { ptr, i32 } %12, i32 %11, 1, !dbg !3453
  resume { ptr, i32 } %13, !dbg !3453
}

; function::send_return_value_to_caller
; Function Attrs: nonlazybind uwtable
define internal void @_ZN8function27send_return_value_to_caller17h42c89a6c4b970a38E(ptr align 8 %output) unnamed_addr #2 personality ptr @rust_eh_personality !dbg !3454 {
start:
  %f.dbg.spill.i = alloca ptr, align 8
  %x.dbg.spill.i = alloca ptr, align 8
  %_0.i = alloca %"core::fmt::rt::Argument<'_>", align 8
  %0 = alloca { ptr, i32, [1 x i32] }, align 8
  %_7 = alloca [1 x %"core::fmt::rt::Argument<'_>"], align 8
  %_3 = alloca %"core::fmt::Arguments<'_>", align 8
  call void @llvm.dbg.declare(metadata ptr %output, metadata !3458, metadata !DIExpression()), !dbg !3459
  store ptr %output, ptr %x.dbg.spill.i, align 8
  call void @llvm.dbg.declare(metadata ptr %x.dbg.spill.i, metadata !3460, metadata !DIExpression()), !dbg !3468
  call void @llvm.dbg.declare(metadata ptr %x.dbg.spill.i, metadata !3470, metadata !DIExpression()), !dbg !3479
  store ptr @"_ZN60_$LT$alloc..string..String$u20$as$u20$core..fmt..Display$GT$3fmt17hb071d869e47a5a4cE", ptr %f.dbg.spill.i, align 8, !dbg !3481
  call void @llvm.dbg.declare(metadata ptr %f.dbg.spill.i, metadata !3478, metadata !DIExpression()), !dbg !3482
  store ptr %output, ptr %_0.i, align 8, !dbg !3483
  %1 = getelementptr inbounds i8, ptr %_0.i, i64 8, !dbg !3483
  store ptr @"_ZN60_$LT$alloc..string..String$u20$as$u20$core..fmt..Display$GT$3fmt17hb071d869e47a5a4cE", ptr %1, align 8, !dbg !3483
  %2 = load ptr, ptr %_0.i, align 8, !dbg !3484, !nonnull !23, !align !532, !noundef !23
  %3 = getelementptr inbounds i8, ptr %_0.i, i64 8, !dbg !3484
  %4 = load ptr, ptr %3, align 8, !dbg !3484, !nonnull !23, !noundef !23
  %5 = insertvalue { ptr, ptr } poison, ptr %2, 0, !dbg !3484
  %6 = insertvalue { ptr, ptr } %5, ptr %4, 1, !dbg !3484
  br label %bb1, !dbg !3484

bb5:                                              ; preds = %cleanup
; invoke core::ptr::drop_in_place<alloc::string::String>
  invoke void @"_ZN4core3ptr42drop_in_place$LT$alloc..string..String$GT$17h70525e2644847313E"(ptr align 8 %output) #14
          to label %bb6 unwind label %terminate, !dbg !3485

cleanup:                                          ; preds = %bb2, %bb1
  %7 = landingpad { ptr, i32 }
          cleanup
  %8 = extractvalue { ptr, i32 } %7, 0
  %9 = extractvalue { ptr, i32 } %7, 1
  store ptr %8, ptr %0, align 8
  %10 = getelementptr inbounds i8, ptr %0, i64 8
  store i32 %9, ptr %10, align 8
  br label %bb5

bb1:                                              ; preds = %start
  %_8.0 = extractvalue { ptr, ptr } %6, 0, !dbg !3486
  %_8.1 = extractvalue { ptr, ptr } %6, 1, !dbg !3486
  %11 = getelementptr inbounds [1 x %"core::fmt::rt::Argument<'_>"], ptr %_7, i64 0, i64 0, !dbg !3486
  store ptr %_8.0, ptr %11, align 8, !dbg !3486
  %12 = getelementptr inbounds i8, ptr %11, i64 8, !dbg !3486
  store ptr %_8.1, ptr %12, align 8, !dbg !3486
; invoke core::fmt::Arguments::new_v1
  invoke void @_ZN4core3fmt9Arguments6new_v117h2bd42c43f6f82d3fE(ptr sret(%"core::fmt::Arguments<'_>") align 8 %_3, ptr align 8 @alloc_3cf8a28b1a0b9f6efeedeb779c4e30d8, i64 2, ptr align 8 %_7, i64 1)
          to label %bb2 unwind label %cleanup, !dbg !3486

bb2:                                              ; preds = %bb1
; invoke std::io::stdio::_print
  invoke void @_ZN3std2io5stdio6_print17hc62f134794ba50d8E(ptr align 8 %_3)
          to label %bb3 unwind label %cleanup, !dbg !3486

bb3:                                              ; preds = %bb2
; call core::ptr::drop_in_place<alloc::string::String>
  call void @"_ZN4core3ptr42drop_in_place$LT$alloc..string..String$GT$17h70525e2644847313E"(ptr align 8 %output), !dbg !3485
  ret void, !dbg !3487

terminate:                                        ; preds = %bb5
  %13 = landingpad { ptr, i32 }
          filter [0 x ptr] zeroinitializer
  %14 = extractvalue { ptr, i32 } %13, 0
  %15 = extractvalue { ptr, i32 } %13, 1
; call core::panicking::panic_in_cleanup
  call void @_ZN4core9panicking16panic_in_cleanup17h803841cec7522372E() #15, !dbg !3488
  unreachable, !dbg !3488

bb6:                                              ; preds = %bb5
  %16 = load ptr, ptr %0, align 8, !dbg !3488, !noundef !23
  %17 = getelementptr inbounds i8, ptr %0, i64 8, !dbg !3488
  %18 = load i32, ptr %17, align 8, !dbg !3488, !noundef !23
  %19 = insertvalue { ptr, i32 } poison, ptr %16, 0, !dbg !3488
  %20 = insertvalue { ptr, i32 } %19, i32 %18, 1, !dbg !3488
  resume { ptr, i32 } %20, !dbg !3488
}

; function::main
; Function Attrs: nonlazybind uwtable
define internal void @_ZN8function4main17h4f7077aab6671083E() unnamed_addr #2 personality ptr @rust_eh_personality !dbg !3489 {
start:
  %0 = alloca { ptr, i32, [1 x i32] }, align 8
  %_12 = alloca i8, align 1
  %_10 = alloca %"alloc::string::String", align 8
  %result = alloca %"alloc::string::String", align 8
  %prefix = alloca %"alloc::string::String", align 8
  %buffer = alloca %"alloc::string::String", align 8
  call void @llvm.dbg.declare(metadata ptr %buffer, metadata !3491, metadata !DIExpression()), !dbg !3497
  call void @llvm.dbg.declare(metadata ptr %prefix, metadata !3493, metadata !DIExpression()), !dbg !3498
  call void @llvm.dbg.declare(metadata ptr %result, metadata !3495, metadata !DIExpression()), !dbg !3499
  store i8 0, ptr %_12, align 1, !dbg !3500
; call function::get_arg_from_caller
  call void @_ZN8function19get_arg_from_caller17hc28c2e36d963c8a8E(ptr sret(%"alloc::string::String") align 8 %buffer), !dbg !3501
; invoke alloc::str::<impl alloc::borrow::ToOwned for str>::to_owned
  invoke void @"_ZN5alloc3str56_$LT$impl$u20$alloc..borrow..ToOwned$u20$for$u20$str$GT$8to_owned17h95c81f33fcfdddecE"(ptr sret(%"alloc::string::String") align 8 %prefix, ptr align 1 @alloc_cdb78bd1888bb658cb17aeb3ca449c00, i64 18)
          to label %bb2 unwind label %cleanup, !dbg !3502

bb8:                                              ; preds = %bb10, %bb11, %cleanup
; invoke core::ptr::drop_in_place<alloc::string::String>
  invoke void @"_ZN4core3ptr42drop_in_place$LT$alloc..string..String$GT$17h70525e2644847313E"(ptr align 8 %buffer) #14
          to label %bb9 unwind label %terminate, !dbg !3503

cleanup:                                          ; preds = %start
  %1 = landingpad { ptr, i32 }
          cleanup
  %2 = extractvalue { ptr, i32 } %1, 0
  %3 = extractvalue { ptr, i32 } %1, 1
  store ptr %2, ptr %0, align 8
  %4 = getelementptr inbounds i8, ptr %0, i64 8
  store i32 %3, ptr %4, align 8
  br label %bb8

bb2:                                              ; preds = %start
  store i8 1, ptr %_12, align 1, !dbg !3504
; invoke <alloc::string::String as core::ops::deref::Deref>::deref
  %5 = invoke { ptr, i64 } @"_ZN65_$LT$alloc..string..String$u20$as$u20$core..ops..deref..Deref$GT$5deref17h57c1af5cf5c4a56cE"(ptr align 8 %buffer)
          to label %bb3 unwind label %cleanup1, !dbg !3505

bb11:                                             ; preds = %cleanup1
  %6 = load i8, ptr %_12, align 1, !dbg !3506, !range !815, !noundef !23
  %7 = trunc i8 %6 to i1, !dbg !3506
  br i1 %7, label %bb10, label %bb8, !dbg !3506

cleanup1:                                         ; preds = %bb5, %bb4, %bb3, %bb2
  %8 = landingpad { ptr, i32 }
          cleanup
  %9 = extractvalue { ptr, i32 } %8, 0
  %10 = extractvalue { ptr, i32 } %8, 1
  store ptr %9, ptr %0, align 8
  %11 = getelementptr inbounds i8, ptr %0, i64 8
  store i32 %10, ptr %11, align 8
  br label %bb11

bb3:                                              ; preds = %bb2
  %_6.0 = extractvalue { ptr, i64 } %5, 0, !dbg !3505
  %_6.1 = extractvalue { ptr, i64 } %5, 1, !dbg !3505
; invoke alloc::string::String::push_str
  invoke void @_ZN5alloc6string6String8push_str17h07cd09ba30ebdd5bE(ptr align 8 %prefix, ptr align 1 %_6.0, i64 %_6.1)
          to label %bb4 unwind label %cleanup1, !dbg !3507

bb4:                                              ; preds = %bb3
  store i8 0, ptr %_12, align 1, !dbg !3508
  call void @llvm.memcpy.p0.p0.i64(ptr align 8 %_10, ptr align 8 %prefix, i64 24, i1 false), !dbg !3508
; invoke function::make_rpc
  invoke void @_ZN8function8make_rpc17hee7d0329c32aa90cE(ptr sret(%"alloc::string::String") align 8 %result, ptr align 1 @alloc_4960c6e0cf11257e795dec02e75bf85c, i64 8, ptr align 8 %_10)
          to label %bb5 unwind label %cleanup1, !dbg !3509

bb5:                                              ; preds = %bb4
; invoke function::send_return_value_to_caller
  invoke void @_ZN8function27send_return_value_to_caller17h42c89a6c4b970a38E(ptr align 8 %result)
          to label %bb6 unwind label %cleanup1, !dbg !3510

bb6:                                              ; preds = %bb5
  store i8 0, ptr %_12, align 1, !dbg !3506
; call core::ptr::drop_in_place<alloc::string::String>
  call void @"_ZN4core3ptr42drop_in_place$LT$alloc..string..String$GT$17h70525e2644847313E"(ptr align 8 %buffer), !dbg !3503
  ret void, !dbg !3511

bb10:                                             ; preds = %bb11
; invoke core::ptr::drop_in_place<alloc::string::String>
  invoke void @"_ZN4core3ptr42drop_in_place$LT$alloc..string..String$GT$17h70525e2644847313E"(ptr align 8 %prefix) #14
          to label %bb8 unwind label %terminate, !dbg !3506

terminate:                                        ; preds = %bb8, %bb10
  %12 = landingpad { ptr, i32 }
          filter [0 x ptr] zeroinitializer
  %13 = extractvalue { ptr, i32 } %12, 0
  %14 = extractvalue { ptr, i32 } %12, 1
; call core::panicking::panic_in_cleanup
  call void @_ZN4core9panicking16panic_in_cleanup17h803841cec7522372E() #15, !dbg !3512
  unreachable, !dbg !3512

bb9:                                              ; preds = %bb8
  %15 = load ptr, ptr %0, align 8, !dbg !3512, !noundef !23
  %16 = getelementptr inbounds i8, ptr %0, i64 8, !dbg !3512
  %17 = load i32, ptr %16, align 8, !dbg !3512, !noundef !23
  %18 = insertvalue { ptr, i32 } poison, ptr %15, 0, !dbg !3512
  %19 = insertvalue { ptr, i32 } %18, i32 %17, 1, !dbg !3512
  resume { ptr, i32 } %19, !dbg !3512
}

; Function Attrs: nocallback nofree nosync nounwind speculatable willreturn memory(none)
declare void @llvm.dbg.declare(metadata, metadata, metadata) #3

; core::cmp::min_by
; Function Attrs: inlinehint nonlazybind uwtable
declare i64 @_ZN4core3cmp6min_by17h74f511c3cf96be1eE(i64, i64) unnamed_addr #1

; Function Attrs: nocallback nofree nosync nounwind willreturn memory(none)
declare i1 @llvm.expect.i1(i1, i1) #4

; core::panicking::panic_bounds_check
; Function Attrs: cold noinline noreturn nonlazybind uwtable
declare void @_ZN4core9panicking18panic_bounds_check17hf45ce6debf926a45E(i64, i64, ptr align 8) unnamed_addr #5

; <core::ops::range::Range<usize> as core::slice::index::SliceIndex<[T]>>::index_mut
; Function Attrs: inlinehint nonlazybind uwtable
declare { ptr, i64 } @"_ZN106_$LT$core..ops..range..Range$LT$usize$GT$$u20$as$u20$core..slice..index..SliceIndex$LT$$u5b$T$u5d$$GT$$GT$9index_mut17h0da8120cc3a3b70eE"(i64, i64, ptr align 1, i64, ptr align 8) unnamed_addr #1

; std::rt::lang_start_internal
; Function Attrs: nonlazybind uwtable
declare i64 @_ZN3std2rt19lang_start_internal17hc3f700406209db2cE(ptr align 1, ptr align 8, i64, ptr, i8) unnamed_addr #2

; core::fmt::Formatter::debug_list
; Function Attrs: nonlazybind uwtable
declare void @_ZN4core3fmt9Formatter10debug_list17h876a1c15cedf3397E(ptr sret(%"core::fmt::builders::DebugList<'_, '_>") align 8, ptr align 8) unnamed_addr #2

; core::fmt::builders::DebugList::finish
; Function Attrs: nonlazybind uwtable
declare zeroext i1 @_ZN4core3fmt8builders9DebugList6finish17h052888958915dc88E(ptr align 8) unnamed_addr #2

; core::fmt::num::imp::<impl core::fmt::Display for usize>::fmt
; Function Attrs: nonlazybind uwtable
declare zeroext i1 @"_ZN4core3fmt3num3imp54_$LT$impl$u20$core..fmt..Display$u20$for$u20$usize$GT$3fmt17h7bbbd896a38dcccaE"(ptr align 8, ptr align 8) unnamed_addr #2

; core::fmt::num::<impl core::fmt::UpperHex for usize>::fmt
; Function Attrs: nonlazybind uwtable
declare zeroext i1 @"_ZN4core3fmt3num55_$LT$impl$u20$core..fmt..UpperHex$u20$for$u20$usize$GT$3fmt17hdaf6f71ebb81ebeeE"(ptr align 8, ptr align 8) unnamed_addr #2

; core::fmt::num::<impl core::fmt::LowerHex for usize>::fmt
; Function Attrs: nonlazybind uwtable
declare zeroext i1 @"_ZN4core3fmt3num55_$LT$impl$u20$core..fmt..LowerHex$u20$for$u20$usize$GT$3fmt17hdcbbec87e7e8bf7bE"(ptr align 8, ptr align 8) unnamed_addr #2

; Function Attrs: nonlazybind uwtable
declare i32 @rust_eh_personality(i32, i32, i64, ptr, ptr) unnamed_addr #2

; <core::slice::iter::Iter<T> as core::iter::traits::iterator::Iterator>::next
; Function Attrs: inlinehint nonlazybind uwtable
declare align 1 ptr @"_ZN91_$LT$core..slice..iter..Iter$LT$T$GT$$u20$as$u20$core..iter..traits..iterator..Iterator$GT$4next17hf2438c5008858589E"(ptr align 8) unnamed_addr #1

; <&T as core::fmt::Debug>::fmt
; Function Attrs: nonlazybind uwtable
declare zeroext i1 @"_ZN42_$LT$$RF$T$u20$as$u20$core..fmt..Debug$GT$3fmt17hc263d2b261a33dbbE"(ptr align 8, ptr align 8) unnamed_addr #2

; core::fmt::builders::DebugList::entry
; Function Attrs: nonlazybind uwtable
declare align 8 ptr @_ZN4core3fmt8builders9DebugList5entry17hd1d9a4a9a039c3ebE(ptr align 8, ptr align 1, ptr align 8) unnamed_addr #2

; core::panicking::panic_fmt
; Function Attrs: cold noinline noreturn nonlazybind uwtable
declare void @_ZN4core9panicking9panic_fmt17h0d3f1893e38be419E(ptr align 8, ptr align 8) unnamed_addr #5

; core::ptr::drop_in_place<alloc::vec::Vec<u8>>
; Function Attrs: nonlazybind uwtable
declare void @"_ZN4core3ptr46drop_in_place$LT$alloc..vec..Vec$LT$u8$GT$$GT$17h7cd5af2bd54d4f8eE"(ptr align 8) unnamed_addr #2

; core::ptr::drop_in_place<std::io::error::Error>
; Function Attrs: nonlazybind uwtable
declare void @"_ZN4core3ptr42drop_in_place$LT$std..io..error..Error$GT$17hfd03b64205700279E"(ptr align 8) unnamed_addr #2

; Function Attrs: nocallback nofree nounwind willreturn memory(argmem: readwrite)
declare void @llvm.memcpy.p0.p0.i64(ptr noalias nocapture writeonly, ptr noalias nocapture readonly, i64, i1 immarg) #6

; core::slice::<impl [T]>::copy_from_slice::len_mismatch_fail
; Function Attrs: cold noinline noreturn nonlazybind uwtable
declare void @"_ZN4core5slice29_$LT$impl$u20$$u5b$T$u5d$$GT$15copy_from_slice17len_mismatch_fail17h91356e456d8f3056E"(i64, i64, ptr align 8) unnamed_addr #5

; core::result::unwrap_failed
; Function Attrs: cold noinline noreturn nonlazybind uwtable
declare void @_ZN4core6result13unwrap_failed17h1356562ef8bc898cE(ptr align 1, i64, ptr align 1, ptr align 8, ptr align 8) unnamed_addr #5

; core::panicking::panic_in_cleanup
; Function Attrs: cold noinline noreturn nounwind nonlazybind uwtable
declare void @_ZN4core9panicking16panic_in_cleanup17h803841cec7522372E() unnamed_addr #7

; core::ptr::drop_in_place<curl::error::Error>
; Function Attrs: nonlazybind uwtable
declare void @"_ZN4core3ptr39drop_in_place$LT$curl..error..Error$GT$17h597f09d3660fb20eE"(ptr align 8) unnamed_addr #2

; <curl::error::Error as core::fmt::Debug>::fmt
; Function Attrs: nonlazybind uwtable
declare zeroext i1 @"_ZN55_$LT$curl..error..Error$u20$as$u20$core..fmt..Debug$GT$3fmt17hd77bd782d1904c55E"(ptr align 8, ptr align 8) unnamed_addr #2

; core::ptr::drop_in_place<core::option::Option<alloc::boxed::Box<dyn core::ops::function::FnMut<(&mut [u8],)>+Output = core::result::Result<usize,curl::easy::handler::ReadError>>>>
; Function Attrs: nonlazybind uwtable
declare void @"_ZN4core3ptr243drop_in_place$LT$core..option..Option$LT$alloc..boxed..Box$LT$dyn$u20$core..ops..function..FnMut$LT$$LP$$RF$mut$u20$$u5b$u8$u5d$$C$$RP$$GT$$u2b$Output$u20$$u3d$$u20$core..result..Result$LT$usize$C$curl..easy..handler..ReadError$GT$$GT$$GT$$GT$17hf6a0325c6569e144E"(ptr align 8) unnamed_addr #2

; core::panicking::panic_misaligned_pointer_dereference
; Function Attrs: cold noinline noreturn nounwind nonlazybind uwtable
declare void @_ZN4core9panicking36panic_misaligned_pointer_dereference17hd2b8821d4f285972E(i64, i64, ptr align 8) unnamed_addr #7

; core::ptr::drop_in_place<core::option::Option<alloc::boxed::Box<dyn core::ops::function::FnMut<(&[u8],)>+Output = core::result::Result<usize,curl::easy::handler::WriteError>>>>
; Function Attrs: nonlazybind uwtable
declare void @"_ZN4core3ptr236drop_in_place$LT$core..option..Option$LT$alloc..boxed..Box$LT$dyn$u20$core..ops..function..FnMut$LT$$LP$$RF$$u5b$u8$u5d$$C$$RP$$GT$$u2b$Output$u20$$u3d$$u20$core..result..Result$LT$usize$C$curl..easy..handler..WriteError$GT$$GT$$GT$$GT$17hf1c6e96a88b49dd1E"(ptr align 8) unnamed_addr #2

; alloc::raw_vec::RawVec<T,A>::allocate_in
; Function Attrs: nonlazybind uwtable
declare { i64, ptr } @"_ZN5alloc7raw_vec19RawVec$LT$T$C$A$GT$11allocate_in17hf233f763ba172f41E"(i64, i1 zeroext) unnamed_addr #2

; alloc::alloc::handle_alloc_error
; Function Attrs: cold noreturn nonlazybind uwtable
declare void @_ZN5alloc5alloc18handle_alloc_error17h48039cdfd0d60c1cE(i64, i64) unnamed_addr #8

; Function Attrs: nocallback nofree nosync nounwind willreturn memory(inaccessiblemem: readwrite)
declare void @llvm.assume(i1 noundef) #9

; Function Attrs: nounwind nonlazybind allockind("alloc,uninitialized,aligned") allocsize(0) uwtable
declare noalias ptr @__rust_alloc(i64, i64 allocalign) unnamed_addr #10

; Function Attrs: nounwind nonlazybind allockind("alloc,zeroed,aligned") allocsize(0) uwtable
declare noalias ptr @__rust_alloc_zeroed(i64, i64 allocalign) unnamed_addr #11

; alloc::vec::Vec<T,A>::extend_from_slice
; Function Attrs: nonlazybind uwtable
declare void @"_ZN5alloc3vec16Vec$LT$T$C$A$GT$17extend_from_slice17h8c067d0c806c46b7E"(ptr align 8, ptr align 1, i64) unnamed_addr #2

; core::str::converts::from_utf8
; Function Attrs: nonlazybind uwtable
declare void @_ZN4core3str8converts9from_utf817hc8e8a5bde000841dE(ptr sret(%"core::result::Result<&str, core::str::error::Utf8Error>") align 8, ptr align 1, i64) unnamed_addr #2

; <str as core::fmt::Display>::fmt
; Function Attrs: nonlazybind uwtable
declare zeroext i1 @"_ZN42_$LT$str$u20$as$u20$core..fmt..Display$GT$3fmt17h86309c7b5dd516e7E"(ptr align 1, i64, ptr align 8) unnamed_addr #2

; <&T as core::fmt::Debug>::fmt
; Function Attrs: nonlazybind uwtable
declare zeroext i1 @"_ZN42_$LT$$RF$T$u20$as$u20$core..fmt..Debug$GT$3fmt17h403819fc4a983a8eE"(ptr align 8, ptr align 8) unnamed_addr #2

; core::fmt::Formatter::debug_struct_field2_finish
; Function Attrs: nonlazybind uwtable
declare zeroext i1 @_ZN4core3fmt9Formatter26debug_struct_field2_finish17h1f3ee845d6554337E(ptr align 8, ptr align 1, i64, ptr align 1, i64, ptr align 1, ptr align 8, ptr align 1, i64, ptr align 1, ptr align 8) unnamed_addr #2

; <T as alloc::slice::hack::ConvertVec>::to_vec
; Function Attrs: inlinehint nonlazybind uwtable
declare void @"_ZN52_$LT$T$u20$as$u20$alloc..slice..hack..ConvertVec$GT$6to_vec17h782059ccc7dc61c2E"(ptr sret(%"alloc::vec::Vec<u8>") align 8, ptr align 1, i64) unnamed_addr #1

; curl::easy::handle::Easy::new
; Function Attrs: nonlazybind uwtable
declare align 8 ptr @_ZN4curl4easy6handle4Easy3new17h1b55e2d450a08989E() unnamed_addr #2

; curl::easy::handle::Easy::url
; Function Attrs: nonlazybind uwtable
declare void @_ZN4curl4easy6handle4Easy3url17h7e3b74680c553659E(ptr sret(%"core::result::Result<(), curl::error::Error>") align 8, ptr align 8, ptr align 1, i64) unnamed_addr #2

; curl::easy::handle::Easy::post
; Function Attrs: nonlazybind uwtable
declare void @_ZN4curl4easy6handle4Easy4post17hda04471ab5e97b35E(ptr sret(%"core::result::Result<(), curl::error::Error>") align 8, ptr align 8, i1 zeroext) unnamed_addr #2

; curl::easy::handle::Easy::post_field_size
; Function Attrs: nonlazybind uwtable
declare void @_ZN4curl4easy6handle4Easy15post_field_size17hf8e2eb1496b0835dE(ptr sret(%"core::result::Result<(), curl::error::Error>") align 8, ptr align 8, i64) unnamed_addr #2

; curl::easy::handle::Easy::transfer
; Function Attrs: nonlazybind uwtable
declare { ptr, ptr } @_ZN4curl4easy6handle4Easy8transfer17he3f721cd4ac7f2a3E(ptr align 8) unnamed_addr #2

; curl::easy::handle::Transfer::perform
; Function Attrs: nonlazybind uwtable
declare void @_ZN4curl4easy6handle8Transfer7perform17hbafc5eeec68b5dedE(ptr sret(%"core::result::Result<(), curl::error::Error>") align 8, ptr align 8) unnamed_addr #2

; core::ptr::drop_in_place<curl::easy::handle::Transfer>
; Function Attrs: nonlazybind uwtable
declare void @"_ZN4core3ptr49drop_in_place$LT$curl..easy..handle..Transfer$GT$17h18e5fb3949e3f48aE"(ptr align 8) unnamed_addr #2

; core::ptr::drop_in_place<alloc::string::String>
; Function Attrs: nonlazybind uwtable
declare void @"_ZN4core3ptr42drop_in_place$LT$alloc..string..String$GT$17h70525e2644847313E"(ptr align 8) unnamed_addr #2

; core::ptr::drop_in_place<curl::easy::handle::Easy>
; Function Attrs: nonlazybind uwtable
declare void @"_ZN4core3ptr45drop_in_place$LT$curl..easy..handle..Easy$GT$17hb7e8485251885beaE"(ptr align 8) unnamed_addr #2

; std::io::stdio::stdin
; Function Attrs: nonlazybind uwtable
declare align 8 ptr @_ZN3std2io5stdio5stdin17hb2dfe1137d85b920E() unnamed_addr #2

; std::io::stdio::Stdin::read_line
; Function Attrs: nonlazybind uwtable
declare void @_ZN3std2io5stdio5Stdin9read_line17h4fbeed56d7bf9076E(ptr sret(%"core::result::Result<usize, std::io::error::Error>") align 8, ptr align 8, ptr align 8) unnamed_addr #2

; std::io::stdio::_print
; Function Attrs: nonlazybind uwtable
declare void @_ZN3std2io5stdio6_print17hc62f134794ba50d8E(ptr align 8) unnamed_addr #2

; Function Attrs: nonlazybind
define i32 @main(i32 %0, ptr %1) unnamed_addr #12 {
top:
  %2 = load volatile i8, ptr @__rustc_debug_gdb_scripts_section__, align 1
  %3 = sext i32 %0 to i64
; call std::rt::lang_start
  %4 = call i64 @_ZN3std2rt10lang_start17h9dbee000ca5548a0E(ptr @_ZN8function4main17h4f7077aab6671083E, i64 %3, ptr %1, i8 0)
  %5 = trunc i64 %4 to i32
  ret i32 %5
}

attributes #0 = { noinline nonlazybind uwtable "probe-stack"="inline-asm" "target-cpu"="x86-64" }
attributes #1 = { inlinehint nonlazybind uwtable "probe-stack"="inline-asm" "target-cpu"="x86-64" }
attributes #2 = { nonlazybind uwtable "probe-stack"="inline-asm" "target-cpu"="x86-64" }
attributes #3 = { nocallback nofree nosync nounwind speculatable willreturn memory(none) }
attributes #4 = { nocallback nofree nosync nounwind willreturn memory(none) }
attributes #5 = { cold noinline noreturn nonlazybind uwtable "probe-stack"="inline-asm" "target-cpu"="x86-64" }
attributes #6 = { nocallback nofree nounwind willreturn memory(argmem: readwrite) }
attributes #7 = { cold noinline noreturn nounwind nonlazybind uwtable "probe-stack"="inline-asm" "target-cpu"="x86-64" }
attributes #8 = { cold noreturn nonlazybind uwtable "probe-stack"="inline-asm" "target-cpu"="x86-64" }
attributes #9 = { nocallback nofree nosync nounwind willreturn memory(inaccessiblemem: readwrite) }
attributes #10 = { nounwind nonlazybind allockind("alloc,uninitialized,aligned") allocsize(0) uwtable "alloc-family"="__rust_alloc" "probe-stack"="inline-asm" "target-cpu"="x86-64" }
attributes #11 = { nounwind nonlazybind allockind("alloc,zeroed,aligned") allocsize(0) uwtable "alloc-family"="__rust_alloc" "probe-stack"="inline-asm" "target-cpu"="x86-64" }
attributes #12 = { nonlazybind "target-cpu"="x86-64" }
attributes #13 = { noreturn }
attributes #14 = { cold }
attributes #15 = { cold noreturn nounwind }
attributes #16 = { noreturn nounwind }
attributes #17 = { nounwind }

!llvm.module.flags = !{!203, !204, !205, !206, !207}
!llvm.ident = !{!208}
!llvm.dbg.cu = !{!209}

!0 = !DIGlobalVariableExpression(var: !1, expr: !DIExpression())
!1 = distinct !DIGlobalVariable(name: "<std::rt::lang_start::{closure_env#0}<()> as core::ops::function::Fn<()>>::{vtable}", scope: null, file: !2, type: !3, isLocal: true, isDefinition: true)
!2 = !DIFile(filename: "<unknown>", directory: "")
!3 = !DICompositeType(tag: DW_TAG_structure_type, name: "<std::rt::lang_start::{closure_env#0}<()> as core::ops::function::Fn<()>>::{vtable_type}", file: !2, size: 384, align: 64, flags: DIFlagArtificial, elements: !4, vtableHolder: !14, templateParams: !23, identifier: "513e30a45f33397931d66b7c27f9468b")
!4 = !{!5, !8, !10, !11, !12, !13}
!5 = !DIDerivedType(tag: DW_TAG_member, name: "drop_in_place", scope: !3, file: !2, baseType: !6, size: 64, align: 64)
!6 = !DIDerivedType(tag: DW_TAG_pointer_type, name: "*const ()", baseType: !7, size: 64, align: 64, dwarfAddressSpace: 0)
!7 = !DIBasicType(name: "()", encoding: DW_ATE_unsigned)
!8 = !DIDerivedType(tag: DW_TAG_member, name: "size", scope: !3, file: !2, baseType: !9, size: 64, align: 64, offset: 64)
!9 = !DIBasicType(name: "usize", size: 64, encoding: DW_ATE_unsigned)
!10 = !DIDerivedType(tag: DW_TAG_member, name: "align", scope: !3, file: !2, baseType: !9, size: 64, align: 64, offset: 128)
!11 = !DIDerivedType(tag: DW_TAG_member, name: "__method3", scope: !3, file: !2, baseType: !6, size: 64, align: 64, offset: 192)
!12 = !DIDerivedType(tag: DW_TAG_member, name: "__method4", scope: !3, file: !2, baseType: !6, size: 64, align: 64, offset: 256)
!13 = !DIDerivedType(tag: DW_TAG_member, name: "__method5", scope: !3, file: !2, baseType: !6, size: 64, align: 64, offset: 320)
!14 = !DICompositeType(tag: DW_TAG_structure_type, name: "{closure_env#0}<()>", scope: !15, file: !2, size: 64, align: 64, elements: !18, templateParams: !23, identifier: "dcada08ba5d8e52fa0502511e6c0738a")
!15 = !DINamespace(name: "lang_start", scope: !16)
!16 = !DINamespace(name: "rt", scope: !17)
!17 = !DINamespace(name: "std", scope: null)
!18 = !{!19}
!19 = !DIDerivedType(tag: DW_TAG_member, name: "main", scope: !14, file: !2, baseType: !20, size: 64, align: 64)
!20 = !DIDerivedType(tag: DW_TAG_pointer_type, name: "fn()", baseType: !21, size: 64, align: 64, dwarfAddressSpace: 0)
!21 = !DISubroutineType(types: !22)
!22 = !{null}
!23 = !{}
!24 = !DIGlobalVariableExpression(var: !25, expr: !DIExpression())
!25 = distinct !DIGlobalVariable(name: "<&u8 as core::fmt::Debug>::{vtable}", scope: null, file: !2, type: !26, isLocal: true, isDefinition: true)
!26 = !DICompositeType(tag: DW_TAG_structure_type, name: "<&u8 as core::fmt::Debug>::{vtable_type}", file: !2, size: 256, align: 64, flags: DIFlagArtificial, elements: !27, vtableHolder: !32, templateParams: !23, identifier: "af41e180a396099d2109052d0e58dd2e")
!27 = !{!28, !29, !30, !31}
!28 = !DIDerivedType(tag: DW_TAG_member, name: "drop_in_place", scope: !26, file: !2, baseType: !6, size: 64, align: 64)
!29 = !DIDerivedType(tag: DW_TAG_member, name: "size", scope: !26, file: !2, baseType: !9, size: 64, align: 64, offset: 64)
!30 = !DIDerivedType(tag: DW_TAG_member, name: "align", scope: !26, file: !2, baseType: !9, size: 64, align: 64, offset: 128)
!31 = !DIDerivedType(tag: DW_TAG_member, name: "__method3", scope: !26, file: !2, baseType: !6, size: 64, align: 64, offset: 192)
!32 = !DIDerivedType(tag: DW_TAG_pointer_type, name: "&u8", baseType: !33, size: 64, align: 64, dwarfAddressSpace: 0)
!33 = !DIBasicType(name: "u8", size: 8, encoding: DW_ATE_unsigned)
!34 = !DIGlobalVariableExpression(var: !35, expr: !DIExpression())
!35 = distinct !DIGlobalVariable(name: "<alloc::string::FromUtf8Error as core::fmt::Debug>::{vtable}", scope: null, file: !2, type: !36, isLocal: true, isDefinition: true)
!36 = !DICompositeType(tag: DW_TAG_structure_type, name: "<alloc::string::FromUtf8Error as core::fmt::Debug>::{vtable_type}", file: !2, size: 256, align: 64, flags: DIFlagArtificial, elements: !37, vtableHolder: !42, templateParams: !23, identifier: "8d63c2fc96962d43cccb80a771b00b3f")
!37 = !{!38, !39, !40, !41}
!38 = !DIDerivedType(tag: DW_TAG_member, name: "drop_in_place", scope: !36, file: !2, baseType: !6, size: 64, align: 64)
!39 = !DIDerivedType(tag: DW_TAG_member, name: "size", scope: !36, file: !2, baseType: !9, size: 64, align: 64, offset: 64)
!40 = !DIDerivedType(tag: DW_TAG_member, name: "align", scope: !36, file: !2, baseType: !9, size: 64, align: 64, offset: 128)
!41 = !DIDerivedType(tag: DW_TAG_member, name: "__method3", scope: !36, file: !2, baseType: !6, size: 64, align: 64, offset: 192)
!42 = !DICompositeType(tag: DW_TAG_structure_type, name: "FromUtf8Error", scope: !43, file: !2, size: 320, align: 64, flags: DIFlagPublic, elements: !45, templateParams: !23, identifier: "441f3e4fc7a88f957196e9444218296f")
!43 = !DINamespace(name: "string", scope: !44)
!44 = !DINamespace(name: "alloc", scope: null)
!45 = !{!46, !81}
!46 = !DIDerivedType(tag: DW_TAG_member, name: "bytes", scope: !42, file: !2, baseType: !47, size: 192, align: 64, flags: DIFlagPrivate)
!47 = !DICompositeType(tag: DW_TAG_structure_type, name: "Vec<u8, alloc::alloc::Global>", scope: !48, file: !2, size: 192, align: 64, flags: DIFlagPublic, elements: !49, templateParams: !78, identifier: "c215d12aad764e1a441c461e729f0d2b")
!48 = !DINamespace(name: "vec", scope: !44)
!49 = !{!50, !80}
!50 = !DIDerivedType(tag: DW_TAG_member, name: "buf", scope: !47, file: !2, baseType: !51, size: 128, align: 64, flags: DIFlagPrivate)
!51 = !DICompositeType(tag: DW_TAG_structure_type, name: "RawVec<u8, alloc::alloc::Global>", scope: !52, file: !2, size: 128, align: 64, flags: DIFlagProtected, elements: !53, templateParams: !78, identifier: "58281329bdf84bea2e13e330aa112831")
!52 = !DINamespace(name: "raw_vec", scope: !44)
!53 = !{!54, !71, !75}
!54 = !DIDerivedType(tag: DW_TAG_member, name: "ptr", scope: !51, file: !2, baseType: !55, size: 64, align: 64, offset: 64, flags: DIFlagPrivate)
!55 = !DICompositeType(tag: DW_TAG_structure_type, name: "Unique<u8>", scope: !56, file: !2, size: 64, align: 64, flags: DIFlagPublic, elements: !59, templateParams: !66, identifier: "6f6899319271bff9ddd9f7c3bd2cc000")
!56 = !DINamespace(name: "unique", scope: !57)
!57 = !DINamespace(name: "ptr", scope: !58)
!58 = !DINamespace(name: "core", scope: null)
!59 = !{!60, !68}
!60 = !DIDerivedType(tag: DW_TAG_member, name: "pointer", scope: !55, file: !2, baseType: !61, size: 64, align: 64, flags: DIFlagPrivate)
!61 = !DICompositeType(tag: DW_TAG_structure_type, name: "NonNull<u8>", scope: !62, file: !2, size: 64, align: 64, flags: DIFlagPublic, elements: !63, templateParams: !66, identifier: "6ea26407579e5a1c3e59aa6ffc6beb11")
!62 = !DINamespace(name: "non_null", scope: !57)
!63 = !{!64}
!64 = !DIDerivedType(tag: DW_TAG_member, name: "pointer", scope: !61, file: !2, baseType: !65, size: 64, align: 64, flags: DIFlagPrivate)
!65 = !DIDerivedType(tag: DW_TAG_pointer_type, name: "*const u8", baseType: !33, size: 64, align: 64, dwarfAddressSpace: 0)
!66 = !{!67}
!67 = !DITemplateTypeParameter(name: "T", type: !33)
!68 = !DIDerivedType(tag: DW_TAG_member, name: "_marker", scope: !55, file: !2, baseType: !69, align: 8, offset: 64, flags: DIFlagPrivate)
!69 = !DICompositeType(tag: DW_TAG_structure_type, name: "PhantomData<u8>", scope: !70, file: !2, align: 8, flags: DIFlagPublic, elements: !23, templateParams: !66, identifier: "ec273fde36c82807fc48cac6ee5e0e75")
!70 = !DINamespace(name: "marker", scope: !58)
!71 = !DIDerivedType(tag: DW_TAG_member, name: "cap", scope: !51, file: !2, baseType: !72, size: 64, align: 64, flags: DIFlagPrivate)
!72 = !DICompositeType(tag: DW_TAG_structure_type, name: "Cap", scope: !52, file: !2, size: 64, align: 64, flags: DIFlagPrivate, elements: !73, templateParams: !23, identifier: "3fa86bac779c730df09caa2171474e12")
!73 = !{!74}
!74 = !DIDerivedType(tag: DW_TAG_member, name: "__0", scope: !72, file: !2, baseType: !9, size: 64, align: 64, flags: DIFlagPrivate)
!75 = !DIDerivedType(tag: DW_TAG_member, name: "alloc", scope: !51, file: !2, baseType: !76, align: 8, offset: 128, flags: DIFlagPrivate)
!76 = !DICompositeType(tag: DW_TAG_structure_type, name: "Global", scope: !77, file: !2, align: 8, flags: DIFlagPublic, elements: !23, identifier: "a47ca854cde42ea6e8906fe610d99e63")
!77 = !DINamespace(name: "alloc", scope: !44)
!78 = !{!67, !79}
!79 = !DITemplateTypeParameter(name: "A", type: !76)
!80 = !DIDerivedType(tag: DW_TAG_member, name: "len", scope: !47, file: !2, baseType: !9, size: 64, align: 64, offset: 128, flags: DIFlagPrivate)
!81 = !DIDerivedType(tag: DW_TAG_member, name: "error", scope: !42, file: !2, baseType: !82, size: 128, align: 64, offset: 192, flags: DIFlagPrivate)
!82 = !DICompositeType(tag: DW_TAG_structure_type, name: "Utf8Error", scope: !83, file: !2, size: 128, align: 64, flags: DIFlagPublic, elements: !85, templateParams: !23, identifier: "8d77e2b19a81231332d6174ccce4ffd0")
!83 = !DINamespace(name: "error", scope: !84)
!84 = !DINamespace(name: "str", scope: !58)
!85 = !{!86, !87}
!86 = !DIDerivedType(tag: DW_TAG_member, name: "valid_up_to", scope: !82, file: !2, baseType: !9, size: 64, align: 64, flags: DIFlagProtected)
!87 = !DIDerivedType(tag: DW_TAG_member, name: "error_len", scope: !82, file: !2, baseType: !88, size: 16, align: 8, offset: 64, flags: DIFlagProtected)
!88 = !DICompositeType(tag: DW_TAG_structure_type, name: "Option<u8>", scope: !89, file: !2, size: 16, align: 8, flags: DIFlagPublic, elements: !90, templateParams: !23, identifier: "ceb840d6da4220667c5d75bc90bf8a10")
!89 = !DINamespace(name: "option", scope: !58)
!90 = !{!91}
!91 = !DICompositeType(tag: DW_TAG_variant_part, scope: !88, file: !2, size: 16, align: 8, elements: !92, templateParams: !23, identifier: "3734b96857b75e911c9c9d41c5e459ae", discriminator: !99)
!92 = !{!93, !95}
!93 = !DIDerivedType(tag: DW_TAG_member, name: "None", scope: !91, file: !2, baseType: !94, size: 16, align: 8, extraData: i128 0)
!94 = !DICompositeType(tag: DW_TAG_structure_type, name: "None", scope: !88, file: !2, size: 16, align: 8, flags: DIFlagPublic, elements: !23, templateParams: !66, identifier: "5887cce5776158c76c8b9ba9dd21db9d")
!95 = !DIDerivedType(tag: DW_TAG_member, name: "Some", scope: !91, file: !2, baseType: !96, size: 16, align: 8, extraData: i128 1)
!96 = !DICompositeType(tag: DW_TAG_structure_type, name: "Some", scope: !88, file: !2, size: 16, align: 8, flags: DIFlagPublic, elements: !97, templateParams: !66, identifier: "e56a710edd6134e6774b32490f7f1de4")
!97 = !{!98}
!98 = !DIDerivedType(tag: DW_TAG_member, name: "__0", scope: !96, file: !2, baseType: !33, size: 8, align: 8, offset: 8, flags: DIFlagPublic)
!99 = !DIDerivedType(tag: DW_TAG_member, scope: !88, file: !2, baseType: !33, size: 8, align: 8, flags: DIFlagArtificial)
!100 = !DIGlobalVariableExpression(var: !101, expr: !DIExpression())
!101 = distinct !DIGlobalVariable(name: "<curl::error::Error as core::fmt::Debug>::{vtable}", scope: null, file: !2, type: !102, isLocal: true, isDefinition: true)
!102 = !DICompositeType(tag: DW_TAG_structure_type, name: "<curl::error::Error as core::fmt::Debug>::{vtable_type}", file: !2, size: 256, align: 64, flags: DIFlagArtificial, elements: !103, vtableHolder: !108, templateParams: !23, identifier: "fa10db4edc4404d72087cb0031b533eb")
!103 = !{!104, !105, !106, !107}
!104 = !DIDerivedType(tag: DW_TAG_member, name: "drop_in_place", scope: !102, file: !2, baseType: !6, size: 64, align: 64)
!105 = !DIDerivedType(tag: DW_TAG_member, name: "size", scope: !102, file: !2, baseType: !9, size: 64, align: 64, offset: 64)
!106 = !DIDerivedType(tag: DW_TAG_member, name: "align", scope: !102, file: !2, baseType: !9, size: 64, align: 64, offset: 128)
!107 = !DIDerivedType(tag: DW_TAG_member, name: "__method3", scope: !102, file: !2, baseType: !6, size: 64, align: 64, offset: 192)
!108 = !DICompositeType(tag: DW_TAG_structure_type, name: "Error", scope: !109, file: !2, size: 192, align: 64, flags: DIFlagPublic, elements: !111, templateParams: !23, identifier: "9537c44ebe5cc91d7781a51fc43510a6")
!109 = !DINamespace(name: "error", scope: !110)
!110 = !DINamespace(name: "curl", scope: null)
!111 = !{!112, !114}
!112 = !DIDerivedType(tag: DW_TAG_member, name: "code", scope: !108, file: !2, baseType: !113, size: 32, align: 32, offset: 128, flags: DIFlagPrivate)
!113 = !DIBasicType(name: "u32", size: 32, encoding: DW_ATE_unsigned)
!114 = !DIDerivedType(tag: DW_TAG_member, name: "extra", scope: !108, file: !2, baseType: !115, size: 128, align: 64, flags: DIFlagPrivate)
!115 = !DICompositeType(tag: DW_TAG_structure_type, name: "Option<alloc::boxed::Box<str, alloc::alloc::Global>>", scope: !89, file: !2, size: 128, align: 64, flags: DIFlagPublic, elements: !116, templateParams: !23, identifier: "eb690a675268059a3664d20a3d74efcc")
!116 = !{!117}
!117 = !DICompositeType(tag: DW_TAG_variant_part, scope: !115, file: !2, size: 128, align: 64, elements: !118, templateParams: !23, identifier: "944f7ecad0318e4ab0de47e3f63e86a4", discriminator: !132)
!118 = !{!119, !128}
!119 = !DIDerivedType(tag: DW_TAG_member, name: "None", scope: !117, file: !2, baseType: !120, size: 128, align: 64, extraData: i128 0)
!120 = !DICompositeType(tag: DW_TAG_structure_type, name: "None", scope: !115, file: !2, size: 128, align: 64, flags: DIFlagPublic, elements: !23, templateParams: !121, identifier: "56672a8aec191491eede2253af4356df")
!121 = !{!122}
!122 = !DITemplateTypeParameter(name: "T", type: !123)
!123 = !DICompositeType(tag: DW_TAG_structure_type, name: "alloc::boxed::Box<str, alloc::alloc::Global>", file: !2, size: 128, align: 64, elements: !124, templateParams: !23, identifier: "4a7374dee8d3f72c438f800b00095ba6")
!124 = !{!125, !127}
!125 = !DIDerivedType(tag: DW_TAG_member, name: "data_ptr", scope: !123, file: !2, baseType: !126, size: 64, align: 64)
!126 = !DIDerivedType(tag: DW_TAG_pointer_type, baseType: !33, size: 64, align: 64, dwarfAddressSpace: 0)
!127 = !DIDerivedType(tag: DW_TAG_member, name: "length", scope: !123, file: !2, baseType: !9, size: 64, align: 64, offset: 64)
!128 = !DIDerivedType(tag: DW_TAG_member, name: "Some", scope: !117, file: !2, baseType: !129, size: 128, align: 64)
!129 = !DICompositeType(tag: DW_TAG_structure_type, name: "Some", scope: !115, file: !2, size: 128, align: 64, flags: DIFlagPublic, elements: !130, templateParams: !121, identifier: "699250c9b666ae1b95e32960351a7044")
!130 = !{!131}
!131 = !DIDerivedType(tag: DW_TAG_member, name: "__0", scope: !129, file: !2, baseType: !123, size: 128, align: 64, flags: DIFlagPublic)
!132 = !DIDerivedType(tag: DW_TAG_member, scope: !115, file: !2, baseType: !133, size: 64, align: 64, flags: DIFlagArtificial)
!133 = !DIBasicType(name: "u64", size: 64, encoding: DW_ATE_unsigned)
!134 = !DIGlobalVariableExpression(var: !135, expr: !DIExpression())
!135 = distinct !DIGlobalVariable(name: "<function::make_rpc::{closure_env#0} as core::ops::function::FnMut<(&mut [u8])>>::{vtable}", scope: null, file: !2, type: !136, isLocal: true, isDefinition: true)
!136 = !DICompositeType(tag: DW_TAG_structure_type, name: "<function::make_rpc::{closure_env#0} as core::ops::function::FnMut<(&mut [u8])>>::{vtable_type}", file: !2, size: 320, align: 64, flags: DIFlagArtificial, elements: !137, vtableHolder: !143, templateParams: !23, identifier: "eded1c3d043b1f97282c2189dfe6a204")
!137 = !{!138, !139, !140, !141, !142}
!138 = !DIDerivedType(tag: DW_TAG_member, name: "drop_in_place", scope: !136, file: !2, baseType: !6, size: 64, align: 64)
!139 = !DIDerivedType(tag: DW_TAG_member, name: "size", scope: !136, file: !2, baseType: !9, size: 64, align: 64, offset: 64)
!140 = !DIDerivedType(tag: DW_TAG_member, name: "align", scope: !136, file: !2, baseType: !9, size: 64, align: 64, offset: 128)
!141 = !DIDerivedType(tag: DW_TAG_member, name: "__method3", scope: !136, file: !2, baseType: !6, size: 64, align: 64, offset: 192)
!142 = !DIDerivedType(tag: DW_TAG_member, name: "__method4", scope: !136, file: !2, baseType: !6, size: 64, align: 64, offset: 256)
!143 = !DICompositeType(tag: DW_TAG_structure_type, name: "{closure_env#0}", scope: !144, file: !2, size: 64, align: 64, elements: !146, templateParams: !23, identifier: "c370244513609a7dda3efad85e4b72c2")
!144 = !DINamespace(name: "make_rpc", scope: !145)
!145 = !DINamespace(name: "function", scope: null)
!146 = !{!147}
!147 = !DIDerivedType(tag: DW_TAG_member, name: "_ref__input_to_be_sent", scope: !143, file: !2, baseType: !148, size: 64, align: 64)
!148 = !DIDerivedType(tag: DW_TAG_pointer_type, name: "&mut &[u8]", baseType: !149, size: 64, align: 64, dwarfAddressSpace: 0)
!149 = !DICompositeType(tag: DW_TAG_structure_type, name: "&[u8]", file: !2, size: 128, align: 64, elements: !150, templateParams: !23, identifier: "4f7d759e2003ffb713a77bd933fd0146")
!150 = !{!151, !152}
!151 = !DIDerivedType(tag: DW_TAG_member, name: "data_ptr", scope: !149, file: !2, baseType: !126, size: 64, align: 64)
!152 = !DIDerivedType(tag: DW_TAG_member, name: "length", scope: !149, file: !2, baseType: !9, size: 64, align: 64, offset: 64)
!153 = !DIGlobalVariableExpression(var: !154, expr: !DIExpression())
!154 = distinct !DIGlobalVariable(name: "<function::make_rpc::{closure_env#1} as core::ops::function::FnMut<(&[u8])>>::{vtable}", scope: null, file: !2, type: !155, isLocal: true, isDefinition: true)
!155 = !DICompositeType(tag: DW_TAG_structure_type, name: "<function::make_rpc::{closure_env#1} as core::ops::function::FnMut<(&[u8])>>::{vtable_type}", file: !2, size: 320, align: 64, flags: DIFlagArtificial, elements: !156, vtableHolder: !162, templateParams: !23, identifier: "d6628e79a9c047795c785b88ac4f96fd")
!156 = !{!157, !158, !159, !160, !161}
!157 = !DIDerivedType(tag: DW_TAG_member, name: "drop_in_place", scope: !155, file: !2, baseType: !6, size: 64, align: 64)
!158 = !DIDerivedType(tag: DW_TAG_member, name: "size", scope: !155, file: !2, baseType: !9, size: 64, align: 64, offset: 64)
!159 = !DIDerivedType(tag: DW_TAG_member, name: "align", scope: !155, file: !2, baseType: !9, size: 64, align: 64, offset: 128)
!160 = !DIDerivedType(tag: DW_TAG_member, name: "__method3", scope: !155, file: !2, baseType: !6, size: 64, align: 64, offset: 192)
!161 = !DIDerivedType(tag: DW_TAG_member, name: "__method4", scope: !155, file: !2, baseType: !6, size: 64, align: 64, offset: 256)
!162 = !DICompositeType(tag: DW_TAG_structure_type, name: "{closure_env#1}", scope: !144, file: !2, size: 64, align: 64, elements: !163, templateParams: !23, identifier: "405e33fa1c79095a4ab36db66c92dc30")
!163 = !{!164}
!164 = !DIDerivedType(tag: DW_TAG_member, name: "_ref__html_data", scope: !162, file: !2, baseType: !165, size: 64, align: 64)
!165 = !DIDerivedType(tag: DW_TAG_pointer_type, name: "&mut alloc::string::String", baseType: !166, size: 64, align: 64, dwarfAddressSpace: 0)
!166 = !DICompositeType(tag: DW_TAG_structure_type, name: "String", scope: !43, file: !2, size: 192, align: 64, flags: DIFlagPublic, elements: !167, templateParams: !23, identifier: "d327f3abe291f686c850bbe1dfd9d9d0")
!167 = !{!168}
!168 = !DIDerivedType(tag: DW_TAG_member, name: "vec", scope: !166, file: !2, baseType: !47, size: 192, align: 64, flags: DIFlagPrivate)
!169 = !DIGlobalVariableExpression(var: !170, expr: !DIExpression())
!170 = distinct !DIGlobalVariable(name: "<usize as core::fmt::Debug>::{vtable}", scope: null, file: !2, type: !171, isLocal: true, isDefinition: true)
!171 = !DICompositeType(tag: DW_TAG_structure_type, name: "<usize as core::fmt::Debug>::{vtable_type}", file: !2, size: 256, align: 64, flags: DIFlagArtificial, elements: !172, vtableHolder: !9, templateParams: !23, identifier: "e02999c5af2463b2093c9e5d3bff6a")
!172 = !{!173, !174, !175, !176}
