; ModuleID = '1b50h1evyg3imw5f'
source_filename = "1b50h1evyg3imw5f"
target datalayout = "e-m:e-p270:32:32-p271:32:32-p272:64:64-i64:64-f80:128-n8:16:32:64-S128"
target triple = "x86_64-unknown-linux-gnu"

%"core::result::Result<usize, std::io::error::Error>" = type { i64, [1 x i64] }
%"core::ptr::metadata::PtrRepr<[u8]>" = type { [2 x i64] }
%"core::result::Result<usize, std::io::error::Error>::Ok" = type { [1 x i64], i64 }
%"core::fmt::builders::DebugList<'_, '_>" = type { %"core::fmt::builders::DebugInner<'_, '_>" }
%"core::fmt::builders::DebugInner<'_, '_>" = type { ptr, i8, i8, [6 x i8] }
%"core::fmt::Formatter<'_>" = type { { i64, i64 }, { i64, i64 }, { ptr, ptr }, i32, i32, i8, [7 x i8] }
%"core::fmt::Arguments<'_>" = type { { ptr, i64 }, { ptr, i64 }, { ptr, i64 } }
%"core::result::Result<usize, curl::easy::handler::ReadError>" = type { i8, [15 x i8] }
%"core::result::Result<usize, std::io::error::Error>::Err" = type { [1 x i64], ptr }
%"curl::error::Error" = type { { ptr, i64 }, i32, [1 x i32] }
%"core::result::Result<(), curl::error::Error>::Err" = type { [1 x i64], %"curl::error::Error" }
%"alloc::string::String" = type { %"alloc::vec::Vec<u8>" }
%"alloc::vec::Vec<u8>" = type { { i64, ptr }, i64 }
%"alloc::string::FromUtf8Error" = type { %"alloc::vec::Vec<u8>", %"core::str::error::Utf8Error" }
%"core::str::error::Utf8Error" = type { i64, { i8, i8 }, [6 x i8] }
%"core::result::Result<alloc::string::String, alloc::string::FromUtf8Error>::Ok" = type { [1 x i64], %"alloc::string::String" }
%"core::result::Result<(), curl::error::Error>" = type { i64, [3 x i64] }
%"curl::easy::handle::Callbacks<'_>" = type { { ptr, ptr }, { ptr, ptr }, { ptr, ptr }, { ptr, ptr }, { ptr, ptr }, { ptr, ptr }, { ptr, ptr } }
%"core::alloc::AllocError" = type {}
%"core::result::Result<core::convert::Infallible, core::alloc::AllocError>::Err" = type { %"core::alloc::AllocError" }
%"core::result::Result<alloc::string::String, alloc::string::FromUtf8Error>" = type { i64, [4 x i64] }
%"core::result::Result<&str, core::str::error::Utf8Error>" = type { i64, [2 x i64] }
%"core::result::Result<&str, core::str::error::Utf8Error>::Err" = type { [1 x i64], %"core::str::error::Utf8Error" }
%"alloc::alloc::Global" = type {}
%"core::result::Result<usize, curl::easy::handler::ReadError>::Ok" = type { [1 x i64], i64 }

@alloc_fddaeef1fe1a23c45402ef8f58614acb = private unnamed_addr constant <{ [35 x i8] }> <{ [35 x i8] c"assertion failed: mid <= self.len()" }>, align 1
@alloc_82eb092b721803d8c2205f9b7292f0ea = private unnamed_addr constant <{ [75 x i8] }> <{ [75 x i8] c"/rustc/07dca489ac2d933c78d3c5158e3f43beefeb02ce/library/std/src/io/impls.rs" }>, align 1
@alloc_6e0764af961560baf88a2d4ea26ca1f3 = private unnamed_addr constant <{ ptr, [16 x i8] }> <{ ptr @alloc_82eb092b721803d8c2205f9b7292f0ea, [16 x i8] c"K\00\00\00\00\00\00\00\ED\00\00\00\1B\00\00\00" }>, align 8
@alloc_22c6466bed61fd6c7ac3ed1499d0e8c3 = private unnamed_addr constant <{ ptr, [16 x i8] }> <{ ptr @alloc_82eb092b721803d8c2205f9b7292f0ea, [16 x i8] c"K\00\00\00\00\00\00\00\F3\00\00\00\16\00\00\00" }>, align 8
@alloc_367753e514f5741d7e1e9460a5f32799 = private unnamed_addr constant <{ ptr, [16 x i8] }> <{ ptr @alloc_82eb092b721803d8c2205f9b7292f0ea, [16 x i8] c"K\00\00\00\00\00\00\00\F3\00\00\00\0D\00\00\00" }>, align 8
@alloc_7c09c8c3e045103f80f28c191b620acc = private unnamed_addr constant <{ ptr, [16 x i8] }> <{ ptr @alloc_82eb092b721803d8c2205f9b7292f0ea, [16 x i8] c"K\00\00\00\00\00\00\00\F5\00\00\00\10\00\00\00" }>, align 8
@alloc_7ca1fcc56ae11533ce93d9b37469be8b = private unnamed_addr constant <{ ptr, [16 x i8] }> <{ ptr @alloc_82eb092b721803d8c2205f9b7292f0ea, [16 x i8] c"K\00\00\00\00\00\00\00\F5\00\00\00\18\00\00\00" }>, align 8
@vtable.0 = private constant <{ ptr, [16 x i8], ptr, ptr, ptr }> <{ ptr @"_ZN4core3ptr85drop_in_place$LT$std..rt..lang_start$LT$$LP$$RP$$GT$..$u7b$$u7b$closure$u7d$$u7d$$GT$17h4062a148aa2c2b31E", [16 x i8] c"\08\00\00\00\00\00\00\00\08\00\00\00\00\00\00\00", ptr @"_ZN4core3ops8function6FnOnce40call_once$u7b$$u7b$vtable.shim$u7d$$u7d$17h8d70a5a999bf846fE", ptr @"_ZN3std2rt10lang_start28_$u7b$$u7b$closure$u7d$$u7d$17h14e6735284a1df53E", ptr @"_ZN3std2rt10lang_start28_$u7b$$u7b$closure$u7d$$u7d$17h14e6735284a1df53E" }>, align 8, !dbg !0
@vtable.1 = private constant <{ ptr, [16 x i8], ptr }> <{ ptr @"_ZN4core3ptr27drop_in_place$LT$$RF$u8$GT$17hefb5942aea697389E", [16 x i8] c"\08\00\00\00\00\00\00\00\08\00\00\00\00\00\00\00", ptr @"_ZN42_$LT$$RF$T$u20$as$u20$core..fmt..Debug$GT$3fmt17h98b173db97c3e5ffE" }>, align 8, !dbg !24
@alloc_91c7fa63c3cfeaa3c795652d5cf060e4 = private unnamed_addr constant <{ [12 x i8] }> <{ [12 x i8] c"invalid args" }>, align 1
@alloc_af99043bc04c419363a7f04d23183506 = private unnamed_addr constant <{ ptr, [8 x i8] }> <{ ptr @alloc_91c7fa63c3cfeaa3c795652d5cf060e4, [8 x i8] c"\0C\00\00\00\00\00\00\00" }>, align 8
@alloc_513570631223a12912d85da2bec3b15a = private unnamed_addr constant <{}> zeroinitializer, align 8
@alloc_4243f84a3a879718e5490fe547b0ab9c = private unnamed_addr constant <{ [75 x i8] }> <{ [75 x i8] c"/rustc/07dca489ac2d933c78d3c5158e3f43beefeb02ce/library/core/src/fmt/mod.rs" }>, align 1
@alloc_5f330cd7dff757941d785f386d839300 = private unnamed_addr constant <{ ptr, [16 x i8] }> <{ ptr @alloc_4243f84a3a879718e5490fe547b0ab9c, [16 x i8] c"K\00\00\00\00\00\00\00M\01\00\00\0D\00\00\00" }>, align 8
@alloc_00ae4b301f7fab8ac9617c03fcbd7274 = private unnamed_addr constant <{ [43 x i8] }> <{ [43 x i8] c"called `Result::unwrap()` on an `Err` value" }>, align 1
@vtable.2 = private constant <{ ptr, [16 x i8], ptr }> <{ ptr @"_ZN4core3ptr39drop_in_place$LT$curl..error..Error$GT$17h28a3a45b5e54a015E", [16 x i8] c"\18\00\00\00\00\00\00\00\08\00\00\00\00\00\00\00", ptr @"_ZN55_$LT$curl..error..Error$u20$as$u20$core..fmt..Debug$GT$3fmt17h35acd24036cfe8e4E" }>, align 8, !dbg !34
@vtable.3 = private constant <{ ptr, [16 x i8], ptr }> <{ ptr @"_ZN4core3ptr49drop_in_place$LT$alloc..string..FromUtf8Error$GT$17h818b6a3bb05effa4E", [16 x i8] c"(\00\00\00\00\00\00\00\08\00\00\00\00\00\00\00", ptr @"_ZN65_$LT$alloc..string..FromUtf8Error$u20$as$u20$core..fmt..Debug$GT$3fmt17h301cc7c2031c880cE" }>, align 8, !dbg !70
@vtable.4 = private constant <{ ptr, [16 x i8], ptr, ptr }> <{ ptr @"_ZN4core3ptr68drop_in_place$LT$function..make_rpc..$u7b$$u7b$closure$u7d$$u7d$$GT$17h6bccd4005ad7d142E", [16 x i8] c"\08\00\00\00\00\00\00\00\08\00\00\00\00\00\00\00", ptr @"_ZN4core3ops8function6FnOnce40call_once$u7b$$u7b$vtable.shim$u7d$$u7d$17h69b162c396b290f7E", ptr @"_ZN8function8make_rpc28_$u7b$$u7b$closure$u7d$$u7d$17h2d67a53dfc92a376E" }>, align 8, !dbg !134
@alloc_7cd749c1a9fc3f6ca3e32e5f49bf1921 = private unnamed_addr constant <{ [98 x i8] }> <{ [98 x i8] c"/users/zyuxuan/.cargo/registry/src/index.crates.io-6f17d22bba15001f/curl-0.4.47/src/easy/handle.rs" }>, align 1
@alloc_8fd978eeda3c2c6f60aa9ee0971c1a2f = private unnamed_addr constant <{ ptr, [16 x i8] }> <{ ptr @alloc_7cd749c1a9fc3f6ca3e32e5f49bf1921, [16 x i8] c"b\00\00\00\00\00\00\00<\06\00\00\09\00\00\00" }>, align 8
@vtable.5 = private constant <{ ptr, [16 x i8], ptr, ptr }> <{ ptr @"_ZN4core3ptr68drop_in_place$LT$function..make_rpc..$u7b$$u7b$closure$u7d$$u7d$$GT$17h244b5048f5cd3f7aE", [16 x i8] c"\08\00\00\00\00\00\00\00\08\00\00\00\00\00\00\00", ptr @"_ZN4core3ops8function6FnOnce40call_once$u7b$$u7b$vtable.shim$u7d$$u7d$17h0920f0621462e555E", ptr @"_ZN8function8make_rpc28_$u7b$$u7b$closure$u7d$$u7d$17h297a24a811895371E" }>, align 8, !dbg !153
@alloc_2c047e34fd2d73d31d823d5401e88054 = private unnamed_addr constant <{ ptr, [16 x i8] }> <{ ptr @alloc_7cd749c1a9fc3f6ca3e32e5f49bf1921, [16 x i8] c"b\00\00\00\00\00\00\002\06\00\00\09\00\00\00" }>, align 8
@__rust_no_alloc_shim_is_unstable = external global i8
@alloc_8e685ef482aec04a2d7a8ed5ef1228a3 = private unnamed_addr constant <{ [9 x i8] }> <{ [9 x i8] c"Utf8Error" }>, align 1
@alloc_f34017a1538f19bf68b6d6294eec0bb3 = private unnamed_addr constant <{ [11 x i8] }> <{ [11 x i8] c"valid_up_to" }>, align 1
@vtable.6 = private constant <{ ptr, [16 x i8], ptr }> <{ ptr @"_ZN4core3ptr26drop_in_place$LT$usize$GT$17h8d78cd2f36bbd8b2E", [16 x i8] c"\08\00\00\00\00\00\00\00\08\00\00\00\00\00\00\00", ptr @"_ZN4core3fmt3num52_$LT$impl$u20$core..fmt..Debug$u20$for$u20$usize$GT$3fmt17h262f68462e93b67eE" }>, align 8, !dbg !169
@alloc_91eca80c47235190e5fbed3d6d8be36c = private unnamed_addr constant <{ [9 x i8] }> <{ [9 x i8] c"error_len" }>, align 1
@vtable.7 = private constant <{ ptr, [16 x i8], ptr }> <{ ptr @"_ZN4core3ptr55drop_in_place$LT$$RF$core..option..Option$LT$u8$GT$$GT$17h8bb1eef93bdcb174E", [16 x i8] c"\08\00\00\00\00\00\00\00\08\00\00\00\00\00\00\00", ptr @"_ZN42_$LT$$RF$T$u20$as$u20$core..fmt..Debug$GT$3fmt17he61db5e48e42fe31E" }>, align 8, !dbg !177
@alloc_b44d52c0728a956e7d16327f52693b58 = private unnamed_addr constant <{ [13 x i8] }> <{ [13 x i8] c"FromUtf8Error" }>, align 1
@alloc_dd4ffb6a82fadbcfa53fa009063078f4 = private unnamed_addr constant <{ [5 x i8] }> <{ [5 x i8] c"bytes" }>, align 1
@vtable.8 = private constant <{ ptr, [16 x i8], ptr }> <{ ptr @"_ZN4core3ptr46drop_in_place$LT$alloc..vec..Vec$LT$u8$GT$$GT$17h2f35760f366b608bE", [16 x i8] c"\18\00\00\00\00\00\00\00\08\00\00\00\00\00\00\00", ptr @"_ZN65_$LT$alloc..vec..Vec$LT$T$C$A$GT$$u20$as$u20$core..fmt..Debug$GT$3fmt17hdb990aae322cf3e5E" }>, align 8, !dbg !186
@alloc_3f7b77ecc8a3c421d9a84c3c3ee05b1c = private unnamed_addr constant <{ [5 x i8] }> <{ [5 x i8] c"error" }>, align 1
@vtable.9 = private constant <{ ptr, [16 x i8], ptr }> <{ ptr @"_ZN4core3ptr52drop_in_place$LT$$RF$core..str..error..Utf8Error$GT$17h227c49c7d98e3107E", [16 x i8] c"\08\00\00\00\00\00\00\00\08\00\00\00\00\00\00\00", ptr @"_ZN42_$LT$$RF$T$u20$as$u20$core..fmt..Debug$GT$3fmt17hcd6242b8dec4a517E" }>, align 8, !dbg !194
@alloc_2ef598dc9082c9ddcafa2e64ff3d6270 = private unnamed_addr constant <{ [44 x i8] }> <{ [44 x i8] c"http://router.fission.svc.cluster.local.:80/" }>, align 1
@alloc_3ba7eeeabd3d9c4a56f56d0cfe62277d = private unnamed_addr constant <{ [11 x i8] }> <{ [11 x i8] c"src/main.rs" }>, align 1
@alloc_464672eac0368b08d31410f3c0760fd8 = private unnamed_addr constant <{ ptr, [16 x i8] }> <{ ptr @alloc_3ba7eeeabd3d9c4a56f56d0cfe62277d, [16 x i8] c"\0B\00\00\00\00\00\00\00\0A\00\00\00\12\00\00\00" }>, align 8
@alloc_a0c60a224dbc4c7175a354fb87e0c212 = private unnamed_addr constant <{ ptr, [16 x i8] }> <{ ptr @alloc_3ba7eeeabd3d9c4a56f56d0cfe62277d, [16 x i8] c"\0B\00\00\00\00\00\00\00\0B\00\00\00\13\00\00\00" }>, align 8
@alloc_a8b09a130890a03ed03108c1b4c5f98d = private unnamed_addr constant <{ ptr, [16 x i8] }> <{ ptr @alloc_3ba7eeeabd3d9c4a56f56d0cfe62277d, [16 x i8] c"\0B\00\00\00\00\00\00\00\0C\00\00\007\00\00\00" }>, align 8
@alloc_d80403cf90cd992fc61eb764d80f1758 = private unnamed_addr constant <{ ptr, [16 x i8] }> <{ ptr @alloc_3ba7eeeabd3d9c4a56f56d0cfe62277d, [16 x i8] c"\0B\00\00\00\00\00\00\00\13\00\00\00\08\00\00\00" }>, align 8
@alloc_2615e20597967f6538549a976cdd56d6 = private unnamed_addr constant <{ ptr, [16 x i8] }> <{ ptr @alloc_3ba7eeeabd3d9c4a56f56d0cfe62277d, [16 x i8] c"\0B\00\00\00\00\00\00\00\18\00\00\00\08\00\00\00" }>, align 8
@alloc_e14599dc5ae7f3506fb5a68d6af26bf2 = private unnamed_addr constant <{ ptr, [16 x i8] }> <{ ptr @alloc_3ba7eeeabd3d9c4a56f56d0cfe62277d, [16 x i8] c"\0B\00\00\00\00\00\00\00\1A\00\00\00\18\00\00\00" }>, align 8
@alloc_60f7236d9a3fb3fd6ddcec7e8b0bde87 = private unnamed_addr constant <{ ptr, [16 x i8] }> <{ ptr @alloc_3ba7eeeabd3d9c4a56f56d0cfe62277d, [16 x i8] c"\0B\00\00\00\00\00\00\00\16\00\00\006\00\00\00" }>, align 8
@alloc_b99730e73100e73a81f4fbfe74b3821d = private unnamed_addr constant <{ ptr, [8 x i8] }> <{ ptr @alloc_513570631223a12912d85da2bec3b15a, [8 x i8] zeroinitializer }>, align 8
@alloc_6edae3c60909d5c7a53d867b9798dc22 = private unnamed_addr constant <{ [29 x i8] }> <{ [29 x i8] c"From Rust function (caller): " }>, align 1
@alloc_92bc095527b7296e72c592f430621b94 = private unnamed_addr constant <{ ptr, [8 x i8] }> <{ ptr @alloc_6edae3c60909d5c7a53d867b9798dc22, [8 x i8] c"\1D\00\00\00\00\00\00\00" }>, align 8
@alloc_9dea2a3a6225db8d899e6f7ac3467058 = private unnamed_addr constant <{ [12 x i8] }> <{ [12 x i8] c"swift-callee" }>, align 1
@__rustc_debug_gdb_scripts_section__ = linkonce_odr unnamed_addr constant [34 x i8] c"\01gdb_load_rust_pretty_printers.py\00", section ".debug_gdb_scripts", align 1

; std::sys_common::backtrace::__rust_begin_short_backtrace
; Function Attrs: noinline nonlazybind uwtable
define internal void @_ZN3std10sys_common9backtrace28__rust_begin_short_backtrace17h463937ddfdc9d640E(ptr %f) unnamed_addr #0 !dbg !339 {
start:
  %f.dbg.spill = alloca ptr, align 8
  %result.dbg.spill = alloca {}, align 1
  %dummy.dbg.spill = alloca {}, align 1
  call void @llvm.dbg.declare(metadata ptr %dummy.dbg.spill, metadata !352, metadata !DIExpression()), !dbg !361
  call void @llvm.dbg.declare(metadata ptr %result.dbg.spill, metadata !347, metadata !DIExpression()), !dbg !363
  store ptr %f, ptr %f.dbg.spill, align 8, !dbg !361
  call void @llvm.dbg.declare(metadata ptr %f.dbg.spill, metadata !346, metadata !DIExpression()), !dbg !364
; call core::ops::function::FnOnce::call_once
  call void @_ZN4core3ops8function6FnOnce9call_once17h8e563c5749279839E(ptr %f), !dbg !365
  call void asm sideeffect "", "~{memory}"(), !dbg !366, !srcloc !367
  ret void, !dbg !368
}

; std::io::impls::<impl std::io::Read for &[u8]>::read
; Function Attrs: inlinehint nonlazybind uwtable
define internal void @"_ZN3std2io5impls60_$LT$impl$u20$std..io..Read$u20$for$u20$$RF$$u5b$u8$u5d$$GT$4read17h408fc840a3c5fe98E"(ptr sret(%"core::result::Result<usize, std::io::error::Error>") align 8 %_0, ptr align 8 %self, ptr align 1 %buf.0, i64 %buf.1) unnamed_addr #1 !dbg !369 {
start:
  %b.dbg.spill = alloca { ptr, i64 }, align 8
  %data_address.dbg.spill3 = alloca ptr, align 8
  %len.dbg.spill2 = alloca i64, align 8
  %data.dbg.spill = alloca ptr, align 8
  %a.dbg.spill = alloca { ptr, i64 }, align 8
  %data_address.dbg.spill = alloca ptr, align 8
  %ptr.dbg.spill = alloca ptr, align 8
  %len.dbg.spill = alloca i64, align 8
  %self.dbg.spill1 = alloca { ptr, i64 }, align 8
  %amt.dbg.spill = alloca i64, align 8
  %v2.dbg.spill = alloca i64, align 8
  %v1.dbg.spill = alloca i64, align 8
  %buf.dbg.spill = alloca { ptr, i64 }, align 8
  %self.dbg.spill = alloca ptr, align 8
  %_34 = alloca { i64, i64 }, align 8
  %_33 = alloca { ptr, i64 }, align 8
  %_32 = alloca %"core::ptr::metadata::PtrRepr<[u8]>", align 8
  %_29 = alloca { ptr, i64 }, align 8
  %_28 = alloca %"core::ptr::metadata::PtrRepr<[u8]>", align 8
  store ptr %self, ptr %self.dbg.spill, align 8
  call void @llvm.dbg.declare(metadata ptr %self.dbg.spill, metadata !459, metadata !DIExpression()), !dbg !466
  %0 = getelementptr inbounds { ptr, i64 }, ptr %buf.dbg.spill, i32 0, i32 0
  store ptr %buf.0, ptr %0, align 8
  %1 = getelementptr inbounds { ptr, i64 }, ptr %buf.dbg.spill, i32 0, i32 1
  store i64 %buf.1, ptr %1, align 8
  call void @llvm.dbg.declare(metadata ptr %buf.dbg.spill, metadata !460, metadata !DIExpression()), !dbg !467
  call void @llvm.dbg.declare(metadata ptr %buf.dbg.spill, metadata !468, metadata !DIExpression()), !dbg !496
  call void @llvm.dbg.declare(metadata ptr %buf.dbg.spill, metadata !498, metadata !DIExpression()), !dbg !506
  store i64 %buf.1, ptr %v1.dbg.spill, align 8, !dbg !508
  call void @llvm.dbg.declare(metadata ptr %v1.dbg.spill, metadata !509, metadata !DIExpression()), !dbg !519
  call void @llvm.dbg.declare(metadata ptr %v1.dbg.spill, metadata !521, metadata !DIExpression()), !dbg !529
  %2 = getelementptr inbounds { ptr, i64 }, ptr %self, i32 0, i32 0, !dbg !531
  %_13.0 = load ptr, ptr %2, align 8, !dbg !531, !nonnull !23, !align !532, !noundef !23
  %3 = getelementptr inbounds { ptr, i64 }, ptr %self, i32 0, i32 1, !dbg !531
  %_13.1 = load i64, ptr %3, align 8, !dbg !531, !noundef !23
  store i64 %_13.1, ptr %v2.dbg.spill, align 8, !dbg !531
  call void @llvm.dbg.declare(metadata ptr %v2.dbg.spill, metadata !517, metadata !DIExpression()), !dbg !533
  call void @llvm.dbg.declare(metadata ptr %v2.dbg.spill, metadata !526, metadata !DIExpression()), !dbg !534
; call core::cmp::min_by
  %amt = call i64 @_ZN4core3cmp6min_by17he2f39cd66826f81fE(i64 %buf.1, i64 %_13.1), !dbg !535
  store i64 %amt, ptr %amt.dbg.spill, align 8, !dbg !535
  call void @llvm.dbg.declare(metadata ptr %amt.dbg.spill, metadata !461, metadata !DIExpression()), !dbg !536
  call void @llvm.dbg.declare(metadata ptr %amt.dbg.spill, metadata !537, metadata !DIExpression()), !dbg !550
  call void @llvm.dbg.declare(metadata ptr %amt.dbg.spill, metadata !552, metadata !DIExpression()), !dbg !563
  call void @llvm.dbg.declare(metadata ptr %amt.dbg.spill, metadata !565, metadata !DIExpression()), !dbg !577
  call void @llvm.dbg.declare(metadata ptr %amt.dbg.spill, metadata !579, metadata !DIExpression()), !dbg !594
  call void @llvm.dbg.declare(metadata ptr %amt.dbg.spill, metadata !596, metadata !DIExpression()), !dbg !608
  call void @llvm.dbg.declare(metadata ptr %amt.dbg.spill, metadata !610, metadata !DIExpression()), !dbg !620
  call void @llvm.dbg.declare(metadata ptr %amt.dbg.spill, metadata !493, metadata !DIExpression()), !dbg !622
  call void @llvm.dbg.declare(metadata ptr %amt.dbg.spill, metadata !505, metadata !DIExpression()), !dbg !623
  %4 = getelementptr inbounds { ptr, i64 }, ptr %self, i32 0, i32 0, !dbg !624
  %self.0 = load ptr, ptr %4, align 8, !dbg !624, !nonnull !23, !align !532, !noundef !23
  %5 = getelementptr inbounds { ptr, i64 }, ptr %self, i32 0, i32 1, !dbg !624
  %self.1 = load i64, ptr %5, align 8, !dbg !624, !noundef !23
  %6 = getelementptr inbounds { ptr, i64 }, ptr %self.dbg.spill1, i32 0, i32 0, !dbg !624
  store ptr %self.0, ptr %6, align 8, !dbg !624
  %7 = getelementptr inbounds { ptr, i64 }, ptr %self.dbg.spill1, i32 0, i32 1, !dbg !624
  store i64 %self.1, ptr %7, align 8, !dbg !624
  call void @llvm.dbg.declare(metadata ptr %self.dbg.spill1, metadata !549, metadata !DIExpression()), !dbg !625
  call void @llvm.dbg.declare(metadata ptr %self.dbg.spill1, metadata !558, metadata !DIExpression()), !dbg !626
  call void @llvm.dbg.declare(metadata ptr %self.dbg.spill1, metadata !627, metadata !DIExpression()), !dbg !633
  %_15 = icmp ule i64 %amt, %self.1, !dbg !635
  br i1 %_15, label %bb7, label %bb8, !dbg !635

bb8:                                              ; preds = %start
; call core::panicking::panic
  call void @_ZN4core9panicking5panic17hb837a5ebbbe5b188E(ptr align 1 @alloc_fddaeef1fe1a23c45402ef8f58614acb, i64 35, ptr align 8 @alloc_6e0764af961560baf88a2d4ea26ca1f3) #13, !dbg !636
  unreachable, !dbg !636

bb7:                                              ; preds = %start
  store i64 %self.1, ptr %len.dbg.spill, align 8, !dbg !637
  call void @llvm.dbg.declare(metadata ptr %len.dbg.spill, metadata !559, metadata !DIExpression()), !dbg !638
  store ptr %self.0, ptr %ptr.dbg.spill, align 8, !dbg !639
  call void @llvm.dbg.declare(metadata ptr %ptr.dbg.spill, metadata !561, metadata !DIExpression()), !dbg !640
  call void @llvm.dbg.declare(metadata ptr %ptr.dbg.spill, metadata !573, metadata !DIExpression()), !dbg !641
  call void @llvm.dbg.declare(metadata ptr %ptr.dbg.spill, metadata !590, metadata !DIExpression()), !dbg !642
  call void @llvm.dbg.declare(metadata ptr %ptr.dbg.spill, metadata !643, metadata !DIExpression()), !dbg !653
  call void @llvm.dbg.declare(metadata ptr %ptr.dbg.spill, metadata !619, metadata !DIExpression()), !dbg !655
  store ptr %self.0, ptr %data_address.dbg.spill, align 8, !dbg !656
  call void @llvm.dbg.declare(metadata ptr %data_address.dbg.spill, metadata !604, metadata !DIExpression()), !dbg !657
  store ptr %self.0, ptr %_29, align 8, !dbg !658
  %8 = getelementptr inbounds { ptr, i64 }, ptr %_29, i32 0, i32 1, !dbg !658
  store i64 %amt, ptr %8, align 8, !dbg !658
  %9 = getelementptr inbounds { ptr, i64 }, ptr %_29, i32 0, i32 0, !dbg !659
  %10 = load ptr, ptr %9, align 8, !dbg !659, !noundef !23
  %11 = getelementptr inbounds { ptr, i64 }, ptr %_29, i32 0, i32 1, !dbg !659
  %12 = load i64, ptr %11, align 8, !dbg !659, !noundef !23
  %13 = getelementptr inbounds { ptr, i64 }, ptr %_28, i32 0, i32 0, !dbg !659
  store ptr %10, ptr %13, align 8, !dbg !659
  %14 = getelementptr inbounds { ptr, i64 }, ptr %_28, i32 0, i32 1, !dbg !659
  store i64 %12, ptr %14, align 8, !dbg !659
  %15 = getelementptr inbounds { ptr, i64 }, ptr %_28, i32 0, i32 0, !dbg !659
  %_26.0 = load ptr, ptr %15, align 8, !dbg !659, !noundef !23
  %16 = getelementptr inbounds { ptr, i64 }, ptr %_28, i32 0, i32 1, !dbg !659
  %_26.1 = load i64, ptr %16, align 8, !dbg !659, !noundef !23
  %17 = getelementptr inbounds { ptr, i64 }, ptr %a.dbg.spill, i32 0, i32 0, !dbg !578
  store ptr %_26.0, ptr %17, align 8, !dbg !578
  %18 = getelementptr inbounds { ptr, i64 }, ptr %a.dbg.spill, i32 0, i32 1, !dbg !578
  store i64 %_26.1, ptr %18, align 8, !dbg !578
  call void @llvm.dbg.declare(metadata ptr %a.dbg.spill, metadata !463, metadata !DIExpression()), !dbg !660
  %data = getelementptr inbounds i8, ptr %self.0, i64 %amt, !dbg !661
  store ptr %data, ptr %data.dbg.spill, align 8, !dbg !661
  call void @llvm.dbg.declare(metadata ptr %data.dbg.spill, metadata !574, metadata !DIExpression()), !dbg !662
  call void @llvm.dbg.declare(metadata ptr %data.dbg.spill, metadata !591, metadata !DIExpression()), !dbg !664
  call void @llvm.dbg.declare(metadata ptr %data.dbg.spill, metadata !649, metadata !DIExpression()), !dbg !666
  %len = sub i64 %self.1, %amt, !dbg !668
  store i64 %len, ptr %len.dbg.spill2, align 8, !dbg !668
  call void @llvm.dbg.declare(metadata ptr %len.dbg.spill2, metadata !576, metadata !DIExpression()), !dbg !669
  call void @llvm.dbg.declare(metadata ptr %len.dbg.spill2, metadata !593, metadata !DIExpression()), !dbg !670
  call void @llvm.dbg.declare(metadata ptr %len.dbg.spill2, metadata !607, metadata !DIExpression()), !dbg !671
  store ptr %data, ptr %data_address.dbg.spill3, align 8, !dbg !673
  call void @llvm.dbg.declare(metadata ptr %data_address.dbg.spill3, metadata !605, metadata !DIExpression()), !dbg !674
  store ptr %data, ptr %_33, align 8, !dbg !675
  %19 = getelementptr inbounds { ptr, i64 }, ptr %_33, i32 0, i32 1, !dbg !675
  store i64 %len, ptr %19, align 8, !dbg !675
  %20 = getelementptr inbounds { ptr, i64 }, ptr %_33, i32 0, i32 0, !dbg !676
  %21 = load ptr, ptr %20, align 8, !dbg !676, !noundef !23
  %22 = getelementptr inbounds { ptr, i64 }, ptr %_33, i32 0, i32 1, !dbg !676
  %23 = load i64, ptr %22, align 8, !dbg !676, !noundef !23
  %24 = getelementptr inbounds { ptr, i64 }, ptr %_32, i32 0, i32 0, !dbg !676
  store ptr %21, ptr %24, align 8, !dbg !676
  %25 = getelementptr inbounds { ptr, i64 }, ptr %_32, i32 0, i32 1, !dbg !676
  store i64 %23, ptr %25, align 8, !dbg !676
  %26 = getelementptr inbounds { ptr, i64 }, ptr %_32, i32 0, i32 0, !dbg !676
  %_30.0 = load ptr, ptr %26, align 8, !dbg !676, !noundef !23
  %27 = getelementptr inbounds { ptr, i64 }, ptr %_32, i32 0, i32 1, !dbg !676
  %_30.1 = load i64, ptr %27, align 8, !dbg !676, !noundef !23
  %28 = getelementptr inbounds { ptr, i64 }, ptr %b.dbg.spill, i32 0, i32 0, !dbg !663
  store ptr %_30.0, ptr %28, align 8, !dbg !663
  %29 = getelementptr inbounds { ptr, i64 }, ptr %b.dbg.spill, i32 0, i32 1, !dbg !663
  store i64 %_30.1, ptr %29, align 8, !dbg !663
  call void @llvm.dbg.declare(metadata ptr %b.dbg.spill, metadata !465, metadata !DIExpression()), !dbg !677
  %30 = icmp eq i64 %amt, 1, !dbg !678
  br i1 %30, label %bb1, label %bb4, !dbg !678

bb1:                                              ; preds = %bb7
  %_8 = icmp ult i64 0, %_26.1, !dbg !679
  %31 = call i1 @llvm.expect.i1(i1 %_8, i1 true), !dbg !679
  br i1 %31, label %bb2, label %panic, !dbg !679

bb4:                                              ; preds = %bb7
  store i64 0, ptr %_34, align 8, !dbg !680
  %32 = getelementptr inbounds { i64, i64 }, ptr %_34, i32 0, i32 1, !dbg !680
  store i64 %amt, ptr %32, align 8, !dbg !680
  %33 = getelementptr inbounds { i64, i64 }, ptr %_34, i32 0, i32 0, !dbg !680
  %34 = load i64, ptr %33, align 8, !dbg !680, !noundef !23
  %35 = getelementptr inbounds { i64, i64 }, ptr %_34, i32 0, i32 1, !dbg !680
  %36 = load i64, ptr %35, align 8, !dbg !680, !noundef !23
; call <core::ops::range::Range<usize> as core::slice::index::SliceIndex<[T]>>::index_mut
  %37 = call { ptr, i64 } @"_ZN106_$LT$core..ops..range..Range$LT$usize$GT$$u20$as$u20$core..slice..index..SliceIndex$LT$$u5b$T$u5d$$GT$$GT$9index_mut17h1761e9d4ffbf51d6E"(i64 %34, i64 %36, ptr align 1 %buf.0, i64 %buf.1, ptr align 8 @alloc_7c09c8c3e045103f80f28c191b620acc), !dbg !680
  %_12.0 = extractvalue { ptr, i64 } %37, 0, !dbg !680
  %_12.1 = extractvalue { ptr, i64 } %37, 1, !dbg !680
; call core::slice::<impl [T]>::copy_from_slice
  call void @"_ZN4core5slice29_$LT$impl$u20$$u5b$T$u5d$$GT$15copy_from_slice17h4c32770f9ff5a7d5E"(ptr align 1 %_12.0, i64 %_12.1, ptr align 1 %_26.0, i64 %_26.1, ptr align 8 @alloc_7ca1fcc56ae11533ce93d9b37469be8b), !dbg !681
  br label %bb5, !dbg !681

bb2:                                              ; preds = %bb1
  %38 = getelementptr inbounds [0 x i8], ptr %_26.0, i64 0, i64 0, !dbg !679
  %_6 = load i8, ptr %38, align 1, !dbg !679, !noundef !23
  %_10 = icmp ult i64 0, %buf.1, !dbg !682
  %39 = call i1 @llvm.expect.i1(i1 %_10, i1 true), !dbg !682
  br i1 %39, label %bb3, label %panic4, !dbg !682

panic:                                            ; preds = %bb1
; call core::panicking::panic_bounds_check
  call void @_ZN4core9panicking18panic_bounds_check17h8331054858f0bf20E(i64 0, i64 %_26.1, ptr align 8 @alloc_22c6466bed61fd6c7ac3ed1499d0e8c3) #13, !dbg !679
  unreachable, !dbg !679

bb3:                                              ; preds = %bb2
  %40 = getelementptr inbounds [0 x i8], ptr %buf.0, i64 0, i64 0, !dbg !682
  store i8 %_6, ptr %40, align 1, !dbg !682
  br label %bb5, !dbg !683

panic4:                                           ; preds = %bb2
; call core::panicking::panic_bounds_check
  call void @_ZN4core9panicking18panic_bounds_check17h8331054858f0bf20E(i64 0, i64 %buf.1, ptr align 8 @alloc_367753e514f5741d7e1e9460a5f32799) #13, !dbg !682
  unreachable, !dbg !682

bb5:                                              ; preds = %bb4, %bb3
  %41 = getelementptr inbounds { ptr, i64 }, ptr %self, i32 0, i32 0, !dbg !684
  store ptr %_30.0, ptr %41, align 8, !dbg !684
  %42 = getelementptr inbounds { ptr, i64 }, ptr %self, i32 0, i32 1, !dbg !684
  store i64 %_30.1, ptr %42, align 8, !dbg !684
  %43 = getelementptr inbounds %"core::result::Result<usize, std::io::error::Error>::Ok", ptr %_0, i32 0, i32 1, !dbg !685
  store i64 %amt, ptr %43, align 8, !dbg !685
  store i64 0, ptr %_0, align 8, !dbg !685
  ret void, !dbg !686
}

; std::rt::lang_start
; Function Attrs: nonlazybind uwtable
define hidden i64 @_ZN3std2rt10lang_start17h6f93945a1883b181E(ptr %main, i64 %argc, ptr %argv, i8 %sigpipe) unnamed_addr #2 !dbg !687 {
start:
  %v.dbg.spill = alloca i64, align 8
  %sigpipe.dbg.spill = alloca i8, align 1
  %argv.dbg.spill = alloca ptr, align 8
  %argc.dbg.spill = alloca i64, align 8
  %main.dbg.spill = alloca ptr, align 8
  %_8 = alloca ptr, align 8
  %_5 = alloca i64, align 8
  store ptr %main, ptr %main.dbg.spill, align 8
  call void @llvm.dbg.declare(metadata ptr %main.dbg.spill, metadata !694, metadata !DIExpression()), !dbg !700
  store i64 %argc, ptr %argc.dbg.spill, align 8
  call void @llvm.dbg.declare(metadata ptr %argc.dbg.spill, metadata !695, metadata !DIExpression()), !dbg !701
  store ptr %argv, ptr %argv.dbg.spill, align 8
  call void @llvm.dbg.declare(metadata ptr %argv.dbg.spill, metadata !696, metadata !DIExpression()), !dbg !702
  store i8 %sigpipe, ptr %sigpipe.dbg.spill, align 1
  call void @llvm.dbg.declare(metadata ptr %sigpipe.dbg.spill, metadata !697, metadata !DIExpression()), !dbg !703
  store ptr %main, ptr %_8, align 8, !dbg !704
; call std::rt::lang_start_internal
  %0 = call i64 @_ZN3std2rt19lang_start_internal17h6939038e2873596bE(ptr align 1 %_8, ptr align 8 @vtable.0, i64 %argc, ptr %argv, i8 %sigpipe), !dbg !705
  store i64 %0, ptr %_5, align 8, !dbg !705
  %v = load i64, ptr %_5, align 8, !dbg !706, !noundef !23
  store i64 %v, ptr %v.dbg.spill, align 8, !dbg !706
  call void @llvm.dbg.declare(metadata ptr %v.dbg.spill, metadata !698, metadata !DIExpression()), !dbg !707
  ret i64 %v, !dbg !708
}

; std::rt::lang_start::{{closure}}
; Function Attrs: inlinehint nonlazybind uwtable
define internal i32 @"_ZN3std2rt10lang_start28_$u7b$$u7b$closure$u7d$$u7d$17h14e6735284a1df53E"(ptr align 8 %_1) unnamed_addr #1 !dbg !709 {
start:
  %self.dbg.spill = alloca ptr, align 8
  %_1.dbg.spill = alloca ptr, align 8
  %self = alloca i8, align 1
  store ptr %_1, ptr %_1.dbg.spill, align 8
  call void @llvm.dbg.declare(metadata ptr %_1.dbg.spill, metadata !714, metadata !DIExpression(DW_OP_deref)), !dbg !715
  call void @llvm.dbg.declare(metadata ptr %self, metadata !716, metadata !DIExpression()), !dbg !735
  %_4 = load ptr, ptr %_1, align 8, !dbg !737, !nonnull !23, !noundef !23
; call std::sys_common::backtrace::__rust_begin_short_backtrace
  call void @_ZN3std10sys_common9backtrace28__rust_begin_short_backtrace17h463937ddfdc9d640E(ptr %_4), !dbg !738
; call <() as std::process::Termination>::report
  %0 = call i8 @"_ZN54_$LT$$LP$$RP$$u20$as$u20$std..process..Termination$GT$6report17hda02f51c96950d2dE"(), !dbg !738
  store i8 %0, ptr %self, align 1, !dbg !738
  store ptr %self, ptr %self.dbg.spill, align 8, !dbg !739
  call void @llvm.dbg.declare(metadata ptr %self.dbg.spill, metadata !740, metadata !DIExpression()), !dbg !749
  %_6 = load i8, ptr %self, align 1, !dbg !751, !noundef !23
  %_0 = zext i8 %_6 to i32, !dbg !751
  ret i32 %_0, !dbg !752
}

; <&T as core::fmt::Debug>::fmt
; Function Attrs: nonlazybind uwtable
define internal zeroext i1 @"_ZN42_$LT$$RF$T$u20$as$u20$core..fmt..Debug$GT$3fmt17hcd6242b8dec4a517E"(ptr align 8 %self, ptr align 8 %f) unnamed_addr #2 !dbg !753 {
start:
  %f.dbg.spill = alloca ptr, align 8
  %self.dbg.spill = alloca ptr, align 8
  store ptr %self, ptr %self.dbg.spill, align 8
  call void @llvm.dbg.declare(metadata ptr %self.dbg.spill, metadata !803, metadata !DIExpression()), !dbg !807
  store ptr %f, ptr %f.dbg.spill, align 8
  call void @llvm.dbg.declare(metadata ptr %f.dbg.spill, metadata !804, metadata !DIExpression()), !dbg !808
  %_3 = load ptr, ptr %self, align 8, !dbg !809, !nonnull !23, !align !810, !noundef !23
; call <core::str::error::Utf8Error as core::fmt::Debug>::fmt
  %_0 = call zeroext i1 @"_ZN64_$LT$core..str..error..Utf8Error$u20$as$u20$core..fmt..Debug$GT$3fmt17hff7ffa0a6dec7f47E"(ptr align 8 %_3, ptr align 8 %f), !dbg !811
  ret i1 %_0, !dbg !812
}

; <[T] as core::fmt::Debug>::fmt
; Function Attrs: nonlazybind uwtable
define internal zeroext i1 @"_ZN48_$LT$$u5b$T$u5d$$u20$as$u20$core..fmt..Debug$GT$3fmt17hebe1025a4c25760cE"(ptr align 1 %self.0, i64 %self.1, ptr align 8 %f) unnamed_addr #2 !dbg !813 {
start:
  %ptr.dbg.spill1 = alloca ptr, align 8
  %addr.dbg.spill = alloca i64, align 8
  %count.dbg.spill = alloca i64, align 8
  %ptr.dbg.spill = alloca ptr, align 8
  %f.dbg.spill = alloca ptr, align 8
  %self.dbg.spill = alloca { ptr, i64 }, align 8
  %_12 = alloca ptr, align 8
  %end_or_len = alloca ptr, align 8
  %_6 = alloca { ptr, ptr }, align 8
  %_5 = alloca %"core::fmt::builders::DebugList<'_, '_>", align 8
  %0 = getelementptr inbounds { ptr, i64 }, ptr %self.dbg.spill, i32 0, i32 0
  store ptr %self.0, ptr %0, align 8
  %1 = getelementptr inbounds { ptr, i64 }, ptr %self.dbg.spill, i32 0, i32 1
  store i64 %self.1, ptr %1, align 8
  call void @llvm.dbg.declare(metadata ptr %self.dbg.spill, metadata !818, metadata !DIExpression()), !dbg !820
  call void @llvm.dbg.declare(metadata ptr %self.dbg.spill, metadata !821, metadata !DIExpression()), !dbg !836
  call void @llvm.dbg.declare(metadata ptr %self.dbg.spill, metadata !838, metadata !DIExpression()), !dbg !848
  call void @llvm.dbg.declare(metadata ptr %self.dbg.spill, metadata !850, metadata !DIExpression()), !dbg !854
  store ptr %f, ptr %f.dbg.spill, align 8
  call void @llvm.dbg.declare(metadata ptr %f.dbg.spill, metadata !819, metadata !DIExpression()), !dbg !856
  call void @llvm.dbg.declare(metadata ptr %end_or_len, metadata !846, metadata !DIExpression()), !dbg !857
; call core::fmt::Formatter::debug_list
  call void @_ZN4core3fmt9Formatter10debug_list17h1616b9a56f5bf339E(ptr sret(%"core::fmt::builders::DebugList<'_, '_>") align 8 %_5, ptr align 8 %f), !dbg !858
  store ptr %self.0, ptr %ptr.dbg.spill, align 8, !dbg !859
  call void @llvm.dbg.declare(metadata ptr %ptr.dbg.spill, metadata !844, metadata !DIExpression()), !dbg !860
  call void @llvm.dbg.declare(metadata ptr %ptr.dbg.spill, metadata !861, metadata !DIExpression()), !dbg !866
  br i1 false, label %bb4, label %bb5, !dbg !868

bb5:                                              ; preds = %start
  store i64 %self.1, ptr %count.dbg.spill, align 8, !dbg !869
  call void @llvm.dbg.declare(metadata ptr %count.dbg.spill, metadata !865, metadata !DIExpression()), !dbg !870
  %2 = getelementptr inbounds i8, ptr %self.0, i64 %self.1, !dbg !871
  store ptr %2, ptr %end_or_len, align 8, !dbg !871
  br label %bb6, !dbg !872

bb4:                                              ; preds = %start
  store i64 %self.1, ptr %addr.dbg.spill, align 8, !dbg !873
  call void @llvm.dbg.declare(metadata ptr %addr.dbg.spill, metadata !874, metadata !DIExpression()), !dbg !880
  %3 = inttoptr i64 %self.1 to ptr, !dbg !882
  store ptr %3, ptr %end_or_len, align 8, !dbg !882
  br label %bb6, !dbg !872

bb6:                                              ; preds = %bb4, %bb5
  store ptr %self.0, ptr %ptr.dbg.spill1, align 8, !dbg !883
  call void @llvm.dbg.declare(metadata ptr %ptr.dbg.spill1, metadata !884, metadata !DIExpression()), !dbg !893
  call void @llvm.dbg.declare(metadata ptr %ptr.dbg.spill1, metadata !895, metadata !DIExpression()), !dbg !905
  call void @llvm.dbg.declare(metadata ptr %ptr.dbg.spill1, metadata !908, metadata !DIExpression()), !dbg !918
  store ptr %self.0, ptr %_12, align 8, !dbg !920
  %_14 = load ptr, ptr %end_or_len, align 8, !dbg !921, !noundef !23
  %4 = load ptr, ptr %_12, align 8, !dbg !922, !nonnull !23, !noundef !23
  store ptr %4, ptr %_6, align 8, !dbg !922
  %5 = getelementptr inbounds { ptr, ptr }, ptr %_6, i32 0, i32 1, !dbg !922
  store ptr %_14, ptr %5, align 8, !dbg !922
  %6 = getelementptr inbounds { ptr, ptr }, ptr %_6, i32 0, i32 0, !dbg !858
  %7 = load ptr, ptr %6, align 8, !dbg !858, !nonnull !23, !noundef !23
  %8 = getelementptr inbounds { ptr, ptr }, ptr %_6, i32 0, i32 1, !dbg !858
  %9 = load ptr, ptr %8, align 8, !dbg !858, !noundef !23
; call core::fmt::builders::DebugList::entries
  %_3 = call align 8 ptr @_ZN4core3fmt8builders9DebugList7entries17hf4b8df9cb0866934E(ptr align 8 %_5, ptr %7, ptr %9), !dbg !858
; call core::fmt::builders::DebugList::finish
  %_0 = call zeroext i1 @_ZN4core3fmt8builders9DebugList6finish17hadbed7078d8807f7E(ptr align 8 %_3), !dbg !858
  ret i1 %_0, !dbg !923
}

; core::fmt::num::<impl core::fmt::Debug for usize>::fmt
; Function Attrs: inlinehint nonlazybind uwtable
define internal zeroext i1 @"_ZN4core3fmt3num52_$LT$impl$u20$core..fmt..Debug$u20$for$u20$usize$GT$3fmt17h262f68462e93b67eE"(ptr align 8 %self, ptr align 8 %f) unnamed_addr #1 !dbg !924 {
start:
  %f.dbg.spill = alloca ptr, align 8
  %self.dbg.spill = alloca ptr, align 8
  %_0 = alloca i8, align 1
  store ptr %self, ptr %self.dbg.spill, align 8
  call void @llvm.dbg.declare(metadata ptr %self.dbg.spill, metadata !932, metadata !DIExpression()), !dbg !934
  store ptr %f, ptr %f.dbg.spill, align 8
  call void @llvm.dbg.declare(metadata ptr %f.dbg.spill, metadata !933, metadata !DIExpression()), !dbg !935
  call void @llvm.dbg.declare(metadata ptr %f.dbg.spill, metadata !936, metadata !DIExpression()), !dbg !944
  call void @llvm.dbg.declare(metadata ptr %f.dbg.spill, metadata !946, metadata !DIExpression()), !dbg !951
  %0 = getelementptr inbounds %"core::fmt::Formatter<'_>", ptr %f, i32 0, i32 4, !dbg !953
  %_4 = load i32, ptr %0, align 4, !dbg !953, !noundef !23
  %_3 = and i32 %_4, 16, !dbg !953
  %1 = icmp eq i32 %_3, 0, !dbg !954
  br i1 %1, label %bb2, label %bb1, !dbg !954

bb2:                                              ; preds = %start
  %2 = getelementptr inbounds %"core::fmt::Formatter<'_>", ptr %f, i32 0, i32 4, !dbg !955
  %_6 = load i32, ptr %2, align 4, !dbg !955, !noundef !23
  %_5 = and i32 %_6, 32, !dbg !955
  %3 = icmp eq i32 %_5, 0, !dbg !956
  br i1 %3, label %bb4, label %bb3, !dbg !956

bb1:                                              ; preds = %start
; call core::fmt::num::<impl core::fmt::LowerHex for usize>::fmt
  %4 = call zeroext i1 @"_ZN4core3fmt3num55_$LT$impl$u20$core..fmt..LowerHex$u20$for$u20$usize$GT$3fmt17h2a402146377b71d4E"(ptr align 8 %self, ptr align 8 %f), !dbg !957
  %5 = zext i1 %4 to i8, !dbg !957
  store i8 %5, ptr %_0, align 1, !dbg !957
  br label %bb5, !dbg !957

bb4:                                              ; preds = %bb2
; call core::fmt::num::imp::<impl core::fmt::Display for usize>::fmt
  %6 = call zeroext i1 @"_ZN4core3fmt3num3imp54_$LT$impl$u20$core..fmt..Display$u20$for$u20$usize$GT$3fmt17h54d4af2b1bb3d966E"(ptr align 8 %self, ptr align 8 %f), !dbg !958
  %7 = zext i1 %6 to i8, !dbg !958
  store i8 %7, ptr %_0, align 1, !dbg !958
  br label %bb5, !dbg !958

bb3:                                              ; preds = %bb2
; call core::fmt::num::<impl core::fmt::UpperHex for usize>::fmt
  %8 = call zeroext i1 @"_ZN4core3fmt3num55_$LT$impl$u20$core..fmt..UpperHex$u20$for$u20$usize$GT$3fmt17hfb9868ecfefdd0c2E"(ptr align 8 %self, ptr align 8 %f), !dbg !959
  %9 = zext i1 %8 to i8, !dbg !959
  store i8 %9, ptr %_0, align 1, !dbg !959
  br label %bb5, !dbg !959

bb5:                                              ; preds = %bb1, %bb3, %bb4
  %10 = load i8, ptr %_0, align 1, !dbg !960, !range !961, !noundef !23
  %11 = trunc i8 %10 to i1, !dbg !960
  ret i1 %11, !dbg !960
}

; core::fmt::builders::DebugList::entries
; Function Attrs: nonlazybind uwtable
define internal align 8 ptr @_ZN4core3fmt8builders9DebugList7entries17hf4b8df9cb0866934E(ptr align 8 %self, ptr %entries.0, ptr %entries.1) unnamed_addr #2 personality ptr @rust_eh_personality !dbg !962 {
start:
  %0 = alloca { ptr, i32 }, align 8
  %entries.dbg.spill = alloca { ptr, ptr }, align 8
  %self.dbg.spill = alloca ptr, align 8
  %entry = alloca ptr, align 8
  %_5 = alloca ptr, align 8
  %iter = alloca { ptr, ptr }, align 8
  store ptr %self, ptr %self.dbg.spill, align 8
  call void @llvm.dbg.declare(metadata ptr %self.dbg.spill, metadata !981, metadata !DIExpression()), !dbg !987
  %1 = getelementptr inbounds { ptr, ptr }, ptr %entries.dbg.spill, i32 0, i32 0
  store ptr %entries.0, ptr %1, align 8
  %2 = getelementptr inbounds { ptr, ptr }, ptr %entries.dbg.spill, i32 0, i32 1
  store ptr %entries.1, ptr %2, align 8
  call void @llvm.dbg.declare(metadata ptr %entries.dbg.spill, metadata !982, metadata !DIExpression()), !dbg !988
  call void @llvm.dbg.declare(metadata ptr %iter, metadata !983, metadata !DIExpression()), !dbg !989
  call void @llvm.dbg.declare(metadata ptr %entry, metadata !985, metadata !DIExpression()), !dbg !990
; call <I as core::iter::traits::collect::IntoIterator>::into_iter
  %3 = call { ptr, ptr } @"_ZN63_$LT$I$u20$as$u20$core..iter..traits..collect..IntoIterator$GT$9into_iter17h37cf83a8d3d9d32dE"(ptr %entries.0, ptr %entries.1), !dbg !991
  %_3.0 = extractvalue { ptr, ptr } %3, 0, !dbg !991
  %_3.1 = extractvalue { ptr, ptr } %3, 1, !dbg !991
  %4 = getelementptr inbounds { ptr, ptr }, ptr %iter, i32 0, i32 0, !dbg !991
  store ptr %_3.0, ptr %4, align 8, !dbg !991
  %5 = getelementptr inbounds { ptr, ptr }, ptr %iter, i32 0, i32 1, !dbg !991
  store ptr %_3.1, ptr %5, align 8, !dbg !991
  br label %bb2, !dbg !992

bb2:                                              ; preds = %bb8, %start
; invoke <core::slice::iter::Iter<T> as core::iter::traits::iterator::Iterator>::next
  %6 = invoke align 1 ptr @"_ZN91_$LT$core..slice..iter..Iter$LT$T$GT$$u20$as$u20$core..iter..traits..iterator..Iterator$GT$4next17h0688e2a47ebaac44E"(ptr align 8 %iter)
          to label %bb3 unwind label %cleanup, !dbg !989

bb11:                                             ; preds = %bb10, %cleanup
  %7 = load ptr, ptr %0, align 8, !dbg !993, !noundef !23
  %8 = getelementptr inbounds { ptr, i32 }, ptr %0, i32 0, i32 1, !dbg !993
  %9 = load i32, ptr %8, align 8, !dbg !993, !noundef !23
  %10 = insertvalue { ptr, i32 } poison, ptr %7, 0, !dbg !993
  %11 = insertvalue { ptr, i32 } %10, i32 %9, 1, !dbg !993
  resume { ptr, i32 } %11, !dbg !993

cleanup:                                          ; preds = %bb2
  %12 = landingpad { ptr, i32 }
          cleanup
  %13 = extractvalue { ptr, i32 } %12, 0
  %14 = extractvalue { ptr, i32 } %12, 1
  %15 = getelementptr inbounds { ptr, i32 }, ptr %0, i32 0, i32 0
  store ptr %13, ptr %15, align 8
  %16 = getelementptr inbounds { ptr, i32 }, ptr %0, i32 0, i32 1
  store i32 %14, ptr %16, align 8
  br label %bb11

bb3:                                              ; preds = %bb2
  store ptr %6, ptr %_5, align 8, !dbg !989
  %17 = load ptr, ptr %_5, align 8, !dbg !989, !noundef !23
  %18 = ptrtoint ptr %17 to i64, !dbg !989
  %19 = icmp eq i64 %18, 0, !dbg !989
  %_7 = select i1 %19, i64 0, i64 1, !dbg !989
  %20 = icmp eq i64 %_7, 0, !dbg !989
  br i1 %20, label %bb6, label %bb4, !dbg !989

bb6:                                              ; preds = %bb3
  ret ptr %self, !dbg !994

bb4:                                              ; preds = %bb3
  %21 = load ptr, ptr %_5, align 8, !dbg !995, !nonnull !23, !align !532, !noundef !23
  store ptr %21, ptr %entry, align 8, !dbg !995
; invoke core::fmt::builders::DebugList::entry
  %_9 = invoke align 8 ptr @_ZN4core3fmt8builders9DebugList5entry17h2ed5a4f4153b90ddE(ptr align 8 %self, ptr align 1 %entry, ptr align 8 @vtable.1)
          to label %bb7 unwind label %cleanup1, !dbg !996

bb10:                                             ; preds = %cleanup1
  br label %bb11, !dbg !997

cleanup1:                                         ; preds = %bb4
  %22 = landingpad { ptr, i32 }
          cleanup
  %23 = extractvalue { ptr, i32 } %22, 0
  %24 = extractvalue { ptr, i32 } %22, 1
  %25 = getelementptr inbounds { ptr, i32 }, ptr %0, i32 0, i32 0
  store ptr %23, ptr %25, align 8
  %26 = getelementptr inbounds { ptr, i32 }, ptr %0, i32 0, i32 1
  store i32 %24, ptr %26, align 8
  br label %bb10

bb7:                                              ; preds = %bb4
  br label %bb8, !dbg !997

bb8:                                              ; preds = %bb7
  br label %bb2, !dbg !992

bb5:                                              ; No predecessors!
  unreachable, !dbg !989
}

; core::fmt::Arguments::new_v1
; Function Attrs: inlinehint nonlazybind uwtable
define internal void @_ZN4core3fmt9Arguments6new_v117hbbc729a86f212e4cE(ptr sret(%"core::fmt::Arguments<'_>") align 8 %_0, ptr align 8 %pieces.0, i64 %pieces.1, ptr align 8 %args.0, i64 %args.1) unnamed_addr #1 !dbg !998 {
start:
  %pieces.dbg.spill1 = alloca { ptr, i64 }, align 8
  %args.dbg.spill = alloca { ptr, i64 }, align 8
  %pieces.dbg.spill = alloca { ptr, i64 }, align 8
  %_15 = alloca { ptr, i64 }, align 8
  %_13 = alloca { ptr, i64 }, align 8
  %_11 = alloca %"core::fmt::Arguments<'_>", align 8
  %0 = getelementptr inbounds { ptr, i64 }, ptr %pieces.dbg.spill, i32 0, i32 0
  store ptr %pieces.0, ptr %0, align 8
  %1 = getelementptr inbounds { ptr, i64 }, ptr %pieces.dbg.spill, i32 0, i32 1
  store i64 %pieces.1, ptr %1, align 8
  call void @llvm.dbg.declare(metadata ptr %pieces.dbg.spill, metadata !1069, metadata !DIExpression()), !dbg !1071
  %2 = getelementptr inbounds { ptr, i64 }, ptr %args.dbg.spill, i32 0, i32 0
  store ptr %args.0, ptr %2, align 8
  %3 = getelementptr inbounds { ptr, i64 }, ptr %args.dbg.spill, i32 0, i32 1
  store i64 %args.1, ptr %3, align 8
  call void @llvm.dbg.declare(metadata ptr %args.dbg.spill, metadata !1070, metadata !DIExpression()), !dbg !1072
  %_3 = icmp ult i64 %pieces.1, %args.1, !dbg !1073
  br i1 %_3, label %bb1, label %bb2, !dbg !1073

bb2:                                              ; preds = %start
  %_8 = add i64 %args.1, 1, !dbg !1074
  %_6 = icmp ugt i64 %pieces.1, %_8, !dbg !1075
  br i1 %_6, label %bb3, label %bb4, !dbg !1075

bb1:                                              ; preds = %start
  br label %bb3, !dbg !1076

bb4:                                              ; preds = %bb2
  store ptr null, ptr %_13, align 8, !dbg !1077
  %4 = getelementptr inbounds { ptr, i64 }, ptr %_0, i32 0, i32 0, !dbg !1078
  store ptr %pieces.0, ptr %4, align 8, !dbg !1078
  %5 = getelementptr inbounds { ptr, i64 }, ptr %_0, i32 0, i32 1, !dbg !1078
  store i64 %pieces.1, ptr %5, align 8, !dbg !1078
  %6 = getelementptr inbounds { ptr, i64 }, ptr %_13, i32 0, i32 0, !dbg !1078
  %7 = load ptr, ptr %6, align 8, !dbg !1078, !align !810, !noundef !23
  %8 = getelementptr inbounds { ptr, i64 }, ptr %_13, i32 0, i32 1, !dbg !1078
  %9 = load i64, ptr %8, align 8, !dbg !1078
  %10 = getelementptr inbounds %"core::fmt::Arguments<'_>", ptr %_0, i32 0, i32 2, !dbg !1078
  %11 = getelementptr inbounds { ptr, i64 }, ptr %10, i32 0, i32 0, !dbg !1078
  store ptr %7, ptr %11, align 8, !dbg !1078
  %12 = getelementptr inbounds { ptr, i64 }, ptr %10, i32 0, i32 1, !dbg !1078
  store i64 %9, ptr %12, align 8, !dbg !1078
  %13 = getelementptr inbounds %"core::fmt::Arguments<'_>", ptr %_0, i32 0, i32 1, !dbg !1078
  %14 = getelementptr inbounds { ptr, i64 }, ptr %13, i32 0, i32 0, !dbg !1078
  store ptr %args.0, ptr %14, align 8, !dbg !1078
  %15 = getelementptr inbounds { ptr, i64 }, ptr %13, i32 0, i32 1, !dbg !1078
  store i64 %args.1, ptr %15, align 8, !dbg !1078
  ret void, !dbg !1079

bb3:                                              ; preds = %bb1, %bb2
  %16 = getelementptr inbounds { ptr, i64 }, ptr %pieces.dbg.spill1, i32 0, i32 0, !dbg !1080
  store ptr @alloc_af99043bc04c419363a7f04d23183506, ptr %16, align 8, !dbg !1080
  %17 = getelementptr inbounds { ptr, i64 }, ptr %pieces.dbg.spill1, i32 0, i32 1, !dbg !1080
  store i64 1, ptr %17, align 8, !dbg !1080
  call void @llvm.dbg.declare(metadata ptr %pieces.dbg.spill1, metadata !1081, metadata !DIExpression()), !dbg !1088
  store ptr null, ptr %_15, align 8, !dbg !1092
  %18 = getelementptr inbounds { ptr, i64 }, ptr %_11, i32 0, i32 0, !dbg !1093
  store ptr @alloc_af99043bc04c419363a7f04d23183506, ptr %18, align 8, !dbg !1093
  %19 = getelementptr inbounds { ptr, i64 }, ptr %_11, i32 0, i32 1, !dbg !1093
  store i64 1, ptr %19, align 8, !dbg !1093
  %20 = getelementptr inbounds { ptr, i64 }, ptr %_15, i32 0, i32 0, !dbg !1093
  %21 = load ptr, ptr %20, align 8, !dbg !1093, !align !810, !noundef !23
  %22 = getelementptr inbounds { ptr, i64 }, ptr %_15, i32 0, i32 1, !dbg !1093
  %23 = load i64, ptr %22, align 8, !dbg !1093
  %24 = getelementptr inbounds %"core::fmt::Arguments<'_>", ptr %_11, i32 0, i32 2, !dbg !1093
  %25 = getelementptr inbounds { ptr, i64 }, ptr %24, i32 0, i32 0, !dbg !1093
  store ptr %21, ptr %25, align 8, !dbg !1093
  %26 = getelementptr inbounds { ptr, i64 }, ptr %24, i32 0, i32 1, !dbg !1093
  store i64 %23, ptr %26, align 8, !dbg !1093
  %27 = getelementptr inbounds %"core::fmt::Arguments<'_>", ptr %_11, i32 0, i32 1, !dbg !1093
  %28 = getelementptr inbounds { ptr, i64 }, ptr %27, i32 0, i32 0, !dbg !1093
  store ptr @alloc_513570631223a12912d85da2bec3b15a, ptr %28, align 8, !dbg !1093
  %29 = getelementptr inbounds { ptr, i64 }, ptr %27, i32 0, i32 1, !dbg !1093
  store i64 0, ptr %29, align 8, !dbg !1093
; call core::panicking::panic_fmt
  call void @_ZN4core9panicking9panic_fmt17h784f20a50eaab275E(ptr align 8 %_11, ptr align 8 @alloc_5f330cd7dff757941d785f386d839300) #13, !dbg !1094
  unreachable, !dbg !1094
}

; core::ops::function::FnOnce::call_once{{vtable.shim}}
; Function Attrs: inlinehint nonlazybind uwtable
define internal { i64, i64 } @"_ZN4core3ops8function6FnOnce40call_once$u7b$$u7b$vtable.shim$u7d$$u7d$17h0920f0621462e555E"(ptr %_1, ptr align 1 %0, i64 %1) unnamed_addr #1 !dbg !1095 {
start:
  %_1.dbg.spill = alloca ptr, align 8
  %_2 = alloca { ptr, i64 }, align 8
  %2 = getelementptr inbounds { ptr, i64 }, ptr %_2, i32 0, i32 0
  store ptr %0, ptr %2, align 8
  %3 = getelementptr inbounds { ptr, i64 }, ptr %_2, i32 0, i32 1
  store i64 %1, ptr %3, align 8
  store ptr %_1, ptr %_1.dbg.spill, align 8
  call void @llvm.dbg.declare(metadata ptr %_1.dbg.spill, metadata !1124, metadata !DIExpression()), !dbg !1132
  call void @llvm.dbg.declare(metadata ptr %_2, metadata !1125, metadata !DIExpression()), !dbg !1132
  %4 = load ptr, ptr %_1, align 8, !dbg !1132, !nonnull !23, !align !810, !noundef !23
  %5 = getelementptr inbounds { ptr, i64 }, ptr %_2, i32 0, i32 0, !dbg !1132
  %6 = load ptr, ptr %5, align 8, !dbg !1132, !nonnull !23, !align !532, !noundef !23
  %7 = getelementptr inbounds { ptr, i64 }, ptr %_2, i32 0, i32 1, !dbg !1132
  %8 = load i64, ptr %7, align 8, !dbg !1132, !noundef !23
; call core::ops::function::FnOnce::call_once
  %9 = call { i64, i64 } @_ZN4core3ops8function6FnOnce9call_once17hbeca121b11fdfdf3E(ptr align 8 %4, ptr align 1 %6, i64 %8), !dbg !1132
  %_0.0 = extractvalue { i64, i64 } %9, 0, !dbg !1132
  %_0.1 = extractvalue { i64, i64 } %9, 1, !dbg !1132
  %10 = insertvalue { i64, i64 } poison, i64 %_0.0, 0, !dbg !1132
  %11 = insertvalue { i64, i64 } %10, i64 %_0.1, 1, !dbg !1132
  ret { i64, i64 } %11, !dbg !1132
}

; core::ops::function::FnOnce::call_once{{vtable.shim}}
; Function Attrs: inlinehint nonlazybind uwtable
define internal void @"_ZN4core3ops8function6FnOnce40call_once$u7b$$u7b$vtable.shim$u7d$$u7d$17h69b162c396b290f7E"(ptr sret(%"core::result::Result<usize, curl::easy::handler::ReadError>") align 8 %_0, ptr %_1, ptr align 1 %0, i64 %1) unnamed_addr #1 !dbg !1133 {
start:
  %_1.dbg.spill = alloca ptr, align 8
  %_2 = alloca { ptr, i64 }, align 8
  %2 = getelementptr inbounds { ptr, i64 }, ptr %_2, i32 0, i32 0
  store ptr %0, ptr %2, align 8
  %3 = getelementptr inbounds { ptr, i64 }, ptr %_2, i32 0, i32 1
  store i64 %1, ptr %3, align 8
  store ptr %_1, ptr %_1.dbg.spill, align 8
  call void @llvm.dbg.declare(metadata ptr %_1.dbg.spill, metadata !1153, metadata !DIExpression()), !dbg !1161
  call void @llvm.dbg.declare(metadata ptr %_2, metadata !1154, metadata !DIExpression()), !dbg !1161
  %4 = load ptr, ptr %_1, align 8, !dbg !1161, !nonnull !23, !align !810, !noundef !23
  %5 = getelementptr inbounds { ptr, i64 }, ptr %_2, i32 0, i32 0, !dbg !1161
  %6 = load ptr, ptr %5, align 8, !dbg !1161, !nonnull !23, !align !532, !noundef !23
  %7 = getelementptr inbounds { ptr, i64 }, ptr %_2, i32 0, i32 1, !dbg !1161
  %8 = load i64, ptr %7, align 8, !dbg !1161, !noundef !23
; call core::ops::function::FnOnce::call_once
  call void @_ZN4core3ops8function6FnOnce9call_once17h32f2dde2a6a272f4E(ptr sret(%"core::result::Result<usize, curl::easy::handler::ReadError>") align 8 %_0, ptr align 8 %4, ptr align 1 %6, i64 %8), !dbg !1161
  ret void, !dbg !1161
}

; core::ops::function::FnOnce::call_once{{vtable.shim}}
; Function Attrs: inlinehint nonlazybind uwtable
define internal i32 @"_ZN4core3ops8function6FnOnce40call_once$u7b$$u7b$vtable.shim$u7d$$u7d$17h8d70a5a999bf846fE"(ptr %_1) unnamed_addr #1 !dbg !1162 {
start:
  %_1.dbg.spill = alloca ptr, align 8
  %_2 = alloca {}, align 1
  store ptr %_1, ptr %_1.dbg.spill, align 8
  call void @llvm.dbg.declare(metadata ptr %_1.dbg.spill, metadata !1167, metadata !DIExpression()), !dbg !1172
  call void @llvm.dbg.declare(metadata ptr %_2, metadata !1168, metadata !DIExpression()), !dbg !1172
  %0 = load ptr, ptr %_1, align 8, !dbg !1172, !nonnull !23, !noundef !23
; call core::ops::function::FnOnce::call_once
  %_0 = call i32 @_ZN4core3ops8function6FnOnce9call_once17heb59d391b34d3992E(ptr %0), !dbg !1172
  ret i32 %_0, !dbg !1172
}

; core::ops::function::FnOnce::call_once
; Function Attrs: inlinehint nonlazybind uwtable
define internal void @_ZN4core3ops8function6FnOnce9call_once17h32f2dde2a6a272f4E(ptr sret(%"core::result::Result<usize, curl::easy::handler::ReadError>") align 8 %_0, ptr align 8 %0, ptr align 1 %1, i64 %2) unnamed_addr #1 personality ptr @rust_eh_personality !dbg !1173 {
start:
  %3 = alloca { ptr, i32 }, align 8
  %_2 = alloca { ptr, i64 }, align 8
  %_1 = alloca ptr, align 8
  store ptr %0, ptr %_1, align 8
  %4 = getelementptr inbounds { ptr, i64 }, ptr %_2, i32 0, i32 0
  store ptr %1, ptr %4, align 8
  %5 = getelementptr inbounds { ptr, i64 }, ptr %_2, i32 0, i32 1
  store i64 %2, ptr %5, align 8
  call void @llvm.dbg.declare(metadata ptr %_1, metadata !1177, metadata !DIExpression()), !dbg !1179
  call void @llvm.dbg.declare(metadata ptr %_2, metadata !1178, metadata !DIExpression()), !dbg !1179
  %6 = getelementptr inbounds { ptr, i64 }, ptr %_2, i32 0, i32 0, !dbg !1179
  %7 = load ptr, ptr %6, align 8, !dbg !1179, !nonnull !23, !align !532, !noundef !23
  %8 = getelementptr inbounds { ptr, i64 }, ptr %_2, i32 0, i32 1, !dbg !1179
  %9 = load i64, ptr %8, align 8, !dbg !1179, !noundef !23
; invoke function::make_rpc::{{closure}}
  invoke void @"_ZN8function8make_rpc28_$u7b$$u7b$closure$u7d$$u7d$17h2d67a53dfc92a376E"(ptr sret(%"core::result::Result<usize, curl::easy::handler::ReadError>") align 8 %_0, ptr align 8 %_1, ptr align 1 %7, i64 %9)
          to label %bb1 unwind label %cleanup, !dbg !1179

bb3:                                              ; preds = %cleanup
  %10 = load ptr, ptr %3, align 8, !dbg !1179, !noundef !23
  %11 = getelementptr inbounds { ptr, i32 }, ptr %3, i32 0, i32 1, !dbg !1179
  %12 = load i32, ptr %11, align 8, !dbg !1179, !noundef !23
  %13 = insertvalue { ptr, i32 } poison, ptr %10, 0, !dbg !1179
  %14 = insertvalue { ptr, i32 } %13, i32 %12, 1, !dbg !1179
  resume { ptr, i32 } %14, !dbg !1179

cleanup:                                          ; preds = %start
  %15 = landingpad { ptr, i32 }
          cleanup
  %16 = extractvalue { ptr, i32 } %15, 0
  %17 = extractvalue { ptr, i32 } %15, 1
  %18 = getelementptr inbounds { ptr, i32 }, ptr %3, i32 0, i32 0
  store ptr %16, ptr %18, align 8
  %19 = getelementptr inbounds { ptr, i32 }, ptr %3, i32 0, i32 1
  store i32 %17, ptr %19, align 8
  br label %bb3

bb1:                                              ; preds = %start
  ret void, !dbg !1179
}

; core::ops::function::FnOnce::call_once
; Function Attrs: inlinehint nonlazybind uwtable
define internal void @_ZN4core3ops8function6FnOnce9call_once17h8e563c5749279839E(ptr %_1) unnamed_addr #1 !dbg !1180 {
start:
  %_1.dbg.spill = alloca ptr, align 8
  %_2 = alloca {}, align 1
  store ptr %_1, ptr %_1.dbg.spill, align 8
  call void @llvm.dbg.declare(metadata ptr %_1.dbg.spill, metadata !1182, metadata !DIExpression()), !dbg !1186
  call void @llvm.dbg.declare(metadata ptr %_2, metadata !1183, metadata !DIExpression()), !dbg !1186
  call void %_1(), !dbg !1186
  ret void, !dbg !1186
}

; core::ops::function::FnOnce::call_once
; Function Attrs: inlinehint nonlazybind uwtable
define internal { i64, i64 } @_ZN4core3ops8function6FnOnce9call_once17hbeca121b11fdfdf3E(ptr align 8 %0, ptr align 1 %1, i64 %2) unnamed_addr #1 personality ptr @rust_eh_personality !dbg !1187 {
start:
  %3 = alloca { ptr, i32 }, align 8
  %_2 = alloca { ptr, i64 }, align 8
  %_1 = alloca ptr, align 8
  store ptr %0, ptr %_1, align 8
  %4 = getelementptr inbounds { ptr, i64 }, ptr %_2, i32 0, i32 0
  store ptr %1, ptr %4, align 8
  %5 = getelementptr inbounds { ptr, i64 }, ptr %_2, i32 0, i32 1
  store i64 %2, ptr %5, align 8
  call void @llvm.dbg.declare(metadata ptr %_1, metadata !1191, metadata !DIExpression()), !dbg !1193
  call void @llvm.dbg.declare(metadata ptr %_2, metadata !1192, metadata !DIExpression()), !dbg !1193
  %6 = getelementptr inbounds { ptr, i64 }, ptr %_2, i32 0, i32 0, !dbg !1193
  %7 = load ptr, ptr %6, align 8, !dbg !1193, !nonnull !23, !align !532, !noundef !23
  %8 = getelementptr inbounds { ptr, i64 }, ptr %_2, i32 0, i32 1, !dbg !1193
  %9 = load i64, ptr %8, align 8, !dbg !1193, !noundef !23
; invoke function::make_rpc::{{closure}}
  %10 = invoke { i64, i64 } @"_ZN8function8make_rpc28_$u7b$$u7b$closure$u7d$$u7d$17h297a24a811895371E"(ptr align 8 %_1, ptr align 1 %7, i64 %9)
          to label %bb1 unwind label %cleanup, !dbg !1193

bb3:                                              ; preds = %cleanup
  %11 = load ptr, ptr %3, align 8, !dbg !1193, !noundef !23
  %12 = getelementptr inbounds { ptr, i32 }, ptr %3, i32 0, i32 1, !dbg !1193
  %13 = load i32, ptr %12, align 8, !dbg !1193, !noundef !23
  %14 = insertvalue { ptr, i32 } poison, ptr %11, 0, !dbg !1193
  %15 = insertvalue { ptr, i32 } %14, i32 %13, 1, !dbg !1193
  resume { ptr, i32 } %15, !dbg !1193

cleanup:                                          ; preds = %start
  %16 = landingpad { ptr, i32 }
          cleanup
  %17 = extractvalue { ptr, i32 } %16, 0
  %18 = extractvalue { ptr, i32 } %16, 1
  %19 = getelementptr inbounds { ptr, i32 }, ptr %3, i32 0, i32 0
  store ptr %17, ptr %19, align 8
  %20 = getelementptr inbounds { ptr, i32 }, ptr %3, i32 0, i32 1
  store i32 %18, ptr %20, align 8
  br label %bb3

bb1:                                              ; preds = %start
  %_0.0 = extractvalue { i64, i64 } %10, 0, !dbg !1193
  %_0.1 = extractvalue { i64, i64 } %10, 1, !dbg !1193
  %21 = insertvalue { i64, i64 } poison, i64 %_0.0, 0, !dbg !1193
  %22 = insertvalue { i64, i64 } %21, i64 %_0.1, 1, !dbg !1193
  ret { i64, i64 } %22, !dbg !1193
}

; core::ops::function::FnOnce::call_once
; Function Attrs: inlinehint nonlazybind uwtable
define internal i32 @_ZN4core3ops8function6FnOnce9call_once17heb59d391b34d3992E(ptr %0) unnamed_addr #1 personality ptr @rust_eh_personality !dbg !1194 {
start:
  %1 = alloca { ptr, i32 }, align 8
  %_2 = alloca {}, align 1
  %_1 = alloca ptr, align 8
  store ptr %0, ptr %_1, align 8
  call void @llvm.dbg.declare(metadata ptr %_1, metadata !1198, metadata !DIExpression()), !dbg !1200
  call void @llvm.dbg.declare(metadata ptr %_2, metadata !1199, metadata !DIExpression()), !dbg !1200
; invoke std::rt::lang_start::{{closure}}
  %_0 = invoke i32 @"_ZN3std2rt10lang_start28_$u7b$$u7b$closure$u7d$$u7d$17h14e6735284a1df53E"(ptr align 8 %_1)
          to label %bb1 unwind label %cleanup, !dbg !1200

bb3:                                              ; preds = %cleanup
  %2 = load ptr, ptr %1, align 8, !dbg !1200, !noundef !23
  %3 = getelementptr inbounds { ptr, i32 }, ptr %1, i32 0, i32 1, !dbg !1200
  %4 = load i32, ptr %3, align 8, !dbg !1200, !noundef !23
  %5 = insertvalue { ptr, i32 } poison, ptr %2, 0, !dbg !1200
  %6 = insertvalue { ptr, i32 } %5, i32 %4, 1, !dbg !1200
  resume { ptr, i32 } %6, !dbg !1200

cleanup:                                          ; preds = %start
  %7 = landingpad { ptr, i32 }
          cleanup
  %8 = extractvalue { ptr, i32 } %7, 0
  %9 = extractvalue { ptr, i32 } %7, 1
  %10 = getelementptr inbounds { ptr, i32 }, ptr %1, i32 0, i32 0
  store ptr %8, ptr %10, align 8
  %11 = getelementptr inbounds { ptr, i32 }, ptr %1, i32 0, i32 1
  store i32 %9, ptr %11, align 8
  br label %bb3

bb1:                                              ; preds = %start
  ret i32 %_0, !dbg !1200
}

; core::ptr::drop_in_place<usize>
; Function Attrs: inlinehint nonlazybind uwtable
define internal void @"_ZN4core3ptr26drop_in_place$LT$usize$GT$17h8d78cd2f36bbd8b2E"(ptr align 8 %_1) unnamed_addr #1 !dbg !1201 {
start:
  %_1.dbg.spill = alloca ptr, align 8
  store ptr %_1, ptr %_1.dbg.spill, align 8
  call void @llvm.dbg.declare(metadata ptr %_1.dbg.spill, metadata !1206, metadata !DIExpression()), !dbg !1207
  ret void, !dbg !1207
}

; core::ptr::drop_in_place<&u8>
; Function Attrs: inlinehint nonlazybind uwtable
define internal void @"_ZN4core3ptr27drop_in_place$LT$$RF$u8$GT$17hefb5942aea697389E"(ptr align 8 %_1) unnamed_addr #1 !dbg !1208 {
start:
  %_1.dbg.spill = alloca ptr, align 8
  store ptr %_1, ptr %_1.dbg.spill, align 8
  call void @llvm.dbg.declare(metadata ptr %_1.dbg.spill, metadata !1213, metadata !DIExpression()), !dbg !1214
  ret void, !dbg !1214
}

; core::ptr::drop_in_place<alloc::string::FromUtf8Error>
; Function Attrs: nonlazybind uwtable
define internal void @"_ZN4core3ptr49drop_in_place$LT$alloc..string..FromUtf8Error$GT$17h818b6a3bb05effa4E"(ptr align 8 %_1) unnamed_addr #2 !dbg !1215 {
start:
  %_1.dbg.spill = alloca ptr, align 8
  store ptr %_1, ptr %_1.dbg.spill, align 8
  call void @llvm.dbg.declare(metadata ptr %_1.dbg.spill, metadata !1220, metadata !DIExpression()), !dbg !1223
; call core::ptr::drop_in_place<alloc::vec::Vec<u8>>
  call void @"_ZN4core3ptr46drop_in_place$LT$alloc..vec..Vec$LT$u8$GT$$GT$17h2f35760f366b608bE"(ptr align 8 %_1), !dbg !1223
  ret void, !dbg !1223
}

; core::ptr::drop_in_place<&core::str::error::Utf8Error>
; Function Attrs: inlinehint nonlazybind uwtable
define internal void @"_ZN4core3ptr52drop_in_place$LT$$RF$core..str..error..Utf8Error$GT$17h227c49c7d98e3107E"(ptr align 8 %_1) unnamed_addr #1 !dbg !1224 {
start:
  %_1.dbg.spill = alloca ptr, align 8
  store ptr %_1, ptr %_1.dbg.spill, align 8
  call void @llvm.dbg.declare(metadata ptr %_1.dbg.spill, metadata !1229, metadata !DIExpression()), !dbg !1232
  ret void, !dbg !1232
}

; core::ptr::drop_in_place<&core::option::Option<u8>>
; Function Attrs: inlinehint nonlazybind uwtable
define internal void @"_ZN4core3ptr55drop_in_place$LT$$RF$core..option..Option$LT$u8$GT$$GT$17h8bb1eef93bdcb174E"(ptr align 8 %_1) unnamed_addr #1 !dbg !1233 {
start:
  %_1.dbg.spill = alloca ptr, align 8
  store ptr %_1, ptr %_1.dbg.spill, align 8
  call void @llvm.dbg.declare(metadata ptr %_1.dbg.spill, metadata !1238, metadata !DIExpression()), !dbg !1241
  ret void, !dbg !1241
}

; core::ptr::drop_in_place<function::make_rpc::{{closure}}>
; Function Attrs: inlinehint nonlazybind uwtable
define internal void @"_ZN4core3ptr68drop_in_place$LT$function..make_rpc..$u7b$$u7b$closure$u7d$$u7d$$GT$17h244b5048f5cd3f7aE"(ptr align 8 %_1) unnamed_addr #1 !dbg !1242 {
start:
  %_1.dbg.spill = alloca ptr, align 8
  store ptr %_1, ptr %_1.dbg.spill, align 8
  call void @llvm.dbg.declare(metadata ptr %_1.dbg.spill, metadata !1246, metadata !DIExpression()), !dbg !1249
  ret void, !dbg !1249
}

; core::ptr::drop_in_place<function::make_rpc::{{closure}}>
; Function Attrs: inlinehint nonlazybind uwtable
define internal void @"_ZN4core3ptr68drop_in_place$LT$function..make_rpc..$u7b$$u7b$closure$u7d$$u7d$$GT$17h6bccd4005ad7d142E"(ptr align 8 %_1) unnamed_addr #1 !dbg !1250 {
start:
  %_1.dbg.spill = alloca ptr, align 8
  store ptr %_1, ptr %_1.dbg.spill, align 8
  call void @llvm.dbg.declare(metadata ptr %_1.dbg.spill, metadata !1254, metadata !DIExpression()), !dbg !1257
  ret void, !dbg !1257
}

; core::ptr::drop_in_place<core::result::Result<usize,std::io::error::Error>>
; Function Attrs: nonlazybind uwtable
define internal void @"_ZN4core3ptr78drop_in_place$LT$core..result..Result$LT$usize$C$std..io..error..Error$GT$$GT$17h0231909c43219edbE"(ptr align 8 %_1) unnamed_addr #2 !dbg !1258 {
start:
  %_1.dbg.spill = alloca ptr, align 8
  store ptr %_1, ptr %_1.dbg.spill, align 8
  call void @llvm.dbg.declare(metadata ptr %_1.dbg.spill, metadata !1263, metadata !DIExpression()), !dbg !1266
  %_2 = load i64, ptr %_1, align 8, !dbg !1266, !range !1267, !noundef !23
  %0 = icmp eq i64 %_2, 0, !dbg !1266
  br i1 %0, label %bb1, label %bb2, !dbg !1266

bb1:                                              ; preds = %bb2, %start
  ret void, !dbg !1266

bb2:                                              ; preds = %start
  %1 = getelementptr inbounds %"core::result::Result<usize, std::io::error::Error>::Err", ptr %_1, i32 0, i32 1, !dbg !1266
; call core::ptr::drop_in_place<std::io::error::Error>
  call void @"_ZN4core3ptr42drop_in_place$LT$std..io..error..Error$GT$17h0d60361555ec6912E"(ptr align 8 %1), !dbg !1266
  br label %bb1, !dbg !1266
}

; core::ptr::drop_in_place<std::rt::lang_start<()>::{{closure}}>
; Function Attrs: inlinehint nonlazybind uwtable
define internal void @"_ZN4core3ptr85drop_in_place$LT$std..rt..lang_start$LT$$LP$$RP$$GT$..$u7b$$u7b$closure$u7d$$u7d$$GT$17h4062a148aa2c2b31E"(ptr align 8 %_1) unnamed_addr #1 !dbg !1268 {
start:
  %_1.dbg.spill = alloca ptr, align 8
  store ptr %_1, ptr %_1.dbg.spill, align 8
  call void @llvm.dbg.declare(metadata ptr %_1.dbg.spill, metadata !1272, metadata !DIExpression()), !dbg !1275
  ret void, !dbg !1275
}

; core::slice::<impl [T]>::copy_from_slice
; Function Attrs: nonlazybind uwtable
define internal void @"_ZN4core5slice29_$LT$impl$u20$$u5b$T$u5d$$GT$15copy_from_slice17h4c32770f9ff5a7d5E"(ptr align 1 %self.0, i64 %self.1, ptr align 1 %src.0, i64 %src.1, ptr align 8 %0) unnamed_addr #2 !dbg !1276 {
start:
  %count.dbg.spill = alloca i64, align 8
  %dst.dbg.spill = alloca ptr, align 8
  %src.dbg.spill1 = alloca ptr, align 8
  %src.dbg.spill = alloca { ptr, i64 }, align 8
  %self.dbg.spill = alloca { ptr, i64 }, align 8
  %1 = getelementptr inbounds { ptr, i64 }, ptr %self.dbg.spill, i32 0, i32 0
  store ptr %self.0, ptr %1, align 8
  %2 = getelementptr inbounds { ptr, i64 }, ptr %self.dbg.spill, i32 0, i32 1
  store i64 %self.1, ptr %2, align 8
  call void @llvm.dbg.declare(metadata ptr %self.dbg.spill, metadata !1280, metadata !DIExpression()), !dbg !1282
  call void @llvm.dbg.declare(metadata ptr %self.dbg.spill, metadata !1283, metadata !DIExpression()), !dbg !1289
  %3 = getelementptr inbounds { ptr, i64 }, ptr %src.dbg.spill, i32 0, i32 0
  store ptr %src.0, ptr %3, align 8
  %4 = getelementptr inbounds { ptr, i64 }, ptr %src.dbg.spill, i32 0, i32 1
  store i64 %src.1, ptr %4, align 8
  call void @llvm.dbg.declare(metadata ptr %src.dbg.spill, metadata !1281, metadata !DIExpression()), !dbg !1291
  call void @llvm.dbg.declare(metadata ptr %src.dbg.spill, metadata !1292, metadata !DIExpression()), !dbg !1296
  %_3 = icmp ne i64 %self.1, %src.1, !dbg !1298
  br i1 %_3, label %bb1, label %bb2, !dbg !1298

bb2:                                              ; preds = %start
  store ptr %src.0, ptr %src.dbg.spill1, align 8, !dbg !1299
  call void @llvm.dbg.declare(metadata ptr %src.dbg.spill1, metadata !1300, metadata !DIExpression()), !dbg !1309
  store ptr %self.0, ptr %dst.dbg.spill, align 8, !dbg !1311
  call void @llvm.dbg.declare(metadata ptr %dst.dbg.spill, metadata !1307, metadata !DIExpression()), !dbg !1312
  store i64 %self.1, ptr %count.dbg.spill, align 8, !dbg !1313
  call void @llvm.dbg.declare(metadata ptr %count.dbg.spill, metadata !1308, metadata !DIExpression()), !dbg !1314
  %5 = mul i64 %self.1, 1, !dbg !1315
  call void @llvm.memcpy.p0.p0.i64(ptr align 1 %self.0, ptr align 1 %src.0, i64 %5, i1 false), !dbg !1315
  ret void, !dbg !1316

bb1:                                              ; preds = %start
; call core::slice::<impl [T]>::copy_from_slice::len_mismatch_fail
  call void @"_ZN4core5slice29_$LT$impl$u20$$u5b$T$u5d$$GT$15copy_from_slice17len_mismatch_fail17h314ed267ae8df733E"(i64 %self.1, i64 %src.1, ptr align 8 %0) #13, !dbg !1317
  unreachable, !dbg !1317
}

; core::result::Result<T,E>::unwrap
; Function Attrs: inlinehint nonlazybind uwtable
define internal void @"_ZN4core6result19Result$LT$T$C$E$GT$6unwrap17h102c4b02f7c8d1b4E"(ptr align 8 %self, ptr align 8 %0) unnamed_addr #1 personality ptr @rust_eh_personality !dbg !1318 {
start:
  %1 = alloca { ptr, i32 }, align 8
  %t.dbg.spill = alloca {}, align 1
  %e = alloca %"curl::error::Error", align 8
  call void @llvm.dbg.declare(metadata ptr %t.dbg.spill, metadata !1340, metadata !DIExpression()), !dbg !1344
  call void @llvm.dbg.declare(metadata ptr %self, metadata !1339, metadata !DIExpression()), !dbg !1345
  call void @llvm.dbg.declare(metadata ptr %e, metadata !1342, metadata !DIExpression()), !dbg !1346
  %_2 = load i64, ptr %self, align 8, !dbg !1347, !range !1267, !noundef !23
  %2 = icmp eq i64 %_2, 0, !dbg !1348
  br i1 %2, label %bb3, label %bb1, !dbg !1348

bb3:                                              ; preds = %start
  ret void, !dbg !1349

bb1:                                              ; preds = %start
  %3 = getelementptr inbounds %"core::result::Result<(), curl::error::Error>::Err", ptr %self, i32 0, i32 1, !dbg !1350
  call void @llvm.memcpy.p0.p0.i64(ptr align 8 %e, ptr align 8 %3, i64 24, i1 false), !dbg !1350
; invoke core::result::unwrap_failed
  invoke void @_ZN4core6result13unwrap_failed17h03d8a5018196e1cdE(ptr align 1 @alloc_00ae4b301f7fab8ac9617c03fcbd7274, i64 43, ptr align 1 %e, ptr align 8 @vtable.2, ptr align 8 %0) #13
          to label %unreachable unwind label %cleanup, !dbg !1351

bb4:                                              ; preds = %cleanup
; invoke core::ptr::drop_in_place<curl::error::Error>
  invoke void @"_ZN4core3ptr39drop_in_place$LT$curl..error..Error$GT$17h28a3a45b5e54a015E"(ptr align 8 %e) #14
          to label %bb5 unwind label %terminate, !dbg !1352

cleanup:                                          ; preds = %bb1
  %4 = landingpad { ptr, i32 }
          cleanup
  %5 = extractvalue { ptr, i32 } %4, 0
  %6 = extractvalue { ptr, i32 } %4, 1
  %7 = getelementptr inbounds { ptr, i32 }, ptr %1, i32 0, i32 0
  store ptr %5, ptr %7, align 8
  %8 = getelementptr inbounds { ptr, i32 }, ptr %1, i32 0, i32 1
  store i32 %6, ptr %8, align 8
  br label %bb4

unreachable:                                      ; preds = %bb1
  unreachable

terminate:                                        ; preds = %bb4
  %9 = landingpad { ptr, i32 }
          filter [0 x ptr] zeroinitializer
  %10 = extractvalue { ptr, i32 } %9, 0
  %11 = extractvalue { ptr, i32 } %9, 1
; call core::panicking::panic_in_cleanup
  call void @_ZN4core9panicking16panic_in_cleanup17h55eb1d85cadde1a1E() #15, !dbg !1353
  unreachable, !dbg !1353

bb5:                                              ; preds = %bb4
  %12 = load ptr, ptr %1, align 8, !dbg !1353, !noundef !23
  %13 = getelementptr inbounds { ptr, i32 }, ptr %1, i32 0, i32 1, !dbg !1353
  %14 = load i32, ptr %13, align 8, !dbg !1353, !noundef !23
  %15 = insertvalue { ptr, i32 } poison, ptr %12, 0, !dbg !1353
  %16 = insertvalue { ptr, i32 } %15, i32 %14, 1, !dbg !1353
  resume { ptr, i32 } %16, !dbg !1353

bb2:                                              ; No predecessors!
  unreachable, !dbg !1347
}

; core::result::Result<T,E>::unwrap
; Function Attrs: inlinehint nonlazybind uwtable
define internal void @"_ZN4core6result19Result$LT$T$C$E$GT$6unwrap17h9ef8e219159c4cafE"(ptr sret(%"alloc::string::String") align 8 %t, ptr align 8 %self, ptr align 8 %0) unnamed_addr #1 personality ptr @rust_eh_personality !dbg !1354 {
start:
  %1 = alloca { ptr, i32 }, align 8
  %e = alloca %"alloc::string::FromUtf8Error", align 8
  call void @llvm.dbg.declare(metadata ptr %t, metadata !1376, metadata !DIExpression()), !dbg !1380
  call void @llvm.dbg.declare(metadata ptr %self, metadata !1375, metadata !DIExpression()), !dbg !1381
  call void @llvm.dbg.declare(metadata ptr %e, metadata !1378, metadata !DIExpression()), !dbg !1382
  %2 = load i64, ptr %self, align 8, !dbg !1383, !range !1384, !noundef !23
  %3 = icmp eq i64 %2, -9223372036854775808, !dbg !1383
  %_2 = select i1 %3, i64 0, i64 1, !dbg !1383
  %4 = icmp eq i64 %_2, 0, !dbg !1385
  br i1 %4, label %bb3, label %bb1, !dbg !1385

bb3:                                              ; preds = %start
  %5 = getelementptr inbounds %"core::result::Result<alloc::string::String, alloc::string::FromUtf8Error>::Ok", ptr %self, i32 0, i32 1, !dbg !1386
  call void @llvm.memcpy.p0.p0.i64(ptr align 8 %t, ptr align 8 %5, i64 24, i1 false), !dbg !1386
  ret void, !dbg !1387

bb1:                                              ; preds = %start
  call void @llvm.memcpy.p0.p0.i64(ptr align 8 %e, ptr align 8 %self, i64 40, i1 false), !dbg !1388
; invoke core::result::unwrap_failed
  invoke void @_ZN4core6result13unwrap_failed17h03d8a5018196e1cdE(ptr align 1 @alloc_00ae4b301f7fab8ac9617c03fcbd7274, i64 43, ptr align 1 %e, ptr align 8 @vtable.3, ptr align 8 %0) #13
          to label %unreachable unwind label %cleanup, !dbg !1389

bb4:                                              ; preds = %cleanup
; invoke core::ptr::drop_in_place<alloc::string::FromUtf8Error>
  invoke void @"_ZN4core3ptr49drop_in_place$LT$alloc..string..FromUtf8Error$GT$17h818b6a3bb05effa4E"(ptr align 8 %e) #14
          to label %bb5 unwind label %terminate, !dbg !1390

cleanup:                                          ; preds = %bb1
  %6 = landingpad { ptr, i32 }
          cleanup
  %7 = extractvalue { ptr, i32 } %6, 0
  %8 = extractvalue { ptr, i32 } %6, 1
  %9 = getelementptr inbounds { ptr, i32 }, ptr %1, i32 0, i32 0
  store ptr %7, ptr %9, align 8
  %10 = getelementptr inbounds { ptr, i32 }, ptr %1, i32 0, i32 1
  store i32 %8, ptr %10, align 8
  br label %bb4

unreachable:                                      ; preds = %bb1
  unreachable

terminate:                                        ; preds = %bb4
  %11 = landingpad { ptr, i32 }
          filter [0 x ptr] zeroinitializer
  %12 = extractvalue { ptr, i32 } %11, 0
  %13 = extractvalue { ptr, i32 } %11, 1
; call core::panicking::panic_in_cleanup
  call void @_ZN4core9panicking16panic_in_cleanup17h55eb1d85cadde1a1E() #15, !dbg !1391
  unreachable, !dbg !1391

bb5:                                              ; preds = %bb4
  %14 = load ptr, ptr %1, align 8, !dbg !1391, !noundef !23
  %15 = getelementptr inbounds { ptr, i32 }, ptr %1, i32 0, i32 1, !dbg !1391
  %16 = load i32, ptr %15, align 8, !dbg !1391, !noundef !23
  %17 = insertvalue { ptr, i32 } poison, ptr %14, 0, !dbg !1391
  %18 = insertvalue { ptr, i32 } %17, i32 %16, 1, !dbg !1391
  resume { ptr, i32 } %18, !dbg !1391

bb2:                                              ; No predecessors!
  unreachable, !dbg !1383
}

; core::result::Result<T,E>::unwrap_or
; Function Attrs: inlinehint nonlazybind uwtable
define internal i64 @"_ZN4core6result19Result$LT$T$C$E$GT$9unwrap_or17hb820dcbfdf8d494aE"(ptr align 8 %self, i64 %default) unnamed_addr #1 personality ptr @rust_eh_personality !dbg !1392 {
start:
  %0 = alloca { ptr, i32 }, align 8
  %t.dbg.spill = alloca i64, align 8
  %default.dbg.spill = alloca i64, align 8
  %_5 = alloca i8, align 1
  %_0 = alloca i64, align 8
  call void @llvm.dbg.declare(metadata ptr %self, metadata !1397, metadata !DIExpression()), !dbg !1401
  store i64 %default, ptr %default.dbg.spill, align 8
  call void @llvm.dbg.declare(metadata ptr %default.dbg.spill, metadata !1398, metadata !DIExpression()), !dbg !1402
  store i8 1, ptr %_5, align 1, !dbg !1403
  %_3 = load i64, ptr %self, align 8, !dbg !1403, !range !1267, !noundef !23
  %1 = icmp eq i64 %_3, 0, !dbg !1404
  br i1 %1, label %bb3, label %bb1, !dbg !1404

bb3:                                              ; preds = %start
  %2 = getelementptr inbounds %"core::result::Result<usize, std::io::error::Error>::Ok", ptr %self, i32 0, i32 1, !dbg !1405
  %t = load i64, ptr %2, align 8, !dbg !1405, !noundef !23
  store i64 %t, ptr %t.dbg.spill, align 8, !dbg !1405
  call void @llvm.dbg.declare(metadata ptr %t.dbg.spill, metadata !1399, metadata !DIExpression()), !dbg !1406
  store i64 %t, ptr %_0, align 8, !dbg !1407
  br label %bb8, !dbg !1408

bb1:                                              ; preds = %start
  store i8 0, ptr %_5, align 1, !dbg !1409
  store i64 %default, ptr %_0, align 8, !dbg !1409
  br label %bb8, !dbg !1409

bb8:                                              ; preds = %bb1, %bb3
  %3 = load i8, ptr %_5, align 1, !dbg !1410, !range !961, !noundef !23
  %4 = trunc i8 %3 to i1, !dbg !1410
  br i1 %4, label %bb7, label %bb4, !dbg !1410

bb4:                                              ; preds = %bb7, %bb8
  %_6 = load i64, ptr %self, align 8, !dbg !1410, !range !1267, !noundef !23
  %5 = icmp eq i64 %_6, 0, !dbg !1410
  br i1 %5, label %bb9, label %bb10, !dbg !1410

bb7:                                              ; preds = %bb8
  br label %bb4, !dbg !1410

bb9:                                              ; preds = %bb10, %bb4
  %6 = load i64, ptr %_0, align 8, !dbg !1411, !noundef !23
  ret i64 %6, !dbg !1411

bb10:                                             ; preds = %bb4
; call core::ptr::drop_in_place<core::result::Result<usize,std::io::error::Error>>
  call void @"_ZN4core3ptr78drop_in_place$LT$core..result..Result$LT$usize$C$std..io..error..Error$GT$$GT$17h0231909c43219edbE"(ptr align 8 %self), !dbg !1410
  br label %bb9, !dbg !1410

bb5:                                              ; No predecessors!
  %_7 = load i64, ptr %self, align 8, !dbg !1410, !range !1267, !noundef !23
  %7 = icmp eq i64 %_7, 0, !dbg !1410
  br i1 %7, label %bb6, label %bb11, !dbg !1410

bb6:                                              ; preds = %bb11, %bb5
  %8 = load ptr, ptr %0, align 8, !dbg !1412, !noundef !23
  %9 = getelementptr inbounds { ptr, i32 }, ptr %0, i32 0, i32 1, !dbg !1412
  %10 = load i32, ptr %9, align 8, !dbg !1412, !noundef !23
  %11 = insertvalue { ptr, i32 } poison, ptr %8, 0, !dbg !1412
  %12 = insertvalue { ptr, i32 } %11, i32 %10, 1, !dbg !1412
  resume { ptr, i32 } %12, !dbg !1412

bb11:                                             ; preds = %bb5
; invoke core::ptr::drop_in_place<core::result::Result<usize,std::io::error::Error>>
  invoke void @"_ZN4core3ptr78drop_in_place$LT$core..result..Result$LT$usize$C$std..io..error..Error$GT$$GT$17h0231909c43219edbE"(ptr align 8 %self) #14
          to label %bb6 unwind label %terminate, !dbg !1410

terminate:                                        ; preds = %bb11
  %13 = landingpad { ptr, i32 }
          filter [0 x ptr] zeroinitializer
  %14 = extractvalue { ptr, i32 } %13, 0
  %15 = extractvalue { ptr, i32 } %13, 1
; call core::panicking::panic_in_cleanup
  call void @_ZN4core9panicking16panic_in_cleanup17h55eb1d85cadde1a1E() #15, !dbg !1412
  unreachable, !dbg !1412

bb2:                                              ; No predecessors!
  unreachable, !dbg !1403
}

; curl::easy::handle::Transfer::read_function
; Function Attrs: nonlazybind uwtable
define internal void @_ZN4curl4easy6handle8Transfer13read_function17h7661ada4275f39eaE(ptr sret(%"core::result::Result<(), curl::error::Error>") align 8 %_0, ptr align 8 %self, ptr align 8 %f) unnamed_addr #2 personality ptr @rust_eh_personality !dbg !1413 {
start:
  %0 = alloca { ptr, i32 }, align 8
  %x.dbg.spill.i = alloca ptr, align 8
  %1 = alloca { ptr, i32 }, align 8
  %f.dbg.spill = alloca ptr, align 8
  %self.dbg.spill = alloca ptr, align 8
  %_3 = alloca { ptr, ptr }, align 8
  store ptr %self, ptr %self.dbg.spill, align 8
  call void @llvm.dbg.declare(metadata ptr %self.dbg.spill, metadata !1751, metadata !DIExpression()), !dbg !1753
  store ptr %f, ptr %f.dbg.spill, align 8
  call void @llvm.dbg.declare(metadata ptr %f.dbg.spill, metadata !1752, metadata !DIExpression()), !dbg !1754
  store ptr %f, ptr %x.dbg.spill.i, align 8
  call void @llvm.dbg.declare(metadata ptr %x.dbg.spill.i, metadata !1755, metadata !DIExpression()), !dbg !1764
; invoke alloc::alloc::exchange_malloc
  %_4.i = invoke ptr @_ZN5alloc5alloc15exchange_malloc17h68fb1f5661cc28baE(i64 8, i64 8)
          to label %"_ZN5alloc5boxed12Box$LT$T$GT$3new17h8cd3649426db1f36E.exit" unwind label %cleanup.i, !dbg !1766

cleanup.i:                                        ; preds = %start
  %2 = landingpad { ptr, i32 }
          cleanup
  %3 = extractvalue { ptr, i32 } %2, 0
  %4 = extractvalue { ptr, i32 } %2, 1
  store ptr %3, ptr %0, align 8
  %5 = getelementptr inbounds { ptr, i32 }, ptr %0, i32 0, i32 1
  store i32 %4, ptr %5, align 8
  %6 = load ptr, ptr %0, align 8, !dbg !1767, !noundef !23
  %7 = getelementptr inbounds { ptr, i32 }, ptr %0, i32 0, i32 1, !dbg !1767
  %8 = load i32, ptr %7, align 8, !dbg !1767, !noundef !23
  %9 = insertvalue { ptr, i32 } poison, ptr %6, 0, !dbg !1767
  %10 = insertvalue { ptr, i32 } %9, i32 %8, 1, !dbg !1767
  resume { ptr, i32 } %10, !dbg !1767

"_ZN5alloc5boxed12Box$LT$T$GT$3new17h8cd3649426db1f36E.exit": ; preds = %start
  store ptr %f, ptr %_4.i, align 8, !dbg !1768
  %11 = getelementptr inbounds { ptr, ptr }, ptr %_3, i32 0, i32 0, !dbg !1769
  store ptr %_4.i, ptr %11, align 8, !dbg !1769
  %12 = getelementptr inbounds { ptr, ptr }, ptr %_3, i32 0, i32 1, !dbg !1769
  store ptr @vtable.4, ptr %12, align 8, !dbg !1769
  %13 = getelementptr inbounds { ptr, ptr }, ptr %self, i32 0, i32 1, !dbg !1770
  %_6 = load ptr, ptr %13, align 8, !dbg !1770, !nonnull !23, !align !810, !noundef !23
  %14 = getelementptr inbounds %"curl::easy::handle::Callbacks<'_>", ptr %_6, i32 0, i32 1, !dbg !1770
; invoke core::ptr::drop_in_place<core::option::Option<alloc::boxed::Box<dyn core::ops::function::FnMut<(&mut [u8],)>+Output = core::result::Result<usize,curl::easy::handler::ReadError>>>>
  invoke void @"_ZN4core3ptr243drop_in_place$LT$core..option..Option$LT$alloc..boxed..Box$LT$dyn$u20$core..ops..function..FnMut$LT$$LP$$RF$mut$u20$$u5b$u8$u5d$$C$$RP$$GT$$u2b$Output$u20$$u3d$$u20$core..result..Result$LT$usize$C$curl..easy..handler..ReadError$GT$$GT$$GT$$GT$17hb45f2ac359af00baE"(ptr align 8 %14)
          to label %bb2 unwind label %cleanup, !dbg !1770

bb3:                                              ; preds = %cleanup
  %15 = getelementptr inbounds { ptr, ptr }, ptr %self, i32 0, i32 1, !dbg !1770
  %_8 = load ptr, ptr %15, align 8, !dbg !1770, !nonnull !23, !align !810, !noundef !23
  %_13 = ptrtoint ptr %_8 to i64, !dbg !1770
  %_16 = and i64 %_13, 7, !dbg !1770
  %_17 = icmp eq i64 %_16, 0, !dbg !1770
  %16 = call i1 @llvm.expect.i1(i1 %_17, i1 true), !dbg !1770
  br i1 %16, label %bb4, label %panic1, !dbg !1770

cleanup:                                          ; preds = %"_ZN5alloc5boxed12Box$LT$T$GT$3new17h8cd3649426db1f36E.exit"
  %17 = landingpad { ptr, i32 }
          cleanup
  %18 = extractvalue { ptr, i32 } %17, 0
  %19 = extractvalue { ptr, i32 } %17, 1
  %20 = getelementptr inbounds { ptr, i32 }, ptr %1, i32 0, i32 0
  store ptr %18, ptr %20, align 8
  %21 = getelementptr inbounds { ptr, i32 }, ptr %1, i32 0, i32 1
  store i32 %19, ptr %21, align 8
  br label %bb3

bb2:                                              ; preds = %"_ZN5alloc5boxed12Box$LT$T$GT$3new17h8cd3649426db1f36E.exit"
  %22 = getelementptr inbounds { ptr, ptr }, ptr %self, i32 0, i32 1, !dbg !1770
  %_7 = load ptr, ptr %22, align 8, !dbg !1770, !nonnull !23, !align !810, !noundef !23
  %_19 = ptrtoint ptr %_7 to i64, !dbg !1770
  %_22 = and i64 %_19, 7, !dbg !1770
  %_23 = icmp eq i64 %_22, 0, !dbg !1770
  %23 = call i1 @llvm.expect.i1(i1 %_23, i1 true), !dbg !1770
  br i1 %23, label %bb5, label %panic, !dbg !1770

bb5:                                              ; preds = %bb2
  %24 = getelementptr inbounds %"curl::easy::handle::Callbacks<'_>", ptr %_7, i32 0, i32 1, !dbg !1770
  %25 = getelementptr inbounds { ptr, ptr }, ptr %_3, i32 0, i32 0, !dbg !1770
  %26 = load ptr, ptr %25, align 8, !dbg !1770, !align !532, !noundef !23
  %27 = getelementptr inbounds { ptr, ptr }, ptr %_3, i32 0, i32 1, !dbg !1770
  %28 = load ptr, ptr %27, align 8, !dbg !1770
  %29 = getelementptr inbounds { ptr, ptr }, ptr %24, i32 0, i32 0, !dbg !1770
  store ptr %26, ptr %29, align 8, !dbg !1770
  %30 = getelementptr inbounds { ptr, ptr }, ptr %24, i32 0, i32 1, !dbg !1770
  store ptr %28, ptr %30, align 8, !dbg !1770
  store i64 0, ptr %_0, align 8, !dbg !1771
  ret void, !dbg !1772

panic:                                            ; preds = %bb2
; call core::panicking::panic_misaligned_pointer_dereference
  call void @_ZN4core9panicking36panic_misaligned_pointer_dereference17hb795539249e40c00E(i64 8, i64 %_19, ptr align 8 @alloc_8fd978eeda3c2c6f60aa9ee0971c1a2f) #16, !dbg !1770
  unreachable, !dbg !1770

bb4:                                              ; preds = %bb3
  %31 = getelementptr inbounds %"curl::easy::handle::Callbacks<'_>", ptr %_8, i32 0, i32 1, !dbg !1770
  %32 = getelementptr inbounds { ptr, ptr }, ptr %_3, i32 0, i32 0, !dbg !1770
  %33 = load ptr, ptr %32, align 8, !dbg !1770, !align !532, !noundef !23
  %34 = getelementptr inbounds { ptr, ptr }, ptr %_3, i32 0, i32 1, !dbg !1770
  %35 = load ptr, ptr %34, align 8, !dbg !1770
  %36 = getelementptr inbounds { ptr, ptr }, ptr %31, i32 0, i32 0, !dbg !1770
  store ptr %33, ptr %36, align 8, !dbg !1770
  %37 = getelementptr inbounds { ptr, ptr }, ptr %31, i32 0, i32 1, !dbg !1770
  store ptr %35, ptr %37, align 8, !dbg !1770
  %38 = load ptr, ptr %1, align 8, !dbg !1773, !noundef !23
  %39 = getelementptr inbounds { ptr, i32 }, ptr %1, i32 0, i32 1, !dbg !1773
  %40 = load i32, ptr %39, align 8, !dbg !1773, !noundef !23
  %41 = insertvalue { ptr, i32 } poison, ptr %38, 0, !dbg !1773
  %42 = insertvalue { ptr, i32 } %41, i32 %40, 1, !dbg !1773
  resume { ptr, i32 } %42, !dbg !1773

panic1:                                           ; preds = %bb3
; call core::panicking::panic_misaligned_pointer_dereference
  call void @_ZN4core9panicking36panic_misaligned_pointer_dereference17hb795539249e40c00E(i64 8, i64 %_13, ptr align 8 @alloc_8fd978eeda3c2c6f60aa9ee0971c1a2f) #15, !dbg !1770
  unreachable, !dbg !1770
}

; curl::easy::handle::Transfer::write_function
; Function Attrs: nonlazybind uwtable
define internal void @_ZN4curl4easy6handle8Transfer14write_function17h406d0541d69fc039E(ptr sret(%"core::result::Result<(), curl::error::Error>") align 8 %_0, ptr align 8 %self, ptr align 8 %f) unnamed_addr #2 personality ptr @rust_eh_personality !dbg !1774 {
start:
  %0 = alloca { ptr, i32 }, align 8
  %x.dbg.spill.i = alloca ptr, align 8
  %1 = alloca { ptr, i32 }, align 8
  %f.dbg.spill = alloca ptr, align 8
  %self.dbg.spill = alloca ptr, align 8
  %_3 = alloca { ptr, ptr }, align 8
  store ptr %self, ptr %self.dbg.spill, align 8
  call void @llvm.dbg.declare(metadata ptr %self.dbg.spill, metadata !1781, metadata !DIExpression()), !dbg !1783
  store ptr %f, ptr %f.dbg.spill, align 8
  call void @llvm.dbg.declare(metadata ptr %f.dbg.spill, metadata !1782, metadata !DIExpression()), !dbg !1784
  store ptr %f, ptr %x.dbg.spill.i, align 8
  call void @llvm.dbg.declare(metadata ptr %x.dbg.spill.i, metadata !1785, metadata !DIExpression()), !dbg !1791
; invoke alloc::alloc::exchange_malloc
  %_4.i = invoke ptr @_ZN5alloc5alloc15exchange_malloc17h68fb1f5661cc28baE(i64 8, i64 8)
          to label %"_ZN5alloc5boxed12Box$LT$T$GT$3new17h2bda41ddc25de2c4E.exit" unwind label %cleanup.i, !dbg !1793

cleanup.i:                                        ; preds = %start
  %2 = landingpad { ptr, i32 }
          cleanup
  %3 = extractvalue { ptr, i32 } %2, 0
  %4 = extractvalue { ptr, i32 } %2, 1
  store ptr %3, ptr %0, align 8
  %5 = getelementptr inbounds { ptr, i32 }, ptr %0, i32 0, i32 1
  store i32 %4, ptr %5, align 8
  %6 = load ptr, ptr %0, align 8, !dbg !1794, !noundef !23
  %7 = getelementptr inbounds { ptr, i32 }, ptr %0, i32 0, i32 1, !dbg !1794
  %8 = load i32, ptr %7, align 8, !dbg !1794, !noundef !23
  %9 = insertvalue { ptr, i32 } poison, ptr %6, 0, !dbg !1794
  %10 = insertvalue { ptr, i32 } %9, i32 %8, 1, !dbg !1794
  resume { ptr, i32 } %10, !dbg !1794

"_ZN5alloc5boxed12Box$LT$T$GT$3new17h2bda41ddc25de2c4E.exit": ; preds = %start
  store ptr %f, ptr %_4.i, align 8, !dbg !1795
  %11 = getelementptr inbounds { ptr, ptr }, ptr %_3, i32 0, i32 0, !dbg !1796
  store ptr %_4.i, ptr %11, align 8, !dbg !1796
  %12 = getelementptr inbounds { ptr, ptr }, ptr %_3, i32 0, i32 1, !dbg !1796
  store ptr @vtable.5, ptr %12, align 8, !dbg !1796
  %13 = getelementptr inbounds { ptr, ptr }, ptr %self, i32 0, i32 1, !dbg !1797
  %_6 = load ptr, ptr %13, align 8, !dbg !1797, !nonnull !23, !align !810, !noundef !23
; invoke core::ptr::drop_in_place<core::option::Option<alloc::boxed::Box<dyn core::ops::function::FnMut<(&[u8],)>+Output = core::result::Result<usize,curl::easy::handler::WriteError>>>>
  invoke void @"_ZN4core3ptr236drop_in_place$LT$core..option..Option$LT$alloc..boxed..Box$LT$dyn$u20$core..ops..function..FnMut$LT$$LP$$RF$$u5b$u8$u5d$$C$$RP$$GT$$u2b$Output$u20$$u3d$$u20$core..result..Result$LT$usize$C$curl..easy..handler..WriteError$GT$$GT$$GT$$GT$17h413150736357c798E"(ptr align 8 %_6)
          to label %bb2 unwind label %cleanup, !dbg !1797

bb3:                                              ; preds = %cleanup
  %14 = getelementptr inbounds { ptr, ptr }, ptr %self, i32 0, i32 1, !dbg !1797
  %_8 = load ptr, ptr %14, align 8, !dbg !1797, !nonnull !23, !align !810, !noundef !23
  %_13 = ptrtoint ptr %_8 to i64, !dbg !1797
  %_16 = and i64 %_13, 7, !dbg !1797
  %_17 = icmp eq i64 %_16, 0, !dbg !1797
  %15 = call i1 @llvm.expect.i1(i1 %_17, i1 true), !dbg !1797
  br i1 %15, label %bb4, label %panic1, !dbg !1797

cleanup:                                          ; preds = %"_ZN5alloc5boxed12Box$LT$T$GT$3new17h2bda41ddc25de2c4E.exit"
  %16 = landingpad { ptr, i32 }
          cleanup
  %17 = extractvalue { ptr, i32 } %16, 0
  %18 = extractvalue { ptr, i32 } %16, 1
  %19 = getelementptr inbounds { ptr, i32 }, ptr %1, i32 0, i32 0
  store ptr %17, ptr %19, align 8
  %20 = getelementptr inbounds { ptr, i32 }, ptr %1, i32 0, i32 1
  store i32 %18, ptr %20, align 8
  br label %bb3

bb2:                                              ; preds = %"_ZN5alloc5boxed12Box$LT$T$GT$3new17h2bda41ddc25de2c4E.exit"
  %21 = getelementptr inbounds { ptr, ptr }, ptr %self, i32 0, i32 1, !dbg !1797
  %_7 = load ptr, ptr %21, align 8, !dbg !1797, !nonnull !23, !align !810, !noundef !23
  %_19 = ptrtoint ptr %_7 to i64, !dbg !1797
  %_22 = and i64 %_19, 7, !dbg !1797
  %_23 = icmp eq i64 %_22, 0, !dbg !1797
  %22 = call i1 @llvm.expect.i1(i1 %_23, i1 true), !dbg !1797
  br i1 %22, label %bb5, label %panic, !dbg !1797

bb5:                                              ; preds = %bb2
  %23 = getelementptr inbounds { ptr, ptr }, ptr %_3, i32 0, i32 0, !dbg !1797
  %24 = load ptr, ptr %23, align 8, !dbg !1797, !align !532, !noundef !23
  %25 = getelementptr inbounds { ptr, ptr }, ptr %_3, i32 0, i32 1, !dbg !1797
  %26 = load ptr, ptr %25, align 8, !dbg !1797
  %27 = getelementptr inbounds { ptr, ptr }, ptr %_7, i32 0, i32 0, !dbg !1797
  store ptr %24, ptr %27, align 8, !dbg !1797
  %28 = getelementptr inbounds { ptr, ptr }, ptr %_7, i32 0, i32 1, !dbg !1797
  store ptr %26, ptr %28, align 8, !dbg !1797
  store i64 0, ptr %_0, align 8, !dbg !1798
  ret void, !dbg !1799

panic:                                            ; preds = %bb2
; call core::panicking::panic_misaligned_pointer_dereference
  call void @_ZN4core9panicking36panic_misaligned_pointer_dereference17hb795539249e40c00E(i64 8, i64 %_19, ptr align 8 @alloc_2c047e34fd2d73d31d823d5401e88054) #16, !dbg !1797
  unreachable, !dbg !1797

bb4:                                              ; preds = %bb3
  %29 = getelementptr inbounds { ptr, ptr }, ptr %_3, i32 0, i32 0, !dbg !1797
  %30 = load ptr, ptr %29, align 8, !dbg !1797, !align !532, !noundef !23
  %31 = getelementptr inbounds { ptr, ptr }, ptr %_3, i32 0, i32 1, !dbg !1797
  %32 = load ptr, ptr %31, align 8, !dbg !1797
  %33 = getelementptr inbounds { ptr, ptr }, ptr %_8, i32 0, i32 0, !dbg !1797
  store ptr %30, ptr %33, align 8, !dbg !1797
  %34 = getelementptr inbounds { ptr, ptr }, ptr %_8, i32 0, i32 1, !dbg !1797
  store ptr %32, ptr %34, align 8, !dbg !1797
  %35 = load ptr, ptr %1, align 8, !dbg !1800, !noundef !23
  %36 = getelementptr inbounds { ptr, i32 }, ptr %1, i32 0, i32 1, !dbg !1800
  %37 = load i32, ptr %36, align 8, !dbg !1800, !noundef !23
  %38 = insertvalue { ptr, i32 } poison, ptr %35, 0, !dbg !1800
  %39 = insertvalue { ptr, i32 } %38, i32 %37, 1, !dbg !1800
  resume { ptr, i32 } %39, !dbg !1800

panic1:                                           ; preds = %bb3
; call core::panicking::panic_misaligned_pointer_dereference
  call void @_ZN4core9panicking36panic_misaligned_pointer_dereference17hb795539249e40c00E(i64 8, i64 %_13, ptr align 8 @alloc_2c047e34fd2d73d31d823d5401e88054) #15, !dbg !1797
  unreachable, !dbg !1797
}

; <() as std::process::Termination>::report
; Function Attrs: inlinehint nonlazybind uwtable
define internal i8 @"_ZN54_$LT$$LP$$RP$$u20$as$u20$std..process..Termination$GT$6report17hda02f51c96950d2dE"() unnamed_addr #1 !dbg !1801 {
start:
  %_1.dbg.spill = alloca {}, align 1
  %self.dbg.spill = alloca {}, align 1
  call void @llvm.dbg.declare(metadata ptr %self.dbg.spill, metadata !1806, metadata !DIExpression()), !dbg !1808
  call void @llvm.dbg.declare(metadata ptr %_1.dbg.spill, metadata !1807, metadata !DIExpression()), !dbg !1808
  ret i8 0, !dbg !1809
}

; alloc::fmt::format
; Function Attrs: inlinehint nonlazybind uwtable
define internal void @_ZN5alloc3fmt6format17hb1153e1c8c7424e5E(ptr sret(%"alloc::string::String") align 8 %_0, ptr align 8 %args) unnamed_addr #1 !dbg !1810 {
start:
  %s.dbg.spill = alloca ptr, align 8
  %self.dbg.spill = alloca ptr, align 8
  %_4 = alloca ptr, align 8
  %_2 = alloca { ptr, i64 }, align 8
  call void @llvm.dbg.declare(metadata ptr %args, metadata !1816, metadata !DIExpression()), !dbg !1817
  store ptr %args, ptr %self.dbg.spill, align 8, !dbg !1818
  call void @llvm.dbg.declare(metadata ptr %self.dbg.spill, metadata !1819, metadata !DIExpression()), !dbg !1843
  %0 = getelementptr inbounds { ptr, i64 }, ptr %args, i32 0, i32 0, !dbg !1845
  %_6.0 = load ptr, ptr %0, align 8, !dbg !1845, !nonnull !23, !align !810, !noundef !23
  %1 = getelementptr inbounds { ptr, i64 }, ptr %args, i32 0, i32 1, !dbg !1845
  %_6.1 = load i64, ptr %1, align 8, !dbg !1845, !noundef !23
  %2 = getelementptr inbounds %"core::fmt::Arguments<'_>", ptr %args, i32 0, i32 1, !dbg !1846
  %3 = getelementptr inbounds { ptr, i64 }, ptr %2, i32 0, i32 0, !dbg !1846
  %_7.0 = load ptr, ptr %3, align 8, !dbg !1846, !nonnull !23, !align !810, !noundef !23
  %4 = getelementptr inbounds { ptr, i64 }, ptr %2, i32 0, i32 1, !dbg !1846
  %_7.1 = load i64, ptr %4, align 8, !dbg !1846, !noundef !23
  %5 = icmp eq i64 %_6.1, 0, !dbg !1847
  br i1 %5, label %bb3, label %bb5, !dbg !1847

bb3:                                              ; preds = %start
  %6 = icmp eq i64 %_7.1, 0, !dbg !1848
  br i1 %6, label %bb7, label %bb4, !dbg !1848

bb5:                                              ; preds = %start
  %7 = icmp eq i64 %_6.1, 1, !dbg !1849
  br i1 %7, label %bb6, label %bb4, !dbg !1849

bb7:                                              ; preds = %bb3
  %8 = getelementptr inbounds { ptr, i64 }, ptr %_2, i32 0, i32 0, !dbg !1850
  store ptr @alloc_513570631223a12912d85da2bec3b15a, ptr %8, align 8, !dbg !1850
  %9 = getelementptr inbounds { ptr, i64 }, ptr %_2, i32 0, i32 1, !dbg !1850
  store i64 0, ptr %9, align 8, !dbg !1850
  br label %bb2, !dbg !1851

bb4:                                              ; preds = %bb6, %bb5, %bb3
  store ptr null, ptr %_2, align 8, !dbg !1852
  br label %bb2, !dbg !1852

bb2:                                              ; preds = %bb4, %bb8, %bb7
  store ptr %args, ptr %_4, align 8, !dbg !1853
  %10 = getelementptr inbounds { ptr, i64 }, ptr %_2, i32 0, i32 0, !dbg !1818
  %11 = load ptr, ptr %10, align 8, !dbg !1818, !align !532, !noundef !23
  %12 = getelementptr inbounds { ptr, i64 }, ptr %_2, i32 0, i32 1, !dbg !1818
  %13 = load i64, ptr %12, align 8, !dbg !1818
  %14 = load ptr, ptr %_4, align 8, !dbg !1818, !nonnull !23, !align !810, !noundef !23
; call core::option::Option<T>::map_or_else
  call void @"_ZN4core6option15Option$LT$T$GT$11map_or_else17hfc08554b92b5aeb6E"(ptr sret(%"alloc::string::String") align 8 %_0, ptr align 1 %11, i64 %13, ptr align 8 %14), !dbg !1818
  ret void, !dbg !1854

bb6:                                              ; preds = %bb5
  %15 = icmp eq i64 %_7.1, 0, !dbg !1855
  br i1 %15, label %bb8, label %bb4, !dbg !1855

bb8:                                              ; preds = %bb6
  %s = getelementptr inbounds [0 x { ptr, i64 }], ptr %_6.0, i64 0, i64 0, !dbg !1856
  store ptr %s, ptr %s.dbg.spill, align 8, !dbg !1856
  call void @llvm.dbg.declare(metadata ptr %s.dbg.spill, metadata !1840, metadata !DIExpression()), !dbg !1857
  %16 = getelementptr inbounds [0 x { ptr, i64 }], ptr %_6.0, i64 0, i64 0, !dbg !1858
  %17 = getelementptr inbounds { ptr, i64 }, ptr %16, i32 0, i32 0, !dbg !1858
  %_14.0 = load ptr, ptr %17, align 8, !dbg !1858, !nonnull !23, !align !532, !noundef !23
  %18 = getelementptr inbounds { ptr, i64 }, ptr %16, i32 0, i32 1, !dbg !1858
  %_14.1 = load i64, ptr %18, align 8, !dbg !1858, !noundef !23
  %19 = getelementptr inbounds { ptr, i64 }, ptr %_2, i32 0, i32 0, !dbg !1859
  store ptr %_14.0, ptr %19, align 8, !dbg !1859
  %20 = getelementptr inbounds { ptr, i64 }, ptr %_2, i32 0, i32 1, !dbg !1859
  store i64 %_14.1, ptr %20, align 8, !dbg !1859
  br label %bb2, !dbg !1860
}

; alloc::alloc::exchange_malloc
; Function Attrs: inlinehint nonlazybind uwtable
define internal ptr @_ZN5alloc5alloc15exchange_malloc17h68fb1f5661cc28baE(i64 %size, i64 %align) unnamed_addr #1 !dbg !1861 {
start:
  %ptr.dbg.spill2 = alloca ptr, align 8
  %self.dbg.spill1 = alloca { ptr, i64 }, align 8
  %ptr.dbg.spill = alloca { ptr, i64 }, align 8
  %align.dbg.spill = alloca i64, align 8
  %size.dbg.spill = alloca i64, align 8
  %self = alloca ptr, align 8
  %_4 = alloca { ptr, i64 }, align 8
  %layout = alloca { i64, i64 }, align 8
  %self.dbg.spill = alloca ptr, align 8
  store ptr @alloc_513570631223a12912d85da2bec3b15a, ptr %self.dbg.spill, align 8, !dbg !1884
  call void @llvm.dbg.declare(metadata ptr %self.dbg.spill, metadata !1909, metadata !DIExpression()), !dbg !1884
  store i64 %size, ptr %size.dbg.spill, align 8, !dbg !1884
  call void @llvm.dbg.declare(metadata ptr %size.dbg.spill, metadata !1866, metadata !DIExpression()), !dbg !1912
  call void @llvm.dbg.declare(metadata ptr %size.dbg.spill, metadata !1913, metadata !DIExpression()), !dbg !1922
  store i64 %align, ptr %align.dbg.spill, align 8, !dbg !1884
  call void @llvm.dbg.declare(metadata ptr %align.dbg.spill, metadata !1867, metadata !DIExpression()), !dbg !1924
  call void @llvm.dbg.declare(metadata ptr %align.dbg.spill, metadata !1921, metadata !DIExpression()), !dbg !1925
  call void @llvm.dbg.declare(metadata ptr %align.dbg.spill, metadata !1926, metadata !DIExpression()), !dbg !1934
  call void @llvm.dbg.declare(metadata ptr %align.dbg.spill, metadata !1936, metadata !DIExpression()), !dbg !1947
  call void @llvm.dbg.declare(metadata ptr %align.dbg.spill, metadata !1949, metadata !DIExpression()), !dbg !1956
  call void @llvm.dbg.declare(metadata ptr %layout, metadata !1868, metadata !DIExpression()), !dbg !1958
  call void @llvm.dbg.declare(metadata ptr %layout, metadata !1910, metadata !DIExpression()), !dbg !1959
  call void @llvm.dbg.declare(metadata ptr %self, metadata !1960, metadata !DIExpression()), !dbg !1967
  %0 = getelementptr inbounds { i64, i64 }, ptr %layout, i32 0, i32 1, !dbg !1977
  store i64 %size, ptr %0, align 8, !dbg !1977
  store i64 %align, ptr %layout, align 8, !dbg !1977
  %1 = getelementptr inbounds { i64, i64 }, ptr %layout, i32 0, i32 0, !dbg !1978
  %2 = load i64, ptr %1, align 8, !dbg !1978, !range !1979, !noundef !23
  %3 = getelementptr inbounds { i64, i64 }, ptr %layout, i32 0, i32 1, !dbg !1978
  %4 = load i64, ptr %3, align 8, !dbg !1978, !noundef !23
; call alloc::alloc::Global::alloc_impl
  %5 = call { ptr, i64 } @_ZN5alloc5alloc6Global10alloc_impl17h5c9e1d3584af1fcaE(ptr align 1 @alloc_513570631223a12912d85da2bec3b15a, i64 %2, i64 %4, i1 zeroext false), !dbg !1978
  store { ptr, i64 } %5, ptr %_4, align 8, !dbg !1978
  %6 = load ptr, ptr %_4, align 8, !dbg !1980, !noundef !23
  %7 = ptrtoint ptr %6 to i64, !dbg !1980
  %8 = icmp eq i64 %7, 0, !dbg !1980
  %_5 = select i1 %8, i64 1, i64 0, !dbg !1980
  %9 = icmp eq i64 %_5, 0, !dbg !1981
  br i1 %9, label %bb3, label %bb1, !dbg !1981

bb3:                                              ; preds = %start
  %10 = getelementptr inbounds { ptr, i64 }, ptr %_4, i32 0, i32 0, !dbg !1982
  %ptr.0 = load ptr, ptr %10, align 8, !dbg !1982, !nonnull !23, !noundef !23
  %11 = getelementptr inbounds { ptr, i64 }, ptr %_4, i32 0, i32 1, !dbg !1982
  %ptr.1 = load i64, ptr %11, align 8, !dbg !1982, !noundef !23
  %12 = getelementptr inbounds { ptr, i64 }, ptr %ptr.dbg.spill, i32 0, i32 0, !dbg !1982
  store ptr %ptr.0, ptr %12, align 8, !dbg !1982
  %13 = getelementptr inbounds { ptr, i64 }, ptr %ptr.dbg.spill, i32 0, i32 1, !dbg !1982
  store i64 %ptr.1, ptr %13, align 8, !dbg !1982
  call void @llvm.dbg.declare(metadata ptr %ptr.dbg.spill, metadata !1879, metadata !DIExpression()), !dbg !1983
  call void @llvm.dbg.declare(metadata ptr %ptr.dbg.spill, metadata !1975, metadata !DIExpression()), !dbg !1984
  call void @llvm.dbg.declare(metadata ptr %ptr.dbg.spill, metadata !1985, metadata !DIExpression()), !dbg !1992
  call void @llvm.dbg.declare(metadata ptr %ptr.dbg.spill, metadata !1994, metadata !DIExpression()), !dbg !2005
  %14 = getelementptr inbounds { ptr, i64 }, ptr %self.dbg.spill1, i32 0, i32 0, !dbg !2007
  store ptr %ptr.0, ptr %14, align 8, !dbg !2007
  %15 = getelementptr inbounds { ptr, i64 }, ptr %self.dbg.spill1, i32 0, i32 1, !dbg !2007
  store i64 %ptr.1, ptr %15, align 8, !dbg !2007
  call void @llvm.dbg.declare(metadata ptr %self.dbg.spill1, metadata !2008, metadata !DIExpression()), !dbg !2015
  store ptr %ptr.0, ptr %ptr.dbg.spill2, align 8, !dbg !2017
  call void @llvm.dbg.declare(metadata ptr %ptr.dbg.spill2, metadata !2018, metadata !DIExpression()), !dbg !2022
  call void @llvm.dbg.declare(metadata ptr %ptr.dbg.spill2, metadata !2024, metadata !DIExpression()), !dbg !2029
  call void @llvm.dbg.declare(metadata ptr %ptr.dbg.spill2, metadata !2032, metadata !DIExpression()), !dbg !2036
  store ptr %ptr.0, ptr %self, align 8, !dbg !2038
  %_17 = load ptr, ptr %self, align 8, !dbg !2039, !noundef !23
  ret ptr %_17, !dbg !2040

bb1:                                              ; preds = %start
  %16 = getelementptr inbounds { i64, i64 }, ptr %layout, i32 0, i32 0, !dbg !2041
  %17 = load i64, ptr %16, align 8, !dbg !2041, !range !1979, !noundef !23
  %18 = getelementptr inbounds { i64, i64 }, ptr %layout, i32 0, i32 1, !dbg !2041
  %19 = load i64, ptr %18, align 8, !dbg !2041, !noundef !23
; call alloc::alloc::handle_alloc_error
  call void @_ZN5alloc5alloc18handle_alloc_error17h81706c48453a6249E(i64 %17, i64 %19) #13, !dbg !2041
  unreachable, !dbg !2041

bb2:                                              ; No predecessors!
  unreachable, !dbg !1980
}

; alloc::alloc::Global::alloc_impl
; Function Attrs: inlinehint nonlazybind uwtable
define internal { ptr, i64 } @_ZN5alloc5alloc6Global10alloc_impl17h5c9e1d3584af1fcaE(ptr align 1 %self, i64 %0, i64 %1, i1 zeroext %zeroed) unnamed_addr #1 !dbg !2042 {
start:
  %ptr.dbg.spill35 = alloca { ptr, i64 }, align 8
  %data_address.dbg.spill32 = alloca ptr, align 8
  %data.dbg.spill31 = alloca ptr, align 8
  %ptr.dbg.spill30 = alloca ptr, align 8
  %v.dbg.spill28 = alloca ptr, align 8
  %v.dbg.spill = alloca ptr, align 8
  %ptr.dbg.spill26 = alloca ptr, align 8
  %self.dbg.spill24 = alloca i64, align 8
  %self.dbg.spill22 = alloca ptr, align 8
  %self.dbg.spill21 = alloca ptr, align 8
  %self.dbg.spill20 = alloca i64, align 8
  %self.dbg.spill18 = alloca ptr, align 8
  %self.dbg.spill17 = alloca ptr, align 8
  %2 = alloca i8, align 1
  %ptr.dbg.spill16 = alloca { ptr, i64 }, align 8
  %data_address.dbg.spill = alloca ptr, align 8
  %data.dbg.spill = alloca ptr, align 8
  %ptr.dbg.spill15 = alloca ptr, align 8
  %addr.dbg.spill = alloca i64, align 8
  %self.dbg.spill14 = alloca i64, align 8
  %self.dbg.spill12 = alloca ptr, align 8
  %size.dbg.spill = alloca i64, align 8
  %self.dbg.spill11 = alloca ptr, align 8
  %zeroed.dbg.spill = alloca i8, align 1
  %self.dbg.spill6 = alloca ptr, align 8
  %_76 = alloca { ptr, i64 }, align 8
  %_75 = alloca %"core::ptr::metadata::PtrRepr<[u8]>", align 8
  %_62 = alloca ptr, align 8
  %_57 = alloca i64, align 8
  %_43 = alloca i64, align 8
  %_34 = alloca { ptr, i64 }, align 8
  %_33 = alloca %"core::ptr::metadata::PtrRepr<[u8]>", align 8
  %_22 = alloca i64, align 8
  %_18 = alloca { ptr, i64 }, align 8
  %self10 = alloca ptr, align 8
  %self9 = alloca ptr, align 8
  %_12 = alloca ptr, align 8
  %layout8 = alloca { i64, i64 }, align 8
  %layout7 = alloca { i64, i64 }, align 8
  %raw_ptr = alloca ptr, align 8
  %data = alloca ptr, align 8
  %_6 = alloca { ptr, i64 }, align 8
  %_0 = alloca { ptr, i64 }, align 8
  %layout = alloca { i64, i64 }, align 8
  %t.dbg.spill = alloca %"core::alloc::AllocError", align 1
  %e.dbg.spill5 = alloca %"core::alloc::AllocError", align 1
  %residual.dbg.spill4 = alloca %"core::result::Result<core::convert::Infallible, core::alloc::AllocError>::Err", align 1
  %e.dbg.spill = alloca %"core::alloc::AllocError", align 1
  %err.dbg.spill = alloca %"core::alloc::AllocError", align 1
  %self.dbg.spill3 = alloca ptr, align 8
  %self.dbg.spill = alloca ptr, align 8
  %ptr.dbg.spill = alloca ptr, align 8
  %src.dbg.spill2 = alloca ptr, align 8
  %src.dbg.spill = alloca ptr, align 8
  %metadata.dbg.spill = alloca i64, align 8
  %len.dbg.spill1 = alloca i64, align 8
  %len.dbg.spill = alloca i64, align 8
  %residual.dbg.spill = alloca %"core::result::Result<core::convert::Infallible, core::alloc::AllocError>::Err", align 1
  call void @llvm.dbg.declare(metadata ptr %residual.dbg.spill, metadata !2056, metadata !DIExpression()), !dbg !2078
  store i64 0, ptr %len.dbg.spill, align 8, !dbg !2079
  call void @llvm.dbg.declare(metadata ptr %len.dbg.spill, metadata !2087, metadata !DIExpression()), !dbg !2079
  store i64 0, ptr %len.dbg.spill1, align 8, !dbg !2092
  call void @llvm.dbg.declare(metadata ptr %len.dbg.spill1, metadata !2099, metadata !DIExpression()), !dbg !2092
  store i64 0, ptr %metadata.dbg.spill, align 8, !dbg !2104
  call void @llvm.dbg.declare(metadata ptr %metadata.dbg.spill, metadata !2112, metadata !DIExpression()), !dbg !2104
  store ptr @__rust_no_alloc_shim_is_unstable, ptr %src.dbg.spill, align 8, !dbg !2117
  call void @llvm.dbg.declare(metadata ptr %src.dbg.spill, metadata !2123, metadata !DIExpression()), !dbg !2117
  store ptr @__rust_no_alloc_shim_is_unstable, ptr %src.dbg.spill2, align 8, !dbg !2132
  call void @llvm.dbg.declare(metadata ptr %src.dbg.spill2, metadata !2140, metadata !DIExpression()), !dbg !2132
  store ptr @__rust_no_alloc_shim_is_unstable, ptr %ptr.dbg.spill, align 8, !dbg !2143
  call void @llvm.dbg.declare(metadata ptr %ptr.dbg.spill, metadata !2149, metadata !DIExpression()), !dbg !2143
  store ptr @__rust_no_alloc_shim_is_unstable, ptr %self.dbg.spill, align 8, !dbg !2151
  call void @llvm.dbg.declare(metadata ptr %self.dbg.spill, metadata !2155, metadata !DIExpression()), !dbg !2151
  store ptr @__rust_no_alloc_shim_is_unstable, ptr %self.dbg.spill3, align 8, !dbg !2157
  call void @llvm.dbg.declare(metadata ptr %self.dbg.spill3, metadata !2161, metadata !DIExpression()), !dbg !2157
  call void @llvm.dbg.declare(metadata ptr %err.dbg.spill, metadata !2163, metadata !DIExpression()), !dbg !2201
  call void @llvm.dbg.declare(metadata ptr %e.dbg.spill, metadata !2203, metadata !DIExpression()), !dbg !2231
  call void @llvm.dbg.declare(metadata ptr %residual.dbg.spill4, metadata !2233, metadata !DIExpression()), !dbg !2244
  call void @llvm.dbg.declare(metadata ptr %e.dbg.spill5, metadata !2240, metadata !DIExpression()), !dbg !2246
  call void @llvm.dbg.declare(metadata ptr %t.dbg.spill, metadata !2247, metadata !DIExpression()), !dbg !2257
  %3 = getelementptr inbounds { i64, i64 }, ptr %layout, i32 0, i32 0, !dbg !2257
  store i64 %0, ptr %3, align 8, !dbg !2257
  %4 = getelementptr inbounds { i64, i64 }, ptr %layout, i32 0, i32 1, !dbg !2257
  store i64 %1, ptr %4, align 8, !dbg !2257
  store ptr %self, ptr %self.dbg.spill6, align 8, !dbg !2257
  call void @llvm.dbg.declare(metadata ptr %self.dbg.spill6, metadata !2047, metadata !DIExpression()), !dbg !2259
  call void @llvm.dbg.declare(metadata ptr %layout, metadata !2048, metadata !DIExpression()), !dbg !2260
  %5 = zext i1 %zeroed to i8, !dbg !2257
  store i8 %5, ptr %zeroed.dbg.spill, align 1, !dbg !2257
  call void @llvm.dbg.declare(metadata ptr %zeroed.dbg.spill, metadata !2049, metadata !DIExpression()), !dbg !2261
  call void @llvm.dbg.declare(metadata ptr %data, metadata !2086, metadata !DIExpression()), !dbg !2262
  call void @llvm.dbg.declare(metadata ptr %data, metadata !2263, metadata !DIExpression()), !dbg !2269
  call void @llvm.dbg.declare(metadata ptr %raw_ptr, metadata !2052, metadata !DIExpression()), !dbg !2271
  call void @llvm.dbg.declare(metadata ptr %layout7, metadata !2272, metadata !DIExpression()), !dbg !2276
  call void @llvm.dbg.declare(metadata ptr %layout8, metadata !2130, metadata !DIExpression()), !dbg !2278
  call void @llvm.dbg.declare(metadata ptr %self9, metadata !2228, metadata !DIExpression()), !dbg !2279
  call void @llvm.dbg.declare(metadata ptr %self10, metadata !2198, metadata !DIExpression()), !dbg !2280
  store ptr %layout, ptr %self.dbg.spill11, align 8, !dbg !2281
  call void @llvm.dbg.declare(metadata ptr %self.dbg.spill11, metadata !2282, metadata !DIExpression()), !dbg !2294
  %6 = getelementptr inbounds { i64, i64 }, ptr %layout, i32 0, i32 1, !dbg !2296
  %size = load i64, ptr %6, align 8, !dbg !2296, !noundef !23
  store i64 %size, ptr %size.dbg.spill, align 8, !dbg !2296
  call void @llvm.dbg.declare(metadata ptr %size.dbg.spill, metadata !2050, metadata !DIExpression()), !dbg !2297
  call void @llvm.dbg.declare(metadata ptr %size.dbg.spill, metadata !2090, metadata !DIExpression()), !dbg !2298
  call void @llvm.dbg.declare(metadata ptr %size.dbg.spill, metadata !2102, metadata !DIExpression()), !dbg !2300
  call void @llvm.dbg.declare(metadata ptr %size.dbg.spill, metadata !2115, metadata !DIExpression()), !dbg !2302
  %7 = icmp eq i64 %size, 0, !dbg !2304
  br i1 %7, label %bb2, label %bb1, !dbg !2304

bb2:                                              ; preds = %start
  store ptr %layout, ptr %self.dbg.spill12, align 8, !dbg !2305
  call void @llvm.dbg.declare(metadata ptr %self.dbg.spill12, metadata !2306, metadata !DIExpression()), !dbg !2313
  call void @llvm.dbg.declare(metadata ptr %self.dbg.spill12, metadata !2315, metadata !DIExpression()), !dbg !2324
  %self13 = load i64, ptr %layout, align 8, !dbg !2326, !range !1979, !noundef !23
  store i64 %self13, ptr %self.dbg.spill14, align 8, !dbg !2326
  call void @llvm.dbg.declare(metadata ptr %self.dbg.spill14, metadata !2327, metadata !DIExpression()), !dbg !2338
  store i64 %self13, ptr %_22, align 8, !dbg !2340
  %_23 = load i64, ptr %_22, align 8, !dbg !2340, !range !1979, !noundef !23
  %_24 = icmp uge i64 %_23, 1, !dbg !2340
  %_25 = icmp ule i64 %_23, -9223372036854775808, !dbg !2340
  %_26 = and i1 %_24, %_25, !dbg !2340
  call void @llvm.assume(i1 %_26), !dbg !2340
  store i64 %_23, ptr %addr.dbg.spill, align 8, !dbg !2340
  call void @llvm.dbg.declare(metadata ptr %addr.dbg.spill, metadata !2341, metadata !DIExpression()), !dbg !2347
  %ptr = inttoptr i64 %_23 to ptr, !dbg !2349
  store ptr %ptr, ptr %ptr.dbg.spill15, align 8, !dbg !2349
  call void @llvm.dbg.declare(metadata ptr %ptr.dbg.spill15, metadata !2350, metadata !DIExpression()), !dbg !2356
  call void @llvm.dbg.declare(metadata ptr %ptr.dbg.spill15, metadata !2358, metadata !DIExpression()), !dbg !2366
  call void @llvm.dbg.declare(metadata ptr %ptr.dbg.spill15, metadata !2369, metadata !DIExpression()), !dbg !2377
  store ptr %ptr, ptr %data, align 8, !dbg !2379
  %_31 = load ptr, ptr %data, align 8, !dbg !2380, !noundef !23
  store ptr %_31, ptr %data.dbg.spill, align 8, !dbg !2380
  call void @llvm.dbg.declare(metadata ptr %data.dbg.spill, metadata !2098, metadata !DIExpression()), !dbg !2381
  call void @llvm.dbg.declare(metadata ptr %data.dbg.spill, metadata !2382, metadata !DIExpression()), !dbg !2400
  store ptr %_31, ptr %data_address.dbg.spill, align 8, !dbg !2402
  call void @llvm.dbg.declare(metadata ptr %data_address.dbg.spill, metadata !2111, metadata !DIExpression()), !dbg !2403
  store ptr %_31, ptr %_34, align 8, !dbg !2404
  %8 = getelementptr inbounds { ptr, i64 }, ptr %_34, i32 0, i32 1, !dbg !2404
  store i64 0, ptr %8, align 8, !dbg !2404
  %9 = getelementptr inbounds { ptr, i64 }, ptr %_34, i32 0, i32 0, !dbg !2405
  %10 = load ptr, ptr %9, align 8, !dbg !2405, !noundef !23
  %11 = getelementptr inbounds { ptr, i64 }, ptr %_34, i32 0, i32 1, !dbg !2405
  %12 = load i64, ptr %11, align 8, !dbg !2405, !noundef !23
  %13 = getelementptr inbounds { ptr, i64 }, ptr %_33, i32 0, i32 0, !dbg !2405
  store ptr %10, ptr %13, align 8, !dbg !2405
  %14 = getelementptr inbounds { ptr, i64 }, ptr %_33, i32 0, i32 1, !dbg !2405
  store i64 %12, ptr %14, align 8, !dbg !2405
  %15 = getelementptr inbounds { ptr, i64 }, ptr %_33, i32 0, i32 0, !dbg !2405
  %ptr.0 = load ptr, ptr %15, align 8, !dbg !2405, !noundef !23
  %16 = getelementptr inbounds { ptr, i64 }, ptr %_33, i32 0, i32 1, !dbg !2405
  %ptr.1 = load i64, ptr %16, align 8, !dbg !2405, !noundef !23
  %17 = getelementptr inbounds { ptr, i64 }, ptr %ptr.dbg.spill16, i32 0, i32 0, !dbg !2405
  store ptr %ptr.0, ptr %17, align 8, !dbg !2405
  %18 = getelementptr inbounds { ptr, i64 }, ptr %ptr.dbg.spill16, i32 0, i32 1, !dbg !2405
  store i64 %ptr.1, ptr %18, align 8, !dbg !2405
  call void @llvm.dbg.declare(metadata ptr %ptr.dbg.spill16, metadata !2406, metadata !DIExpression()), !dbg !2415
  call void @llvm.dbg.declare(metadata ptr %ptr.dbg.spill16, metadata !2417, metadata !DIExpression()), !dbg !2427
  call void @llvm.dbg.declare(metadata ptr %ptr.dbg.spill16, metadata !2430, metadata !DIExpression()), !dbg !2438
  %19 = getelementptr inbounds { ptr, i64 }, ptr %_6, i32 0, i32 0, !dbg !2440
  store ptr %ptr.0, ptr %19, align 8, !dbg !2440
  %20 = getelementptr inbounds { ptr, i64 }, ptr %_6, i32 0, i32 1, !dbg !2440
  store i64 %ptr.1, ptr %20, align 8, !dbg !2440
  %21 = getelementptr inbounds { ptr, i64 }, ptr %_6, i32 0, i32 0, !dbg !2441
  %22 = load ptr, ptr %21, align 8, !dbg !2441, !nonnull !23, !noundef !23
  %23 = getelementptr inbounds { ptr, i64 }, ptr %_6, i32 0, i32 1, !dbg !2441
  %24 = load i64, ptr %23, align 8, !dbg !2441, !noundef !23
  %25 = getelementptr inbounds { ptr, i64 }, ptr %_0, i32 0, i32 0, !dbg !2441
  store ptr %22, ptr %25, align 8, !dbg !2441
  %26 = getelementptr inbounds { ptr, i64 }, ptr %_0, i32 0, i32 1, !dbg !2441
  store i64 %24, ptr %26, align 8, !dbg !2441
  br label %bb9, !dbg !2442

bb1:                                              ; preds = %start
  br i1 %zeroed, label %bb3, label %bb4, !dbg !2443

bb9:                                              ; preds = %bb8, %bb6, %bb2
  %27 = getelementptr inbounds { ptr, i64 }, ptr %_0, i32 0, i32 0, !dbg !2444
  %28 = load ptr, ptr %27, align 8, !dbg !2444, !noundef !23
  %29 = getelementptr inbounds { ptr, i64 }, ptr %_0, i32 0, i32 1, !dbg !2444
  %30 = load i64, ptr %29, align 8, !dbg !2444
  %31 = insertvalue { ptr, i64 } poison, ptr %28, 0, !dbg !2444
  %32 = insertvalue { ptr, i64 } %31, i64 %30, 1, !dbg !2444
  ret { ptr, i64 } %32, !dbg !2444

bb4:                                              ; preds = %bb1
  %33 = getelementptr inbounds { i64, i64 }, ptr %layout, i32 0, i32 0, !dbg !2445
  %34 = load i64, ptr %33, align 8, !dbg !2445, !range !1979, !noundef !23
  %35 = getelementptr inbounds { i64, i64 }, ptr %layout, i32 0, i32 1, !dbg !2445
  %36 = load i64, ptr %35, align 8, !dbg !2445, !noundef !23
  %37 = getelementptr inbounds { i64, i64 }, ptr %layout8, i32 0, i32 0, !dbg !2445
  store i64 %34, ptr %37, align 8, !dbg !2445
  %38 = getelementptr inbounds { i64, i64 }, ptr %layout8, i32 0, i32 1, !dbg !2445
  store i64 %36, ptr %38, align 8, !dbg !2445
  %39 = load volatile i8, ptr @__rust_no_alloc_shim_is_unstable, align 1, !dbg !2446
  store i8 %39, ptr %2, align 1, !dbg !2446
  %_48 = load i8, ptr %2, align 1, !dbg !2446, !noundef !23
  store ptr %layout8, ptr %self.dbg.spill17, align 8, !dbg !2447
  call void @llvm.dbg.declare(metadata ptr %self.dbg.spill17, metadata !2292, metadata !DIExpression()), !dbg !2448
  %40 = getelementptr inbounds { i64, i64 }, ptr %layout8, i32 0, i32 1, !dbg !2450
  %_51 = load i64, ptr %40, align 8, !dbg !2450, !noundef !23
  store ptr %layout8, ptr %self.dbg.spill18, align 8, !dbg !2451
  call void @llvm.dbg.declare(metadata ptr %self.dbg.spill18, metadata !2322, metadata !DIExpression()), !dbg !2452
  %self19 = load i64, ptr %layout8, align 8, !dbg !2454, !range !1979, !noundef !23
  store i64 %self19, ptr %self.dbg.spill20, align 8, !dbg !2454
  call void @llvm.dbg.declare(metadata ptr %self.dbg.spill20, metadata !2336, metadata !DIExpression()), !dbg !2455
  store i64 %self19, ptr %_57, align 8, !dbg !2457
  %_58 = load i64, ptr %_57, align 8, !dbg !2457, !range !1979, !noundef !23
  %_59 = icmp uge i64 %_58, 1, !dbg !2457
  %_60 = icmp ule i64 %_58, -9223372036854775808, !dbg !2457
  %_61 = and i1 %_59, %_60, !dbg !2457
  call void @llvm.assume(i1 %_61), !dbg !2457
  %41 = call ptr @__rust_alloc(i64 %_51, i64 %_58) #17, !dbg !2458
  store ptr %41, ptr %raw_ptr, align 8, !dbg !2458
  br label %bb5, !dbg !2459

bb3:                                              ; preds = %bb1
  %42 = getelementptr inbounds { i64, i64 }, ptr %layout, i32 0, i32 0, !dbg !2460
  %43 = load i64, ptr %42, align 8, !dbg !2460, !range !1979, !noundef !23
  %44 = getelementptr inbounds { i64, i64 }, ptr %layout, i32 0, i32 1, !dbg !2460
  %45 = load i64, ptr %44, align 8, !dbg !2460, !noundef !23
  %46 = getelementptr inbounds { i64, i64 }, ptr %layout7, i32 0, i32 0, !dbg !2460
  store i64 %43, ptr %46, align 8, !dbg !2460
  %47 = getelementptr inbounds { i64, i64 }, ptr %layout7, i32 0, i32 1, !dbg !2460
  store i64 %45, ptr %47, align 8, !dbg !2460
  store ptr %layout7, ptr %self.dbg.spill21, align 8, !dbg !2461
  call void @llvm.dbg.declare(metadata ptr %self.dbg.spill21, metadata !2290, metadata !DIExpression()), !dbg !2462
  %48 = getelementptr inbounds { i64, i64 }, ptr %layout7, i32 0, i32 1, !dbg !2464
  %_38 = load i64, ptr %48, align 8, !dbg !2464, !noundef !23
  store ptr %layout7, ptr %self.dbg.spill22, align 8, !dbg !2465
  call void @llvm.dbg.declare(metadata ptr %self.dbg.spill22, metadata !2320, metadata !DIExpression()), !dbg !2466
  %self23 = load i64, ptr %layout7, align 8, !dbg !2468, !range !1979, !noundef !23
  store i64 %self23, ptr %self.dbg.spill24, align 8, !dbg !2468
  call void @llvm.dbg.declare(metadata ptr %self.dbg.spill24, metadata !2334, metadata !DIExpression()), !dbg !2469
  store i64 %self23, ptr %_43, align 8, !dbg !2471
  %_44 = load i64, ptr %_43, align 8, !dbg !2471, !range !1979, !noundef !23
  %_45 = icmp uge i64 %_44, 1, !dbg !2471
  %_46 = icmp ule i64 %_44, -9223372036854775808, !dbg !2471
  %_47 = and i1 %_45, %_46, !dbg !2471
  call void @llvm.assume(i1 %_47), !dbg !2471
  %49 = call ptr @__rust_alloc_zeroed(i64 %_38, i64 %_44) #17, !dbg !2472
  store ptr %49, ptr %raw_ptr, align 8, !dbg !2472
  br label %bb5, !dbg !2459

bb5:                                              ; preds = %bb3, %bb4
  %ptr25 = load ptr, ptr %raw_ptr, align 8, !dbg !2473, !noundef !23
  store ptr %ptr25, ptr %ptr.dbg.spill26, align 8, !dbg !2473
  call void @llvm.dbg.declare(metadata ptr %ptr.dbg.spill26, metadata !2474, metadata !DIExpression()), !dbg !2481
  call void @llvm.dbg.declare(metadata ptr %ptr.dbg.spill26, metadata !2373, metadata !DIExpression()), !dbg !2482
  call void @llvm.dbg.declare(metadata ptr %ptr.dbg.spill26, metadata !2484, metadata !DIExpression()), !dbg !2497
  call void @llvm.dbg.declare(metadata ptr %ptr.dbg.spill26, metadata !2499, metadata !DIExpression()), !dbg !2513
  call void @llvm.dbg.declare(metadata ptr %ptr.dbg.spill26, metadata !2392, metadata !DIExpression()), !dbg !2515
  call void @llvm.dbg.declare(metadata ptr %ptr.dbg.spill26, metadata !2354, metadata !DIExpression()), !dbg !2517
  call void @llvm.dbg.declare(metadata ptr %ptr.dbg.spill26, metadata !2363, metadata !DIExpression()), !dbg !2519
  call void @llvm.dbg.declare(metadata ptr %ptr.dbg.spill26, metadata !2375, metadata !DIExpression()), !dbg !2522
  %_63 = ptrtoint ptr %ptr25 to i64, !dbg !2524
  %50 = icmp eq i64 %_63, 0, !dbg !2525
  br i1 %50, label %bb14, label %bb15, !dbg !2525

bb14:                                             ; preds = %bb5
  store ptr null, ptr %self10, align 8, !dbg !2526
  br label %bb13, !dbg !2527

bb15:                                             ; preds = %bb5
  store ptr %ptr25, ptr %_62, align 8, !dbg !2528
  %51 = load ptr, ptr %_62, align 8, !dbg !2529, !nonnull !23, !noundef !23
  store ptr %51, ptr %self10, align 8, !dbg !2529
  br label %bb13, !dbg !2527

bb13:                                             ; preds = %bb15, %bb14
  %52 = load ptr, ptr %self10, align 8, !dbg !2530, !noundef !23
  %53 = ptrtoint ptr %52 to i64, !dbg !2530
  %54 = icmp eq i64 %53, 0, !dbg !2530
  %_67 = select i1 %54, i64 0, i64 1, !dbg !2530
  %55 = icmp eq i64 %_67, 0, !dbg !2531
  br i1 %55, label %bb16, label %bb17, !dbg !2531

bb16:                                             ; preds = %bb13
  store ptr null, ptr %self9, align 8, !dbg !2532
  br label %bb18, !dbg !2533

bb17:                                             ; preds = %bb13
  %v = load ptr, ptr %self10, align 8, !dbg !2534, !nonnull !23, !noundef !23
  store ptr %v, ptr %v.dbg.spill, align 8, !dbg !2534
  call void @llvm.dbg.declare(metadata ptr %v.dbg.spill, metadata !2199, metadata !DIExpression()), !dbg !2535
  store ptr %v, ptr %self9, align 8, !dbg !2536
  br label %bb18, !dbg !2537

bb18:                                             ; preds = %bb17, %bb16
  %56 = load ptr, ptr %self9, align 8, !dbg !2538, !noundef !23
  %57 = ptrtoint ptr %56 to i64, !dbg !2538
  %58 = icmp eq i64 %57, 0, !dbg !2538
  %_69 = select i1 %58, i64 1, i64 0, !dbg !2538
  %59 = icmp eq i64 %_69, 0, !dbg !2539
  br i1 %59, label %bb21, label %bb20, !dbg !2539

bb21:                                             ; preds = %bb18
  %v27 = load ptr, ptr %self9, align 8, !dbg !2540, !nonnull !23, !noundef !23
  store ptr %v27, ptr %v.dbg.spill28, align 8, !dbg !2540
  call void @llvm.dbg.declare(metadata ptr %v.dbg.spill28, metadata !2229, metadata !DIExpression()), !dbg !2541
  store ptr %v27, ptr %_12, align 8, !dbg !2542
  br label %bb19, !dbg !2543

bb20:                                             ; preds = %bb18
  store ptr null, ptr %_12, align 8, !dbg !2544
  br label %bb19, !dbg !2545

bb19:                                             ; preds = %bb20, %bb21
  %60 = load ptr, ptr %_12, align 8, !dbg !2232, !noundef !23
  %61 = ptrtoint ptr %60 to i64, !dbg !2232
  %62 = icmp eq i64 %61, 0, !dbg !2232
  %_16 = select i1 %62, i64 1, i64 0, !dbg !2232
  %63 = icmp eq i64 %_16, 0, !dbg !2232
  br i1 %63, label %bb6, label %bb8, !dbg !2232

bb6:                                              ; preds = %bb19
  %ptr29 = load ptr, ptr %_12, align 8, !dbg !2232, !nonnull !23, !noundef !23
  store ptr %ptr29, ptr %ptr.dbg.spill30, align 8, !dbg !2232
  call void @llvm.dbg.declare(metadata ptr %ptr.dbg.spill30, metadata !2054, metadata !DIExpression()), !dbg !2546
  call void @llvm.dbg.declare(metadata ptr %ptr.dbg.spill30, metadata !2076, metadata !DIExpression()), !dbg !2547
  call void @llvm.dbg.declare(metadata ptr %ptr.dbg.spill30, metadata !2088, metadata !DIExpression()), !dbg !2548
  call void @llvm.dbg.declare(metadata ptr %ptr.dbg.spill30, metadata !2267, metadata !DIExpression()), !dbg !2549
  store ptr %ptr29, ptr %data.dbg.spill31, align 8, !dbg !2551
  call void @llvm.dbg.declare(metadata ptr %data.dbg.spill31, metadata !2100, metadata !DIExpression()), !dbg !2552
  call void @llvm.dbg.declare(metadata ptr %data.dbg.spill31, metadata !2396, metadata !DIExpression()), !dbg !2553
  store ptr %ptr29, ptr %data_address.dbg.spill32, align 8, !dbg !2555
  call void @llvm.dbg.declare(metadata ptr %data_address.dbg.spill32, metadata !2113, metadata !DIExpression()), !dbg !2556
  store ptr %ptr29, ptr %_76, align 8, !dbg !2557
  %64 = getelementptr inbounds { ptr, i64 }, ptr %_76, i32 0, i32 1, !dbg !2557
  store i64 %size, ptr %64, align 8, !dbg !2557
  %65 = getelementptr inbounds { ptr, i64 }, ptr %_76, i32 0, i32 0, !dbg !2558
  %66 = load ptr, ptr %65, align 8, !dbg !2558, !noundef !23
  %67 = getelementptr inbounds { ptr, i64 }, ptr %_76, i32 0, i32 1, !dbg !2558
  %68 = load i64, ptr %67, align 8, !dbg !2558, !noundef !23
  %69 = getelementptr inbounds { ptr, i64 }, ptr %_75, i32 0, i32 0, !dbg !2558
  store ptr %66, ptr %69, align 8, !dbg !2558
  %70 = getelementptr inbounds { ptr, i64 }, ptr %_75, i32 0, i32 1, !dbg !2558
  store i64 %68, ptr %70, align 8, !dbg !2558
  %71 = getelementptr inbounds { ptr, i64 }, ptr %_75, i32 0, i32 0, !dbg !2558
  %ptr.033 = load ptr, ptr %71, align 8, !dbg !2558, !noundef !23
  %72 = getelementptr inbounds { ptr, i64 }, ptr %_75, i32 0, i32 1, !dbg !2558
  %ptr.134 = load i64, ptr %72, align 8, !dbg !2558, !noundef !23
  %73 = getelementptr inbounds { ptr, i64 }, ptr %ptr.dbg.spill35, i32 0, i32 0, !dbg !2558
  store ptr %ptr.033, ptr %73, align 8, !dbg !2558
  %74 = getelementptr inbounds { ptr, i64 }, ptr %ptr.dbg.spill35, i32 0, i32 1, !dbg !2558
  store i64 %ptr.134, ptr %74, align 8, !dbg !2558
  call void @llvm.dbg.declare(metadata ptr %ptr.dbg.spill35, metadata !2413, metadata !DIExpression()), !dbg !2559
  call void @llvm.dbg.declare(metadata ptr %ptr.dbg.spill35, metadata !2424, metadata !DIExpression()), !dbg !2561
  call void @llvm.dbg.declare(metadata ptr %ptr.dbg.spill35, metadata !2436, metadata !DIExpression()), !dbg !2564
  %75 = getelementptr inbounds { ptr, i64 }, ptr %_18, i32 0, i32 0, !dbg !2566
  store ptr %ptr.033, ptr %75, align 8, !dbg !2566
  %76 = getelementptr inbounds { ptr, i64 }, ptr %_18, i32 0, i32 1, !dbg !2566
  store i64 %ptr.134, ptr %76, align 8, !dbg !2566
  %77 = getelementptr inbounds { ptr, i64 }, ptr %_18, i32 0, i32 0, !dbg !2567
  %78 = load ptr, ptr %77, align 8, !dbg !2567, !nonnull !23, !noundef !23
  %79 = getelementptr inbounds { ptr, i64 }, ptr %_18, i32 0, i32 1, !dbg !2567
  %80 = load i64, ptr %79, align 8, !dbg !2567, !noundef !23
  %81 = getelementptr inbounds { ptr, i64 }, ptr %_0, i32 0, i32 0, !dbg !2567
  store ptr %78, ptr %81, align 8, !dbg !2567
  %82 = getelementptr inbounds { ptr, i64 }, ptr %_0, i32 0, i32 1, !dbg !2567
  store i64 %80, ptr %82, align 8, !dbg !2567
  br label %bb9, !dbg !2568

bb8:                                              ; preds = %bb19
  store ptr null, ptr %_0, align 8, !dbg !2569
  br label %bb9, !dbg !2444

bb7:                                              ; No predecessors!
  unreachable, !dbg !2232
}

; alloc::string::String::new
; Function Attrs: inlinehint nonlazybind uwtable
define internal void @_ZN5alloc6string6String3new17h70f5064c3e1e4b90E(ptr sret(%"alloc::string::String") align 8 %_0) unnamed_addr #1 !dbg !2570 {
start:
  %_1 = alloca %"alloc::vec::Vec<u8>", align 8
  %0 = getelementptr inbounds { i64, ptr }, ptr %_1, i32 0, i32 0, !dbg !2575
  store i64 0, ptr %0, align 8, !dbg !2575
  %1 = getelementptr inbounds { i64, ptr }, ptr %_1, i32 0, i32 1, !dbg !2575
  store ptr inttoptr (i64 1 to ptr), ptr %1, align 8, !dbg !2575
  %2 = getelementptr inbounds %"alloc::vec::Vec<u8>", ptr %_1, i32 0, i32 1, !dbg !2575
  store i64 0, ptr %2, align 8, !dbg !2575
  call void @llvm.memcpy.p0.p0.i64(ptr align 8 %_0, ptr align 8 %_1, i64 24, i1 false), !dbg !2583
  ret void, !dbg !2584
}

; alloc::string::String::as_bytes
; Function Attrs: inlinehint nonlazybind uwtable
define internal { ptr, i64 } @_ZN5alloc6string6String8as_bytes17h4b5e294da3139364E(ptr align 8 %self) unnamed_addr #1 !dbg !2585 {
start:
  %data_address.dbg.spill = alloca ptr, align 8
  %len.dbg.spill = alloca i64, align 8
  %data.dbg.spill = alloca ptr, align 8
  %self.dbg.spill4 = alloca ptr, align 8
  %self.dbg.spill2 = alloca ptr, align 8
  %self.dbg.spill1 = alloca ptr, align 8
  %self.dbg.spill = alloca ptr, align 8
  %_12 = alloca { ptr, i64 }, align 8
  %_11 = alloca %"core::ptr::metadata::PtrRepr<[u8]>", align 8
  store ptr %self, ptr %self.dbg.spill, align 8
  call void @llvm.dbg.declare(metadata ptr %self.dbg.spill, metadata !2591, metadata !DIExpression()), !dbg !2592
  store ptr %self, ptr %self.dbg.spill1, align 8, !dbg !2593
  call void @llvm.dbg.declare(metadata ptr %self.dbg.spill1, metadata !2594, metadata !DIExpression()), !dbg !2602
  call void @llvm.dbg.declare(metadata ptr %self.dbg.spill1, metadata !2603, metadata !DIExpression()), !dbg !2610
  store ptr %self, ptr %self.dbg.spill2, align 8, !dbg !2612
  call void @llvm.dbg.declare(metadata ptr %self.dbg.spill2, metadata !2613, metadata !DIExpression()), !dbg !2622
  %0 = getelementptr inbounds { i64, ptr }, ptr %self, i32 0, i32 1, !dbg !2624
  %self3 = load ptr, ptr %0, align 8, !dbg !2624, !nonnull !23, !noundef !23
  store ptr %self3, ptr %self.dbg.spill4, align 8, !dbg !2624
  call void @llvm.dbg.declare(metadata ptr %self.dbg.spill4, metadata !2625, metadata !DIExpression()), !dbg !2633
  call void @llvm.dbg.declare(metadata ptr %self.dbg.spill4, metadata !2635, metadata !DIExpression()), !dbg !2639
  store ptr %self3, ptr %data.dbg.spill, align 8, !dbg !2612
  call void @llvm.dbg.declare(metadata ptr %data.dbg.spill, metadata !2641, metadata !DIExpression()), !dbg !2646
  call void @llvm.dbg.declare(metadata ptr %data.dbg.spill, metadata !2648, metadata !DIExpression()), !dbg !2653
  call void @llvm.dbg.declare(metadata ptr %data.dbg.spill, metadata !2655, metadata !DIExpression()), !dbg !2659
  %1 = getelementptr inbounds %"alloc::vec::Vec<u8>", ptr %self, i32 0, i32 1, !dbg !2661
  %len = load i64, ptr %1, align 8, !dbg !2661, !noundef !23
  store i64 %len, ptr %len.dbg.spill, align 8, !dbg !2661
  call void @llvm.dbg.declare(metadata ptr %len.dbg.spill, metadata !2645, metadata !DIExpression()), !dbg !2662
  call void @llvm.dbg.declare(metadata ptr %len.dbg.spill, metadata !2652, metadata !DIExpression()), !dbg !2663
  call void @llvm.dbg.declare(metadata ptr %len.dbg.spill, metadata !2664, metadata !DIExpression()), !dbg !2669
  store ptr %self3, ptr %data_address.dbg.spill, align 8, !dbg !2671
  call void @llvm.dbg.declare(metadata ptr %data_address.dbg.spill, metadata !2668, metadata !DIExpression()), !dbg !2672
  store ptr %self3, ptr %_12, align 8, !dbg !2673
  %2 = getelementptr inbounds { ptr, i64 }, ptr %_12, i32 0, i32 1, !dbg !2673
  store i64 %len, ptr %2, align 8, !dbg !2673
  %3 = getelementptr inbounds { ptr, i64 }, ptr %_12, i32 0, i32 0, !dbg !2674
  %4 = load ptr, ptr %3, align 8, !dbg !2674, !noundef !23
  %5 = getelementptr inbounds { ptr, i64 }, ptr %_12, i32 0, i32 1, !dbg !2674
  %6 = load i64, ptr %5, align 8, !dbg !2674, !noundef !23
  %7 = getelementptr inbounds { ptr, i64 }, ptr %_11, i32 0, i32 0, !dbg !2674
  store ptr %4, ptr %7, align 8, !dbg !2674
  %8 = getelementptr inbounds { ptr, i64 }, ptr %_11, i32 0, i32 1, !dbg !2674
  store i64 %6, ptr %8, align 8, !dbg !2674
  %9 = getelementptr inbounds { ptr, i64 }, ptr %_11, i32 0, i32 0, !dbg !2674
  %_9.0 = load ptr, ptr %9, align 8, !dbg !2674, !noundef !23
  %10 = getelementptr inbounds { ptr, i64 }, ptr %_11, i32 0, i32 1, !dbg !2674
  %_9.1 = load i64, ptr %10, align 8, !dbg !2674, !noundef !23
  %11 = insertvalue { ptr, i64 } poison, ptr %_9.0, 0, !dbg !2675
  %12 = insertvalue { ptr, i64 } %11, i64 %_9.1, 1, !dbg !2675
  ret { ptr, i64 } %12, !dbg !2675
}

; alloc::string::String::push_str
; Function Attrs: inlinehint nonlazybind uwtable
define internal void @_ZN5alloc6string6String8push_str17h3c9d92059770328bE(ptr align 8 %self, ptr align 1 %string.0, i64 %string.1) unnamed_addr #1 !dbg !2676 {
start:
  %string.dbg.spill = alloca { ptr, i64 }, align 8
  %self.dbg.spill = alloca ptr, align 8
  store ptr %self, ptr %self.dbg.spill, align 8
  call void @llvm.dbg.declare(metadata ptr %self.dbg.spill, metadata !2681, metadata !DIExpression()), !dbg !2683
  %0 = getelementptr inbounds { ptr, i64 }, ptr %string.dbg.spill, i32 0, i32 0
  store ptr %string.0, ptr %0, align 8
  %1 = getelementptr inbounds { ptr, i64 }, ptr %string.dbg.spill, i32 0, i32 1
  store i64 %string.1, ptr %1, align 8
  call void @llvm.dbg.declare(metadata ptr %string.dbg.spill, metadata !2682, metadata !DIExpression()), !dbg !2684
  call void @llvm.dbg.declare(metadata ptr %string.dbg.spill, metadata !2685, metadata !DIExpression()), !dbg !2693
; call alloc::vec::Vec<T,A>::extend_from_slice
  call void @"_ZN5alloc3vec16Vec$LT$T$C$A$GT$17extend_from_slice17h21c091e49e1f91fcE"(ptr align 8 %self, ptr align 1 %string.0, i64 %string.1), !dbg !2695
  ret void, !dbg !2696
}

; alloc::string::String::from_utf8
; Function Attrs: inlinehint nonlazybind uwtable
define internal void @_ZN5alloc6string6String9from_utf817hd15e4530f805b08fE(ptr sret(%"core::result::Result<alloc::string::String, alloc::string::FromUtf8Error>") align 8 %_0, ptr align 8 %vec) unnamed_addr #1 personality ptr @rust_eh_personality !dbg !2697 {
start:
  %0 = alloca { ptr, i32 }, align 8
  %data_address.dbg.spill = alloca ptr, align 8
  %len.dbg.spill = alloca i64, align 8
  %data.dbg.spill = alloca ptr, align 8
  %self.dbg.spill2 = alloca ptr, align 8
  %self.dbg.spill1 = alloca ptr, align 8
  %self.dbg.spill = alloca ptr, align 8
  %_20 = alloca { ptr, i64 }, align 8
  %_19 = alloca %"core::ptr::metadata::PtrRepr<[u8]>", align 8
  %_10 = alloca %"alloc::vec::Vec<u8>", align 8
  %_9 = alloca %"alloc::string::FromUtf8Error", align 8
  %e = alloca %"core::str::error::Utf8Error", align 8
  %_7 = alloca %"alloc::vec::Vec<u8>", align 8
  %_6 = alloca %"alloc::string::String", align 8
  %_2 = alloca %"core::result::Result<&str, core::str::error::Utf8Error>", align 8
  call void @llvm.dbg.declare(metadata ptr %vec, metadata !2702, metadata !DIExpression()), !dbg !2705
  call void @llvm.dbg.declare(metadata ptr %e, metadata !2703, metadata !DIExpression()), !dbg !2706
  store ptr %vec, ptr %self.dbg.spill, align 8, !dbg !2707
  call void @llvm.dbg.declare(metadata ptr %self.dbg.spill, metadata !2708, metadata !DIExpression()), !dbg !2712
  call void @llvm.dbg.declare(metadata ptr %self.dbg.spill, metadata !2713, metadata !DIExpression()), !dbg !2717
  store ptr %vec, ptr %self.dbg.spill1, align 8, !dbg !2719
  call void @llvm.dbg.declare(metadata ptr %self.dbg.spill1, metadata !2720, metadata !DIExpression()), !dbg !2724
  %1 = getelementptr inbounds { i64, ptr }, ptr %vec, i32 0, i32 1, !dbg !2726
  %self = load ptr, ptr %1, align 8, !dbg !2726, !nonnull !23, !noundef !23
  store ptr %self, ptr %self.dbg.spill2, align 8, !dbg !2726
  call void @llvm.dbg.declare(metadata ptr %self.dbg.spill2, metadata !2727, metadata !DIExpression()), !dbg !2731
  call void @llvm.dbg.declare(metadata ptr %self.dbg.spill2, metadata !2733, metadata !DIExpression()), !dbg !2737
  store ptr %self, ptr %data.dbg.spill, align 8, !dbg !2719
  call void @llvm.dbg.declare(metadata ptr %data.dbg.spill, metadata !2739, metadata !DIExpression()), !dbg !2744
  call void @llvm.dbg.declare(metadata ptr %data.dbg.spill, metadata !2746, metadata !DIExpression()), !dbg !2751
  call void @llvm.dbg.declare(metadata ptr %data.dbg.spill, metadata !2753, metadata !DIExpression()), !dbg !2757
  %2 = getelementptr inbounds %"alloc::vec::Vec<u8>", ptr %vec, i32 0, i32 1, !dbg !2759
  %len = load i64, ptr %2, align 8, !dbg !2759, !noundef !23
  store i64 %len, ptr %len.dbg.spill, align 8, !dbg !2759
  call void @llvm.dbg.declare(metadata ptr %len.dbg.spill, metadata !2743, metadata !DIExpression()), !dbg !2760
  call void @llvm.dbg.declare(metadata ptr %len.dbg.spill, metadata !2750, metadata !DIExpression()), !dbg !2761
  call void @llvm.dbg.declare(metadata ptr %len.dbg.spill, metadata !2762, metadata !DIExpression()), !dbg !2767
  store ptr %self, ptr %data_address.dbg.spill, align 8, !dbg !2769
  call void @llvm.dbg.declare(metadata ptr %data_address.dbg.spill, metadata !2766, metadata !DIExpression()), !dbg !2770
  store ptr %self, ptr %_20, align 8, !dbg !2771
  %3 = getelementptr inbounds { ptr, i64 }, ptr %_20, i32 0, i32 1, !dbg !2771
  store i64 %len, ptr %3, align 8, !dbg !2771
  %4 = getelementptr inbounds { ptr, i64 }, ptr %_20, i32 0, i32 0, !dbg !2772
  %5 = load ptr, ptr %4, align 8, !dbg !2772, !noundef !23
  %6 = getelementptr inbounds { ptr, i64 }, ptr %_20, i32 0, i32 1, !dbg !2772
  %7 = load i64, ptr %6, align 8, !dbg !2772, !noundef !23
  %8 = getelementptr inbounds { ptr, i64 }, ptr %_19, i32 0, i32 0, !dbg !2772
  store ptr %5, ptr %8, align 8, !dbg !2772
  %9 = getelementptr inbounds { ptr, i64 }, ptr %_19, i32 0, i32 1, !dbg !2772
  store i64 %7, ptr %9, align 8, !dbg !2772
  %10 = getelementptr inbounds { ptr, i64 }, ptr %_19, i32 0, i32 0, !dbg !2772
  %_17.0 = load ptr, ptr %10, align 8, !dbg !2772, !noundef !23
  %11 = getelementptr inbounds { ptr, i64 }, ptr %_19, i32 0, i32 1, !dbg !2772
  %_17.1 = load i64, ptr %11, align 8, !dbg !2772, !noundef !23
; invoke core::str::converts::from_utf8
  invoke void @_ZN4core3str8converts9from_utf817hc5206d8edcf9d82eE(ptr sret(%"core::result::Result<&str, core::str::error::Utf8Error>") align 8 %_2, ptr align 1 %_17.0, i64 %_17.1)
          to label %bb1 unwind label %cleanup, !dbg !2773

bb6:                                              ; preds = %cleanup
; invoke core::ptr::drop_in_place<alloc::vec::Vec<u8>>
  invoke void @"_ZN4core3ptr46drop_in_place$LT$alloc..vec..Vec$LT$u8$GT$$GT$17h2f35760f366b608bE"(ptr align 8 %vec) #14
          to label %bb7 unwind label %terminate, !dbg !2774

cleanup:                                          ; preds = %start
  %12 = landingpad { ptr, i32 }
          cleanup
  %13 = extractvalue { ptr, i32 } %12, 0
  %14 = extractvalue { ptr, i32 } %12, 1
  %15 = getelementptr inbounds { ptr, i32 }, ptr %0, i32 0, i32 0
  store ptr %13, ptr %15, align 8
  %16 = getelementptr inbounds { ptr, i32 }, ptr %0, i32 0, i32 1
  store i32 %14, ptr %16, align 8
  br label %bb6

bb1:                                              ; preds = %start
  %_5 = load i64, ptr %_2, align 8, !dbg !2773, !range !1267, !noundef !23
  %17 = icmp eq i64 %_5, 0, !dbg !2775
  br i1 %17, label %bb4, label %bb2, !dbg !2775

bb4:                                              ; preds = %bb1
  call void @llvm.memcpy.p0.p0.i64(ptr align 8 %_7, ptr align 8 %vec, i64 24, i1 false), !dbg !2776
  call void @llvm.memcpy.p0.p0.i64(ptr align 8 %_6, ptr align 8 %_7, i64 24, i1 false), !dbg !2777
  %18 = getelementptr inbounds %"core::result::Result<alloc::string::String, alloc::string::FromUtf8Error>::Ok", ptr %_0, i32 0, i32 1, !dbg !2778
  call void @llvm.memcpy.p0.p0.i64(ptr align 8 %18, ptr align 8 %_6, i64 24, i1 false), !dbg !2778
  store i64 -9223372036854775808, ptr %_0, align 8, !dbg !2778
  br label %bb5, !dbg !2779

bb2:                                              ; preds = %bb1
  %19 = getelementptr inbounds %"core::result::Result<&str, core::str::error::Utf8Error>::Err", ptr %_2, i32 0, i32 1, !dbg !2780
  call void @llvm.memcpy.p0.p0.i64(ptr align 8 %e, ptr align 8 %19, i64 16, i1 false), !dbg !2780
  call void @llvm.memcpy.p0.p0.i64(ptr align 8 %_10, ptr align 8 %vec, i64 24, i1 false), !dbg !2781
  call void @llvm.memcpy.p0.p0.i64(ptr align 8 %_9, ptr align 8 %_10, i64 24, i1 false), !dbg !2782
  %20 = getelementptr inbounds %"alloc::string::FromUtf8Error", ptr %_9, i32 0, i32 1, !dbg !2782
  call void @llvm.memcpy.p0.p0.i64(ptr align 8 %20, ptr align 8 %e, i64 16, i1 false), !dbg !2782
  call void @llvm.memcpy.p0.p0.i64(ptr align 8 %_0, ptr align 8 %_9, i64 40, i1 false), !dbg !2783
  br label %bb5, !dbg !2784

bb5:                                              ; preds = %bb2, %bb4
  ret void, !dbg !2785

bb3:                                              ; No predecessors!
  unreachable, !dbg !2773

terminate:                                        ; preds = %bb6
  %21 = landingpad { ptr, i32 }
          filter [0 x ptr] zeroinitializer
  %22 = extractvalue { ptr, i32 } %21, 0
  %23 = extractvalue { ptr, i32 } %21, 1
; call core::panicking::panic_in_cleanup
  call void @_ZN4core9panicking16panic_in_cleanup17h55eb1d85cadde1a1E() #15, !dbg !2786
  unreachable, !dbg !2786

bb7:                                              ; preds = %bb6
  %24 = load ptr, ptr %0, align 8, !dbg !2786, !noundef !23
  %25 = getelementptr inbounds { ptr, i32 }, ptr %0, i32 0, i32 1, !dbg !2786
  %26 = load i32, ptr %25, align 8, !dbg !2786, !noundef !23
  %27 = insertvalue { ptr, i32 } poison, ptr %24, 0, !dbg !2786
  %28 = insertvalue { ptr, i32 } %27, i32 %26, 1, !dbg !2786
  resume { ptr, i32 } %28, !dbg !2786
}

; <alloc::string::String as core::fmt::Display>::fmt
; Function Attrs: inlinehint nonlazybind uwtable
define internal zeroext i1 @"_ZN60_$LT$alloc..string..String$u20$as$u20$core..fmt..Display$GT$3fmt17hacf8667f73c2533cE"(ptr align 8 %self, ptr align 8 %f) unnamed_addr #1 !dbg !2787 {
start:
  %v.dbg.spill = alloca { ptr, i64 }, align 8
  %data_address.dbg.spill = alloca ptr, align 8
  %len.dbg.spill = alloca i64, align 8
  %data.dbg.spill = alloca ptr, align 8
  %self.dbg.spill4 = alloca ptr, align 8
  %self.dbg.spill2 = alloca ptr, align 8
  %self.dbg.spill1 = alloca ptr, align 8
  %f.dbg.spill = alloca ptr, align 8
  %self.dbg.spill = alloca ptr, align 8
  %_15 = alloca { ptr, i64 }, align 8
  %_14 = alloca %"core::ptr::metadata::PtrRepr<[u8]>", align 8
  store ptr %self, ptr %self.dbg.spill, align 8
  call void @llvm.dbg.declare(metadata ptr %self.dbg.spill, metadata !2792, metadata !DIExpression()), !dbg !2794
  call void @llvm.dbg.declare(metadata ptr %self.dbg.spill, metadata !2795, metadata !DIExpression()), !dbg !2802
  store ptr %f, ptr %f.dbg.spill, align 8
  call void @llvm.dbg.declare(metadata ptr %f.dbg.spill, metadata !2793, metadata !DIExpression()), !dbg !2804
  store ptr %self, ptr %self.dbg.spill1, align 8, !dbg !2805
  call void @llvm.dbg.declare(metadata ptr %self.dbg.spill1, metadata !2806, metadata !DIExpression()), !dbg !2810
  call void @llvm.dbg.declare(metadata ptr %self.dbg.spill1, metadata !2811, metadata !DIExpression()), !dbg !2815
  store ptr %self, ptr %self.dbg.spill2, align 8, !dbg !2817
  call void @llvm.dbg.declare(metadata ptr %self.dbg.spill2, metadata !2818, metadata !DIExpression()), !dbg !2822
  %0 = getelementptr inbounds { i64, ptr }, ptr %self, i32 0, i32 1, !dbg !2824
  %self3 = load ptr, ptr %0, align 8, !dbg !2824, !nonnull !23, !noundef !23
  store ptr %self3, ptr %self.dbg.spill4, align 8, !dbg !2824
  call void @llvm.dbg.declare(metadata ptr %self.dbg.spill4, metadata !2825, metadata !DIExpression()), !dbg !2829
  call void @llvm.dbg.declare(metadata ptr %self.dbg.spill4, metadata !2831, metadata !DIExpression()), !dbg !2835
  store ptr %self3, ptr %data.dbg.spill, align 8, !dbg !2817
  call void @llvm.dbg.declare(metadata ptr %data.dbg.spill, metadata !2837, metadata !DIExpression()), !dbg !2842
  call void @llvm.dbg.declare(metadata ptr %data.dbg.spill, metadata !2844, metadata !DIExpression()), !dbg !2849
  call void @llvm.dbg.declare(metadata ptr %data.dbg.spill, metadata !2851, metadata !DIExpression()), !dbg !2855
  %1 = getelementptr inbounds %"alloc::vec::Vec<u8>", ptr %self, i32 0, i32 1, !dbg !2857
  %len = load i64, ptr %1, align 8, !dbg !2857, !noundef !23
  store i64 %len, ptr %len.dbg.spill, align 8, !dbg !2857
  call void @llvm.dbg.declare(metadata ptr %len.dbg.spill, metadata !2841, metadata !DIExpression()), !dbg !2858
  call void @llvm.dbg.declare(metadata ptr %len.dbg.spill, metadata !2848, metadata !DIExpression()), !dbg !2859
  call void @llvm.dbg.declare(metadata ptr %len.dbg.spill, metadata !2860, metadata !DIExpression()), !dbg !2865
  store ptr %self3, ptr %data_address.dbg.spill, align 8, !dbg !2867
  call void @llvm.dbg.declare(metadata ptr %data_address.dbg.spill, metadata !2864, metadata !DIExpression()), !dbg !2868
  store ptr %self3, ptr %_15, align 8, !dbg !2869
  %2 = getelementptr inbounds { ptr, i64 }, ptr %_15, i32 0, i32 1, !dbg !2869
  store i64 %len, ptr %2, align 8, !dbg !2869
  %3 = getelementptr inbounds { ptr, i64 }, ptr %_15, i32 0, i32 0, !dbg !2870
  %4 = load ptr, ptr %3, align 8, !dbg !2870, !noundef !23
  %5 = getelementptr inbounds { ptr, i64 }, ptr %_15, i32 0, i32 1, !dbg !2870
  %6 = load i64, ptr %5, align 8, !dbg !2870, !noundef !23
  %7 = getelementptr inbounds { ptr, i64 }, ptr %_14, i32 0, i32 0, !dbg !2870
  store ptr %4, ptr %7, align 8, !dbg !2870
  %8 = getelementptr inbounds { ptr, i64 }, ptr %_14, i32 0, i32 1, !dbg !2870
  store i64 %6, ptr %8, align 8, !dbg !2870
  %9 = getelementptr inbounds { ptr, i64 }, ptr %_14, i32 0, i32 0, !dbg !2870
  %v.0 = load ptr, ptr %9, align 8, !dbg !2870, !noundef !23
  %10 = getelementptr inbounds { ptr, i64 }, ptr %_14, i32 0, i32 1, !dbg !2870
  %v.1 = load i64, ptr %10, align 8, !dbg !2870, !noundef !23
  %11 = getelementptr inbounds { ptr, i64 }, ptr %v.dbg.spill, i32 0, i32 0, !dbg !2870
  store ptr %v.0, ptr %11, align 8, !dbg !2870
  %12 = getelementptr inbounds { ptr, i64 }, ptr %v.dbg.spill, i32 0, i32 1, !dbg !2870
  store i64 %v.1, ptr %12, align 8, !dbg !2870
  call void @llvm.dbg.declare(metadata ptr %v.dbg.spill, metadata !2871, metadata !DIExpression()), !dbg !2879
; call <str as core::fmt::Display>::fmt
  %_0 = call zeroext i1 @"_ZN42_$LT$str$u20$as$u20$core..fmt..Display$GT$3fmt17hdff585370e905cbdE"(ptr align 1 %v.0, i64 %v.1, ptr align 8 %f), !dbg !2881
  ret i1 %_0, !dbg !2882
}

; <I as core::iter::traits::collect::IntoIterator>::into_iter
; Function Attrs: inlinehint nonlazybind uwtable
define internal { ptr, ptr } @"_ZN63_$LT$I$u20$as$u20$core..iter..traits..collect..IntoIterator$GT$9into_iter17h37cf83a8d3d9d32dE"(ptr %self.0, ptr %self.1) unnamed_addr #1 !dbg !2883 {
start:
  %self.dbg.spill = alloca { ptr, ptr }, align 8
  %0 = getelementptr inbounds { ptr, ptr }, ptr %self.dbg.spill, i32 0, i32 0
  store ptr %self.0, ptr %0, align 8
  %1 = getelementptr inbounds { ptr, ptr }, ptr %self.dbg.spill, i32 0, i32 1
  store ptr %self.1, ptr %1, align 8
  call void @llvm.dbg.declare(metadata ptr %self.dbg.spill, metadata !2892, metadata !DIExpression()), !dbg !2894
  %2 = insertvalue { ptr, ptr } poison, ptr %self.0, 0, !dbg !2895
  %3 = insertvalue { ptr, ptr } %2, ptr %self.1, 1, !dbg !2895
  ret { ptr, ptr } %3, !dbg !2895
}

; <core::str::error::Utf8Error as core::fmt::Debug>::fmt
; Function Attrs: inlinehint nonlazybind uwtable
define internal zeroext i1 @"_ZN64_$LT$core..str..error..Utf8Error$u20$as$u20$core..fmt..Debug$GT$3fmt17hff7ffa0a6dec7f47E"(ptr align 8 %self, ptr align 8 %f) unnamed_addr #1 !dbg !2896 {
start:
  %f.dbg.spill = alloca ptr, align 8
  %self.dbg.spill = alloca ptr, align 8
  %_10 = alloca ptr, align 8
  store ptr %self, ptr %self.dbg.spill, align 8
  call void @llvm.dbg.declare(metadata ptr %self.dbg.spill, metadata !2902, metadata !DIExpression()), !dbg !2904
  store ptr %f, ptr %f.dbg.spill, align 8
  call void @llvm.dbg.declare(metadata ptr %f.dbg.spill, metadata !2903, metadata !DIExpression()), !dbg !2904
  %0 = getelementptr inbounds %"core::str::error::Utf8Error", ptr %self, i32 0, i32 1, !dbg !2905
  store ptr %0, ptr %_10, align 8, !dbg !2905
; call core::fmt::Formatter::debug_struct_field2_finish
  %_0 = call zeroext i1 @_ZN4core3fmt9Formatter26debug_struct_field2_finish17hc92cc99514a1f43aE(ptr align 8 %f, ptr align 1 @alloc_8e685ef482aec04a2d7a8ed5ef1228a3, i64 9, ptr align 1 @alloc_f34017a1538f19bf68b6d6294eec0bb3, i64 11, ptr align 1 %self, ptr align 8 @vtable.6, ptr align 1 @alloc_91eca80c47235190e5fbed3d6d8be36c, i64 9, ptr align 1 %_10, ptr align 8 @vtable.7), !dbg !2904
  ret i1 %_0, !dbg !2906
}

; <alloc::string::FromUtf8Error as core::fmt::Debug>::fmt
; Function Attrs: inlinehint nonlazybind uwtable
define internal zeroext i1 @"_ZN65_$LT$alloc..string..FromUtf8Error$u20$as$u20$core..fmt..Debug$GT$3fmt17h301cc7c2031c880cE"(ptr align 8 %self, ptr align 8 %f) unnamed_addr #1 !dbg !2907 {
start:
  %f.dbg.spill = alloca ptr, align 8
  %self.dbg.spill = alloca ptr, align 8
  %_10 = alloca ptr, align 8
  store ptr %self, ptr %self.dbg.spill, align 8
  call void @llvm.dbg.declare(metadata ptr %self.dbg.spill, metadata !2913, metadata !DIExpression()), !dbg !2915
  store ptr %f, ptr %f.dbg.spill, align 8
  call void @llvm.dbg.declare(metadata ptr %f.dbg.spill, metadata !2914, metadata !DIExpression()), !dbg !2915
  %0 = getelementptr inbounds %"alloc::string::FromUtf8Error", ptr %self, i32 0, i32 1, !dbg !2916
  store ptr %0, ptr %_10, align 8, !dbg !2916
; call core::fmt::Formatter::debug_struct_field2_finish
  %_0 = call zeroext i1 @_ZN4core3fmt9Formatter26debug_struct_field2_finish17hc92cc99514a1f43aE(ptr align 8 %f, ptr align 1 @alloc_b44d52c0728a956e7d16327f52693b58, i64 13, ptr align 1 @alloc_dd4ffb6a82fadbcfa53fa009063078f4, i64 5, ptr align 1 %self, ptr align 8 @vtable.8, ptr align 1 @alloc_3f7b77ecc8a3c421d9a84c3c3ee05b1c, i64 5, ptr align 1 %_10, ptr align 8 @vtable.9), !dbg !2915
  ret i1 %_0, !dbg !2917
}

; <alloc::string::String as core::ops::deref::Deref>::deref
; Function Attrs: inlinehint nonlazybind uwtable
define internal { ptr, i64 } @"_ZN65_$LT$alloc..string..String$u20$as$u20$core..ops..deref..Deref$GT$5deref17hce46c1a21cd81ac9E"(ptr align 8 %self) unnamed_addr #1 !dbg !2918 {
start:
  %v.dbg.spill = alloca { ptr, i64 }, align 8
  %data_address.dbg.spill = alloca ptr, align 8
  %len.dbg.spill = alloca i64, align 8
  %data.dbg.spill = alloca ptr, align 8
  %self.dbg.spill4 = alloca ptr, align 8
  %self.dbg.spill2 = alloca ptr, align 8
  %self.dbg.spill1 = alloca ptr, align 8
  %self.dbg.spill = alloca ptr, align 8
  %_13 = alloca { ptr, i64 }, align 8
  %_12 = alloca %"core::ptr::metadata::PtrRepr<[u8]>", align 8
  store ptr %self, ptr %self.dbg.spill, align 8
  call void @llvm.dbg.declare(metadata ptr %self.dbg.spill, metadata !2920, metadata !DIExpression()), !dbg !2921
  store ptr %self, ptr %self.dbg.spill1, align 8, !dbg !2922
  call void @llvm.dbg.declare(metadata ptr %self.dbg.spill1, metadata !2923, metadata !DIExpression()), !dbg !2927
  call void @llvm.dbg.declare(metadata ptr %self.dbg.spill1, metadata !2928, metadata !DIExpression()), !dbg !2932
  store ptr %self, ptr %self.dbg.spill2, align 8, !dbg !2934
  call void @llvm.dbg.declare(metadata ptr %self.dbg.spill2, metadata !2935, metadata !DIExpression()), !dbg !2939
  %0 = getelementptr inbounds { i64, ptr }, ptr %self, i32 0, i32 1, !dbg !2941
  %self3 = load ptr, ptr %0, align 8, !dbg !2941, !nonnull !23, !noundef !23
  store ptr %self3, ptr %self.dbg.spill4, align 8, !dbg !2941
  call void @llvm.dbg.declare(metadata ptr %self.dbg.spill4, metadata !2942, metadata !DIExpression()), !dbg !2946
  call void @llvm.dbg.declare(metadata ptr %self.dbg.spill4, metadata !2948, metadata !DIExpression()), !dbg !2952
  store ptr %self3, ptr %data.dbg.spill, align 8, !dbg !2934
  call void @llvm.dbg.declare(metadata ptr %data.dbg.spill, metadata !2954, metadata !DIExpression()), !dbg !2959
  call void @llvm.dbg.declare(metadata ptr %data.dbg.spill, metadata !2961, metadata !DIExpression()), !dbg !2966
  call void @llvm.dbg.declare(metadata ptr %data.dbg.spill, metadata !2968, metadata !DIExpression()), !dbg !2972
  %1 = getelementptr inbounds %"alloc::vec::Vec<u8>", ptr %self, i32 0, i32 1, !dbg !2974
  %len = load i64, ptr %1, align 8, !dbg !2974, !noundef !23
  store i64 %len, ptr %len.dbg.spill, align 8, !dbg !2974
  call void @llvm.dbg.declare(metadata ptr %len.dbg.spill, metadata !2958, metadata !DIExpression()), !dbg !2975
  call void @llvm.dbg.declare(metadata ptr %len.dbg.spill, metadata !2965, metadata !DIExpression()), !dbg !2976
  call void @llvm.dbg.declare(metadata ptr %len.dbg.spill, metadata !2977, metadata !DIExpression()), !dbg !2982
  store ptr %self3, ptr %data_address.dbg.spill, align 8, !dbg !2984
  call void @llvm.dbg.declare(metadata ptr %data_address.dbg.spill, metadata !2981, metadata !DIExpression()), !dbg !2985
  store ptr %self3, ptr %_13, align 8, !dbg !2986
  %2 = getelementptr inbounds { ptr, i64 }, ptr %_13, i32 0, i32 1, !dbg !2986
  store i64 %len, ptr %2, align 8, !dbg !2986
  %3 = getelementptr inbounds { ptr, i64 }, ptr %_13, i32 0, i32 0, !dbg !2987
  %4 = load ptr, ptr %3, align 8, !dbg !2987, !noundef !23
  %5 = getelementptr inbounds { ptr, i64 }, ptr %_13, i32 0, i32 1, !dbg !2987
  %6 = load i64, ptr %5, align 8, !dbg !2987, !noundef !23
  %7 = getelementptr inbounds { ptr, i64 }, ptr %_12, i32 0, i32 0, !dbg !2987
  store ptr %4, ptr %7, align 8, !dbg !2987
  %8 = getelementptr inbounds { ptr, i64 }, ptr %_12, i32 0, i32 1, !dbg !2987
  store i64 %6, ptr %8, align 8, !dbg !2987
  %9 = getelementptr inbounds { ptr, i64 }, ptr %_12, i32 0, i32 0, !dbg !2987
  %v.0 = load ptr, ptr %9, align 8, !dbg !2987, !noundef !23
  %10 = getelementptr inbounds { ptr, i64 }, ptr %_12, i32 0, i32 1, !dbg !2987
  %v.1 = load i64, ptr %10, align 8, !dbg !2987, !noundef !23
  %11 = getelementptr inbounds { ptr, i64 }, ptr %v.dbg.spill, i32 0, i32 0, !dbg !2987
  store ptr %v.0, ptr %11, align 8, !dbg !2987
  %12 = getelementptr inbounds { ptr, i64 }, ptr %v.dbg.spill, i32 0, i32 1, !dbg !2987
  store i64 %v.1, ptr %12, align 8, !dbg !2987
  call void @llvm.dbg.declare(metadata ptr %v.dbg.spill, metadata !2988, metadata !DIExpression()), !dbg !2992
  %13 = insertvalue { ptr, i64 } poison, ptr %v.0, 0, !dbg !2994
  %14 = insertvalue { ptr, i64 } %13, i64 %v.1, 1, !dbg !2994
  ret { ptr, i64 } %14, !dbg !2994
}

; <alloc::vec::Vec<T,A> as core::fmt::Debug>::fmt
; Function Attrs: nonlazybind uwtable
define internal zeroext i1 @"_ZN65_$LT$alloc..vec..Vec$LT$T$C$A$GT$$u20$as$u20$core..fmt..Debug$GT$3fmt17hdb990aae322cf3e5E"(ptr align 8 %self, ptr align 8 %f) unnamed_addr #2 !dbg !2995 {
start:
  %data_address.dbg.spill = alloca ptr, align 8
  %len.dbg.spill = alloca i64, align 8
  %data.dbg.spill = alloca ptr, align 8
  %self.dbg.spill3 = alloca ptr, align 8
  %self.dbg.spill1 = alloca ptr, align 8
  %f.dbg.spill = alloca ptr, align 8
  %self.dbg.spill = alloca ptr, align 8
  %_13 = alloca { ptr, i64 }, align 8
  %_12 = alloca %"core::ptr::metadata::PtrRepr<[u8]>", align 8
  store ptr %self, ptr %self.dbg.spill, align 8
  call void @llvm.dbg.declare(metadata ptr %self.dbg.spill, metadata !3000, metadata !DIExpression()), !dbg !3002
  call void @llvm.dbg.declare(metadata ptr %self.dbg.spill, metadata !3003, metadata !DIExpression()), !dbg !3007
  call void @llvm.dbg.declare(metadata ptr %self.dbg.spill, metadata !3009, metadata !DIExpression()), !dbg !3013
  store ptr %f, ptr %f.dbg.spill, align 8
  call void @llvm.dbg.declare(metadata ptr %f.dbg.spill, metadata !3001, metadata !DIExpression()), !dbg !3015
  store ptr %self, ptr %self.dbg.spill1, align 8, !dbg !3016
  call void @llvm.dbg.declare(metadata ptr %self.dbg.spill1, metadata !3017, metadata !DIExpression()), !dbg !3021
  %0 = getelementptr inbounds { i64, ptr }, ptr %self, i32 0, i32 1, !dbg !3023
  %self2 = load ptr, ptr %0, align 8, !dbg !3023, !nonnull !23, !noundef !23
  store ptr %self2, ptr %self.dbg.spill3, align 8, !dbg !3023
  call void @llvm.dbg.declare(metadata ptr %self.dbg.spill3, metadata !3024, metadata !DIExpression()), !dbg !3028
  call void @llvm.dbg.declare(metadata ptr %self.dbg.spill3, metadata !3030, metadata !DIExpression()), !dbg !3034
  store ptr %self2, ptr %data.dbg.spill, align 8, !dbg !3016
  call void @llvm.dbg.declare(metadata ptr %data.dbg.spill, metadata !3036, metadata !DIExpression()), !dbg !3041
  call void @llvm.dbg.declare(metadata ptr %data.dbg.spill, metadata !3043, metadata !DIExpression()), !dbg !3048
  call void @llvm.dbg.declare(metadata ptr %data.dbg.spill, metadata !3050, metadata !DIExpression()), !dbg !3054
  %1 = getelementptr inbounds %"alloc::vec::Vec<u8>", ptr %self, i32 0, i32 1, !dbg !3056
  %len = load i64, ptr %1, align 8, !dbg !3056, !noundef !23
  store i64 %len, ptr %len.dbg.spill, align 8, !dbg !3056
  call void @llvm.dbg.declare(metadata ptr %len.dbg.spill, metadata !3040, metadata !DIExpression()), !dbg !3057
  call void @llvm.dbg.declare(metadata ptr %len.dbg.spill, metadata !3047, metadata !DIExpression()), !dbg !3058
  call void @llvm.dbg.declare(metadata ptr %len.dbg.spill, metadata !3059, metadata !DIExpression()), !dbg !3064
  store ptr %self2, ptr %data_address.dbg.spill, align 8, !dbg !3066
  call void @llvm.dbg.declare(metadata ptr %data_address.dbg.spill, metadata !3063, metadata !DIExpression()), !dbg !3067
  store ptr %self2, ptr %_13, align 8, !dbg !3068
  %2 = getelementptr inbounds { ptr, i64 }, ptr %_13, i32 0, i32 1, !dbg !3068
  store i64 %len, ptr %2, align 8, !dbg !3068
  %3 = getelementptr inbounds { ptr, i64 }, ptr %_13, i32 0, i32 0, !dbg !3069
  %4 = load ptr, ptr %3, align 8, !dbg !3069, !noundef !23
  %5 = getelementptr inbounds { ptr, i64 }, ptr %_13, i32 0, i32 1, !dbg !3069
  %6 = load i64, ptr %5, align 8, !dbg !3069, !noundef !23
  %7 = getelementptr inbounds { ptr, i64 }, ptr %_12, i32 0, i32 0, !dbg !3069
  store ptr %4, ptr %7, align 8, !dbg !3069
  %8 = getelementptr inbounds { ptr, i64 }, ptr %_12, i32 0, i32 1, !dbg !3069
  store i64 %6, ptr %8, align 8, !dbg !3069
  %9 = getelementptr inbounds { ptr, i64 }, ptr %_12, i32 0, i32 0, !dbg !3069
  %_10.0 = load ptr, ptr %9, align 8, !dbg !3069, !noundef !23
  %10 = getelementptr inbounds { ptr, i64 }, ptr %_12, i32 0, i32 1, !dbg !3069
  %_10.1 = load i64, ptr %10, align 8, !dbg !3069, !noundef !23
; call <[T] as core::fmt::Debug>::fmt
  %_0 = call zeroext i1 @"_ZN48_$LT$$u5b$T$u5d$$u20$as$u20$core..fmt..Debug$GT$3fmt17hebe1025a4c25760cE"(ptr align 1 %_10.0, i64 %_10.1, ptr align 8 %f), !dbg !3070
  ret i1 %_0, !dbg !3071
}

; <alloc::string::String as core::convert::From<&str>>::from
; Function Attrs: inlinehint nonlazybind uwtable
define internal void @"_ZN76_$LT$alloc..string..String$u20$as$u20$core..convert..From$LT$$RF$str$GT$$GT$4from17hefb95da4582c6e08E"(ptr sret(%"alloc::string::String") align 8 %_0, ptr align 1 %s.0, i64 %s.1) unnamed_addr #1 !dbg !3072 {
start:
  %self.dbg.spill = alloca { ptr, i64 }, align 8
  %s.dbg.spill = alloca { ptr, i64 }, align 8
  %bytes = alloca %"alloc::vec::Vec<u8>", align 8
  %alloc.dbg.spill1 = alloca %"alloc::alloc::Global", align 1
  %alloc.dbg.spill = alloca %"alloc::alloc::Global", align 1
  call void @llvm.dbg.declare(metadata ptr %alloc.dbg.spill, metadata !3078, metadata !DIExpression()), !dbg !3088
  call void @llvm.dbg.declare(metadata ptr %alloc.dbg.spill1, metadata !3111, metadata !DIExpression()), !dbg !3117
  %0 = getelementptr inbounds { ptr, i64 }, ptr %s.dbg.spill, i32 0, i32 0, !dbg !3117
  store ptr %s.0, ptr %0, align 8, !dbg !3117
  %1 = getelementptr inbounds { ptr, i64 }, ptr %s.dbg.spill, i32 0, i32 1, !dbg !3117
  store i64 %s.1, ptr %1, align 8, !dbg !3117
  call void @llvm.dbg.declare(metadata ptr %s.dbg.spill, metadata !3077, metadata !DIExpression()), !dbg !3119
  call void @llvm.dbg.declare(metadata ptr %s.dbg.spill, metadata !3109, metadata !DIExpression()), !dbg !3120
  call void @llvm.dbg.declare(metadata ptr %s.dbg.spill, metadata !3121, metadata !DIExpression()), !dbg !3125
  call void @llvm.dbg.declare(metadata ptr %bytes, metadata !3127, metadata !DIExpression()), !dbg !3134
  %2 = getelementptr inbounds { ptr, i64 }, ptr %self.dbg.spill, i32 0, i32 0, !dbg !3136
  store ptr %s.0, ptr %2, align 8, !dbg !3136
  %3 = getelementptr inbounds { ptr, i64 }, ptr %self.dbg.spill, i32 0, i32 1, !dbg !3136
  store i64 %s.1, ptr %3, align 8, !dbg !3136
  call void @llvm.dbg.declare(metadata ptr %self.dbg.spill, metadata !3101, metadata !DIExpression()), !dbg !3137
  call void @llvm.dbg.declare(metadata ptr %self.dbg.spill, metadata !3095, metadata !DIExpression()), !dbg !3138
  call void @llvm.dbg.declare(metadata ptr %self.dbg.spill, metadata !3087, metadata !DIExpression()), !dbg !3139
  call void @llvm.dbg.declare(metadata ptr %self.dbg.spill, metadata !3116, metadata !DIExpression()), !dbg !3140
; call <T as alloc::slice::hack::ConvertVec>::to_vec
  call void @"_ZN52_$LT$T$u20$as$u20$alloc..slice..hack..ConvertVec$GT$6to_vec17h6017b9b5734a6d3eE"(ptr sret(%"alloc::vec::Vec<u8>") align 8 %bytes, ptr align 1 %s.0, i64 %s.1), !dbg !3141
  call void @llvm.memcpy.p0.p0.i64(ptr align 8 %_0, ptr align 8 %bytes, i64 24, i1 false), !dbg !3142
  ret void, !dbg !3143
}

; <alloc::vec::Vec<T> as core::convert::From<&[T]>>::from
; Function Attrs: nonlazybind uwtable
define internal void @"_ZN87_$LT$alloc..vec..Vec$LT$T$GT$$u20$as$u20$core..convert..From$LT$$RF$$u5b$T$u5d$$GT$$GT$4from17h0c72583e17bc9799E"(ptr sret(%"alloc::vec::Vec<u8>") align 8 %_0, ptr align 1 %s.0, i64 %s.1) unnamed_addr #2 !dbg !3144 {
start:
  %s.dbg.spill = alloca { ptr, i64 }, align 8
  %alloc.dbg.spill1 = alloca %"alloc::alloc::Global", align 1
  %alloc.dbg.spill = alloca %"alloc::alloc::Global", align 1
  call void @llvm.dbg.declare(metadata ptr %alloc.dbg.spill, metadata !3148, metadata !DIExpression()), !dbg !3153
  call void @llvm.dbg.declare(metadata ptr %alloc.dbg.spill1, metadata !3160, metadata !DIExpression()), !dbg !3165
  %0 = getelementptr inbounds { ptr, i64 }, ptr %s.dbg.spill, i32 0, i32 0, !dbg !3165
  store ptr %s.0, ptr %0, align 8, !dbg !3165
  %1 = getelementptr inbounds { ptr, i64 }, ptr %s.dbg.spill, i32 0, i32 1, !dbg !3165
  store i64 %s.1, ptr %1, align 8, !dbg !3165
  call void @llvm.dbg.declare(metadata ptr %s.dbg.spill, metadata !3147, metadata !DIExpression()), !dbg !3167
  call void @llvm.dbg.declare(metadata ptr %s.dbg.spill, metadata !3158, metadata !DIExpression()), !dbg !3168
  call void @llvm.dbg.declare(metadata ptr %s.dbg.spill, metadata !3152, metadata !DIExpression()), !dbg !3169
  call void @llvm.dbg.declare(metadata ptr %s.dbg.spill, metadata !3164, metadata !DIExpression()), !dbg !3170
; call <T as alloc::slice::hack::ConvertVec>::to_vec
  call void @"_ZN52_$LT$T$u20$as$u20$alloc..slice..hack..ConvertVec$GT$6to_vec17h6017b9b5734a6d3eE"(ptr sret(%"alloc::vec::Vec<u8>") align 8 %_0, ptr align 1 %s.0, i64 %s.1), !dbg !3171
  ret void, !dbg !3172
}

; function::make_rpc
; Function Attrs: nonlazybind uwtable
define internal void @_ZN8function8make_rpc17hef1d6fe3a3cc5315E(ptr sret(%"alloc::string::String") align 8 %_0, ptr align 1 %func_name.0, i64 %func_name.1, ptr align 8 %input) unnamed_addr #2 personality ptr @rust_eh_personality !dbg !3173 {
start:
  %0 = alloca { ptr, i32 }, align 8
  %func_name.dbg.spill = alloca { ptr, i64 }, align 8
  %_37 = alloca %"core::result::Result<(), curl::error::Error>", align 8
  %_34 = alloca ptr, align 8
  %_32 = alloca %"core::result::Result<(), curl::error::Error>", align 8
  %_29 = alloca ptr, align 8
  %_27 = alloca %"core::result::Result<(), curl::error::Error>", align 8
  %transfer = alloca { ptr, ptr }, align 8
  %html_data = alloca %"alloc::string::String", align 8
  %_18 = alloca %"core::result::Result<(), curl::error::Error>", align 8
  %_15 = alloca %"core::result::Result<(), curl::error::Error>", align 8
  %_10 = alloca %"core::result::Result<(), curl::error::Error>", align 8
  %input_to_be_sent = alloca { ptr, i64 }, align 8
  %url = alloca %"alloc::string::String", align 8
  %easy = alloca ptr, align 8
  %1 = getelementptr inbounds { ptr, i64 }, ptr %func_name.dbg.spill, i32 0, i32 0
  store ptr %func_name.0, ptr %1, align 8
  %2 = getelementptr inbounds { ptr, i64 }, ptr %func_name.dbg.spill, i32 0, i32 1
  store i64 %func_name.1, ptr %2, align 8
  call void @llvm.dbg.declare(metadata ptr %func_name.dbg.spill, metadata !3178, metadata !DIExpression()), !dbg !3190
  call void @llvm.dbg.declare(metadata ptr %input, metadata !3179, metadata !DIExpression()), !dbg !3191
  call void @llvm.dbg.declare(metadata ptr %easy, metadata !3180, metadata !DIExpression()), !dbg !3192
  call void @llvm.dbg.declare(metadata ptr %url, metadata !3182, metadata !DIExpression()), !dbg !3193
  call void @llvm.dbg.declare(metadata ptr %input_to_be_sent, metadata !3184, metadata !DIExpression()), !dbg !3194
  call void @llvm.dbg.declare(metadata ptr %html_data, metadata !3186, metadata !DIExpression()), !dbg !3195
  call void @llvm.dbg.declare(metadata ptr %transfer, metadata !3188, metadata !DIExpression()), !dbg !3196
; invoke curl::easy::handle::Easy::new
  %3 = invoke align 8 ptr @_ZN4curl4easy6handle4Easy3new17heef3e9e9934f7a65E()
          to label %bb1 unwind label %cleanup, !dbg !3197

bb28:                                             ; preds = %bb27, %cleanup
; invoke core::ptr::drop_in_place<alloc::string::String>
  invoke void @"_ZN4core3ptr42drop_in_place$LT$alloc..string..String$GT$17hbf8725459b59c8d8E"(ptr align 8 %input) #14
          to label %bb29 unwind label %terminate, !dbg !3198

cleanup:                                          ; preds = %bb21, %start
  %4 = landingpad { ptr, i32 }
          cleanup
  %5 = extractvalue { ptr, i32 } %4, 0
  %6 = extractvalue { ptr, i32 } %4, 1
  %7 = getelementptr inbounds { ptr, i32 }, ptr %0, i32 0, i32 0
  store ptr %5, ptr %7, align 8
  %8 = getelementptr inbounds { ptr, i32 }, ptr %0, i32 0, i32 1
  store i32 %6, ptr %8, align 8
  br label %bb28

bb1:                                              ; preds = %start
  store ptr %3, ptr %easy, align 8, !dbg !3197
; invoke <alloc::string::String as core::convert::From<&str>>::from
  invoke void @"_ZN76_$LT$alloc..string..String$u20$as$u20$core..convert..From$LT$$RF$str$GT$$GT$4from17hefb95da4582c6e08E"(ptr sret(%"alloc::string::String") align 8 %url, ptr align 1 @alloc_2ef598dc9082c9ddcafa2e64ff3d6270, i64 44)
          to label %bb2 unwind label %cleanup1, !dbg !3199

bb27:                                             ; preds = %bb26, %cleanup1
; invoke core::ptr::drop_in_place<curl::easy::handle::Easy>
  invoke void @"_ZN4core3ptr45drop_in_place$LT$curl..easy..handle..Easy$GT$17h49392bee866eba28E"(ptr align 8 %easy) #14
          to label %bb28 unwind label %terminate, !dbg !3198

cleanup1:                                         ; preds = %bb20, %bb1
  %9 = landingpad { ptr, i32 }
          cleanup
  %10 = extractvalue { ptr, i32 } %9, 0
  %11 = extractvalue { ptr, i32 } %9, 1
  %12 = getelementptr inbounds { ptr, i32 }, ptr %0, i32 0, i32 0
  store ptr %10, ptr %12, align 8
  %13 = getelementptr inbounds { ptr, i32 }, ptr %0, i32 0, i32 1
  store i32 %11, ptr %13, align 8
  br label %bb27

bb2:                                              ; preds = %bb1
; invoke alloc::string::String::as_bytes
  %14 = invoke { ptr, i64 } @_ZN5alloc6string6String8as_bytes17h4b5e294da3139364E(ptr align 8 %input)
          to label %bb3 unwind label %cleanup2, !dbg !3200

bb26:                                             ; preds = %bb25, %cleanup2
; invoke core::ptr::drop_in_place<alloc::string::String>
  invoke void @"_ZN4core3ptr42drop_in_place$LT$alloc..string..String$GT$17hbf8725459b59c8d8E"(ptr align 8 %url) #14
          to label %bb27 unwind label %terminate, !dbg !3201

cleanup2:                                         ; preds = %bb11, %bb10, %bb9, %bb8, %bb7, %bb6, %bb5, %bb4, %bb3, %bb2
  %15 = landingpad { ptr, i32 }
          cleanup
  %16 = extractvalue { ptr, i32 } %15, 0
  %17 = extractvalue { ptr, i32 } %15, 1
  %18 = getelementptr inbounds { ptr, i32 }, ptr %0, i32 0, i32 0
  store ptr %16, ptr %18, align 8
  %19 = getelementptr inbounds { ptr, i32 }, ptr %0, i32 0, i32 1
  store i32 %17, ptr %19, align 8
  br label %bb26

bb3:                                              ; preds = %bb2
  store { ptr, i64 } %14, ptr %input_to_be_sent, align 8, !dbg !3200
; invoke alloc::string::String::push_str
  invoke void @_ZN5alloc6string6String8push_str17h3c9d92059770328bE(ptr align 8 %url, ptr align 1 %func_name.0, i64 %func_name.1)
          to label %bb4 unwind label %cleanup2, !dbg !3202

bb4:                                              ; preds = %bb3
; invoke <alloc::string::String as core::ops::deref::Deref>::deref
  %20 = invoke { ptr, i64 } @"_ZN65_$LT$alloc..string..String$u20$as$u20$core..ops..deref..Deref$GT$5deref17hce46c1a21cd81ac9E"(ptr align 8 %url)
          to label %bb5 unwind label %cleanup2, !dbg !3203

bb5:                                              ; preds = %bb4
  %_12.0 = extractvalue { ptr, i64 } %20, 0, !dbg !3203
  %_12.1 = extractvalue { ptr, i64 } %20, 1, !dbg !3203
; invoke curl::easy::handle::Easy::url
  invoke void @_ZN4curl4easy6handle4Easy3url17hba28a22aec3dce82E(ptr sret(%"core::result::Result<(), curl::error::Error>") align 8 %_10, ptr align 8 %easy, ptr align 1 %_12.0, i64 %_12.1)
          to label %bb6 unwind label %cleanup2, !dbg !3204

bb6:                                              ; preds = %bb5
; invoke core::result::Result<T,E>::unwrap
  invoke void @"_ZN4core6result19Result$LT$T$C$E$GT$6unwrap17h102c4b02f7c8d1b4E"(ptr align 8 %_10, ptr align 8 @alloc_464672eac0368b08d31410f3c0760fd8)
          to label %bb7 unwind label %cleanup2, !dbg !3204

bb7:                                              ; preds = %bb6
; invoke curl::easy::handle::Easy::post
  invoke void @_ZN4curl4easy6handle4Easy4post17h151664bb4f2adcf6E(ptr sret(%"core::result::Result<(), curl::error::Error>") align 8 %_15, ptr align 8 %easy, i1 zeroext true)
          to label %bb8 unwind label %cleanup2, !dbg !3205

bb8:                                              ; preds = %bb7
; invoke core::result::Result<T,E>::unwrap
  invoke void @"_ZN4core6result19Result$LT$T$C$E$GT$6unwrap17h102c4b02f7c8d1b4E"(ptr align 8 %_15, ptr align 8 @alloc_a0c60a224dbc4c7175a354fb87e0c212)
          to label %bb9 unwind label %cleanup2, !dbg !3205

bb9:                                              ; preds = %bb8
  %21 = getelementptr inbounds { ptr, i64 }, ptr %input_to_be_sent, i32 0, i32 0, !dbg !3206
  %_22.0 = load ptr, ptr %21, align 8, !dbg !3206, !nonnull !23, !align !532, !noundef !23
  %22 = getelementptr inbounds { ptr, i64 }, ptr %input_to_be_sent, i32 0, i32 1, !dbg !3206
  %_22.1 = load i64, ptr %22, align 8, !dbg !3206, !noundef !23
; invoke curl::easy::handle::Easy::post_field_size
  invoke void @_ZN4curl4easy6handle4Easy15post_field_size17he493b7e02a33519aE(ptr sret(%"core::result::Result<(), curl::error::Error>") align 8 %_18, ptr align 8 %easy, i64 %_22.1)
          to label %bb10 unwind label %cleanup2, !dbg !3207

bb10:                                             ; preds = %bb9
; invoke core::result::Result<T,E>::unwrap
  invoke void @"_ZN4core6result19Result$LT$T$C$E$GT$6unwrap17h102c4b02f7c8d1b4E"(ptr align 8 %_18, ptr align 8 @alloc_a8b09a130890a03ed03108c1b4c5f98d)
          to label %bb11 unwind label %cleanup2, !dbg !3207

bb11:                                             ; preds = %bb10
; invoke alloc::string::String::new
  invoke void @_ZN5alloc6string6String3new17h70f5064c3e1e4b90E(ptr sret(%"alloc::string::String") align 8 %html_data)
          to label %bb12 unwind label %cleanup2, !dbg !3208

bb12:                                             ; preds = %bb11
; invoke curl::easy::handle::Easy::transfer
  %23 = invoke { ptr, ptr } @_ZN4curl4easy6handle4Easy8transfer17h358d71d032bf8b40E(ptr align 8 %easy)
          to label %bb13 unwind label %cleanup3, !dbg !3209

bb25:                                             ; preds = %bb24, %cleanup3
; invoke core::ptr::drop_in_place<alloc::string::String>
  invoke void @"_ZN4core3ptr42drop_in_place$LT$alloc..string..String$GT$17hbf8725459b59c8d8E"(ptr align 8 %html_data) #14
          to label %bb26 unwind label %terminate, !dbg !3210

cleanup3:                                         ; preds = %bb19, %bb12
  %24 = landingpad { ptr, i32 }
          cleanup
  %25 = extractvalue { ptr, i32 } %24, 0
  %26 = extractvalue { ptr, i32 } %24, 1
  %27 = getelementptr inbounds { ptr, i32 }, ptr %0, i32 0, i32 0
  store ptr %25, ptr %27, align 8
  %28 = getelementptr inbounds { ptr, i32 }, ptr %0, i32 0, i32 1
  store i32 %26, ptr %28, align 8
  br label %bb25

bb13:                                             ; preds = %bb12
  store { ptr, ptr } %23, ptr %transfer, align 8, !dbg !3209
  store ptr %input_to_be_sent, ptr %_29, align 8, !dbg !3211
  %29 = load ptr, ptr %_29, align 8, !dbg !3212, !nonnull !23, !align !810, !noundef !23
; invoke curl::easy::handle::Transfer::read_function
  invoke void @_ZN4curl4easy6handle8Transfer13read_function17h7661ada4275f39eaE(ptr sret(%"core::result::Result<(), curl::error::Error>") align 8 %_27, ptr align 8 %transfer, ptr align 8 %29)
          to label %bb14 unwind label %cleanup4, !dbg !3212

bb24:                                             ; preds = %cleanup4
; invoke core::ptr::drop_in_place<curl::easy::handle::Transfer>
  invoke void @"_ZN4core3ptr49drop_in_place$LT$curl..easy..handle..Transfer$GT$17hdc505b096d4ab9beE"(ptr align 8 %transfer) #14
          to label %bb25 unwind label %terminate, !dbg !3213

cleanup4:                                         ; preds = %bb18, %bb17, %bb16, %bb15, %bb14, %bb13
  %30 = landingpad { ptr, i32 }
          cleanup
  %31 = extractvalue { ptr, i32 } %30, 0
  %32 = extractvalue { ptr, i32 } %30, 1
  %33 = getelementptr inbounds { ptr, i32 }, ptr %0, i32 0, i32 0
  store ptr %31, ptr %33, align 8
  %34 = getelementptr inbounds { ptr, i32 }, ptr %0, i32 0, i32 1
  store i32 %32, ptr %34, align 8
  br label %bb24

bb14:                                             ; preds = %bb13
; invoke core::result::Result<T,E>::unwrap
  invoke void @"_ZN4core6result19Result$LT$T$C$E$GT$6unwrap17h102c4b02f7c8d1b4E"(ptr align 8 %_27, ptr align 8 @alloc_d80403cf90cd992fc61eb764d80f1758)
          to label %bb15 unwind label %cleanup4, !dbg !3212

bb15:                                             ; preds = %bb14
  store ptr %html_data, ptr %_34, align 8, !dbg !3214
  %35 = load ptr, ptr %_34, align 8, !dbg !3215, !nonnull !23, !align !810, !noundef !23
; invoke curl::easy::handle::Transfer::write_function
  invoke void @_ZN4curl4easy6handle8Transfer14write_function17h406d0541d69fc039E(ptr sret(%"core::result::Result<(), curl::error::Error>") align 8 %_32, ptr align 8 %transfer, ptr align 8 %35)
          to label %bb16 unwind label %cleanup4, !dbg !3215

bb16:                                             ; preds = %bb15
; invoke core::result::Result<T,E>::unwrap
  invoke void @"_ZN4core6result19Result$LT$T$C$E$GT$6unwrap17h102c4b02f7c8d1b4E"(ptr align 8 %_32, ptr align 8 @alloc_2615e20597967f6538549a976cdd56d6)
          to label %bb17 unwind label %cleanup4, !dbg !3215

bb17:                                             ; preds = %bb16
; invoke curl::easy::handle::Transfer::perform
  invoke void @_ZN4curl4easy6handle8Transfer7perform17hfed0c9232c3765e2E(ptr sret(%"core::result::Result<(), curl::error::Error>") align 8 %_37, ptr align 8 %transfer)
          to label %bb18 unwind label %cleanup4, !dbg !3216

bb18:                                             ; preds = %bb17
; invoke core::result::Result<T,E>::unwrap
  invoke void @"_ZN4core6result19Result$LT$T$C$E$GT$6unwrap17h102c4b02f7c8d1b4E"(ptr align 8 %_37, ptr align 8 @alloc_e14599dc5ae7f3506fb5a68d6af26bf2)
          to label %bb19 unwind label %cleanup4, !dbg !3216

bb19:                                             ; preds = %bb18
; invoke core::ptr::drop_in_place<curl::easy::handle::Transfer>
  invoke void @"_ZN4core3ptr49drop_in_place$LT$curl..easy..handle..Transfer$GT$17hdc505b096d4ab9beE"(ptr align 8 %transfer)
          to label %bb20 unwind label %cleanup3, !dbg !3213

bb20:                                             ; preds = %bb19
  call void @llvm.memcpy.p0.p0.i64(ptr align 8 %_0, ptr align 8 %html_data, i64 24, i1 false), !dbg !3217
; invoke core::ptr::drop_in_place<alloc::string::String>
  invoke void @"_ZN4core3ptr42drop_in_place$LT$alloc..string..String$GT$17hbf8725459b59c8d8E"(ptr align 8 %url)
          to label %bb21 unwind label %cleanup1, !dbg !3201

bb21:                                             ; preds = %bb20
; invoke core::ptr::drop_in_place<curl::easy::handle::Easy>
  invoke void @"_ZN4core3ptr45drop_in_place$LT$curl..easy..handle..Easy$GT$17h49392bee866eba28E"(ptr align 8 %easy)
          to label %bb22 unwind label %cleanup, !dbg !3198

bb22:                                             ; preds = %bb21
; call core::ptr::drop_in_place<alloc::string::String>
  call void @"_ZN4core3ptr42drop_in_place$LT$alloc..string..String$GT$17hbf8725459b59c8d8E"(ptr align 8 %input), !dbg !3198
  ret void, !dbg !3218

terminate:                                        ; preds = %bb28, %bb27, %bb26, %bb25, %bb24
  %36 = landingpad { ptr, i32 }
          filter [0 x ptr] zeroinitializer
  %37 = extractvalue { ptr, i32 } %36, 0
  %38 = extractvalue { ptr, i32 } %36, 1
; call core::panicking::panic_in_cleanup
  call void @_ZN4core9panicking16panic_in_cleanup17h55eb1d85cadde1a1E() #15, !dbg !3219
  unreachable, !dbg !3219

bb29:                                             ; preds = %bb28
  %39 = load ptr, ptr %0, align 8, !dbg !3219, !noundef !23
  %40 = getelementptr inbounds { ptr, i32 }, ptr %0, i32 0, i32 1, !dbg !3219
  %41 = load i32, ptr %40, align 8, !dbg !3219, !noundef !23
  %42 = insertvalue { ptr, i32 } poison, ptr %39, 0, !dbg !3219
  %43 = insertvalue { ptr, i32 } %42, i32 %41, 1, !dbg !3219
  resume { ptr, i32 } %43, !dbg !3219
}

; function::make_rpc::{{closure}}
; Function Attrs: inlinehint nonlazybind uwtable
define internal void @"_ZN8function8make_rpc28_$u7b$$u7b$closure$u7d$$u7d$17h2d67a53dfc92a376E"(ptr sret(%"core::result::Result<usize, curl::easy::handler::ReadError>") align 8 %_0, ptr align 8 %_1, ptr align 1 %buf.0, i64 %buf.1) unnamed_addr #1 !dbg !3220 {
start:
  %buf.dbg.spill = alloca { ptr, i64 }, align 8
  %_1.dbg.spill = alloca ptr, align 8
  %_4 = alloca %"core::result::Result<usize, std::io::error::Error>", align 8
  store ptr %_1, ptr %_1.dbg.spill, align 8
  call void @llvm.dbg.declare(metadata ptr %_1.dbg.spill, metadata !3226, metadata !DIExpression(DW_OP_deref, DW_OP_deref)), !dbg !3227
  %0 = getelementptr inbounds { ptr, i64 }, ptr %buf.dbg.spill, i32 0, i32 0
  store ptr %buf.0, ptr %0, align 8
  %1 = getelementptr inbounds { ptr, i64 }, ptr %buf.dbg.spill, i32 0, i32 1
  store i64 %buf.1, ptr %1, align 8
  call void @llvm.dbg.declare(metadata ptr %buf.dbg.spill, metadata !3225, metadata !DIExpression()), !dbg !3228
  %_5 = load ptr, ptr %_1, align 8, !dbg !3229, !nonnull !23, !align !810, !noundef !23
; call std::io::impls::<impl std::io::Read for &[u8]>::read
  call void @"_ZN3std2io5impls60_$LT$impl$u20$std..io..Read$u20$for$u20$$RF$$u5b$u8$u5d$$GT$4read17h408fc840a3c5fe98E"(ptr sret(%"core::result::Result<usize, std::io::error::Error>") align 8 %_4, ptr align 8 %_5, ptr align 1 %buf.0, i64 %buf.1), !dbg !3229
; call core::result::Result<T,E>::unwrap_or
  %_3 = call i64 @"_ZN4core6result19Result$LT$T$C$E$GT$9unwrap_or17hb820dcbfdf8d494aE"(ptr align 8 %_4, i64 0), !dbg !3229
  %2 = getelementptr inbounds %"core::result::Result<usize, curl::easy::handler::ReadError>::Ok", ptr %_0, i32 0, i32 1, !dbg !3230
  store i64 %_3, ptr %2, align 8, !dbg !3230
  store i8 0, ptr %_0, align 8, !dbg !3230
  ret void, !dbg !3231
}

; function::make_rpc::{{closure}}
; Function Attrs: inlinehint nonlazybind uwtable
define internal { i64, i64 } @"_ZN8function8make_rpc28_$u7b$$u7b$closure$u7d$$u7d$17h297a24a811895371E"(ptr align 8 %_1, ptr align 1 %data.0, i64 %data.1) unnamed_addr #1 personality ptr @rust_eh_personality !dbg !3232 {
start:
  %0 = alloca { ptr, i32 }, align 8
  %data.dbg.spill = alloca { ptr, i64 }, align 8
  %_1.dbg.spill = alloca ptr, align 8
  %_5 = alloca %"alloc::vec::Vec<u8>", align 8
  %_4 = alloca %"core::result::Result<alloc::string::String, alloc::string::FromUtf8Error>", align 8
  %_3 = alloca %"alloc::string::String", align 8
  %_0 = alloca { i64, i64 }, align 8
  store ptr %_1, ptr %_1.dbg.spill, align 8
  call void @llvm.dbg.declare(metadata ptr %_1.dbg.spill, metadata !3238, metadata !DIExpression(DW_OP_deref, DW_OP_deref)), !dbg !3239
  %1 = getelementptr inbounds { ptr, i64 }, ptr %data.dbg.spill, i32 0, i32 0
  store ptr %data.0, ptr %1, align 8
  %2 = getelementptr inbounds { ptr, i64 }, ptr %data.dbg.spill, i32 0, i32 1
  store i64 %data.1, ptr %2, align 8
  call void @llvm.dbg.declare(metadata ptr %data.dbg.spill, metadata !3237, metadata !DIExpression()), !dbg !3240
; call <alloc::vec::Vec<T> as core::convert::From<&[T]>>::from
  call void @"_ZN87_$LT$alloc..vec..Vec$LT$T$GT$$u20$as$u20$core..convert..From$LT$$RF$$u5b$T$u5d$$GT$$GT$4from17h0c72583e17bc9799E"(ptr sret(%"alloc::vec::Vec<u8>") align 8 %_5, ptr align 1 %data.0, i64 %data.1), !dbg !3241
; call alloc::string::String::from_utf8
  call void @_ZN5alloc6string6String9from_utf817hd15e4530f805b08fE(ptr sret(%"core::result::Result<alloc::string::String, alloc::string::FromUtf8Error>") align 8 %_4, ptr align 8 %_5), !dbg !3242
; call core::result::Result<T,E>::unwrap
  call void @"_ZN4core6result19Result$LT$T$C$E$GT$6unwrap17h9ef8e219159c4cafE"(ptr sret(%"alloc::string::String") align 8 %_3, ptr align 8 %_4, ptr align 8 @alloc_60f7236d9a3fb3fd6ddcec7e8b0bde87), !dbg !3242
  %_7 = load ptr, ptr %_1, align 8, !dbg !3243, !nonnull !23, !align !810, !noundef !23
; invoke core::ptr::drop_in_place<alloc::string::String>
  invoke void @"_ZN4core3ptr42drop_in_place$LT$alloc..string..String$GT$17hbf8725459b59c8d8E"(ptr align 8 %_7)
          to label %bb4 unwind label %cleanup, !dbg !3243

bb5:                                              ; preds = %cleanup
  %_9 = load ptr, ptr %_1, align 8, !dbg !3243, !nonnull !23, !align !810, !noundef !23
  call void @llvm.memcpy.p0.p0.i64(ptr align 8 %_9, ptr align 8 %_3, i64 24, i1 false), !dbg !3243
  %3 = load ptr, ptr %0, align 8, !dbg !3244, !noundef !23
  %4 = getelementptr inbounds { ptr, i32 }, ptr %0, i32 0, i32 1, !dbg !3244
  %5 = load i32, ptr %4, align 8, !dbg !3244, !noundef !23
  %6 = insertvalue { ptr, i32 } poison, ptr %3, 0, !dbg !3244
  %7 = insertvalue { ptr, i32 } %6, i32 %5, 1, !dbg !3244
  resume { ptr, i32 } %7, !dbg !3244

cleanup:                                          ; preds = %start
  %8 = landingpad { ptr, i32 }
          cleanup
  %9 = extractvalue { ptr, i32 } %8, 0
  %10 = extractvalue { ptr, i32 } %8, 1
  %11 = getelementptr inbounds { ptr, i32 }, ptr %0, i32 0, i32 0
  store ptr %9, ptr %11, align 8
  %12 = getelementptr inbounds { ptr, i32 }, ptr %0, i32 0, i32 1
  store i32 %10, ptr %12, align 8
  br label %bb5

bb4:                                              ; preds = %start
  %_8 = load ptr, ptr %_1, align 8, !dbg !3243, !nonnull !23, !align !810, !noundef !23
  call void @llvm.memcpy.p0.p0.i64(ptr align 8 %_8, ptr align 8 %_3, i64 24, i1 false), !dbg !3243
  %13 = getelementptr inbounds { i64, i64 }, ptr %_0, i32 0, i32 1, !dbg !3245
  store i64 %data.1, ptr %13, align 8, !dbg !3245
  store i64 0, ptr %_0, align 8, !dbg !3245
  %14 = getelementptr inbounds { i64, i64 }, ptr %_0, i32 0, i32 0, !dbg !3246
  %15 = load i64, ptr %14, align 8, !dbg !3246, !range !1267, !noundef !23
  %16 = getelementptr inbounds { i64, i64 }, ptr %_0, i32 0, i32 1, !dbg !3246
  %17 = load i64, ptr %16, align 8, !dbg !3246
  %18 = insertvalue { i64, i64 } poison, i64 %15, 0, !dbg !3246
  %19 = insertvalue { i64, i64 } %18, i64 %17, 1, !dbg !3246
  ret { i64, i64 } %19, !dbg !3246
}

; function::get_arg_from_caller
; Function Attrs: nonlazybind uwtable
define internal void @_ZN8function19get_arg_from_caller17h6d881158eb682974E(ptr sret(%"alloc::string::String") align 8 %_0) unnamed_addr #2 personality ptr @rust_eh_personality !dbg !3247 {
start:
  %0 = alloca { ptr, i32 }, align 8
  %_4 = alloca ptr, align 8
  %_2 = alloca %"core::result::Result<usize, std::io::error::Error>", align 8
  %buffer = alloca %"alloc::string::String", align 8
  call void @llvm.dbg.declare(metadata ptr %buffer, metadata !3249, metadata !DIExpression()), !dbg !3251
; call alloc::string::String::new
  call void @_ZN5alloc6string6String3new17h70f5064c3e1e4b90E(ptr sret(%"alloc::string::String") align 8 %buffer), !dbg !3252
; invoke std::io::stdio::stdin
  %1 = invoke align 8 ptr @_ZN3std2io5stdio5stdin17h89cff74eb89d9610E()
          to label %bb2 unwind label %cleanup, !dbg !3253

bb5:                                              ; preds = %cleanup
; invoke core::ptr::drop_in_place<alloc::string::String>
  invoke void @"_ZN4core3ptr42drop_in_place$LT$alloc..string..String$GT$17hbf8725459b59c8d8E"(ptr align 8 %buffer) #14
          to label %bb6 unwind label %terminate, !dbg !3254

cleanup:                                          ; preds = %bb3, %bb2, %start
  %2 = landingpad { ptr, i32 }
          cleanup
  %3 = extractvalue { ptr, i32 } %2, 0
  %4 = extractvalue { ptr, i32 } %2, 1
  %5 = getelementptr inbounds { ptr, i32 }, ptr %0, i32 0, i32 0
  store ptr %3, ptr %5, align 8
  %6 = getelementptr inbounds { ptr, i32 }, ptr %0, i32 0, i32 1
  store i32 %4, ptr %6, align 8
  br label %bb5

bb2:                                              ; preds = %start
  store ptr %1, ptr %_4, align 8, !dbg !3253
; invoke std::io::stdio::Stdin::read_line
  invoke void @_ZN3std2io5stdio5Stdin9read_line17hbc05ff0cbbf71c20E(ptr sret(%"core::result::Result<usize, std::io::error::Error>") align 8 %_2, ptr align 8 %_4, ptr align 8 %buffer)
          to label %bb3 unwind label %cleanup, !dbg !3253

bb3:                                              ; preds = %bb2
; invoke core::ptr::drop_in_place<core::result::Result<usize,std::io::error::Error>>
  invoke void @"_ZN4core3ptr78drop_in_place$LT$core..result..Result$LT$usize$C$std..io..error..Error$GT$$GT$17h0231909c43219edbE"(ptr align 8 %_2)
          to label %bb4 unwind label %cleanup, !dbg !3255

bb4:                                              ; preds = %bb3
  call void @llvm.memcpy.p0.p0.i64(ptr align 8 %_0, ptr align 8 %buffer, i64 24, i1 false), !dbg !3256
  ret void, !dbg !3257

terminate:                                        ; preds = %bb5
  %7 = landingpad { ptr, i32 }
          filter [0 x ptr] zeroinitializer
  %8 = extractvalue { ptr, i32 } %7, 0
  %9 = extractvalue { ptr, i32 } %7, 1
; call core::panicking::panic_in_cleanup
  call void @_ZN4core9panicking16panic_in_cleanup17h55eb1d85cadde1a1E() #15, !dbg !3258
  unreachable, !dbg !3258

bb6:                                              ; preds = %bb5
  %10 = load ptr, ptr %0, align 8, !dbg !3258, !noundef !23
  %11 = getelementptr inbounds { ptr, i32 }, ptr %0, i32 0, i32 1, !dbg !3258
  %12 = load i32, ptr %11, align 8, !dbg !3258, !noundef !23
  %13 = insertvalue { ptr, i32 } poison, ptr %10, 0, !dbg !3258
  %14 = insertvalue { ptr, i32 } %13, i32 %12, 1, !dbg !3258
  resume { ptr, i32 } %14, !dbg !3258
}

; function::send_return_value_to_caller
; Function Attrs: nonlazybind uwtable
define internal void @_ZN8function27send_return_value_to_caller17h5d96baf02f8aa15fE(ptr align 8 %output) unnamed_addr #2 personality ptr @rust_eh_personality !dbg !3259 {
start:
  %f.dbg.spill.i = alloca ptr, align 8
  %x.dbg.spill.i = alloca ptr, align 8
  %_0.i = alloca { ptr, ptr }, align 8
  %0 = alloca { ptr, i32 }, align 8
  %_7 = alloca [1 x { ptr, ptr }], align 8
  %_3 = alloca %"core::fmt::Arguments<'_>", align 8
  call void @llvm.dbg.declare(metadata ptr %output, metadata !3263, metadata !DIExpression()), !dbg !3264
  store ptr %output, ptr %x.dbg.spill.i, align 8
  call void @llvm.dbg.declare(metadata ptr %x.dbg.spill.i, metadata !3265, metadata !DIExpression()), !dbg !3273
  call void @llvm.dbg.declare(metadata ptr %x.dbg.spill.i, metadata !3275, metadata !DIExpression()), !dbg !3284
  store ptr @"_ZN60_$LT$alloc..string..String$u20$as$u20$core..fmt..Display$GT$3fmt17hacf8667f73c2533cE", ptr %f.dbg.spill.i, align 8, !dbg !3286
  call void @llvm.dbg.declare(metadata ptr %f.dbg.spill.i, metadata !3283, metadata !DIExpression()), !dbg !3287
  store ptr %output, ptr %_0.i, align 8, !dbg !3288
  %1 = getelementptr inbounds { ptr, ptr }, ptr %_0.i, i32 0, i32 1, !dbg !3288
  store ptr @"_ZN60_$LT$alloc..string..String$u20$as$u20$core..fmt..Display$GT$3fmt17hacf8667f73c2533cE", ptr %1, align 8, !dbg !3288
  %2 = load ptr, ptr %_0.i, align 8, !dbg !3289, !nonnull !23, !align !532, !noundef !23
  %3 = getelementptr inbounds { ptr, ptr }, ptr %_0.i, i32 0, i32 1, !dbg !3289
  %4 = load ptr, ptr %3, align 8, !dbg !3289, !nonnull !23, !noundef !23
  %5 = insertvalue { ptr, ptr } poison, ptr %2, 0, !dbg !3289
  %6 = insertvalue { ptr, ptr } %5, ptr %4, 1, !dbg !3289
  br label %bb1, !dbg !3289

bb5:                                              ; preds = %cleanup
; invoke core::ptr::drop_in_place<alloc::string::String>
  invoke void @"_ZN4core3ptr42drop_in_place$LT$alloc..string..String$GT$17hbf8725459b59c8d8E"(ptr align 8 %output) #14
          to label %bb6 unwind label %terminate, !dbg !3290

cleanup:                                          ; preds = %bb2, %bb1
  %7 = landingpad { ptr, i32 }
          cleanup
  %8 = extractvalue { ptr, i32 } %7, 0
  %9 = extractvalue { ptr, i32 } %7, 1
  %10 = getelementptr inbounds { ptr, i32 }, ptr %0, i32 0, i32 0
  store ptr %8, ptr %10, align 8
  %11 = getelementptr inbounds { ptr, i32 }, ptr %0, i32 0, i32 1
  store i32 %9, ptr %11, align 8
  br label %bb5

bb1:                                              ; preds = %start
  %_8.0 = extractvalue { ptr, ptr } %6, 0, !dbg !3291
  %_8.1 = extractvalue { ptr, ptr } %6, 1, !dbg !3291
  %12 = getelementptr inbounds [1 x { ptr, ptr }], ptr %_7, i64 0, i64 0, !dbg !3291
  %13 = getelementptr inbounds { ptr, ptr }, ptr %12, i32 0, i32 0, !dbg !3291
  store ptr %_8.0, ptr %13, align 8, !dbg !3291
  %14 = getelementptr inbounds { ptr, ptr }, ptr %12, i32 0, i32 1, !dbg !3291
  store ptr %_8.1, ptr %14, align 8, !dbg !3291
; invoke core::fmt::Arguments::new_v1
  invoke void @_ZN4core3fmt9Arguments6new_v117hbbc729a86f212e4cE(ptr sret(%"core::fmt::Arguments<'_>") align 8 %_3, ptr align 8 @alloc_b99730e73100e73a81f4fbfe74b3821d, i64 1, ptr align 8 %_7, i64 1)
          to label %bb2 unwind label %cleanup, !dbg !3291

bb2:                                              ; preds = %bb1
; invoke std::io::stdio::_print
  invoke void @_ZN3std2io5stdio6_print17h599d580b15036a4cE(ptr align 8 %_3)
          to label %bb3 unwind label %cleanup, !dbg !3291

bb3:                                              ; preds = %bb2
; call core::ptr::drop_in_place<alloc::string::String>
  call void @"_ZN4core3ptr42drop_in_place$LT$alloc..string..String$GT$17hbf8725459b59c8d8E"(ptr align 8 %output), !dbg !3290
  ret void, !dbg !3292

terminate:                                        ; preds = %bb5
  %15 = landingpad { ptr, i32 }
          filter [0 x ptr] zeroinitializer
  %16 = extractvalue { ptr, i32 } %15, 0
  %17 = extractvalue { ptr, i32 } %15, 1
; call core::panicking::panic_in_cleanup
  call void @_ZN4core9panicking16panic_in_cleanup17h55eb1d85cadde1a1E() #15, !dbg !3293
  unreachable, !dbg !3293

bb6:                                              ; preds = %bb5
  %18 = load ptr, ptr %0, align 8, !dbg !3293, !noundef !23
  %19 = getelementptr inbounds { ptr, i32 }, ptr %0, i32 0, i32 1, !dbg !3293
  %20 = load i32, ptr %19, align 8, !dbg !3293, !noundef !23
  %21 = insertvalue { ptr, i32 } poison, ptr %18, 0, !dbg !3293
  %22 = insertvalue { ptr, i32 } %21, i32 %20, 1, !dbg !3293
  resume { ptr, i32 } %22, !dbg !3293
}

; function::main
; Function Attrs: nonlazybind uwtable
define internal void @_ZN8function4main17h34b96ce4ea7a7586E() unnamed_addr #2 personality ptr @rust_eh_personality !dbg !3294 {
start:
  %f.dbg.spill.i = alloca ptr, align 8
  %x.dbg.spill.i = alloca ptr, align 8
  %_0.i = alloca { ptr, ptr }, align 8
  %0 = alloca { ptr, i32 }, align 8
  %result = alloca %"alloc::string::String", align 8
  %_7 = alloca [1 x { ptr, ptr }], align 8
  %_3 = alloca %"core::fmt::Arguments<'_>", align 8
  %prefix = alloca %"alloc::string::String", align 8
  %buffer = alloca %"alloc::string::String", align 8
  call void @llvm.dbg.declare(metadata ptr %buffer, metadata !3296, metadata !DIExpression()), !dbg !3306
  call void @llvm.dbg.declare(metadata ptr %prefix, metadata !3298, metadata !DIExpression()), !dbg !3307
  call void @llvm.dbg.declare(metadata ptr %prefix, metadata !3300, metadata !DIExpression()), !dbg !3308
  call void @llvm.dbg.declare(metadata ptr %result, metadata !3304, metadata !DIExpression()), !dbg !3309
; call function::get_arg_from_caller
  call void @_ZN8function19get_arg_from_caller17h6d881158eb682974E(ptr sret(%"alloc::string::String") align 8 %buffer), !dbg !3310
  store ptr %buffer, ptr %x.dbg.spill.i, align 8
  call void @llvm.dbg.declare(metadata ptr %x.dbg.spill.i, metadata !3265, metadata !DIExpression()), !dbg !3311
  call void @llvm.dbg.declare(metadata ptr %x.dbg.spill.i, metadata !3275, metadata !DIExpression()), !dbg !3313
  store ptr @"_ZN60_$LT$alloc..string..String$u20$as$u20$core..fmt..Display$GT$3fmt17hacf8667f73c2533cE", ptr %f.dbg.spill.i, align 8, !dbg !3315
  call void @llvm.dbg.declare(metadata ptr %f.dbg.spill.i, metadata !3283, metadata !DIExpression()), !dbg !3316
  store ptr %buffer, ptr %_0.i, align 8, !dbg !3317
  %1 = getelementptr inbounds { ptr, ptr }, ptr %_0.i, i32 0, i32 1, !dbg !3317
  store ptr @"_ZN60_$LT$alloc..string..String$u20$as$u20$core..fmt..Display$GT$3fmt17hacf8667f73c2533cE", ptr %1, align 8, !dbg !3317
  %2 = load ptr, ptr %_0.i, align 8, !dbg !3318, !nonnull !23, !align !532, !noundef !23
  %3 = getelementptr inbounds { ptr, ptr }, ptr %_0.i, i32 0, i32 1, !dbg !3318
  %4 = load ptr, ptr %3, align 8, !dbg !3318, !nonnull !23, !noundef !23
  %5 = insertvalue { ptr, ptr } poison, ptr %2, 0, !dbg !3318
  %6 = insertvalue { ptr, ptr } %5, ptr %4, 1, !dbg !3318
  br label %bb2, !dbg !3318

bb8:                                              ; preds = %cleanup
; invoke core::ptr::drop_in_place<alloc::string::String>
  invoke void @"_ZN4core3ptr42drop_in_place$LT$alloc..string..String$GT$17hbf8725459b59c8d8E"(ptr align 8 %buffer) #14
          to label %bb9 unwind label %terminate, !dbg !3319

cleanup:                                          ; preds = %bb5, %bb4, %bb3, %bb2
  %7 = landingpad { ptr, i32 }
          cleanup
  %8 = extractvalue { ptr, i32 } %7, 0
  %9 = extractvalue { ptr, i32 } %7, 1
  %10 = getelementptr inbounds { ptr, i32 }, ptr %0, i32 0, i32 0
  store ptr %8, ptr %10, align 8
  %11 = getelementptr inbounds { ptr, i32 }, ptr %0, i32 0, i32 1
  store i32 %9, ptr %11, align 8
  br label %bb8

bb2:                                              ; preds = %start
  %_8.0 = extractvalue { ptr, ptr } %6, 0, !dbg !3320
  %_8.1 = extractvalue { ptr, ptr } %6, 1, !dbg !3320
  %12 = getelementptr inbounds [1 x { ptr, ptr }], ptr %_7, i64 0, i64 0, !dbg !3320
  %13 = getelementptr inbounds { ptr, ptr }, ptr %12, i32 0, i32 0, !dbg !3320
  store ptr %_8.0, ptr %13, align 8, !dbg !3320
  %14 = getelementptr inbounds { ptr, ptr }, ptr %12, i32 0, i32 1, !dbg !3320
  store ptr %_8.1, ptr %14, align 8, !dbg !3320
; invoke core::fmt::Arguments::new_v1
  invoke void @_ZN4core3fmt9Arguments6new_v117hbbc729a86f212e4cE(ptr sret(%"core::fmt::Arguments<'_>") align 8 %_3, ptr align 8 @alloc_92bc095527b7296e72c592f430621b94, i64 1, ptr align 8 %_7, i64 1)
          to label %bb3 unwind label %cleanup, !dbg !3320

bb3:                                              ; preds = %bb2
; invoke alloc::fmt::format
  invoke void @_ZN5alloc3fmt6format17hb1153e1c8c7424e5E(ptr sret(%"alloc::string::String") align 8 %prefix, ptr align 8 %_3)
          to label %bb4 unwind label %cleanup, !dbg !3320

bb4:                                              ; preds = %bb3
; invoke function::make_rpc
  invoke void @_ZN8function8make_rpc17hef1d6fe3a3cc5315E(ptr sret(%"alloc::string::String") align 8 %result, ptr align 1 @alloc_9dea2a3a6225db8d899e6f7ac3467058, i64 12, ptr align 8 %prefix)
          to label %bb5 unwind label %cleanup, !dbg !3321

bb5:                                              ; preds = %bb4
; invoke function::send_return_value_to_caller
  invoke void @_ZN8function27send_return_value_to_caller17h5d96baf02f8aa15fE(ptr align 8 %result)
          to label %bb6 unwind label %cleanup, !dbg !3322

bb6:                                              ; preds = %bb5
; call core::ptr::drop_in_place<alloc::string::String>
  call void @"_ZN4core3ptr42drop_in_place$LT$alloc..string..String$GT$17hbf8725459b59c8d8E"(ptr align 8 %buffer), !dbg !3319
  ret void, !dbg !3323

terminate:                                        ; preds = %bb8
  %15 = landingpad { ptr, i32 }
          filter [0 x ptr] zeroinitializer
  %16 = extractvalue { ptr, i32 } %15, 0
  %17 = extractvalue { ptr, i32 } %15, 1
; call core::panicking::panic_in_cleanup
  call void @_ZN4core9panicking16panic_in_cleanup17h55eb1d85cadde1a1E() #15, !dbg !3324
  unreachable, !dbg !3324

bb9:                                              ; preds = %bb8
  %18 = load ptr, ptr %0, align 8, !dbg !3324, !noundef !23
  %19 = getelementptr inbounds { ptr, i32 }, ptr %0, i32 0, i32 1, !dbg !3324
  %20 = load i32, ptr %19, align 8, !dbg !3324, !noundef !23
  %21 = insertvalue { ptr, i32 } poison, ptr %18, 0, !dbg !3324
  %22 = insertvalue { ptr, i32 } %21, i32 %20, 1, !dbg !3324
  resume { ptr, i32 } %22, !dbg !3324
}

; Function Attrs: nocallback nofree nosync nounwind speculatable willreturn memory(none)
declare void @llvm.dbg.declare(metadata, metadata, metadata) #3

; core::cmp::min_by
; Function Attrs: inlinehint nonlazybind uwtable
declare i64 @_ZN4core3cmp6min_by17he2f39cd66826f81fE(i64, i64) unnamed_addr #1

; core::panicking::panic
; Function Attrs: cold noinline noreturn nonlazybind uwtable
declare void @_ZN4core9panicking5panic17hb837a5ebbbe5b188E(ptr align 1, i64, ptr align 8) unnamed_addr #4

; Function Attrs: nocallback nofree nosync nounwind willreturn memory(none)
declare i1 @llvm.expect.i1(i1, i1) #5

; core::panicking::panic_bounds_check
; Function Attrs: cold noinline noreturn nonlazybind uwtable
declare void @_ZN4core9panicking18panic_bounds_check17h8331054858f0bf20E(i64, i64, ptr align 8) unnamed_addr #4

; <core::ops::range::Range<usize> as core::slice::index::SliceIndex<[T]>>::index_mut
; Function Attrs: inlinehint nonlazybind uwtable
declare { ptr, i64 } @"_ZN106_$LT$core..ops..range..Range$LT$usize$GT$$u20$as$u20$core..slice..index..SliceIndex$LT$$u5b$T$u5d$$GT$$GT$9index_mut17h1761e9d4ffbf51d6E"(i64, i64, ptr align 1, i64, ptr align 8) unnamed_addr #1

; std::rt::lang_start_internal
; Function Attrs: nonlazybind uwtable
declare i64 @_ZN3std2rt19lang_start_internal17h6939038e2873596bE(ptr align 1, ptr align 8, i64, ptr, i8) unnamed_addr #2

; core::fmt::Formatter::debug_list
; Function Attrs: nonlazybind uwtable
declare void @_ZN4core3fmt9Formatter10debug_list17h1616b9a56f5bf339E(ptr sret(%"core::fmt::builders::DebugList<'_, '_>") align 8, ptr align 8) unnamed_addr #2

; core::fmt::builders::DebugList::finish
; Function Attrs: nonlazybind uwtable
declare zeroext i1 @_ZN4core3fmt8builders9DebugList6finish17hadbed7078d8807f7E(ptr align 8) unnamed_addr #2

; core::fmt::num::imp::<impl core::fmt::Display for usize>::fmt
; Function Attrs: nonlazybind uwtable
declare zeroext i1 @"_ZN4core3fmt3num3imp54_$LT$impl$u20$core..fmt..Display$u20$for$u20$usize$GT$3fmt17h54d4af2b1bb3d966E"(ptr align 8, ptr align 8) unnamed_addr #2

; core::fmt::num::<impl core::fmt::UpperHex for usize>::fmt
; Function Attrs: nonlazybind uwtable
declare zeroext i1 @"_ZN4core3fmt3num55_$LT$impl$u20$core..fmt..UpperHex$u20$for$u20$usize$GT$3fmt17hfb9868ecfefdd0c2E"(ptr align 8, ptr align 8) unnamed_addr #2

; core::fmt::num::<impl core::fmt::LowerHex for usize>::fmt
; Function Attrs: nonlazybind uwtable
declare zeroext i1 @"_ZN4core3fmt3num55_$LT$impl$u20$core..fmt..LowerHex$u20$for$u20$usize$GT$3fmt17h2a402146377b71d4E"(ptr align 8, ptr align 8) unnamed_addr #2

; Function Attrs: nonlazybind uwtable
declare i32 @rust_eh_personality(i32, i32, i64, ptr, ptr) unnamed_addr #2

; <core::slice::iter::Iter<T> as core::iter::traits::iterator::Iterator>::next
; Function Attrs: inlinehint nonlazybind uwtable
declare align 1 ptr @"_ZN91_$LT$core..slice..iter..Iter$LT$T$GT$$u20$as$u20$core..iter..traits..iterator..Iterator$GT$4next17h0688e2a47ebaac44E"(ptr align 8) unnamed_addr #1

; <&T as core::fmt::Debug>::fmt
; Function Attrs: nonlazybind uwtable
declare zeroext i1 @"_ZN42_$LT$$RF$T$u20$as$u20$core..fmt..Debug$GT$3fmt17h98b173db97c3e5ffE"(ptr align 8, ptr align 8) unnamed_addr #2

; core::fmt::builders::DebugList::entry
; Function Attrs: nonlazybind uwtable
declare align 8 ptr @_ZN4core3fmt8builders9DebugList5entry17h2ed5a4f4153b90ddE(ptr align 8, ptr align 1, ptr align 8) unnamed_addr #2

; core::panicking::panic_fmt
; Function Attrs: cold noinline noreturn nonlazybind uwtable
declare void @_ZN4core9panicking9panic_fmt17h784f20a50eaab275E(ptr align 8, ptr align 8) unnamed_addr #4

; core::ptr::drop_in_place<alloc::vec::Vec<u8>>
; Function Attrs: nonlazybind uwtable
declare void @"_ZN4core3ptr46drop_in_place$LT$alloc..vec..Vec$LT$u8$GT$$GT$17h2f35760f366b608bE"(ptr align 8) unnamed_addr #2

; core::ptr::drop_in_place<std::io::error::Error>
; Function Attrs: nonlazybind uwtable
declare void @"_ZN4core3ptr42drop_in_place$LT$std..io..error..Error$GT$17h0d60361555ec6912E"(ptr align 8) unnamed_addr #2

; Function Attrs: nocallback nofree nounwind willreturn memory(argmem: readwrite)
declare void @llvm.memcpy.p0.p0.i64(ptr noalias nocapture writeonly, ptr noalias nocapture readonly, i64, i1 immarg) #6

; core::slice::<impl [T]>::copy_from_slice::len_mismatch_fail
; Function Attrs: cold noinline noreturn nonlazybind uwtable
declare void @"_ZN4core5slice29_$LT$impl$u20$$u5b$T$u5d$$GT$15copy_from_slice17len_mismatch_fail17h314ed267ae8df733E"(i64, i64, ptr align 8) unnamed_addr #4

; core::ptr::drop_in_place<curl::error::Error>
; Function Attrs: nonlazybind uwtable
declare void @"_ZN4core3ptr39drop_in_place$LT$curl..error..Error$GT$17h28a3a45b5e54a015E"(ptr align 8) unnamed_addr #2

; <curl::error::Error as core::fmt::Debug>::fmt
; Function Attrs: nonlazybind uwtable
declare zeroext i1 @"_ZN55_$LT$curl..error..Error$u20$as$u20$core..fmt..Debug$GT$3fmt17h35acd24036cfe8e4E"(ptr align 8, ptr align 8) unnamed_addr #2

; core::result::unwrap_failed
; Function Attrs: cold noinline noreturn nonlazybind uwtable
declare void @_ZN4core6result13unwrap_failed17h03d8a5018196e1cdE(ptr align 1, i64, ptr align 1, ptr align 8, ptr align 8) unnamed_addr #4

; core::panicking::panic_in_cleanup
; Function Attrs: cold noinline noreturn nounwind nonlazybind uwtable
declare void @_ZN4core9panicking16panic_in_cleanup17h55eb1d85cadde1a1E() unnamed_addr #7

; core::ptr::drop_in_place<core::option::Option<alloc::boxed::Box<dyn core::ops::function::FnMut<(&mut [u8],)>+Output = core::result::Result<usize,curl::easy::handler::ReadError>>>>
; Function Attrs: nonlazybind uwtable
declare void @"_ZN4core3ptr243drop_in_place$LT$core..option..Option$LT$alloc..boxed..Box$LT$dyn$u20$core..ops..function..FnMut$LT$$LP$$RF$mut$u20$$u5b$u8$u5d$$C$$RP$$GT$$u2b$Output$u20$$u3d$$u20$core..result..Result$LT$usize$C$curl..easy..handler..ReadError$GT$$GT$$GT$$GT$17hb45f2ac359af00baE"(ptr align 8) unnamed_addr #2

; core::panicking::panic_misaligned_pointer_dereference
; Function Attrs: cold noinline noreturn nounwind nonlazybind uwtable
declare void @_ZN4core9panicking36panic_misaligned_pointer_dereference17hb795539249e40c00E(i64, i64, ptr align 8) unnamed_addr #7

; core::ptr::drop_in_place<core::option::Option<alloc::boxed::Box<dyn core::ops::function::FnMut<(&[u8],)>+Output = core::result::Result<usize,curl::easy::handler::WriteError>>>>
; Function Attrs: nonlazybind uwtable
declare void @"_ZN4core3ptr236drop_in_place$LT$core..option..Option$LT$alloc..boxed..Box$LT$dyn$u20$core..ops..function..FnMut$LT$$LP$$RF$$u5b$u8$u5d$$C$$RP$$GT$$u2b$Output$u20$$u3d$$u20$core..result..Result$LT$usize$C$curl..easy..handler..WriteError$GT$$GT$$GT$$GT$17h413150736357c798E"(ptr align 8) unnamed_addr #2

; core::option::Option<T>::map_or_else
; Function Attrs: inlinehint nonlazybind uwtable
declare void @"_ZN4core6option15Option$LT$T$GT$11map_or_else17hfc08554b92b5aeb6E"(ptr sret(%"alloc::string::String") align 8, ptr align 1, i64, ptr align 8) unnamed_addr #1

; alloc::alloc::handle_alloc_error
; Function Attrs: cold noreturn nonlazybind uwtable
declare void @_ZN5alloc5alloc18handle_alloc_error17h81706c48453a6249E(i64, i64) unnamed_addr #8

; Function Attrs: nocallback nofree nosync nounwind willreturn memory(inaccessiblemem: readwrite)
declare void @llvm.assume(i1 noundef) #9

; Function Attrs: nounwind nonlazybind allockind("alloc,uninitialized,aligned") allocsize(0) uwtable
declare noalias ptr @__rust_alloc(i64, i64 allocalign) unnamed_addr #10

; Function Attrs: nounwind nonlazybind allockind("alloc,zeroed,aligned") allocsize(0) uwtable
declare noalias ptr @__rust_alloc_zeroed(i64, i64 allocalign) unnamed_addr #11

; alloc::vec::Vec<T,A>::extend_from_slice
; Function Attrs: nonlazybind uwtable
declare void @"_ZN5alloc3vec16Vec$LT$T$C$A$GT$17extend_from_slice17h21c091e49e1f91fcE"(ptr align 8, ptr align 1, i64) unnamed_addr #2

; core::str::converts::from_utf8
; Function Attrs: nonlazybind uwtable
declare void @_ZN4core3str8converts9from_utf817hc5206d8edcf9d82eE(ptr sret(%"core::result::Result<&str, core::str::error::Utf8Error>") align 8, ptr align 1, i64) unnamed_addr #2

; <str as core::fmt::Display>::fmt
; Function Attrs: nonlazybind uwtable
declare zeroext i1 @"_ZN42_$LT$str$u20$as$u20$core..fmt..Display$GT$3fmt17hdff585370e905cbdE"(ptr align 1, i64, ptr align 8) unnamed_addr #2

; <&T as core::fmt::Debug>::fmt
; Function Attrs: nonlazybind uwtable
declare zeroext i1 @"_ZN42_$LT$$RF$T$u20$as$u20$core..fmt..Debug$GT$3fmt17he61db5e48e42fe31E"(ptr align 8, ptr align 8) unnamed_addr #2

; core::fmt::Formatter::debug_struct_field2_finish
; Function Attrs: nonlazybind uwtable
declare zeroext i1 @_ZN4core3fmt9Formatter26debug_struct_field2_finish17hc92cc99514a1f43aE(ptr align 8, ptr align 1, i64, ptr align 1, i64, ptr align 1, ptr align 8, ptr align 1, i64, ptr align 1, ptr align 8) unnamed_addr #2

; <T as alloc::slice::hack::ConvertVec>::to_vec
; Function Attrs: inlinehint nonlazybind uwtable
declare void @"_ZN52_$LT$T$u20$as$u20$alloc..slice..hack..ConvertVec$GT$6to_vec17h6017b9b5734a6d3eE"(ptr sret(%"alloc::vec::Vec<u8>") align 8, ptr align 1, i64) unnamed_addr #1

; curl::easy::handle::Easy::new
; Function Attrs: nonlazybind uwtable
declare align 8 ptr @_ZN4curl4easy6handle4Easy3new17heef3e9e9934f7a65E() unnamed_addr #2

; curl::easy::handle::Easy::url
; Function Attrs: nonlazybind uwtable
declare void @_ZN4curl4easy6handle4Easy3url17hba28a22aec3dce82E(ptr sret(%"core::result::Result<(), curl::error::Error>") align 8, ptr align 8, ptr align 1, i64) unnamed_addr #2

; curl::easy::handle::Easy::post
; Function Attrs: nonlazybind uwtable
declare void @_ZN4curl4easy6handle4Easy4post17h151664bb4f2adcf6E(ptr sret(%"core::result::Result<(), curl::error::Error>") align 8, ptr align 8, i1 zeroext) unnamed_addr #2

; curl::easy::handle::Easy::post_field_size
; Function Attrs: nonlazybind uwtable
declare void @_ZN4curl4easy6handle4Easy15post_field_size17he493b7e02a33519aE(ptr sret(%"core::result::Result<(), curl::error::Error>") align 8, ptr align 8, i64) unnamed_addr #2

; curl::easy::handle::Easy::transfer
; Function Attrs: nonlazybind uwtable
declare { ptr, ptr } @_ZN4curl4easy6handle4Easy8transfer17h358d71d032bf8b40E(ptr align 8) unnamed_addr #2

; curl::easy::handle::Transfer::perform
; Function Attrs: nonlazybind uwtable
declare void @_ZN4curl4easy6handle8Transfer7perform17hfed0c9232c3765e2E(ptr sret(%"core::result::Result<(), curl::error::Error>") align 8, ptr align 8) unnamed_addr #2

; core::ptr::drop_in_place<curl::easy::handle::Transfer>
; Function Attrs: nonlazybind uwtable
declare void @"_ZN4core3ptr49drop_in_place$LT$curl..easy..handle..Transfer$GT$17hdc505b096d4ab9beE"(ptr align 8) unnamed_addr #2

; core::ptr::drop_in_place<alloc::string::String>
; Function Attrs: nonlazybind uwtable
declare void @"_ZN4core3ptr42drop_in_place$LT$alloc..string..String$GT$17hbf8725459b59c8d8E"(ptr align 8) unnamed_addr #2

; core::ptr::drop_in_place<curl::easy::handle::Easy>
; Function Attrs: nonlazybind uwtable
declare void @"_ZN4core3ptr45drop_in_place$LT$curl..easy..handle..Easy$GT$17h49392bee866eba28E"(ptr align 8) unnamed_addr #2

; std::io::stdio::stdin
; Function Attrs: nonlazybind uwtable
declare align 8 ptr @_ZN3std2io5stdio5stdin17h89cff74eb89d9610E() unnamed_addr #2

; std::io::stdio::Stdin::read_line
; Function Attrs: nonlazybind uwtable
declare void @_ZN3std2io5stdio5Stdin9read_line17hbc05ff0cbbf71c20E(ptr sret(%"core::result::Result<usize, std::io::error::Error>") align 8, ptr align 8, ptr align 8) unnamed_addr #2

; std::io::stdio::_print
; Function Attrs: nonlazybind uwtable
declare void @_ZN3std2io5stdio6_print17h599d580b15036a4cE(ptr align 8) unnamed_addr #2

; Function Attrs: nonlazybind
define i32 @main(i32 %0, ptr %1) unnamed_addr #12 {
top:
  %2 = load volatile i8, ptr @__rustc_debug_gdb_scripts_section__, align 1
  %3 = sext i32 %0 to i64
; call std::rt::lang_start
  %4 = call i64 @_ZN3std2rt10lang_start17h6f93945a1883b181E(ptr @_ZN8function4main17h34b96ce4ea7a7586E, i64 %3, ptr %1, i8 0)
  %5 = trunc i64 %4 to i32
  ret i32 %5
}

attributes #0 = { noinline nonlazybind uwtable "probe-stack"="inline-asm" "target-cpu"="x86-64" }
attributes #1 = { inlinehint nonlazybind uwtable "probe-stack"="inline-asm" "target-cpu"="x86-64" }
attributes #2 = { nonlazybind uwtable "probe-stack"="inline-asm" "target-cpu"="x86-64" }
attributes #3 = { nocallback nofree nosync nounwind speculatable willreturn memory(none) }
attributes #4 = { cold noinline noreturn nonlazybind uwtable "probe-stack"="inline-asm" "target-cpu"="x86-64" }
attributes #5 = { nocallback nofree nosync nounwind willreturn memory(none) }
attributes #6 = { nocallback nofree nounwind willreturn memory(argmem: readwrite) }
attributes #7 = { cold noinline noreturn nounwind nonlazybind uwtable "probe-stack"="inline-asm" "target-cpu"="x86-64" }
attributes #8 = { cold noreturn nonlazybind uwtable "probe-stack"="inline-asm" "target-cpu"="x86-64" }
attributes #9 = { nocallback nofree nosync nounwind willreturn memory(inaccessiblemem: readwrite) }
attributes #10 = { nounwind nonlazybind allockind("alloc,uninitialized,aligned") allocsize(0) uwtable "alloc-family"="__rust_alloc" "probe-stack"="inline-asm" "target-cpu"="x86-64" }
attributes #11 = { nounwind nonlazybind allockind("alloc,zeroed,aligned") allocsize(0) uwtable "alloc-family"="__rust_alloc" "probe-stack"="inline-asm" "target-cpu"="x86-64" }
attributes #12 = { nonlazybind "target-cpu"="x86-64" }
attributes #13 = { noreturn }
attributes #14 = { cold }
attributes #15 = { cold noreturn nounwind }
attributes #16 = { noreturn nounwind }
attributes #17 = { nounwind }

!llvm.module.flags = !{!203, !204, !205, !206, !207}
!llvm.ident = !{!208}
!llvm.dbg.cu = !{!209}

!0 = !DIGlobalVariableExpression(var: !1, expr: !DIExpression())
!1 = distinct !DIGlobalVariable(name: "<std::rt::lang_start::{closure_env#0}<()> as core::ops::function::Fn<()>>::{vtable}", scope: null, file: !2, type: !3, isLocal: true, isDefinition: true)
!2 = !DIFile(filename: "<unknown>", directory: "")
!3 = !DICompositeType(tag: DW_TAG_structure_type, name: "<std::rt::lang_start::{closure_env#0}<()> as core::ops::function::Fn<()>>::{vtable_type}", file: !2, size: 384, align: 64, flags: DIFlagArtificial, elements: !4, vtableHolder: !14, templateParams: !23, identifier: "770490d8f687dae09a860715504ff0d5")
!4 = !{!5, !8, !10, !11, !12, !13}
!5 = !DIDerivedType(tag: DW_TAG_member, name: "drop_in_place", scope: !3, file: !2, baseType: !6, size: 64, align: 64)
!6 = !DIDerivedType(tag: DW_TAG_pointer_type, name: "*const ()", baseType: !7, size: 64, align: 64, dwarfAddressSpace: 0)
!7 = !DIBasicType(name: "()", encoding: DW_ATE_unsigned)
!8 = !DIDerivedType(tag: DW_TAG_member, name: "size", scope: !3, file: !2, baseType: !9, size: 64, align: 64, offset: 64)
!9 = !DIBasicType(name: "usize", size: 64, encoding: DW_ATE_unsigned)
!10 = !DIDerivedType(tag: DW_TAG_member, name: "align", scope: !3, file: !2, baseType: !9, size: 64, align: 64, offset: 128)
!11 = !DIDerivedType(tag: DW_TAG_member, name: "__method3", scope: !3, file: !2, baseType: !6, size: 64, align: 64, offset: 192)
!12 = !DIDerivedType(tag: DW_TAG_member, name: "__method4", scope: !3, file: !2, baseType: !6, size: 64, align: 64, offset: 256)
!13 = !DIDerivedType(tag: DW_TAG_member, name: "__method5", scope: !3, file: !2, baseType: !6, size: 64, align: 64, offset: 320)
!14 = !DICompositeType(tag: DW_TAG_structure_type, name: "{closure_env#0}<()>", scope: !15, file: !2, size: 64, align: 64, elements: !18, templateParams: !23, identifier: "362ac6f5686ac672e6371cd5ef186026")
!15 = !DINamespace(name: "lang_start", scope: !16)
!16 = !DINamespace(name: "rt", scope: !17)
!17 = !DINamespace(name: "std", scope: null)
!18 = !{!19}
!19 = !DIDerivedType(tag: DW_TAG_member, name: "main", scope: !14, file: !2, baseType: !20, size: 64, align: 64)
!20 = !DIDerivedType(tag: DW_TAG_pointer_type, name: "fn()", baseType: !21, size: 64, align: 64, dwarfAddressSpace: 0)
!21 = !DISubroutineType(types: !22)
!22 = !{null}
!23 = !{}
!24 = !DIGlobalVariableExpression(var: !25, expr: !DIExpression())
!25 = distinct !DIGlobalVariable(name: "<&u8 as core::fmt::Debug>::{vtable}", scope: null, file: !2, type: !26, isLocal: true, isDefinition: true)
!26 = !DICompositeType(tag: DW_TAG_structure_type, name: "<&u8 as core::fmt::Debug>::{vtable_type}", file: !2, size: 256, align: 64, flags: DIFlagArtificial, elements: !27, vtableHolder: !32, templateParams: !23, identifier: "7b718776883f65cf546e07d7563eceb1")
!27 = !{!28, !29, !30, !31}
!28 = !DIDerivedType(tag: DW_TAG_member, name: "drop_in_place", scope: !26, file: !2, baseType: !6, size: 64, align: 64)
!29 = !DIDerivedType(tag: DW_TAG_member, name: "size", scope: !26, file: !2, baseType: !9, size: 64, align: 64, offset: 64)
!30 = !DIDerivedType(tag: DW_TAG_member, name: "align", scope: !26, file: !2, baseType: !9, size: 64, align: 64, offset: 128)
!31 = !DIDerivedType(tag: DW_TAG_member, name: "__method3", scope: !26, file: !2, baseType: !6, size: 64, align: 64, offset: 192)
!32 = !DIDerivedType(tag: DW_TAG_pointer_type, name: "&u8", baseType: !33, size: 64, align: 64, dwarfAddressSpace: 0)
!33 = !DIBasicType(name: "u8", size: 8, encoding: DW_ATE_unsigned)
!34 = !DIGlobalVariableExpression(var: !35, expr: !DIExpression())
!35 = distinct !DIGlobalVariable(name: "<curl::error::Error as core::fmt::Debug>::{vtable}", scope: null, file: !2, type: !36, isLocal: true, isDefinition: true)
!36 = !DICompositeType(tag: DW_TAG_structure_type, name: "<curl::error::Error as core::fmt::Debug>::{vtable_type}", file: !2, size: 256, align: 64, flags: DIFlagArtificial, elements: !37, vtableHolder: !42, templateParams: !23, identifier: "c70ce94e4670a369b63acf8e7ab03ca5")
!37 = !{!38, !39, !40, !41}
!38 = !DIDerivedType(tag: DW_TAG_member, name: "drop_in_place", scope: !36, file: !2, baseType: !6, size: 64, align: 64)
!39 = !DIDerivedType(tag: DW_TAG_member, name: "size", scope: !36, file: !2, baseType: !9, size: 64, align: 64, offset: 64)
!40 = !DIDerivedType(tag: DW_TAG_member, name: "align", scope: !36, file: !2, baseType: !9, size: 64, align: 64, offset: 128)
!41 = !DIDerivedType(tag: DW_TAG_member, name: "__method3", scope: !36, file: !2, baseType: !6, size: 64, align: 64, offset: 192)
!42 = !DICompositeType(tag: DW_TAG_structure_type, name: "Error", scope: !43, file: !2, size: 192, align: 64, flags: DIFlagPublic, elements: !45, templateParams: !23, identifier: "ddd388fc75f59d2442b2b60c361626ab")
!43 = !DINamespace(name: "error", scope: !44)
!44 = !DINamespace(name: "curl", scope: null)
!45 = !{!46, !48}
!46 = !DIDerivedType(tag: DW_TAG_member, name: "code", scope: !42, file: !2, baseType: !47, size: 32, align: 32, offset: 128, flags: DIFlagPrivate)
!47 = !DIBasicType(name: "u32", size: 32, encoding: DW_ATE_unsigned)
!48 = !DIDerivedType(tag: DW_TAG_member, name: "extra", scope: !42, file: !2, baseType: !49, size: 128, align: 64, flags: DIFlagPrivate)
!49 = !DICompositeType(tag: DW_TAG_structure_type, name: "Option<alloc::boxed::Box<str, alloc::alloc::Global>>", scope: !50, file: !2, size: 128, align: 64, flags: DIFlagPublic, elements: !52, templateParams: !23, identifier: "5fa9598899bcc3c566f1984e6234f3c")
!50 = !DINamespace(name: "option", scope: !51)
!51 = !DINamespace(name: "core", scope: null)
!52 = !{!53}
!53 = !DICompositeType(tag: DW_TAG_variant_part, scope: !49, file: !2, size: 128, align: 64, elements: !54, templateParams: !23, identifier: "c7df87a01d89a09289978195589a760d", discriminator: !68)
!54 = !{!55, !64}
!55 = !DIDerivedType(tag: DW_TAG_member, name: "None", scope: !53, file: !2, baseType: !56, size: 128, align: 64, extraData: i128 0)
!56 = !DICompositeType(tag: DW_TAG_structure_type, name: "None", scope: !49, file: !2, size: 128, align: 64, flags: DIFlagPublic, elements: !23, templateParams: !57, identifier: "c211eaeebe79bad0244e7668a2e3d30")
!57 = !{!58}
!58 = !DITemplateTypeParameter(name: "T", type: !59)
!59 = !DICompositeType(tag: DW_TAG_structure_type, name: "alloc::boxed::Box<str, alloc::alloc::Global>", file: !2, size: 128, align: 64, elements: !60, templateParams: !23, identifier: "8ec72dd7ce25d84661eea2a58784f4bf")
!60 = !{!61, !63}
!61 = !DIDerivedType(tag: DW_TAG_member, name: "data_ptr", scope: !59, file: !2, baseType: !62, size: 64, align: 64)
!62 = !DIDerivedType(tag: DW_TAG_pointer_type, baseType: !33, size: 64, align: 64, dwarfAddressSpace: 0)
!63 = !DIDerivedType(tag: DW_TAG_member, name: "length", scope: !59, file: !2, baseType: !9, size: 64, align: 64, offset: 64)
!64 = !DIDerivedType(tag: DW_TAG_member, name: "Some", scope: !53, file: !2, baseType: !65, size: 128, align: 64)
!65 = !DICompositeType(tag: DW_TAG_structure_type, name: "Some", scope: !49, file: !2, size: 128, align: 64, flags: DIFlagPublic, elements: !66, templateParams: !57, identifier: "4c46352e4738c09c4cf0d12acdbe3d24")
!66 = !{!67}
!67 = !DIDerivedType(tag: DW_TAG_member, name: "__0", scope: !65, file: !2, baseType: !59, size: 128, align: 64, flags: DIFlagPublic)
!68 = !DIDerivedType(tag: DW_TAG_member, scope: !49, file: !2, baseType: !69, size: 64, align: 64, flags: DIFlagArtificial)
!69 = !DIBasicType(name: "u64", size: 64, encoding: DW_ATE_unsigned)
!70 = !DIGlobalVariableExpression(var: !71, expr: !DIExpression())
!71 = distinct !DIGlobalVariable(name: "<alloc::string::FromUtf8Error as core::fmt::Debug>::{vtable}", scope: null, file: !2, type: !72, isLocal: true, isDefinition: true)
!72 = !DICompositeType(tag: DW_TAG_structure_type, name: "<alloc::string::FromUtf8Error as core::fmt::Debug>::{vtable_type}", file: !2, size: 256, align: 64, flags: DIFlagArtificial, elements: !73, vtableHolder: !78, templateParams: !23, identifier: "749a9444e6bd448250d514ccf28c70a2")
!73 = !{!74, !75, !76, !77}
!74 = !DIDerivedType(tag: DW_TAG_member, name: "drop_in_place", scope: !72, file: !2, baseType: !6, size: 64, align: 64)
!75 = !DIDerivedType(tag: DW_TAG_member, name: "size", scope: !72, file: !2, baseType: !9, size: 64, align: 64, offset: 64)
!76 = !DIDerivedType(tag: DW_TAG_member, name: "align", scope: !72, file: !2, baseType: !9, size: 64, align: 64, offset: 128)
!77 = !DIDerivedType(tag: DW_TAG_member, name: "__method3", scope: !72, file: !2, baseType: !6, size: 64, align: 64, offset: 192)
!78 = !DICompositeType(tag: DW_TAG_structure_type, name: "FromUtf8Error", scope: !79, file: !2, size: 320, align: 64, flags: DIFlagPublic, elements: !81, templateParams: !23, identifier: "19d64bb041d451c3750fb5eeaad11661")
!79 = !DINamespace(name: "string", scope: !80)
!80 = !DINamespace(name: "alloc", scope: null)
!81 = !{!82, !116}
!82 = !DIDerivedType(tag: DW_TAG_member, name: "bytes", scope: !78, file: !2, baseType: !83, size: 192, align: 64, flags: DIFlagPrivate)
!83 = !DICompositeType(tag: DW_TAG_structure_type, name: "Vec<u8, alloc::alloc::Global>", scope: !84, file: !2, size: 192, align: 64, flags: DIFlagPublic, elements: !85, templateParams: !113, identifier: "8949b586a600dcc26d6ef56c002264cb")
!84 = !DINamespace(name: "vec", scope: !80)
!85 = !{!86, !115}
!86 = !DIDerivedType(tag: DW_TAG_member, name: "buf", scope: !83, file: !2, baseType: !87, size: 128, align: 64, flags: DIFlagPrivate)
!87 = !DICompositeType(tag: DW_TAG_structure_type, name: "RawVec<u8, alloc::alloc::Global>", scope: !88, file: !2, size: 128, align: 64, flags: DIFlagProtected, elements: !89, templateParams: !113, identifier: "eb31d632bc1d31b7c35b448d1275aaa")
!88 = !DINamespace(name: "raw_vec", scope: !80)
!89 = !{!90, !106, !110}
!90 = !DIDerivedType(tag: DW_TAG_member, name: "ptr", scope: !87, file: !2, baseType: !91, size: 64, align: 64, offset: 64, flags: DIFlagPrivate)
!91 = !DICompositeType(tag: DW_TAG_structure_type, name: "Unique<u8>", scope: !92, file: !2, size: 64, align: 64, flags: DIFlagPublic, elements: !94, templateParams: !101, identifier: "a335dd000d4c617c66d0b6ca0f3402e2")
!92 = !DINamespace(name: "unique", scope: !93)
!93 = !DINamespace(name: "ptr", scope: !51)
!94 = !{!95, !103}
!95 = !DIDerivedType(tag: DW_TAG_member, name: "pointer", scope: !91, file: !2, baseType: !96, size: 64, align: 64, flags: DIFlagPrivate)
!96 = !DICompositeType(tag: DW_TAG_structure_type, name: "NonNull<u8>", scope: !97, file: !2, size: 64, align: 64, flags: DIFlagPublic, elements: !98, templateParams: !101, identifier: "cb2fa0300e1ee98393802a75329fa0a")
!97 = !DINamespace(name: "non_null", scope: !93)
!98 = !{!99}
!99 = !DIDerivedType(tag: DW_TAG_member, name: "pointer", scope: !96, file: !2, baseType: !100, size: 64, align: 64, flags: DIFlagPrivate)
!100 = !DIDerivedType(tag: DW_TAG_pointer_type, name: "*const u8", baseType: !33, size: 64, align: 64, dwarfAddressSpace: 0)
!101 = !{!102}
!102 = !DITemplateTypeParameter(name: "T", type: !33)
!103 = !DIDerivedType(tag: DW_TAG_member, name: "_marker", scope: !91, file: !2, baseType: !104, align: 8, offset: 64, flags: DIFlagPrivate)
!104 = !DICompositeType(tag: DW_TAG_structure_type, name: "PhantomData<u8>", scope: !105, file: !2, align: 8, flags: DIFlagPublic, elements: !23, templateParams: !101, identifier: "cd70a6180aabcea7921752320f50f339")
!105 = !DINamespace(name: "marker", scope: !51)
!106 = !DIDerivedType(tag: DW_TAG_member, name: "cap", scope: !87, file: !2, baseType: !107, size: 64, align: 64, flags: DIFlagPrivate)
!107 = !DICompositeType(tag: DW_TAG_structure_type, name: "Cap", scope: !88, file: !2, size: 64, align: 64, flags: DIFlagPrivate, elements: !108, templateParams: !23, identifier: "deb3baec45383200e935f018a3902de2")
!108 = !{!109}
!109 = !DIDerivedType(tag: DW_TAG_member, name: "__0", scope: !107, file: !2, baseType: !9, size: 64, align: 64, flags: DIFlagPrivate)
!110 = !DIDerivedType(tag: DW_TAG_member, name: "alloc", scope: !87, file: !2, baseType: !111, align: 8, offset: 128, flags: DIFlagPrivate)
!111 = !DICompositeType(tag: DW_TAG_structure_type, name: "Global", scope: !112, file: !2, align: 8, flags: DIFlagPublic, elements: !23, identifier: "c55dd29d74827bd9b52a9450298a6411")
!112 = !DINamespace(name: "alloc", scope: !80)
!113 = !{!102, !114}
!114 = !DITemplateTypeParameter(name: "A", type: !111)
!115 = !DIDerivedType(tag: DW_TAG_member, name: "len", scope: !83, file: !2, baseType: !9, size: 64, align: 64, offset: 128, flags: DIFlagPrivate)
!116 = !DIDerivedType(tag: DW_TAG_member, name: "error", scope: !78, file: !2, baseType: !117, size: 128, align: 64, offset: 192, flags: DIFlagPrivate)
!117 = !DICompositeType(tag: DW_TAG_structure_type, name: "Utf8Error", scope: !118, file: !2, size: 128, align: 64, flags: DIFlagPublic, elements: !120, templateParams: !23, identifier: "8b8d1509513404952fbb0123af9086b2")
!118 = !DINamespace(name: "error", scope: !119)
!119 = !DINamespace(name: "str", scope: !51)
!120 = !{!121, !122}
!121 = !DIDerivedType(tag: DW_TAG_member, name: "valid_up_to", scope: !117, file: !2, baseType: !9, size: 64, align: 64, flags: DIFlagProtected)
!122 = !DIDerivedType(tag: DW_TAG_member, name: "error_len", scope: !117, file: !2, baseType: !123, size: 16, align: 8, offset: 64, flags: DIFlagProtected)
!123 = !DICompositeType(tag: DW_TAG_structure_type, name: "Option<u8>", scope: !50, file: !2, size: 16, align: 8, flags: DIFlagPublic, elements: !124, templateParams: !23, identifier: "bd2e693da9b5e277b1cc1bd6db536055")
!124 = !{!125}
!125 = !DICompositeType(tag: DW_TAG_variant_part, scope: !123, file: !2, size: 16, align: 8, elements: !126, templateParams: !23, identifier: "f493dafe2e261e54300f93c1c858af4", discriminator: !133)
!126 = !{!127, !129}
!127 = !DIDerivedType(tag: DW_TAG_member, name: "None", scope: !125, file: !2, baseType: !128, size: 16, align: 8, extraData: i128 0)
!128 = !DICompositeType(tag: DW_TAG_structure_type, name: "None", scope: !123, file: !2, size: 16, align: 8, flags: DIFlagPublic, elements: !23, templateParams: !101, identifier: "8bfcb23e1e95b7f810d1d0c496198c7d")
!129 = !DIDerivedType(tag: DW_TAG_member, name: "Some", scope: !125, file: !2, baseType: !130, size: 16, align: 8, extraData: i128 1)
!130 = !DICompositeType(tag: DW_TAG_structure_type, name: "Some", scope: !123, file: !2, size: 16, align: 8, flags: DIFlagPublic, elements: !131, templateParams: !101, identifier: "c9ed99b452ba3e5d99ae07c40235cc7f")
!131 = !{!132}
!132 = !DIDerivedType(tag: DW_TAG_member, name: "__0", scope: !130, file: !2, baseType: !33, size: 8, align: 8, offset: 8, flags: DIFlagPublic)
!133 = !DIDerivedType(tag: DW_TAG_member, scope: !123, file: !2, baseType: !33, size: 8, align: 8, flags: DIFlagArtificial)
!134 = !DIGlobalVariableExpression(var: !135, expr: !DIExpression())
!135 = distinct !DIGlobalVariable(name: "<function::make_rpc::{closure_env#0} as core::ops::function::FnMut<(&mut [u8])>>::{vtable}", scope: null, file: !2, type: !136, isLocal: true, isDefinition: true)
!136 = !DICompositeType(tag: DW_TAG_structure_type, name: "<function::make_rpc::{closure_env#0} as core::ops::function::FnMut<(&mut [u8])>>::{vtable_type}", file: !2, size: 320, align: 64, flags: DIFlagArtificial, elements: !137, vtableHolder: !143, templateParams: !23, identifier: "94a8a589070d891ee6f53d0223f55e84")
!137 = !{!138, !139, !140, !141, !142}
!138 = !DIDerivedType(tag: DW_TAG_member, name: "drop_in_place", scope: !136, file: !2, baseType: !6, size: 64, align: 64)
!139 = !DIDerivedType(tag: DW_TAG_member, name: "size", scope: !136, file: !2, baseType: !9, size: 64, align: 64, offset: 64)
!140 = !DIDerivedType(tag: DW_TAG_member, name: "align", scope: !136, file: !2, baseType: !9, size: 64, align: 64, offset: 128)
!141 = !DIDerivedType(tag: DW_TAG_member, name: "__method3", scope: !136, file: !2, baseType: !6, size: 64, align: 64, offset: 192)
!142 = !DIDerivedType(tag: DW_TAG_member, name: "__method4", scope: !136, file: !2, baseType: !6, size: 64, align: 64, offset: 256)
!143 = !DICompositeType(tag: DW_TAG_structure_type, name: "{closure_env#0}", scope: !144, file: !2, size: 64, align: 64, elements: !146, templateParams: !23, identifier: "38ee49d39f58b5f2ddb293b4b0468639")
!144 = !DINamespace(name: "make_rpc", scope: !145)
!145 = !DINamespace(name: "function", scope: null)
!146 = !{!147}
!147 = !DIDerivedType(tag: DW_TAG_member, name: "_ref__input_to_be_sent", scope: !143, file: !2, baseType: !148, size: 64, align: 64)
!148 = !DIDerivedType(tag: DW_TAG_pointer_type, name: "&mut &[u8]", baseType: !149, size: 64, align: 64, dwarfAddressSpace: 0)
!149 = !DICompositeType(tag: DW_TAG_structure_type, name: "&[u8]", file: !2, size: 128, align: 64, elements: !150, templateParams: !23, identifier: "4f7d759e2003ffb713a77bd933fd0146")
!150 = !{!151, !152}
!151 = !DIDerivedType(tag: DW_TAG_member, name: "data_ptr", scope: !149, file: !2, baseType: !62, size: 64, align: 64)
!152 = !DIDerivedType(tag: DW_TAG_member, name: "length", scope: !149, file: !2, baseType: !9, size: 64, align: 64, offset: 64)
!153 = !DIGlobalVariableExpression(var: !154, expr: !DIExpression())
!154 = distinct !DIGlobalVariable(name: "<function::make_rpc::{closure_env#1} as core::ops::function::FnMut<(&[u8])>>::{vtable}", scope: null, file: !2, type: !155, isLocal: true, isDefinition: true)
!155 = !DICompositeType(tag: DW_TAG_structure_type, name: "<function::make_rpc::{closure_env#1} as core::ops::function::FnMut<(&[u8])>>::{vtable_type}", file: !2, size: 320, align: 64, flags: DIFlagArtificial, elements: !156, vtableHolder: !162, templateParams: !23, identifier: "5d8c1a87c25f4750921876a3ec3f07bc")
!156 = !{!157, !158, !159, !160, !161}
!157 = !DIDerivedType(tag: DW_TAG_member, name: "drop_in_place", scope: !155, file: !2, baseType: !6, size: 64, align: 64)
!158 = !DIDerivedType(tag: DW_TAG_member, name: "size", scope: !155, file: !2, baseType: !9, size: 64, align: 64, offset: 64)
!159 = !DIDerivedType(tag: DW_TAG_member, name: "align", scope: !155, file: !2, baseType: !9, size: 64, align: 64, offset: 128)
!160 = !DIDerivedType(tag: DW_TAG_member, name: "__method3", scope: !155, file: !2, baseType: !6, size: 64, align: 64, offset: 192)
!161 = !DIDerivedType(tag: DW_TAG_member, name: "__method4", scope: !155, file: !2, baseType: !6, size: 64, align: 64, offset: 256)
!162 = !DICompositeType(tag: DW_TAG_structure_type, name: "{closure_env#1}", scope: !144, file: !2, size: 64, align: 64, elements: !163, templateParams: !23, identifier: "c921d31c7dba2b85f3656141170a5bf2")
!163 = !{!164}
!164 = !DIDerivedType(tag: DW_TAG_member, name: "_ref__html_data", scope: !162, file: !2, baseType: !165, size: 64, align: 64)
!165 = !DIDerivedType(tag: DW_TAG_pointer_type, name: "&mut alloc::string::String", baseType: !166, size: 64, align: 64, dwarfAddressSpace: 0)
!166 = !DICompositeType(tag: DW_TAG_structure_type, name: "String", scope: !79, file: !2, size: 192, align: 64, flags: DIFlagPublic, elements: !167, templateParams: !23, identifier: "affaab2e7d1df8e48e4999e480b4b01")
!167 = !{!168}
!168 = !DIDerivedType(tag: DW_TAG_member, name: "vec", scope: !166, file: !2, baseType: !83, size: 192, align: 64, flags: DIFlagPrivate)
!169 = !DIGlobalVariableExpression(var: !170, expr: !DIExpression())
!170 = distinct !DIGlobalVariable(name: "<usize as core::fmt::Debug>::{vtable}", scope: null, file: !2, type: !171, isLocal: true, isDefinition: true)
!171 = !DICompositeType(tag: DW_TAG_structure_type, name: "<usize as core::fmt::Debug>::{vtable_type}", file: !2, size: 256, align: 64, flags: DIFlagArtificial, elements: !172, vtableHolder: !9, templateParams: !23, identifier: "87aba3604281fd2831f1d0e331894648")
!172 = !{!173, !174, !175, !176}
!173 = !DIDerivedType(tag: DW_TAG_member, name: "drop_in_place", scope: !171, file: !2, baseType: !6, size: 64, align: 64)
!174 = !DIDerivedType(tag: DW_TAG_member, name: "size", scope: !171, file: !2, baseType: !9, size: 64, align: 64, offset: 64)
!175 = !DIDerivedType(tag: DW_TAG_member, name: "align", scope: !171, file: !2, baseType: !9, size: 64, align: 64, offset: 128)
!176 = !DIDerivedType(tag: DW_TAG_member, name: "__method3", scope: !171, file: !2, baseType: !6, size: 64, align: 64, offset: 192)
!177 = !DIGlobalVariableExpression(var: !178, expr: !DIExpression())
!178 = distinct !DIGlobalVariable(name: "<&core::option::Option<u8> as core::fmt::Debug>::{vtable}", scope: null, file: !2, type: !179, isLocal: true, isDefinition: true)
!179 = !DICompositeType(tag: DW_TAG_structure_type, name: "<&core::option::Option<u8> as core::fmt::Debug>::{vtable_type}", file: !2, size: 256, align: 64, flags: DIFlagArtificial, elements: !180, vtableHolder: !185, templateParams: !23, identifier: "50aa774cd344df0f826fd66a5fc42d6f")
!180 = !{!181, !182, !183, !184}
!181 = !DIDerivedType(tag: DW_TAG_member, name: "drop_in_place", scope: !179, file: !2, baseType: !6, size: 64, align: 64)
!182 = !DIDerivedType(tag: DW_TAG_member, name: "size", scope: !179, file: !2, baseType: !9, size: 64, align: 64, offset: 64)
!183 = !DIDerivedType(tag: DW_TAG_member, name: "align", scope: !179, file: !2, baseType: !9, size: 64, align: 64, offset: 128)
!184 = !DIDerivedType(tag: DW_TAG_member, name: "__method3", scope: !179, file: !2, baseType: !6, size: 64, align: 64, offset: 192)
!185 = !DIDerivedType(tag: DW_TAG_pointer_type, name: "&core::option::Option<u8>", baseType: !123, size: 64, align: 64, dwarfAddressSpace: 0)
!186 = !DIGlobalVariableExpression(var: !187, expr: !DIExpression())
!187 = distinct !DIGlobalVariable(name: "<alloc::vec::Vec<u8, alloc::alloc::Global> as core::fmt::Debug>::{vtable}", scope: null, file: !2, type: !188, isLocal: true, isDefinition: true)
!188 = !DICompositeType(tag: DW_TAG_structure_type, name: "<alloc::vec::Vec<u8, alloc::alloc::Global> as core::fmt::Debug>::{vtable_type}", file: !2, size: 256, align: 64, flags: DIFlagArtificial, elements: !189, vtableHolder: !83, templateParams: !23, identifier: "fa1d89b802565533e05ee3a482e83225")
!189 = !{!190, !191, !192, !193}
!190 = !DIDerivedType(tag: DW_TAG_member, name: "drop_in_place", scope: !188, file: !2, baseType: !6, size: 64, align: 64)
!191 = !DIDerivedType(tag: DW_TAG_member, name: "size", scope: !188, file: !2, baseType: !9, size: 64, align: 64, offset: 64)
!192 = !DIDerivedType(tag: DW_TAG_member, name: "align", scope: !188, file: !2, baseType: !9, size: 64, align: 64, offset: 128)
!193 = !DIDerivedType(tag: DW_TAG_member, name: "__method3", scope: !188, file: !2, baseType: !6, size: 64, align: 64, offset: 192)
!194 = !DIGlobalVariableExpression(var: !195, expr: !DIExpression())
!195 = distinct !DIGlobalVariable(name: "<&core::str::error::Utf8Error as core::fmt::Debug>::{vtable}", scope: null, file: !2, type: !196, isLocal: true, isDefinition: true)
!196 = !DICompositeType(tag: DW_TAG_structure_type, name: "<&core::str::error::Utf8Error as core::fmt::Debug>::{vtable_type}", file: !2, size: 256, align: 64, flags: DIFlagArtificial, elements: !197, vtableHolder: !202, templateParams: !23, identifier: "ef371a415cc0008e22ab5afffcfb19cc")
!197 = !{!198, !199, !200, !201}
!198 = !DIDerivedType(tag: DW_TAG_member, name: "drop_in_place", scope: !196, file: !2, baseType: !6, size: 64, align: 64)
!199 = !DIDerivedType(tag: DW_TAG_member, name: "size", scope: !196, file: !2, baseType: !9, size: 64, align: 64, offset: 64)
!200 = !DIDerivedType(tag: DW_TAG_member, name: "align", scope: !196, file: !2, baseType: !9, size: 64, align: 64, offset: 128)
!201 = !DIDerivedType(tag: DW_TAG_member, name: "__method3", scope: !196, file: !2, baseType: !6, size: 64, align: 64, offset: 192)
!202 = !DIDerivedType(tag: DW_TAG_pointer_type, name: "&core::str::error::Utf8Error", baseType: !117, size: 64, align: 64, dwarfAddressSpace: 0)
!203 = !{i32 8, !"PIC Level", i32 2}
!204 = !{i32 7, !"PIE Level", i32 2}
!205 = !{i32 2, !"RtLibUseGOT", i32 1}
!206 = !{i32 2, !"Dwarf Version", i32 4}
!207 = !{i32 2, !"Debug Info Version", i32 3}
!208 = !{!"rustc version 1.76.0 (07dca489a 2024-02-04)"}
!209 = distinct !DICompileUnit(language: DW_LANG_Rust, file: !210, producer: "clang LLVM (rustc version 1.76.0 (07dca489a 2024-02-04))", isOptimized: false, runtimeVersion: 0, emissionKind: FullDebug, enums: !211, globals: !338, splitDebugInlining: false, nameTableKind: None)
!210 = !DIFile(filename: "src/main.rs/@/1b50h1evyg3imw5f", directory: "/proj/zyuxuanssf-PG0/zyuxuan/faas-test/merge_func/merge-rust-and-swift/example/caller")
!211 = !{!212, !257, !265, !271}
!212 = !DICompositeType(tag: DW_TAG_enumeration_type, name: "ErrorKind", scope: !213, file: !2, baseType: !33, size: 8, align: 8, flags: DIFlagEnumClass, elements: !215)
!213 = !DINamespace(name: "error", scope: !214)
!214 = !DINamespace(name: "io", scope: !17)
!215 = !{!216, !217, !218, !219, !220, !221, !222, !223, !224, !225, !226, !227, !228, !229, !230, !231, !232, !233, !234, !235, !236, !237, !238, !239, !240, !241, !242, !243, !244, !245, !246, !247, !248, !249, !250, !251, !252, !253, !254, !255, !256}
!216 = !DIEnumerator(name: "NotFound", value: 0, isUnsigned: true)
!217 = !DIEnumerator(name: "PermissionDenied", value: 1, isUnsigned: true)
!218 = !DIEnumerator(name: "ConnectionRefused", value: 2, isUnsigned: true)
!219 = !DIEnumerator(name: "ConnectionReset", value: 3, isUnsigned: true)
!220 = !DIEnumerator(name: "HostUnreachable", value: 4, isUnsigned: true)
!221 = !DIEnumerator(name: "NetworkUnreachable", value: 5, isUnsigned: true)
!222 = !DIEnumerator(name: "ConnectionAborted", value: 6, isUnsigned: true)
!223 = !DIEnumerator(name: "NotConnected", value: 7, isUnsigned: true)
!224 = !DIEnumerator(name: "AddrInUse", value: 8, isUnsigned: true)
!225 = !DIEnumerator(name: "AddrNotAvailable", value: 9, isUnsigned: true)
!226 = !DIEnumerator(name: "NetworkDown", value: 10, isUnsigned: true)
!227 = !DIEnumerator(name: "BrokenPipe", value: 11, isUnsigned: true)
!228 = !DIEnumerator(name: "AlreadyExists", value: 12, isUnsigned: true)
!229 = !DIEnumerator(name: "WouldBlock", value: 13, isUnsigned: true)
!230 = !DIEnumerator(name: "NotADirectory", value: 14, isUnsigned: true)
!231 = !DIEnumerator(name: "IsADirectory", value: 15, isUnsigned: true)
!232 = !DIEnumerator(name: "DirectoryNotEmpty", value: 16, isUnsigned: true)
!233 = !DIEnumerator(name: "ReadOnlyFilesystem", value: 17, isUnsigned: true)
!234 = !DIEnumerator(name: "FilesystemLoop", value: 18, isUnsigned: true)
!235 = !DIEnumerator(name: "StaleNetworkFileHandle", value: 19, isUnsigned: true)
!236 = !DIEnumerator(name: "InvalidInput", value: 20, isUnsigned: true)
!237 = !DIEnumerator(name: "InvalidData", value: 21, isUnsigned: true)
!238 = !DIEnumerator(name: "TimedOut", value: 22, isUnsigned: true)
!239 = !DIEnumerator(name: "WriteZero", value: 23, isUnsigned: true)
!240 = !DIEnumerator(name: "StorageFull", value: 24, isUnsigned: true)
!241 = !DIEnumerator(name: "NotSeekable", value: 25, isUnsigned: true)
!242 = !DIEnumerator(name: "FilesystemQuotaExceeded", value: 26, isUnsigned: true)
!243 = !DIEnumerator(name: "FileTooLarge", value: 27, isUnsigned: true)
!244 = !DIEnumerator(name: "ResourceBusy", value: 28, isUnsigned: true)
!245 = !DIEnumerator(name: "ExecutableFileBusy", value: 29, isUnsigned: true)
!246 = !DIEnumerator(name: "Deadlock", value: 30, isUnsigned: true)
!247 = !DIEnumerator(name: "CrossesDevices", value: 31, isUnsigned: true)
!248 = !DIEnumerator(name: "TooManyLinks", value: 32, isUnsigned: true)
!249 = !DIEnumerator(name: "InvalidFilename", value: 33, isUnsigned: true)
!250 = !DIEnumerator(name: "ArgumentListTooLong", value: 34, isUnsigned: true)
!251 = !DIEnumerator(name: "Interrupted", value: 35, isUnsigned: true)
!252 = !DIEnumerator(name: "Unsupported", value: 36, isUnsigned: true)
!253 = !DIEnumerator(name: "UnexpectedEof", value: 37, isUnsigned: true)
!254 = !DIEnumerator(name: "OutOfMemory", value: 38, isUnsigned: true)
!255 = !DIEnumerator(name: "Other", value: 39, isUnsigned: true)
!256 = !DIEnumerator(name: "Uncategorized", value: 40, isUnsigned: true)
!257 = !DICompositeType(tag: DW_TAG_enumeration_type, name: "Alignment", scope: !258, file: !2, baseType: !33, size: 8, align: 8, flags: DIFlagEnumClass, elements: !260)
!258 = !DINamespace(name: "rt", scope: !259)
!259 = !DINamespace(name: "fmt", scope: !51)
!260 = !{!261, !262, !263, !264}
!261 = !DIEnumerator(name: "Left", value: 0, isUnsigned: true)
!262 = !DIEnumerator(name: "Right", value: 1, isUnsigned: true)
!263 = !DIEnumerator(name: "Center", value: 2, isUnsigned: true)
!264 = !DIEnumerator(name: "Unknown", value: 3, isUnsigned: true)
!265 = !DICompositeType(tag: DW_TAG_enumeration_type, name: "ReadError", scope: !266, file: !2, baseType: !33, size: 8, align: 8, flags: DIFlagEnumClass, elements: !268)
!266 = !DINamespace(name: "handler", scope: !267)
!267 = !DINamespace(name: "easy", scope: !44)
!268 = !{!269, !270}
!269 = !DIEnumerator(name: "Abort", value: 0, isUnsigned: true)
!270 = !DIEnumerator(name: "Pause", value: 1, isUnsigned: true)
!271 = !DICompositeType(tag: DW_TAG_enumeration_type, name: "AlignmentEnum64", scope: !272, file: !2, baseType: !69, size: 64, align: 64, flags: DIFlagEnumClass, elements: !273)
!272 = !DINamespace(name: "alignment", scope: !93)
!273 = !{!274, !275, !276, !277, !278, !279, !280, !281, !282, !283, !284, !285, !286, !287, !288, !289, !290, !291, !292, !293, !294, !295, !296, !297, !298, !299, !300, !301, !302, !303, !304, !305, !306, !307, !308, !309, !310, !311, !312, !313, !314, !315, !316, !317, !318, !319, !320, !321, !322, !323, !324, !325, !326, !327, !328, !329, !330, !331, !332, !333, !334, !335, !336, !337}
!274 = !DIEnumerator(name: "_Align1Shl0", value: 1, isUnsigned: true)
!275 = !DIEnumerator(name: "_Align1Shl1", value: 2, isUnsigned: true)
!276 = !DIEnumerator(name: "_Align1Shl2", value: 4, isUnsigned: true)
!277 = !DIEnumerator(name: "_Align1Shl3", value: 8, isUnsigned: true)
!278 = !DIEnumerator(name: "_Align1Shl4", value: 16, isUnsigned: true)
!279 = !DIEnumerator(name: "_Align1Shl5", value: 32, isUnsigned: true)
!280 = !DIEnumerator(name: "_Align1Shl6", value: 64, isUnsigned: true)
!281 = !DIEnumerator(name: "_Align1Shl7", value: 128, isUnsigned: true)
!282 = !DIEnumerator(name: "_Align1Shl8", value: 256, isUnsigned: true)
!283 = !DIEnumerator(name: "_Align1Shl9", value: 512, isUnsigned: true)
!284 = !DIEnumerator(name: "_Align1Shl10", value: 1024, isUnsigned: true)
!285 = !DIEnumerator(name: "_Align1Shl11", value: 2048, isUnsigned: true)
!286 = !DIEnumerator(name: "_Align1Shl12", value: 4096, isUnsigned: true)
!287 = !DIEnumerator(name: "_Align1Shl13", value: 8192, isUnsigned: true)
!288 = !DIEnumerator(name: "_Align1Shl14", value: 16384, isUnsigned: true)
!289 = !DIEnumerator(name: "_Align1Shl15", value: 32768, isUnsigned: true)
!290 = !DIEnumerator(name: "_Align1Shl16", value: 65536, isUnsigned: true)
!291 = !DIEnumerator(name: "_Align1Shl17", value: 131072, isUnsigned: true)
!292 = !DIEnumerator(name: "_Align1Shl18", value: 262144, isUnsigned: true)
!293 = !DIEnumerator(name: "_Align1Shl19", value: 524288, isUnsigned: true)
!294 = !DIEnumerator(name: "_Align1Shl20", value: 1048576, isUnsigned: true)
!295 = !DIEnumerator(name: "_Align1Shl21", value: 2097152, isUnsigned: true)
!296 = !DIEnumerator(name: "_Align1Shl22", value: 4194304, isUnsigned: true)
!297 = !DIEnumerator(name: "_Align1Shl23", value: 8388608, isUnsigned: true)
!298 = !DIEnumerator(name: "_Align1Shl24", value: 16777216, isUnsigned: true)
!299 = !DIEnumerator(name: "_Align1Shl25", value: 33554432, isUnsigned: true)
!300 = !DIEnumerator(name: "_Align1Shl26", value: 67108864, isUnsigned: true)
!301 = !DIEnumerator(name: "_Align1Shl27", value: 134217728, isUnsigned: true)
!302 = !DIEnumerator(name: "_Align1Shl28", value: 268435456, isUnsigned: true)
!303 = !DIEnumerator(name: "_Align1Shl29", value: 536870912, isUnsigned: true)
!304 = !DIEnumerator(name: "_Align1Shl30", value: 1073741824, isUnsigned: true)
!305 = !DIEnumerator(name: "_Align1Shl31", value: 2147483648, isUnsigned: true)
!306 = !DIEnumerator(name: "_Align1Shl32", value: 4294967296, isUnsigned: true)
!307 = !DIEnumerator(name: "_Align1Shl33", value: 8589934592, isUnsigned: true)
!308 = !DIEnumerator(name: "_Align1Shl34", value: 17179869184, isUnsigned: true)
!309 = !DIEnumerator(name: "_Align1Shl35", value: 34359738368, isUnsigned: true)
!310 = !DIEnumerator(name: "_Align1Shl36", value: 68719476736, isUnsigned: true)
!311 = !DIEnumerator(name: "_Align1Shl37", value: 137438953472, isUnsigned: true)
!312 = !DIEnumerator(name: "_Align1Shl38", value: 274877906944, isUnsigned: true)
!313 = !DIEnumerator(name: "_Align1Shl39", value: 549755813888, isUnsigned: true)
!314 = !DIEnumerator(name: "_Align1Shl40", value: 1099511627776, isUnsigned: true)
!315 = !DIEnumerator(name: "_Align1Shl41", value: 2199023255552, isUnsigned: true)
!316 = !DIEnumerator(name: "_Align1Shl42", value: 4398046511104, isUnsigned: true)
!317 = !DIEnumerator(name: "_Align1Shl43", value: 8796093022208, isUnsigned: true)
!318 = !DIEnumerator(name: "_Align1Shl44", value: 17592186044416, isUnsigned: true)
!319 = !DIEnumerator(name: "_Align1Shl45", value: 35184372088832, isUnsigned: true)
!320 = !DIEnumerator(name: "_Align1Shl46", value: 70368744177664, isUnsigned: true)
!321 = !DIEnumerator(name: "_Align1Shl47", value: 140737488355328, isUnsigned: true)
!322 = !DIEnumerator(name: "_Align1Shl48", value: 281474976710656, isUnsigned: true)
!323 = !DIEnumerator(name: "_Align1Shl49", value: 562949953421312, isUnsigned: true)
!324 = !DIEnumerator(name: "_Align1Shl50", value: 1125899906842624, isUnsigned: true)
!325 = !DIEnumerator(name: "_Align1Shl51", value: 2251799813685248, isUnsigned: true)
!326 = !DIEnumerator(name: "_Align1Shl52", value: 4503599627370496, isUnsigned: true)
!327 = !DIEnumerator(name: "_Align1Shl53", value: 9007199254740992, isUnsigned: true)
!328 = !DIEnumerator(name: "_Align1Shl54", value: 18014398509481984, isUnsigned: true)
!329 = !DIEnumerator(name: "_Align1Shl55", value: 36028797018963968, isUnsigned: true)
!330 = !DIEnumerator(name: "_Align1Shl56", value: 72057594037927936, isUnsigned: true)
!331 = !DIEnumerator(name: "_Align1Shl57", value: 144115188075855872, isUnsigned: true)
!332 = !DIEnumerator(name: "_Align1Shl58", value: 288230376151711744, isUnsigned: true)
!333 = !DIEnumerator(name: "_Align1Shl59", value: 576460752303423488, isUnsigned: true)
!334 = !DIEnumerator(name: "_Align1Shl60", value: 1152921504606846976, isUnsigned: true)
!335 = !DIEnumerator(name: "_Align1Shl61", value: 2305843009213693952, isUnsigned: true)
!336 = !DIEnumerator(name: "_Align1Shl62", value: 4611686018427387904, isUnsigned: true)
!337 = !DIEnumerator(name: "_Align1Shl63", value: 9223372036854775808, isUnsigned: true)
!338 = !{!0, !24, !34, !70, !134, !153, !169, !177, !186, !194}
!339 = distinct !DISubprogram(name: "__rust_begin_short_backtrace<fn(), ()>", linkageName: "_ZN3std10sys_common9backtrace28__rust_begin_short_backtrace17h463937ddfdc9d640E", scope: !341, file: !340, line: 151, type: !343, scopeLine: 151, flags: DIFlagPrototyped, spFlags: DISPFlagLocalToUnit | DISPFlagDefinition, unit: !209, templateParams: !349, retainedNodes: !345)
!340 = !DIFile(filename: "/rustc/07dca489ac2d933c78d3c5158e3f43beefeb02ce/library/std/src/sys_common/backtrace.rs", directory: "", checksumkind: CSK_MD5, checksum: "ea95829b2a6298387d0233825edf7299")
!341 = !DINamespace(name: "backtrace", scope: !342)
!342 = !DINamespace(name: "sys_common", scope: !17)
!343 = !DISubroutineType(types: !344)
!344 = !{null, !20}
!345 = !{!346, !347}
!346 = !DILocalVariable(name: "f", arg: 1, scope: !339, file: !340, line: 151, type: !20)
!347 = !DILocalVariable(name: "result", scope: !348, file: !340, line: 155, type: !7, align: 1)
!348 = distinct !DILexicalBlock(scope: !339, file: !340, line: 155, column: 5)
!349 = !{!350, !351}
!350 = !DITemplateTypeParameter(name: "F", type: !20)
!351 = !DITemplateTypeParameter(name: "T", type: !7)
!352 = !DILocalVariable(name: "dummy", scope: !353, file: !354, line: 285, type: !7, align: 1)
!353 = distinct !DILexicalBlock(scope: !355, file: !354, line: 285, column: 1)
!354 = !DIFile(filename: "/rustc/07dca489ac2d933c78d3c5158e3f43beefeb02ce/library/core/src/hint.rs", directory: "", checksumkind: CSK_MD5, checksum: "83ae27415b0777e10095874992cfc336")
!355 = distinct !DISubprogram(name: "black_box<()>", linkageName: "_ZN4core4hint9black_box17h3e7db833f0c6f520E", scope: !356, file: !354, line: 285, type: !357, scopeLine: 285, flags: DIFlagPrototyped, spFlags: DISPFlagLocalToUnit | DISPFlagDefinition, unit: !209, templateParams: !360, retainedNodes: !359)
!356 = !DINamespace(name: "hint", scope: !51)
!357 = !DISubroutineType(types: !358)
!358 = !{null, !7}
!359 = !{!352}
!360 = !{!351}
!361 = !DILocation(line: 285, column: 27, scope: !353, inlinedAt: !362)
!362 = !DILocation(line: 158, column: 5, scope: !348)
!363 = !DILocation(line: 155, column: 9, scope: !348)
!364 = !DILocation(line: 151, column: 43, scope: !339)
!365 = !DILocation(line: 155, column: 18, scope: !339)
!366 = !DILocation(line: 286, column: 5, scope: !353, inlinedAt: !362)
!367 = !{i32 3558172}
!368 = !DILocation(line: 161, column: 2, scope: !339)
!369 = distinct !DISubprogram(name: "read", linkageName: "_ZN3std2io5impls60_$LT$impl$u20$std..io..Read$u20$for$u20$$RF$$u5b$u8$u5d$$GT$4read17h408fc840a3c5fe98E", scope: !371, file: !370, line: 235, type: !373, scopeLine: 235, flags: DIFlagPrototyped, spFlags: DISPFlagLocalToUnit | DISPFlagDefinition, unit: !209, templateParams: !23, retainedNodes: !458)
!370 = !DIFile(filename: "/rustc/07dca489ac2d933c78d3c5158e3f43beefeb02ce/library/std/src/io/impls.rs", directory: "", checksumkind: CSK_MD5, checksum: "4eeba2116ba8a769f800e3b6c015d0f7")
!371 = !DINamespace(name: "{impl#8}", scope: !372)
!372 = !DINamespace(name: "impls", scope: !214)
!373 = !DISubroutineType(types: !374)
!374 = !{!375, !148, !454}
!375 = !DICompositeType(tag: DW_TAG_structure_type, name: "Result<usize, std::io::error::Error>", scope: !376, file: !2, size: 128, align: 64, flags: DIFlagPublic, elements: !377, templateParams: !23, identifier: "234be43002d499788377ec9ae812a734")
!376 = !DINamespace(name: "result", scope: !51)
!377 = !{!378}
!378 = !DICompositeType(tag: DW_TAG_variant_part, scope: !375, file: !2, size: 128, align: 64, elements: !379, templateParams: !23, identifier: "18aecfbfdf3832902755254a8fd5d04", discriminator: !453)
!379 = !{!380, !449}
!380 = !DIDerivedType(tag: DW_TAG_member, name: "Ok", scope: !378, file: !2, baseType: !381, size: 128, align: 64, extraData: i128 0)
!381 = !DICompositeType(tag: DW_TAG_structure_type, name: "Ok", scope: !375, file: !2, size: 128, align: 64, flags: DIFlagPublic, elements: !382, templateParams: !384, identifier: "738de33cbc302617736383190eed4c34")
!382 = !{!383}
!383 = !DIDerivedType(tag: DW_TAG_member, name: "__0", scope: !381, file: !2, baseType: !9, size: 64, align: 64, offset: 64, flags: DIFlagPublic)
!384 = !{!385, !386}
