; ModuleID = 'build_script_build.2fe62da2c22aa3cd-cgu.0'
source_filename = "build_script_build.2fe62da2c22aa3cd-cgu.0"
target datalayout = "e-m:e-p270:32:32-p271:32:32-p272:64:64-i64:64-f80:128-n8:16:32:64-S128"
target triple = "x86_64-unknown-linux-gnu"

%"core::ptr::metadata::PtrComponents<[u8]>" = type { ptr, i64 }
%"core::ptr::metadata::PtrRepr<[u8]>" = type { [2 x i64] }
%"alloc::vec::Vec<u8>" = type { %"alloc::raw_vec::RawVec<u8>", i64 }
%"alloc::raw_vec::RawVec<u8>" = type { i64, ptr, %"alloc::alloc::Global" }
%"alloc::alloc::Global" = type {}
%"cc::Build" = type { %"core::option::Option<core::option::Option<alloc::sync::Arc<str>>>", %"alloc::vec::Vec<alloc::sync::Arc<std::path::Path>>", %"alloc::vec::Vec<(alloc::sync::Arc<str>, core::option::Option<alloc::sync::Arc<str>>)>", %"alloc::vec::Vec<alloc::sync::Arc<std::path::Path>>", %"alloc::vec::Vec<alloc::sync::Arc<str>>", %"alloc::vec::Vec<alloc::sync::Arc<str>>", %"alloc::vec::Vec<alloc::sync::Arc<str>>", %"alloc::vec::Vec<alloc::sync::Arc<str>>", %"alloc::vec::Vec<alloc::sync::Arc<std::path::Path>>", %"alloc::vec::Vec<(alloc::sync::Arc<std::ffi::os_str::OsStr>, alloc::sync::Arc<std::ffi::os_str::OsStr>)>", %"alloc::vec::Vec<alloc::sync::Arc<str>>", %"cc::command_helpers::CargoOutput", ptr, ptr, ptr, ptr, ptr, %"core::option::Option<alloc::sync::Arc<str>>", %"core::option::Option<alloc::sync::Arc<str>>", %"core::option::Option<alloc::sync::Arc<str>>", %"core::option::Option<alloc::sync::Arc<str>>", %"core::option::Option<alloc::sync::Arc<str>>", %"core::option::Option<alloc::sync::Arc<std::path::Path>>", %"core::option::Option<alloc::sync::Arc<str>>", %"core::option::Option<alloc::sync::Arc<std::path::Path>>", %"core::option::Option<alloc::sync::Arc<std::path::Path>>", %"core::option::Option<alloc::sync::Arc<std::path::Path>>", i8, i8, i8, i8, i8, i8, i8, i8, i8, i8, i8, i8, i8, i8, [2 x i8] }
%"core::option::Option<core::option::Option<alloc::sync::Arc<str>>>" = type { i64, [2 x i64] }
%"alloc::vec::Vec<(alloc::sync::Arc<str>, core::option::Option<alloc::sync::Arc<str>>)>" = type { %"alloc::raw_vec::RawVec<(alloc::sync::Arc<str>, core::option::Option<alloc::sync::Arc<str>>)>", i64 }
%"alloc::raw_vec::RawVec<(alloc::sync::Arc<str>, core::option::Option<alloc::sync::Arc<str>>)>" = type { i64, ptr, %"alloc::alloc::Global" }
%"alloc::vec::Vec<alloc::sync::Arc<std::path::Path>>" = type { %"alloc::raw_vec::RawVec<alloc::sync::Arc<std::path::Path>>", i64 }
%"alloc::raw_vec::RawVec<alloc::sync::Arc<std::path::Path>>" = type { i64, ptr, %"alloc::alloc::Global" }
%"alloc::vec::Vec<(alloc::sync::Arc<std::ffi::os_str::OsStr>, alloc::sync::Arc<std::ffi::os_str::OsStr>)>" = type { %"alloc::raw_vec::RawVec<(alloc::sync::Arc<std::ffi::os_str::OsStr>, alloc::sync::Arc<std::ffi::os_str::OsStr>)>", i64 }
%"alloc::raw_vec::RawVec<(alloc::sync::Arc<std::ffi::os_str::OsStr>, alloc::sync::Arc<std::ffi::os_str::OsStr>)>" = type { i64, ptr, %"alloc::alloc::Global" }
%"alloc::vec::Vec<alloc::sync::Arc<str>>" = type { %"alloc::raw_vec::RawVec<alloc::sync::Arc<str>>", i64 }
%"alloc::raw_vec::RawVec<alloc::sync::Arc<str>>" = type { i64, ptr, %"alloc::alloc::Global" }
%"cc::command_helpers::CargoOutput" = type { ptr, i8, i8, i8, [5 x i8] }
%"core::option::Option<alloc::sync::Arc<str>>" = type { ptr, [1 x i64] }
%"core::option::Option<alloc::sync::Arc<std::path::Path>>" = type { ptr, [1 x i64] }
%"alloc::sync::Arc<str>" = type { %"core::ptr::non_null::NonNull<alloc::sync::ArcInner<str>>", %"core::marker::PhantomData<alloc::sync::ArcInner<str>>", %"alloc::alloc::Global" }
%"core::ptr::non_null::NonNull<alloc::sync::ArcInner<str>>" = type { { ptr, i64 } }
%"core::marker::PhantomData<alloc::sync::ArcInner<str>>" = type {}
%"std::fs::DirBuilder" = type { i32, i8, [3 x i8] }
%"core::result::Result<alloc::string::String, std::io::error::Error>" = type { i64, [2 x i64] }
%"core::result::Result<u64, std::io::error::Error>" = type { i64, [1 x i64] }
%"std::path::PathBuf" = type { %"std::ffi::os_str::OsString" }
%"std::ffi::os_str::OsString" = type { %"std::sys::os_str::bytes::Buf" }
%"std::sys::os_str::bytes::Buf" = type { %"alloc::vec::Vec<u8>" }
%"core::result::Result<std::fs::Metadata, std::io::error::Error>" = type { i64, [21 x i64] }
%"core::result::Result<&str, core::str::error::Utf8Error>" = type { i64, [2 x i64] }
%"core::option::Option<&str>" = type { ptr, [1 x i64] }
%"core::result::Result<&str, core::str::error::Utf8Error>::Ok" = type { [1 x i64], { ptr, i64 } }
%"std::path::Display<'_>" = type { { ptr, i64 } }
%"core::slice::iter::Iter<'_, &str>" = type { ptr, ptr, %"core::marker::PhantomData<&&str>" }
%"core::marker::PhantomData<&&str>" = type {}
%"alloc::string::String" = type { %"alloc::vec::Vec<u8>" }
%"core::fmt::Formatter<'_>" = type { %"core::option::Option<usize>", %"core::option::Option<usize>", { ptr, ptr }, i32, i32, i8, [7 x i8] }
%"core::option::Option<usize>" = type { i64, [1 x i64] }
%"core::fmt::Arguments<'_>" = type { { ptr, i64 }, { ptr, i64 }, %"core::option::Option<&[core::fmt::rt::Placeholder]>" }
%"core::option::Option<&[core::fmt::rt::Placeholder]>" = type { ptr, [1 x i64] }
%"core::str::iter::SplitWhitespace<'_>" = type { %"core::iter::adapters::filter::Filter<core::str::iter::Split<'_, core::str::IsWhitespace>, core::str::IsNotEmpty>" }
%"core::iter::adapters::filter::Filter<core::str::iter::Split<'_, core::str::IsWhitespace>, core::str::IsNotEmpty>" = type { %"core::str::iter::Split<'_, core::str::IsWhitespace>", %"core::str::IsNotEmpty" }
%"core::str::iter::Split<'_, core::str::IsWhitespace>" = type { %"core::str::iter::SplitInternal<'_, core::str::IsWhitespace>" }
%"core::str::iter::SplitInternal<'_, core::str::IsWhitespace>" = type { i64, i64, %"core::str::pattern::CharPredicateSearcher<'_, core::str::IsWhitespace>", i8, i8, [6 x i8] }
%"core::str::pattern::CharPredicateSearcher<'_, core::str::IsWhitespace>" = type { %"core::str::pattern::MultiCharEqSearcher<'_, core::str::IsWhitespace>" }
%"core::str::pattern::MultiCharEqSearcher<'_, core::str::IsWhitespace>" = type { { ptr, i64 }, %"core::str::iter::CharIndices<'_>", %"core::str::IsWhitespace" }
%"core::str::iter::CharIndices<'_>" = type { %"core::str::iter::Chars<'_>", i64 }
%"core::str::iter::Chars<'_>" = type { %"core::slice::iter::Iter<'_, u8>" }
%"core::slice::iter::Iter<'_, u8>" = type { ptr, ptr, %"core::marker::PhantomData<&u8>" }
%"core::marker::PhantomData<&u8>" = type {}
%"core::str::IsWhitespace" = type {}
%"core::str::IsNotEmpty" = type {}
%"core::str::pattern::CharSearcher<'_>" = type { { ptr, i64 }, i64, i64, i64, [4 x i8], i32 }
%"core::option::Option<(usize, usize)>" = type { i64, [2 x i64] }
%"core::option::Option<(usize, usize)>::Some" = type { [1 x i64], { i64, i64 } }
%"core::str::iter::Lines<'_>" = type { %"core::iter::adapters::map::Map<core::str::iter::SplitInclusive<'_, char>, core::str::LinesMap>" }
%"core::iter::adapters::map::Map<core::str::iter::SplitInclusive<'_, char>, core::str::LinesMap>" = type { %"core::str::iter::SplitInclusive<'_, char>", %"core::str::LinesMap" }
%"core::str::iter::SplitInclusive<'_, char>" = type { %"core::str::iter::SplitInternal<'_, char>" }
%"core::str::iter::SplitInternal<'_, char>" = type { i64, i64, %"core::str::pattern::CharSearcher<'_>", i8, i8, [6 x i8] }
%"core::str::LinesMap" = type {}
%"core::result::Result<usize, core::num::error::ParseIntError>" = type { i8, [15 x i8] }
%"core::ops::range::Range<usize>" = type { i64, i64 }
%"core::fmt::rt::Argument<'_>" = type { ptr, ptr }
%"core::alloc::layout::Layout" = type { i64, i64 }
%"core::result::Result<core::alloc::layout::Layout, core::alloc::layout::LayoutError>" = type { i64, [1 x i64] }
%"core::option::Option<u8>" = type { i8, [1 x i8] }
%"core::result::Result<u8, core::num::error::ParseIntError>" = type { i8, [1 x i8] }
%"core::option::Option<std::process::Output>" = type { i64, [6 x i64] }
%"std::process::Output" = type { %"alloc::vec::Vec<u8>", %"alloc::vec::Vec<u8>", i32, [1 x i32] }
%"core::option::Option<std::process::ExitStatus>" = type { i32, [1 x i32] }
%"core::result::Result<std::process::ExitStatus, std::io::error::Error>::Ok" = type { [1 x i32], i32 }
%"alloc::sync::Arc<std::path::Path>" = type { %"core::ptr::non_null::NonNull<alloc::sync::ArcInner<std::path::Path>>", %"core::marker::PhantomData<alloc::sync::ArcInner<std::path::Path>>", %"alloc::alloc::Global" }
%"core::ptr::non_null::NonNull<alloc::sync::ArcInner<std::path::Path>>" = type { { ptr, i64 } }
%"core::marker::PhantomData<alloc::sync::ArcInner<std::path::Path>>" = type {}
%"core::result::Result<(), alloc::collections::TryReserveErrorKind>" = type { i64, [1 x i64] }
%"core::result::Result<core::convert::Infallible, alloc::collections::TryReserveError>::Err" = type { %"alloc::collections::TryReserveError" }
%"alloc::collections::TryReserveError" = type { %"alloc::collections::TryReserveErrorKind" }
%"alloc::collections::TryReserveErrorKind" = type { i64, [1 x i64] }
%"core::result::Result<core::convert::Infallible, alloc::collections::TryReserveErrorKind>::Err" = type { %"alloc::collections::TryReserveErrorKind" }
%"core::option::Option<(core::ptr::non_null::NonNull<u8>, core::alloc::layout::Layout)>" = type { [1 x i64], i64, [1 x i64] }
%"core::result::Result<core::ptr::non_null::NonNull<[u8]>, alloc::collections::TryReserveError>" = type { i64, [2 x i64] }
%"core::ops::control_flow::ControlFlow<core::result::Result<core::convert::Infallible, alloc::collections::TryReserveError>, core::ptr::non_null::NonNull<[u8]>>" = type { i64, [2 x i64] }
%"core::result::Result<usize, alloc::collections::TryReserveErrorKind>" = type { i64, [1 x i64] }
%"core::ops::control_flow::ControlFlow<core::result::Result<core::convert::Infallible, alloc::collections::TryReserveErrorKind>, usize>" = type { i64, [1 x i64] }
%"core::result::Result<(), alloc::collections::TryReserveError>" = type { i64, [1 x i64] }
%"core::result::Result<usize, alloc::collections::TryReserveErrorKind>::Ok" = type { [1 x i64], i64 }
%"core::ops::control_flow::ControlFlow<core::result::Result<core::convert::Infallible, alloc::collections::TryReserveErrorKind>, usize>::Continue" = type { [1 x i64], i64 }
%"core::result::Result<core::ptr::non_null::NonNull<[u8]>, alloc::collections::TryReserveError>::Ok" = type { [1 x i64], %"core::ptr::non_null::NonNull<[u8]>" }
%"core::ptr::non_null::NonNull<[u8]>" = type { { ptr, i64 } }
%"core::ops::control_flow::ControlFlow<core::result::Result<core::convert::Infallible, alloc::collections::TryReserveError>, core::ptr::non_null::NonNull<[u8]>>::Continue" = type { [1 x i64], %"core::ptr::non_null::NonNull<[u8]>" }
%"core::result::Result<core::ptr::non_null::NonNull<[u8]>, alloc::collections::TryReserveError>::Err" = type { [1 x i64], %"alloc::collections::TryReserveError" }
%"core::ops::control_flow::ControlFlow<core::result::Result<core::convert::Infallible, alloc::collections::TryReserveError>, core::ptr::non_null::NonNull<[u8]>>::Break" = type { [1 x i64], %"core::result::Result<core::convert::Infallible, alloc::collections::TryReserveError>::Err" }
%"core::ops::control_flow::ControlFlow<core::option::Option<core::convert::Infallible>, std::process::ExitStatus>" = type { i32, [1 x i32] }
%"core::ops::control_flow::ControlFlow<core::option::Option<core::convert::Infallible>, std::process::Output>" = type { i64, [6 x i64] }
%"core::option::Option<&[u8]>" = type { ptr, [1 x i64] }
%"core::ops::control_flow::ControlFlow<core::option::Option<core::convert::Infallible>, &[u8]>" = type { ptr, [1 x i64] }
%"core::ops::control_flow::ControlFlow<&str>" = type { ptr, [1 x i64] }
%"std::env::VarError" = type { i64, [2 x i64] }
%"core::result::Result<alloc::string::String, std::env::VarError>" = type { i64, [3 x i64] }
%"core::option::Option<std::ffi::os_str::OsString>" = type { i64, [2 x i64] }
%"core::option::Option<alloc::string::String>" = type { i64, [2 x i64] }
%"std::process::Command" = type { %"std::sys::pal::unix::process::process_common::Command" }
%"std::sys::pal::unix::process::process_common::Command" = type { %"alloc::vec::Vec<alloc::ffi::c_str::CString>", %"std::sys::pal::unix::process::process_common::Argv", %"alloc::vec::Vec<alloc::boxed::Box<dyn core::ops::function::FnMut() -> core::result::Result<(), std::io::error::Error> + core::marker::Send + core::marker::Sync>>", %"core::option::Option<u32>", %"core::option::Option<u32>", %"core::option::Option<i32>", %"core::option::Option<std::sys::pal::unix::process::process_common::Stdio>", %"core::option::Option<std::sys::pal::unix::process::process_common::Stdio>", %"core::option::Option<std::sys::pal::unix::process::process_common::Stdio>", %"std::sys_common::process::CommandEnv", %"alloc::ffi::c_str::CString", %"core::option::Option<alloc::ffi::c_str::CString>", %"core::option::Option<alloc::boxed::Box<[u32]>>", i8, i8, i8, [5 x i8] }
%"alloc::vec::Vec<alloc::ffi::c_str::CString>" = type { %"alloc::raw_vec::RawVec<alloc::ffi::c_str::CString>", i64 }
%"alloc::raw_vec::RawVec<alloc::ffi::c_str::CString>" = type { i64, ptr, %"alloc::alloc::Global" }
%"std::sys::pal::unix::process::process_common::Argv" = type { %"alloc::vec::Vec<*const i8>" }
%"alloc::vec::Vec<*const i8>" = type { %"alloc::raw_vec::RawVec<*const i8>", i64 }
%"alloc::raw_vec::RawVec<*const i8>" = type { i64, ptr, %"alloc::alloc::Global" }
%"alloc::vec::Vec<alloc::boxed::Box<dyn core::ops::function::FnMut() -> core::result::Result<(), std::io::error::Error> + core::marker::Send + core::marker::Sync>>" = type { %"alloc::raw_vec::RawVec<alloc::boxed::Box<dyn core::ops::function::FnMut() -> core::result::Result<(), std::io::error::Error> + core::marker::Send + core::marker::Sync>>", i64 }
%"alloc::raw_vec::RawVec<alloc::boxed::Box<dyn core::ops::function::FnMut() -> core::result::Result<(), std::io::error::Error> + core::marker::Send + core::marker::Sync>>" = type { i64, ptr, %"alloc::alloc::Global" }
%"core::option::Option<u32>" = type { i32, [1 x i32] }
%"core::option::Option<i32>" = type { i32, [1 x i32] }
%"core::option::Option<std::sys::pal::unix::process::process_common::Stdio>" = type { i32, [1 x i32] }
%"std::sys_common::process::CommandEnv" = type { %"alloc::collections::btree::map::BTreeMap<std::ffi::os_str::OsString, core::option::Option<std::ffi::os_str::OsString>>", i8, i8, [6 x i8] }
%"alloc::collections::btree::map::BTreeMap<std::ffi::os_str::OsString, core::option::Option<std::ffi::os_str::OsString>>" = type { %"core::option::Option<alloc::collections::btree::node::NodeRef<alloc::collections::btree::node::marker::Owned, std::ffi::os_str::OsString, core::option::Option<std::ffi::os_str::OsString>, alloc::collections::btree::node::marker::LeafOrInternal>>", i64, %"core::mem::manually_drop::ManuallyDrop<alloc::alloc::Global>", %"core::marker::PhantomData<alloc::boxed::Box<(std::ffi::os_str::OsString, core::option::Option<std::ffi::os_str::OsString>)>>" }
%"core::option::Option<alloc::collections::btree::node::NodeRef<alloc::collections::btree::node::marker::Owned, std::ffi::os_str::OsString, core::option::Option<std::ffi::os_str::OsString>, alloc::collections::btree::node::marker::LeafOrInternal>>" = type { ptr, [1 x i64] }
%"core::mem::manually_drop::ManuallyDrop<alloc::alloc::Global>" = type { %"alloc::alloc::Global" }
%"core::marker::PhantomData<alloc::boxed::Box<(std::ffi::os_str::OsString, core::option::Option<std::ffi::os_str::OsString>)>>" = type {}
%"alloc::ffi::c_str::CString" = type { %"alloc::boxed::Box<[u8]>" }
%"alloc::boxed::Box<[u8]>" = type { %"core::ptr::unique::Unique<[u8]>", %"alloc::alloc::Global" }
%"core::ptr::unique::Unique<[u8]>" = type { %"core::ptr::non_null::NonNull<[u8]>", %"core::marker::PhantomData<[u8]>" }
%"core::marker::PhantomData<[u8]>" = type {}
%"core::option::Option<alloc::ffi::c_str::CString>" = type { ptr, [1 x i64] }
%"core::option::Option<alloc::boxed::Box<[u32]>>" = type { ptr, [1 x i64] }
%"core::result::Result<std::process::ExitStatus, std::io::error::Error>" = type { i32, [3 x i32] }
%"core::result::Result<alloc::string::String, std::env::VarError>::Err" = type { [1 x i64], %"std::env::VarError" }
%"core::result::Result<alloc::string::String, std::env::VarError>::Ok" = type { [1 x i64], %"alloc::string::String" }
%"core::result::Result<alloc::string::String, std::io::error::Error>::Err" = type { [1 x i64], ptr }
%"core::result::Result<usize, core::num::error::ParseIntError>::Err" = type { [1 x i8], i8 }
%"core::result::Result<usize, core::num::error::ParseIntError>::Ok" = type { [1 x i64], i64 }
%"core::result::Result<u64, std::io::error::Error>::Err" = type { [1 x i64], ptr }
%"core::result::Result<u64, std::io::error::Error>::Ok" = type { [1 x i64], i64 }
%"pkg_config::Error" = type { i64, [13 x i64] }
%"core::slice::iter::Iter<'_, std::path::PathBuf>" = type { ptr, ptr, %"core::marker::PhantomData<&std::path::PathBuf>" }
%"core::marker::PhantomData<&std::path::PathBuf>" = type {}
%"core::result::Result<pkg_config::Library, pkg_config::Error>" = type { i64, [29 x i64] }
%"pkg_config::Library" = type { %"alloc::vec::Vec<alloc::string::String>", %"alloc::vec::Vec<std::path::PathBuf>", %"alloc::vec::Vec<std::path::PathBuf>", %"alloc::vec::Vec<alloc::string::String>", %"alloc::vec::Vec<std::path::PathBuf>", %"alloc::vec::Vec<std::path::PathBuf>", %"alloc::vec::Vec<alloc::vec::Vec<alloc::string::String>>", %"alloc::string::String", %"std::collections::hash::map::HashMap<alloc::string::String, core::option::Option<alloc::string::String>>", {} }
%"alloc::vec::Vec<alloc::string::String>" = type { %"alloc::raw_vec::RawVec<alloc::string::String>", i64 }
%"alloc::raw_vec::RawVec<alloc::string::String>" = type { i64, ptr, %"alloc::alloc::Global" }
%"alloc::vec::Vec<std::path::PathBuf>" = type { %"alloc::raw_vec::RawVec<std::path::PathBuf>", i64 }
%"alloc::raw_vec::RawVec<std::path::PathBuf>" = type { i64, ptr, %"alloc::alloc::Global" }
%"alloc::vec::Vec<alloc::vec::Vec<alloc::string::String>>" = type { %"alloc::raw_vec::RawVec<alloc::vec::Vec<alloc::string::String>>", i64 }
%"alloc::raw_vec::RawVec<alloc::vec::Vec<alloc::string::String>>" = type { i64, ptr, %"alloc::alloc::Global" }
%"std::collections::hash::map::HashMap<alloc::string::String, core::option::Option<alloc::string::String>>" = type { %"hashbrown::map::HashMap<alloc::string::String, core::option::Option<alloc::string::String>, std::hash::random::RandomState>" }
%"hashbrown::map::HashMap<alloc::string::String, core::option::Option<alloc::string::String>, std::hash::random::RandomState>" = type { %"hashbrown::raw::RawTable<(alloc::string::String, core::option::Option<alloc::string::String>)>", %"std::hash::random::RandomState" }
%"hashbrown::raw::RawTable<(alloc::string::String, core::option::Option<alloc::string::String>)>" = type { %"hashbrown::raw::RawTableInner", %"alloc::alloc::Global", %"core::marker::PhantomData<(alloc::string::String, core::option::Option<alloc::string::String>)>" }
%"hashbrown::raw::RawTableInner" = type { ptr, i64, i64, i64 }
%"core::marker::PhantomData<(alloc::string::String, core::option::Option<alloc::string::String>)>" = type {}
%"std::hash::random::RandomState" = type { i64, i64 }
%"pkg_config::Config" = type { %"core::ops::range::Bound<alloc::string::String>", %"core::ops::range::Bound<alloc::string::String>", %"alloc::vec::Vec<std::ffi::os_str::OsString>", i8, i8, i8, i8, i8, [3 x i8] }
%"core::ops::range::Bound<alloc::string::String>" = type { i64, [3 x i64] }
%"alloc::vec::Vec<std::ffi::os_str::OsString>" = type { %"alloc::raw_vec::RawVec<std::ffi::os_str::OsString>", i64 }
%"alloc::raw_vec::RawVec<std::ffi::os_str::OsString>" = type { i64, ptr, %"alloc::alloc::Global" }
%"core::result::Result<pkg_config::Library, pkg_config::Error>::Err" = type { [1 x i64], %"pkg_config::Error" }
%"core::ops::control_flow::ControlFlow<core::option::Option<core::convert::Infallible>, usize>" = type { i64, [1 x i64] }
%"core::ops::control_flow::ControlFlow<core::option::Option<core::convert::Infallible>, &str>" = type { ptr, [1 x i64] }
%"alloc::borrow::Cow<'_, str>" = type { i64, [2 x i64] }
%"core::result::Result<std::process::Output, std::io::error::Error>" = type { i64, [6 x i64] }
%"core::result::Result<std::process::Output, std::io::error::Error>::Err" = type { [1 x i64], ptr }
%"core::str::iter::Split<'_, char>" = type { %"core::str::iter::SplitInternal<'_, char>" }
%"cc::tool::Tool" = type { %"std::path::PathBuf", %"alloc::vec::Vec<std::ffi::os_str::OsString>", %"alloc::vec::Vec<std::ffi::os_str::OsString>", %"alloc::vec::Vec<(std::ffi::os_str::OsString, std::ffi::os_str::OsString)>", %"alloc::vec::Vec<std::ffi::os_str::OsString>", %"core::option::Option<std::path::PathBuf>", i8, i8, i8, [5 x i8] }
%"alloc::vec::Vec<(std::ffi::os_str::OsString, std::ffi::os_str::OsString)>" = type { %"alloc::raw_vec::RawVec<(std::ffi::os_str::OsString, std::ffi::os_str::OsString)>", i64 }
%"alloc::raw_vec::RawVec<(std::ffi::os_str::OsString, std::ffi::os_str::OsString)>" = type { i64, ptr, %"alloc::alloc::Global" }
%"core::option::Option<std::path::PathBuf>" = type { i64, [2 x i64] }

@alloc_67527e7f01caae1f1f4967efc1abf15c = private unnamed_addr constant <{ [88 x i8] }> <{ [88 x i8] c"/users/zyuxuan/.cargo/registry/src/index.crates.io-6f17d22bba15001f/cc-1.0.90/src/lib.rs" }>, align 1
@alloc_44f0d236733975b4be3c3e80e033fb5f = private unnamed_addr constant <{ ptr, [16 x i8] }> <{ ptr @alloc_67527e7f01caae1f1f4967efc1abf15c, [16 x i8] c"X\00\00\00\00\00\00\00\EC\02\00\00$\00\00\00" }>, align 8
@alloc_ffd874ee34b40f6ae04c98b67d5b882b = private unnamed_addr constant <{ ptr, [16 x i8] }> <{ ptr @alloc_67527e7f01caae1f1f4967efc1abf15c, [16 x i8] c"X\00\00\00\00\00\00\00\E2\01\00\00\18\00\00\00" }>, align 8
@alloc_082f566b94d9d059b448fe6ee5015d1d = private unnamed_addr constant <{ ptr, [16 x i8] }> <{ ptr @alloc_67527e7f01caae1f1f4967efc1abf15c, [16 x i8] c"X\00\00\00\00\00\00\00\E2\01\00\00$\00\00\00" }>, align 8
@alloc_712121e53757fd1f55fde93d375521d5 = private unnamed_addr constant <{ ptr, [16 x i8] }> <{ ptr @alloc_67527e7f01caae1f1f4967efc1abf15c, [16 x i8] c"X\00\00\00\00\00\00\00\B4\01\00\004\00\00\00" }>, align 8
@alloc_aa34e077fe0f7bfadf007445d2cc78c1 = private unnamed_addr constant <{ ptr, [16 x i8] }> <{ ptr @alloc_67527e7f01caae1f1f4967efc1abf15c, [16 x i8] c"X\00\00\00\00\00\00\001\04\00\00.\00\00\00" }>, align 8
@vtable.0 = private unnamed_addr constant <{ ptr, [16 x i8], ptr, ptr, ptr }> <{ ptr @"_ZN4core3ptr85drop_in_place$LT$std..rt..lang_start$LT$$LP$$RP$$GT$..$u7b$$u7b$closure$u7d$$u7d$$GT$17h2d194b7a57cd1740E", [16 x i8] c"\08\00\00\00\00\00\00\00\08\00\00\00\00\00\00\00", ptr @"_ZN4core3ops8function6FnOnce40call_once$u7b$$u7b$vtable.shim$u7d$$u7d$17hb50a8e86fdad0605E", ptr @"_ZN3std2rt10lang_start28_$u7b$$u7b$closure$u7d$$u7d$17h17d7daf89267a5a1E", ptr @"_ZN3std2rt10lang_start28_$u7b$$u7b$closure$u7d$$u7d$17h17d7daf89267a5a1E" }>, align 8
@0 = private unnamed_addr constant <{ [8 x i8], [8 x i8] }> <{ [8 x i8] zeroinitializer, [8 x i8] undef }>, align 8
@vtable.1 = private unnamed_addr constant <{ ptr, [16 x i8], ptr, ptr, ptr }> <{ ptr @"_ZN4core3ptr42drop_in_place$LT$alloc..string..String$GT$17hda72216013508a8fE", [16 x i8] c"\18\00\00\00\00\00\00\00\08\00\00\00\00\00\00\00", ptr @"_ZN58_$LT$alloc..string..String$u20$as$u20$core..fmt..Write$GT$9write_str17h8469099c3139246bE", ptr @"_ZN58_$LT$alloc..string..String$u20$as$u20$core..fmt..Write$GT$10write_char17haeb89619440de149E", ptr @_ZN4core3fmt5Write9write_fmt17hdcebb3c98fa6fcecE }>, align 8
@alloc_cc656815297f75969399c3f4b1ad3de4 = private unnamed_addr constant <{ [55 x i8] }> <{ [55 x i8] c"a Display implementation returned an error unexpectedly" }>, align 1
@alloc_c7087c6f3c7d63b09471cb63981ac0b7 = private unnamed_addr constant <{ [75 x i8] }> <{ [75 x i8] c"/rustc/aedd173a2c086e558c2b66d3743b344f977621a7/library/alloc/src/string.rs" }>, align 1
@alloc_0c55029f27e67500548c60265db33aa3 = private unnamed_addr constant <{ ptr, [16 x i8] }> <{ ptr @alloc_c7087c6f3c7d63b09471cb63981ac0b7, [16 x i8] c"K\00\00\00\00\00\00\003\0A\00\00\0E\00\00\00" }>, align 8
@alloc_91c7fa63c3cfeaa3c795652d5cf060e4 = private unnamed_addr constant <{ [12 x i8] }> <{ [12 x i8] c"invalid args" }>, align 1
@alloc_af99043bc04c419363a7f04d23183506 = private unnamed_addr constant <{ ptr, [8 x i8] }> <{ ptr @alloc_91c7fa63c3cfeaa3c795652d5cf060e4, [8 x i8] c"\0C\00\00\00\00\00\00\00" }>, align 8
@alloc_513570631223a12912d85da2bec3b15a = private unnamed_addr constant <{}> zeroinitializer, align 8
@alloc_6de2818331109612dbb09d5e2073dc73 = private unnamed_addr constant <{ [75 x i8] }> <{ [75 x i8] c"/rustc/aedd173a2c086e558c2b66d3743b344f977621a7/library/core/src/fmt/mod.rs" }>, align 1
@alloc_b96933a8148f906cfb135db9ebeba42b = private unnamed_addr constant <{ ptr, [16 x i8] }> <{ ptr @alloc_6de2818331109612dbb09d5e2073dc73, [16 x i8] c"K\00\00\00\00\00\00\00M\01\00\00\0D\00\00\00" }>, align 8
@alloc_b1c9b46fd6543b9e0f93a51d745efa2a = private unnamed_addr constant <{ ptr, [16 x i8] }> <{ ptr @alloc_6de2818331109612dbb09d5e2073dc73, [16 x i8] c"K\00\00\00\00\00\00\00C\01\00\00\0D\00\00\00" }>, align 8
@alloc_e914be7f8fce916f07c1ae1413cc9dfd = private unnamed_addr constant <{ [80 x i8] }> <{ [80 x i8] c"/rustc/aedd173a2c086e558c2b66d3743b344f977621a7/library/core/src/ops/function.rs" }>, align 1
@alloc_0d223ac45aeacda317fdfe30ec7b7f45 = private unnamed_addr constant <{ ptr, [16 x i8] }> <{ ptr @alloc_e914be7f8fce916f07c1ae1413cc9dfd, [16 x i8] c"P\00\00\00\00\00\00\00\FA\00\00\00\05\00\00\00" }>, align 8
@alloc_b424893d6bb704b6d451a9d0687c3d41 = private unnamed_addr constant <{ [80 x i8] }> <{ [80 x i8] c"/rustc/aedd173a2c086e558c2b66d3743b344f977621a7/library/core/src/char/methods.rs" }>, align 1
@alloc_7a7f897cbce61fe5aefd1aacce65247e = private unnamed_addr constant <{ ptr, [16 x i8] }> <{ ptr @alloc_b424893d6bb704b6d451a9d0687c3d41, [16 x i8] c"P\00\00\00\00\00\00\00\05\07\00\00\0D\00\00\00" }>, align 8
@alloc_6b031f9bca8204235732c7c365d04a1d = private unnamed_addr constant <{ [18 x i8] }> <{ [18 x i8] c"encode_utf8: need " }>, align 1
@alloc_28d13efb0f9a95ccb5d02ec33dd195cf = private unnamed_addr constant <{ [19 x i8] }> <{ [19 x i8] c" bytes to encode U+" }>, align 1
@alloc_0d928972d2befd736e581c7fcc5a2f9a = private unnamed_addr constant <{ [21 x i8] }> <{ [21 x i8] c", but the buffer has " }>, align 1
@alloc_d51214f097f67314513b76e97e13aa6b = private unnamed_addr constant <{ ptr, [8 x i8], ptr, [8 x i8], ptr, [8 x i8] }> <{ ptr @alloc_6b031f9bca8204235732c7c365d04a1d, [8 x i8] c"\12\00\00\00\00\00\00\00", ptr @alloc_28d13efb0f9a95ccb5d02ec33dd195cf, [8 x i8] c"\13\00\00\00\00\00\00\00", ptr @alloc_0d928972d2befd736e581c7fcc5a2f9a, [8 x i8] c"\15\00\00\00\00\00\00\00" }>, align 8
@alloc_9cd042eb6cb0d992fdeb8ae2db92c748 = private unnamed_addr constant <{ ptr, [16 x i8] }> <{ ptr @alloc_b424893d6bb704b6d451a9d0687c3d41, [16 x i8] c"P\00\00\00\00\00\00\00\FE\06\00\00\0E\00\00\00" }>, align 8
@alloc_4713d75e44433589dc609fdbfa49699b = private unnamed_addr constant <{ [80 x i8] }> <{ [80 x i8] c"/rustc/aedd173a2c086e558c2b66d3743b344f977621a7/library/core/src/alloc/layout.rs" }>, align 1
@alloc_37f08cc86d215bcabda8bef18acdfc7b = private unnamed_addr constant <{ ptr, [16 x i8] }> <{ ptr @alloc_4713d75e44433589dc609fdbfa49699b, [16 x i8] c"P\00\00\00\00\00\00\00\C1\01\00\00)\00\00\00" }>, align 8
@str.2 = internal unnamed_addr constant [25 x i8] c"attempt to divide by zero"
@alloc_bd805024091ca8424320dc57c3ae5ba9 = private unnamed_addr constant <{ [80 x i8] }> <{ [80 x i8] c"/rustc/aedd173a2c086e558c2b66d3743b344f977621a7/library/core/src/slice/memchr.rs" }>, align 1
@alloc_fd72864725e1c47897c83be58a9099d6 = private unnamed_addr constant <{ ptr, [16 x i8] }> <{ ptr @alloc_bd805024091ca8424320dc57c3ae5ba9, [16 x i8] c"P\00\00\00\00\00\00\00+\00\00\00\0C\00\00\00" }>, align 8
@alloc_00ae4b301f7fab8ac9617c03fcbd7274 = private unnamed_addr constant <{ [43 x i8] }> <{ [43 x i8] c"called `Result::unwrap()` on an `Err` value" }>, align 1
@vtable.3 = private unnamed_addr constant <{ ptr, [16 x i8], ptr }> <{ ptr @"_ZN4core3ptr52drop_in_place$LT$core..num..error..ParseIntError$GT$17h8ace12e6abe0c0c8E", [16 x i8] c"\01\00\00\00\00\00\00\00\01\00\00\00\00\00\00\00", ptr @"_ZN68_$LT$core..num..error..ParseIntError$u20$as$u20$core..fmt..Debug$GT$3fmt17h179f0c4c93d960c3E" }>, align 8
@vtable.4 = private unnamed_addr constant <{ ptr, [16 x i8], ptr }> <{ ptr @"_ZN4core3ptr38drop_in_place$LT$pkg_config..Error$GT$17hbc8fa24b9a75e2f8E", [16 x i8] c"p\00\00\00\00\00\00\00\08\00\00\00\00\00\00\00", ptr @"_ZN54_$LT$pkg_config..Error$u20$as$u20$core..fmt..Debug$GT$3fmt17hfc4da051e3c0875dE" }>, align 8
@vtable.5 = private unnamed_addr constant <{ ptr, [16 x i8], ptr }> <{ ptr @"_ZN4core3ptr42drop_in_place$LT$std..io..error..Error$GT$17h4cd2efc890f62cf8E", [16 x i8] c"\08\00\00\00\00\00\00\00\08\00\00\00\00\00\00\00", ptr @"_ZN58_$LT$std..io..error..Error$u20$as$u20$core..fmt..Debug$GT$3fmt17hc3b32420e3f10c71E" }>, align 8
@vtable.6 = private unnamed_addr constant <{ ptr, [16 x i8], ptr }> <{ ptr @"_ZN4core3ptr39drop_in_place$LT$std..env..VarError$GT$17hbd649c907ae9d0a3E", [16 x i8] c"\18\00\00\00\00\00\00\00\08\00\00\00\00\00\00\00", ptr @"_ZN55_$LT$std..env..VarError$u20$as$u20$core..fmt..Debug$GT$3fmt17h6b39259146cec576E" }>, align 8
@alloc_1c5ece773fe9d8a26ac674de79674b77 = private unnamed_addr constant <{ [10 x i8] }> <{ [10 x i8] c"NotPresent" }>, align 1
@alloc_19adf04fb909e90136daf37b5ff22508 = private unnamed_addr constant <{ [10 x i8] }> <{ [10 x i8] c"NotUnicode" }>, align 1
@vtable.7 = private unnamed_addr constant <{ ptr, [16 x i8], ptr }> <{ ptr @"_ZN4core3ptr51drop_in_place$LT$$RF$std..ffi..os_str..OsString$GT$17hfb1138cc8be0d8bcE", [16 x i8] c"\08\00\00\00\00\00\00\00\08\00\00\00\00\00\00\00", ptr @"_ZN42_$LT$$RF$T$u20$as$u20$core..fmt..Debug$GT$3fmt17hc91e2147c4f04774E" }>, align 8
@1 = private unnamed_addr constant <{ [8 x i8], [8 x i8] }> <{ [8 x i8] c"\01\00\00\00\00\00\00\80", [8 x i8] undef }>, align 8
@alloc_f62df14955f7d78bca139b0a7668683d = private unnamed_addr constant <{ [13 x i8] }> <{ [13 x i8] c"ParseIntError" }>, align 1
@alloc_a5d866b1768ad3f826bccdb004a1a8ae = private unnamed_addr constant <{ [4 x i8] }> <{ [4 x i8] c"kind" }>, align 1
@vtable.8 = private unnamed_addr constant <{ ptr, [16 x i8], ptr }> <{ ptr @"_ZN4core3ptr55drop_in_place$LT$$RF$core..num..error..IntErrorKind$GT$17h565340c559ef3e58E", [16 x i8] c"\08\00\00\00\00\00\00\00\08\00\00\00\00\00\00\00", ptr @"_ZN42_$LT$$RF$T$u20$as$u20$core..fmt..Debug$GT$3fmt17he08b660811c0c282E" }>, align 8
@alloc_1b0254a3d4d07de785a4814dc89d512f = private unnamed_addr constant <{ [79 x i8] }> <{ [79 x i8] c"/rustc/aedd173a2c086e558c2b66d3743b344f977621a7/library/core/src/str/pattern.rs" }>, align 1
@alloc_b4da369ef54df77252123b7302c79f68 = private unnamed_addr constant <{ ptr, [16 x i8] }> <{ ptr @alloc_1b0254a3d4d07de785a4814dc89d512f, [16 x i8] c"O\00\00\00\00\00\00\00\B8\01\00\007\00\00\00" }>, align 8
@alloc_bbff5dc8a821734df37c187a824eb462 = private unnamed_addr constant <{ [28 x i8] }> <{ [28 x i8] c"cargo:rerun-if-changed=curl\0A" }>, align 1
@alloc_29e9ebaa4dbdd1ff99f78b1fe62ecbff = private unnamed_addr constant <{ ptr, [8 x i8] }> <{ ptr @alloc_bbff5dc8a821734df37c187a824eb462, [8 x i8] c"\1C\00\00\00\00\00\00\00" }>, align 8
@alloc_dcbc225a8ec7dbfaaef714ff8a7176fb = private unnamed_addr constant <{ [6 x i8] }> <{ [6 x i8] c"TARGET" }>, align 1
@alloc_fa09d0b46d4a02a3fb656c6ad68a8b34 = private unnamed_addr constant <{ [103 x i8] }> <{ [103 x i8] c"/users/zyuxuan/.cargo/registry/src/index.crates.io-6f17d22bba15001f/curl-sys-0.4.72+curl-8.6.0/build.rs" }>, align 1
@alloc_dccb06c12572541175bf3a8e6754ef63 = private unnamed_addr constant <{ ptr, [16 x i8] }> <{ ptr @alloc_fa09d0b46d4a02a3fb656c6ad68a8b34, [16 x i8] c"g\00\00\00\00\00\00\00\08\00\00\00%\00\00\00" }>, align 8
@alloc_e99d286d1113f206aa65d630ca15e87c = private unnamed_addr constant <{ [7 x i8] }> <{ [7 x i8] c"windows" }>, align 1
@alloc_246ab1949fad257a1803448b9ac38e4a = private unnamed_addr constant <{ [105 x i8] }> <{ [105 x i8] c"cargo:warning=MesaLink support has been removed as of curl 7.82.0, will use default TLS backend instead.\0A" }>, align 1
@alloc_68bdbbb71354a4465657ad69a3cfcf28 = private unnamed_addr constant <{ ptr, [8 x i8] }> <{ ptr @alloc_246ab1949fad257a1803448b9ac38e4a, [8 x i8] c"i\00\00\00\00\00\00\00" }>, align 8
@alloc_f5fa10d2bd50b965d2515db045847aab = private unnamed_addr constant <{ [5 x i8] }> <{ [5 x i8] c"apple" }>, align 1
@alloc_78e1ec2850787fe9d3e96d8ead3973c7 = private unnamed_addr constant <{ [26 x i8] }> <{ [26 x i8] c"cargo:rustc-flags=-l curl\0A" }>, align 1
@alloc_1034ff167bafcac296eb40b4db7f074d = private unnamed_addr constant <{ ptr, [8 x i8] }> <{ ptr @alloc_78e1ec2850787fe9d3e96d8ead3973c7, [8 x i8] c"\1A\00\00\00\00\00\00\00" }>, align 8
@alloc_674252e4f3c0b26e67e44ebdff73fe8b = private unnamed_addr constant <{ [9 x i8] }> <{ [9 x i8] c"curl/.git" }>, align 1
@alloc_cdfc4e78f247c8f22ab1984d38d502c8 = private unnamed_addr constant <{ [3 x i8] }> <{ [3 x i8] c"git" }>, align 1
@alloc_79d8d6c4d45bff77475a97d7c5002bf0 = private unnamed_addr constant <{ [9 x i8] }> <{ [9 x i8] c"submodule" }>, align 1
@alloc_1ca36c97ded9e336c44b8a1c34182e73 = private unnamed_addr constant <{ [6 x i8] }> <{ [6 x i8] c"update" }>, align 1
@alloc_29a3fbdf685d67a32ba43bc5f6f62f20 = private unnamed_addr constant <{ [6 x i8] }> <{ [6 x i8] c"--init" }>, align 1
@alloc_2e525b18535bbd88a7944d41c30912ff = private unnamed_addr constant <{ [4 x i8] }> <{ [4 x i8] c"curl" }>, align 1
@alloc_f9425f3dc202dcbf394d3caec4aa4b68 = private unnamed_addr constant <{ ptr, [8 x i8], ptr, [8 x i8], ptr, [8 x i8], ptr, [8 x i8] }> <{ ptr @alloc_79d8d6c4d45bff77475a97d7c5002bf0, [8 x i8] c"\09\00\00\00\00\00\00\00", ptr @alloc_1ca36c97ded9e336c44b8a1c34182e73, [8 x i8] c"\06\00\00\00\00\00\00\00", ptr @alloc_29a3fbdf685d67a32ba43bc5f6f62f20, [8 x i8] c"\06\00\00\00\00\00\00\00", ptr @alloc_2e525b18535bbd88a7944d41c30912ff, [8 x i8] c"\04\00\00\00\00\00\00\00" }>, align 8
@alloc_538923788716db5f8097f0ec164c4ff1 = private unnamed_addr constant <{ [34 x i8] }> <{ [34 x i8] c"cargo:rustc-link-lib=clang_rt.osx\0A" }>, align 1
@alloc_ed5e8e3636d72816c372d9aaf9618305 = private unnamed_addr constant <{ ptr, [8 x i8] }> <{ ptr @alloc_538923788716db5f8097f0ec164c4ff1, [8 x i8] c"\22\00\00\00\00\00\00\00" }>, align 8
@alloc_2fd307b68c9050da1aebc8078ba6abee = private unnamed_addr constant <{ [24 x i8] }> <{ [24 x i8] c"cargo:rustc-link-search=" }>, align 1
@alloc_49a1e817e911805af64bbc7efb390101 = private unnamed_addr constant <{ [1 x i8] }> <{ [1 x i8] c"\0A" }>, align 1
@alloc_90535b74c525e029fd57d3ffcbe304f9 = private unnamed_addr constant <{ ptr, [8 x i8], ptr, [8 x i8] }> <{ ptr @alloc_2fd307b68c9050da1aebc8078ba6abee, [8 x i8] c"\18\00\00\00\00\00\00\00", ptr @alloc_49a1e817e911805af64bbc7efb390101, [8 x i8] c"\01\00\00\00\00\00\00\00" }>, align 8
@alloc_ebcdb5f66b6f511cde89ece546cbdd6d = private unnamed_addr constant <{ [7 x i8] }> <{ [7 x i8] c"OUT_DIR" }>, align 1
@alloc_c2e143b9520641f02b26003ad861280c = private unnamed_addr constant <{ ptr, [16 x i8] }> <{ ptr @alloc_fa09d0b46d4a02a3fb656c6ad68a8b34, [16 x i8] c"g\00\00\00\00\00\00\009\00\00\004\00\00\00" }>, align 8
@alloc_a42e698403d5e517554d79b8613873cc = private unnamed_addr constant <{ [7 x i8] }> <{ [7 x i8] c"include" }>, align 1
@alloc_aa7433f371f3ffe730d38211433d1e95 = private unnamed_addr constant <{ [5 x i8] }> <{ [5 x i8] c"build" }>, align 1
@alloc_bee1b25f4d94450b79c0b439fb65a0a5 = private unnamed_addr constant <{ [11 x i8] }> <{ [11 x i8] c"cargo:root=" }>, align 1
@alloc_7dd54c0ff0191c27c4bb3d971807f834 = private unnamed_addr constant <{ ptr, [8 x i8], ptr, [8 x i8] }> <{ ptr @alloc_bee1b25f4d94450b79c0b439fb65a0a5, [8 x i8] c"\0B\00\00\00\00\00\00\00", ptr @alloc_49a1e817e911805af64bbc7efb390101, [8 x i8] c"\01\00\00\00\00\00\00\00" }>, align 8
@alloc_fb8e1556ea14bbf7c58c1f887a90e994 = private unnamed_addr constant <{ [14 x i8] }> <{ [14 x i8] c"cargo:include=" }>, align 1
@alloc_60caf5a169d4f4cd4358f7284547943c = private unnamed_addr constant <{ ptr, [8 x i8], ptr, [8 x i8] }> <{ ptr @alloc_fb8e1556ea14bbf7c58c1f887a90e994, [8 x i8] c"\0E\00\00\00\00\00\00\00", ptr @alloc_49a1e817e911805af64bbc7efb390101, [8 x i8] c"\01\00\00\00\00\00\00\00" }>, align 8
@alloc_6df9554be494b4e96b0fcc2fecf28a5e = private unnamed_addr constant <{ [15 x i8] }> <{ [15 x i8] c"cargo:static=1\0A" }>, align 1
@alloc_072f55dbbd1731953ccaee2ad80bd56c = private unnamed_addr constant <{ ptr, [8 x i8] }> <{ ptr @alloc_6df9554be494b4e96b0fcc2fecf28a5e, [8 x i8] c"\0F\00\00\00\00\00\00\00" }>, align 8
@alloc_b02716ed5958366865697ee7b140d141 = private unnamed_addr constant <{ [33 x i8] }> <{ [33 x i8] c"cargo:rustc-cfg=libcurl_vendored\0A" }>, align 1
@alloc_22d57e881216cac1a8564d60e675ac9a = private unnamed_addr constant <{ ptr, [8 x i8] }> <{ ptr @alloc_b02716ed5958366865697ee7b140d141, [8 x i8] c"!\00\00\00\00\00\00\00" }>, align 8
@alloc_1fb70b25f3d38d48d8bf67c40493f006 = private unnamed_addr constant <{ ptr, [16 x i8] }> <{ ptr @alloc_fa09d0b46d4a02a3fb656c6ad68a8b34, [16 x i8] c"g\00\00\00\00\00\00\00@\00\00\00.\00\00\00" }>, align 8
@alloc_b6e756817434e16d0d487aecb2bf4030 = private unnamed_addr constant <{ [6 x i8] }> <{ [6 x i8] c"curl.h" }>, align 1
@alloc_812ad08ee75cb26b04dc1c40b26e9c9f = private unnamed_addr constant <{ [9 x i8] }> <{ [9 x i8] c"curlver.h" }>, align 1
@alloc_31f09f654fdd869c3ec645141fccc9ac = private unnamed_addr constant <{ [6 x i8] }> <{ [6 x i8] c"easy.h" }>, align 1
@alloc_47b2c1788c597a30ca66d997ef2e9175 = private unnamed_addr constant <{ [9 x i8] }> <{ [9 x i8] c"options.h" }>, align 1
@alloc_1f07bc833f6832ee3aae9552f294a546 = private unnamed_addr constant <{ [8 x i8] }> <{ [8 x i8] c"header.h" }>, align 1
@alloc_c3eba1023a81ecc298830056bed19ec5 = private unnamed_addr constant <{ [9 x i8] }> <{ [9 x i8] c"mprintf.h" }>, align 1
@alloc_3ff26ec329e266bf502a3caf0b0e6309 = private unnamed_addr constant <{ [7 x i8] }> <{ [7 x i8] c"multi.h" }>, align 1
@alloc_ee38ccb2ed6c396d46db8c032135d077 = private unnamed_addr constant <{ [13 x i8] }> <{ [13 x i8] c"stdcheaders.h" }>, align 1
@alloc_87953c3f3ae9e05761fbd7f09eaaa613 = private unnamed_addr constant <{ [8 x i8] }> <{ [8 x i8] c"system.h" }>, align 1
@alloc_9b339695043568047793117cfebef732 = private unnamed_addr constant <{ [8 x i8] }> <{ [8 x i8] c"urlapi.h" }>, align 1
@alloc_fde4bbd512595eda88747b3bb7d297dc = private unnamed_addr constant <{ [15 x i8] }> <{ [15 x i8] c"typecheck-gcc.h" }>, align 1
@alloc_5c044dac06745bfcb658cf8f48946dca = private unnamed_addr constant <{ [12 x i8] }> <{ [12 x i8] c"websockets.h" }>, align 1
@alloc_4c0c1f1adeb0c9ca957c8a26b1fe1483 = private unnamed_addr constant <{ ptr, [8 x i8], ptr, [8 x i8], ptr, [8 x i8], ptr, [8 x i8], ptr, [8 x i8], ptr, [8 x i8], ptr, [8 x i8], ptr, [8 x i8], ptr, [8 x i8], ptr, [8 x i8], ptr, [8 x i8], ptr, [8 x i8] }> <{ ptr @alloc_b6e756817434e16d0d487aecb2bf4030, [8 x i8] c"\06\00\00\00\00\00\00\00", ptr @alloc_812ad08ee75cb26b04dc1c40b26e9c9f, [8 x i8] c"\09\00\00\00\00\00\00\00", ptr @alloc_31f09f654fdd869c3ec645141fccc9ac, [8 x i8] c"\06\00\00\00\00\00\00\00", ptr @alloc_47b2c1788c597a30ca66d997ef2e9175, [8 x i8] c"\09\00\00\00\00\00\00\00", ptr @alloc_1f07bc833f6832ee3aae9552f294a546, [8 x i8] c"\08\00\00\00\00\00\00\00", ptr @alloc_c3eba1023a81ecc298830056bed19ec5, [8 x i8] c"\09\00\00\00\00\00\00\00", ptr @alloc_3ff26ec329e266bf502a3caf0b0e6309, [8 x i8] c"\07\00\00\00\00\00\00\00", ptr @alloc_ee38ccb2ed6c396d46db8c032135d077, [8 x i8] c"\0D\00\00\00\00\00\00\00", ptr @alloc_87953c3f3ae9e05761fbd7f09eaaa613, [8 x i8] c"\08\00\00\00\00\00\00\00", ptr @alloc_9b339695043568047793117cfebef732, [8 x i8] c"\08\00\00\00\00\00\00\00", ptr @alloc_fde4bbd512595eda88747b3bb7d297dc, [8 x i8] c"\0F\00\00\00\00\00\00\00", ptr @alloc_5c044dac06745bfcb658cf8f48946dca, [8 x i8] c"\0C\00\00\00\00\00\00\00" }>, align 8
@alloc_383fd2f23bdc6590a160fce3a5861647 = private unnamed_addr constant <{ [13 x i8] }> <{ [13 x i8] c"lib/pkgconfig" }>, align 1
@alloc_9bac605f83b8a0a3c1323d621a30a827 = private unnamed_addr constant <{ ptr, [16 x i8] }> <{ ptr @alloc_fa09d0b46d4a02a3fb656c6ad68a8b34, [16 x i8] c"g\00\00\00\00\00\00\00Z\00\00\00$\00\00\00" }>, align 8
@alloc_c14d3527f72967e13bd5a23129ba1882 = private unnamed_addr constant <{ [18 x i8] }> <{ [18 x i8] c"curl/libcurl.pc.in" }>, align 1
@alloc_f90da4042092b5fdee810e29e4f7162d = private unnamed_addr constant <{ ptr, [16 x i8] }> <{ ptr @alloc_fa09d0b46d4a02a3fb656c6ad68a8b34, [16 x i8] c"g\00\00\00\00\00\00\00[\00\00\00=\00\00\00" }>, align 8
@alloc_2b0336cab05039cfeaa8617a7f5873b9 = private unnamed_addr constant <{ [10 x i8] }> <{ [10 x i8] c"libcurl.pc" }>, align 1
@alloc_8c80a0ed2300ab3f245d5b27622bf09a = private unnamed_addr constant <{ ptr, [16 x i8] }> <{ ptr @alloc_fa09d0b46d4a02a3fb656c6ad68a8b34, [16 x i8] c"g\00\00\00\00\00\00\00_\00\00\00/\00\00\00" }>, align 8
@alloc_5f461bf4f3dfc82b16720b87bc669557 = private unnamed_addr constant <{ [8 x i8] }> <{ [8 x i8] c"@prefix@" }>, align 1
@alloc_9e199515fe2fae7e2340a5fc3ca60a97 = private unnamed_addr constant <{ [13 x i8] }> <{ [13 x i8] c"@exec_prefix@" }>, align 1
@alloc_8e7f0612b08a29ac961b0bae1e370964 = private unnamed_addr constant <{ [3 x i8] }> <{ [3 x i8] c"lib" }>, align 1
@alloc_8c3a8466590fe634cce6517484f714aa = private unnamed_addr constant <{ ptr, [16 x i8] }> <{ ptr @alloc_fa09d0b46d4a02a3fb656c6ad68a8b34, [16 x i8] c"g\00\00\00\00\00\00\00a\00\00\00;\00\00\00" }>, align 8
@alloc_95335b6e43d102181411698dec857f3c = private unnamed_addr constant <{ [8 x i8] }> <{ [8 x i8] c"@libdir@" }>, align 1
@alloc_5aa19c4f968bfc37d02902fca90a3b77 = private unnamed_addr constant <{ ptr, [16 x i8] }> <{ ptr @alloc_fa09d0b46d4a02a3fb656c6ad68a8b34, [16 x i8] c"g\00\00\00\00\00\00\00b\00\00\007\00\00\00" }>, align 8
@alloc_e8537b14420bcb9c705e5e1a18ae9534 = private unnamed_addr constant <{ [12 x i8] }> <{ [12 x i8] c"@includedir@" }>, align 1
@alloc_ffd1c7da93812e0f6b904d972fd439dc = private unnamed_addr constant <{ [16 x i8] }> <{ [16 x i8] c"-DCURL_STATICLIB" }>, align 1
@alloc_aa55ad7d9cb8b7ab9ef1d3d4919d457d = private unnamed_addr constant <{ [24 x i8] }> <{ [24 x i8] c"@CPPFLAG_CURL_STATICLIB@" }>, align 1
@alloc_12c7c97979e5b9cb9128f02283353477 = private unnamed_addr constant <{ [14 x i8] }> <{ [14 x i8] c"@LIBCURL_LIBS@" }>, align 1
@alloc_7ab57fbf18a0dcdf08f7478d8caaa355 = private unnamed_addr constant <{ [18 x i8] }> <{ [18 x i8] c"@SUPPORT_FEATURES@" }>, align 1
@alloc_92d127fc0e579ae35e44779735b5cc87 = private unnamed_addr constant <{ [19 x i8] }> <{ [19 x i8] c"@SUPPORT_PROTOCOLS@" }>, align 1
@alloc_aedb7a52e9948513b3c3f989b0ea5aba = private unnamed_addr constant <{ [5 x i8] }> <{ [5 x i8] c"8.6.0" }>, align 1
@alloc_2c0aa6af5b5ec2dea206d0300212081c = private unnamed_addr constant <{ [13 x i8] }> <{ [13 x i8] c"@CURLVERSION@" }>, align 1
@alloc_160727a2df93d025c56cc0fb10178002 = private unnamed_addr constant <{ ptr, [16 x i8] }> <{ ptr @alloc_fa09d0b46d4a02a3fb656c6ad68a8b34, [16 x i8] c"g\00\00\00\00\00\00\00i\00\00\00\06\00\00\00" }>, align 8
@alloc_555d57a0c863d1b2f6a23ca5029a8f28 = private unnamed_addr constant <{ [8 x i8] }> <{ [8 x i8] c"curl/lib" }>, align 1
@alloc_4d6a2fb0490fddd2b26247deaf27e147 = private unnamed_addr constant <{ [12 x i8] }> <{ [12 x i8] c"curl/include" }>, align 1
@alloc_06d01e8b46d5a250e9947172ec78f1b1 = private unnamed_addr constant <{ [16 x i8] }> <{ [16 x i8] c"BUILDING_LIBCURL" }>, align 1
@alloc_c88a9267c248aab7f1554f915ebe59d8 = private unnamed_addr constant <{ [17 x i8] }> <{ [17 x i8] c"CURL_DISABLE_DICT" }>, align 1
@alloc_68e8a4aa55f60ebb44c6d098ad800ffd = private unnamed_addr constant <{ [19 x i8] }> <{ [19 x i8] c"CURL_DISABLE_GOPHER" }>, align 1
@alloc_379d7cfcbc846bc8dea17e0d66f8371c = private unnamed_addr constant <{ [17 x i8] }> <{ [17 x i8] c"CURL_DISABLE_IMAP" }>, align 1
@alloc_fbd47e92cd07de037cc67c22bb1efe03 = private unnamed_addr constant <{ [17 x i8] }> <{ [17 x i8] c"CURL_DISABLE_LDAP" }>, align 1
@alloc_9fc9d6b569788c48c74b752aa3d5e3ef = private unnamed_addr constant <{ [18 x i8] }> <{ [18 x i8] c"CURL_DISABLE_LDAPS" }>, align 1
@alloc_5c32fc269777bc5daa05e9ee2b8aa589 = private unnamed_addr constant <{ [17 x i8] }> <{ [17 x i8] c"CURL_DISABLE_POP3" }>, align 1
@alloc_2cefb788dc4f839c6287efa02a64dcd3 = private unnamed_addr constant <{ [17 x i8] }> <{ [17 x i8] c"CURL_DISABLE_RTSP" }>, align 1
@alloc_b52616a93341a915836a489904923441 = private unnamed_addr constant <{ [16 x i8] }> <{ [16 x i8] c"CURL_DISABLE_SMB" }>, align 1
@alloc_c04a2f857a1c078c7ace624cc85c3bcb = private unnamed_addr constant <{ [17 x i8] }> <{ [17 x i8] c"CURL_DISABLE_SMTP" }>, align 1
@alloc_17b05cae9f0b5c134af1c2eab4fca28e = private unnamed_addr constant <{ [19 x i8] }> <{ [19 x i8] c"CURL_DISABLE_TELNET" }>, align 1
@alloc_b14492a7a9b35cefff992276e1d48a21 = private unnamed_addr constant <{ [17 x i8] }> <{ [17 x i8] c"CURL_DISABLE_TFTP" }>, align 1
@alloc_21aef2bfe185019cfc077b486e93950c = private unnamed_addr constant <{ [14 x i8] }> <{ [14 x i8] c"CURL_STATICLIB" }>, align 1
@alloc_8497008b9a766015de75a933c23c0903 = private unnamed_addr constant <{ [11 x i8] }> <{ [11 x i8] c"ENABLE_IPV6" }>, align 1
@alloc_0496065545707fdf23a2307a007b6c86 = private unnamed_addr constant <{ [13 x i8] }> <{ [13 x i8] c"HAVE_ASSERT_H" }>, align 1
@alloc_3d35439753a40c7fbf99c4e37bf527d3 = private unnamed_addr constant <{ [2 x i8] }> <{ [2 x i8] c"OS" }>, align 1
@alloc_33eef597a9bb8a50816bbe09bf060844 = private unnamed_addr constant <{ [9 x i8] }> <{ [9 x i8] c"\22unknown\22" }>, align 1
@alloc_9b42b447957bd5706b3941cbe823677b = private unnamed_addr constant <{ [11 x i8] }> <{ [11 x i8] c"HAVE_ZLIB_H" }>, align 1
@alloc_3bce33f52b8e87444939a9bf510f70a2 = private unnamed_addr constant <{ [13 x i8] }> <{ [13 x i8] c"HAVE_LONGLONG" }>, align 1
@alloc_07ca505b6715300496f2f7c3661ac23b = private unnamed_addr constant <{ [9 x i8] }> <{ [9 x i8] c"HAVE_LIBZ" }>, align 1
@alloc_43d95352133d9bc32269949dc0114be8 = private unnamed_addr constant <{ [11 x i8] }> <{ [11 x i8] c"HAVE_BOOL_T" }>, align 1
@alloc_6425ca46f1d2c55e8910a434666e9a2e = private unnamed_addr constant <{ [14 x i8] }> <{ [14 x i8] c"HAVE_STDBOOL_H" }>, align 1
@alloc_dcf01465eaeb2ccc28cb183c7ff33291 = private unnamed_addr constant <{ [22 x i8] }> <{ [22 x i8] c"curl/lib/asyn-thread.c" }>, align 1
@alloc_338633ee0c8f6a6ac802c26ef1d291c0 = private unnamed_addr constant <{ [17 x i8] }> <{ [17 x i8] c"curl/lib/altsvc.c" }>, align 1
@alloc_f3359af5bb2e7380f6ee01636357bebf = private unnamed_addr constant <{ [17 x i8] }> <{ [17 x i8] c"curl/lib/base64.c" }>, align 1
@alloc_0224d4c3c203dbc705dfbfc4b0a11a3e = private unnamed_addr constant <{ [15 x i8] }> <{ [15 x i8] c"curl/lib/bufq.c" }>, align 1
@alloc_2789e6719d79fe166fc8be3b833c8fa0 = private unnamed_addr constant <{ [17 x i8] }> <{ [17 x i8] c"curl/lib/bufref.c" }>, align 1
@alloc_32219af37bbcdd742e3a78e7a0e2d450 = private unnamed_addr constant <{ [19 x i8] }> <{ [19 x i8] c"curl/lib/cfilters.c" }>, align 1
@alloc_45392fddeb1e1f3411ec111ad73ec968 = private unnamed_addr constant <{ [22 x i8] }> <{ [22 x i8] c"curl/lib/cf-h1-proxy.c" }>, align 1
@alloc_0e35d087ae386c92da63fa19d39ec009 = private unnamed_addr constant <{ [21 x i8] }> <{ [21 x i8] c"curl/lib/cf-haproxy.c" }>, align 1
@alloc_acaf166ab1688ef66225ecbf75c81f98 = private unnamed_addr constant <{ [27 x i8] }> <{ [27 x i8] c"curl/lib/cf-https-connect.c" }>, align 1
@alloc_7836ce8f0bbceaf00baa5d1bb2523d55 = private unnamed_addr constant <{ [20 x i8] }> <{ [20 x i8] c"curl/lib/cf-socket.c" }>, align 1
@alloc_7d73f5381cd98aae1dfb569ba842135c = private unnamed_addr constant <{ [20 x i8] }> <{ [20 x i8] c"curl/lib/conncache.c" }>, align 1
@alloc_a75953af18996f5a0fc8089bfcb7ad8b = private unnamed_addr constant <{ [18 x i8] }> <{ [18 x i8] c"curl/lib/connect.c" }>, align 1
@alloc_8b5cdb4ee6e668de4f759bac56791434 = private unnamed_addr constant <{ [27 x i8] }> <{ [27 x i8] c"curl/lib/content_encoding.c" }>, align 1
@alloc_9f815f2a29ccd7fdf725046857eb214f = private unnamed_addr constant <{ [17 x i8] }> <{ [17 x i8] c"curl/lib/cookie.c" }>, align 1
@alloc_431cf73d55f6d50836556f3487818989 = private unnamed_addr constant <{ [24 x i8] }> <{ [24 x i8] c"curl/lib/curl_addrinfo.c" }>, align 1
@alloc_dd59eae5899feb02d7422558f4265668 = private unnamed_addr constant <{ [24 x i8] }> <{ [24 x i8] c"curl/lib/curl_get_line.c" }>, align 1
@alloc_d31a966c07dda352f5ccd568eac3178e = private unnamed_addr constant <{ [23 x i8] }> <{ [23 x i8] c"curl/lib/curl_memrchr.c" }>, align 1
@alloc_5d0645d8422ae54e204b1fa44d0ea393 = private unnamed_addr constant <{ [21 x i8] }> <{ [21 x i8] c"curl/lib/curl_range.c" }>, align 1
@alloc_7b2e30063dfd394bd3a21403c9a6c0f0 = private unnamed_addr constant <{ [23 x i8] }> <{ [23 x i8] c"curl/lib/curl_threads.c" }>, align 1
@alloc_bf4b2f6633aaa218b10cc7a003fc7159 = private unnamed_addr constant <{ [19 x i8] }> <{ [19 x i8] c"curl/lib/curl_trc.c" }>, align 1
@alloc_cd23a6206aef1de9d696e97bbe35a83d = private unnamed_addr constant <{ [14 x i8] }> <{ [14 x i8] c"curl/lib/doh.c" }>, align 1
@alloc_50f94dd0e98fe6e1c9b88c60d138e930 = private unnamed_addr constant <{ [17 x i8] }> <{ [17 x i8] c"curl/lib/dynbuf.c" }>, align 1
@alloc_00b9df68c47fd9bd72a052cfa7a35ace = private unnamed_addr constant <{ [17 x i8] }> <{ [17 x i8] c"curl/lib/dynhds.c" }>, align 1
@alloc_47e6a843639e9f04defec935cf8bc370 = private unnamed_addr constant <{ [15 x i8] }> <{ [15 x i8] c"curl/lib/easy.c" }>, align 1
@alloc_6c49cde37c5509ff6985bb26c3f48684 = private unnamed_addr constant <{ [17 x i8] }> <{ [17 x i8] c"curl/lib/escape.c" }>, align 1
@alloc_f7b605a62f2645ac29766dcc7dffedf0 = private unnamed_addr constant <{ [15 x i8] }> <{ [15 x i8] c"curl/lib/file.c" }>, align 1
@alloc_e23339e3eefea78887cbd79478c6fc85 = private unnamed_addr constant <{ [19 x i8] }> <{ [19 x i8] c"curl/lib/fileinfo.c" }>, align 1
@alloc_ca48e65aff0c0344404202537c792a8c = private unnamed_addr constant <{ [16 x i8] }> <{ [16 x i8] c"curl/lib/fopen.c" }>, align 1
@alloc_bff74f627b0947710f0c5326f6be7f53 = private unnamed_addr constant <{ [19 x i8] }> <{ [19 x i8] c"curl/lib/formdata.c" }>, align 1
@alloc_91cb44805a1657bf31bcd25b2247396f = private unnamed_addr constant <{ [17 x i8] }> <{ [17 x i8] c"curl/lib/getenv.c" }>, align 1
@alloc_54ecab34d20a8ebeefccd2c9ebacb2a6 = private unnamed_addr constant <{ [18 x i8] }> <{ [18 x i8] c"curl/lib/getinfo.c" }>, align 1
@alloc_4216260cc5f65d2117a9a98660146145 = private unnamed_addr constant <{ [15 x i8] }> <{ [15 x i8] c"curl/lib/hash.c" }>, align 1
@alloc_30e606ead742b42167235b7f930fc2ef = private unnamed_addr constant <{ [18 x i8] }> <{ [18 x i8] c"curl/lib/headers.c" }>, align 1
@alloc_232c33a9f03f39d0317c63d63af2cdfe = private unnamed_addr constant <{ [15 x i8] }> <{ [15 x i8] c"curl/lib/hmac.c" }>, align 1
@alloc_a045b27691fc749e6d2f6d437744a63d = private unnamed_addr constant <{ [19 x i8] }> <{ [19 x i8] c"curl/lib/hostasyn.c" }>, align 1
@alloc_83302572daa2cf652587f9908bc81253 = private unnamed_addr constant <{ [17 x i8] }> <{ [17 x i8] c"curl/lib/hostip.c" }>, align 1
@alloc_e647a522dc16a8fdd558a791c1bc5dba = private unnamed_addr constant <{ [18 x i8] }> <{ [18 x i8] c"curl/lib/hostip6.c" }>, align 1
@alloc_4d4e434fe6dc52e35e08f097fdf73441 = private unnamed_addr constant <{ [15 x i8] }> <{ [15 x i8] c"curl/lib/hsts.c" }>, align 1
@alloc_fce563ba2c84c865b97e880d469349a7 = private unnamed_addr constant <{ [15 x i8] }> <{ [15 x i8] c"curl/lib/http.c" }>, align 1
@alloc_1be6268118f6f64ba47e062a605ff0dd = private unnamed_addr constant <{ [16 x i8] }> <{ [16 x i8] c"curl/lib/http1.c" }>, align 1
@alloc_5a17222c04a0bfcd33710f7f768f9735 = private unnamed_addr constant <{ [25 x i8] }> <{ [25 x i8] c"curl/lib/http_aws_sigv4.c" }>, align 1
@alloc_cec1878f376d8b415520fd8c1dfcfcaa = private unnamed_addr constant <{ [22 x i8] }> <{ [22 x i8] c"curl/lib/http_chunks.c" }>, align 1
@alloc_b0cfd22df9548581c30e1786ca6c7964 = private unnamed_addr constant <{ [22 x i8] }> <{ [22 x i8] c"curl/lib/http_digest.c" }>, align 1
@alloc_fa0283e4d3f96a4cb3e9f6d27f452b44 = private unnamed_addr constant <{ [21 x i8] }> <{ [21 x i8] c"curl/lib/http_proxy.c" }>, align 1
@alloc_b19dee4916ec1852d579099856af146e = private unnamed_addr constant <{ [14 x i8] }> <{ [14 x i8] c"curl/lib/idn.c" }>, align 1
@alloc_e468cda33bdf95d4e72ae6e96cba3b80 = private unnamed_addr constant <{ [16 x i8] }> <{ [16 x i8] c"curl/lib/if2ip.c" }>, align 1
@alloc_1326a43527697458c31025e4b5bcefc9 = private unnamed_addr constant <{ [20 x i8] }> <{ [20 x i8] c"curl/lib/inet_ntop.c" }>, align 1
@alloc_db8ec6550f99671c29673917155aecb9 = private unnamed_addr constant <{ [20 x i8] }> <{ [20 x i8] c"curl/lib/inet_pton.c" }>, align 1
@alloc_28f200d15f91b18bb9d468293d00e084 = private unnamed_addr constant <{ [16 x i8] }> <{ [16 x i8] c"curl/lib/llist.c" }>, align 1
@alloc_d814271f34f42445b8cc01ec20caeb97 = private unnamed_addr constant <{ [14 x i8] }> <{ [14 x i8] c"curl/lib/md5.c" }>, align 1
@alloc_c9339b8afcb639d88b24159519d4964b = private unnamed_addr constant <{ [15 x i8] }> <{ [15 x i8] c"curl/lib/mime.c" }>, align 1
@alloc_594b85fe19ef61e9e199a73bffce54d1 = private unnamed_addr constant <{ [16 x i8] }> <{ [16 x i8] c"curl/lib/macos.c" }>, align 1
@alloc_d5fd2412bc7e26f50f17daa0797a7dba = private unnamed_addr constant <{ [18 x i8] }> <{ [18 x i8] c"curl/lib/mprintf.c" }>, align 1
@alloc_25d6109286e13e43d34b40a863b24924 = private unnamed_addr constant <{ [15 x i8] }> <{ [15 x i8] c"curl/lib/mqtt.c" }>, align 1
@alloc_3ab8bab009f3ea898467ccb58d4a2192 = private unnamed_addr constant <{ [16 x i8] }> <{ [16 x i8] c"curl/lib/multi.c" }>, align 1
@alloc_b1bb96db1b649e32bc9e01c03866f026 = private unnamed_addr constant <{ [16 x i8] }> <{ [16 x i8] c"curl/lib/netrc.c" }>, align 1
@alloc_e45dd0f3ee8094b324242c5876462d4d = private unnamed_addr constant <{ [19 x i8] }> <{ [19 x i8] c"curl/lib/nonblock.c" }>, align 1
@alloc_fb82d50ddb0086feabbd2ebb9434d8be = private unnamed_addr constant <{ [18 x i8] }> <{ [18 x i8] c"curl/lib/noproxy.c" }>, align 1
@alloc_1364ba0e99ee46bdc3c0fd9b433de8c3 = private unnamed_addr constant <{ [20 x i8] }> <{ [20 x i8] c"curl/lib/parsedate.c" }>, align 1
@alloc_dadad8ebd22bba5d9cc2bffb8e8233e0 = private unnamed_addr constant <{ [19 x i8] }> <{ [19 x i8] c"curl/lib/progress.c" }>, align 1
@alloc_cfc11c509300ce40e01a8155d0d41c2d = private unnamed_addr constant <{ [15 x i8] }> <{ [15 x i8] c"curl/lib/rand.c" }>, align 1
@alloc_c70d3db4bcd4abf27323833980759a22 = private unnamed_addr constant <{ [17 x i8] }> <{ [17 x i8] c"curl/lib/rename.c" }>, align 1
@alloc_992f9453004fb859eea93270494fceb6 = private unnamed_addr constant <{ [17 x i8] }> <{ [17 x i8] c"curl/lib/select.c" }>, align 1
@alloc_facc07f25388b6ae7619e349d5c42ab6 = private unnamed_addr constant <{ [16 x i8] }> <{ [16 x i8] c"curl/lib/sendf.c" }>, align 1
@alloc_50b1e6f3c1a8e016534ae95152b47b4f = private unnamed_addr constant <{ [17 x i8] }> <{ [17 x i8] c"curl/lib/setopt.c" }>, align 1
@alloc_fd5c9e7fcc1863f6bdb72f1126a7ae3c = private unnamed_addr constant <{ [17 x i8] }> <{ [17 x i8] c"curl/lib/sha256.c" }>, align 1
@alloc_fc5c376dac3d1e63e387f77158f32214 = private unnamed_addr constant <{ [16 x i8] }> <{ [16 x i8] c"curl/lib/share.c" }>, align 1
@alloc_6137f885a0f3b1abbf24ad5e39b3cf7d = private unnamed_addr constant <{ [16 x i8] }> <{ [16 x i8] c"curl/lib/slist.c" }>, align 1
@alloc_d0bd03d70013235bc8bdd4e9dc8251a2 = private unnamed_addr constant <{ [16 x i8] }> <{ [16 x i8] c"curl/lib/socks.c" }>, align 1
@alloc_26c4239f367d7933575b45f93eeb6119 = private unnamed_addr constant <{ [21 x i8] }> <{ [21 x i8] c"curl/lib/socketpair.c" }>, align 1
@alloc_88ff6e905e04fab2baff75be3a2815c4 = private unnamed_addr constant <{ [21 x i8] }> <{ [21 x i8] c"curl/lib/speedcheck.c" }>, align 1
@alloc_2ccd9ee8953fd762b0b23053a0429b86 = private unnamed_addr constant <{ [16 x i8] }> <{ [16 x i8] c"curl/lib/splay.c" }>, align 1
@alloc_682c14983a233e367a2d33a5443d5f68 = private unnamed_addr constant <{ [18 x i8] }> <{ [18 x i8] c"curl/lib/strcase.c" }>, align 1
@alloc_883c6176a64a0c0bcbf593b969d60c97 = private unnamed_addr constant <{ [17 x i8] }> <{ [17 x i8] c"curl/lib/strdup.c" }>, align 1
@alloc_4e664b6a84cbc6e6ed175976fd941c95 = private unnamed_addr constant <{ [19 x i8] }> <{ [19 x i8] c"curl/lib/strerror.c" }>, align 1
@alloc_d4c1c1ead59af44e5bdd26262d16d8de = private unnamed_addr constant <{ [17 x i8] }> <{ [17 x i8] c"curl/lib/strtok.c" }>, align 1
@alloc_5c79ddcf8569d16e309326a7beb3c8b0 = private unnamed_addr constant <{ [20 x i8] }> <{ [20 x i8] c"curl/lib/strtoofft.c" }>, align 1
@alloc_a9ca73ae3864dc47c67f1ec3bf25280d = private unnamed_addr constant <{ [18 x i8] }> <{ [18 x i8] c"curl/lib/timeval.c" }>, align 1
@alloc_50eecda15ec80f843870b93a998b516f = private unnamed_addr constant <{ [19 x i8] }> <{ [19 x i8] c"curl/lib/transfer.c" }>, align 1
@alloc_db978f66b1542f76822ff790fcc1668f = private unnamed_addr constant <{ [14 x i8] }> <{ [14 x i8] c"curl/lib/url.c" }>, align 1
@alloc_4267b840f171becbc995d29e4a022523 = private unnamed_addr constant <{ [17 x i8] }> <{ [17 x i8] c"curl/lib/urlapi.c" }>, align 1
@alloc_39cbba120164bfdd4ac1accc5d48dccf = private unnamed_addr constant <{ [18 x i8] }> <{ [18 x i8] c"curl/lib/version.c" }>, align 1
@alloc_12b16b79d61b34dd472f350aa3eb2eaa = private unnamed_addr constant <{ [23 x i8] }> <{ [23 x i8] c"curl/lib/vauth/digest.c" }>, align 1
@alloc_7315a05374fac92811e443f41205dc07 = private unnamed_addr constant <{ [22 x i8] }> <{ [22 x i8] c"curl/lib/vauth/vauth.c" }>, align 1
@alloc_c8c2cc34fa89f807734fdbeb4124ed80 = private unnamed_addr constant <{ [26 x i8] }> <{ [26 x i8] c"curl/lib/vquic/curl_msh3.c" }>, align 1
@alloc_cccdceb2ec07c500e85220f03ec98731 = private unnamed_addr constant <{ [28 x i8] }> <{ [28 x i8] c"curl/lib/vquic/curl_ngtcp2.c" }>, align 1
@alloc_043f612d0d177f8695428bcac5481904 = private unnamed_addr constant <{ [27 x i8] }> <{ [27 x i8] c"curl/lib/vquic/curl_osslq.c" }>, align 1
@alloc_e81723e7fd8b778b93d6bdea3937b0e5 = private unnamed_addr constant <{ [28 x i8] }> <{ [28 x i8] c"curl/lib/vquic/curl_quiche.c" }>, align 1
@alloc_a3e8d4486e6d5820e9c6f78003c9a065 = private unnamed_addr constant <{ [22 x i8] }> <{ [22 x i8] c"curl/lib/vquic/vquic.c" }>, align 1
@alloc_3a05b512416967af20b63e87797e8db3 = private unnamed_addr constant <{ [26 x i8] }> <{ [26 x i8] c"curl/lib/vquic/vquic-tls.c" }>, align 1
@alloc_15cb3d506d8ceeb55a35b4cf6e2c9f67 = private unnamed_addr constant <{ [25 x i8] }> <{ [25 x i8] c"curl/lib/vtls/hostcheck.c" }>, align 1
@alloc_4a9ec8adeb073cd3a396c1159a1d1b94 = private unnamed_addr constant <{ [22 x i8] }> <{ [22 x i8] c"curl/lib/vtls/keylog.c" }>, align 1
@alloc_18775f29d2eb21e804d050cd2c192220 = private unnamed_addr constant <{ [20 x i8] }> <{ [20 x i8] c"curl/lib/vtls/vtls.c" }>, align 1
@alloc_cc7d735d92a63a735cac0a727faa7186 = private unnamed_addr constant <{ [19 x i8] }> <{ [19 x i8] c"curl/lib/warnless.c" }>, align 1
@alloc_33c87f7873b3d77aea7dd8346a6a2619 = private unnamed_addr constant <{ [19 x i8] }> <{ [19 x i8] c"curl/lib/timediff.c" }>, align 1
@alloc_facb4e541f4f23297b6cdd8717ba35f5 = private unnamed_addr constant <{ [16 x i8] }> <{ [16 x i8] c"HAVE_GETADDRINFO" }>, align 1
@alloc_f248b856cc47486cf35fd957e25d8b35 = private unnamed_addr constant <{ [16 x i8] }> <{ [16 x i8] c"HAVE_GETPEERNAME" }>, align 1
@alloc_6a0f95680962331bb96937a995e5175c = private unnamed_addr constant <{ [16 x i8] }> <{ [16 x i8] c"HAVE_GETSOCKNAME" }>, align 1
@alloc_08773c2a77c922dd0cfde9310250fa48 = private unnamed_addr constant <{ [17 x i8] }> <{ [17 x i8] c"CURL_DISABLE_NTLM" }>, align 1
@alloc_defe92086ace604f476b00f35a40b4be = private unnamed_addr constant <{ [19 x i8] }> <{ [19 x i8] c"curl/lib/curl_des.c" }>, align 1
@alloc_eac548baf657e8281faf46860b6b9c55 = private unnamed_addr constant <{ [22 x i8] }> <{ [22 x i8] c"curl/lib/curl_endian.c" }>, align 1
@alloc_841b6014eeb0927faa9db37b965d5b66 = private unnamed_addr constant <{ [27 x i8] }> <{ [27 x i8] c"curl/lib/curl_gethostname.c" }>, align 1
@alloc_25b329c3432379c8bde98d5ca82d3cf7 = private unnamed_addr constant <{ [25 x i8] }> <{ [25 x i8] c"curl/lib/curl_ntlm_core.c" }>, align 1
@alloc_bc7dcabf1ac9afcc5c8af4417bc8f77c = private unnamed_addr constant <{ [23 x i8] }> <{ [23 x i8] c"curl/lib/curl_ntlm_wb.c" }>, align 1
@alloc_8cd3a4df948c8da01c4bad2f7c4dcd7c = private unnamed_addr constant <{ [20 x i8] }> <{ [20 x i8] c"curl/lib/http_ntlm.c" }>, align 1
@alloc_8a73ac396ef95932de541a7ba930ee0e = private unnamed_addr constant <{ [14 x i8] }> <{ [14 x i8] c"curl/lib/md4.c" }>, align 1
@alloc_c46f180a0133f18b1808edbc758194c7 = private unnamed_addr constant <{ [21 x i8] }> <{ [21 x i8] c"curl/lib/vauth/ntlm.c" }>, align 1
@alloc_4de399565606ac334fe98791ccae674c = private unnamed_addr constant <{ [26 x i8] }> <{ [26 x i8] c"curl/lib/vauth/ntlm_sspi.c" }>, align 1
@alloc_5e9c0f8b252b11a3cf0193aea01ed00c = private unnamed_addr constant <{ [16 x i8] }> <{ [16 x i8] c"CURL_DISABLE_FTP" }>, align 1
@alloc_911b03d7d4bf0be2fb30fa7459695839 = private unnamed_addr constant <{ [23 x i8] }> <{ [23 x i8] c"curl/lib/curl_fnmatch.c" }>, align 1
@alloc_8a0c8fc8de0237c8bd9f856cb95a12f7 = private unnamed_addr constant <{ [14 x i8] }> <{ [14 x i8] c"curl/lib/ftp.c" }>, align 1
@alloc_224290f9771fd3496056abe65f9a81c5 = private unnamed_addr constant <{ [24 x i8] }> <{ [24 x i8] c"curl/lib/ftplistparser.c" }>, align 1
@alloc_c6f23072b03222df4dc395276b3d4662 = private unnamed_addr constant <{ [19 x i8] }> <{ [19 x i8] c"curl/lib/pingpong.c" }>, align 1
@alloc_4bcb951f67c8f537d6a1ee15454e4c00 = private unnamed_addr constant <{ [11 x i8] }> <{ [11 x i8] c"USE_NGHTTP2" }>, align 1
@alloc_c279f55ec008d43ce8476b50ba4e42fd = private unnamed_addr constant <{ [17 x i8] }> <{ [17 x i8] c"NGHTTP2_STATICLIB" }>, align 1
@alloc_5306417195c00836eb647d3b168e83cb = private unnamed_addr constant <{ [22 x i8] }> <{ [22 x i8] c"curl/lib/cf-h2-proxy.c" }>, align 1
@alloc_5541c9bd3b29ad9094b59acd5f46ee1a = private unnamed_addr constant <{ [16 x i8] }> <{ [16 x i8] c"curl/lib/http2.c" }>, align 1
@alloc_746fd32b0d1e4bc85f4f7beaf13d9774 = private unnamed_addr constant <{ [32 x i8] }> <{ [32 x i8] c"cargo:rustc-cfg=link_libnghttp2\0A" }>, align 1
@alloc_6248814f1ce7194e394854106e86e015 = private unnamed_addr constant <{ ptr, [8 x i8] }> <{ ptr @alloc_746fd32b0d1e4bc85f4f7beaf13d9774, [8 x i8] c" \00\00\00\00\00\00\00" }>, align 8
@alloc_fced009e193fbd31526feddcec598f14 = private unnamed_addr constant <{ [16 x i8] }> <{ [16 x i8] c"DEP_NGHTTP2_ROOT" }>, align 1
@alloc_966d121ea06f3eab8303b0aba6705f8f = private unnamed_addr constant <{ [26 x i8] }> <{ [26 x i8] c"cargo:rustc-cfg=link_libz\0A" }>, align 1
@alloc_dd380e3fe71e4aa4cb592dedda816ba3 = private unnamed_addr constant <{ ptr, [8 x i8] }> <{ ptr @alloc_966d121ea06f3eab8303b0aba6705f8f, [8 x i8] c"\1A\00\00\00\00\00\00\00" }>, align 8
@alloc_1f5ca79b261b5acb9181f7703b681951 = private unnamed_addr constant <{ [13 x i8] }> <{ [13 x i8] c"DEP_Z_INCLUDE" }>, align 1
@alloc_8f6e21da55d927f2d19634c0fdc012a3 = private unnamed_addr constant <{ [10 x i8] }> <{ [10 x i8] c"USE_SPNEGO" }>, align 1
@alloc_3d8a815bc903b51f68f5412ecea5aa34 = private unnamed_addr constant <{ [25 x i8] }> <{ [25 x i8] c"curl/lib/http_negotiate.c" }>, align 1
@alloc_fd721da0b280ebce637f124d14830005 = private unnamed_addr constant <{ [7 x i8] }> <{ [7 x i8] c"-apple-" }>, align 1
@alloc_90c1e923f89e109c679214974977103f = private unnamed_addr constant <{ [11 x i8] }> <{ [11 x i8] c"USE_OPENSSL" }>, align 1
@alloc_aa8842615db34d7f20e14e8ae4da4f31 = private unnamed_addr constant <{ [23 x i8] }> <{ [23 x i8] c"curl/lib/vtls/openssl.c" }>, align 1
@alloc_e2e6ac602b3b8655e0176bdd13791cd8 = private unnamed_addr constant <{ [29 x i8] }> <{ [29 x i8] c"cargo:rustc-cfg=link_openssl\0A" }>, align 1
@alloc_b7f24e2c34efcaa78758b51ee81b8128 = private unnamed_addr constant <{ ptr, [8 x i8] }> <{ ptr @alloc_e2e6ac602b3b8655e0176bdd13791cd8, [8 x i8] c"\1D\00\00\00\00\00\00\00" }>, align 8
@alloc_3ae58b9ff1a45dad22f4c654ae0ac474 = private unnamed_addr constant <{ [19 x i8] }> <{ [19 x i8] c"DEP_OPENSSL_INCLUDE" }>, align 1
@alloc_a8381a0b0247213162f757d0a50d94d2 = private unnamed_addr constant <{ [13 x i8] }> <{ [13 x i8] c"USE_SECTRANSP" }>, align 1
@alloc_b951c71a5048ebc13d0dcc2744ab9540 = private unnamed_addr constant <{ [25 x i8] }> <{ [25 x i8] c"curl/lib/vtls/sectransp.c" }>, align 1
@alloc_b71053a74af43505a8d952f408f64bfd = private unnamed_addr constant <{ [24 x i8] }> <{ [24 x i8] c"curl/lib/vtls/x509asn1.c" }>, align 1
@alloc_7263a259056da104e09a1b7b9e0c78d1 = private unnamed_addr constant <{ [22 x i8] }> <{ [22 x i8] c"HAVE_BUILTIN_AVAILABLE" }>, align 1
@alloc_26f643e647dbf77f42e670b3488e8932 = private unnamed_addr constant <{ [1 x i8] }> <{ [1 x i8] c"1" }>, align 1
@alloc_6c135c95caab815f65edfc534f1ea0d0 = private unnamed_addr constant <{ [16 x i8] }> <{ [16 x i8] c"USE_WINDOWS_SSPI" }>, align 1
@alloc_64b279162c1585718ee68d30d4af8b40 = private unnamed_addr constant <{ [12 x i8] }> <{ [12 x i8] c"USE_SCHANNEL" }>, align 1
@alloc_b2015ac484e434c76a2e54e5c2f10a67 = private unnamed_addr constant <{ [20 x i8] }> <{ [20 x i8] c"curl/lib/curl_sspi.c" }>, align 1
@alloc_30bbd3faebaed39e871ccff13170f596 = private unnamed_addr constant <{ [21 x i8] }> <{ [21 x i8] c"curl/lib/socks_sspi.c" }>, align 1
@alloc_47fc4fe34c9ac95d6f4f0a033878cb7b = private unnamed_addr constant <{ [28 x i8] }> <{ [28 x i8] c"curl/lib/vauth/spnego_sspi.c" }>, align 1
@alloc_c704852a54d2c5debf9f5aea4335a192 = private unnamed_addr constant <{ [24 x i8] }> <{ [24 x i8] c"curl/lib/vtls/schannel.c" }>, align 1
@alloc_74c18fc8bd89acc0d12227be33e5f53c = private unnamed_addr constant <{ [31 x i8] }> <{ [31 x i8] c"curl/lib/vtls/schannel_verify.c" }>, align 1
@alloc_2916fc7694e1d6207e36781445287366 = private unnamed_addr constant <{ [37 x i8] }> <{ [37 x i8] c"Not available on non windows platform" }>, align 1
@alloc_4111421e46a07649a145bfe3a04755d8 = private unnamed_addr constant <{ ptr, [16 x i8] }> <{ ptr @alloc_fa09d0b46d4a02a3fb656c6ad68a8b34, [16 x i8] c"g\00\00\00\00\00\00\00/\01\00\00\0D\00\00\00" }>, align 8
@alloc_10fcf842fe6bfe219c2b7e8da67ce333 = private unnamed_addr constant <{ [10 x i8] }> <{ [10 x i8] c"USE_RUSTLS" }>, align 1
@alloc_4e0ee18074eee30d8e17f1aa79ca4a2a = private unnamed_addr constant <{ [22 x i8] }> <{ [22 x i8] c"curl/lib/vtls/rustls.c" }>, align 1
@alloc_f2ff71e901a73919207133b5ecde2f19 = private unnamed_addr constant <{ [22 x i8] }> <{ [22 x i8] c"DEP_RUSTLS_FFI_INCLUDE" }>, align 1
@alloc_d41fb9a373ab03b66ce6392c1e6983b1 = private unnamed_addr constant <{ ptr, [16 x i8] }> <{ ptr @alloc_fa09d0b46d4a02a3fb656c6ad68a8b34, [16 x i8] c"g\00\00\00\00\00\00\00\1C\01\00\00<\00\00\00" }>, align 8
@alloc_04148b0798f0343369ff05dc147ebacd = private unnamed_addr constant <{ [14 x i8] }> <{ [14 x i8] c"RECV_TYPE_ARG1" }>, align 1
@alloc_9ddbe3945b9812d88338838a4a82e256 = private unnamed_addr constant <{ [3 x i8] }> <{ [3 x i8] c"int" }>, align 1
@alloc_5ccbd995921555ad08f91751fc185bcc = private unnamed_addr constant <{ [14 x i8] }> <{ [14 x i8] c"HAVE_PTHREAD_H" }>, align 1
@alloc_bde5e0008cc0bea0aa68b428457b345d = private unnamed_addr constant <{ [16 x i8] }> <{ [16 x i8] c"HAVE_ARPA_INET_H" }>, align 1
@alloc_49b8546ff1d39bf6bd06c3b33b4b50ae = private unnamed_addr constant <{ [12 x i8] }> <{ [12 x i8] c"HAVE_ERRNO_H" }>, align 1
@alloc_64f6e695df618f90faa427cb949d0956 = private unnamed_addr constant <{ [12 x i8] }> <{ [12 x i8] c"HAVE_FCNTL_H" }>, align 1
@alloc_19f82288f83a8014c947aa9a48dc4266 = private unnamed_addr constant <{ [12 x i8] }> <{ [12 x i8] c"HAVE_NETDB_H" }>, align 1
@alloc_0c1a2ae07c02f63df7a7489fbffc52b4 = private unnamed_addr constant <{ [17 x i8] }> <{ [17 x i8] c"HAVE_NETINET_IN_H" }>, align 1
@alloc_4ed5f84e4738e2cac3f529d51c5eda1d = private unnamed_addr constant <{ [18 x i8] }> <{ [18 x i8] c"HAVE_NETINET_TCP_H" }>, align 1
@alloc_2d430af36516ec8af61e5c8abe64b300 = private unnamed_addr constant <{ [11 x i8] }> <{ [11 x i8] c"HAVE_POLL_H" }>, align 1
@alloc_fe518871fc9f6ae81ceae7f8b6f81f55 = private unnamed_addr constant <{ [21 x i8] }> <{ [21 x i8] c"HAVE_FCNTL_O_NONBLOCK" }>, align 1
@alloc_7d027aead9c0ce9674d21e60b2b4c76d = private unnamed_addr constant <{ [17 x i8] }> <{ [17 x i8] c"HAVE_SYS_SELECT_H" }>, align 1
@alloc_c8f83832b2660f32314e0d6d776bda08 = private unnamed_addr constant <{ [15 x i8] }> <{ [15 x i8] c"HAVE_SYS_STAT_H" }>, align 1
@alloc_9aad346306141311044523afddfee539 = private unnamed_addr constant <{ [15 x i8] }> <{ [15 x i8] c"HAVE_SYS_TIME_H" }>, align 1
@alloc_63d0c7a933021230b8aecfe8d3ad5720 = private unnamed_addr constant <{ [13 x i8] }> <{ [13 x i8] c"HAVE_UNISTD_H" }>, align 1
@alloc_5414e759b3232edc6b8f44b10c5986c9 = private unnamed_addr constant <{ [9 x i8] }> <{ [9 x i8] c"HAVE_RECV" }>, align 1
@alloc_ed59b1c46a43db56efeeba9f52a263f2 = private unnamed_addr constant <{ [11 x i8] }> <{ [11 x i8] c"HAVE_SELECT" }>, align 1
@alloc_a78f631eb2a9c58dfd896bd4a3449d7e = private unnamed_addr constant <{ [9 x i8] }> <{ [9 x i8] c"HAVE_SEND" }>, align 1
@alloc_52fc355f9e0d34bf674bddffb2a08ccf = private unnamed_addr constant <{ [11 x i8] }> <{ [11 x i8] c"HAVE_SOCKET" }>, align 1
@alloc_7d7cf6d7ec28dfa4ae4d5504048ae3e2 = private unnamed_addr constant <{ [15 x i8] }> <{ [15 x i8] c"HAVE_STERRROR_R" }>, align 1
@alloc_6d69930fd299581d065c5988cc18e665 = private unnamed_addr constant <{ [15 x i8] }> <{ [15 x i8] c"HAVE_SOCKETPAIR" }>, align 1
@alloc_95b0602112d7639aaa5312a33bc74313 = private unnamed_addr constant <{ [19 x i8] }> <{ [19 x i8] c"HAVE_STRUCT_TIMEVAL" }>, align 1
@alloc_bc8e99c5657555f8662160f2101bc3a8 = private unnamed_addr constant <{ [13 x i8] }> <{ [13 x i8] c"HAVE_SYS_UN_H" }>, align 1
@alloc_3edd860b1341e94bf956e0dae425f80c = private unnamed_addr constant <{ [17 x i8] }> <{ [17 x i8] c"USE_THREADS_POSIX" }>, align 1
@alloc_4032f1c75b0d83192a2311b6c67f49ea = private unnamed_addr constant <{ [16 x i8] }> <{ [16 x i8] c"USE_UNIX_SOCKETS" }>, align 1
@alloc_33205ad09e8188d64299bc31dd87bce9 = private unnamed_addr constant <{ [14 x i8] }> <{ [14 x i8] c"RECV_TYPE_ARG2" }>, align 1
@alloc_1f2cc8517a65ebe39ee28e7ab8ddc886 = private unnamed_addr constant <{ [5 x i8] }> <{ [5 x i8] c"void*" }>, align 1
@alloc_9e521fae9e52dc77369d32234da9b22b = private unnamed_addr constant <{ [14 x i8] }> <{ [14 x i8] c"RECV_TYPE_ARG3" }>, align 1
@alloc_0f02f4a70c50b80341b77c17918d6f23 = private unnamed_addr constant <{ [6 x i8] }> <{ [6 x i8] c"size_t" }>, align 1
@alloc_482cdce44bcad412645f61c297e9f485 = private unnamed_addr constant <{ [14 x i8] }> <{ [14 x i8] c"RECV_TYPE_ARG4" }>, align 1
@alloc_4a5482040b4e6d487d67afefe7cf8206 = private unnamed_addr constant <{ [14 x i8] }> <{ [14 x i8] c"RECV_TYPE_RETV" }>, align 1
@alloc_1c5ee971e6ca48d18898efd03d3f3c8b = private unnamed_addr constant <{ [7 x i8] }> <{ [7 x i8] c"ssize_t" }>, align 1
@alloc_896fb9845fa973b21427cfd8b2f9fa10 = private unnamed_addr constant <{ [14 x i8] }> <{ [14 x i8] c"SEND_QUAL_ARG2" }>, align 1
@alloc_c73deed102c97451194c56f5298af9c7 = private unnamed_addr constant <{ [5 x i8] }> <{ [5 x i8] c"const" }>, align 1
@alloc_a678ae4a025683795b6025d92013912c = private unnamed_addr constant <{ [14 x i8] }> <{ [14 x i8] c"SEND_TYPE_ARG1" }>, align 1
@alloc_69216a821c3b90b872ed7eb94ddda298 = private unnamed_addr constant <{ [14 x i8] }> <{ [14 x i8] c"SEND_TYPE_ARG2" }>, align 1
@alloc_6df262d180b0bcb9cd4999335cab4dbe = private unnamed_addr constant <{ [14 x i8] }> <{ [14 x i8] c"SEND_TYPE_ARG3" }>, align 1
@alloc_5992a2a1cd9847cada30e14547b61238 = private unnamed_addr constant <{ [14 x i8] }> <{ [14 x i8] c"SEND_TYPE_ARG4" }>, align 1
@alloc_0361d0a206a94aa57d98e9333ed4a21d = private unnamed_addr constant <{ [14 x i8] }> <{ [14 x i8] c"SEND_TYPE_RETV" }>, align 1
@alloc_dab269cc8ad176064ce96f157af4a9f5 = private unnamed_addr constant <{ [17 x i8] }> <{ [17 x i8] c"SIZEOF_CURL_OFF_T" }>, align 1
@alloc_7b73433ff6202cf4b7f65fc1930b9e3f = private unnamed_addr constant <{ [1 x i8] }> <{ [1 x i8] c"8" }>, align 1
@alloc_edcbb3481aaae7cdaa5fee8808229bae = private unnamed_addr constant <{ [10 x i8] }> <{ [10 x i8] c"SIZEOF_INT" }>, align 1
@alloc_9cf8d94634c21829dfe78a5c04e937a1 = private unnamed_addr constant <{ [1 x i8] }> <{ [1 x i8] c"4" }>, align 1
@alloc_7a0efdcc02cededa2fc76c2665903436 = private unnamed_addr constant <{ [12 x i8] }> <{ [12 x i8] c"SIZEOF_SHORT" }>, align 1
@alloc_2915479852334936e8130753f7743db9 = private unnamed_addr constant <{ [1 x i8] }> <{ [1 x i8] c"2" }>, align 1
@alloc_2a98d8c7a09d982902c73abb19fe116c = private unnamed_addr constant <{ [28 x i8] }> <{ [28 x i8] c"HAVE_CLOCK_GETTIME_MONOTONIC" }>, align 1
@alloc_98e7f55cac558c09db078e558561c0cd = private unnamed_addr constant <{ [17 x i8] }> <{ [17 x i8] c"HAVE_GETTIMEOFDAY" }>, align 1
@alloc_eac391a70f88078873f464195359ca6e = private unnamed_addr constant <{ [14 x i8] }> <{ [14 x i8] c"HAVE_POLL_FINE" }>, align 1
@alloc_cacec47988c8235a988df3fd40dd2552 = private unnamed_addr constant <{ [9 x i8] }> <{ [9 x i8] c"__APPLE__" }>, align 1
@alloc_6792664d6449d4550a37a027452caf5b = private unnamed_addr constant <{ [23 x i8] }> <{ [23 x i8] c"HAVE_MACH_ABSOLUTE_TIME" }>, align 1
@alloc_89c770c4183308732c9afeda3bc787f6 = private unnamed_addr constant <{ [11 x i8] }> <{ [11 x i8] c"HAVE_GSSAPI" }>, align 1
@alloc_ddff95dd034ae77c159645ab5b8a14b8 = private unnamed_addr constant <{ [22 x i8] }> <{ [22 x i8] c"curl/lib/curl_gssapi.c" }>, align 1
@alloc_8e34657b082fe93d7900d6b625e02c85 = private unnamed_addr constant <{ [23 x i8] }> <{ [23 x i8] c"curl/lib/socks_gssapi.c" }>, align 1
@alloc_ece507674a6c991169326b81ce9daf86 = private unnamed_addr constant <{ [30 x i8] }> <{ [30 x i8] c"curl/lib/vauth/spnego_gssapi.c" }>, align 1
@alloc_ee15e07eb55eac865bcdc696422cad5e = private unnamed_addr constant <{ [11 x i8] }> <{ [11 x i8] c"GSSAPI_ROOT" }>, align 1
@alloc_44b21df6398ac6388f15e409169ee25d = private unnamed_addr constant <{ [33 x i8] }> <{ [33 x i8] c"cargo:rustc-link-lib=gssapi_krb5\0A" }>, align 1
@alloc_9da2149f25451e71e8985e9a1a051abe = private unnamed_addr constant <{ ptr, [8 x i8] }> <{ ptr @alloc_44b21df6398ac6388f15e409169ee25d, [8 x i8] c"!\00\00\00\00\00\00\00" }>, align 8
@alloc_6508c675143a2a16e0690055cd395724 = private unnamed_addr constant <{ [30 x i8] }> <{ [30 x i8] c"CARGO_CFG_TARGET_POINTER_WIDTH" }>, align 1
@alloc_63b89982df1774824d9cdccc3b48f860 = private unnamed_addr constant <{ ptr, [16 x i8] }> <{ ptr @alloc_fa09d0b46d4a02a3fb656c6ad68a8b34, [16 x i8] c"g\00\00\00\00\00\00\00\A7\01\00\00\0E\00\00\00" }>, align 8
@alloc_3748a07fb9507e59de03071260afe95a = private unnamed_addr constant <{ ptr, [16 x i8] }> <{ ptr @alloc_fa09d0b46d4a02a3fb656c6ad68a8b34, [16 x i8] c"g\00\00\00\00\00\00\00\A9\01\00\00\0E\00\00\00" }>, align 8
@alloc_5ba2bf207076e8e5017ff3465bdda4d3 = private unnamed_addr constant <{ [14 x i8] }> <{ [14 x i8] c"SIZEOF_SSIZE_T" }>, align 1
@alloc_2f74242ff95433fb1f6799451c005771 = private unnamed_addr constant <{ ptr, [16 x i8] }> <{ ptr @alloc_fa09d0b46d4a02a3fb656c6ad68a8b34, [16 x i8] c"g\00\00\00\00\00\00\00\AA\01\00\00C\00\00\00" }>, align 8
@alloc_999404ea6a60e120ecc43ad55c62ed42 = private unnamed_addr constant <{ [13 x i8] }> <{ [13 x i8] c"SIZEOF_SIZE_T" }>, align 1
@alloc_5a972312ddb5bd7ea873c00b8e9f5e0c = private unnamed_addr constant <{ ptr, [16 x i8] }> <{ ptr @alloc_fa09d0b46d4a02a3fb656c6ad68a8b34, [16 x i8] c"g\00\00\00\00\00\00\00\AB\01\00\00B\00\00\00" }>, align 8
@alloc_db88577675a36701ff03850d7ad82a9d = private unnamed_addr constant <{ [11 x i8] }> <{ [11 x i8] c"SIZEOF_LONG" }>, align 1
@alloc_e97708f3f2e8302cba0bffb04b48bf29 = private unnamed_addr constant <{ ptr, [16 x i8] }> <{ ptr @alloc_fa09d0b46d4a02a3fb656c6ad68a8b34, [16 x i8] c"g\00\00\00\00\00\00\00\AC\01\00\00@\00\00\00" }>, align 8
@alloc_f631a48341c488b35a83c60df0acdf1b = private unnamed_addr constant <{ [19 x i8] }> <{ [19 x i8] c"-fvisibility=hidden" }>, align 1
@alloc_47c36e0060e31c9a9f68ecdd662aa7a1 = private unnamed_addr constant <{ [5 x i8] }> <{ [5 x i8] c"WIN32" }>, align 1
@alloc_16f1ed1beb25269cb37e1414dc1c4eca = private unnamed_addr constant <{ [17 x i8] }> <{ [17 x i8] c"USE_THREADS_WIN32" }>, align 1
@alloc_108511d6ee869611ce033d7071173634 = private unnamed_addr constant <{ [24 x i8] }> <{ [24 x i8] c"HAVE_IOCTLSOCKET_FIONBIO" }>, align 1
@alloc_3e786167dd733de2632a545511276240 = private unnamed_addr constant <{ [11 x i8] }> <{ [11 x i8] c"USE_WINSOCK" }>, align 1
@alloc_a9aac26811b528fa29877086f1c0fe01 = private unnamed_addr constant <{ [23 x i8] }> <{ [23 x i8] c"curl/lib/system_win32.c" }>, align 1
@alloc_6534199a72a31727cae4a120b2b7f3d7 = private unnamed_addr constant <{ [24 x i8] }> <{ [24 x i8] c"curl/lib/version_win32.c" }>, align 1
@alloc_a08ec98c40194187455a7da2f82ccb31 = private unnamed_addr constant <{ [28 x i8] }> <{ [28 x i8] c"curl/lib/vauth/digest_sspi.c" }>, align 1
@alloc_ba2f701fe2a97fb118defe90cca043d1 = private unnamed_addr constant <{ [25 x i8] }> <{ [25 x i8] c"curl/lib/curl_multibyte.c" }>, align 1
@alloc_d92dc953748a7a9902c2779ded90505a = private unnamed_addr constant <{ [28 x i8] }> <{ [28 x i8] c"cargo:rustc-link-lib=ws2_32\0A" }>, align 1
@alloc_37af5e32c4b41657e8df482148b67991 = private unnamed_addr constant <{ ptr, [8 x i8] }> <{ ptr @alloc_d92dc953748a7a9902c2779ded90505a, [8 x i8] c"\1C\00\00\00\00\00\00\00" }>, align 8
@alloc_99aec62b253b3f66471b19d04d424188 = private unnamed_addr constant <{ [29 x i8] }> <{ [29 x i8] c"cargo:rustc-link-lib=crypt32\0A" }>, align 1
@alloc_f91736005ad48cd345dc0306e7fe45c7 = private unnamed_addr constant <{ ptr, [8 x i8] }> <{ ptr @alloc_99aec62b253b3f66471b19d04d424188, [8 x i8] c"\1D\00\00\00\00\00\00\00" }>, align 8
@alloc_f5ff57bad6cc6774c9b482eb6de9ccd3 = private unnamed_addr constant <{ [7 x i8] }> <{ [7 x i8] c"solaris" }>, align 1
@alloc_356462afea2b2ceb7e3f5c630f22c65a = private unnamed_addr constant <{ [25 x i8] }> <{ [25 x i8] c"cargo:rustc-link-lib=nsl\0A" }>, align 1
@alloc_b2a5103b184efd12ffb50c5209e4d42b = private unnamed_addr constant <{ ptr, [8 x i8] }> <{ ptr @alloc_356462afea2b2ceb7e3f5c630f22c65a, [8 x i8] c"\19\00\00\00\00\00\00\00" }>, align 8
@alloc_ed25bdf001c771a6959a8a786838713e = private unnamed_addr constant <{ [40 x i8] }> <{ [40 x i8] c"cargo:rustc-link-lib=framework=Security\0A" }>, align 1
@alloc_e91ee58c106de14cfc7059a643f61de6 = private unnamed_addr constant <{ ptr, [8 x i8] }> <{ ptr @alloc_ed25bdf001c771a6959a8a786838713e, [8 x i8] c"(\00\00\00\00\00\00\00" }>, align 8
@alloc_c2dda6f5146bc2ada64adab0e7063436 = private unnamed_addr constant <{ [46 x i8] }> <{ [46 x i8] c"cargo:rustc-link-lib=framework=CoreFoundation\0A" }>, align 1
@alloc_c0813553b1dc98bd93a5786e4a9f49c4 = private unnamed_addr constant <{ ptr, [8 x i8] }> <{ ptr @alloc_c2dda6f5146bc2ada64adab0e7063436, [8 x i8] c".\00\00\00\00\00\00\00" }>, align 8
@alloc_9999e8dfa026b30138bd89d887d3dcc3 = private unnamed_addr constant <{ [44 x i8] }> <{ [44 x i8] c"cargo:rustc-link-lib=framework=CoreServices\0A" }>, align 1
@alloc_b2d8090ca28fcfacc5970210a880e871 = private unnamed_addr constant <{ ptr, [8 x i8] }> <{ ptr @alloc_9999e8dfa026b30138bd89d887d3dcc3, [8 x i8] c",\00\00\00\00\00\00\00" }>, align 8
@alloc_5aa7c942d3f9751dd3fc2dd9deabfdd0 = private unnamed_addr constant <{ [51 x i8] }> <{ [51 x i8] c"cargo:rustc-link-lib=framework=SystemConfiguration\0A" }>, align 1
@alloc_bbc83ba0c35efeda3c1e2132b6887461 = private unnamed_addr constant <{ ptr, [8 x i8] }> <{ ptr @alloc_5aa7c942d3f9751dd3fc2dd9deabfdd0, [8 x i8] c"3\00\00\00\00\00\00\00" }>, align 8
@alloc_1054d02f733e7bae0410932ad265baba = private unnamed_addr constant <{ [18 x i8] }> <{ [18 x i8] c"curl/include/curl/" }>, align 1
@alloc_760987b7d10cbdad5d4f386055430dd3 = private unnamed_addr constant <{ ptr, [8 x i8] }> <{ ptr @alloc_1054d02f733e7bae0410932ad265baba, [8 x i8] c"\12\00\00\00\00\00\00\00" }>, align 8
@alloc_c1f11bbbd0340ee7eced8ce8dbcbce4f = private unnamed_addr constant <{ ptr, [16 x i8] }> <{ ptr @alloc_fa09d0b46d4a02a3fb656c6ad68a8b34, [16 x i8] c"g\00\00\00\00\00\00\00V\00\00\00\0A\00\00\00" }>, align 8
@alloc_fb153c9230de7a3c3bfa208f2716c142 = private unnamed_addr constant <{ [7 x i8] }> <{ [7 x i8] c"libcurl" }>, align 1
@alloc_b15d653af2b98c25f72dbfcf76250081 = private unnamed_addr constant <{ ptr, [16 x i8] }> <{ ptr @alloc_fa09d0b46d4a02a3fb656c6ad68a8b34, [16 x i8] c"g\00\00\00\00\00\00\00\16\02\00\00/\00\00\00" }>, align 8
@alloc_134377e3b0a0410d2acb355d834fe901 = private unnamed_addr constant <{ [38 x i8] }> <{ [38 x i8] c"Couldn't find libcurl from pkgconfig (" }>, align 1
@alloc_cacf6c066eaa8af83459d6f8adc72aef = private unnamed_addr constant <{ [31 x i8] }> <{ [31 x i8] c"), compiling it from source...\0A" }>, align 1
@alloc_34516a96673cfdfbd2d1b73dba4c577f = private unnamed_addr constant <{ ptr, [8 x i8], ptr, [8 x i8] }> <{ ptr @alloc_134377e3b0a0410d2acb355d834fe901, [8 x i8] c"&\00\00\00\00\00\00\00", ptr @alloc_cacf6c066eaa8af83459d6f8adc72aef, [8 x i8] c"\1F\00\00\00\00\00\00\00" }>, align 8
@alloc_c1ed0f452d3977ccef37a0f5d36af0aa = private unnamed_addr constant <{ [12 x i8] }> <{ [12 x i8] c"xcode-select" }>, align 1
@alloc_f2d2ffed6ad4ed524c7a339b86db15d7 = private unnamed_addr constant <{ [2 x i8] }> <{ [2 x i8] c"-p" }>, align 1
@alloc_1a4a9f91ec4fb857c44b5befbf79b4d6 = private unnamed_addr constant <{ [10 x i8] }> <{ [10 x i8] c"xcodebuild" }>, align 1
@alloc_db5c476d4a679d88e71da6b1552d1fbd = private unnamed_addr constant <{ [8 x i8] }> <{ [8 x i8] c"-version" }>, align 1
@alloc_e4bb436fc1d8d13b86fc8a8e1ff96205 = private unnamed_addr constant <{ [15 x i8] }> <{ [15 x i8] c"xcode version: " }>, align 1
@alloc_e19274152aba52dd7c7c522d62e80a6b = private unnamed_addr constant <{ ptr, [8 x i8], ptr, [8 x i8] }> <{ ptr @alloc_e4bb436fc1d8d13b86fc8a8e1ff96205, [8 x i8] c"\0F\00\00\00\00\00\00\00", ptr @alloc_49a1e817e911805af64bbc7efb390101, [8 x i8] c"\01\00\00\00\00\00\00\00" }>, align 8
@alloc_8914b99e5a8124864e8fc3b4bc072220 = private unnamed_addr constant <{ [5 x i8] }> <{ [5 x i8] c"Xcode" }>, align 1
@alloc_5912d9e663c5d0bfeb1504bc552ddbad = private unnamed_addr constant <{ ptr, [8 x i8] }> <{ ptr @alloc_8914b99e5a8124864e8fc3b4bc072220, [8 x i8] c"\05\00\00\00\00\00\00\00" }>, align 8
@alloc_ae8e6b4285749e73656b0089b701091b = private unnamed_addr constant <{ [49 x i8] }> <{ [49 x i8] c"unable to determine Xcode version, assuming >= 9\0A" }>, align 1
@alloc_2107785ffa7a32a8f86f45178f09ac0c = private unnamed_addr constant <{ ptr, [8 x i8] }> <{ ptr @alloc_ae8e6b4285749e73656b0089b701091b, [8 x i8] c"1\00\00\00\00\00\00\00" }>, align 8
@alloc_eb301fb44a94dcec1012463d27346bad = private unnamed_addr constant <{ ptr, [16 x i8] }> <{ ptr @alloc_fa09d0b46d4a02a3fb656c6ad68a8b34, [16 x i8] c"g\00\00\00\00\00\00\00'\02\00\00\1F\00\00\00" }>, align 8
@alloc_a0672fd4965cf8c4fc7510ee458bdffe = private unnamed_addr constant <{ [11 x i8] }> <{ [11 x i8] c"curl-config" }>, align 1
@alloc_a5519c09a37e725bd89afdcde6c7f331 = private unnamed_addr constant <{ [10 x i8] }> <{ [10 x i8] c"--features" }>, align 1
@alloc_520a43185d7eb92d5b5e2d399bfabd4e = private unnamed_addr constant <{ [20 x i8] }> <{ [20 x i8] c"curl-config failed: " }>, align 1
@alloc_97214c79b6b152b786c908c1bef61114 = private unnamed_addr constant <{ ptr, [8 x i8], ptr, [8 x i8] }> <{ ptr @alloc_520a43185d7eb92d5b5e2d399bfabd4e, [8 x i8] c"\14\00\00\00\00\00\00\00", ptr @alloc_49a1e817e911805af64bbc7efb390101, [8 x i8] c"\01\00\00\00\00\00\00\00" }>, align 8
@alloc_61249f1e7952828d09b1a62adae357ae = private unnamed_addr constant <{ [5 x i8] }> <{ [5 x i8] c"HTTP2" }>, align 1
@alloc_851f81d2398ecd2987f505a645ca9c42 = private unnamed_addr constant <{ [88 x i8] }> <{ [88 x i8] c"failed to find http-2 feature enabled in pkg-config-found libcurl, building from source\0A" }>, align 1
@alloc_fdaf9da7c87f65f602750cdaa0ff7f69 = private unnamed_addr constant <{ ptr, [8 x i8] }> <{ ptr @alloc_851f81d2398ecd2987f505a645ca9c42, [8 x i8] c"X\00\00\00\00\00\00\00" }>, align 8
@alloc_f72c25ca33f23c3b377378ff23492f33 = private unnamed_addr constant <{ [27 x i8] }> <{ [27 x i8] c"failed to run curl-config (" }>, align 1
@alloc_e380eeb6eb63f6b690c511eee30aba6e = private unnamed_addr constant <{ [24 x i8] }> <{ [24 x i8] c"), building from source\0A" }>, align 1
@alloc_ec9f32aabfa1920b9a02c280bfc4e9f6 = private unnamed_addr constant <{ ptr, [8 x i8], ptr, [8 x i8] }> <{ ptr @alloc_f72c25ca33f23c3b377378ff23492f33, [8 x i8] c"\1B\00\00\00\00\00\00\00", ptr @alloc_e380eeb6eb63f6b690c511eee30aba6e, [8 x i8] c"\18\00\00\00\00\00\00\00" }>, align 8
@alloc_8a5afde94ea4fc6cebe2a9e18e260649 = private unnamed_addr constant <{ [19 x i8] }> <{ [19 x i8] c"--print-search-dirs" }>, align 1
@alloc_4abc8d0ef75bd6999f8231687ba4a494 = private unnamed_addr constant <{ [81 x i8] }> <{ [81 x i8] c"failed to run 'clang --print-search-dirs', continuing without a link search path\0A" }>, align 1
@alloc_79b6a76f36b6e1c5e09224bca7d815ba = private unnamed_addr constant <{ ptr, [8 x i8] }> <{ ptr @alloc_4abc8d0ef75bd6999f8231687ba4a494, [8 x i8] c"Q\00\00\00\00\00\00\00" }>, align 8
@alloc_7aefac7990009042ba3d91a185c308aa = private unnamed_addr constant <{ [60 x i8] }> <{ [60 x i8] c"failed to determine link search path, continuing without it\0A" }>, align 1
@alloc_52dff2dc9a770b41a8c2b0ddfa18c803 = private unnamed_addr constant <{ ptr, [8 x i8] }> <{ ptr @alloc_7aefac7990009042ba3d91a185c308aa, [8 x i8] c"<\00\00\00\00\00\00\00" }>, align 8
@alloc_c9a489e53d705543e300c85db1dda27c = private unnamed_addr constant <{ [12 x i8] }> <{ [12 x i8] c"libraries: =" }>, align 1
@alloc_6e0988e6bdc423e9e91ef441b3c298fe = private unnamed_addr constant <{ [11 x i8] }> <{ [11 x i8] c"/lib/darwin" }>, align 1
@alloc_9e3985ae2e3630eda97579bf15ec430d = private unnamed_addr constant <{ ptr, [8 x i8], ptr, [8 x i8] }> <{ ptr @alloc_513570631223a12912d85da2bec3b15a, [8 x i8] zeroinitializer, ptr @alloc_6e0988e6bdc423e9e91ef441b3c298fe, [8 x i8] c"\0B\00\00\00\00\00\00\00" }>, align 8

; <alloc::string::String as core::ops::index::Index<core::ops::range::RangeFull>>::index
; Function Attrs: inlinehint nonlazybind uwtable
define internal { ptr, i64 } @"_ZN100_$LT$alloc..string..String$u20$as$u20$core..ops..index..Index$LT$core..ops..range..RangeFull$GT$$GT$5index17hf2d66dfa916c08e8E"(ptr align 8 %self, ptr align 8 %0) unnamed_addr #0 {
start:
  %_14 = alloca %"core::ptr::metadata::PtrComponents<[u8]>", align 8
  %_13 = alloca %"core::ptr::metadata::PtrRepr<[u8]>", align 8
  %1 = getelementptr inbounds i8, ptr %self, i64 8
  %self1 = load ptr, ptr %1, align 8, !nonnull !4, !noundef !4
  %2 = getelementptr inbounds %"alloc::vec::Vec<u8>", ptr %self, i32 0, i32 1
  %len = load i64, ptr %2, align 8, !noundef !4
  store ptr %self1, ptr %_14, align 8
  %3 = getelementptr inbounds i8, ptr %_14, i64 8
  store i64 %len, ptr %3, align 8
  %4 = load ptr, ptr %_14, align 8, !noundef !4
  %5 = getelementptr inbounds i8, ptr %_14, i64 8
  %6 = load i64, ptr %5, align 8, !noundef !4
  store ptr %4, ptr %_13, align 8
  %7 = getelementptr inbounds i8, ptr %_13, i64 8
  store i64 %6, ptr %7, align 8
  %v.0 = load ptr, ptr %_13, align 8, !noundef !4
  %8 = getelementptr inbounds i8, ptr %_13, i64 8
  %v.1 = load i64, ptr %8, align 8, !noundef !4
  %9 = insertvalue { ptr, i64 } poison, ptr %v.0, 0
  %10 = insertvalue { ptr, i64 } %9, i64 %v.1, 1
  ret { ptr, i64 } %10
}

; cc::Build::file
; Function Attrs: nonlazybind uwtable
define internal align 8 ptr @_ZN2cc5Build4file17hab67bdad3830210cE(ptr align 8 %self, ptr align 1 %0, i64 %1) unnamed_addr #1 personality ptr @rust_eh_personality {
start:
  %2 = alloca { ptr, i32, [1 x i32] }, align 8
  %p = alloca { ptr, i64 }, align 8
  store ptr %0, ptr %p, align 8
  %3 = getelementptr inbounds i8, ptr %p, i64 8
  store i64 %1, ptr %3, align 8
  %_4 = getelementptr inbounds %"cc::Build", ptr %self, i32 0, i32 8
; invoke <&T as core::convert::AsRef<U>>::as_ref
  %4 = invoke { ptr, i64 } @"_ZN55_$LT$$RF$T$u20$as$u20$core..convert..AsRef$LT$U$GT$$GT$6as_ref17h9cb6e6cabbfac9daE"(ptr align 8 %p)
          to label %bb1 unwind label %cleanup

bb5:                                              ; preds = %cleanup
  %5 = load ptr, ptr %2, align 8, !noundef !4
  %6 = getelementptr inbounds i8, ptr %2, i64 8
  %7 = load i32, ptr %6, align 8, !noundef !4
  %8 = insertvalue { ptr, i32 } poison, ptr %5, 0
  %9 = insertvalue { ptr, i32 } %8, i32 %7, 1
  resume { ptr, i32 } %9

cleanup:                                          ; preds = %bb2, %bb1, %start
  %10 = landingpad { ptr, i32 }
          cleanup
  %11 = extractvalue { ptr, i32 } %10, 0
  %12 = extractvalue { ptr, i32 } %10, 1
  store ptr %11, ptr %2, align 8
  %13 = getelementptr inbounds i8, ptr %2, i64 8
  store i32 %12, ptr %13, align 8
  br label %bb5

bb1:                                              ; preds = %start
  %_6.0 = extractvalue { ptr, i64 } %4, 0
  %_6.1 = extractvalue { ptr, i64 } %4, 1
; invoke <T as core::convert::Into<U>>::into
  %14 = invoke { ptr, i64 } @"_ZN50_$LT$T$u20$as$u20$core..convert..Into$LT$U$GT$$GT$4into17h22a99d83004371e1E"(ptr align 1 %_6.0, i64 %_6.1, ptr align 8 @alloc_44f0d236733975b4be3c3e80e033fb5f)
          to label %bb2 unwind label %cleanup

bb2:                                              ; preds = %bb1
  %_5.0 = extractvalue { ptr, i64 } %14, 0
  %_5.1 = extractvalue { ptr, i64 } %14, 1
; invoke alloc::vec::Vec<T,A>::push
  invoke void @"_ZN5alloc3vec16Vec$LT$T$C$A$GT$4push17h39a8ea5deea03d04E"(ptr align 8 %_4, ptr %_5.0, i64 %_5.1)
          to label %bb3 unwind label %cleanup

bb3:                                              ; preds = %bb2
  ret ptr %self
}

; cc::Build::define
; Function Attrs: nonlazybind uwtable
define internal align 8 ptr @_ZN2cc5Build6define17hc464c1f00b57a3b9E(ptr align 8 %self, ptr align 1 %var.0, i64 %var.1, ptr align 1 %val.0, i64 %val.1) unnamed_addr #1 personality ptr @rust_eh_personality {
start:
  %0 = alloca { ptr, i32, [1 x i32] }, align 8
  %_11 = alloca i8, align 1
  %_7 = alloca %"alloc::sync::Arc<str>", align 8
  %_6 = alloca { %"alloc::sync::Arc<str>", %"core::option::Option<alloc::sync::Arc<str>>" }, align 8
  store i8 0, ptr %_11, align 1
  store i8 1, ptr %_11, align 1
  %_5 = getelementptr inbounds %"cc::Build", ptr %self, i32 0, i32 2
; invoke <T as core::convert::Into<U>>::into
  %1 = invoke { ptr, i64 } @"_ZN50_$LT$T$u20$as$u20$core..convert..Into$LT$U$GT$$GT$4into17h74d172aa6a8e3238E"(ptr align 1 %var.0, i64 %var.1, ptr align 8 @alloc_ffd874ee34b40f6ae04c98b67d5b882b)
          to label %bb1 unwind label %cleanup

bb8:                                              ; preds = %bb5, %cleanup
  %2 = load i8, ptr %_11, align 1, !range !5, !noundef !4
  %3 = trunc i8 %2 to i1
  br i1 %3, label %bb7, label %bb6

cleanup:                                          ; preds = %bb3, %start
  %4 = landingpad { ptr, i32 }
          cleanup
  %5 = extractvalue { ptr, i32 } %4, 0
  %6 = extractvalue { ptr, i32 } %4, 1
  store ptr %5, ptr %0, align 8
  %7 = getelementptr inbounds i8, ptr %0, i64 8
  store i32 %6, ptr %7, align 8
  br label %bb8

bb1:                                              ; preds = %start
  %8 = extractvalue { ptr, i64 } %1, 0
  %9 = extractvalue { ptr, i64 } %1, 1
  store ptr %8, ptr %_7, align 8
  %10 = getelementptr inbounds i8, ptr %_7, i64 8
  store i64 %9, ptr %10, align 8
  store i8 0, ptr %_11, align 1
; invoke <T as core::convert::Into<U>>::into
  %11 = invoke { ptr, i64 } @"_ZN50_$LT$T$u20$as$u20$core..convert..Into$LT$U$GT$$GT$4into17hde32e27b8d249cfdE"(ptr align 1 %val.0, i64 %val.1, ptr align 8 @alloc_082f566b94d9d059b448fe6ee5015d1d)
          to label %bb2 unwind label %cleanup1

bb5:                                              ; preds = %cleanup1
; invoke core::ptr::drop_in_place<alloc::sync::Arc<str>>
  invoke void @"_ZN4core3ptr48drop_in_place$LT$alloc..sync..Arc$LT$str$GT$$GT$17h5f5a669402f6034fE"(ptr align 8 %_7) #13
          to label %bb8 unwind label %terminate

cleanup1:                                         ; preds = %bb2, %bb1
  %12 = landingpad { ptr, i32 }
          cleanup
  %13 = extractvalue { ptr, i32 } %12, 0
  %14 = extractvalue { ptr, i32 } %12, 1
  store ptr %13, ptr %0, align 8
  %15 = getelementptr inbounds i8, ptr %0, i64 8
  store i32 %14, ptr %15, align 8
  br label %bb5

bb2:                                              ; preds = %bb1
  %_9.0 = extractvalue { ptr, i64 } %11, 0
  %_9.1 = extractvalue { ptr, i64 } %11, 1
; invoke core::option::Option<T>::map
  %16 = invoke { ptr, i64 } @"_ZN4core6option15Option$LT$T$GT$3map17hce7e07f59a94a125E"(ptr align 1 %_9.0, i64 %_9.1)
          to label %bb3 unwind label %cleanup1

bb3:                                              ; preds = %bb2
  %_8.0 = extractvalue { ptr, i64 } %16, 0
  %_8.1 = extractvalue { ptr, i64 } %16, 1
  %17 = load ptr, ptr %_7, align 8, !nonnull !4, !noundef !4
  %18 = getelementptr inbounds i8, ptr %_7, i64 8
  %19 = load i64, ptr %18, align 8, !noundef !4
  store ptr %17, ptr %_6, align 8
  %20 = getelementptr inbounds i8, ptr %_6, i64 8
  store i64 %19, ptr %20, align 8
  %21 = getelementptr inbounds { %"alloc::sync::Arc<str>", %"core::option::Option<alloc::sync::Arc<str>>" }, ptr %_6, i32 0, i32 1
  store ptr %_8.0, ptr %21, align 8
  %22 = getelementptr inbounds i8, ptr %21, i64 8
  store i64 %_8.1, ptr %22, align 8
; invoke alloc::vec::Vec<T,A>::push
  invoke void @"_ZN5alloc3vec16Vec$LT$T$C$A$GT$4push17h187d13ae4b45ca42E"(ptr align 8 %_5, ptr align 8 %_6)
          to label %bb4 unwind label %cleanup

bb4:                                              ; preds = %bb3
  ret ptr %self

terminate:                                        ; preds = %bb5
  %23 = landingpad { ptr, i32 }
          filter [0 x ptr] zeroinitializer
  %24 = extractvalue { ptr, i32 } %23, 0
  %25 = extractvalue { ptr, i32 } %23, 1
; call core::panicking::panic_in_cleanup
  call void @_ZN4core9panicking16panic_in_cleanup17h803841cec7522372E() #14
  unreachable

bb6:                                              ; preds = %bb7, %bb8
  %26 = load ptr, ptr %0, align 8, !noundef !4
  %27 = getelementptr inbounds i8, ptr %0, i64 8
  %28 = load i32, ptr %27, align 8, !noundef !4
  %29 = insertvalue { ptr, i32 } poison, ptr %26, 0
  %30 = insertvalue { ptr, i32 } %29, i32 %28, 1
  resume { ptr, i32 } %30

bb7:                                              ; preds = %bb8
  br label %bb6
}

; cc::Build::define
; Function Attrs: nonlazybind uwtable
define internal align 8 ptr @_ZN2cc5Build6define17hdc4a33c301a399e0E(ptr align 8 %self, ptr align 1 %var.0, i64 %var.1, ptr align 1 %val.0, i64 %val.1) unnamed_addr #1 personality ptr @rust_eh_personality {
start:
  %0 = alloca { ptr, i32, [1 x i32] }, align 8
  %_11 = alloca i8, align 1
  %_7 = alloca %"alloc::sync::Arc<str>", align 8
  %_6 = alloca { %"alloc::sync::Arc<str>", %"core::option::Option<alloc::sync::Arc<str>>" }, align 8
  store i8 0, ptr %_11, align 1
  store i8 1, ptr %_11, align 1
  %_5 = getelementptr inbounds %"cc::Build", ptr %self, i32 0, i32 2
; invoke <T as core::convert::Into<U>>::into
  %1 = invoke { ptr, i64 } @"_ZN50_$LT$T$u20$as$u20$core..convert..Into$LT$U$GT$$GT$4into17h74d172aa6a8e3238E"(ptr align 1 %var.0, i64 %var.1, ptr align 8 @alloc_ffd874ee34b40f6ae04c98b67d5b882b)
          to label %bb1 unwind label %cleanup

bb8:                                              ; preds = %bb5, %cleanup
  %2 = load i8, ptr %_11, align 1, !range !5, !noundef !4
  %3 = trunc i8 %2 to i1
  br i1 %3, label %bb7, label %bb6

cleanup:                                          ; preds = %bb3, %start
  %4 = landingpad { ptr, i32 }
          cleanup
  %5 = extractvalue { ptr, i32 } %4, 0
  %6 = extractvalue { ptr, i32 } %4, 1
  store ptr %5, ptr %0, align 8
  %7 = getelementptr inbounds i8, ptr %0, i64 8
  store i32 %6, ptr %7, align 8
  br label %bb8

bb1:                                              ; preds = %start
  %8 = extractvalue { ptr, i64 } %1, 0
  %9 = extractvalue { ptr, i64 } %1, 1
  store ptr %8, ptr %_7, align 8
  %10 = getelementptr inbounds i8, ptr %_7, i64 8
  store i64 %9, ptr %10, align 8
  store i8 0, ptr %_11, align 1
; invoke <T as core::convert::Into<U>>::into
  %11 = invoke { ptr, i64 } @"_ZN50_$LT$T$u20$as$u20$core..convert..Into$LT$U$GT$$GT$4into17he18155288c755fd8E"(ptr align 1 %val.0, i64 %val.1, ptr align 8 @alloc_082f566b94d9d059b448fe6ee5015d1d)
          to label %bb2 unwind label %cleanup1

bb5:                                              ; preds = %cleanup1
; invoke core::ptr::drop_in_place<alloc::sync::Arc<str>>
  invoke void @"_ZN4core3ptr48drop_in_place$LT$alloc..sync..Arc$LT$str$GT$$GT$17h5f5a669402f6034fE"(ptr align 8 %_7) #13
          to label %bb8 unwind label %terminate

cleanup1:                                         ; preds = %bb2, %bb1
  %12 = landingpad { ptr, i32 }
          cleanup
  %13 = extractvalue { ptr, i32 } %12, 0
  %14 = extractvalue { ptr, i32 } %12, 1
  store ptr %13, ptr %0, align 8
  %15 = getelementptr inbounds i8, ptr %0, i64 8
  store i32 %14, ptr %15, align 8
  br label %bb5

bb2:                                              ; preds = %bb1
  %_9.0 = extractvalue { ptr, i64 } %11, 0
  %_9.1 = extractvalue { ptr, i64 } %11, 1
; invoke core::option::Option<T>::map
  %16 = invoke { ptr, i64 } @"_ZN4core6option15Option$LT$T$GT$3map17hce7e07f59a94a125E"(ptr align 1 %_9.0, i64 %_9.1)
          to label %bb3 unwind label %cleanup1

bb3:                                              ; preds = %bb2
  %_8.0 = extractvalue { ptr, i64 } %16, 0
  %_8.1 = extractvalue { ptr, i64 } %16, 1
  %17 = load ptr, ptr %_7, align 8, !nonnull !4, !noundef !4
  %18 = getelementptr inbounds i8, ptr %_7, i64 8
  %19 = load i64, ptr %18, align 8, !noundef !4
  store ptr %17, ptr %_6, align 8
  %20 = getelementptr inbounds i8, ptr %_6, i64 8
  store i64 %19, ptr %20, align 8
  %21 = getelementptr inbounds { %"alloc::sync::Arc<str>", %"core::option::Option<alloc::sync::Arc<str>>" }, ptr %_6, i32 0, i32 1
  store ptr %_8.0, ptr %21, align 8
  %22 = getelementptr inbounds i8, ptr %21, i64 8
  store i64 %_8.1, ptr %22, align 8
; invoke alloc::vec::Vec<T,A>::push
  invoke void @"_ZN5alloc3vec16Vec$LT$T$C$A$GT$4push17h187d13ae4b45ca42E"(ptr align 8 %_5, ptr align 8 %_6)
          to label %bb4 unwind label %cleanup

bb4:                                              ; preds = %bb3
  ret ptr %self

terminate:                                        ; preds = %bb5
  %23 = landingpad { ptr, i32 }
          filter [0 x ptr] zeroinitializer
  %24 = extractvalue { ptr, i32 } %23, 0
  %25 = extractvalue { ptr, i32 } %23, 1
; call core::panicking::panic_in_cleanup
  call void @_ZN4core9panicking16panic_in_cleanup17h803841cec7522372E() #14
  unreachable

bb6:                                              ; preds = %bb7, %bb8
  %26 = load ptr, ptr %0, align 8, !noundef !4
  %27 = getelementptr inbounds i8, ptr %0, i64 8
  %28 = load i32, ptr %27, align 8, !noundef !4
  %29 = insertvalue { ptr, i32 } poison, ptr %26, 0
  %30 = insertvalue { ptr, i32 } %29, i32 %28, 1
  resume { ptr, i32 } %30

bb7:                                              ; preds = %bb8
  br label %bb6
}

; cc::Build::include
; Function Attrs: nonlazybind uwtable
define internal align 8 ptr @_ZN2cc5Build7include17h328c52a5ecef3f22E(ptr align 8 %self, ptr align 1 %0, i64 %1) unnamed_addr #1 personality ptr @rust_eh_personality {
start:
  %2 = alloca { ptr, i32, [1 x i32] }, align 8
  %dir = alloca { ptr, i64 }, align 8
  store ptr %0, ptr %dir, align 8
  %3 = getelementptr inbounds i8, ptr %dir, i64 8
  store i64 %1, ptr %3, align 8
  %_4 = getelementptr inbounds %"cc::Build", ptr %self, i32 0, i32 1
; invoke <&T as core::convert::AsRef<U>>::as_ref
  %4 = invoke { ptr, i64 } @"_ZN55_$LT$$RF$T$u20$as$u20$core..convert..AsRef$LT$U$GT$$GT$6as_ref17h9cb6e6cabbfac9daE"(ptr align 8 %dir)
          to label %bb1 unwind label %cleanup

bb5:                                              ; preds = %cleanup
  %5 = load ptr, ptr %2, align 8, !noundef !4
  %6 = getelementptr inbounds i8, ptr %2, i64 8
  %7 = load i32, ptr %6, align 8, !noundef !4
  %8 = insertvalue { ptr, i32 } poison, ptr %5, 0
  %9 = insertvalue { ptr, i32 } %8, i32 %7, 1
  resume { ptr, i32 } %9

cleanup:                                          ; preds = %bb2, %bb1, %start
  %10 = landingpad { ptr, i32 }
          cleanup
  %11 = extractvalue { ptr, i32 } %10, 0
  %12 = extractvalue { ptr, i32 } %10, 1
  store ptr %11, ptr %2, align 8
  %13 = getelementptr inbounds i8, ptr %2, i64 8
  store i32 %12, ptr %13, align 8
  br label %bb5

bb1:                                              ; preds = %start
  %_6.0 = extractvalue { ptr, i64 } %4, 0
  %_6.1 = extractvalue { ptr, i64 } %4, 1
; invoke <T as core::convert::Into<U>>::into
  %14 = invoke { ptr, i64 } @"_ZN50_$LT$T$u20$as$u20$core..convert..Into$LT$U$GT$$GT$4into17h22a99d83004371e1E"(ptr align 1 %_6.0, i64 %_6.1, ptr align 8 @alloc_712121e53757fd1f55fde93d375521d5)
          to label %bb2 unwind label %cleanup

bb2:                                              ; preds = %bb1
  %_5.0 = extractvalue { ptr, i64 } %14, 0
  %_5.1 = extractvalue { ptr, i64 } %14, 1
; invoke alloc::vec::Vec<T,A>::push
  invoke void @"_ZN5alloc3vec16Vec$LT$T$C$A$GT$4push17h39a8ea5deea03d04E"(ptr align 8 %_4, ptr %_5.0, i64 %_5.1)
          to label %bb3 unwind label %cleanup

bb3:                                              ; preds = %bb2
  ret ptr %self
}

; cc::Build::include
; Function Attrs: nonlazybind uwtable
define internal align 8 ptr @_ZN2cc5Build7include17h7d56844d64073dc6E(ptr align 8 %self, ptr align 8 %dir) unnamed_addr #1 personality ptr @rust_eh_personality {
start:
  %0 = alloca { ptr, i32, [1 x i32] }, align 8
  %_4 = getelementptr inbounds %"cc::Build", ptr %self, i32 0, i32 1
; invoke std::path::<impl core::convert::AsRef<std::path::Path> for std::ffi::os_str::OsString>::as_ref
  %1 = invoke { ptr, i64 } @"_ZN3std4path100_$LT$impl$u20$core..convert..AsRef$LT$std..path..Path$GT$$u20$for$u20$std..ffi..os_str..OsString$GT$6as_ref17hd3fabdc97448279aE"(ptr align 8 %dir)
          to label %bb1 unwind label %cleanup

bb5:                                              ; preds = %cleanup
; invoke core::ptr::drop_in_place<std::ffi::os_str::OsString>
  invoke void @"_ZN4core3ptr47drop_in_place$LT$std..ffi..os_str..OsString$GT$17h855db5cea175f234E"(ptr align 8 %dir) #13
          to label %bb6 unwind label %terminate

cleanup:                                          ; preds = %bb2, %bb1, %start
  %2 = landingpad { ptr, i32 }
          cleanup
  %3 = extractvalue { ptr, i32 } %2, 0
  %4 = extractvalue { ptr, i32 } %2, 1
  store ptr %3, ptr %0, align 8
  %5 = getelementptr inbounds i8, ptr %0, i64 8
  store i32 %4, ptr %5, align 8
  br label %bb5

bb1:                                              ; preds = %start
  %_6.0 = extractvalue { ptr, i64 } %1, 0
  %_6.1 = extractvalue { ptr, i64 } %1, 1
; invoke <T as core::convert::Into<U>>::into
  %6 = invoke { ptr, i64 } @"_ZN50_$LT$T$u20$as$u20$core..convert..Into$LT$U$GT$$GT$4into17h22a99d83004371e1E"(ptr align 1 %_6.0, i64 %_6.1, ptr align 8 @alloc_712121e53757fd1f55fde93d375521d5)
          to label %bb2 unwind label %cleanup

bb2:                                              ; preds = %bb1
  %_5.0 = extractvalue { ptr, i64 } %6, 0
  %_5.1 = extractvalue { ptr, i64 } %6, 1
; invoke alloc::vec::Vec<T,A>::push
  invoke void @"_ZN5alloc3vec16Vec$LT$T$C$A$GT$4push17h39a8ea5deea03d04E"(ptr align 8 %_4, ptr %_5.0, i64 %_5.1)
          to label %bb3 unwind label %cleanup

bb3:                                              ; preds = %bb2
; call core::ptr::drop_in_place<std::ffi::os_str::OsString>
  call void @"_ZN4core3ptr47drop_in_place$LT$std..ffi..os_str..OsString$GT$17h855db5cea175f234E"(ptr align 8 %dir)
  ret ptr %self

terminate:                                        ; preds = %bb5
  %7 = landingpad { ptr, i32 }
          filter [0 x ptr] zeroinitializer
  %8 = extractvalue { ptr, i32 } %7, 0
  %9 = extractvalue { ptr, i32 } %7, 1
; call core::panicking::panic_in_cleanup
  call void @_ZN4core9panicking16panic_in_cleanup17h803841cec7522372E() #14
  unreachable

bb6:                                              ; preds = %bb5
  %10 = load ptr, ptr %0, align 8, !noundef !4
  %11 = getelementptr inbounds i8, ptr %0, i64 8
  %12 = load i32, ptr %11, align 8, !noundef !4
  %13 = insertvalue { ptr, i32 } poison, ptr %10, 0
  %14 = insertvalue { ptr, i32 } %13, i32 %12, 1
  resume { ptr, i32 } %14
}

; cc::Build::include
; Function Attrs: nonlazybind uwtable
define internal align 8 ptr @_ZN2cc5Build7include17he7f52bb41bfe0ce8E(ptr align 8 %self, ptr align 8 %dir) unnamed_addr #1 personality ptr @rust_eh_personality {
start:
  %0 = alloca { ptr, i32, [1 x i32] }, align 8
  %_4 = getelementptr inbounds %"cc::Build", ptr %self, i32 0, i32 1
; invoke <std::path::PathBuf as core::convert::AsRef<std::path::Path>>::as_ref
  %1 = invoke { ptr, i64 } @"_ZN82_$LT$std..path..PathBuf$u20$as$u20$core..convert..AsRef$LT$std..path..Path$GT$$GT$6as_ref17h2d4bb67f5d9a0b8aE"(ptr align 8 %dir)
          to label %bb1 unwind label %cleanup

bb5:                                              ; preds = %cleanup
; invoke core::ptr::drop_in_place<std::path::PathBuf>
  invoke void @"_ZN4core3ptr39drop_in_place$LT$std..path..PathBuf$GT$17h3bed19ef85725cb6E"(ptr align 8 %dir) #13
          to label %bb6 unwind label %terminate

cleanup:                                          ; preds = %bb2, %bb1, %start
  %2 = landingpad { ptr, i32 }
          cleanup
  %3 = extractvalue { ptr, i32 } %2, 0
  %4 = extractvalue { ptr, i32 } %2, 1
  store ptr %3, ptr %0, align 8
  %5 = getelementptr inbounds i8, ptr %0, i64 8
  store i32 %4, ptr %5, align 8
  br label %bb5

bb1:                                              ; preds = %start
  %_6.0 = extractvalue { ptr, i64 } %1, 0
  %_6.1 = extractvalue { ptr, i64 } %1, 1
; invoke <T as core::convert::Into<U>>::into
  %6 = invoke { ptr, i64 } @"_ZN50_$LT$T$u20$as$u20$core..convert..Into$LT$U$GT$$GT$4into17h22a99d83004371e1E"(ptr align 1 %_6.0, i64 %_6.1, ptr align 8 @alloc_712121e53757fd1f55fde93d375521d5)
          to label %bb2 unwind label %cleanup

bb2:                                              ; preds = %bb1
  %_5.0 = extractvalue { ptr, i64 } %6, 0
  %_5.1 = extractvalue { ptr, i64 } %6, 1
; invoke alloc::vec::Vec<T,A>::push
  invoke void @"_ZN5alloc3vec16Vec$LT$T$C$A$GT$4push17h39a8ea5deea03d04E"(ptr align 8 %_4, ptr %_5.0, i64 %_5.1)
          to label %bb3 unwind label %cleanup

bb3:                                              ; preds = %bb2
; call core::ptr::drop_in_place<std::path::PathBuf>
  call void @"_ZN4core3ptr39drop_in_place$LT$std..path..PathBuf$GT$17h3bed19ef85725cb6E"(ptr align 8 %dir)
  ret ptr %self

terminate:                                        ; preds = %bb5
  %7 = landingpad { ptr, i32 }
          filter [0 x ptr] zeroinitializer
  %8 = extractvalue { ptr, i32 } %7, 0
  %9 = extractvalue { ptr, i32 } %7, 1
; call core::panicking::panic_in_cleanup
  call void @_ZN4core9panicking16panic_in_cleanup17h803841cec7522372E() #14
  unreachable

bb6:                                              ; preds = %bb5
  %10 = load ptr, ptr %0, align 8, !noundef !4
  %11 = getelementptr inbounds i8, ptr %0, i64 8
  %12 = load i32, ptr %11, align 8, !noundef !4
  %13 = insertvalue { ptr, i32 } poison, ptr %10, 0
  %14 = insertvalue { ptr, i32 } %13, i32 %12, 1
  resume { ptr, i32 } %14
}

; cc::Build::out_dir
; Function Attrs: nonlazybind uwtable
define internal align 8 ptr @_ZN2cc5Build7out_dir17h6d7d2f38432acd9cE(ptr align 8 %self, ptr align 8 %0) unnamed_addr #1 personality ptr @rust_eh_personality {
start:
  %1 = alloca { ptr, i32, [1 x i32] }, align 8
  %_3 = alloca %"core::option::Option<alloc::sync::Arc<std::path::Path>>", align 8
  %out_dir = alloca ptr, align 8
  store ptr %0, ptr %out_dir, align 8
; invoke <&T as core::convert::AsRef<U>>::as_ref
  %2 = invoke { ptr, i64 } @"_ZN55_$LT$$RF$T$u20$as$u20$core..convert..AsRef$LT$U$GT$$GT$6as_ref17h68e39133499e1ee5E"(ptr align 8 %out_dir)
          to label %bb1 unwind label %cleanup

bb6:                                              ; preds = %bb4, %cleanup
  %3 = load ptr, ptr %1, align 8, !noundef !4
  %4 = getelementptr inbounds i8, ptr %1, i64 8
  %5 = load i32, ptr %4, align 8, !noundef !4
  %6 = insertvalue { ptr, i32 } poison, ptr %3, 0
  %7 = insertvalue { ptr, i32 } %6, i32 %5, 1
  resume { ptr, i32 } %7

cleanup:                                          ; preds = %bb1, %start
  %8 = landingpad { ptr, i32 }
          cleanup
  %9 = extractvalue { ptr, i32 } %8, 0
  %10 = extractvalue { ptr, i32 } %8, 1
  store ptr %9, ptr %1, align 8
  %11 = getelementptr inbounds i8, ptr %1, i64 8
  store i32 %10, ptr %11, align 8
  br label %bb6

bb1:                                              ; preds = %start
  %_5.0 = extractvalue { ptr, i64 } %2, 0
  %_5.1 = extractvalue { ptr, i64 } %2, 1
; invoke <T as core::convert::Into<U>>::into
  %12 = invoke { ptr, i64 } @"_ZN50_$LT$T$u20$as$u20$core..convert..Into$LT$U$GT$$GT$4into17h22a99d83004371e1E"(ptr align 1 %_5.0, i64 %_5.1, ptr align 8 @alloc_aa34e077fe0f7bfadf007445d2cc78c1)
          to label %bb2 unwind label %cleanup

bb2:                                              ; preds = %bb1
  %_4.0 = extractvalue { ptr, i64 } %12, 0
  %_4.1 = extractvalue { ptr, i64 } %12, 1
  store ptr %_4.0, ptr %_3, align 8
  %13 = getelementptr inbounds i8, ptr %_3, i64 8
  store i64 %_4.1, ptr %13, align 8
  %14 = getelementptr inbounds %"cc::Build", ptr %self, i32 0, i32 22
; invoke core::ptr::drop_in_place<core::option::Option<alloc::sync::Arc<std::path::Path>>>
  invoke void @"_ZN4core3ptr88drop_in_place$LT$core..option..Option$LT$alloc..sync..Arc$LT$std..path..Path$GT$$GT$$GT$17h717cdc70a945a1a3E"(ptr align 8 %14)
          to label %bb3 unwind label %cleanup1

bb4:                                              ; preds = %cleanup1
  %15 = getelementptr inbounds %"cc::Build", ptr %self, i32 0, i32 22
  %16 = load ptr, ptr %_3, align 8, !noundef !4
  %17 = getelementptr inbounds i8, ptr %_3, i64 8
  %18 = load i64, ptr %17, align 8
  store ptr %16, ptr %15, align 8
  %19 = getelementptr inbounds i8, ptr %15, i64 8
  store i64 %18, ptr %19, align 8
  br label %bb6

cleanup1:                                         ; preds = %bb2
  %20 = landingpad { ptr, i32 }
          cleanup
  %21 = extractvalue { ptr, i32 } %20, 0
  %22 = extractvalue { ptr, i32 } %20, 1
  store ptr %21, ptr %1, align 8
  %23 = getelementptr inbounds i8, ptr %1, i64 8
  store i32 %22, ptr %23, align 8
  br label %bb4

bb3:                                              ; preds = %bb2
  %24 = getelementptr inbounds %"cc::Build", ptr %self, i32 0, i32 22
  %25 = load ptr, ptr %_3, align 8, !noundef !4
  %26 = getelementptr inbounds i8, ptr %_3, i64 8
  %27 = load i64, ptr %26, align 8
  store ptr %25, ptr %24, align 8
  %28 = getelementptr inbounds i8, ptr %24, i64 8
  store i64 %27, ptr %28, align 8
  ret ptr %self
}

; std::sys_common::backtrace::__rust_begin_short_backtrace
; Function Attrs: noinline nonlazybind uwtable
define internal void @_ZN3std10sys_common9backtrace28__rust_begin_short_backtrace17hce866f4869290808E(ptr %f) unnamed_addr #2 {
start:
; call core::ops::function::FnOnce::call_once
  call void @_ZN4core3ops8function6FnOnce9call_once17h7af030eafdfdbeb6E(ptr %f)
  call void asm sideeffect "", "~{memory}"(), !srcloc !6
  ret void
}

; std::fs::create_dir_all
; Function Attrs: nonlazybind uwtable
define internal ptr @_ZN3std2fs14create_dir_all17hb40bcd62d4285288E(ptr align 8 %0) unnamed_addr #1 personality ptr @rust_eh_personality {
start:
  %1 = alloca { ptr, i32, [1 x i32] }, align 8
  %_4 = alloca %"std::fs::DirBuilder", align 4
  %path = alloca ptr, align 8
  store ptr %0, ptr %path, align 8
  store i32 511, ptr %_4, align 4
  %2 = getelementptr inbounds i8, ptr %_4, i64 4
  store i8 0, ptr %2, align 4
  %3 = getelementptr inbounds i8, ptr %_4, i64 4
  store i8 1, ptr %3, align 4
; invoke <&T as core::convert::AsRef<U>>::as_ref
  %4 = invoke { ptr, i64 } @"_ZN55_$LT$$RF$T$u20$as$u20$core..convert..AsRef$LT$U$GT$$GT$6as_ref17h68e39133499e1ee5E"(ptr align 8 %path)
          to label %bb1 unwind label %cleanup

bb4:                                              ; preds = %cleanup
  %5 = load ptr, ptr %1, align 8, !noundef !4
  %6 = getelementptr inbounds i8, ptr %1, i64 8
  %7 = load i32, ptr %6, align 8, !noundef !4
  %8 = insertvalue { ptr, i32 } poison, ptr %5, 0
  %9 = insertvalue { ptr, i32 } %8, i32 %7, 1
  resume { ptr, i32 } %9

cleanup:                                          ; preds = %bb1, %start
  %10 = landingpad { ptr, i32 }
          cleanup
  %11 = extractvalue { ptr, i32 } %10, 0
  %12 = extractvalue { ptr, i32 } %10, 1
  store ptr %11, ptr %1, align 8
  %13 = getelementptr inbounds i8, ptr %1, i64 8
  store i32 %12, ptr %13, align 8
  br label %bb4

bb1:                                              ; preds = %start
  %_5.0 = extractvalue { ptr, i64 } %4, 0
  %_5.1 = extractvalue { ptr, i64 } %4, 1
; invoke std::fs::DirBuilder::create
  %_0 = invoke ptr @_ZN3std2fs10DirBuilder6create17h6dad6edfcdffb72cE(ptr align 4 %_4, ptr align 1 %_5.0, i64 %_5.1)
          to label %bb2 unwind label %cleanup

bb2:                                              ; preds = %bb1
  ret ptr %_0
}

; std::fs::create_dir_all
; Function Attrs: nonlazybind uwtable
define internal ptr @_ZN3std2fs14create_dir_all17hd51f583a0299fde5E(ptr align 8 %path) unnamed_addr #1 personality ptr @rust_eh_personality {
start:
  %0 = alloca { ptr, i32, [1 x i32] }, align 8
  %_4 = alloca %"std::fs::DirBuilder", align 4
  store i32 511, ptr %_4, align 4
  %1 = getelementptr inbounds i8, ptr %_4, i64 4
  store i8 0, ptr %1, align 4
  %2 = getelementptr inbounds i8, ptr %_4, i64 4
  store i8 1, ptr %2, align 4
; invoke <std::path::PathBuf as core::convert::AsRef<std::path::Path>>::as_ref
  %3 = invoke { ptr, i64 } @"_ZN82_$LT$std..path..PathBuf$u20$as$u20$core..convert..AsRef$LT$std..path..Path$GT$$GT$6as_ref17h2d4bb67f5d9a0b8aE"(ptr align 8 %path)
          to label %bb1 unwind label %cleanup

bb4:                                              ; preds = %cleanup
; invoke core::ptr::drop_in_place<std::path::PathBuf>
  invoke void @"_ZN4core3ptr39drop_in_place$LT$std..path..PathBuf$GT$17h3bed19ef85725cb6E"(ptr align 8 %path) #13
          to label %bb5 unwind label %terminate

cleanup:                                          ; preds = %bb1, %start
  %4 = landingpad { ptr, i32 }
          cleanup
  %5 = extractvalue { ptr, i32 } %4, 0
  %6 = extractvalue { ptr, i32 } %4, 1
  store ptr %5, ptr %0, align 8
  %7 = getelementptr inbounds i8, ptr %0, i64 8
  store i32 %6, ptr %7, align 8
  br label %bb4

bb1:                                              ; preds = %start
  %_5.0 = extractvalue { ptr, i64 } %3, 0
  %_5.1 = extractvalue { ptr, i64 } %3, 1
; invoke std::fs::DirBuilder::create
  %_0 = invoke ptr @_ZN3std2fs10DirBuilder6create17h6dad6edfcdffb72cE(ptr align 4 %_4, ptr align 1 %_5.0, i64 %_5.1)
          to label %bb2 unwind label %cleanup

bb2:                                              ; preds = %bb1
; call core::ptr::drop_in_place<std::path::PathBuf>
  call void @"_ZN4core3ptr39drop_in_place$LT$std..path..PathBuf$GT$17h3bed19ef85725cb6E"(ptr align 8 %path)
  ret ptr %_0

terminate:                                        ; preds = %bb4
  %8 = landingpad { ptr, i32 }
          filter [0 x ptr] zeroinitializer
  %9 = extractvalue { ptr, i32 } %8, 0
  %10 = extractvalue { ptr, i32 } %8, 1
; call core::panicking::panic_in_cleanup
  call void @_ZN4core9panicking16panic_in_cleanup17h803841cec7522372E() #14
  unreachable

bb5:                                              ; preds = %bb4
  %11 = load ptr, ptr %0, align 8, !noundef !4
  %12 = getelementptr inbounds i8, ptr %0, i64 8
  %13 = load i32, ptr %12, align 8, !noundef !4
  %14 = insertvalue { ptr, i32 } poison, ptr %11, 0
  %15 = insertvalue { ptr, i32 } %14, i32 %13, 1
  resume { ptr, i32 } %15
}

; std::fs::read_to_string
; Function Attrs: nonlazybind uwtable
define internal void @_ZN3std2fs14read_to_string17h3c24b1099636f9caE(ptr sret(%"core::result::Result<alloc::string::String, std::io::error::Error>") align 8 %_0, ptr align 1 %0, i64 %1) unnamed_addr #1 personality ptr @rust_eh_personality {
start:
  %2 = alloca { ptr, i32, [1 x i32] }, align 8
  %path = alloca { ptr, i64 }, align 8
  store ptr %0, ptr %path, align 8
  %3 = getelementptr inbounds i8, ptr %path, i64 8
  store i64 %1, ptr %3, align 8
; invoke <&T as core::convert::AsRef<U>>::as_ref
  %4 = invoke { ptr, i64 } @"_ZN55_$LT$$RF$T$u20$as$u20$core..convert..AsRef$LT$U$GT$$GT$6as_ref17h9cb6e6cabbfac9daE"(ptr align 8 %path)
          to label %bb1 unwind label %cleanup

bb4:                                              ; preds = %cleanup
  %5 = load ptr, ptr %2, align 8, !noundef !4
  %6 = getelementptr inbounds i8, ptr %2, i64 8
  %7 = load i32, ptr %6, align 8, !noundef !4
  %8 = insertvalue { ptr, i32 } poison, ptr %5, 0
  %9 = insertvalue { ptr, i32 } %8, i32 %7, 1
  resume { ptr, i32 } %9

cleanup:                                          ; preds = %bb1, %start
  %10 = landingpad { ptr, i32 }
          cleanup
  %11 = extractvalue { ptr, i32 } %10, 0
  %12 = extractvalue { ptr, i32 } %10, 1
  store ptr %11, ptr %2, align 8
  %13 = getelementptr inbounds i8, ptr %2, i64 8
  store i32 %12, ptr %13, align 8
  br label %bb4

bb1:                                              ; preds = %start
  %_2.0 = extractvalue { ptr, i64 } %4, 0
  %_2.1 = extractvalue { ptr, i64 } %4, 1
; invoke std::fs::read_to_string::inner
  invoke void @_ZN3std2fs14read_to_string5inner17h0e6ad546d3b577f5E(ptr sret(%"core::result::Result<alloc::string::String, std::io::error::Error>") align 8 %_0, ptr align 1 %_2.0, i64 %_2.1)
          to label %bb2 unwind label %cleanup

bb2:                                              ; preds = %bb1
  ret void
}

; std::fs::copy
; Function Attrs: nonlazybind uwtable
define internal void @_ZN3std2fs4copy17h0e2607481f9978a8E(ptr sret(%"core::result::Result<u64, std::io::error::Error>") align 8 %_0, ptr align 8 %from, ptr align 8 %to) unnamed_addr #1 personality ptr @rust_eh_personality {
start:
  %0 = alloca { ptr, i32, [1 x i32] }, align 8
; invoke std::path::<impl core::convert::AsRef<std::path::Path> for alloc::string::String>::as_ref
  %1 = invoke { ptr, i64 } @"_ZN3std4path95_$LT$impl$u20$core..convert..AsRef$LT$std..path..Path$GT$$u20$for$u20$alloc..string..String$GT$6as_ref17ha7c71991c1f8d614E"(ptr align 8 %from)
          to label %bb1 unwind label %cleanup

bb6:                                              ; preds = %cleanup
; invoke core::ptr::drop_in_place<std::path::PathBuf>
  invoke void @"_ZN4core3ptr39drop_in_place$LT$std..path..PathBuf$GT$17h3bed19ef85725cb6E"(ptr align 8 %to) #13
          to label %bb7 unwind label %terminate

cleanup:                                          ; preds = %bb2, %bb1, %start
  %2 = landingpad { ptr, i32 }
          cleanup
  %3 = extractvalue { ptr, i32 } %2, 0
  %4 = extractvalue { ptr, i32 } %2, 1
  store ptr %3, ptr %0, align 8
  %5 = getelementptr inbounds i8, ptr %0, i64 8
  store i32 %4, ptr %5, align 8
  br label %bb6

bb1:                                              ; preds = %start
  %_3.0 = extractvalue { ptr, i64 } %1, 0
  %_3.1 = extractvalue { ptr, i64 } %1, 1
; invoke <std::path::PathBuf as core::convert::AsRef<std::path::Path>>::as_ref
  %6 = invoke { ptr, i64 } @"_ZN82_$LT$std..path..PathBuf$u20$as$u20$core..convert..AsRef$LT$std..path..Path$GT$$GT$6as_ref17h2d4bb67f5d9a0b8aE"(ptr align 8 %to)
          to label %bb2 unwind label %cleanup

bb2:                                              ; preds = %bb1
  %_5.0 = extractvalue { ptr, i64 } %6, 0
  %_5.1 = extractvalue { ptr, i64 } %6, 1
; invoke std::sys::pal::unix::fs::copy
  invoke void @_ZN3std3sys3pal4unix2fs4copy17h1c87330b581cdb08E(ptr sret(%"core::result::Result<u64, std::io::error::Error>") align 8 %_0, ptr align 1 %_3.0, i64 %_3.1, ptr align 1 %_5.0, i64 %_5.1)
          to label %bb3 unwind label %cleanup

bb3:                                              ; preds = %bb2
; invoke core::ptr::drop_in_place<std::path::PathBuf>
  invoke void @"_ZN4core3ptr39drop_in_place$LT$std..path..PathBuf$GT$17h3bed19ef85725cb6E"(ptr align 8 %to)
          to label %bb4 unwind label %cleanup1

bb7:                                              ; preds = %bb6, %cleanup1
; invoke core::ptr::drop_in_place<alloc::string::String>
  invoke void @"_ZN4core3ptr42drop_in_place$LT$alloc..string..String$GT$17hda72216013508a8fE"(ptr align 8 %from) #13
          to label %bb8 unwind label %terminate

cleanup1:                                         ; preds = %bb3
  %7 = landingpad { ptr, i32 }
          cleanup
  %8 = extractvalue { ptr, i32 } %7, 0
  %9 = extractvalue { ptr, i32 } %7, 1
  store ptr %8, ptr %0, align 8
  %10 = getelementptr inbounds i8, ptr %0, i64 8
  store i32 %9, ptr %10, align 8
  br label %bb7

bb4:                                              ; preds = %bb3
; call core::ptr::drop_in_place<alloc::string::String>
  call void @"_ZN4core3ptr42drop_in_place$LT$alloc..string..String$GT$17hda72216013508a8fE"(ptr align 8 %from)
  ret void

terminate:                                        ; preds = %bb7, %bb6
  %11 = landingpad { ptr, i32 }
          filter [0 x ptr] zeroinitializer
  %12 = extractvalue { ptr, i32 } %11, 0
  %13 = extractvalue { ptr, i32 } %11, 1
; call core::panicking::panic_in_cleanup
  call void @_ZN4core9panicking16panic_in_cleanup17h803841cec7522372E() #14
  unreachable

bb8:                                              ; preds = %bb7
  %14 = load ptr, ptr %0, align 8, !noundef !4
  %15 = getelementptr inbounds i8, ptr %0, i64 8
  %16 = load i32, ptr %15, align 8, !noundef !4
  %17 = insertvalue { ptr, i32 } poison, ptr %14, 0
  %18 = insertvalue { ptr, i32 } %17, i32 %16, 1
  resume { ptr, i32 } %18
}

; std::fs::write
; Function Attrs: nonlazybind uwtable
define internal ptr @_ZN3std2fs5write17haa0ee2ca36b73108E(ptr align 8 %path, ptr align 8 %contents) unnamed_addr #1 personality ptr @rust_eh_personality {
start:
  %0 = alloca { ptr, i32, [1 x i32] }, align 8
; invoke <std::path::PathBuf as core::convert::AsRef<std::path::Path>>::as_ref
  %1 = invoke { ptr, i64 } @"_ZN82_$LT$std..path..PathBuf$u20$as$u20$core..convert..AsRef$LT$std..path..Path$GT$$GT$6as_ref17h2d4bb67f5d9a0b8aE"(ptr align 8 %path)
          to label %bb1 unwind label %cleanup

bb6:                                              ; preds = %cleanup
; invoke core::ptr::drop_in_place<alloc::string::String>
  invoke void @"_ZN4core3ptr42drop_in_place$LT$alloc..string..String$GT$17hda72216013508a8fE"(ptr align 8 %contents) #13
          to label %bb7 unwind label %terminate

cleanup:                                          ; preds = %bb2, %bb1, %start
  %2 = landingpad { ptr, i32 }
          cleanup
  %3 = extractvalue { ptr, i32 } %2, 0
  %4 = extractvalue { ptr, i32 } %2, 1
  store ptr %3, ptr %0, align 8
  %5 = getelementptr inbounds i8, ptr %0, i64 8
  store i32 %4, ptr %5, align 8
  br label %bb6

bb1:                                              ; preds = %start
  %_3.0 = extractvalue { ptr, i64 } %1, 0
  %_3.1 = extractvalue { ptr, i64 } %1, 1
; invoke <alloc::string::String as core::convert::AsRef<[u8]>>::as_ref
  %6 = invoke { ptr, i64 } @"_ZN82_$LT$alloc..string..String$u20$as$u20$core..convert..AsRef$LT$$u5b$u8$u5d$$GT$$GT$6as_ref17h8a5a538f33cf6196E"(ptr align 8 %contents)
          to label %bb2 unwind label %cleanup

bb2:                                              ; preds = %bb1
  %_5.0 = extractvalue { ptr, i64 } %6, 0
  %_5.1 = extractvalue { ptr, i64 } %6, 1
; invoke std::fs::write::inner
  %_0 = invoke ptr @_ZN3std2fs5write5inner17h99fd7c798a3b47aaE(ptr align 1 %_3.0, i64 %_3.1, ptr align 1 %_5.0, i64 %_5.1)
          to label %bb3 unwind label %cleanup

bb3:                                              ; preds = %bb2
; invoke core::ptr::drop_in_place<alloc::string::String>
  invoke void @"_ZN4core3ptr42drop_in_place$LT$alloc..string..String$GT$17hda72216013508a8fE"(ptr align 8 %contents)
          to label %bb4 unwind label %cleanup1

bb7:                                              ; preds = %bb6, %cleanup1
; invoke core::ptr::drop_in_place<std::path::PathBuf>
  invoke void @"_ZN4core3ptr39drop_in_place$LT$std..path..PathBuf$GT$17h3bed19ef85725cb6E"(ptr align 8 %path) #13
          to label %bb8 unwind label %terminate

cleanup1:                                         ; preds = %bb3
  %7 = landingpad { ptr, i32 }
          cleanup
  %8 = extractvalue { ptr, i32 } %7, 0
  %9 = extractvalue { ptr, i32 } %7, 1
  store ptr %8, ptr %0, align 8
  %10 = getelementptr inbounds i8, ptr %0, i64 8
  store i32 %9, ptr %10, align 8
  br label %bb7

bb4:                                              ; preds = %bb3
; call core::ptr::drop_in_place<std::path::PathBuf>
  call void @"_ZN4core3ptr39drop_in_place$LT$std..path..PathBuf$GT$17h3bed19ef85725cb6E"(ptr align 8 %path)
  ret ptr %_0

terminate:                                        ; preds = %bb7, %bb6
  %11 = landingpad { ptr, i32 }
          filter [0 x ptr] zeroinitializer
  %12 = extractvalue { ptr, i32 } %11, 0
  %13 = extractvalue { ptr, i32 } %11, 1
; call core::panicking::panic_in_cleanup
  call void @_ZN4core9panicking16panic_in_cleanup17h803841cec7522372E() #14
  unreachable

bb8:                                              ; preds = %bb7
  %14 = load ptr, ptr %0, align 8, !noundef !4
  %15 = getelementptr inbounds i8, ptr %0, i64 8
  %16 = load i32, ptr %15, align 8, !noundef !4
  %17 = insertvalue { ptr, i32 } poison, ptr %14, 0
  %18 = insertvalue { ptr, i32 } %17, i32 %16, 1
  resume { ptr, i32 } %18
}

; std::rt::lang_start
; Function Attrs: nonlazybind uwtable
define hidden i64 @_ZN3std2rt10lang_start17h48879b39a98c8eb7E(ptr %main, i64 %argc, ptr %argv, i8 %sigpipe) unnamed_addr #1 {
start:
  %_8 = alloca ptr, align 8
  %_5 = alloca i64, align 8
  store ptr %main, ptr %_8, align 8
; call std::rt::lang_start_internal
  %0 = call i64 @_ZN3std2rt19lang_start_internal17hc3f700406209db2cE(ptr align 1 %_8, ptr align 8 @vtable.0, i64 %argc, ptr %argv, i8 %sigpipe)
  store i64 %0, ptr %_5, align 8
  %v = load i64, ptr %_5, align 8, !noundef !4
  ret i64 %v
}

; std::rt::lang_start::{{closure}}
; Function Attrs: inlinehint nonlazybind uwtable
define internal i32 @"_ZN3std2rt10lang_start28_$u7b$$u7b$closure$u7d$$u7d$17h17d7daf89267a5a1E"(ptr align 8 %_1) unnamed_addr #0 {
start:
  %self = alloca i8, align 1
  %_4 = load ptr, ptr %_1, align 8, !nonnull !4, !noundef !4
; call std::sys_common::backtrace::__rust_begin_short_backtrace
  call void @_ZN3std10sys_common9backtrace28__rust_begin_short_backtrace17hce866f4869290808E(ptr %_4)
; call <() as std::process::Termination>::report
  %0 = call i8 @"_ZN54_$LT$$LP$$RP$$u20$as$u20$std..process..Termination$GT$6report17h4e86935274c8c5a7E"()
  store i8 %0, ptr %self, align 1
  %_6 = load i8, ptr %self, align 1, !noundef !4
  %_0 = zext i8 %_6 to i32
  ret i32 %_0
}

; std::path::<impl core::convert::AsRef<std::path::Path> for std::ffi::os_str::OsString>::as_ref
; Function Attrs: inlinehint nonlazybind uwtable
define internal { ptr, i64 } @"_ZN3std4path100_$LT$impl$u20$core..convert..AsRef$LT$std..path..Path$GT$$u20$for$u20$std..ffi..os_str..OsString$GT$6as_ref17hd3fabdc97448279aE"(ptr align 8 %self) unnamed_addr #0 {
start:
  %_17 = alloca %"core::ptr::metadata::PtrComponents<[u8]>", align 8
  %_16 = alloca %"core::ptr::metadata::PtrRepr<[u8]>", align 8
  %0 = getelementptr inbounds i8, ptr %self, i64 8
  %self1 = load ptr, ptr %0, align 8, !nonnull !4, !noundef !4
  %1 = getelementptr inbounds %"alloc::vec::Vec<u8>", ptr %self, i32 0, i32 1
  %len = load i64, ptr %1, align 8, !noundef !4
  store ptr %self1, ptr %_17, align 8
  %2 = getelementptr inbounds i8, ptr %_17, i64 8
  store i64 %len, ptr %2, align 8
  %3 = load ptr, ptr %_17, align 8, !noundef !4
  %4 = getelementptr inbounds i8, ptr %_17, i64 8
  %5 = load i64, ptr %4, align 8, !noundef !4
  store ptr %3, ptr %_16, align 8
  %6 = getelementptr inbounds i8, ptr %_16, i64 8
  store i64 %5, ptr %6, align 8
  %_14.0 = load ptr, ptr %_16, align 8, !noundef !4
  %7 = getelementptr inbounds i8, ptr %_16, i64 8
  %_14.1 = load i64, ptr %7, align 8, !noundef !4
  %8 = insertvalue { ptr, i64 } poison, ptr %_14.0, 0
  %9 = insertvalue { ptr, i64 } %8, i64 %_14.1, 1
  ret { ptr, i64 } %9
}

; std::path::Path::join
; Function Attrs: nonlazybind uwtable
define internal void @_ZN3std4path4Path4join17h33c6ba2b693167f6E(ptr sret(%"std::path::PathBuf") align 8 %_0, ptr align 1 %self.0, i64 %self.1, ptr align 8 %0) unnamed_addr #1 personality ptr @rust_eh_personality {
start:
  %1 = alloca { ptr, i32, [1 x i32] }, align 8
  %path = alloca ptr, align 8
  store ptr %0, ptr %path, align 8
; invoke <&T as core::convert::AsRef<U>>::as_ref
  %2 = invoke { ptr, i64 } @"_ZN55_$LT$$RF$T$u20$as$u20$core..convert..AsRef$LT$U$GT$$GT$6as_ref17h4bf379fbf5e3fdc0E"(ptr align 8 %path)
          to label %bb1 unwind label %cleanup

bb4:                                              ; preds = %cleanup
  %3 = load ptr, ptr %1, align 8, !noundef !4
  %4 = getelementptr inbounds i8, ptr %1, i64 8
  %5 = load i32, ptr %4, align 8, !noundef !4
  %6 = insertvalue { ptr, i32 } poison, ptr %3, 0
  %7 = insertvalue { ptr, i32 } %6, i32 %5, 1
  resume { ptr, i32 } %7

cleanup:                                          ; preds = %bb1, %start
  %8 = landingpad { ptr, i32 }
          cleanup
  %9 = extractvalue { ptr, i32 } %8, 0
  %10 = extractvalue { ptr, i32 } %8, 1
  store ptr %9, ptr %1, align 8
  %11 = getelementptr inbounds i8, ptr %1, i64 8
  store i32 %10, ptr %11, align 8
  br label %bb4

bb1:                                              ; preds = %start
  %_3.0 = extractvalue { ptr, i64 } %2, 0
  %_3.1 = extractvalue { ptr, i64 } %2, 1
; invoke std::path::Path::_join
  invoke void @_ZN3std4path4Path5_join17hec75aca45f8136f8E(ptr sret(%"std::path::PathBuf") align 8 %_0, ptr align 1 %self.0, i64 %self.1, ptr align 1 %_3.0, i64 %_3.1)
          to label %bb2 unwind label %cleanup

bb2:                                              ; preds = %bb1
  ret void
}

; std::path::Path::exists
; Function Attrs: inlinehint nonlazybind uwtable
define internal zeroext i1 @_ZN3std4path4Path6exists17hc33a5e64609a8601E(ptr align 1 %self.0, i64 %self.1) unnamed_addr #0 {
start:
  %_3 = alloca %"core::result::Result<std::fs::Metadata, std::io::error::Error>", align 8
; call std::fs::metadata
  call void @_ZN3std2fs8metadata17hc3fc48999219e660E(ptr sret(%"core::result::Result<std::fs::Metadata, std::io::error::Error>") align 8 %_3, ptr align 1 %self.0, i64 %self.1)
  %0 = load i64, ptr %_3, align 8, !range !7, !noundef !4
  %1 = icmp eq i64 %0, 2
  %_4 = select i1 %1, i64 1, i64 0
  %_0 = icmp eq i64 %_4, 0
; call core::ptr::drop_in_place<core::result::Result<std::fs::Metadata,std::io::error::Error>>
  call void @"_ZN4core3ptr90drop_in_place$LT$core..result..Result$LT$std..fs..Metadata$C$std..io..error..Error$GT$$GT$17he975e91c12834d2eE"(ptr align 8 %_3)
  ret i1 %_0
}

; std::path::Path::to_str
; Function Attrs: inlinehint nonlazybind uwtable
define internal { ptr, i64 } @_ZN3std4path4Path6to_str17h85b953cb69f1ea53E(ptr align 1 %self.0, i64 %self.1) unnamed_addr #0 {
start:
  %self = alloca %"core::result::Result<&str, core::str::error::Utf8Error>", align 8
  %_0 = alloca %"core::option::Option<&str>", align 8
; call std::sys::os_str::bytes::Slice::to_str
  call void @_ZN3std3sys6os_str5bytes5Slice6to_str17h1911568ef67fbdc4E(ptr sret(%"core::result::Result<&str, core::str::error::Utf8Error>") align 8 %self, ptr align 1 %self.0, i64 %self.1)
  %_5 = load i64, ptr %self, align 8, !range !8, !noundef !4
  %0 = icmp eq i64 %_5, 0
  br i1 %0, label %bb3, label %bb2

bb3:                                              ; preds = %start
  %1 = getelementptr inbounds %"core::result::Result<&str, core::str::error::Utf8Error>::Ok", ptr %self, i32 0, i32 1
  %x.0 = load ptr, ptr %1, align 8, !nonnull !4, !align !9, !noundef !4
  %2 = getelementptr inbounds i8, ptr %1, i64 8
  %x.1 = load i64, ptr %2, align 8, !noundef !4
  store ptr %x.0, ptr %_0, align 8
  %3 = getelementptr inbounds i8, ptr %_0, i64 8
  store i64 %x.1, ptr %3, align 8
  br label %bb4

bb2:                                              ; preds = %start
  %4 = load ptr, ptr @0, align 8, !align !9, !noundef !4
  %5 = load i64, ptr getelementptr inbounds (i8, ptr @0, i64 8), align 8
  store ptr %4, ptr %_0, align 8
  %6 = getelementptr inbounds i8, ptr %_0, i64 8
  store i64 %5, ptr %6, align 8
  br label %bb4

bb4:                                              ; preds = %bb2, %bb3
  %7 = load ptr, ptr %_0, align 8, !align !9, !noundef !4
  %8 = getelementptr inbounds i8, ptr %_0, i64 8
  %9 = load i64, ptr %8, align 8
  %10 = insertvalue { ptr, i64 } poison, ptr %7, 0
  %11 = insertvalue { ptr, i64 } %10, i64 %9, 1
  ret { ptr, i64 } %11

bb5:                                              ; No predecessors!
  unreachable
}

; std::path::Path::display
; Function Attrs: inlinehint nonlazybind uwtable
define internal { ptr, i64 } @_ZN3std4path4Path7display17h9eb13357d1ed956eE(ptr align 1 %self.0, i64 %self.1) unnamed_addr #0 {
start:
  %_0 = alloca %"std::path::Display<'_>", align 8
  store ptr %self.0, ptr %_0, align 8
  %0 = getelementptr inbounds i8, ptr %_0, i64 8
  store i64 %self.1, ptr %0, align 8
  %1 = load ptr, ptr %_0, align 8, !nonnull !4, !align !9, !noundef !4
  %2 = getelementptr inbounds i8, ptr %_0, i64 8
  %3 = load i64, ptr %2, align 8, !noundef !4
  %4 = insertvalue { ptr, i64 } poison, ptr %1, 0
  %5 = insertvalue { ptr, i64 } %4, i64 %3, 1
  ret { ptr, i64 } %5
}

; std::path::<impl core::convert::AsRef<std::path::Path> for alloc::string::String>::as_ref
; Function Attrs: inlinehint nonlazybind uwtable
define internal { ptr, i64 } @"_ZN3std4path95_$LT$impl$u20$core..convert..AsRef$LT$std..path..Path$GT$$u20$for$u20$alloc..string..String$GT$6as_ref17ha7c71991c1f8d614E"(ptr align 8 %self) unnamed_addr #0 {
start:
  %_16 = alloca %"core::ptr::metadata::PtrComponents<[u8]>", align 8
  %_15 = alloca %"core::ptr::metadata::PtrRepr<[u8]>", align 8
  %0 = getelementptr inbounds i8, ptr %self, i64 8
  %self1 = load ptr, ptr %0, align 8, !nonnull !4, !noundef !4
  %1 = getelementptr inbounds %"alloc::vec::Vec<u8>", ptr %self, i32 0, i32 1
  %len = load i64, ptr %1, align 8, !noundef !4
  store ptr %self1, ptr %_16, align 8
  %2 = getelementptr inbounds i8, ptr %_16, i64 8
  store i64 %len, ptr %2, align 8
  %3 = load ptr, ptr %_16, align 8, !noundef !4
  %4 = getelementptr inbounds i8, ptr %_16, i64 8
  %5 = load i64, ptr %4, align 8, !noundef !4
  store ptr %3, ptr %_15, align 8
  %6 = getelementptr inbounds i8, ptr %_15, i64 8
  store i64 %5, ptr %6, align 8
  %v.0 = load ptr, ptr %_15, align 8, !noundef !4
  %7 = getelementptr inbounds i8, ptr %_15, i64 8
  %v.1 = load i64, ptr %7, align 8, !noundef !4
  %8 = insertvalue { ptr, i64 } poison, ptr %v.0, 0
  %9 = insertvalue { ptr, i64 } %8, i64 %v.1, 1
  ret { ptr, i64 } %9
}

; std::process::Command::args
; Function Attrs: nonlazybind uwtable
define internal align 8 ptr @_ZN3std7process7Command4args17h638b0315afe8172dE(ptr align 8 %self, ptr align 8 %args) unnamed_addr #1 personality ptr @rust_eh_personality {
start:
  %0 = alloca { ptr, i32, [1 x i32] }, align 8
  %arg = alloca ptr, align 8
  %_5 = alloca ptr, align 8
  %iter = alloca %"core::slice::iter::Iter<'_, &str>", align 8
; call core::array::<impl core::iter::traits::collect::IntoIterator for &[T; N]>::into_iter
  %1 = call { ptr, ptr } @"_ZN4core5array98_$LT$impl$u20$core..iter..traits..collect..IntoIterator$u20$for$u20$$RF$$u5b$T$u3b$$u20$N$u5d$$GT$9into_iter17hdb197f9d3c10c96dE"(ptr align 8 %args)
  %_3.0 = extractvalue { ptr, ptr } %1, 0
  %_3.1 = extractvalue { ptr, ptr } %1, 1
  store ptr %_3.0, ptr %iter, align 8
  %2 = getelementptr inbounds i8, ptr %iter, i64 8
  store ptr %_3.1, ptr %2, align 8
  br label %bb2

bb2:                                              ; preds = %bb9, %start
; invoke <core::slice::iter::Iter<T> as core::iter::traits::iterator::Iterator>::next
  %3 = invoke align 8 ptr @"_ZN91_$LT$core..slice..iter..Iter$LT$T$GT$$u20$as$u20$core..iter..traits..iterator..Iterator$GT$4next17h9cd2dfb86b854212E"(ptr align 8 %iter)
          to label %bb3 unwind label %cleanup

bb12:                                             ; preds = %bb11, %cleanup
  %4 = load ptr, ptr %0, align 8, !noundef !4
  %5 = getelementptr inbounds i8, ptr %0, i64 8
  %6 = load i32, ptr %5, align 8, !noundef !4
  %7 = insertvalue { ptr, i32 } poison, ptr %4, 0
  %8 = insertvalue { ptr, i32 } %7, i32 %6, 1
  resume { ptr, i32 } %8

cleanup:                                          ; preds = %bb2
  %9 = landingpad { ptr, i32 }
          cleanup
  %10 = extractvalue { ptr, i32 } %9, 0
  %11 = extractvalue { ptr, i32 } %9, 1
  store ptr %10, ptr %0, align 8
  %12 = getelementptr inbounds i8, ptr %0, i64 8
  store i32 %11, ptr %12, align 8
  br label %bb12

bb3:                                              ; preds = %bb2
  store ptr %3, ptr %_5, align 8
  %13 = load ptr, ptr %_5, align 8, !noundef !4
  %14 = ptrtoint ptr %13 to i64
  %15 = icmp eq i64 %14, 0
  %_7 = select i1 %15, i64 0, i64 1
  %16 = icmp eq i64 %_7, 0
  br i1 %16, label %bb6, label %bb4

bb6:                                              ; preds = %bb3
  ret ptr %self

bb4:                                              ; preds = %bb3
  %17 = load ptr, ptr %_5, align 8, !nonnull !4, !align !10, !noundef !4
  store ptr %17, ptr %arg, align 8
; invoke <&T as core::convert::AsRef<U>>::as_ref
  %18 = invoke { ptr, i64 } @"_ZN55_$LT$$RF$T$u20$as$u20$core..convert..AsRef$LT$U$GT$$GT$6as_ref17h16d8b0056cf983c7E"(ptr align 8 %arg)
          to label %bb7 unwind label %cleanup1

bb11:                                             ; preds = %cleanup1
  br label %bb12

cleanup1:                                         ; preds = %bb7, %bb4
  %19 = landingpad { ptr, i32 }
          cleanup
  %20 = extractvalue { ptr, i32 } %19, 0
  %21 = extractvalue { ptr, i32 } %19, 1
  store ptr %20, ptr %0, align 8
  %22 = getelementptr inbounds i8, ptr %0, i64 8
  store i32 %21, ptr %22, align 8
  br label %bb11

bb7:                                              ; preds = %bb4
  %_10.0 = extractvalue { ptr, i64 } %18, 0
  %_10.1 = extractvalue { ptr, i64 } %18, 1
; invoke std::process::Command::arg
  %_9 = invoke align 8 ptr @_ZN3std7process7Command3arg17h66d3cc99bf1d7dbeE(ptr align 8 %self, ptr align 1 %_10.0, i64 %_10.1)
          to label %bb8 unwind label %cleanup1

bb8:                                              ; preds = %bb7
  br label %bb9

bb9:                                              ; preds = %bb8
  br label %bb2

bb5:                                              ; No predecessors!
  unreachable
}

; <T as alloc::string::ToString>::to_string
; Function Attrs: inlinehint nonlazybind uwtable
define internal void @"_ZN45_$LT$T$u20$as$u20$alloc..string..ToString$GT$9to_string17hce30e3cf84a3606aE"(ptr sret(%"alloc::string::String") align 8 %_0, ptr align 8 %self) unnamed_addr #0 personality ptr @rust_eh_personality {
start:
  %0 = alloca { ptr, i32, [1 x i32] }, align 8
  %_10 = alloca %"alloc::vec::Vec<u8>", align 8
  %formatter = alloca %"core::fmt::Formatter<'_>", align 8
  %buf = alloca %"alloc::string::String", align 8
  store i64 0, ptr %_10, align 8
  %1 = getelementptr inbounds i8, ptr %_10, i64 8
  store ptr inttoptr (i64 1 to ptr), ptr %1, align 8
  %2 = getelementptr inbounds %"alloc::vec::Vec<u8>", ptr %_10, i32 0, i32 1
  store i64 0, ptr %2, align 8
  call void @llvm.memcpy.p0.p0.i64(ptr align 8 %buf, ptr align 8 %_10, i64 24, i1 false)
  %3 = getelementptr inbounds %"core::fmt::Formatter<'_>", ptr %formatter, i32 0, i32 4
  store i32 0, ptr %3, align 4
  %4 = getelementptr inbounds %"core::fmt::Formatter<'_>", ptr %formatter, i32 0, i32 3
  store i32 32, ptr %4, align 8
  %5 = getelementptr inbounds %"core::fmt::Formatter<'_>", ptr %formatter, i32 0, i32 5
  store i8 3, ptr %5, align 8
  %6 = load i64, ptr @0, align 8, !range !8, !noundef !4
  %7 = load i64, ptr getelementptr inbounds (i8, ptr @0, i64 8), align 8
  store i64 %6, ptr %formatter, align 8
  %8 = getelementptr inbounds i8, ptr %formatter, i64 8
  store i64 %7, ptr %8, align 8
  %9 = load i64, ptr @0, align 8, !range !8, !noundef !4
  %10 = load i64, ptr getelementptr inbounds (i8, ptr @0, i64 8), align 8
  %11 = getelementptr inbounds %"core::fmt::Formatter<'_>", ptr %formatter, i32 0, i32 1
  store i64 %9, ptr %11, align 8
  %12 = getelementptr inbounds i8, ptr %11, i64 8
  store i64 %10, ptr %12, align 8
  %13 = getelementptr inbounds %"core::fmt::Formatter<'_>", ptr %formatter, i32 0, i32 2
  store ptr %buf, ptr %13, align 8
  %14 = getelementptr inbounds i8, ptr %13, i64 8
  store ptr @vtable.1, ptr %14, align 8
; invoke core::fmt::num::imp::<impl core::fmt::Display for usize>::fmt
  %_7 = invoke zeroext i1 @"_ZN4core3fmt3num3imp54_$LT$impl$u20$core..fmt..Display$u20$for$u20$usize$GT$3fmt17h7bbbd896a38dcccaE"(ptr align 8 %self, ptr align 8 %formatter)
          to label %bb1 unwind label %cleanup

bb3:                                              ; preds = %cleanup
; invoke core::ptr::drop_in_place<alloc::string::String>
  invoke void @"_ZN4core3ptr42drop_in_place$LT$alloc..string..String$GT$17hda72216013508a8fE"(ptr align 8 %buf) #13
          to label %bb4 unwind label %terminate

cleanup:                                          ; preds = %bb1, %start
  %15 = landingpad { ptr, i32 }
          cleanup
  %16 = extractvalue { ptr, i32 } %15, 0
  %17 = extractvalue { ptr, i32 } %15, 1
  store ptr %16, ptr %0, align 8
  %18 = getelementptr inbounds i8, ptr %0, i64 8
  store i32 %17, ptr %18, align 8
  br label %bb3

bb1:                                              ; preds = %start
; invoke core::result::Result<T,E>::expect
  invoke void @"_ZN4core6result19Result$LT$T$C$E$GT$6expect17hd6cc5aca259a4640E"(i1 zeroext %_7, ptr align 1 @alloc_cc656815297f75969399c3f4b1ad3de4, i64 55, ptr align 8 @alloc_0c55029f27e67500548c60265db33aa3)
          to label %bb2 unwind label %cleanup

bb2:                                              ; preds = %bb1
  call void @llvm.memcpy.p0.p0.i64(ptr align 8 %_0, ptr align 8 %buf, i64 24, i1 false)
  ret void

terminate:                                        ; preds = %bb3
  %19 = landingpad { ptr, i32 }
          filter [0 x ptr] zeroinitializer
  %20 = extractvalue { ptr, i32 } %19, 0
  %21 = extractvalue { ptr, i32 } %19, 1
; call core::panicking::panic_in_cleanup
  call void @_ZN4core9panicking16panic_in_cleanup17h803841cec7522372E() #14
  unreachable

bb4:                                              ; preds = %bb3
  %22 = load ptr, ptr %0, align 8, !noundef !4
  %23 = getelementptr inbounds i8, ptr %0, i64 8
  %24 = load i32, ptr %23, align 8, !noundef !4
  %25 = insertvalue { ptr, i32 } poison, ptr %22, 0
  %26 = insertvalue { ptr, i32 } %25, i32 %24, 1
  resume { ptr, i32 } %26
}

; core::fmt::Arguments::new_v1
; Function Attrs: inlinehint nonlazybind uwtable
define internal void @_ZN4core3fmt9Arguments6new_v117h2aa552c24c1a6c2dE(ptr sret(%"core::fmt::Arguments<'_>") align 8 %_0, ptr align 8 %pieces.0, i64 %pieces.1, ptr align 8 %args.0, i64 %args.1) unnamed_addr #0 {
start:
  %_14 = alloca %"core::fmt::Arguments<'_>", align 8
  %_9 = alloca %"core::fmt::Arguments<'_>", align 8
  %_3 = icmp ult i64 %pieces.1, %args.1
  br i1 %_3, label %bb2, label %bb1

bb1:                                              ; preds = %start
  %_7 = add i64 %args.1, 1
  %_6 = icmp ugt i64 %pieces.1, %_7
  br i1 %_6, label %bb2, label %bb3

bb2:                                              ; preds = %bb1, %start
  br i1 false, label %bb4, label %bb6

bb3:                                              ; preds = %bb1
  store ptr %pieces.0, ptr %_0, align 8
  %0 = getelementptr inbounds i8, ptr %_0, i64 8
  store i64 %pieces.1, ptr %0, align 8
  %1 = load ptr, ptr @0, align 8, !align !10, !noundef !4
  %2 = load i64, ptr getelementptr inbounds (i8, ptr @0, i64 8), align 8
  %3 = getelementptr inbounds %"core::fmt::Arguments<'_>", ptr %_0, i32 0, i32 2
  store ptr %1, ptr %3, align 8
  %4 = getelementptr inbounds i8, ptr %3, i64 8
  store i64 %2, ptr %4, align 8
  %5 = getelementptr inbounds %"core::fmt::Arguments<'_>", ptr %_0, i32 0, i32 1
  store ptr %args.0, ptr %5, align 8
  %6 = getelementptr inbounds i8, ptr %5, i64 8
  store i64 %args.1, ptr %6, align 8
  ret void

bb6:                                              ; preds = %bb2
  store ptr @alloc_af99043bc04c419363a7f04d23183506, ptr %_9, align 8
  %7 = getelementptr inbounds i8, ptr %_9, i64 8
  store i64 1, ptr %7, align 8
  %8 = load ptr, ptr @0, align 8, !align !10, !noundef !4
  %9 = load i64, ptr getelementptr inbounds (i8, ptr @0, i64 8), align 8
  %10 = getelementptr inbounds %"core::fmt::Arguments<'_>", ptr %_9, i32 0, i32 2
  store ptr %8, ptr %10, align 8
  %11 = getelementptr inbounds i8, ptr %10, i64 8
  store i64 %9, ptr %11, align 8
  %12 = getelementptr inbounds %"core::fmt::Arguments<'_>", ptr %_9, i32 0, i32 1
  store ptr @alloc_513570631223a12912d85da2bec3b15a, ptr %12, align 8
  %13 = getelementptr inbounds i8, ptr %12, i64 8
  store i64 0, ptr %13, align 8
; call core::panicking::panic_fmt
  call void @_ZN4core9panicking9panic_fmt17h0d3f1893e38be419E(ptr align 8 %_9, ptr align 8 @alloc_b96933a8148f906cfb135db9ebeba42b) #15
  unreachable

bb4:                                              ; preds = %bb2
; call core::fmt::Arguments::new_const
  call void @_ZN4core3fmt9Arguments9new_const17hfc72254e38612834E(ptr sret(%"core::fmt::Arguments<'_>") align 8 %_14, ptr align 8 @alloc_af99043bc04c419363a7f04d23183506, i64 1)
; call core::panicking::panic_fmt
  call void @_ZN4core9panicking9panic_fmt17h0d3f1893e38be419E(ptr align 8 %_14, ptr align 8 @alloc_b1c9b46fd6543b9e0f93a51d745efa2a) #15
  unreachable
}

; core::fmt::Arguments::new_const
; Function Attrs: inlinehint nonlazybind uwtable
define internal void @_ZN4core3fmt9Arguments9new_const17hfc72254e38612834E(ptr sret(%"core::fmt::Arguments<'_>") align 8 %_0, ptr align 8 %pieces.0, i64 %pieces.1) unnamed_addr #0 {
start:
  %_5 = alloca %"core::fmt::Arguments<'_>", align 8
  %_2 = icmp ugt i64 %pieces.1, 1
  br i1 %_2, label %bb1, label %bb3

bb3:                                              ; preds = %start
  store ptr %pieces.0, ptr %_0, align 8
  %0 = getelementptr inbounds i8, ptr %_0, i64 8
  store i64 %pieces.1, ptr %0, align 8
  %1 = load ptr, ptr @0, align 8, !align !10, !noundef !4
  %2 = load i64, ptr getelementptr inbounds (i8, ptr @0, i64 8), align 8
  %3 = getelementptr inbounds %"core::fmt::Arguments<'_>", ptr %_0, i32 0, i32 2
  store ptr %1, ptr %3, align 8
  %4 = getelementptr inbounds i8, ptr %3, i64 8
  store i64 %2, ptr %4, align 8
  %5 = getelementptr inbounds %"core::fmt::Arguments<'_>", ptr %_0, i32 0, i32 1
  store ptr @alloc_513570631223a12912d85da2bec3b15a, ptr %5, align 8
  %6 = getelementptr inbounds i8, ptr %5, i64 8
  store i64 0, ptr %6, align 8
  ret void

bb1:                                              ; preds = %start
; call core::fmt::Arguments::new_const
  call void @_ZN4core3fmt9Arguments9new_const17hfc72254e38612834E(ptr sret(%"core::fmt::Arguments<'_>") align 8 %_5, ptr align 8 @alloc_af99043bc04c419363a7f04d23183506, i64 1)
; call core::panicking::panic_fmt
  call void @_ZN4core9panicking9panic_fmt17h0d3f1893e38be419E(ptr align 8 %_5, ptr align 8 @alloc_b1c9b46fd6543b9e0f93a51d745efa2a) #15
  unreachable
}

; core::ops::function::FnOnce::call_once{{vtable.shim}}
; Function Attrs: inlinehint nonlazybind uwtable
define internal i32 @"_ZN4core3ops8function6FnOnce40call_once$u7b$$u7b$vtable.shim$u7d$$u7d$17hb50a8e86fdad0605E"(ptr %_1) unnamed_addr #0 {
start:
  %_2 = alloca {}, align 1
  %0 = load ptr, ptr %_1, align 8, !nonnull !4, !noundef !4
; call core::ops::function::FnOnce::call_once
  %_0 = call i32 @_ZN4core3ops8function6FnOnce9call_once17ha8e9d1bef977a866E(ptr %0)
  ret i32 %_0
}

; core::ops::function::FnOnce::call_once
; Function Attrs: inlinehint nonlazybind uwtable
define internal { ptr, i64 } @_ZN4core3ops8function6FnOnce9call_once17h23fd054cf2a0d3a3E(ptr align 1 %0, i64 %1) unnamed_addr #0 {
start:
  %_2 = alloca { { ptr, i64 } }, align 8
  store ptr %0, ptr %_2, align 8
  %2 = getelementptr inbounds i8, ptr %_2, i64 8
  store i64 %1, ptr %2, align 8
  %3 = load ptr, ptr %_2, align 8, !nonnull !4, !align !9, !noundef !4
  %4 = getelementptr inbounds i8, ptr %_2, i64 8
  %5 = load i64, ptr %4, align 8, !noundef !4
; call <T as core::convert::Into<U>>::into
  %6 = call { ptr, i64 } @"_ZN50_$LT$T$u20$as$u20$core..convert..Into$LT$U$GT$$GT$4into17h74d172aa6a8e3238E"(ptr align 1 %3, i64 %5, ptr align 8 @alloc_0d223ac45aeacda317fdfe30ec7b7f45)
  %_0.0 = extractvalue { ptr, i64 } %6, 0
  %_0.1 = extractvalue { ptr, i64 } %6, 1
  %7 = insertvalue { ptr, i64 } poison, ptr %_0.0, 0
  %8 = insertvalue { ptr, i64 } %7, i64 %_0.1, 1
  ret { ptr, i64 } %8
}

; core::ops::function::FnOnce::call_once
; Function Attrs: inlinehint nonlazybind uwtable
define internal void @_ZN4core3ops8function6FnOnce9call_once17h7af030eafdfdbeb6E(ptr %_1) unnamed_addr #0 {
start:
  %_2 = alloca {}, align 1
  call void %_1()
  ret void
}

; core::ops::function::FnOnce::call_once
; Function Attrs: inlinehint nonlazybind uwtable
define internal i32 @_ZN4core3ops8function6FnOnce9call_once17ha8e9d1bef977a866E(ptr %0) unnamed_addr #0 personality ptr @rust_eh_personality {
start:
  %1 = alloca { ptr, i32, [1 x i32] }, align 8
  %_2 = alloca {}, align 1
  %_1 = alloca ptr, align 8
  store ptr %0, ptr %_1, align 8
; invoke std::rt::lang_start::{{closure}}
  %_0 = invoke i32 @"_ZN3std2rt10lang_start28_$u7b$$u7b$closure$u7d$$u7d$17h17d7daf89267a5a1E"(ptr align 8 %_1)
          to label %bb1 unwind label %cleanup

bb3:                                              ; preds = %cleanup
  %2 = load ptr, ptr %1, align 8, !noundef !4
  %3 = getelementptr inbounds i8, ptr %1, i64 8
  %4 = load i32, ptr %3, align 8, !noundef !4
  %5 = insertvalue { ptr, i32 } poison, ptr %2, 0
  %6 = insertvalue { ptr, i32 } %5, i32 %4, 1
  resume { ptr, i32 } %6

cleanup:                                          ; preds = %start
  %7 = landingpad { ptr, i32 }
          cleanup
  %8 = extractvalue { ptr, i32 } %7, 0
  %9 = extractvalue { ptr, i32 } %7, 1
  store ptr %8, ptr %1, align 8
  %10 = getelementptr inbounds i8, ptr %1, i64 8
  store i32 %9, ptr %10, align 8
  br label %bb3

bb1:                                              ; preds = %start
  ret i32 %_0
}

; core::ptr::drop_in_place<&std::ffi::os_str::OsString>
; Function Attrs: inlinehint nonlazybind uwtable
define internal void @"_ZN4core3ptr51drop_in_place$LT$$RF$std..ffi..os_str..OsString$GT$17hfb1138cc8be0d8bcE"(ptr align 8 %_1) unnamed_addr #0 {
start:
  ret void
}

; core::ptr::drop_in_place<core::num::error::ParseIntError>
; Function Attrs: inlinehint nonlazybind uwtable
define internal void @"_ZN4core3ptr52drop_in_place$LT$core..num..error..ParseIntError$GT$17h8ace12e6abe0c0c8E"(ptr align 1 %_1) unnamed_addr #0 {
start:
  ret void
}

; core::ptr::drop_in_place<&core::num::error::IntErrorKind>
; Function Attrs: inlinehint nonlazybind uwtable
define internal void @"_ZN4core3ptr55drop_in_place$LT$$RF$core..num..error..IntErrorKind$GT$17h565340c559ef3e58E"(ptr align 8 %_1) unnamed_addr #0 {
start:
  ret void
}

; core::ptr::drop_in_place<std::rt::lang_start<()>::{{closure}}>
; Function Attrs: inlinehint nonlazybind uwtable
define internal void @"_ZN4core3ptr85drop_in_place$LT$std..rt..lang_start$LT$$LP$$RP$$GT$..$u7b$$u7b$closure$u7d$$u7d$$GT$17h2d194b7a57cd1740E"(ptr align 8 %_1) unnamed_addr #0 {
start:
  ret void
}

; core::str::<impl str>::split_whitespace
; Function Attrs: inlinehint nonlazybind uwtable
define internal void @"_ZN4core3str21_$LT$impl$u20$str$GT$16split_whitespace17hef014a6022d3d9bdE"(ptr sret(%"core::str::iter::SplitWhitespace<'_>") align 8 %_0, ptr align 1 %self.0, i64 %self.1) unnamed_addr #0 {
start:
  %_15 = alloca ptr, align 8
  %_11 = alloca %"core::slice::iter::Iter<'_, u8>", align 8
  %_10 = alloca %"core::str::iter::Chars<'_>", align 8
  %_9 = alloca %"core::str::iter::CharIndices<'_>", align 8
  %_8 = alloca %"core::str::pattern::MultiCharEqSearcher<'_, core::str::IsWhitespace>", align 8
  %_6 = alloca %"core::str::pattern::CharPredicateSearcher<'_, core::str::IsWhitespace>", align 8
  %_4 = alloca %"core::str::iter::SplitInternal<'_, core::str::IsWhitespace>", align 8
  %self = alloca %"core::str::iter::Split<'_, core::str::IsWhitespace>", align 8
  %_2 = alloca %"core::iter::adapters::filter::Filter<core::str::iter::Split<'_, core::str::IsWhitespace>, core::str::IsNotEmpty>", align 8
  %end_or_len = getelementptr inbounds i8, ptr %self.0, i64 %self.1
  store ptr %self.0, ptr %_15, align 8
  %0 = load ptr, ptr %_15, align 8, !nonnull !4, !noundef !4
  store ptr %0, ptr %_11, align 8
  %1 = getelementptr inbounds i8, ptr %_11, i64 8
  store ptr %end_or_len, ptr %1, align 8
  %2 = load ptr, ptr %_11, align 8, !nonnull !4, !noundef !4
  %3 = getelementptr inbounds i8, ptr %_11, i64 8
  %4 = load ptr, ptr %3, align 8, !noundef !4
  store ptr %2, ptr %_10, align 8
  %5 = getelementptr inbounds i8, ptr %_10, i64 8
  store ptr %4, ptr %5, align 8
  %6 = getelementptr inbounds %"core::str::iter::CharIndices<'_>", ptr %_9, i32 0, i32 1
  store i64 0, ptr %6, align 8
  %7 = load ptr, ptr %_10, align 8, !nonnull !4, !noundef !4
  %8 = getelementptr inbounds i8, ptr %_10, i64 8
  %9 = load ptr, ptr %8, align 8, !noundef !4
  store ptr %7, ptr %_9, align 8
  %10 = getelementptr inbounds i8, ptr %_9, i64 8
  store ptr %9, ptr %10, align 8
  store ptr %self.0, ptr %_8, align 8
  %11 = getelementptr inbounds i8, ptr %_8, i64 8
  store i64 %self.1, ptr %11, align 8
  %12 = getelementptr inbounds %"core::str::pattern::MultiCharEqSearcher<'_, core::str::IsWhitespace>", ptr %_8, i32 0, i32 1
  call void @llvm.memcpy.p0.p0.i64(ptr align 8 %12, ptr align 8 %_9, i64 24, i1 false)
  call void @llvm.memcpy.p0.p0.i64(ptr align 8 %_6, ptr align 8 %_8, i64 40, i1 false)
  store i64 0, ptr %_4, align 8
  %13 = getelementptr inbounds %"core::str::iter::SplitInternal<'_, core::str::IsWhitespace>", ptr %_4, i32 0, i32 1
  store i64 %self.1, ptr %13, align 8
  %14 = getelementptr inbounds %"core::str::iter::SplitInternal<'_, core::str::IsWhitespace>", ptr %_4, i32 0, i32 2
  call void @llvm.memcpy.p0.p0.i64(ptr align 8 %14, ptr align 8 %_6, i64 40, i1 false)
  %15 = getelementptr inbounds %"core::str::iter::SplitInternal<'_, core::str::IsWhitespace>", ptr %_4, i32 0, i32 3
  store i8 1, ptr %15, align 8
  %16 = getelementptr inbounds %"core::str::iter::SplitInternal<'_, core::str::IsWhitespace>", ptr %_4, i32 0, i32 4
  store i8 0, ptr %16, align 1
  call void @llvm.memcpy.p0.p0.i64(ptr align 8 %self, ptr align 8 %_4, i64 64, i1 false)
  call void @llvm.memcpy.p0.p0.i64(ptr align 8 %_2, ptr align 8 %self, i64 64, i1 false)
  call void @llvm.memcpy.p0.p0.i64(ptr align 8 %_0, ptr align 8 %_2, i64 64, i1 false)
  ret void
}

; core::str::<impl str>::find
; Function Attrs: inlinehint nonlazybind uwtable
define internal { i64, i64 } @"_ZN4core3str21_$LT$impl$u20$str$GT$4find17h233d149acf86b763E"(ptr align 1 %self.0, i64 %self.1, i32 %pat) unnamed_addr #0 personality ptr @rust_eh_personality {
start:
  %0 = alloca { ptr, i32, [1 x i32] }, align 8
  %_5 = alloca %"core::str::pattern::CharSearcher<'_>", align 8
  %self = alloca %"core::option::Option<(usize, usize)>", align 8
  %_0 = alloca %"core::option::Option<usize>", align 8
; call <char as core::str::pattern::Pattern>::into_searcher
  call void @"_ZN52_$LT$char$u20$as$u20$core..str..pattern..Pattern$GT$13into_searcher17h5b09b678cb4d3b62E"(ptr sret(%"core::str::pattern::CharSearcher<'_>") align 8 %_5, i32 %pat, ptr align 1 %self.0, i64 %self.1)
; invoke <core::str::pattern::CharSearcher as core::str::pattern::Searcher>::next_match
  invoke void @"_ZN81_$LT$core..str..pattern..CharSearcher$u20$as$u20$core..str..pattern..Searcher$GT$10next_match17h2b12f4fe90bbd3b7E"(ptr sret(%"core::option::Option<(usize, usize)>") align 8 %self, ptr align 8 %_5)
          to label %bb2 unwind label %cleanup

bb4:                                              ; preds = %cleanup
  %1 = load ptr, ptr %0, align 8, !noundef !4
  %2 = getelementptr inbounds i8, ptr %0, i64 8
  %3 = load i32, ptr %2, align 8, !noundef !4
  %4 = insertvalue { ptr, i32 } poison, ptr %1, 0
  %5 = insertvalue { ptr, i32 } %4, i32 %3, 1
  resume { ptr, i32 } %5

cleanup:                                          ; preds = %start
  %6 = landingpad { ptr, i32 }
          cleanup
  %7 = extractvalue { ptr, i32 } %6, 0
  %8 = extractvalue { ptr, i32 } %6, 1
  store ptr %7, ptr %0, align 8
  %9 = getelementptr inbounds i8, ptr %0, i64 8
  store i32 %8, ptr %9, align 8
  br label %bb4

bb2:                                              ; preds = %start
  %_6 = load i64, ptr %self, align 8, !range !8, !noundef !4
  %10 = icmp eq i64 %_6, 0
  br i1 %10, label %bb6, label %bb7

bb6:                                              ; preds = %bb2
  %11 = load i64, ptr @0, align 8, !range !8, !noundef !4
  %12 = load i64, ptr getelementptr inbounds (i8, ptr @0, i64 8), align 8
  store i64 %11, ptr %_0, align 8
  %13 = getelementptr inbounds i8, ptr %_0, i64 8
  store i64 %12, ptr %13, align 8
  br label %bb8

bb7:                                              ; preds = %bb2
  %14 = getelementptr inbounds %"core::option::Option<(usize, usize)>::Some", ptr %self, i32 0, i32 1
  %x = load i64, ptr %14, align 8, !noundef !4
  %15 = getelementptr inbounds %"core::option::Option<(usize, usize)>::Some", ptr %self, i32 0, i32 1
  %16 = getelementptr inbounds i8, ptr %15, i64 8
  %x1 = load i64, ptr %16, align 8, !noundef !4
  %17 = getelementptr inbounds i8, ptr %_0, i64 8
  store i64 %x, ptr %17, align 8
  store i64 1, ptr %_0, align 8
  br label %bb8

bb8:                                              ; preds = %bb7, %bb6
  %18 = load i64, ptr %_0, align 8, !range !8, !noundef !4
  %19 = getelementptr inbounds i8, ptr %_0, i64 8
  %20 = load i64, ptr %19, align 8
  %21 = insertvalue { i64, i64 } poison, i64 %18, 0
  %22 = insertvalue { i64, i64 } %21, i64 %20, 1
  ret { i64, i64 } %22

bb9:                                              ; No predecessors!
  unreachable
}

; core::str::<impl str>::lines
; Function Attrs: inlinehint nonlazybind uwtable
define internal void @"_ZN4core3str21_$LT$impl$u20$str$GT$5lines17h89013ece6cc5870eE"(ptr sret(%"core::str::iter::Lines<'_>") align 8 %_0, ptr align 1 %self.0, i64 %self.1) unnamed_addr #0 {
start:
  %_13 = alloca [4 x i8], align 1
  %utf8_encoded = alloca [4 x i8], align 1
  %_6 = alloca %"core::str::pattern::CharSearcher<'_>", align 8
  %_4 = alloca %"core::str::iter::SplitInternal<'_, char>", align 8
  %self = alloca %"core::str::iter::SplitInclusive<'_, char>", align 8
  %_2 = alloca %"core::iter::adapters::map::Map<core::str::iter::SplitInclusive<'_, char>, core::str::LinesMap>", align 8
  %0 = getelementptr inbounds [4 x i8], ptr %utf8_encoded, i64 0, i64 0
  call void @llvm.memset.p0.i64(ptr align 1 %0, i8 0, i64 4, i1 false)
; call core::char::methods::encode_utf8_raw
  %1 = call { ptr, i64 } @_ZN4core4char7methods15encode_utf8_raw17he56a1df55cc6c359E(i32 10, ptr align 1 %utf8_encoded, i64 4)
  %v.0 = extractvalue { ptr, i64 } %1, 0
  %v.1 = extractvalue { ptr, i64 } %1, 1
  %2 = load <4 x i8>, ptr %utf8_encoded, align 1
  store <4 x i8> %2, ptr %_13, align 1
  store ptr %self.0, ptr %_6, align 8
  %3 = getelementptr inbounds i8, ptr %_6, i64 8
  store i64 %self.1, ptr %3, align 8
  %4 = getelementptr inbounds %"core::str::pattern::CharSearcher<'_>", ptr %_6, i32 0, i32 1
  store i64 0, ptr %4, align 8
  %5 = getelementptr inbounds %"core::str::pattern::CharSearcher<'_>", ptr %_6, i32 0, i32 2
  store i64 %self.1, ptr %5, align 8
  %6 = getelementptr inbounds %"core::str::pattern::CharSearcher<'_>", ptr %_6, i32 0, i32 5
  store i32 10, ptr %6, align 4
  %7 = getelementptr inbounds %"core::str::pattern::CharSearcher<'_>", ptr %_6, i32 0, i32 3
  store i64 %v.1, ptr %7, align 8
  %8 = getelementptr inbounds %"core::str::pattern::CharSearcher<'_>", ptr %_6, i32 0, i32 4
  %9 = load <4 x i8>, ptr %_13, align 1
  store <4 x i8> %9, ptr %8, align 8
  store i64 0, ptr %_4, align 8
  %10 = getelementptr inbounds %"core::str::iter::SplitInternal<'_, char>", ptr %_4, i32 0, i32 1
  store i64 %self.1, ptr %10, align 8
  %11 = getelementptr inbounds %"core::str::iter::SplitInternal<'_, char>", ptr %_4, i32 0, i32 2
  call void @llvm.memcpy.p0.p0.i64(ptr align 8 %11, ptr align 8 %_6, i64 48, i1 false)
  %12 = getelementptr inbounds %"core::str::iter::SplitInternal<'_, char>", ptr %_4, i32 0, i32 3
  store i8 0, ptr %12, align 8
  %13 = getelementptr inbounds %"core::str::iter::SplitInternal<'_, char>", ptr %_4, i32 0, i32 4
  store i8 0, ptr %13, align 1
  call void @llvm.memcpy.p0.p0.i64(ptr align 8 %self, ptr align 8 %_4, i64 72, i1 false)
  call void @llvm.memcpy.p0.p0.i64(ptr align 8 %_2, ptr align 8 %self, i64 72, i1 false)
  call void @llvm.memcpy.p0.p0.i64(ptr align 8 %_0, ptr align 8 %_2, i64 72, i1 false)
  ret void
}

; core::str::<impl str>::parse
; Function Attrs: inlinehint nonlazybind uwtable
define internal void @"_ZN4core3str21_$LT$impl$u20$str$GT$5parse17h6d2e799278a548faE"(ptr sret(%"core::result::Result<usize, core::num::error::ParseIntError>") align 8 %_0, ptr align 1 %self.0, i64 %self.1) unnamed_addr #0 {
start:
; call core::num::<impl core::str::traits::FromStr for usize>::from_str
  call void @"_ZN4core3num62_$LT$impl$u20$core..str..traits..FromStr$u20$for$u20$usize$GT$8from_str17haba665e8e77fc680E"(ptr sret(%"core::result::Result<usize, core::num::error::ParseIntError>") align 8 %_0, ptr align 1 %self.0, i64 %self.1)
  ret void
}

; core::str::<impl str>::parse
; Function Attrs: inlinehint nonlazybind uwtable
define internal { i1, i8 } @"_ZN4core3str21_$LT$impl$u20$str$GT$5parse17h7314ec2ed7fa2b91E"(ptr align 1 %self.0, i64 %self.1) unnamed_addr #0 {
start:
; call core::num::<impl core::str::traits::FromStr for u8>::from_str
  %0 = call { i1, i8 } @"_ZN4core3num59_$LT$impl$u20$core..str..traits..FromStr$u20$for$u20$u8$GT$8from_str17hf9df6a0c5101088bE"(ptr align 1 %self.0, i64 %self.1)
  %_0.0 = extractvalue { i1, i8 } %0, 0
  %_0.1 = extractvalue { i1, i8 } %0, 1
  %1 = insertvalue { i1, i8 } poison, i1 %_0.0, 0
  %2 = insertvalue { i1, i8 } %1, i8 %_0.1, 1
  ret { i1, i8 } %2
}

; core::str::<impl str>::is_empty
; Function Attrs: inlinehint nonlazybind uwtable
define internal zeroext i1 @"_ZN4core3str21_$LT$impl$u20$str$GT$8is_empty17h51f6c0f57ec26e3fE"(ptr align 1 %self.0, i64 %self.1) unnamed_addr #0 {
start:
  %_0 = icmp eq i64 %self.1, 0
  ret i1 %_0
}

; core::char::methods::encode_utf8_raw
; Function Attrs: inlinehint nonlazybind uwtable
define internal { ptr, i64 } @_ZN4core4char7methods15encode_utf8_raw17he56a1df55cc6c359E(i32 %0, ptr align 1 %dst.0, i64 %dst.1) unnamed_addr #0 {
start:
  %_84 = alloca %"core::ops::range::Range<usize>", align 8
  %_70 = alloca i64, align 8
  %_68 = alloca %"core::fmt::rt::Argument<'_>", align 8
  %_66 = alloca %"core::fmt::rt::Argument<'_>", align 8
  %_64 = alloca %"core::fmt::rt::Argument<'_>", align 8
  %_63 = alloca [3 x %"core::fmt::rt::Argument<'_>"], align 8
  %_59 = alloca %"core::fmt::Arguments<'_>", align 8
  %len = alloca i64, align 8
  %code = alloca i32, align 4
  store i32 %0, ptr %code, align 4
  %code1 = load i32, ptr %code, align 4, !noundef !4
  %_72 = icmp ult i32 %code1, 128
  br i1 %_72, label %bb12, label %bb13

bb13:                                             ; preds = %start
  %_73 = icmp ult i32 %code1, 2048
  br i1 %_73, label %bb14, label %bb15

bb12:                                             ; preds = %start
  store i64 1, ptr %len, align 8
  br label %bb20

bb15:                                             ; preds = %bb13
  %_74 = icmp ult i32 %code1, 65536
  br i1 %_74, label %bb16, label %bb17

bb14:                                             ; preds = %bb13
  store i64 2, ptr %len, align 8
  br label %bb19

bb17:                                             ; preds = %bb15
  store i64 4, ptr %len, align 8
  br label %bb18

bb16:                                             ; preds = %bb15
  store i64 3, ptr %len, align 8
  br label %bb18

bb18:                                             ; preds = %bb16, %bb17
  br label %bb19

bb19:                                             ; preds = %bb14, %bb18
  br label %bb20

bb20:                                             ; preds = %bb12, %bb19
  %_5 = load i64, ptr %len, align 8, !noundef !4
  switch i64 %_5, label %bb2 [
    i64 1, label %bb1
    i64 2, label %bb3
    i64 3, label %bb4
    i64 4, label %bb5
  ]

bb2:                                              ; preds = %bb5, %bb4, %bb3, %bb1, %bb20
  store ptr %len, ptr %_64, align 8
  %1 = getelementptr inbounds i8, ptr %_64, i64 8
  store ptr @"_ZN4core3fmt3num3imp54_$LT$impl$u20$core..fmt..Display$u20$for$u20$usize$GT$3fmt17h7bbbd896a38dcccaE", ptr %1, align 8
  store ptr %code, ptr %_66, align 8
  %2 = getelementptr inbounds i8, ptr %_66, i64 8
  store ptr @"_ZN4core3fmt3num53_$LT$impl$u20$core..fmt..UpperHex$u20$for$u20$u32$GT$3fmt17h79f4c0ef1dfa4c73E", ptr %2, align 8
  store i64 %dst.1, ptr %_70, align 8
  store ptr %_70, ptr %_68, align 8
  %3 = getelementptr inbounds i8, ptr %_68, i64 8
  store ptr @"_ZN4core3fmt3num3imp54_$LT$impl$u20$core..fmt..Display$u20$for$u20$usize$GT$3fmt17h7bbbd896a38dcccaE", ptr %3, align 8
  %4 = load ptr, ptr %_64, align 8, !nonnull !4, !align !9, !noundef !4
  %5 = getelementptr inbounds i8, ptr %_64, i64 8
  %6 = load ptr, ptr %5, align 8, !nonnull !4, !noundef !4
  %7 = getelementptr inbounds [3 x %"core::fmt::rt::Argument<'_>"], ptr %_63, i64 0, i64 0
  store ptr %4, ptr %7, align 8
  %8 = getelementptr inbounds i8, ptr %7, i64 8
  store ptr %6, ptr %8, align 8
  %9 = load ptr, ptr %_66, align 8, !nonnull !4, !align !9, !noundef !4
  %10 = getelementptr inbounds i8, ptr %_66, i64 8
  %11 = load ptr, ptr %10, align 8, !nonnull !4, !noundef !4
  %12 = getelementptr inbounds [3 x %"core::fmt::rt::Argument<'_>"], ptr %_63, i64 0, i64 1
  store ptr %9, ptr %12, align 8
  %13 = getelementptr inbounds i8, ptr %12, i64 8
  store ptr %11, ptr %13, align 8
  %14 = load ptr, ptr %_68, align 8, !nonnull !4, !align !9, !noundef !4
  %15 = getelementptr inbounds i8, ptr %_68, i64 8
  %16 = load ptr, ptr %15, align 8, !nonnull !4, !noundef !4
  %17 = getelementptr inbounds [3 x %"core::fmt::rt::Argument<'_>"], ptr %_63, i64 0, i64 2
  store ptr %14, ptr %17, align 8
  %18 = getelementptr inbounds i8, ptr %17, i64 8
  store ptr %16, ptr %18, align 8
; call core::fmt::Arguments::new_v1
  call void @_ZN4core3fmt9Arguments6new_v117h2aa552c24c1a6c2dE(ptr sret(%"core::fmt::Arguments<'_>") align 8 %_59, ptr align 8 @alloc_d51214f097f67314513b76e97e13aa6b, i64 3, ptr align 8 %_63, i64 3)
; call core::panicking::panic_fmt
  call void @_ZN4core9panicking9panic_fmt17h0d3f1893e38be419E(ptr align 8 %_59, ptr align 8 @alloc_9cd042eb6cb0d992fdeb8ae2db92c748) #15
  unreachable

bb1:                                              ; preds = %bb20
  %_7 = icmp uge i64 %dst.1, 1
  br i1 %_7, label %bb6, label %bb2

bb3:                                              ; preds = %bb20
  %_9 = icmp uge i64 %dst.1, 2
  br i1 %_9, label %bb7, label %bb2

bb4:                                              ; preds = %bb20
  %_11 = icmp uge i64 %dst.1, 3
  br i1 %_11, label %bb8, label %bb2

bb5:                                              ; preds = %bb20
  %_13 = icmp uge i64 %dst.1, 4
  br i1 %_13, label %bb9, label %bb2

bb6:                                              ; preds = %bb1
  %a = getelementptr inbounds [0 x i8], ptr %dst.0, i64 0, i64 0
  %_15 = load i32, ptr %code, align 4, !noundef !4
  %19 = getelementptr inbounds [0 x i8], ptr %dst.0, i64 0, i64 0
  %20 = trunc i32 %_15 to i8
  store i8 %20, ptr %19, align 1
  br label %bb11

bb11:                                             ; preds = %bb9, %bb8, %bb7, %bb6
  %index = load i64, ptr %len, align 8, !noundef !4
  store i64 0, ptr %_84, align 8
  %21 = getelementptr inbounds i8, ptr %_84, i64 8
  store i64 %index, ptr %21, align 8
  %22 = load i64, ptr %_84, align 8, !noundef !4
  %23 = getelementptr inbounds i8, ptr %_84, i64 8
  %24 = load i64, ptr %23, align 8, !noundef !4
; call <core::ops::range::Range<usize> as core::slice::index::SliceIndex<[T]>>::index_mut
  %25 = call { ptr, i64 } @"_ZN106_$LT$core..ops..range..Range$LT$usize$GT$$u20$as$u20$core..slice..index..SliceIndex$LT$$u5b$T$u5d$$GT$$GT$9index_mut17h1ee5d670878f4680E"(i64 %22, i64 %24, ptr align 1 %dst.0, i64 %dst.1, ptr align 8 @alloc_7a7f897cbce61fe5aefd1aacce65247e)
  %_0.0 = extractvalue { ptr, i64 } %25, 0
  %_0.1 = extractvalue { ptr, i64 } %25, 1
  %26 = insertvalue { ptr, i64 } poison, ptr %_0.0, 0
  %27 = insertvalue { ptr, i64 } %26, i64 %_0.1, 1
  ret { ptr, i64 } %27

bb7:                                              ; preds = %bb3
  %a2 = getelementptr inbounds [0 x i8], ptr %dst.0, i64 0, i64 0
  %b = getelementptr inbounds [0 x i8], ptr %dst.0, i64 0, i64 1
  %_21 = load i32, ptr %code, align 4, !noundef !4
  %_20 = lshr i32 %_21, 6
  %_19 = and i32 %_20, 31
  %_18 = trunc i32 %_19 to i8
  %28 = getelementptr inbounds [0 x i8], ptr %dst.0, i64 0, i64 0
  %29 = or i8 %_18, -64
  store i8 %29, ptr %28, align 1
  %_24 = load i32, ptr %code, align 4, !noundef !4
  %_23 = and i32 %_24, 63
  %_22 = trunc i32 %_23 to i8
  %30 = getelementptr inbounds [0 x i8], ptr %dst.0, i64 0, i64 1
  %31 = or i8 %_22, -128
  store i8 %31, ptr %30, align 1
  br label %bb11

bb8:                                              ; preds = %bb4
  %a3 = getelementptr inbounds [0 x i8], ptr %dst.0, i64 0, i64 0
  %b4 = getelementptr inbounds [0 x i8], ptr %dst.0, i64 0, i64 1
  %c = getelementptr inbounds [0 x i8], ptr %dst.0, i64 0, i64 2
  %_31 = load i32, ptr %code, align 4, !noundef !4
  %_30 = lshr i32 %_31, 12
  %_29 = and i32 %_30, 15
  %_28 = trunc i32 %_29 to i8
  %32 = getelementptr inbounds [0 x i8], ptr %dst.0, i64 0, i64 0
  %33 = or i8 %_28, -32
  store i8 %33, ptr %32, align 1
  %_35 = load i32, ptr %code, align 4, !noundef !4
  %_34 = lshr i32 %_35, 6
  %_33 = and i32 %_34, 63
  %_32 = trunc i32 %_33 to i8
  %34 = getelementptr inbounds [0 x i8], ptr %dst.0, i64 0, i64 1
  %35 = or i8 %_32, -128
  store i8 %35, ptr %34, align 1
  %_38 = load i32, ptr %code, align 4, !noundef !4
  %_37 = and i32 %_38, 63
  %_36 = trunc i32 %_37 to i8
  %36 = getelementptr inbounds [0 x i8], ptr %dst.0, i64 0, i64 2
  %37 = or i8 %_36, -128
  store i8 %37, ptr %36, align 1
  br label %bb11

bb9:                                              ; preds = %bb5
  %a5 = getelementptr inbounds [0 x i8], ptr %dst.0, i64 0, i64 0
  %b6 = getelementptr inbounds [0 x i8], ptr %dst.0, i64 0, i64 1
  %c7 = getelementptr inbounds [0 x i8], ptr %dst.0, i64 0, i64 2
  %d = getelementptr inbounds [0 x i8], ptr %dst.0, i64 0, i64 3
  %_46 = load i32, ptr %code, align 4, !noundef !4
  %_45 = lshr i32 %_46, 18
  %_44 = and i32 %_45, 7
  %_43 = trunc i32 %_44 to i8
  %38 = getelementptr inbounds [0 x i8], ptr %dst.0, i64 0, i64 0
  %39 = or i8 %_43, -16
  store i8 %39, ptr %38, align 1
  %_50 = load i32, ptr %code, align 4, !noundef !4
  %_49 = lshr i32 %_50, 12
  %_48 = and i32 %_49, 63
  %_47 = trunc i32 %_48 to i8
  %40 = getelementptr inbounds [0 x i8], ptr %dst.0, i64 0, i64 1
  %41 = or i8 %_47, -128
  store i8 %41, ptr %40, align 1
  %_54 = load i32, ptr %code, align 4, !noundef !4
  %_53 = lshr i32 %_54, 6
  %_52 = and i32 %_53, 63
  %_51 = trunc i32 %_52 to i8
  %42 = getelementptr inbounds [0 x i8], ptr %dst.0, i64 0, i64 2
  %43 = or i8 %_51, -128
  store i8 %43, ptr %42, align 1
  %_57 = load i32, ptr %code, align 4, !noundef !4
  %_56 = and i32 %_57, 63
  %_55 = trunc i32 %_56 to i8
  %44 = getelementptr inbounds [0 x i8], ptr %dst.0, i64 0, i64 3
  %45 = or i8 %_55, -128
  store i8 %45, ptr %44, align 1
  br label %bb11
}

; core::alloc::layout::Layout::array::inner
; Function Attrs: inlinehint nonlazybind uwtable
define internal { i64, i64 } @_ZN4core5alloc6layout6Layout5array5inner17hc7514bcd921d075bE(i64 %element_size, i64 %align, i64 %n) unnamed_addr #0 {
start:
  %_18 = alloca i64, align 8
  %_13 = alloca i64, align 8
  %_9 = alloca %"core::alloc::layout::Layout", align 8
  %_0 = alloca %"core::result::Result<core::alloc::layout::Layout, core::alloc::layout::LayoutError>", align 8
  %0 = icmp eq i64 %element_size, 0
  br i1 %0, label %bb5, label %bb1

bb5:                                              ; preds = %bb4, %start
  %array_size = mul nuw i64 %element_size, %n
  store i64 %align, ptr %_18, align 8
  %_19 = load i64, ptr %_18, align 8, !range !11, !noundef !4
  %_20 = icmp uge i64 %_19, 1
  %_21 = icmp ule i64 %_19, -9223372036854775808
  %_22 = and i1 %_20, %_21
  call void @llvm.assume(i1 %_22)
  %1 = getelementptr inbounds i8, ptr %_9, i64 8
  store i64 %array_size, ptr %1, align 8
  store i64 %_19, ptr %_9, align 8
  %2 = load i64, ptr %_9, align 8, !range !11, !noundef !4
  %3 = getelementptr inbounds i8, ptr %_9, i64 8
  %4 = load i64, ptr %3, align 8, !noundef !4
  store i64 %2, ptr %_0, align 8
  %5 = getelementptr inbounds i8, ptr %_0, i64 8
  store i64 %4, ptr %5, align 8
  br label %bb6

bb1:                                              ; preds = %start
  store i64 %align, ptr %_13, align 8
  %_14 = load i64, ptr %_13, align 8, !range !11, !noundef !4
  %_15 = icmp uge i64 %_14, 1
  %_16 = icmp ule i64 %_14, -9223372036854775808
  %_17 = and i1 %_15, %_16
  call void @llvm.assume(i1 %_17)
  %_11 = sub i64 %_14, 1
  %_6 = sub i64 9223372036854775807, %_11
  %_7 = icmp eq i64 %element_size, 0
  %6 = call i1 @llvm.expect.i1(i1 %_7, i1 false)
  br i1 %6, label %panic, label %bb2

bb2:                                              ; preds = %bb1
  %_5 = udiv i64 %_6, %element_size
  %_4 = icmp ugt i64 %n, %_5
  br i1 %_4, label %bb3, label %bb4

panic:                                            ; preds = %bb1
; call core::panicking::panic
  call void @_ZN4core9panicking5panic17h59297120e85ea178E(ptr align 1 @str.2, i64 25, ptr align 8 @alloc_37f08cc86d215bcabda8bef18acdfc7b) #15
  unreachable

bb4:                                              ; preds = %bb2
  br label %bb5

bb3:                                              ; preds = %bb2
  %7 = load i64, ptr @0, align 8, !range !12, !noundef !4
  %8 = load i64, ptr getelementptr inbounds (i8, ptr @0, i64 8), align 8
  store i64 %7, ptr %_0, align 8
  %9 = getelementptr inbounds i8, ptr %_0, i64 8
  store i64 %8, ptr %9, align 8
  br label %bb6

bb6:                                              ; preds = %bb3, %bb5
  %10 = load i64, ptr %_0, align 8, !range !12, !noundef !4
  %11 = getelementptr inbounds i8, ptr %_0, i64 8
  %12 = load i64, ptr %11, align 8
  %13 = insertvalue { i64, i64 } poison, i64 %10, 0
  %14 = insertvalue { i64, i64 } %13, i64 %12, 1
  ret { i64, i64 } %14
}

; core::array::<impl core::iter::traits::collect::IntoIterator for &[T; N]>::into_iter
; Function Attrs: nonlazybind uwtable
define internal { ptr, ptr } @"_ZN4core5array98_$LT$impl$u20$core..iter..traits..collect..IntoIterator$u20$for$u20$$RF$$u5b$T$u3b$$u20$N$u5d$$GT$9into_iter17hdb197f9d3c10c96dE"(ptr align 8 %self) unnamed_addr #1 {
start:
  %_8 = alloca ptr, align 8
  %end_or_len = alloca ptr, align 8
  %_0 = alloca %"core::slice::iter::Iter<'_, &str>", align 8
  br i1 false, label %bb1, label %bb2

bb2:                                              ; preds = %start
  %0 = getelementptr inbounds { ptr, i64 }, ptr %self, i64 4
  store ptr %0, ptr %end_or_len, align 8
  br label %bb3

bb1:                                              ; preds = %start
  store ptr inttoptr (i64 4 to ptr), ptr %end_or_len, align 8
  br label %bb3

bb3:                                              ; preds = %bb1, %bb2
  store ptr %self, ptr %_8, align 8
  %_10 = load ptr, ptr %end_or_len, align 8, !noundef !4
  %1 = load ptr, ptr %_8, align 8, !nonnull !4, !noundef !4
  store ptr %1, ptr %_0, align 8
  %2 = getelementptr inbounds i8, ptr %_0, i64 8
  store ptr %_10, ptr %2, align 8
  %3 = load ptr, ptr %_0, align 8, !nonnull !4, !noundef !4
  %4 = getelementptr inbounds i8, ptr %_0, i64 8
  %5 = load ptr, ptr %4, align 8, !noundef !4
  %6 = insertvalue { ptr, ptr } poison, ptr %3, 0
  %7 = insertvalue { ptr, ptr } %6, ptr %5, 1
  ret { ptr, ptr } %7
}

; core::slice::memchr::memchr_naive
; Function Attrs: inlinehint nonlazybind uwtable
define internal { i64, i64 } @_ZN4core5slice6memchr12memchr_naive17hd2f822c16e35705fE(i8 %x, ptr align 1 %text.0, i64 %text.1) unnamed_addr #0 {
start:
  %i = alloca i64, align 8
  %_0 = alloca %"core::option::Option<usize>", align 8
  store i64 0, ptr %i, align 8
  br label %bb1

bb1:                                              ; preds = %bb5, %start
  %_5 = load i64, ptr %i, align 8, !noundef !4
  %_4 = icmp ult i64 %_5, %text.1
  br i1 %_4, label %bb2, label %bb6

bb6:                                              ; preds = %bb1
  %0 = load i64, ptr @0, align 8, !range !8, !noundef !4
  %1 = load i64, ptr getelementptr inbounds (i8, ptr @0, i64 8), align 8
  store i64 %0, ptr %_0, align 8
  %2 = getelementptr inbounds i8, ptr %_0, i64 8
  store i64 %1, ptr %2, align 8
  br label %bb7

bb2:                                              ; preds = %bb1
  %_9 = load i64, ptr %i, align 8, !noundef !4
  %_10 = icmp ult i64 %_9, %text.1
  %3 = call i1 @llvm.expect.i1(i1 %_10, i1 true)
  br i1 %3, label %bb3, label %panic

bb7:                                              ; preds = %bb4, %bb6
  %4 = load i64, ptr %_0, align 8, !range !8, !noundef !4
  %5 = getelementptr inbounds i8, ptr %_0, i64 8
  %6 = load i64, ptr %5, align 8
  %7 = insertvalue { i64, i64 } poison, i64 %4, 0
  %8 = insertvalue { i64, i64 } %7, i64 %6, 1
  ret { i64, i64 } %8

bb3:                                              ; preds = %bb2
  %9 = getelementptr inbounds [0 x i8], ptr %text.0, i64 0, i64 %_9
  %_8 = load i8, ptr %9, align 1, !noundef !4
  %_7 = icmp eq i8 %_8, %x
  br i1 %_7, label %bb4, label %bb5

panic:                                            ; preds = %bb2
; call core::panicking::panic_bounds_check
  call void @_ZN4core9panicking18panic_bounds_check17hf45ce6debf926a45E(i64 %_9, i64 %text.1, ptr align 8 @alloc_fd72864725e1c47897c83be58a9099d6) #15
  unreachable

bb5:                                              ; preds = %bb3
  %10 = load i64, ptr %i, align 8, !noundef !4
  %11 = add i64 %10, 1
  store i64 %11, ptr %i, align 8
  br label %bb1

bb4:                                              ; preds = %bb3
  %_11 = load i64, ptr %i, align 8, !noundef !4
  %12 = getelementptr inbounds i8, ptr %_0, i64 8
  store i64 %_11, ptr %12, align 8
  store i64 1, ptr %_0, align 8
  br label %bb7
}

; core::option::Option<T>::map
; Function Attrs: inlinehint nonlazybind uwtable
define internal { ptr, i64 } @"_ZN4core6option15Option$LT$T$GT$3map17hce7e07f59a94a125E"(ptr align 1 %0, i64 %1) unnamed_addr #0 {
start:
  %_8 = alloca i8, align 1
  %_7 = alloca { { ptr, i64 } }, align 8
  %_0 = alloca %"core::option::Option<alloc::sync::Arc<str>>", align 8
  %self = alloca %"core::option::Option<&str>", align 8
  store ptr %0, ptr %self, align 8
  %2 = getelementptr inbounds i8, ptr %self, i64 8
  store i64 %1, ptr %2, align 8
  store i8 1, ptr %_8, align 1
  %3 = load ptr, ptr %self, align 8, !noundef !4
  %4 = ptrtoint ptr %3 to i64
  %5 = icmp eq i64 %4, 0
  %_3 = select i1 %5, i64 0, i64 1
  %6 = icmp eq i64 %_3, 0
  br i1 %6, label %bb1, label %bb3

bb1:                                              ; preds = %start
  store ptr null, ptr %_0, align 8
  br label %bb7

bb3:                                              ; preds = %start
  %x.0 = load ptr, ptr %self, align 8, !nonnull !4, !align !9, !noundef !4
  %7 = getelementptr inbounds i8, ptr %self, i64 8
  %x.1 = load i64, ptr %7, align 8, !noundef !4
  store i8 0, ptr %_8, align 1
  store ptr %x.0, ptr %_7, align 8
  %8 = getelementptr inbounds i8, ptr %_7, i64 8
  store i64 %x.1, ptr %8, align 8
  %9 = load ptr, ptr %_7, align 8, !nonnull !4, !align !9, !noundef !4
  %10 = getelementptr inbounds i8, ptr %_7, i64 8
  %11 = load i64, ptr %10, align 8, !noundef !4
; call core::ops::function::FnOnce::call_once
  %12 = call { ptr, i64 } @_ZN4core3ops8function6FnOnce9call_once17h23fd054cf2a0d3a3E(ptr align 1 %9, i64 %11)
  %_5.0 = extractvalue { ptr, i64 } %12, 0
  %_5.1 = extractvalue { ptr, i64 } %12, 1
  store ptr %_5.0, ptr %_0, align 8
  %13 = getelementptr inbounds i8, ptr %_0, i64 8
  store i64 %_5.1, ptr %13, align 8
  br label %bb7

bb7:                                              ; preds = %bb3, %bb1
  %14 = load i8, ptr %_8, align 1, !range !5, !noundef !4
  %15 = trunc i8 %14 to i1
  br i1 %15, label %bb6, label %bb5

bb5:                                              ; preds = %bb6, %bb7
  %16 = load ptr, ptr %_0, align 8, !noundef !4
  %17 = getelementptr inbounds i8, ptr %_0, i64 8
  %18 = load i64, ptr %17, align 8
  %19 = insertvalue { ptr, i64 } poison, ptr %16, 0
  %20 = insertvalue { ptr, i64 } %19, i64 %18, 1
  ret { ptr, i64 } %20

bb6:                                              ; preds = %bb7
  br label %bb5

bb2:                                              ; No predecessors!
  unreachable
}

; core::option::Option<T>::map_or
; Function Attrs: inlinehint nonlazybind uwtable
define internal zeroext i1 @"_ZN4core6option15Option$LT$T$GT$6map_or17h0f90d3533b69abaeE"(i1 zeroext %0, i8 %1, i1 zeroext %default) unnamed_addr #0 personality ptr @rust_eh_personality {
start:
  %2 = alloca { ptr, i32, [1 x i32] }, align 8
  %_9 = alloca i8, align 1
  %_8 = alloca i8, align 1
  %_7 = alloca i8, align 1
  %_0 = alloca i8, align 1
  %self = alloca %"core::option::Option<u8>", align 1
  %3 = zext i1 %0 to i8
  store i8 %3, ptr %self, align 1
  %4 = getelementptr inbounds i8, ptr %self, i64 1
  store i8 %1, ptr %4, align 1
  store i8 1, ptr %_9, align 1
  store i8 1, ptr %_8, align 1
  %5 = load i8, ptr %self, align 1, !range !5, !noundef !4
  %6 = trunc i8 %5 to i1
  %_4 = zext i1 %6 to i64
  %7 = icmp eq i64 %_4, 0
  br i1 %7, label %bb1, label %bb3

bb1:                                              ; preds = %start
  store i8 0, ptr %_9, align 1
  %8 = zext i1 %default to i8
  store i8 %8, ptr %_0, align 1
  br label %bb9

bb3:                                              ; preds = %start
  %9 = getelementptr inbounds i8, ptr %self, i64 1
  %t = load i8, ptr %9, align 1, !noundef !4
  store i8 0, ptr %_8, align 1
  store i8 %t, ptr %_7, align 1
  %10 = load i8, ptr %_7, align 1, !noundef !4
; invoke build_script_build::main::{{closure}}
  %11 = invoke zeroext i1 @"_ZN18build_script_build4main28_$u7b$$u7b$closure$u7d$$u7d$17h7688ea2ae56a5eddE"(i8 %10)
          to label %bb4 unwind label %cleanup

bb9:                                              ; preds = %bb4, %bb1
  %12 = load i8, ptr %_8, align 1, !range !5, !noundef !4
  %13 = trunc i8 %12 to i1
  br i1 %13, label %bb8, label %bb5

bb12:                                             ; preds = %cleanup
  %14 = load i8, ptr %_9, align 1, !range !5, !noundef !4
  %15 = trunc i8 %14 to i1
  br i1 %15, label %bb11, label %bb7

cleanup:                                          ; preds = %bb3
  %16 = landingpad { ptr, i32 }
          cleanup
  %17 = extractvalue { ptr, i32 } %16, 0
  %18 = extractvalue { ptr, i32 } %16, 1
  store ptr %17, ptr %2, align 8
  %19 = getelementptr inbounds i8, ptr %2, i64 8
  store i32 %18, ptr %19, align 8
  br label %bb12

bb4:                                              ; preds = %bb3
  %20 = zext i1 %11 to i8
  store i8 %20, ptr %_0, align 1
  br label %bb9

bb5:                                              ; preds = %bb8, %bb9
  %21 = load i8, ptr %_9, align 1, !range !5, !noundef !4
  %22 = trunc i8 %21 to i1
  br i1 %22, label %bb10, label %bb6

bb8:                                              ; preds = %bb9
  br label %bb5

bb6:                                              ; preds = %bb10, %bb5
  %23 = load i8, ptr %_0, align 1, !range !5, !noundef !4
  %24 = trunc i8 %23 to i1
  ret i1 %24

bb10:                                             ; preds = %bb5
  br label %bb6

bb7:                                              ; preds = %bb11, %bb12
  %25 = load ptr, ptr %2, align 8, !noundef !4
  %26 = getelementptr inbounds i8, ptr %2, i64 8
  %27 = load i32, ptr %26, align 8, !noundef !4
  %28 = insertvalue { ptr, i32 } poison, ptr %25, 0
  %29 = insertvalue { ptr, i32 } %28, i32 %27, 1
  resume { ptr, i32 } %29

bb11:                                             ; preds = %bb12
  br label %bb7

bb2:                                              ; No predecessors!
  unreachable
}

; core::result::Result<T,E>::ok
; Function Attrs: inlinehint nonlazybind uwtable
define internal { i1, i8 } @"_ZN4core6result19Result$LT$T$C$E$GT$2ok17h96bc8bcf9e248a28E"(i1 zeroext %0, i8 %1) unnamed_addr #0 {
start:
  %_0 = alloca %"core::option::Option<u8>", align 1
  %self = alloca %"core::result::Result<u8, core::num::error::ParseIntError>", align 1
  %2 = zext i1 %0 to i8
  store i8 %2, ptr %self, align 1
  %3 = getelementptr inbounds i8, ptr %self, i64 1
  store i8 %1, ptr %3, align 1
  %4 = load i8, ptr %self, align 1, !range !5, !noundef !4
  %5 = trunc i8 %4 to i1
  %_2 = zext i1 %5 to i64
  %6 = icmp eq i64 %_2, 0
  br i1 %6, label %bb3, label %bb1

bb3:                                              ; preds = %start
  %7 = getelementptr inbounds i8, ptr %self, i64 1
  %x = load i8, ptr %7, align 1, !noundef !4
  %8 = getelementptr inbounds i8, ptr %_0, i64 1
  store i8 %x, ptr %8, align 1
  store i8 1, ptr %_0, align 1
  br label %bb6

bb1:                                              ; preds = %start
  store i8 0, ptr %_0, align 1
  br label %bb6

bb6:                                              ; preds = %bb1, %bb3
  %9 = load i8, ptr %self, align 1, !range !5, !noundef !4
  %10 = trunc i8 %9 to i1
  %_4 = zext i1 %10 to i64
  %11 = icmp eq i64 %_4, 0
  br i1 %11, label %bb4, label %bb5

bb4:                                              ; preds = %bb5, %bb6
  %12 = load i8, ptr %_0, align 1, !range !5, !noundef !4
  %13 = trunc i8 %12 to i1
  %14 = getelementptr inbounds i8, ptr %_0, i64 1
  %15 = load i8, ptr %14, align 1
  %16 = insertvalue { i1, i8 } poison, i1 %13, 0
  %17 = insertvalue { i1, i8 } %16, i8 %15, 1
  ret { i1, i8 } %17

bb5:                                              ; preds = %bb6
  br label %bb4

bb2:                                              ; No predecessors!
  unreachable
}

; core::result::Result<T,E>::ok
; Function Attrs: inlinehint nonlazybind uwtable
define internal void @"_ZN4core6result19Result$LT$T$C$E$GT$2ok17hdf2b44acee68e776E"(ptr sret(%"core::option::Option<std::process::Output>") align 8 %_0, ptr align 8 %self) unnamed_addr #0 {
start:
  %x = alloca %"std::process::Output", align 8
  %0 = load i64, ptr %self, align 8, !range !12, !noundef !4
  %1 = icmp eq i64 %0, -9223372036854775808
  %_2 = select i1 %1, i64 1, i64 0
  %2 = icmp eq i64 %_2, 0
  br i1 %2, label %bb3, label %bb1

bb3:                                              ; preds = %start
  call void @llvm.memcpy.p0.p0.i64(ptr align 8 %x, ptr align 8 %self, i64 56, i1 false)
  call void @llvm.memcpy.p0.p0.i64(ptr align 8 %_0, ptr align 8 %x, i64 56, i1 false)
  br label %bb6

bb1:                                              ; preds = %start
  store i64 -9223372036854775808, ptr %_0, align 8
  br label %bb6

bb6:                                              ; preds = %bb1, %bb3
  %3 = load i64, ptr %self, align 8, !range !12, !noundef !4
  %4 = icmp eq i64 %3, -9223372036854775808
  %_4 = select i1 %4, i64 1, i64 0
  %5 = icmp eq i64 %_4, 0
  br i1 %5, label %bb4, label %bb5

bb4:                                              ; preds = %bb5, %bb6
  ret void

bb5:                                              ; preds = %bb6
; call core::ptr::drop_in_place<core::result::Result<std::process::Output,std::io::error::Error>>
  call void @"_ZN4core3ptr93drop_in_place$LT$core..result..Result$LT$std..process..Output$C$std..io..error..Error$GT$$GT$17h226bbb38d00c8892E"(ptr align 8 %self)
  br label %bb4

bb2:                                              ; No predecessors!
  unreachable
}

; core::result::Result<T,E>::ok
; Function Attrs: inlinehint nonlazybind uwtable
define internal { i32, i32 } @"_ZN4core6result19Result$LT$T$C$E$GT$2ok17hf1e62581ac4c473bE"(ptr align 8 %self) unnamed_addr #0 {
start:
  %_0 = alloca %"core::option::Option<std::process::ExitStatus>", align 4
  %0 = load i32, ptr %self, align 8, !range !13, !noundef !4
  %_2 = zext i32 %0 to i64
  %1 = icmp eq i64 %_2, 0
  br i1 %1, label %bb3, label %bb1

bb3:                                              ; preds = %start
  %2 = getelementptr inbounds %"core::result::Result<std::process::ExitStatus, std::io::error::Error>::Ok", ptr %self, i32 0, i32 1
  %x = load i32, ptr %2, align 4, !noundef !4
  %3 = getelementptr inbounds i8, ptr %_0, i64 4
  store i32 %x, ptr %3, align 4
  store i32 1, ptr %_0, align 4
  br label %bb6

bb1:                                              ; preds = %start
  store i32 0, ptr %_0, align 4
  br label %bb6

bb6:                                              ; preds = %bb1, %bb3
  %4 = load i32, ptr %self, align 8, !range !13, !noundef !4
  %_4 = zext i32 %4 to i64
  %5 = icmp eq i64 %_4, 0
  br i1 %5, label %bb4, label %bb5

bb4:                                              ; preds = %bb5, %bb6
  %6 = load i32, ptr %_0, align 4, !range !13, !noundef !4
  %7 = getelementptr inbounds i8, ptr %_0, i64 4
  %8 = load i32, ptr %7, align 4
  %9 = insertvalue { i32, i32 } poison, i32 %6, 0
  %10 = insertvalue { i32, i32 } %9, i32 %8, 1
  ret { i32, i32 } %10

bb5:                                              ; preds = %bb6
; call core::ptr::drop_in_place<core::result::Result<std::process::ExitStatus,std::io::error::Error>>
  call void @"_ZN4core3ptr97drop_in_place$LT$core..result..Result$LT$std..process..ExitStatus$C$std..io..error..Error$GT$$GT$17hb0068fac440a7d18E"(ptr align 8 %self)
  br label %bb4

bb2:                                              ; No predecessors!
  unreachable
}

; <T as core::convert::Into<U>>::into
; Function Attrs: inlinehint nonlazybind uwtable
define internal { ptr, i64 } @"_ZN50_$LT$T$u20$as$u20$core..convert..Into$LT$U$GT$$GT$4into17hde32e27b8d249cfdE"(ptr align 1 %self.0, i64 %self.1, ptr align 8 %0) unnamed_addr #0 {
start:
  %1 = insertvalue { ptr, i64 } poison, ptr %self.0, 0
  %2 = insertvalue { ptr, i64 } %1, i64 %self.1, 1
  %_0.0 = extractvalue { ptr, i64 } %2, 0
  %_0.1 = extractvalue { ptr, i64 } %2, 1
  %3 = insertvalue { ptr, i64 } poison, ptr %_0.0, 0
  %4 = insertvalue { ptr, i64 } %3, i64 %_0.1, 1
  ret { ptr, i64 } %4
}

; <T as core::convert::Into<U>>::into
; Function Attrs: inlinehint nonlazybind uwtable
define internal { ptr, i64 } @"_ZN50_$LT$T$u20$as$u20$core..convert..Into$LT$U$GT$$GT$4into17he18155288c755fd8E"(ptr align 1 %self.0, i64 %self.1, ptr align 8 %0) unnamed_addr #0 {
start:
; call <core::option::Option<T> as core::convert::From<T>>::from
  %1 = call { ptr, i64 } @"_ZN78_$LT$core..option..Option$LT$T$GT$$u20$as$u20$core..convert..From$LT$T$GT$$GT$4from17h380c62822fb7f510E"(ptr align 1 %self.0, i64 %self.1)
  %_0.0 = extractvalue { ptr, i64 } %1, 0
  %_0.1 = extractvalue { ptr, i64 } %1, 1
  %2 = insertvalue { ptr, i64 } poison, ptr %_0.0, 0
  %3 = insertvalue { ptr, i64 } %2, i64 %_0.1, 1
  ret { ptr, i64 } %3
}

; <char as core::str::pattern::Pattern>::into_searcher
; Function Attrs: inlinehint nonlazybind uwtable
define internal void @"_ZN52_$LT$char$u20$as$u20$core..str..pattern..Pattern$GT$13into_searcher17h5b09b678cb4d3b62E"(ptr sret(%"core::str::pattern::CharSearcher<'_>") align 8 %_0, i32 %self, ptr align 1 %haystack.0, i64 %haystack.1) unnamed_addr #0 {
start:
  %_9 = alloca [4 x i8], align 1
  %utf8_encoded = alloca [4 x i8], align 1
  %0 = getelementptr inbounds [4 x i8], ptr %utf8_encoded, i64 0, i64 0
  call void @llvm.memset.p0.i64(ptr align 1 %0, i8 0, i64 4, i1 false)
; call core::char::methods::encode_utf8_raw
  %1 = call { ptr, i64 } @_ZN4core4char7methods15encode_utf8_raw17he56a1df55cc6c359E(i32 %self, ptr align 1 %utf8_encoded, i64 4)
  %v.0 = extractvalue { ptr, i64 } %1, 0
  %v.1 = extractvalue { ptr, i64 } %1, 1
  %2 = load <4 x i8>, ptr %utf8_encoded, align 1
  store <4 x i8> %2, ptr %_9, align 1
  store ptr %haystack.0, ptr %_0, align 8
  %3 = getelementptr inbounds i8, ptr %_0, i64 8
  store i64 %haystack.1, ptr %3, align 8
  %4 = getelementptr inbounds %"core::str::pattern::CharSearcher<'_>", ptr %_0, i32 0, i32 1
  store i64 0, ptr %4, align 8
  %5 = getelementptr inbounds %"core::str::pattern::CharSearcher<'_>", ptr %_0, i32 0, i32 2
  store i64 %haystack.1, ptr %5, align 8
  %6 = getelementptr inbounds %"core::str::pattern::CharSearcher<'_>", ptr %_0, i32 0, i32 5
  store i32 %self, ptr %6, align 4
  %7 = getelementptr inbounds %"core::str::pattern::CharSearcher<'_>", ptr %_0, i32 0, i32 3
  store i64 %v.1, ptr %7, align 8
  %8 = getelementptr inbounds %"core::str::pattern::CharSearcher<'_>", ptr %_0, i32 0, i32 4
  %9 = load <4 x i8>, ptr %_9, align 1
  store <4 x i8> %9, ptr %8, align 8
  ret void
}

; <() as std::process::Termination>::report
; Function Attrs: inlinehint nonlazybind uwtable
define internal i8 @"_ZN54_$LT$$LP$$RP$$u20$as$u20$std..process..Termination$GT$6report17h4e86935274c8c5a7E"() unnamed_addr #0 {
start:
  ret i8 0
}

; <&T as core::convert::AsRef<U>>::as_ref
; Function Attrs: inlinehint nonlazybind uwtable
define internal { ptr, i64 } @"_ZN55_$LT$$RF$T$u20$as$u20$core..convert..AsRef$LT$U$GT$$GT$6as_ref17h4bf379fbf5e3fdc0E"(ptr align 8 %self) unnamed_addr #0 {
start:
  %_2 = load ptr, ptr %self, align 8, !nonnull !4, !align !10, !noundef !4
; call <&T as core::convert::AsRef<U>>::as_ref
  %0 = call { ptr, i64 } @"_ZN55_$LT$$RF$T$u20$as$u20$core..convert..AsRef$LT$U$GT$$GT$6as_ref17h9cb6e6cabbfac9daE"(ptr align 8 %_2)
  %_0.0 = extractvalue { ptr, i64 } %0, 0
  %_0.1 = extractvalue { ptr, i64 } %0, 1
  %1 = insertvalue { ptr, i64 } poison, ptr %_0.0, 0
  %2 = insertvalue { ptr, i64 } %1, i64 %_0.1, 1
  ret { ptr, i64 } %2
}

; <std::env::VarError as core::fmt::Debug>::fmt
; Function Attrs: inlinehint nonlazybind uwtable
define internal zeroext i1 @"_ZN55_$LT$std..env..VarError$u20$as$u20$core..fmt..Debug$GT$3fmt17h6b39259146cec576E"(ptr align 8 %self, ptr align 8 %f) unnamed_addr #0 {
start:
  %__self_0 = alloca ptr, align 8
  %_0 = alloca i8, align 1
  %0 = load i64, ptr %self, align 8, !range !12, !noundef !4
  %1 = icmp eq i64 %0, -9223372036854775808
  %_3 = select i1 %1, i64 0, i64 1
  %2 = icmp eq i64 %_3, 0
  br i1 %2, label %bb2, label %bb1

bb2:                                              ; preds = %start
; call core::fmt::Formatter::write_str
  %3 = call zeroext i1 @_ZN4core3fmt9Formatter9write_str17h4bb7c9399e0c7fb5E(ptr align 8 %f, ptr align 1 @alloc_1c5ece773fe9d8a26ac674de79674b77, i64 10)
  %4 = zext i1 %3 to i8
  store i8 %4, ptr %_0, align 1
  br label %bb4

bb1:                                              ; preds = %start
  store ptr %self, ptr %__self_0, align 8
; call core::fmt::Formatter::debug_tuple_field1_finish
  %5 = call zeroext i1 @_ZN4core3fmt9Formatter25debug_tuple_field1_finish17hac56ed013e0598f8E(ptr align 8 %f, ptr align 1 @alloc_19adf04fb909e90136daf37b5ff22508, i64 10, ptr align 1 %__self_0, ptr align 8 @vtable.7)
  %6 = zext i1 %5 to i8
  store i8 %6, ptr %_0, align 1
  br label %bb4

bb4:                                              ; preds = %bb1, %bb2
  %7 = load i8, ptr %_0, align 1, !range !5, !noundef !4
  %8 = trunc i8 %7 to i1
  ret i1 %8

bb5:                                              ; No predecessors!
  unreachable
}

; <alloc::string::String as core::fmt::Write>::write_char
; Function Attrs: inlinehint nonlazybind uwtable
define internal zeroext i1 @"_ZN58_$LT$alloc..string..String$u20$as$u20$core..fmt..Write$GT$10write_char17haeb89619440de149E"(ptr align 8 %self, i32 %c) unnamed_addr #0 {
start:
; call alloc::string::String::push
  call void @_ZN5alloc6string6String4push17h3352040270b912d0E(ptr align 8 %self, i32 %c)
  ret i1 false
}

; <alloc::string::String as core::fmt::Write>::write_str
; Function Attrs: inlinehint nonlazybind uwtable
define internal zeroext i1 @"_ZN58_$LT$alloc..string..String$u20$as$u20$core..fmt..Write$GT$9write_str17h8469099c3139246bE"(ptr align 8 %self, ptr align 1 %s.0, i64 %s.1) unnamed_addr #0 {
start:
; call alloc::vec::Vec<T,A>::extend_from_slice
  call void @"_ZN5alloc3vec16Vec$LT$T$C$A$GT$17extend_from_slice17h102f896cdc9c3e1dE"(ptr align 8 %self, ptr align 1 %s.0, i64 %s.1)
  ret i1 false
}

; alloc::fmt::format
; Function Attrs: inlinehint nonlazybind uwtable
define internal void @_ZN5alloc3fmt6format17h60278b9fb825c168E(ptr sret(%"alloc::string::String") align 8 %_0, ptr align 8 %args) unnamed_addr #0 {
start:
  %_4 = alloca ptr, align 8
  %_2 = alloca %"core::option::Option<&str>", align 8
  %_6.0 = load ptr, ptr %args, align 8, !nonnull !4, !align !10, !noundef !4
  %0 = getelementptr inbounds i8, ptr %args, i64 8
  %_6.1 = load i64, ptr %0, align 8, !noundef !4
  %1 = getelementptr inbounds %"core::fmt::Arguments<'_>", ptr %args, i32 0, i32 1
  %_7.0 = load ptr, ptr %1, align 8, !nonnull !4, !align !10, !noundef !4
  %2 = getelementptr inbounds i8, ptr %1, i64 8
  %_7.1 = load i64, ptr %2, align 8, !noundef !4
  %3 = icmp eq i64 %_6.1, 0
  br i1 %3, label %bb3, label %bb5

bb3:                                              ; preds = %start
  %4 = icmp eq i64 %_7.1, 0
  br i1 %4, label %bb7, label %bb4

bb5:                                              ; preds = %start
  %5 = icmp eq i64 %_6.1, 1
  br i1 %5, label %bb6, label %bb4

bb7:                                              ; preds = %bb3
  store ptr @alloc_513570631223a12912d85da2bec3b15a, ptr %_2, align 8
  %6 = getelementptr inbounds i8, ptr %_2, i64 8
  store i64 0, ptr %6, align 8
  br label %bb2

bb4:                                              ; preds = %bb6, %bb5, %bb3
  %7 = load ptr, ptr @0, align 8, !align !9, !noundef !4
  %8 = load i64, ptr getelementptr inbounds (i8, ptr @0, i64 8), align 8
  store ptr %7, ptr %_2, align 8
  %9 = getelementptr inbounds i8, ptr %_2, i64 8
  store i64 %8, ptr %9, align 8
  br label %bb2

bb2:                                              ; preds = %bb4, %bb8, %bb7
  store ptr %args, ptr %_4, align 8
  %10 = load ptr, ptr %_2, align 8, !align !9, !noundef !4
  %11 = getelementptr inbounds i8, ptr %_2, i64 8
  %12 = load i64, ptr %11, align 8
  %13 = load ptr, ptr %_4, align 8, !nonnull !4, !align !10, !noundef !4
; call core::option::Option<T>::map_or_else
  call void @"_ZN4core6option15Option$LT$T$GT$11map_or_else17h9164fe0091180affE"(ptr sret(%"alloc::string::String") align 8 %_0, ptr align 1 %10, i64 %12, ptr align 8 %13)
  ret void

bb6:                                              ; preds = %bb5
  %14 = icmp eq i64 %_7.1, 0
  br i1 %14, label %bb8, label %bb4

bb8:                                              ; preds = %bb6
  %s = getelementptr inbounds [0 x { ptr, i64 }], ptr %_6.0, i64 0, i64 0
  %15 = getelementptr inbounds [0 x { ptr, i64 }], ptr %_6.0, i64 0, i64 0
  %_13.0 = load ptr, ptr %15, align 8, !nonnull !4, !align !9, !noundef !4
  %16 = getelementptr inbounds i8, ptr %15, i64 8
  %_13.1 = load i64, ptr %16, align 8, !noundef !4
  store ptr %_13.0, ptr %_2, align 8
  %17 = getelementptr inbounds i8, ptr %_2, i64 8
  store i64 %_13.1, ptr %17, align 8
  br label %bb2
}

; alloc::vec::Vec<T,A>::push
; Function Attrs: inlinehint nonlazybind uwtable
define internal void @"_ZN5alloc3vec16Vec$LT$T$C$A$GT$4push17h187d13ae4b45ca42E"(ptr align 8 %self, ptr align 8 %value) unnamed_addr #0 personality ptr @rust_eh_personality {
start:
  %0 = alloca { ptr, i32, [1 x i32] }, align 8
  %src = alloca { %"alloc::sync::Arc<str>", %"core::option::Option<alloc::sync::Arc<str>>" }, align 8
  %_5 = alloca i64, align 8
  %1 = getelementptr inbounds %"alloc::vec::Vec<(alloc::sync::Arc<str>, core::option::Option<alloc::sync::Arc<str>>)>", ptr %self, i32 0, i32 1
  %_4 = load i64, ptr %1, align 8, !noundef !4
  br i1 false, label %bb7, label %bb8

bb8:                                              ; preds = %start
  %2 = load i64, ptr %self, align 8, !noundef !4
  store i64 %2, ptr %_5, align 8
  br label %bb9

bb7:                                              ; preds = %start
  store i64 -1, ptr %_5, align 8
  br label %bb9

bb9:                                              ; preds = %bb7, %bb8
  %3 = load i64, ptr %_5, align 8, !noundef !4
  %_3 = icmp eq i64 %_4, %3
  br i1 %_3, label %bb1, label %bb3

bb3:                                              ; preds = %bb9
  br label %bb4

bb1:                                              ; preds = %bb9
  %4 = getelementptr inbounds %"alloc::vec::Vec<(alloc::sync::Arc<str>, core::option::Option<alloc::sync::Arc<str>>)>", ptr %self, i32 0, i32 1
  %_9 = load i64, ptr %4, align 8, !noundef !4
; invoke alloc::raw_vec::RawVec<T,A>::reserve_for_push
  invoke void @"_ZN5alloc7raw_vec19RawVec$LT$T$C$A$GT$16reserve_for_push17hdfee026195e282dcE"(ptr align 8 %self, i64 %_9)
          to label %bb2 unwind label %cleanup

bb4:                                              ; preds = %bb2, %bb3
  %5 = getelementptr inbounds i8, ptr %self, i64 8
  %self1 = load ptr, ptr %5, align 8, !nonnull !4, !noundef !4
  %6 = getelementptr inbounds %"alloc::vec::Vec<(alloc::sync::Arc<str>, core::option::Option<alloc::sync::Arc<str>>)>", ptr %self, i32 0, i32 1
  %count = load i64, ptr %6, align 8, !noundef !4
  %end = getelementptr inbounds { %"alloc::sync::Arc<str>", %"core::option::Option<alloc::sync::Arc<str>>" }, ptr %self1, i64 %count
  call void @llvm.memcpy.p0.p0.i64(ptr align 8 %src, ptr align 8 %value, i64 32, i1 false)
  call void @llvm.memcpy.p0.p0.i64(ptr align 8 %end, ptr align 8 %src, i64 32, i1 false)
  %7 = getelementptr inbounds %"alloc::vec::Vec<(alloc::sync::Arc<str>, core::option::Option<alloc::sync::Arc<str>>)>", ptr %self, i32 0, i32 1
  %8 = getelementptr inbounds %"alloc::vec::Vec<(alloc::sync::Arc<str>, core::option::Option<alloc::sync::Arc<str>>)>", ptr %self, i32 0, i32 1
  %9 = load i64, ptr %8, align 8, !noundef !4
  %10 = add i64 %9, 1
  store i64 %10, ptr %7, align 8
  ret void

bb6:                                              ; preds = %cleanup
; invoke core::ptr::drop_in_place<(alloc::sync::Arc<str>,core::option::Option<alloc::sync::Arc<str>>)>
  invoke void @"_ZN4core3ptr114drop_in_place$LT$$LP$alloc..sync..Arc$LT$str$GT$$C$core..option..Option$LT$alloc..sync..Arc$LT$str$GT$$GT$$RP$$GT$17hbdfe330686ac55caE"(ptr align 8 %value) #13
          to label %bb5 unwind label %terminate

cleanup:                                          ; preds = %bb1
  %11 = landingpad { ptr, i32 }
          cleanup
  %12 = extractvalue { ptr, i32 } %11, 0
  %13 = extractvalue { ptr, i32 } %11, 1
  store ptr %12, ptr %0, align 8
  %14 = getelementptr inbounds i8, ptr %0, i64 8
  store i32 %13, ptr %14, align 8
  br label %bb6

bb2:                                              ; preds = %bb1
  br label %bb4

terminate:                                        ; preds = %bb6
  %15 = landingpad { ptr, i32 }
          filter [0 x ptr] zeroinitializer
  %16 = extractvalue { ptr, i32 } %15, 0
  %17 = extractvalue { ptr, i32 } %15, 1
; call core::panicking::panic_in_cleanup
  call void @_ZN4core9panicking16panic_in_cleanup17h803841cec7522372E() #14
  unreachable

bb5:                                              ; preds = %bb6
  %18 = load ptr, ptr %0, align 8, !noundef !4
  %19 = getelementptr inbounds i8, ptr %0, i64 8
  %20 = load i32, ptr %19, align 8, !noundef !4
  %21 = insertvalue { ptr, i32 } poison, ptr %18, 0
  %22 = insertvalue { ptr, i32 } %21, i32 %20, 1
  resume { ptr, i32 } %22
}

; alloc::vec::Vec<T,A>::push
; Function Attrs: inlinehint nonlazybind uwtable
define internal void @"_ZN5alloc3vec16Vec$LT$T$C$A$GT$4push17h39a8ea5deea03d04E"(ptr align 8 %self, ptr %0, i64 %1) unnamed_addr #0 personality ptr @rust_eh_personality {
start:
  %2 = alloca { ptr, i32, [1 x i32] }, align 8
  %_5 = alloca i64, align 8
  %value = alloca %"alloc::sync::Arc<std::path::Path>", align 8
  store ptr %0, ptr %value, align 8
  %3 = getelementptr inbounds i8, ptr %value, i64 8
  store i64 %1, ptr %3, align 8
  %4 = getelementptr inbounds %"alloc::vec::Vec<alloc::sync::Arc<std::path::Path>>", ptr %self, i32 0, i32 1
  %_4 = load i64, ptr %4, align 8, !noundef !4
  br i1 false, label %bb7, label %bb8

bb8:                                              ; preds = %start
  %5 = load i64, ptr %self, align 8, !noundef !4
  store i64 %5, ptr %_5, align 8
  br label %bb9

bb7:                                              ; preds = %start
  store i64 -1, ptr %_5, align 8
  br label %bb9

bb9:                                              ; preds = %bb7, %bb8
  %6 = load i64, ptr %_5, align 8, !noundef !4
  %_3 = icmp eq i64 %_4, %6
  br i1 %_3, label %bb1, label %bb3

bb3:                                              ; preds = %bb9
  br label %bb4

bb1:                                              ; preds = %bb9
  %7 = getelementptr inbounds %"alloc::vec::Vec<alloc::sync::Arc<std::path::Path>>", ptr %self, i32 0, i32 1
  %_9 = load i64, ptr %7, align 8, !noundef !4
; invoke alloc::raw_vec::RawVec<T,A>::reserve_for_push
  invoke void @"_ZN5alloc7raw_vec19RawVec$LT$T$C$A$GT$16reserve_for_push17ha0bc7a26700a293bE"(ptr align 8 %self, i64 %_9)
          to label %bb2 unwind label %cleanup

bb4:                                              ; preds = %bb2, %bb3
  %8 = getelementptr inbounds i8, ptr %self, i64 8
  %self1 = load ptr, ptr %8, align 8, !nonnull !4, !noundef !4
  %9 = getelementptr inbounds %"alloc::vec::Vec<alloc::sync::Arc<std::path::Path>>", ptr %self, i32 0, i32 1
  %count = load i64, ptr %9, align 8, !noundef !4
  %end = getelementptr inbounds %"alloc::sync::Arc<std::path::Path>", ptr %self1, i64 %count
  %src.0 = load ptr, ptr %value, align 8, !nonnull !4, !noundef !4
  %10 = getelementptr inbounds i8, ptr %value, i64 8
  %src.1 = load i64, ptr %10, align 8, !noundef !4
  store ptr %src.0, ptr %end, align 8
  %11 = getelementptr inbounds i8, ptr %end, i64 8
  store i64 %src.1, ptr %11, align 8
  %12 = getelementptr inbounds %"alloc::vec::Vec<alloc::sync::Arc<std::path::Path>>", ptr %self, i32 0, i32 1
  %13 = getelementptr inbounds %"alloc::vec::Vec<alloc::sync::Arc<std::path::Path>>", ptr %self, i32 0, i32 1
  %14 = load i64, ptr %13, align 8, !noundef !4
  %15 = add i64 %14, 1
  store i64 %15, ptr %12, align 8
  ret void

bb6:                                              ; preds = %cleanup
; invoke core::ptr::drop_in_place<alloc::sync::Arc<std::path::Path>>
  invoke void @"_ZN4core3ptr60drop_in_place$LT$alloc..sync..Arc$LT$std..path..Path$GT$$GT$17h84aa1ac1c210877cE"(ptr align 8 %value) #13
          to label %bb5 unwind label %terminate

cleanup:                                          ; preds = %bb1
  %16 = landingpad { ptr, i32 }
          cleanup
  %17 = extractvalue { ptr, i32 } %16, 0
  %18 = extractvalue { ptr, i32 } %16, 1
  store ptr %17, ptr %2, align 8
  %19 = getelementptr inbounds i8, ptr %2, i64 8
  store i32 %18, ptr %19, align 8
  br label %bb6

bb2:                                              ; preds = %bb1
  br label %bb4

terminate:                                        ; preds = %bb6
  %20 = landingpad { ptr, i32 }
          filter [0 x ptr] zeroinitializer
  %21 = extractvalue { ptr, i32 } %20, 0
  %22 = extractvalue { ptr, i32 } %20, 1
; call core::panicking::panic_in_cleanup
  call void @_ZN4core9panicking16panic_in_cleanup17h803841cec7522372E() #14
  unreachable

bb5:                                              ; preds = %bb6
  %23 = load ptr, ptr %2, align 8, !noundef !4
  %24 = getelementptr inbounds i8, ptr %2, i64 8
  %25 = load i32, ptr %24, align 8, !noundef !4
  %26 = insertvalue { ptr, i32 } poison, ptr %23, 0
  %27 = insertvalue { ptr, i32 } %26, i32 %25, 1
  resume { ptr, i32 } %27
}

; alloc::string::String::push
; Function Attrs: inlinehint nonlazybind uwtable
define internal void @_ZN5alloc6string6String4push17h3352040270b912d0E(ptr align 8 %self, i32 %ch) unnamed_addr #0 {
start:
  %_11 = alloca [4 x i8], align 1
  %_3 = alloca i64, align 8
  %_13 = icmp ult i32 %ch, 128
  br i1 %_13, label %bb6, label %bb7

bb7:                                              ; preds = %start
  %_14 = icmp ult i32 %ch, 2048
  br i1 %_14, label %bb8, label %bb9

bb6:                                              ; preds = %start
  store i64 1, ptr %_3, align 8
  br label %bb14

bb9:                                              ; preds = %bb7
  %_15 = icmp ult i32 %ch, 65536
  br i1 %_15, label %bb10, label %bb11

bb8:                                              ; preds = %bb7
  store i64 2, ptr %_3, align 8
  br label %bb13

bb11:                                             ; preds = %bb9
  store i64 4, ptr %_3, align 8
  br label %bb12

bb10:                                             ; preds = %bb9
  store i64 3, ptr %_3, align 8
  br label %bb12

bb12:                                             ; preds = %bb10, %bb11
  br label %bb13

bb13:                                             ; preds = %bb8, %bb12
  br label %bb14

bb14:                                             ; preds = %bb6, %bb13
  %0 = load i64, ptr %_3, align 8, !noundef !4
  %1 = icmp eq i64 %0, 1
  br i1 %1, label %bb2, label %bb1

bb2:                                              ; preds = %bb14
  %_5 = trunc i32 %ch to i8
; call alloc::vec::Vec<T,A>::push
  call void @"_ZN5alloc3vec16Vec$LT$T$C$A$GT$4push17h0fab4a587d1a0e24E"(ptr align 8 %self, i8 %_5)
  br label %bb5

bb1:                                              ; preds = %bb14
  %2 = getelementptr inbounds [4 x i8], ptr %_11, i64 0, i64 0
  call void @llvm.memset.p0.i64(ptr align 1 %2, i8 0, i64 4, i1 false)
; call core::char::methods::encode_utf8_raw
  %3 = call { ptr, i64 } @_ZN4core4char7methods15encode_utf8_raw17he56a1df55cc6c359E(i32 %ch, ptr align 1 %_11, i64 4)
  %v.0 = extractvalue { ptr, i64 } %3, 0
  %v.1 = extractvalue { ptr, i64 } %3, 1
; call alloc::vec::Vec<T,A>::extend_from_slice
  call void @"_ZN5alloc3vec16Vec$LT$T$C$A$GT$17extend_from_slice17h102f896cdc9c3e1dE"(ptr align 8 %self, ptr align 1 %v.0, i64 %v.1)
  br label %bb5

bb5:                                              ; preds = %bb1, %bb2
  ret void
}

; alloc::raw_vec::handle_reserve
; Function Attrs: inlinehint nonlazybind uwtable
define internal void @_ZN5alloc7raw_vec14handle_reserve17hed40e84fa21ffc29E(i64 %result.0, i64 %result.1) unnamed_addr #0 {
start:
  %_2 = alloca %"core::result::Result<(), alloc::collections::TryReserveErrorKind>", align 8
; call core::result::Result<T,E>::map_err
  %0 = call { i64, i64 } @"_ZN4core6result19Result$LT$T$C$E$GT$7map_err17h658c16fcda7cc85dE"(i64 %result.0, i64 %result.1)
  %1 = extractvalue { i64, i64 } %0, 0
  %2 = extractvalue { i64, i64 } %0, 1
  store i64 %1, ptr %_2, align 8
  %3 = getelementptr inbounds i8, ptr %_2, i64 8
  store i64 %2, ptr %3, align 8
  %4 = load i64, ptr %_2, align 8, !range !14, !noundef !4
  %5 = icmp eq i64 %4, -9223372036854775807
  %_4 = select i1 %5, i64 0, i64 1
  %6 = icmp eq i64 %_4, 0
  br i1 %6, label %bb2, label %bb3

bb2:                                              ; preds = %start
  ret void

bb3:                                              ; preds = %start
  %7 = load i64, ptr %_2, align 8, !range !12, !noundef !4
  %8 = icmp eq i64 %7, 0
  %_3 = select i1 %8, i64 0, i64 1
  %9 = icmp eq i64 %_3, 0
  br i1 %9, label %bb4, label %bb5

bb4:                                              ; preds = %bb3
; call alloc::raw_vec::capacity_overflow
  call void @_ZN5alloc7raw_vec17capacity_overflow17hdebe4d61eabe5c80E() #15
  unreachable

bb5:                                              ; preds = %bb3
  %layout.0 = load i64, ptr %_2, align 8, !range !11, !noundef !4
  %10 = getelementptr inbounds i8, ptr %_2, i64 8
  %layout.1 = load i64, ptr %10, align 8, !noundef !4
; call alloc::alloc::handle_alloc_error
  call void @_ZN5alloc5alloc18handle_alloc_error17h48039cdfd0d60c1cE(i64 %layout.0, i64 %layout.1) #15
  unreachable

bb6:                                              ; No predecessors!
  unreachable
}

; alloc::raw_vec::RawVec<T,A>::grow_amortized
; Function Attrs: nonlazybind uwtable
define internal { i64, i64 } @"_ZN5alloc7raw_vec19RawVec$LT$T$C$A$GT$14grow_amortized17h1ebd3155be7b85ffE"(ptr align 8 %self, i64 %len, i64 %additional) unnamed_addr #1 {
start:
  %0 = alloca i8, align 1
  %_59 = alloca ptr, align 8
  %_52 = alloca i64, align 8
  %self5 = alloca ptr, align 8
  %_49 = alloca ptr, align 8
  %_48 = alloca %"core::result::Result<core::convert::Infallible, alloc::collections::TryReserveError>::Err", align 8
  %_38 = alloca %"alloc::collections::TryReserveError", align 8
  %_36 = alloca %"core::result::Result<core::convert::Infallible, alloc::collections::TryReserveErrorKind>::Err", align 8
  %residual4 = alloca %"core::result::Result<core::convert::Infallible, alloc::collections::TryReserveError>::Err", align 8
  %_18 = alloca %"core::option::Option<(core::ptr::non_null::NonNull<u8>, core::alloc::layout::Layout)>", align 8
  %self3 = alloca %"core::result::Result<core::ptr::non_null::NonNull<[u8]>, alloc::collections::TryReserveError>", align 8
  %_16 = alloca %"core::ops::control_flow::ControlFlow<core::result::Result<core::convert::Infallible, alloc::collections::TryReserveError>, core::ptr::non_null::NonNull<[u8]>>", align 8
  %residual = alloca %"core::result::Result<core::convert::Infallible, alloc::collections::TryReserveErrorKind>::Err", align 8
  %self2 = alloca %"core::option::Option<usize>", align 8
  %self1 = alloca %"core::result::Result<usize, alloc::collections::TryReserveErrorKind>", align 8
  %_5 = alloca %"core::ops::control_flow::ControlFlow<core::result::Result<core::convert::Infallible, alloc::collections::TryReserveErrorKind>, usize>", align 8
  %_0 = alloca %"core::result::Result<(), alloc::collections::TryReserveError>", align 8
  br i1 false, label %bb1, label %bb2

bb2:                                              ; preds = %start
  %1 = call { i64, i1 } @llvm.uadd.with.overflow.i64(i64 %len, i64 %additional)
  %_27.0 = extractvalue { i64, i1 } %1, 0
  %_27.1 = extractvalue { i64, i1 } %1, 1
  %2 = call i1 @llvm.expect.i1(i1 %_27.1, i1 false)
  %3 = zext i1 %2 to i8
  store i8 %3, ptr %0, align 1
  %4 = load i8, ptr %0, align 1, !range !5, !noundef !4
  %_24 = trunc i8 %4 to i1
  br i1 %_24, label %bb12, label %bb13

bb1:                                              ; preds = %start
  %5 = load i64, ptr @0, align 8, !range !14, !noundef !4
  %6 = load i64, ptr getelementptr inbounds (i8, ptr @0, i64 8), align 8
  store i64 %5, ptr %_0, align 8
  %7 = getelementptr inbounds i8, ptr %_0, i64 8
  store i64 %6, ptr %7, align 8
  br label %bb10

bb13:                                             ; preds = %bb2
  %8 = getelementptr inbounds i8, ptr %self2, i64 8
  store i64 %_27.0, ptr %8, align 8
  store i64 1, ptr %self2, align 8
  br label %bb14

bb12:                                             ; preds = %bb2
  %9 = load i64, ptr @0, align 8, !range !8, !noundef !4
  %10 = load i64, ptr getelementptr inbounds (i8, ptr @0, i64 8), align 8
  store i64 %9, ptr %self2, align 8
  %11 = getelementptr inbounds i8, ptr %self2, i64 8
  store i64 %10, ptr %11, align 8
  br label %bb14

bb14:                                             ; preds = %bb12, %bb13
  %_31 = load i64, ptr %self2, align 8, !range !8, !noundef !4
  %12 = icmp eq i64 %_31, 0
  br i1 %12, label %bb15, label %bb16

bb15:                                             ; preds = %bb14
  %13 = load i64, ptr @0, align 8, !range !12, !noundef !4
  %14 = load i64, ptr getelementptr inbounds (i8, ptr @0, i64 8), align 8
  store i64 %13, ptr %self1, align 8
  %15 = getelementptr inbounds i8, ptr %self1, i64 8
  store i64 %14, ptr %15, align 8
  br label %bb17

bb16:                                             ; preds = %bb14
  %16 = getelementptr inbounds i8, ptr %self2, i64 8
  %v = load i64, ptr %16, align 8, !noundef !4
  %17 = getelementptr inbounds %"core::result::Result<usize, alloc::collections::TryReserveErrorKind>::Ok", ptr %self1, i32 0, i32 1
  store i64 %v, ptr %17, align 8
  store i64 -9223372036854775807, ptr %self1, align 8
  br label %bb17

bb17:                                             ; preds = %bb16, %bb15
  %18 = load i64, ptr %self1, align 8, !range !14, !noundef !4
  %19 = icmp eq i64 %18, -9223372036854775807
  %_33 = select i1 %19, i64 0, i64 1
  %20 = icmp eq i64 %_33, 0
  br i1 %20, label %bb20, label %bb19

bb20:                                             ; preds = %bb17
  %21 = getelementptr inbounds %"core::result::Result<usize, alloc::collections::TryReserveErrorKind>::Ok", ptr %self1, i32 0, i32 1
  %v6 = load i64, ptr %21, align 8, !noundef !4
  %22 = getelementptr inbounds %"core::ops::control_flow::ControlFlow<core::result::Result<core::convert::Infallible, alloc::collections::TryReserveErrorKind>, usize>::Continue", ptr %_5, i32 0, i32 1
  store i64 %v6, ptr %22, align 8
  store i64 -9223372036854775807, ptr %_5, align 8
  br label %bb18

bb19:                                             ; preds = %bb17
  %e.0 = load i64, ptr %self1, align 8, !range !12, !noundef !4
  %23 = getelementptr inbounds i8, ptr %self1, i64 8
  %e.1 = load i64, ptr %23, align 8
  store i64 %e.0, ptr %_36, align 8
  %24 = getelementptr inbounds i8, ptr %_36, i64 8
  store i64 %e.1, ptr %24, align 8
  %25 = load i64, ptr %_36, align 8, !range !12, !noundef !4
  %26 = getelementptr inbounds i8, ptr %_36, i64 8
  %27 = load i64, ptr %26, align 8
  store i64 %25, ptr %_5, align 8
  %28 = getelementptr inbounds i8, ptr %_5, i64 8
  store i64 %27, ptr %28, align 8
  br label %bb18

bb18:                                             ; preds = %bb19, %bb20
  %29 = load i64, ptr %_5, align 8, !range !14, !noundef !4
  %30 = icmp eq i64 %29, -9223372036854775807
  %_8 = select i1 %30, i64 0, i64 1
  %31 = icmp eq i64 %_8, 0
  br i1 %31, label %bb3, label %bb4

bb3:                                              ; preds = %bb18
  %32 = getelementptr inbounds %"core::ops::control_flow::ControlFlow<core::result::Result<core::convert::Infallible, alloc::collections::TryReserveErrorKind>, usize>::Continue", ptr %_5, i32 0, i32 1
  %required_cap = load i64, ptr %32, align 8, !noundef !4
  %_13 = load i64, ptr %self, align 8, !noundef !4
  %v1 = mul i64 %_13, 2
; call core::cmp::max_by
  %cap = call i64 @_ZN4core3cmp6max_by17h6698c56507d4b445E(i64 %v1, i64 %required_cap)
; call core::cmp::max_by
  %cap7 = call i64 @_ZN4core3cmp6max_by17h6698c56507d4b445E(i64 4, i64 %cap)
; call core::alloc::layout::Layout::array::inner
  %33 = call { i64, i64 } @_ZN4core5alloc6layout6Layout5array5inner17hc7514bcd921d075bE(i64 16, i64 8, i64 %cap7)
  %new_layout.0 = extractvalue { i64, i64 } %33, 0
  %new_layout.1 = extractvalue { i64, i64 } %33, 1
; call alloc::raw_vec::RawVec<T,A>::current_memory
  call void @"_ZN5alloc7raw_vec19RawVec$LT$T$C$A$GT$14current_memory17hadbee0a3bf518536E"(ptr sret(%"core::option::Option<(core::ptr::non_null::NonNull<u8>, core::alloc::layout::Layout)>") align 8 %_18, ptr align 8 %self)
  %_20 = getelementptr inbounds i8, ptr %self, i64 16
; call alloc::raw_vec::finish_grow
  call void @_ZN5alloc7raw_vec11finish_grow17habb2cfab89ff935aE(ptr sret(%"core::result::Result<core::ptr::non_null::NonNull<[u8]>, alloc::collections::TryReserveError>") align 8 %self3, i64 %new_layout.0, i64 %new_layout.1, ptr align 8 %_18, ptr align 1 %_20)
  %_45 = load i64, ptr %self3, align 8, !range !8, !noundef !4
  %34 = icmp eq i64 %_45, 0
  br i1 %34, label %bb26, label %bb25

bb4:                                              ; preds = %bb18
  %35 = load i64, ptr %_5, align 8, !range !12, !noundef !4
  %36 = getelementptr inbounds i8, ptr %_5, i64 8
  %37 = load i64, ptr %36, align 8
  store i64 %35, ptr %residual, align 8
  %38 = getelementptr inbounds i8, ptr %residual, i64 8
  store i64 %37, ptr %38, align 8
  %e.012 = load i64, ptr %residual, align 8, !range !12, !noundef !4
  %39 = getelementptr inbounds i8, ptr %residual, i64 8
  %e.113 = load i64, ptr %39, align 8
  store i64 %e.012, ptr %_38, align 8
  %40 = getelementptr inbounds i8, ptr %_38, i64 8
  store i64 %e.113, ptr %40, align 8
  %41 = load i64, ptr %_38, align 8, !range !12, !noundef !4
  %42 = getelementptr inbounds i8, ptr %_38, i64 8
  %43 = load i64, ptr %42, align 8
  store i64 %41, ptr %_0, align 8
  %44 = getelementptr inbounds i8, ptr %_0, i64 8
  store i64 %43, ptr %44, align 8
  br label %bb9

bb26:                                             ; preds = %bb3
  %45 = getelementptr inbounds %"core::result::Result<core::ptr::non_null::NonNull<[u8]>, alloc::collections::TryReserveError>::Ok", ptr %self3, i32 0, i32 1
  %v.0 = load ptr, ptr %45, align 8, !nonnull !4, !noundef !4
  %46 = getelementptr inbounds i8, ptr %45, i64 8
  %v.1 = load i64, ptr %46, align 8, !noundef !4
  %47 = getelementptr inbounds %"core::ops::control_flow::ControlFlow<core::result::Result<core::convert::Infallible, alloc::collections::TryReserveError>, core::ptr::non_null::NonNull<[u8]>>::Continue", ptr %_16, i32 0, i32 1
  store ptr %v.0, ptr %47, align 8
  %48 = getelementptr inbounds i8, ptr %47, i64 8
  store i64 %v.1, ptr %48, align 8
  store i64 0, ptr %_16, align 8
  br label %bb24

bb25:                                             ; preds = %bb3
  %49 = getelementptr inbounds %"core::result::Result<core::ptr::non_null::NonNull<[u8]>, alloc::collections::TryReserveError>::Err", ptr %self3, i32 0, i32 1
  %e.08 = load i64, ptr %49, align 8, !range !12, !noundef !4
  %50 = getelementptr inbounds i8, ptr %49, i64 8
  %e.19 = load i64, ptr %50, align 8
  store i64 %e.08, ptr %_48, align 8
  %51 = getelementptr inbounds i8, ptr %_48, i64 8
  store i64 %e.19, ptr %51, align 8
  %52 = load i64, ptr %_48, align 8, !range !12, !noundef !4
  %53 = getelementptr inbounds i8, ptr %_48, i64 8
  %54 = load i64, ptr %53, align 8
  %55 = getelementptr inbounds %"core::ops::control_flow::ControlFlow<core::result::Result<core::convert::Infallible, alloc::collections::TryReserveError>, core::ptr::non_null::NonNull<[u8]>>::Break", ptr %_16, i32 0, i32 1
  store i64 %52, ptr %55, align 8
  %56 = getelementptr inbounds i8, ptr %55, i64 8
  store i64 %54, ptr %56, align 8
  store i64 1, ptr %_16, align 8
  br label %bb24

bb24:                                             ; preds = %bb25, %bb26
  %_21 = load i64, ptr %_16, align 8, !range !8, !noundef !4
  %57 = icmp eq i64 %_21, 0
  br i1 %57, label %bb7, label %bb8

bb7:                                              ; preds = %bb24
  %58 = getelementptr inbounds %"core::ops::control_flow::ControlFlow<core::result::Result<core::convert::Infallible, alloc::collections::TryReserveError>, core::ptr::non_null::NonNull<[u8]>>::Continue", ptr %_16, i32 0, i32 1
  %ptr.0 = load ptr, ptr %58, align 8, !nonnull !4, !noundef !4
  %59 = getelementptr inbounds i8, ptr %58, i64 8
  %ptr.1 = load i64, ptr %59, align 8, !noundef !4
  store ptr %ptr.0, ptr %self5, align 8
  store ptr %ptr.0, ptr %_59, align 8
  %60 = load ptr, ptr %_59, align 8, !nonnull !4, !noundef !4
  store ptr %60, ptr %_49, align 8
  %61 = getelementptr inbounds i8, ptr %self, i64 8
  %62 = load ptr, ptr %_49, align 8, !nonnull !4, !noundef !4
  store ptr %62, ptr %61, align 8
  store i64 %cap7, ptr %_52, align 8
  %63 = load i64, ptr %_52, align 8, !range !15, !noundef !4
  store i64 %63, ptr %self, align 8
  %64 = load i64, ptr @1, align 8, !range !14, !noundef !4
  %65 = load i64, ptr getelementptr inbounds (i8, ptr @1, i64 8), align 8
  store i64 %64, ptr %_0, align 8
  %66 = getelementptr inbounds i8, ptr %_0, i64 8
  store i64 %65, ptr %66, align 8
  br label %bb10

bb8:                                              ; preds = %bb24
  %67 = getelementptr inbounds %"core::ops::control_flow::ControlFlow<core::result::Result<core::convert::Infallible, alloc::collections::TryReserveError>, core::ptr::non_null::NonNull<[u8]>>::Break", ptr %_16, i32 0, i32 1
  %68 = load i64, ptr %67, align 8, !range !12, !noundef !4
  %69 = getelementptr inbounds i8, ptr %67, i64 8
  %70 = load i64, ptr %69, align 8
  store i64 %68, ptr %residual4, align 8
  %71 = getelementptr inbounds i8, ptr %residual4, i64 8
  store i64 %70, ptr %71, align 8
  %e.010 = load i64, ptr %residual4, align 8, !range !12, !noundef !4
  %72 = getelementptr inbounds i8, ptr %residual4, i64 8
  %e.111 = load i64, ptr %72, align 8
  store i64 %e.010, ptr %_0, align 8
  %73 = getelementptr inbounds i8, ptr %_0, i64 8
  store i64 %e.111, ptr %73, align 8
  br label %bb9

bb10:                                             ; preds = %bb1, %bb9, %bb7
  %74 = load i64, ptr %_0, align 8, !range !14, !noundef !4
  %75 = getelementptr inbounds i8, ptr %_0, i64 8
  %76 = load i64, ptr %75, align 8
  %77 = insertvalue { i64, i64 } poison, i64 %74, 0
  %78 = insertvalue { i64, i64 } %77, i64 %76, 1
  ret { i64, i64 } %78

bb9:                                              ; preds = %bb4, %bb8
  br label %bb10

bb27:                                             ; No predecessors!
  unreachable
}

; alloc::raw_vec::RawVec<T,A>::grow_amortized
; Function Attrs: nonlazybind uwtable
define internal { i64, i64 } @"_ZN5alloc7raw_vec19RawVec$LT$T$C$A$GT$14grow_amortized17hdb00fcfa9ff07fb9E"(ptr align 8 %self, i64 %len, i64 %additional) unnamed_addr #1 {
start:
  %0 = alloca i8, align 1
  %_59 = alloca ptr, align 8
  %_52 = alloca i64, align 8
  %self5 = alloca ptr, align 8
  %_49 = alloca ptr, align 8
  %_48 = alloca %"core::result::Result<core::convert::Infallible, alloc::collections::TryReserveError>::Err", align 8
  %_38 = alloca %"alloc::collections::TryReserveError", align 8
  %_36 = alloca %"core::result::Result<core::convert::Infallible, alloc::collections::TryReserveErrorKind>::Err", align 8
  %residual4 = alloca %"core::result::Result<core::convert::Infallible, alloc::collections::TryReserveError>::Err", align 8
  %_18 = alloca %"core::option::Option<(core::ptr::non_null::NonNull<u8>, core::alloc::layout::Layout)>", align 8
  %self3 = alloca %"core::result::Result<core::ptr::non_null::NonNull<[u8]>, alloc::collections::TryReserveError>", align 8
  %_16 = alloca %"core::ops::control_flow::ControlFlow<core::result::Result<core::convert::Infallible, alloc::collections::TryReserveError>, core::ptr::non_null::NonNull<[u8]>>", align 8
  %residual = alloca %"core::result::Result<core::convert::Infallible, alloc::collections::TryReserveErrorKind>::Err", align 8
  %self2 = alloca %"core::option::Option<usize>", align 8
  %self1 = alloca %"core::result::Result<usize, alloc::collections::TryReserveErrorKind>", align 8
  %_5 = alloca %"core::ops::control_flow::ControlFlow<core::result::Result<core::convert::Infallible, alloc::collections::TryReserveErrorKind>, usize>", align 8
  %_0 = alloca %"core::result::Result<(), alloc::collections::TryReserveError>", align 8
  br i1 false, label %bb1, label %bb2

bb2:                                              ; preds = %start
  %1 = call { i64, i1 } @llvm.uadd.with.overflow.i64(i64 %len, i64 %additional)
  %_27.0 = extractvalue { i64, i1 } %1, 0
  %_27.1 = extractvalue { i64, i1 } %1, 1
  %2 = call i1 @llvm.expect.i1(i1 %_27.1, i1 false)
  %3 = zext i1 %2 to i8
  store i8 %3, ptr %0, align 1
  %4 = load i8, ptr %0, align 1, !range !5, !noundef !4
  %_24 = trunc i8 %4 to i1
  br i1 %_24, label %bb12, label %bb13

bb1:                                              ; preds = %start
  %5 = load i64, ptr @0, align 8, !range !14, !noundef !4
  %6 = load i64, ptr getelementptr inbounds (i8, ptr @0, i64 8), align 8
  store i64 %5, ptr %_0, align 8
  %7 = getelementptr inbounds i8, ptr %_0, i64 8
  store i64 %6, ptr %7, align 8
  br label %bb10

bb13:                                             ; preds = %bb2
  %8 = getelementptr inbounds i8, ptr %self2, i64 8
  store i64 %_27.0, ptr %8, align 8
  store i64 1, ptr %self2, align 8
  br label %bb14

bb12:                                             ; preds = %bb2
  %9 = load i64, ptr @0, align 8, !range !8, !noundef !4
  %10 = load i64, ptr getelementptr inbounds (i8, ptr @0, i64 8), align 8
  store i64 %9, ptr %self2, align 8
  %11 = getelementptr inbounds i8, ptr %self2, i64 8
  store i64 %10, ptr %11, align 8
  br label %bb14

bb14:                                             ; preds = %bb12, %bb13
  %_31 = load i64, ptr %self2, align 8, !range !8, !noundef !4
  %12 = icmp eq i64 %_31, 0
  br i1 %12, label %bb15, label %bb16

bb15:                                             ; preds = %bb14
  %13 = load i64, ptr @0, align 8, !range !12, !noundef !4
  %14 = load i64, ptr getelementptr inbounds (i8, ptr @0, i64 8), align 8
  store i64 %13, ptr %self1, align 8
  %15 = getelementptr inbounds i8, ptr %self1, i64 8
  store i64 %14, ptr %15, align 8
  br label %bb17

bb16:                                             ; preds = %bb14
  %16 = getelementptr inbounds i8, ptr %self2, i64 8
  %v = load i64, ptr %16, align 8, !noundef !4
  %17 = getelementptr inbounds %"core::result::Result<usize, alloc::collections::TryReserveErrorKind>::Ok", ptr %self1, i32 0, i32 1
  store i64 %v, ptr %17, align 8
  store i64 -9223372036854775807, ptr %self1, align 8
  br label %bb17

bb17:                                             ; preds = %bb16, %bb15
  %18 = load i64, ptr %self1, align 8, !range !14, !noundef !4
  %19 = icmp eq i64 %18, -9223372036854775807
  %_33 = select i1 %19, i64 0, i64 1
  %20 = icmp eq i64 %_33, 0
  br i1 %20, label %bb20, label %bb19

bb20:                                             ; preds = %bb17
  %21 = getelementptr inbounds %"core::result::Result<usize, alloc::collections::TryReserveErrorKind>::Ok", ptr %self1, i32 0, i32 1
  %v6 = load i64, ptr %21, align 8, !noundef !4
  %22 = getelementptr inbounds %"core::ops::control_flow::ControlFlow<core::result::Result<core::convert::Infallible, alloc::collections::TryReserveErrorKind>, usize>::Continue", ptr %_5, i32 0, i32 1
  store i64 %v6, ptr %22, align 8
  store i64 -9223372036854775807, ptr %_5, align 8
  br label %bb18

bb19:                                             ; preds = %bb17
  %e.0 = load i64, ptr %self1, align 8, !range !12, !noundef !4
  %23 = getelementptr inbounds i8, ptr %self1, i64 8
  %e.1 = load i64, ptr %23, align 8
  store i64 %e.0, ptr %_36, align 8
  %24 = getelementptr inbounds i8, ptr %_36, i64 8
  store i64 %e.1, ptr %24, align 8
  %25 = load i64, ptr %_36, align 8, !range !12, !noundef !4
  %26 = getelementptr inbounds i8, ptr %_36, i64 8
  %27 = load i64, ptr %26, align 8
  store i64 %25, ptr %_5, align 8
  %28 = getelementptr inbounds i8, ptr %_5, i64 8
  store i64 %27, ptr %28, align 8
  br label %bb18

bb18:                                             ; preds = %bb19, %bb20
  %29 = load i64, ptr %_5, align 8, !range !14, !noundef !4
  %30 = icmp eq i64 %29, -9223372036854775807
  %_8 = select i1 %30, i64 0, i64 1
  %31 = icmp eq i64 %_8, 0
  br i1 %31, label %bb3, label %bb4

bb3:                                              ; preds = %bb18
  %32 = getelementptr inbounds %"core::ops::control_flow::ControlFlow<core::result::Result<core::convert::Infallible, alloc::collections::TryReserveErrorKind>, usize>::Continue", ptr %_5, i32 0, i32 1
  %required_cap = load i64, ptr %32, align 8, !noundef !4
  %_13 = load i64, ptr %self, align 8, !noundef !4
  %v1 = mul i64 %_13, 2
; call core::cmp::max_by
  %cap = call i64 @_ZN4core3cmp6max_by17h6698c56507d4b445E(i64 %v1, i64 %required_cap)
; call core::cmp::max_by
  %cap7 = call i64 @_ZN4core3cmp6max_by17h6698c56507d4b445E(i64 4, i64 %cap)
; call core::alloc::layout::Layout::array::inner
  %33 = call { i64, i64 } @_ZN4core5alloc6layout6Layout5array5inner17hc7514bcd921d075bE(i64 32, i64 8, i64 %cap7)
  %new_layout.0 = extractvalue { i64, i64 } %33, 0
  %new_layout.1 = extractvalue { i64, i64 } %33, 1
; call alloc::raw_vec::RawVec<T,A>::current_memory
  call void @"_ZN5alloc7raw_vec19RawVec$LT$T$C$A$GT$14current_memory17h193383be265f6a31E"(ptr sret(%"core::option::Option<(core::ptr::non_null::NonNull<u8>, core::alloc::layout::Layout)>") align 8 %_18, ptr align 8 %self)
  %_20 = getelementptr inbounds i8, ptr %self, i64 16
; call alloc::raw_vec::finish_grow
  call void @_ZN5alloc7raw_vec11finish_grow17habb2cfab89ff935aE(ptr sret(%"core::result::Result<core::ptr::non_null::NonNull<[u8]>, alloc::collections::TryReserveError>") align 8 %self3, i64 %new_layout.0, i64 %new_layout.1, ptr align 8 %_18, ptr align 1 %_20)
  %_45 = load i64, ptr %self3, align 8, !range !8, !noundef !4
  %34 = icmp eq i64 %_45, 0
  br i1 %34, label %bb26, label %bb25

bb4:                                              ; preds = %bb18
  %35 = load i64, ptr %_5, align 8, !range !12, !noundef !4
  %36 = getelementptr inbounds i8, ptr %_5, i64 8
  %37 = load i64, ptr %36, align 8
  store i64 %35, ptr %residual, align 8
  %38 = getelementptr inbounds i8, ptr %residual, i64 8
  store i64 %37, ptr %38, align 8
  %e.012 = load i64, ptr %residual, align 8, !range !12, !noundef !4
  %39 = getelementptr inbounds i8, ptr %residual, i64 8
  %e.113 = load i64, ptr %39, align 8
  store i64 %e.012, ptr %_38, align 8
  %40 = getelementptr inbounds i8, ptr %_38, i64 8
  store i64 %e.113, ptr %40, align 8
  %41 = load i64, ptr %_38, align 8, !range !12, !noundef !4
  %42 = getelementptr inbounds i8, ptr %_38, i64 8
  %43 = load i64, ptr %42, align 8
  store i64 %41, ptr %_0, align 8
  %44 = getelementptr inbounds i8, ptr %_0, i64 8
  store i64 %43, ptr %44, align 8
  br label %bb9

bb26:                                             ; preds = %bb3
  %45 = getelementptr inbounds %"core::result::Result<core::ptr::non_null::NonNull<[u8]>, alloc::collections::TryReserveError>::Ok", ptr %self3, i32 0, i32 1
  %v.0 = load ptr, ptr %45, align 8, !nonnull !4, !noundef !4
  %46 = getelementptr inbounds i8, ptr %45, i64 8
  %v.1 = load i64, ptr %46, align 8, !noundef !4
  %47 = getelementptr inbounds %"core::ops::control_flow::ControlFlow<core::result::Result<core::convert::Infallible, alloc::collections::TryReserveError>, core::ptr::non_null::NonNull<[u8]>>::Continue", ptr %_16, i32 0, i32 1
  store ptr %v.0, ptr %47, align 8
  %48 = getelementptr inbounds i8, ptr %47, i64 8
  store i64 %v.1, ptr %48, align 8
  store i64 0, ptr %_16, align 8
  br label %bb24

bb25:                                             ; preds = %bb3
  %49 = getelementptr inbounds %"core::result::Result<core::ptr::non_null::NonNull<[u8]>, alloc::collections::TryReserveError>::Err", ptr %self3, i32 0, i32 1
  %e.08 = load i64, ptr %49, align 8, !range !12, !noundef !4
  %50 = getelementptr inbounds i8, ptr %49, i64 8
  %e.19 = load i64, ptr %50, align 8
  store i64 %e.08, ptr %_48, align 8
  %51 = getelementptr inbounds i8, ptr %_48, i64 8
  store i64 %e.19, ptr %51, align 8
  %52 = load i64, ptr %_48, align 8, !range !12, !noundef !4
  %53 = getelementptr inbounds i8, ptr %_48, i64 8
  %54 = load i64, ptr %53, align 8
  %55 = getelementptr inbounds %"core::ops::control_flow::ControlFlow<core::result::Result<core::convert::Infallible, alloc::collections::TryReserveError>, core::ptr::non_null::NonNull<[u8]>>::Break", ptr %_16, i32 0, i32 1
  store i64 %52, ptr %55, align 8
  %56 = getelementptr inbounds i8, ptr %55, i64 8
  store i64 %54, ptr %56, align 8
  store i64 1, ptr %_16, align 8
  br label %bb24

bb24:                                             ; preds = %bb25, %bb26
  %_21 = load i64, ptr %_16, align 8, !range !8, !noundef !4
  %57 = icmp eq i64 %_21, 0
  br i1 %57, label %bb7, label %bb8

bb7:                                              ; preds = %bb24
  %58 = getelementptr inbounds %"core::ops::control_flow::ControlFlow<core::result::Result<core::convert::Infallible, alloc::collections::TryReserveError>, core::ptr::non_null::NonNull<[u8]>>::Continue", ptr %_16, i32 0, i32 1
  %ptr.0 = load ptr, ptr %58, align 8, !nonnull !4, !noundef !4
  %59 = getelementptr inbounds i8, ptr %58, i64 8
  %ptr.1 = load i64, ptr %59, align 8, !noundef !4
  store ptr %ptr.0, ptr %self5, align 8
  store ptr %ptr.0, ptr %_59, align 8
  %60 = load ptr, ptr %_59, align 8, !nonnull !4, !noundef !4
  store ptr %60, ptr %_49, align 8
  %61 = getelementptr inbounds i8, ptr %self, i64 8
  %62 = load ptr, ptr %_49, align 8, !nonnull !4, !noundef !4
  store ptr %62, ptr %61, align 8
  store i64 %cap7, ptr %_52, align 8
  %63 = load i64, ptr %_52, align 8, !range !15, !noundef !4
  store i64 %63, ptr %self, align 8
  %64 = load i64, ptr @1, align 8, !range !14, !noundef !4
  %65 = load i64, ptr getelementptr inbounds (i8, ptr @1, i64 8), align 8
  store i64 %64, ptr %_0, align 8
  %66 = getelementptr inbounds i8, ptr %_0, i64 8
  store i64 %65, ptr %66, align 8
  br label %bb10

bb8:                                              ; preds = %bb24
  %67 = getelementptr inbounds %"core::ops::control_flow::ControlFlow<core::result::Result<core::convert::Infallible, alloc::collections::TryReserveError>, core::ptr::non_null::NonNull<[u8]>>::Break", ptr %_16, i32 0, i32 1
  %68 = load i64, ptr %67, align 8, !range !12, !noundef !4
  %69 = getelementptr inbounds i8, ptr %67, i64 8
  %70 = load i64, ptr %69, align 8
  store i64 %68, ptr %residual4, align 8
  %71 = getelementptr inbounds i8, ptr %residual4, i64 8
  store i64 %70, ptr %71, align 8
  %e.010 = load i64, ptr %residual4, align 8, !range !12, !noundef !4
  %72 = getelementptr inbounds i8, ptr %residual4, i64 8
  %e.111 = load i64, ptr %72, align 8
  store i64 %e.010, ptr %_0, align 8
  %73 = getelementptr inbounds i8, ptr %_0, i64 8
  store i64 %e.111, ptr %73, align 8
  br label %bb9

bb10:                                             ; preds = %bb1, %bb9, %bb7
  %74 = load i64, ptr %_0, align 8, !range !14, !noundef !4
  %75 = getelementptr inbounds i8, ptr %_0, i64 8
  %76 = load i64, ptr %75, align 8
  %77 = insertvalue { i64, i64 } poison, i64 %74, 0
  %78 = insertvalue { i64, i64 } %77, i64 %76, 1
  ret { i64, i64 } %78

bb9:                                              ; preds = %bb4, %bb8
  br label %bb10

bb27:                                             ; No predecessors!
  unreachable
}

; alloc::raw_vec::RawVec<T,A>::reserve_for_push
; Function Attrs: noinline nonlazybind uwtable
define internal void @"_ZN5alloc7raw_vec19RawVec$LT$T$C$A$GT$16reserve_for_push17ha0bc7a26700a293bE"(ptr align 8 %self, i64 %len) unnamed_addr #2 {
start:
; call alloc::raw_vec::RawVec<T,A>::grow_amortized
  %0 = call { i64, i64 } @"_ZN5alloc7raw_vec19RawVec$LT$T$C$A$GT$14grow_amortized17h1ebd3155be7b85ffE"(ptr align 8 %self, i64 %len, i64 1)
  %_4.0 = extractvalue { i64, i64 } %0, 0
  %_4.1 = extractvalue { i64, i64 } %0, 1
; call alloc::raw_vec::handle_reserve
  call void @_ZN5alloc7raw_vec14handle_reserve17hed40e84fa21ffc29E(i64 %_4.0, i64 %_4.1)
  ret void
}

; alloc::raw_vec::RawVec<T,A>::reserve_for_push
; Function Attrs: noinline nonlazybind uwtable
define internal void @"_ZN5alloc7raw_vec19RawVec$LT$T$C$A$GT$16reserve_for_push17hdfee026195e282dcE"(ptr align 8 %self, i64 %len) unnamed_addr #2 {
start:
; call alloc::raw_vec::RawVec<T,A>::grow_amortized
  %0 = call { i64, i64 } @"_ZN5alloc7raw_vec19RawVec$LT$T$C$A$GT$14grow_amortized17hdb00fcfa9ff07fb9E"(ptr align 8 %self, i64 %len, i64 1)
  %_4.0 = extractvalue { i64, i64 } %0, 0
  %_4.1 = extractvalue { i64, i64 } %0, 1
; call alloc::raw_vec::handle_reserve
  call void @_ZN5alloc7raw_vec14handle_reserve17hed40e84fa21ffc29E(i64 %_4.0, i64 %_4.1)
  ret void
}

; <alloc::string::String as core::fmt::Display>::fmt
; Function Attrs: inlinehint nonlazybind uwtable
define internal zeroext i1 @"_ZN60_$LT$alloc..string..String$u20$as$u20$core..fmt..Display$GT$3fmt17hea7f273186cc0f62E"(ptr align 8 %self, ptr align 8 %f) unnamed_addr #0 {
start:
  %_15 = alloca %"core::ptr::metadata::PtrComponents<[u8]>", align 8
  %_14 = alloca %"core::ptr::metadata::PtrRepr<[u8]>", align 8
  %0 = getelementptr inbounds i8, ptr %self, i64 8
  %self1 = load ptr, ptr %0, align 8, !nonnull !4, !noundef !4
  %1 = getelementptr inbounds %"alloc::vec::Vec<u8>", ptr %self, i32 0, i32 1
  %len = load i64, ptr %1, align 8, !noundef !4
  store ptr %self1, ptr %_15, align 8
  %2 = getelementptr inbounds i8, ptr %_15, i64 8
  store i64 %len, ptr %2, align 8
  %3 = load ptr, ptr %_15, align 8, !noundef !4
  %4 = getelementptr inbounds i8, ptr %_15, i64 8
  %5 = load i64, ptr %4, align 8, !noundef !4
  store ptr %3, ptr %_14, align 8
  %6 = getelementptr inbounds i8, ptr %_14, i64 8
  store i64 %5, ptr %6, align 8
  %v.0 = load ptr, ptr %_14, align 8, !noundef !4
  %7 = getelementptr inbounds i8, ptr %_14, i64 8
  %v.1 = load i64, ptr %7, align 8, !noundef !4
; call <str as core::fmt::Display>::fmt
  %_0 = call zeroext i1 @"_ZN42_$LT$str$u20$as$u20$core..fmt..Display$GT$3fmt17h86309c7b5dd516e7E"(ptr align 1 %v.0, i64 %v.1, ptr align 8 %f)
  ret i1 %_0
}

; <std::path::PathBuf as core::ops::deref::Deref>::deref
; Function Attrs: inlinehint nonlazybind uwtable
define internal { ptr, i64 } @"_ZN62_$LT$std..path..PathBuf$u20$as$u20$core..ops..deref..Deref$GT$5deref17hae8813d42cc1c253E"(ptr align 8 %self) unnamed_addr #0 {
start:
  %_18 = alloca %"core::ptr::metadata::PtrComponents<[u8]>", align 8
  %_17 = alloca %"core::ptr::metadata::PtrRepr<[u8]>", align 8
  %0 = getelementptr inbounds i8, ptr %self, i64 8
  %self1 = load ptr, ptr %0, align 8, !nonnull !4, !noundef !4
  %1 = getelementptr inbounds %"alloc::vec::Vec<u8>", ptr %self, i32 0, i32 1
  %len = load i64, ptr %1, align 8, !noundef !4
  store ptr %self1, ptr %_18, align 8
  %2 = getelementptr inbounds i8, ptr %_18, i64 8
  store i64 %len, ptr %2, align 8
  %3 = load ptr, ptr %_18, align 8, !noundef !4
  %4 = getelementptr inbounds i8, ptr %_18, i64 8
  %5 = load i64, ptr %4, align 8, !noundef !4
  store ptr %3, ptr %_17, align 8
  %6 = getelementptr inbounds i8, ptr %_17, i64 8
  store i64 %5, ptr %6, align 8
  %_15.0 = load ptr, ptr %_17, align 8, !noundef !4
  %7 = getelementptr inbounds i8, ptr %_17, i64 8
  %_15.1 = load i64, ptr %7, align 8, !noundef !4
  %8 = insertvalue { ptr, i64 } poison, ptr %_15.0, 0
  %9 = insertvalue { ptr, i64 } %8, i64 %_15.1, 1
  ret { ptr, i64 } %9
}

; <I as core::iter::traits::collect::IntoIterator>::into_iter
; Function Attrs: inlinehint nonlazybind uwtable
define internal void @"_ZN63_$LT$I$u20$as$u20$core..iter..traits..collect..IntoIterator$GT$9into_iter17h57d8d422662d7a52E"(ptr sret(%"core::str::iter::Lines<'_>") align 8 %_0, ptr align 8 %self) unnamed_addr #0 {
start:
  call void @llvm.memcpy.p0.p0.i64(ptr align 8 %_0, ptr align 8 %self, i64 72, i1 false)
  ret void
}

; <I as core::iter::traits::collect::IntoIterator>::into_iter
; Function Attrs: inlinehint nonlazybind uwtable
define internal { ptr, ptr } @"_ZN63_$LT$I$u20$as$u20$core..iter..traits..collect..IntoIterator$GT$9into_iter17hdcfb372a24ebf73fE"(ptr %self.0, ptr %self.1) unnamed_addr #0 {
start:
  %0 = insertvalue { ptr, ptr } poison, ptr %self.0, 0
  %1 = insertvalue { ptr, ptr } %0, ptr %self.1, 1
  ret { ptr, ptr } %1
}

; <alloc::string::String as core::ops::deref::Deref>::deref
; Function Attrs: inlinehint nonlazybind uwtable
define internal { ptr, i64 } @"_ZN65_$LT$alloc..string..String$u20$as$u20$core..ops..deref..Deref$GT$5deref17h49c3fc807c232455E"(ptr align 8 %self) unnamed_addr #0 {
start:
  %_13 = alloca %"core::ptr::metadata::PtrComponents<[u8]>", align 8
  %_12 = alloca %"core::ptr::metadata::PtrRepr<[u8]>", align 8
  %0 = getelementptr inbounds i8, ptr %self, i64 8
  %self1 = load ptr, ptr %0, align 8, !nonnull !4, !noundef !4
  %1 = getelementptr inbounds %"alloc::vec::Vec<u8>", ptr %self, i32 0, i32 1
  %len = load i64, ptr %1, align 8, !noundef !4
  store ptr %self1, ptr %_13, align 8
  %2 = getelementptr inbounds i8, ptr %_13, i64 8
  store i64 %len, ptr %2, align 8
  %3 = load ptr, ptr %_13, align 8, !noundef !4
  %4 = getelementptr inbounds i8, ptr %_13, i64 8
  %5 = load i64, ptr %4, align 8, !noundef !4
  store ptr %3, ptr %_12, align 8
  %6 = getelementptr inbounds i8, ptr %_12, i64 8
  store i64 %5, ptr %6, align 8
  %v.0 = load ptr, ptr %_12, align 8, !noundef !4
  %7 = getelementptr inbounds i8, ptr %_12, i64 8
  %v.1 = load i64, ptr %7, align 8, !noundef !4
  %8 = insertvalue { ptr, i64 } poison, ptr %v.0, 0
  %9 = insertvalue { ptr, i64 } %8, i64 %v.1, 1
  ret { ptr, i64 } %9
}

; <core::num::error::ParseIntError as core::fmt::Debug>::fmt
; Function Attrs: inlinehint nonlazybind uwtable
define internal zeroext i1 @"_ZN68_$LT$core..num..error..ParseIntError$u20$as$u20$core..fmt..Debug$GT$3fmt17h179f0c4c93d960c3E"(ptr align 1 %self, ptr align 8 %f) unnamed_addr #0 {
start:
  %_7 = alloca ptr, align 8
  store ptr %self, ptr %_7, align 8
; call core::fmt::Formatter::debug_struct_field1_finish
  %_0 = call zeroext i1 @_ZN4core3fmt9Formatter26debug_struct_field1_finish17h05f291f6fc2c7089E(ptr align 8 %f, ptr align 1 @alloc_f62df14955f7d78bca139b0a7668683d, i64 13, ptr align 1 @alloc_a5d866b1768ad3f826bccdb004a1a8ae, i64 4, ptr align 1 %_7, ptr align 8 @vtable.8)
  ret i1 %_0
}

; <core::option::Option<T> as core::ops::try_trait::Try>::branch
; Function Attrs: inlinehint nonlazybind uwtable
define internal { i32, i32 } @"_ZN75_$LT$core..option..Option$LT$T$GT$$u20$as$u20$core..ops..try_trait..Try$GT$6branch17h5e2e15b50be21078E"(i32 %0, i32 %1) unnamed_addr #0 {
start:
  %_0 = alloca %"core::ops::control_flow::ControlFlow<core::option::Option<core::convert::Infallible>, std::process::ExitStatus>", align 4
  %self = alloca %"core::option::Option<std::process::ExitStatus>", align 4
  store i32 %0, ptr %self, align 4
  %2 = getelementptr inbounds i8, ptr %self, i64 4
  store i32 %1, ptr %2, align 4
  %3 = load i32, ptr %self, align 4, !range !13, !noundef !4
  %_2 = zext i32 %3 to i64
  %4 = icmp eq i64 %_2, 0
  br i1 %4, label %bb1, label %bb3

bb1:                                              ; preds = %start
  store i32 1, ptr %_0, align 4
  br label %bb4

bb3:                                              ; preds = %start
  %5 = getelementptr inbounds i8, ptr %self, i64 4
  %v = load i32, ptr %5, align 4, !noundef !4
  %6 = getelementptr inbounds i8, ptr %_0, i64 4
  store i32 %v, ptr %6, align 4
  store i32 0, ptr %_0, align 4
  br label %bb4

bb4:                                              ; preds = %bb3, %bb1
  %7 = load i32, ptr %_0, align 4, !range !13, !noundef !4
  %8 = getelementptr inbounds i8, ptr %_0, i64 4
  %9 = load i32, ptr %8, align 4
  %10 = insertvalue { i32, i32 } poison, i32 %7, 0
  %11 = insertvalue { i32, i32 } %10, i32 %9, 1
  ret { i32, i32 } %11

bb2:                                              ; No predecessors!
  unreachable
}

; <core::option::Option<T> as core::ops::try_trait::Try>::branch
; Function Attrs: inlinehint nonlazybind uwtable
define internal void @"_ZN75_$LT$core..option..Option$LT$T$GT$$u20$as$u20$core..ops..try_trait..Try$GT$6branch17h97a26cb36f97a8bbE"(ptr sret(%"core::ops::control_flow::ControlFlow<core::option::Option<core::convert::Infallible>, std::process::Output>") align 8 %_0, ptr align 8 %self) unnamed_addr #0 {
start:
  %v = alloca %"std::process::Output", align 8
  %0 = load i64, ptr %self, align 8, !range !12, !noundef !4
  %1 = icmp eq i64 %0, -9223372036854775808
  %_2 = select i1 %1, i64 0, i64 1
  %2 = icmp eq i64 %_2, 0
  br i1 %2, label %bb1, label %bb3

bb1:                                              ; preds = %start
  store i64 -9223372036854775808, ptr %_0, align 8
  br label %bb4

bb3:                                              ; preds = %start
  call void @llvm.memcpy.p0.p0.i64(ptr align 8 %v, ptr align 8 %self, i64 56, i1 false)
  call void @llvm.memcpy.p0.p0.i64(ptr align 8 %_0, ptr align 8 %v, i64 56, i1 false)
  br label %bb4

bb4:                                              ; preds = %bb3, %bb1
  ret void

bb2:                                              ; No predecessors!
  unreachable
}

; <core::option::Option<T> as core::convert::From<T>>::from
; Function Attrs: nonlazybind uwtable
define internal { ptr, i64 } @"_ZN78_$LT$core..option..Option$LT$T$GT$$u20$as$u20$core..convert..From$LT$T$GT$$GT$4from17h380c62822fb7f510E"(ptr align 1 %val.0, i64 %val.1) unnamed_addr #1 {
start:
  %_0 = alloca %"core::option::Option<&str>", align 8
  store ptr %val.0, ptr %_0, align 8
  %0 = getelementptr inbounds i8, ptr %_0, i64 8
  store i64 %val.1, ptr %0, align 8
  %1 = load ptr, ptr %_0, align 8, !align !9, !noundef !4
  %2 = getelementptr inbounds i8, ptr %_0, i64 8
  %3 = load i64, ptr %2, align 8
  %4 = insertvalue { ptr, i64 } poison, ptr %1, 0
  %5 = insertvalue { ptr, i64 } %4, i64 %3, 1
  ret { ptr, i64 } %5
}

; <core::str::iter::Lines as core::iter::traits::iterator::Iterator>::next
; Function Attrs: inlinehint nonlazybind uwtable
define internal { ptr, i64 } @"_ZN81_$LT$core..str..iter..Lines$u20$as$u20$core..iter..traits..iterator..Iterator$GT$4next17h3c482ac77dac57e8E"(ptr align 8 %self) unnamed_addr #0 {
start:
; call <core::iter::adapters::map::Map<I,F> as core::iter::traits::iterator::Iterator>::next
  %0 = call { ptr, i64 } @"_ZN102_$LT$core..iter..adapters..map..Map$LT$I$C$F$GT$$u20$as$u20$core..iter..traits..iterator..Iterator$GT$4next17hf28dc2eb23ac047eE"(ptr align 8 %self)
  %_0.0 = extractvalue { ptr, i64 } %0, 0
  %_0.1 = extractvalue { ptr, i64 } %0, 1
