; ModuleID = 'function-22ad8eae67534948.bc'
source_filename = "e26wc5euu2o1o4dh7ysa3oqdb"
target datalayout = "e-m:e-p270:32:32-p271:32:32-p272:64:64-i64:64-i128:128-f80:128-n8:16:32:64-S128"
target triple = "x86_64-unknown-linux-gnu"

%"core::sync::atomic::AtomicUsize" = type { i64 }
%"alloc::sync::SliceArcInnerForStatic" = type { %"alloc::sync::ArcInner<[u8; 1]>", [1 x i64] }
%"alloc::sync::ArcInner<[u8; 1]>" = type { %"core::sync::atomic::AtomicUsize", %"core::sync::atomic::AtomicUsize", [1 x i8], [7 x i8] }

@vtable.0 = private constant <{ [24 x i8], ptr }> <{ [24 x i8] c"\00\00\00\00\00\00\00\00\00\00\00\00\00\00\00\00\01\00\00\00\00\00\00\00", ptr @"_ZN41_$LT$T$u20$as$u20$serde..de..Expected$GT$3fmt17h9b5b9f1da8ecac16E" }>, align 8, !dbg !0
@alloc_4192ed3b92b550c0d82c6e919997c0e9 = private unnamed_addr constant <{ [10 x i8] }> <{ [10 x i8] c"<redacted>" }>, align 1
@alloc_ae52e422ab29884b58622d79788975fe = private unnamed_addr constant <{ ptr, [16 x i8] }> <{ ptr @alloc_4192ed3b92b550c0d82c6e919997c0e9, [16 x i8] c"\0A\00\00\00\00\00\00\00\00\00\00\00\00\00\00\00" }>, align 8
@alloc_8654d27ce1e18ede425bdb1be5d1281e = private unnamed_addr constant <{ [21 x i8] }> <{ [21 x i8] c"WriteHomeTimelineArgs" }>, align 1
@alloc_fbf529a31431d812ea51987957c18fdb = private unnamed_addr constant <{ [7 x i8] }> <{ [7 x i8] c"post_id" }>, align 1
@alloc_17c2596754a11fa444906090c11cb050 = private unnamed_addr constant <{ [7 x i8] }> <{ [7 x i8] c"user_id" }>, align 1
@alloc_5e776ce52c9f5c81d68da620afd2d199 = private unnamed_addr constant <{ [9 x i8] }> <{ [9 x i8] c"timestamp" }>, align 1
@alloc_831319f78ea5ff8c180eff7cc714c6a5 = private unnamed_addr constant <{ [16 x i8] }> <{ [16 x i8] c"user_mentions_id" }>, align 1
@alloc_dc8a1e9508bc8619093e97c08425e5c3 = private unnamed_addr constant <{ ptr, [8 x i8], ptr, [8 x i8], ptr, [8 x i8], ptr, [8 x i8] }> <{ ptr @alloc_fbf529a31431d812ea51987957c18fdb, [8 x i8] c"\07\00\00\00\00\00\00\00", ptr @alloc_17c2596754a11fa444906090c11cb050, [8 x i8] c"\07\00\00\00\00\00\00\00", ptr @alloc_5e776ce52c9f5c81d68da620afd2d199, [8 x i8] c"\09\00\00\00\00\00\00\00", ptr @alloc_831319f78ea5ff8c180eff7cc714c6a5, [8 x i8] c"\10\00\00\00\00\00\00\00" }>, align 8
@alloc_1fcba90cb36554639964cdfaa443ba11 = private unnamed_addr constant <{ [27 x i8] }> <{ [27 x i8] c"SocialGraphGetFollowersArgs" }>, align 1
@alloc_63a58201f79c87bed2c5c1a0660f331f = private unnamed_addr constant <{ [44 x i8] }> <{ [44 x i8] c"struct WriteHomeTimelineArgs with 4 elements" }>, align 1
@alloc_f58fcb9c4e49c192b1285e58cb79b058 = private unnamed_addr constant <{ ptr, [8 x i8] }> <{ ptr @alloc_63a58201f79c87bed2c5c1a0660f331f, [8 x i8] c",\00\00\00\00\00\00\00" }>, align 8
@vtable.1 = private constant <{ [24 x i8], ptr }> <{ [24 x i8] c"\00\00\00\00\00\00\00\00\10\00\00\00\00\00\00\00\08\00\00\00\00\00\00\00", ptr @"_ZN47_$LT$$RF$str$u20$as$u20$serde..de..Expected$GT$3fmt17h0a6fd10980fad70dE" }>, align 8, !dbg !19
@alloc_c705cb38a8523735dfb9d88c7a0743fd = private unnamed_addr constant <{ [10 x i8] }> <{ [10 x i8] c"a sequence" }>, align 1
@vtable.2 = private constant <{ [24 x i8], ptr, ptr, ptr }> <{ [24 x i8] c"\00\00\00\00\00\00\00\00\08\00\00\00\00\00\00\00\08\00\00\00\00\00\00\00", ptr @"_ZN4core3ops8function6FnOnce40call_once$u7b$$u7b$vtable.shim$u7d$$u7d$17ha7bedaec22f647e4E", ptr @"_ZN3std2rt10lang_start28_$u7b$$u7b$closure$u7d$$u7d$17h753ccdb3e4a8c247E", ptr @"_ZN3std2rt10lang_start28_$u7b$$u7b$closure$u7d$$u7d$17h753ccdb3e4a8c247E" }>, align 8, !dbg !33
@alloc_af0ad50687be8757d76841bfb6af39f7 = private unnamed_addr constant <{ ptr }> <{ ptr @_ZN4core3ops8function6FnOnce9call_once17h68481e2aaa331b30E }>, align 8
@alloc_e3605bf48dd8479a638909176cc37fce = private unnamed_addr constant <{ [22 x i8] }> <{ [22 x i8] c"failed to spawn thread" }>, align 1
@vtable.3 = private constant <{ ptr, [16 x i8], ptr }> <{ ptr @"_ZN4core3ptr163drop_in_place$LT$std..thread..Builder..spawn_unchecked_$LT$function..main..$u7b$$u7b$closure$u7d$$u7d$$C$alloc..string..String$GT$..$u7b$$u7b$closure$u7d$$u7d$$GT$17h7b850f74df090f9aE", [16 x i8] c"P\00\00\00\00\00\00\00\08\00\00\00\00\00\00\00", ptr @"_ZN4core3ops8function6FnOnce40call_once$u7b$$u7b$vtable.shim$u7d$$u7d$17h749f4a103aef8acfE" }>, align 8, !dbg !52
@"_ZN3std6thread7Builder16spawn_unchecked_28_$u7b$$u7b$closure$u7d$$u7d$3MIN17hda0db790ee35c9aeE" = external global %"core::sync::atomic::AtomicUsize"
@alloc_7a0078e56453c84a4274ce689b2bb39a = private unnamed_addr constant <{ [14 x i8] }> <{ [14 x i8] c"RUST_MIN_STACK" }>, align 1
@alloc_2ab079c8e2d597e54114ea81b69c3724 = private unnamed_addr constant <{ [53 x i8] }> <{ [53 x i8] c"fatal runtime error: something here is badly broken!\0A" }>, align 1
@alloc_8f2b267b2da59f0ca40e685edf28fc06 = private unnamed_addr constant <{ ptr, [8 x i8] }> <{ ptr @alloc_2ab079c8e2d597e54114ea81b69c3724, [8 x i8] c"5\00\00\00\00\00\00\00" }>, align 8
@vtable.4 = private constant <{ ptr, [16 x i8], ptr, ptr, ptr }> <{ ptr @"_ZN4core3ptr42drop_in_place$LT$alloc..string..String$GT$17hb3b04e371e33c46dE", [16 x i8] c"\18\00\00\00\00\00\00\00\08\00\00\00\00\00\00\00", ptr @"_ZN58_$LT$alloc..string..String$u20$as$u20$core..fmt..Write$GT$9write_str17h3a551256ee4051caE", ptr @"_ZN58_$LT$alloc..string..String$u20$as$u20$core..fmt..Write$GT$10write_char17hc6a16cabe14e0131E", ptr @_ZN4core3fmt5Write9write_fmt17h6894637872bcf126E }>, align 8, !dbg !461
@alloc_cc656815297f75969399c3f4b1ad3de4 = private unnamed_addr constant <{ [55 x i8] }> <{ [55 x i8] c"a Display implementation returned an error unexpectedly" }>, align 1
@alloc_8df0580a595a87d56789d20c7318e185 = private unnamed_addr constant <{ [166 x i8] }> <{ [166 x i8] c"unsafe precondition(s) violated: ptr::copy_nonoverlapping requires that both pointer arguments are aligned and non-null and the specified memory ranges do not overlap" }>, align 1
@alloc_2f5fae7ca9908dec8d13988b47dc9dc4 = private unnamed_addr constant <{ [104 x i8] }> <{ [104 x i8] c"unsafe precondition(s) violated: ptr::copy requires that both pointer arguments are aligned and non-null" }>, align 1
@alloc_289b84035b3220255b84b8869a538376 = private unnamed_addr constant <{ [69 x i8] }> <{ [69 x i8] c"unsafe precondition(s) violated: usize::unchecked_add cannot overflow" }>, align 1
@alloc_981fd9513041e1603a1d1d7b668a749d = private unnamed_addr constant <{ [101 x i8] }> <{ [101 x i8] c"unsafe precondition(s) violated: ptr::read requires that the pointer argument is aligned and non-null" }>, align 1
@alloc_b7474065d782af00c4610bb4ef55210b = private unnamed_addr constant <{ [102 x i8] }> <{ [102 x i8] c"unsafe precondition(s) violated: ptr::write requires that the pointer argument is aligned and non-null" }>, align 1
@alloc_0a14891e1e5c702b367f18048e678740 = private unnamed_addr constant <{ [97 x i8] }> <{ [97 x i8] c"unsafe precondition(s) violated: ptr::add requires that the address calculation does not overflow" }>, align 1
@alloc_8c618ca0a1cc354c9d9eb03e6d3bedbb = private unnamed_addr constant <{ [97 x i8] }> <{ [97 x i8] c"unsafe precondition(s) violated: ptr::sub requires that the address calculation does not overflow" }>, align 1
@alloc_20b3d155afd5c58c42e598b7e6d186ef = private unnamed_addr constant <{ [93 x i8] }> <{ [93 x i8] c"unsafe precondition(s) violated: NonNull::new_unchecked requires that the pointer is non-null" }>, align 1
@alloc_ec595fc0e82ef92fc59bd74f68296eae = private unnamed_addr constant <{ [73 x i8] }> <{ [73 x i8] c"assertion failed: 0 < pointee_size && pointee_size <= isize::MAX as usize" }>, align 1
@alloc_7efb3a7632b3620f628ce83a521b4d9b = private unnamed_addr constant <{ [71 x i8] }> <{ [71 x i8] c"unsafe precondition(s) violated: ptr::sub_ptr requires `self >= origin`" }>, align 1
@alloc_1eb6f53a157dccb32488e066ad957e6d = private unnamed_addr constant <{ [82 x i8] }> <{ [82 x i8] c"unsafe precondition(s) violated: hint::unreachable_unchecked must never be reached" }>, align 1
@alloc_929e9b2e7b7429614ca4fc017efff666 = private unnamed_addr constant <{ [41 x i8] }> <{ [41 x i8] c"there is no such thing as a relaxed fence" }>, align 1
@alloc_08b59b467ebdb5083b29fbbb7ada5445 = private unnamed_addr constant <{ ptr, [8 x i8] }> <{ ptr @alloc_929e9b2e7b7429614ca4fc017efff666, [8 x i8] c")\00\00\00\00\00\00\00" }>, align 8
@alloc_cd1513ae8d1ae22acf9342b8dfa1561d = private unnamed_addr constant <{ [164 x i8] }> <{ [164 x i8] c"unsafe precondition(s) violated: Layout::from_size_align_unchecked requires that align is a power of 2 and the rounded-up allocation size does not exceed isize::MAX" }>, align 1
@alloc_11195730e5236cfdc15ea13be1c301f9 = private unnamed_addr constant <{ [162 x i8] }> <{ [162 x i8] c"unsafe precondition(s) violated: slice::from_raw_parts requires the pointer to be aligned and non-null, and the total size of the slice not to exceed `isize::MAX`" }>, align 1
@vtable.5 = private constant <{ ptr, [16 x i8], ptr }> <{ ptr @"_ZN4core3ptr42drop_in_place$LT$std..io..error..Error$GT$17hf852552697bfd12aE", [16 x i8] c"\08\00\00\00\00\00\00\00\08\00\00\00\00\00\00\00", ptr @"_ZN58_$LT$std..io..error..Error$u20$as$u20$core..fmt..Debug$GT$3fmt17h819a66a3d3c71d8bE" }>, align 8, !dbg !471
@alloc_00ae4b301f7fab8ac9617c03fcbd7274 = private unnamed_addr constant <{ [43 x i8] }> <{ [43 x i8] c"called `Result::unwrap()` on an `Err` value" }>, align 1
@vtable.6 = private constant <{ ptr, [16 x i8], ptr }> <{ ptr @"_ZN4core3ptr45drop_in_place$LT$serde_json..error..Error$GT$17h0d2faac477cb119fE", [16 x i8] c"\08\00\00\00\00\00\00\00\08\00\00\00\00\00\00\00", ptr @"_ZN61_$LT$serde_json..error..Error$u20$as$u20$core..fmt..Debug$GT$3fmt17hf15d521ed18a05cfE" }>, align 8, !dbg !585
@vtable.7 = private constant <{ ptr, [16 x i8], ptr }> <{ ptr @"_ZN4core3ptr45drop_in_place$LT$redis..types..RedisError$GT$17h2bb70742178b4f0dE", [16 x i8] c"8\00\00\00\00\00\00\00\08\00\00\00\00\00\00\00", ptr @"_ZN61_$LT$redis..types..RedisError$u20$as$u20$core..fmt..Debug$GT$3fmt17hb42047671dd17e96E" }>, align 8, !dbg !667
@vtable.8 = private constant <{ ptr, [16 x i8], ptr }> <{ ptr @"_ZN4core3ptr91drop_in_place$LT$alloc..boxed..Box$LT$dyn$u20$core..any..Any$u2b$core..marker..Send$GT$$GT$17hfd5d326d0b817631E", [16 x i8] c"\10\00\00\00\00\00\00\00\08\00\00\00\00\00\00\00", ptr @"_ZN67_$LT$alloc..boxed..Box$LT$T$C$A$GT$$u20$as$u20$core..fmt..Debug$GT$3fmt17hd8d305a05044deffE" }>, align 8, !dbg !730
@anon.d117e058ce1dc08ee7364fbea7ca1519.0 = private unnamed_addr constant <{ [16 x i8] }> zeroinitializer, align 16
@alloc_763310d78c99c2c1ad3f8a9821e942f3 = private unnamed_addr constant <{ [61 x i8] }> <{ [61 x i8] c"is_nonoverlapping: `size_of::<T>() * count` overflows a usize" }>, align 1
@alloc_00c4bc2c43db60dab26d25d7c2e3bd2a = private unnamed_addr constant <{ [44 x i8] }> <{ [44 x i8] c"assertion failed: new_len <= self.capacity()" }>, align 1
@__rust_no_alloc_shim_is_unstable = external global i8
@alloc_0cb72a07695959c068f18d616edf8a21 = private unnamed_addr constant <{ [4 x i8] }> <{ [4 x i8] c"ZADD" }>, align 1
@vtable.9 = private constant <{ ptr, [16 x i8], ptr, ptr, ptr, ptr, ptr, ptr, ptr }> <{ ptr @"_ZN4core3ptr50drop_in_place$LT$redis..connection..Connection$GT$17h5c182fdfa9807c41E", [16 x i8] c"X\00\00\00\00\00\00\00\08\00\00\00\00\00\00\00", ptr @"_ZN83_$LT$redis..connection..Connection$u20$as$u20$redis..connection..ConnectionLike$GT$18req_packed_command17hde1385571231445cE", ptr @"_ZN83_$LT$redis..connection..Connection$u20$as$u20$redis..connection..ConnectionLike$GT$19req_packed_commands17h85062ff3c14e84b7E", ptr @_ZN5redis10connection14ConnectionLike11req_command17h7d133c755e3b65b2E, ptr @"_ZN83_$LT$redis..connection..Connection$u20$as$u20$redis..connection..ConnectionLike$GT$6get_db17he1ce2b7b4cf61cf0E", ptr @_ZN5redis10connection14ConnectionLike19supports_pipelining17h21274db15e868653E, ptr @"_ZN83_$LT$redis..connection..Connection$u20$as$u20$redis..connection..ConnectionLike$GT$16check_connection17hfeb92bb1a290b423E", ptr @"_ZN83_$LT$redis..connection..Connection$u20$as$u20$redis..connection..ConnectionLike$GT$7is_open17he61200cbc55683eeE" }>, align 8, !dbg !738
@alloc_3b99cf3889855522042186bfbc89cd01 = private unnamed_addr constant <{ [52 x i8] }> <{ [52 x i8] c"fatal runtime error: thread result panicked on drop\0A" }>, align 1
@alloc_c0e3aec3f6743dc4f8f81f1ffbf7918f = private unnamed_addr constant <{ ptr, [8 x i8] }> <{ ptr @alloc_3b99cf3889855522042186bfbc89cd01, [8 x i8] c"4\00\00\00\00\00\00\00" }>, align 8
@_ZN5alloc4sync18STATIC_INNER_SLICE17h3a2b380c544fba08E = external global %"alloc::sync::SliceArcInnerForStatic"
@alloc_a26bf732652430d3fd33a953b0af2f59 = private unnamed_addr constant <{ [133 x i8] }> <{ [133 x i8] c"Arcs backed by a static should never reach a strong count of 0. Likely decrement_strong_count or from_raw were called too many times." }>, align 1
@alloc_7114f5b43d6c60b0b3f38891de12ce6a = private unnamed_addr constant <{ ptr, [8 x i8] }> <{ ptr @alloc_a26bf732652430d3fd33a953b0af2f59, [8 x i8] c"\85\00\00\00\00\00\00\00" }>, align 8
@alloc_54c9eea5e1e220d0f4257e256833abb4 = private unnamed_addr constant <{ [127 x i8] }> <{ [127 x i8] c"Arc/Weaks backed by a static should never be deallocated. Likely decrement_strong_count or from_raw were called too many times." }>, align 1
@alloc_0521c3f341cc8d5b6dc515ca4861d561 = private unnamed_addr constant <{ ptr, [8 x i8] }> <{ ptr @alloc_54c9eea5e1e220d0f4257e256833abb4, [8 x i8] c"\7F\00\00\00\00\00\00\00" }>, align 8
@alloc_da5b03e4fe5a3abd85065146ef93cdcb = private unnamed_addr constant <{ [31 x i8] }> <{ [31 x i8] c"assertion failed: nxt.is_some()" }>, align 1
@vtable.a = private constant <{ [24 x i8], ptr }> <{ [24 x i8] c"\00\00\00\00\00\00\00\00\00\00\00\00\00\00\00\00\01\00\00\00\00\00\00\00", ptr @"_ZN41_$LT$T$u20$as$u20$serde..de..Expected$GT$3fmt17hb38f9d0030b21627E" }>, align 8, !dbg !878
@vtable.b = private constant <{ [24 x i8], ptr }> <{ [24 x i8] c"\00\00\00\00\00\00\00\00\00\00\00\00\00\00\00\00\01\00\00\00\00\00\00\00", ptr @"_ZN41_$LT$T$u20$as$u20$serde..de..Expected$GT$3fmt17hb489cd915f629355E" }>, align 8, !dbg !894
@alloc_9a1c7955106ebadc966b1010c5bbd6d9 = private unnamed_addr constant <{ [43 x i8] }> <{ [43 x i8] c"assertion failed: buckets.is_power_of_two()" }>, align 1
@alloc_53973d2fe29b4adba8bb7390b5678745 = private unnamed_addr constant <{ [8 x i8] }> zeroinitializer, align 8
@alloc_c3b6d53dd9bd1510e9a26e6e4f3d162a = private unnamed_addr constant <{ [40 x i8] }> <{ [40 x i8] c"assertion failed: index < self.buckets()" }>, align 1
@alloc_f221a41e60e2c2405013375c89df9d11 = private unnamed_addr constant <{ [49 x i8] }> <{ [49 x i8] c"assertion failed: self.bucket_mask < Group::WIDTH" }>, align 1
@alloc_8e2b705173e3146eddf2aa01d5da3374 = private unnamed_addr constant <{ [1 x i8] }> <{ [1 x i8] c"\80" }>, align 1
@alloc_9a72dc1c87ddefcce62e4b5ab68e5150 = private unnamed_addr constant <{ [1 x i8] }> <{ [1 x i8] c"\FF" }>, align 1
@alloc_d4ba273af71dec0b6121025ad15b0934 = private unnamed_addr constant <{ [47 x i8] }> <{ [47 x i8] c"assertion failed: index < self.num_ctrl_bytes()" }>, align 1
@alloc_d0776666182ad032bd1011cf266e2f3a = private unnamed_addr constant <{ [16 x i8] }> <{ [16 x i8] c"\FF\FF\FF\FF\FF\FF\FF\FF\FF\FF\FF\FF\FF\FF\FF\FF" }>, align 16
@anon.d117e058ce1dc08ee7364fbea7ca1519.1 = private unnamed_addr constant <{ ptr, [24 x i8] }> <{ ptr @alloc_d0776666182ad032bd1011cf266e2f3a, [24 x i8] zeroinitializer }>, align 8
@vtable.c = private constant <{ [24 x i8], ptr, ptr, ptr }> <{ [24 x i8] c"\00\00\00\00\00\00\00\00\08\00\00\00\00\00\00\00\08\00\00\00\00\00\00\00", ptr @"_ZN4core3ops8function6FnOnce40call_once$u7b$$u7b$vtable.shim$u7d$$u7d$17h71ee967149588790E", ptr @"_ZN9hashbrown3raw21RawTable$LT$T$C$A$GT$14reserve_rehash28_$u7b$$u7b$closure$u7d$$u7d$17hb435a2f75937dd56E", ptr @"_ZN9hashbrown3raw21RawTable$LT$T$C$A$GT$14reserve_rehash28_$u7b$$u7b$closure$u7d$$u7d$17hb435a2f75937dd56E" }>, align 8, !dbg !932
@vtable.d = private constant <{ [24 x i8], ptr, ptr }> <{ [24 x i8] c"\00\00\00\00\00\00\00\00\10\00\00\00\00\00\00\00\08\00\00\00\00\00\00\00", ptr @"_ZN4core3ops8function6FnOnce40call_once$u7b$$u7b$vtable.shim$u7d$$u7d$17h31bf51486e6e5b56E", ptr @"_ZN9hashbrown3raw21RawTable$LT$T$C$A$GT$24find_or_find_insert_slot28_$u7b$$u7b$closure$u7d$$u7d$17hd6e80be7cd7ef5fdE" }>, align 8, !dbg !962
@vtable.e = private constant <{ [24 x i8], ptr, ptr }> <{ [24 x i8] c"\00\00\00\00\00\00\00\00\10\00\00\00\00\00\00\00\08\00\00\00\00\00\00\00", ptr @"_ZN4core3ops8function6FnOnce40call_once$u7b$$u7b$vtable.shim$u7d$$u7d$17h650faaf2668f564bE", ptr @"_ZN9hashbrown3raw21RawTable$LT$T$C$A$GT$4find28_$u7b$$u7b$closure$u7d$$u7d$17h6273f830ca12ba0bE" }>, align 8, !dbg !1002
@alloc_58d775e767df59a4a584ad4e47672c04 = private unnamed_addr constant <{ [31 x i8] }> <{ [31 x i8] c"Went past end of probe sequence" }>, align 1
@alloc_c4f7f172f6ddb40182467e21388afe62 = private unnamed_addr constant <{ ptr, [8 x i8] }> <{ ptr @alloc_58d775e767df59a4a584ad4e47672c04, [8 x i8] c"\1F\00\00\00\00\00\00\00" }>, align 8
@alloc_415d34d1a55ce06d02b8d5c94fa2ff39 = private unnamed_addr constant <{ [35 x i8] }> <{ [35 x i8] c"assertion failed: self.is_special()" }>, align 1
@alloc_6ca4ca8ac41454b547cdebd59d86c7e5 = private unnamed_addr constant <{ [14 x i8] }> <{ [14 x i8] c"user-timeline:" }>, align 1
@alloc_5578f24246f2a5d76ee2f439bfa3d122 = private unnamed_addr constant <{ [26 x i8] }> <{ [26 x i8] c"social-graph-get-followers" }>, align 1
@__rustc_debug_gdb_scripts_section__ = linkonce_odr unnamed_addr constant [34 x i8] c"\01gdb_load_rust_pretty_printers.py\00", section ".debug_gdb_scripts", align 1

; Function Attrs: nonlazybind uwtable
define internal { i64, i8 } @"_ZN100_$LT$hashbrown..map..IntoIter$LT$K$C$V$C$A$GT$$u20$as$u20$core..iter..traits..iterator..Iterator$GT$4next17h23393c895e1fa54cE"(ptr align 8 %self) unnamed_addr #0 !dbg !1136 {
start:
  %self.dbg.spill = alloca [8 x i8], align 8
  store ptr %self, ptr %self.dbg.spill, align 8
    #dbg_declare(ptr %self.dbg.spill, !1218, !DIExpression(), !1219)
  %0 = call { i64, i8 } @"_ZN99_$LT$hashbrown..raw..RawIntoIter$LT$T$C$A$GT$$u20$as$u20$core..iter..traits..iterator..Iterator$GT$4next17hc517cf2da670b384E"(ptr align 8 %self), !dbg !1220
  %_0.0 = extractvalue { i64, i8 } %0, 0, !dbg !1220
  %_0.1 = extractvalue { i64, i8 } %0, 1, !dbg !1220
  %1 = insertvalue { i64, i8 } poison, i64 %_0.0, 0, !dbg !1221
  %2 = insertvalue { i64, i8 } %1, i8 %_0.1, 1, !dbg !1221
  ret { i64, i8 } %2, !dbg !1221
}

; Function Attrs: nonlazybind uwtable
define internal void @"_ZN100_$LT$hashbrown..map..IntoIter$LT$K$C$V$C$A$GT$$u20$as$u20$core..iter..traits..iterator..Iterator$GT$9size_hint17he81fd099919046a7E"(ptr sret([24 x i8]) align 8 %_0, ptr align 8 %self) unnamed_addr #0 !dbg !1222 {
start:
  %self.dbg.spill = alloca [8 x i8], align 8
  store ptr %self, ptr %self.dbg.spill, align 8
    #dbg_declare(ptr %self.dbg.spill, !1242, !DIExpression(), !1243)
  call void @"_ZN99_$LT$hashbrown..raw..RawIntoIter$LT$T$C$A$GT$$u20$as$u20$core..iter..traits..iterator..Iterator$GT$9size_hint17hbfcd16efff4aa9c2E"(ptr sret([24 x i8]) align 8 %_0, ptr align 8 %self), !dbg !1244
  ret void, !dbg !1245
}

; Function Attrs: nonlazybind uwtable
define internal void @"_ZN102_$LT$core..iter..adapters..map..Map$LT$I$C$F$GT$$u20$as$u20$core..iter..traits..iterator..Iterator$GT$4fold17h16ce4eb761df9aaaE"(ptr %self.0, ptr %self.1, ptr align 8 %g) unnamed_addr #0 personality ptr @rust_eh_personality !dbg !1246 {
start:
  %0 = alloca [16 x i8], align 8
  %g.dbg.spill = alloca [8 x i8], align 8
  %init.dbg.spill = alloca [0 x i8], align 1
  %self.dbg.spill = alloca [16 x i8], align 8
  %_9 = alloca [1 x i8], align 1
  %_8 = alloca [1 x i8], align 1
  store ptr %self.0, ptr %self.dbg.spill, align 8
  %1 = getelementptr inbounds i8, ptr %self.dbg.spill, i64 8
  store ptr %self.1, ptr %1, align 8
    #dbg_declare(ptr %self.dbg.spill, !1297, !DIExpression(), !1304)
    #dbg_declare(ptr %init.dbg.spill, !1298, !DIExpression(), !1305)
  store ptr %g, ptr %g.dbg.spill, align 8
    #dbg_declare(ptr %g.dbg.spill, !1299, !DIExpression(), !1306)
  store i8 0, ptr %_9, align 1, !dbg !1307
  store i8 0, ptr %_8, align 1, !dbg !1307
  store i8 1, ptr %_9, align 1, !dbg !1307
  store i8 1, ptr %_8, align 1, !dbg !1308
  %_6 = invoke align 8 ptr @_ZN4core4iter8adapters3map8map_fold17hc2289e76750f66b3E(ptr align 8 %g)
          to label %bb1 unwind label %cleanup, !dbg !1309

bb6:                                              ; preds = %cleanup
  %2 = load i8, ptr %_8, align 1, !dbg !1310
  %3 = trunc i8 %2 to i1, !dbg !1310
  br i1 %3, label %bb5, label %bb3, !dbg !1310

cleanup:                                          ; preds = %bb1, %start
  %4 = landingpad { ptr, i32 }
          cleanup
  %5 = extractvalue { ptr, i32 } %4, 0
  %6 = extractvalue { ptr, i32 } %4, 1
  store ptr %5, ptr %0, align 8
  %7 = getelementptr inbounds i8, ptr %0, i64 8
  store i32 %6, ptr %7, align 8
  br label %bb6

bb1:                                              ; preds = %start
  store i8 0, ptr %_9, align 1, !dbg !1307
  store i8 0, ptr %_8, align 1, !dbg !1307
  invoke void @"_ZN91_$LT$core..slice..iter..Iter$LT$T$GT$$u20$as$u20$core..iter..traits..iterator..Iterator$GT$4fold17h8d0bf25eaf2b896dE"(ptr %self.0, ptr %self.1, ptr align 8 %_6)
          to label %bb2 unwind label %cleanup, !dbg !1307

bb2:                                              ; preds = %bb1
  store i8 0, ptr %_8, align 1, !dbg !1310
  store i8 0, ptr %_9, align 1, !dbg !1310
  ret void, !dbg !1311

bb3:                                              ; preds = %bb5, %bb6
  %8 = load i8, ptr %_9, align 1, !dbg !1310
  %9 = trunc i8 %8 to i1, !dbg !1310
  br i1 %9, label %bb7, label %bb4, !dbg !1310

bb5:                                              ; preds = %bb6
  br label %bb3, !dbg !1310

bb4:                                              ; preds = %bb7, %bb3
  %10 = load ptr, ptr %0, align 8, !dbg !1312
  %11 = getelementptr inbounds i8, ptr %0, i64 8, !dbg !1312
  %12 = load i32, ptr %11, align 8, !dbg !1312
  %13 = insertvalue { ptr, i32 } poison, ptr %10, 0, !dbg !1312
  %14 = insertvalue { ptr, i32 } %13, i32 %12, 1, !dbg !1312
  resume { ptr, i32 } %14, !dbg !1312

bb7:                                              ; preds = %bb3
  br label %bb4, !dbg !1310
}

; Function Attrs: inlinehint nonlazybind uwtable
define internal { i64, i64 } @"_ZN102_$LT$core..iter..adapters..map..Map$LT$I$C$F$GT$$u20$as$u20$core..iter..traits..iterator..Iterator$GT$4next17h555a95cb623b314fE"(ptr align 8 %self) unnamed_addr #1 !dbg !1313 {
start:
  %self.dbg.spill = alloca [8 x i8], align 8
  store ptr %self, ptr %self.dbg.spill, align 8
    #dbg_declare(ptr %self.dbg.spill, !1344, !DIExpression(), !1347)
  %0 = call { i64, i8 } @"_ZN109_$LT$std..collections..hash..map..IntoIter$LT$K$C$V$GT$$u20$as$u20$core..iter..traits..iterator..Iterator$GT$4next17h0ac1824fe38aae33E"(ptr align 8 %self), !dbg !1348
  %_2.0 = extractvalue { i64, i8 } %0, 0, !dbg !1348
  %_2.1 = extractvalue { i64, i8 } %0, 1, !dbg !1348
  %_4 = getelementptr inbounds i8, ptr %self, i64 64, !dbg !1349
  %1 = call { i64, i64 } @"_ZN4core6option15Option$LT$T$GT$3map17h658589490e5c73d5E"(i64 %_2.0, i8 %_2.1, ptr align 1 %_4), !dbg !1348
  %_0.0 = extractvalue { i64, i64 } %1, 0, !dbg !1348
  %_0.1 = extractvalue { i64, i64 } %1, 1, !dbg !1348
  %2 = insertvalue { i64, i64 } poison, i64 %_0.0, 0, !dbg !1350
  %3 = insertvalue { i64, i64 } %2, i64 %_0.1, 1, !dbg !1350
  ret { i64, i64 } %3, !dbg !1350
}

; Function Attrs: inlinehint nonlazybind uwtable
define internal void @"_ZN102_$LT$core..iter..adapters..map..Map$LT$I$C$F$GT$$u20$as$u20$core..iter..traits..iterator..Iterator$GT$9size_hint17hb4a79ae0fd5233acE"(ptr sret([24 x i8]) align 8 %_0, ptr align 8 %self) unnamed_addr #1 !dbg !1351 {
start:
  %self.dbg.spill = alloca [8 x i8], align 8
  store ptr %self, ptr %self.dbg.spill, align 8
    #dbg_declare(ptr %self.dbg.spill, !1356, !DIExpression(), !1358)
  call void @"_ZN91_$LT$core..slice..iter..Iter$LT$T$GT$$u20$as$u20$core..iter..traits..iterator..Iterator$GT$9size_hint17h911b3c9109c01c5dE"(ptr sret([24 x i8]) align 8 %_0, ptr align 8 %self), !dbg !1359
  ret void, !dbg !1360
}

; Function Attrs: inlinehint nonlazybind uwtable
define internal void @"_ZN102_$LT$core..iter..adapters..map..Map$LT$I$C$F$GT$$u20$as$u20$core..iter..traits..iterator..Iterator$GT$9size_hint17he2532d2051fed240E"(ptr sret([24 x i8]) align 8 %_0, ptr align 8 %self) unnamed_addr #1 !dbg !1361 {
start:
  %self.dbg.spill = alloca [8 x i8], align 8
  store ptr %self, ptr %self.dbg.spill, align 8
    #dbg_declare(ptr %self.dbg.spill, !1366, !DIExpression(), !1367)
  call void @"_ZN109_$LT$std..collections..hash..map..IntoIter$LT$K$C$V$GT$$u20$as$u20$core..iter..traits..iterator..Iterator$GT$9size_hint17h9e27f2d7ad0879fcE"(ptr sret([24 x i8]) align 8 %_0, ptr align 8 %self), !dbg !1368
  ret void, !dbg !1369
}

; Function Attrs: inlinehint nonlazybind uwtable
define internal { i64, i64 } @"_ZN103_$LT$alloc..vec..into_iter..IntoIter$LT$T$C$A$GT$$u20$as$u20$core..iter..traits..iterator..Iterator$GT$4next17h208ecec7fd9336b1E"(ptr align 8 %self) unnamed_addr #1 !dbg !1370 {
start:
  %self.dbg.spill.i1 = alloca [8 x i8], align 8
  %count.dbg.spill.i = alloca [8 x i8], align 8
  %self.dbg.spill.i = alloca [8 x i8], align 8
  %old.dbg.spill = alloca [8 x i8], align 8
  %self.dbg.spill = alloca [8 x i8], align 8
  %_13 = alloca [8 x i8], align 8
  %ptr = alloca [8 x i8], align 8
  %_0 = alloca [16 x i8], align 8
  store ptr %self, ptr %self.dbg.spill, align 8
    #dbg_declare(ptr %self.dbg.spill, !1391, !DIExpression(), !1396)
    #dbg_declare(ptr %ptr, !1392, !DIExpression(), !1397)
  br label %bb6, !dbg !1398

bb6:                                              ; preds = %start
  %_11 = getelementptr inbounds i8, ptr %self, i64 8, !dbg !1399
  %_15 = getelementptr inbounds i8, ptr %self, i64 24, !dbg !1400
  %0 = load ptr, ptr %_15, align 8, !dbg !1401
  store ptr %0, ptr %_13, align 8, !dbg !1401
  %_10 = call zeroext i1 @"_ZN78_$LT$core..ptr..non_null..NonNull$LT$T$GT$$u20$as$u20$core..cmp..PartialEq$GT$2eq17h04a647a0257129a2E"(ptr align 8 %_11, ptr align 8 %_13), !dbg !1399
  br i1 %_10, label %bb8, label %bb9, !dbg !1399

bb9:                                              ; preds = %bb6
  %1 = getelementptr inbounds i8, ptr %self, i64 8, !dbg !1402
  %old = load ptr, ptr %1, align 8, !dbg !1402
  store ptr %old, ptr %old.dbg.spill, align 8, !dbg !1402
    #dbg_declare(ptr %old.dbg.spill, !1394, !DIExpression(), !1403)
  store ptr %old, ptr %self.dbg.spill.i, align 8
    #dbg_declare(ptr %self.dbg.spill.i, !1404, !DIExpression(), !1412)
  store i64 1, ptr %count.dbg.spill.i, align 8
    #dbg_declare(ptr %count.dbg.spill.i, !1411, !DIExpression(), !1414)
  store ptr %old, ptr %self.dbg.spill.i1, align 8
    #dbg_declare(ptr %self.dbg.spill.i1, !1415, !DIExpression(), !1422)
  %_3.i = getelementptr inbounds i64, ptr %old, i64 1, !dbg !1424
  %2 = getelementptr inbounds i8, ptr %self, i64 8, !dbg !1425
  store ptr %_3.i, ptr %2, align 8, !dbg !1425
  store ptr %old, ptr %ptr, align 8, !dbg !1426
  br label %bb11, !dbg !1427

bb8:                                              ; preds = %bb6
  store i64 0, ptr %_0, align 8, !dbg !1428
  br label %bb13, !dbg !1429

bb11:                                             ; preds = %bb9
  %_19 = load ptr, ptr %ptr, align 8, !dbg !1432
  %_18 = call i64 @"_ZN4core3ptr8non_null16NonNull$LT$T$GT$4read17hf7a846c014bf21b0E"(ptr %_19), !dbg !1432
  %3 = getelementptr inbounds i8, ptr %_0, i64 8, !dbg !1433
  store i64 %_18, ptr %3, align 8, !dbg !1433
  store i64 1, ptr %_0, align 8, !dbg !1433
  br label %bb13, !dbg !1434

bb13:                                             ; preds = %bb11, %bb8
  %4 = load i64, ptr %_0, align 8, !dbg !1434
  %5 = getelementptr inbounds i8, ptr %_0, i64 8, !dbg !1434
  %6 = load i64, ptr %5, align 8, !dbg !1434
  %7 = insertvalue { i64, i64 } poison, i64 %4, 0, !dbg !1434
  %8 = insertvalue { i64, i64 } %7, i64 %6, 1, !dbg !1434
  ret { i64, i64 } %8, !dbg !1434

bb1:                                              ; No predecessors!
  unreachable

bb2:                                              ; No predecessors!
  unreachable

bb3:                                              ; No predecessors!
  unreachable

bb4:                                              ; No predecessors!
  unreachable

bb5:                                              ; No predecessors!
  unreachable
}

; Function Attrs: inlinehint nonlazybind uwtable
define internal void @"_ZN103_$LT$alloc..vec..into_iter..IntoIter$LT$T$C$A$GT$$u20$as$u20$core..iter..traits..iterator..Iterator$GT$9size_hint17h16ab966fe0eac60bE"(ptr sret([24 x i8]) align 8 %_0, ptr align 8 %self) unnamed_addr #1 !dbg !1435 {
start:
  %self.dbg.spill = alloca [8 x i8], align 8
  %_13 = alloca [16 x i8], align 8
  %exact = alloca [8 x i8], align 8
  store ptr %self, ptr %self.dbg.spill, align 8
    #dbg_declare(ptr %self.dbg.spill, !1440, !DIExpression(), !1443)
    #dbg_declare(ptr %exact, !1441, !DIExpression(), !1444)
  br label %bb5, !dbg !1445

bb5:                                              ; preds = %start
  %_10 = getelementptr inbounds i8, ptr %self, i64 24, !dbg !1446
  %_8 = load ptr, ptr %_10, align 8, !dbg !1447
  %0 = getelementptr inbounds i8, ptr %self, i64 8, !dbg !1448
  %_11 = load ptr, ptr %0, align 8, !dbg !1448
  %1 = call i64 @"_ZN4core3ptr8non_null16NonNull$LT$T$GT$7sub_ptr17h811d423be81f3f23E"(ptr %_8, ptr %_11), !dbg !1449
  store i64 %1, ptr %exact, align 8, !dbg !1449
  br label %bb6, !dbg !1449

bb6:                                              ; preds = %bb5
  %_12 = load i64, ptr %exact, align 8, !dbg !1450
  %_14 = load i64, ptr %exact, align 8, !dbg !1451
  %2 = getelementptr inbounds i8, ptr %_13, i64 8, !dbg !1452
  store i64 %_14, ptr %2, align 8, !dbg !1452
  store i64 1, ptr %_13, align 8, !dbg !1452
  store i64 %_12, ptr %_0, align 8, !dbg !1453
  %3 = load i64, ptr %_13, align 8, !dbg !1453
  %4 = getelementptr inbounds i8, ptr %_13, i64 8, !dbg !1453
  %5 = load i64, ptr %4, align 8, !dbg !1453
  %6 = getelementptr inbounds i8, ptr %_0, i64 8, !dbg !1453
  store i64 %3, ptr %6, align 8, !dbg !1453
  %7 = getelementptr inbounds i8, ptr %6, i64 8, !dbg !1453
  store i64 %5, ptr %7, align 8, !dbg !1453
  ret void, !dbg !1454

bb1:                                              ; No predecessors!
  unreachable

bb2:                                              ; No predecessors!
  unreachable

bb3:                                              ; No predecessors!
  unreachable

bb4:                                              ; No predecessors!
  unreachable
}

; Function Attrs: nonlazybind uwtable
define internal void @"_ZN104_$LT$std..thread..Builder..spawn_unchecked_..MaybeDangling$LT$T$GT$$u20$as$u20$core..ops..drop..Drop$GT$4drop17h6278f9ab786670c8E"(ptr align 8 %self) unnamed_addr #0 !dbg !1455 {
start:
  %self.dbg.spill = alloca [8 x i8], align 8
  store ptr %self, ptr %self.dbg.spill, align 8
    #dbg_declare(ptr %self.dbg.spill, !1462, !DIExpression(), !1463)
  call void @"_ZN4core3mem12maybe_uninit20MaybeUninit$LT$T$GT$16assume_init_drop17h007ee25413cb409cE"(ptr align 8 %self), !dbg !1464
  ret void, !dbg !1465
}

; Function Attrs: inlinehint nonlazybind uwtable
define internal { ptr, i64 } @"_ZN105_$LT$std..ffi..os_str..OsString$u20$as$u20$core..ops..index..Index$LT$core..ops..range..RangeFull$GT$$GT$5index17h6227bf7f329da6ebE"(ptr align 8 %self, ptr align 8 %0) unnamed_addr #1 !dbg !1466 {
start:
  %_index.dbg.spill = alloca [0 x i8], align 1
  %_2.dbg.spill = alloca [0 x i8], align 1
  %self.dbg.spill = alloca [8 x i8], align 8
  store ptr %self, ptr %self.dbg.spill, align 8
    #dbg_declare(ptr %self.dbg.spill, !1505, !DIExpression(), !1508)
    #dbg_declare(ptr %_2.dbg.spill, !1507, !DIExpression(), !1509)
    #dbg_declare(ptr %_index.dbg.spill, !1506, !DIExpression(), !1509)
  %1 = call { ptr, i64 } @_ZN3std3sys6os_str5bytes3Buf8as_slice17he81ae6e64ff8eb6dE(ptr align 8 %self), !dbg !1510
  %_3.0 = extractvalue { ptr, i64 } %1, 0, !dbg !1510
  %_3.1 = extractvalue { ptr, i64 } %1, 1, !dbg !1510
  %2 = call { ptr, i64 } @_ZN3std3ffi6os_str5OsStr10from_inner17h17c57af2bfa0e095E(ptr align 1 %_3.0, i64 %_3.1), !dbg !1511
  %_0.0 = extractvalue { ptr, i64 } %2, 0, !dbg !1511
  %_0.1 = extractvalue { ptr, i64 } %2, 1, !dbg !1511
  %3 = insertvalue { ptr, i64 } poison, ptr %_0.0, 0, !dbg !1512
  %4 = insertvalue { ptr, i64 } %3, i64 %_0.1, 1, !dbg !1512
  ret { ptr, i64 } %4, !dbg !1512
}

; Function Attrs: nonlazybind uwtable
define internal void @"_ZN106_$LT$hashbrown..map..HashMap$LT$K$C$V$C$S$C$A$GT$$u20$as$u20$core..iter..traits..collect..IntoIterator$GT$9into_iter17h9c0d0937594c7d79E"(ptr sret([64 x i8]) align 8 %_0, ptr align 8 %self) unnamed_addr #0 personality ptr @rust_eh_personality !dbg !1513 {
start:
  %0 = alloca [16 x i8], align 8
  %_3 = alloca [32 x i8], align 8
  %_2 = alloca [64 x i8], align 8
    #dbg_declare(ptr %self, !1518, !DIExpression(), !1519)
  call void @llvm.memcpy.p0.p0.i64(ptr align 8 %_3, ptr align 8 %self, i64 32, i1 false), !dbg !1520
  invoke void @"_ZN99_$LT$hashbrown..raw..RawTable$LT$T$C$A$GT$$u20$as$u20$core..iter..traits..collect..IntoIterator$GT$9into_iter17hbcc1a547afa3b133E"(ptr sret([64 x i8]) align 8 %_2, ptr align 8 %_3)
          to label %bb1 unwind label %cleanup, !dbg !1520

bb4:                                              ; preds = %cleanup
  %1 = load ptr, ptr %0, align 8, !dbg !1521
  %2 = getelementptr inbounds i8, ptr %0, i64 8, !dbg !1521
  %3 = load i32, ptr %2, align 8, !dbg !1521
  %4 = insertvalue { ptr, i32 } poison, ptr %1, 0, !dbg !1521
  %5 = insertvalue { ptr, i32 } %4, i32 %3, 1, !dbg !1521
  resume { ptr, i32 } %5, !dbg !1521

cleanup:                                          ; preds = %start
  %6 = landingpad { ptr, i32 }
          cleanup
  %7 = extractvalue { ptr, i32 } %6, 0
  %8 = extractvalue { ptr, i32 } %6, 1
  store ptr %7, ptr %0, align 8
  %9 = getelementptr inbounds i8, ptr %0, i64 8
  store i32 %8, ptr %9, align 8
  br label %bb4

bb1:                                              ; preds = %start
  call void @llvm.memcpy.p0.p0.i64(ptr align 8 %_0, ptr align 8 %_2, i64 64, i1 false), !dbg !1522
  ret void, !dbg !1523
}

; Function Attrs: inlinehint nonlazybind uwtable
define internal { i64, i8 } @"_ZN109_$LT$std..collections..hash..map..IntoIter$LT$K$C$V$GT$$u20$as$u20$core..iter..traits..iterator..Iterator$GT$4next17h0ac1824fe38aae33E"(ptr align 8 %self) unnamed_addr #1 !dbg !1524 {
start:
  %self.dbg.spill = alloca [8 x i8], align 8
  store ptr %self, ptr %self.dbg.spill, align 8
    #dbg_declare(ptr %self.dbg.spill, !1531, !DIExpression(), !1532)
  %0 = call { i64, i8 } @"_ZN100_$LT$hashbrown..map..IntoIter$LT$K$C$V$C$A$GT$$u20$as$u20$core..iter..traits..iterator..Iterator$GT$4next17h23393c895e1fa54cE"(ptr align 8 %self), !dbg !1533
  %_0.0 = extractvalue { i64, i8 } %0, 0, !dbg !1533
  %_0.1 = extractvalue { i64, i8 } %0, 1, !dbg !1533
  %1 = insertvalue { i64, i8 } poison, i64 %_0.0, 0, !dbg !1534
  %2 = insertvalue { i64, i8 } %1, i8 %_0.1, 1, !dbg !1534
  ret { i64, i8 } %2, !dbg !1534
}

; Function Attrs: inlinehint nonlazybind uwtable
define internal void @"_ZN109_$LT$std..collections..hash..map..IntoIter$LT$K$C$V$GT$$u20$as$u20$core..iter..traits..iterator..Iterator$GT$9size_hint17h9e27f2d7ad0879fcE"(ptr sret([24 x i8]) align 8 %_0, ptr align 8 %self) unnamed_addr #1 !dbg !1535 {
start:
  %self.dbg.spill = alloca [8 x i8], align 8
  store ptr %self, ptr %self.dbg.spill, align 8
    #dbg_declare(ptr %self.dbg.spill, !1540, !DIExpression(), !1541)
  call void @"_ZN100_$LT$hashbrown..map..IntoIter$LT$K$C$V$C$A$GT$$u20$as$u20$core..iter..traits..iterator..Iterator$GT$9size_hint17he81fd099919046a7E"(ptr sret([24 x i8]) align 8 %_0, ptr align 8 %self), !dbg !1542
  ret void, !dbg !1543
}

; Function Attrs: nonlazybind uwtable
define internal void @_ZN10serde_json2de10from_trait17h123354186b39d4c1E(ptr sret([24 x i8]) align 8 %_0, ptr align 8 %read) unnamed_addr #0 personality ptr @rust_eh_personality !dbg !1544 {
start:
  %err.dbg.spill3 = alloca [8 x i8], align 8
  %err.dbg.spill = alloca [8 x i8], align 8
  %0 = alloca [16 x i8], align 8
  %val.dbg.spill = alloca [0 x i8], align 1
  %_13 = alloca [24 x i8], align 8
  %_9 = alloca [8 x i8], align 8
  %val = alloca [24 x i8], align 8
  %_4 = alloca [24 x i8], align 8
  %value = alloca [24 x i8], align 8
  %de = alloca [56 x i8], align 8
    #dbg_declare(ptr %read, !1578, !DIExpression(), !1600)
    #dbg_declare(ptr %de, !1579, !DIExpression(), !1601)
    #dbg_declare(ptr %value, !1588, !DIExpression(), !1602)
    #dbg_declare(ptr %val, !1590, !DIExpression(), !1603)
    #dbg_declare(ptr %val.dbg.spill, !1595, !DIExpression(), !1604)
  call void @"_ZN10serde_json2de21Deserializer$LT$R$GT$3new17hd51396d46f77341aE"(ptr sret([56 x i8]) align 8 %de, ptr align 8 %read), !dbg !1605
  invoke void @"_ZN5serde2de5impls77_$LT$impl$u20$serde..de..Deserialize$u20$for$u20$alloc..vec..Vec$LT$T$GT$$GT$11deserialize17he441ea990cc41eaeE"(ptr sret([24 x i8]) align 8 %_4, ptr align 8 %de)
          to label %bb2 unwind label %cleanup, !dbg !1606

bb12:                                             ; preds = %bb11, %cleanup
  invoke void @"_ZN4core3ptr82drop_in_place$LT$serde_json..de..Deserializer$LT$serde_json..read..StrRead$GT$$GT$17h90ca1deb28dca1c8E"(ptr align 8 %de) #25
          to label %bb13 unwind label %terminate, !dbg !1607

cleanup:                                          ; preds = %bb7, %start
  %1 = landingpad { ptr, i32 }
          cleanup
  %2 = extractvalue { ptr, i32 } %1, 0
  %3 = extractvalue { ptr, i32 } %1, 1
  store ptr %2, ptr %0, align 8
  %4 = getelementptr inbounds i8, ptr %0, i64 8
  store i32 %3, ptr %4, align 8
  br label %bb12

bb2:                                              ; preds = %start
  %5 = load i64, ptr %_4, align 8, !dbg !1606
  %6 = icmp eq i64 %5, -9223372036854775808, !dbg !1606
  %_6 = select i1 %6, i64 1, i64 0, !dbg !1606
  %7 = icmp eq i64 %_6, 0, !dbg !1608
  br i1 %7, label %bb5, label %bb4, !dbg !1608

bb5:                                              ; preds = %bb2
  call void @llvm.memcpy.p0.p0.i64(ptr align 8 %val, ptr align 8 %_4, i64 24, i1 false), !dbg !1610
  call void @llvm.memcpy.p0.p0.i64(ptr align 8 %value, ptr align 8 %val, i64 24, i1 false), !dbg !1611
  %8 = invoke align 8 ptr @"_ZN10serde_json2de21Deserializer$LT$R$GT$3end17hcb8d7e47c0030b57E"(ptr align 8 %de)
          to label %bb6 unwind label %cleanup1, !dbg !1612

bb4:                                              ; preds = %bb2
  %9 = getelementptr inbounds i8, ptr %_4, i64 8, !dbg !1613
  %err2 = load ptr, ptr %9, align 8, !dbg !1613
  store ptr %err2, ptr %err.dbg.spill3, align 8, !dbg !1613
    #dbg_declare(ptr %err.dbg.spill3, !1593, !DIExpression(), !1614)
  %10 = getelementptr inbounds i8, ptr %_0, i64 8, !dbg !1615
  store ptr %err2, ptr %10, align 8, !dbg !1615
  store i64 -9223372036854775808, ptr %_0, align 8, !dbg !1615
  br label %bb9, !dbg !1616

bb11:                                             ; preds = %cleanup1
  invoke void @"_ZN4core3ptr47drop_in_place$LT$alloc..vec..Vec$LT$i64$GT$$GT$17h45a35d44e4fb44aaE"(ptr align 8 %value) #25
          to label %bb12 unwind label %terminate, !dbg !1618

cleanup1:                                         ; preds = %bb5
  %11 = landingpad { ptr, i32 }
          cleanup
  %12 = extractvalue { ptr, i32 } %11, 0
  %13 = extractvalue { ptr, i32 } %11, 1
  store ptr %12, ptr %0, align 8
  %14 = getelementptr inbounds i8, ptr %0, i64 8
  store i32 %13, ptr %14, align 8
  br label %bb11

bb6:                                              ; preds = %bb5
  store ptr %8, ptr %_9, align 8, !dbg !1612
  %15 = load ptr, ptr %_9, align 8, !dbg !1612
  %16 = ptrtoint ptr %15 to i64, !dbg !1612
  %17 = icmp eq i64 %16, 0, !dbg !1612
  %_11 = select i1 %17, i64 0, i64 1, !dbg !1612
  %18 = icmp eq i64 %_11, 0, !dbg !1619
  br i1 %18, label %bb8, label %bb7, !dbg !1619

bb8:                                              ; preds = %bb6
  call void @llvm.memcpy.p0.p0.i64(ptr align 8 %_13, ptr align 8 %value, i64 24, i1 false), !dbg !1621
  call void @llvm.memcpy.p0.p0.i64(ptr align 8 %_0, ptr align 8 %_13, i64 24, i1 false), !dbg !1622
  call void @"_ZN4core3ptr82drop_in_place$LT$serde_json..de..Deserializer$LT$serde_json..read..StrRead$GT$$GT$17h90ca1deb28dca1c8E"(ptr align 8 %de), !dbg !1607
  br label %bb10, !dbg !1607

bb7:                                              ; preds = %bb6
  %err = load ptr, ptr %_9, align 8, !dbg !1623
  store ptr %err, ptr %err.dbg.spill, align 8, !dbg !1623
    #dbg_declare(ptr %err.dbg.spill, !1597, !DIExpression(), !1624)
  %19 = getelementptr inbounds i8, ptr %_0, i64 8, !dbg !1625
  store ptr %err, ptr %19, align 8, !dbg !1625
  store i64 -9223372036854775808, ptr %_0, align 8, !dbg !1625
  invoke void @"_ZN4core3ptr47drop_in_place$LT$alloc..vec..Vec$LT$i64$GT$$GT$17h45a35d44e4fb44aaE"(ptr align 8 %value)
          to label %bb9 unwind label %cleanup, !dbg !1618

bb10:                                             ; preds = %bb9, %bb8
  ret void, !dbg !1626

bb9:                                              ; preds = %bb7, %bb4
  call void @"_ZN4core3ptr82drop_in_place$LT$serde_json..de..Deserializer$LT$serde_json..read..StrRead$GT$$GT$17h90ca1deb28dca1c8E"(ptr align 8 %de), !dbg !1607
  br label %bb10, !dbg !1607

terminate:                                        ; preds = %bb11, %bb12
  %20 = landingpad { ptr, i32 }
          filter [0 x ptr] zeroinitializer
  %21 = extractvalue { ptr, i32 } %20, 0
  %22 = extractvalue { ptr, i32 } %20, 1
  call void @_ZN4core9panicking16panic_in_cleanup17hdb19dc6496e5af6eE() #26, !dbg !1627
  unreachable, !dbg !1627

bb3:                                              ; No predecessors!
  unreachable, !dbg !1628

bb13:                                             ; preds = %bb12
  %23 = load ptr, ptr %0, align 8, !dbg !1627
  %24 = getelementptr inbounds i8, ptr %0, i64 8, !dbg !1627
  %25 = load i32, ptr %24, align 8, !dbg !1627
  %26 = insertvalue { ptr, i32 } poison, ptr %23, 0, !dbg !1627
  %27 = insertvalue { ptr, i32 } %26, i32 %25, 1, !dbg !1627
  resume { ptr, i32 } %27, !dbg !1627
}

; Function Attrs: nonlazybind uwtable
define internal void @_ZN10serde_json2de10from_trait17hf290f9642ab3f313E(ptr sret([48 x i8]) align 8 %_0, ptr align 8 %read) unnamed_addr #0 personality ptr @rust_eh_personality !dbg !1630 {
start:
  %err.dbg.spill3 = alloca [8 x i8], align 8
  %err.dbg.spill = alloca [8 x i8], align 8
  %0 = alloca [16 x i8], align 8
  %val.dbg.spill = alloca [0 x i8], align 1
  %_13 = alloca [48 x i8], align 8
  %_9 = alloca [8 x i8], align 8
  %val = alloca [48 x i8], align 8
  %_4 = alloca [48 x i8], align 8
  %value = alloca [48 x i8], align 8
  %de = alloca [56 x i8], align 8
    #dbg_declare(ptr %read, !1648, !DIExpression(), !1662)
    #dbg_declare(ptr %de, !1649, !DIExpression(), !1663)
    #dbg_declare(ptr %value, !1651, !DIExpression(), !1664)
    #dbg_declare(ptr %val, !1653, !DIExpression(), !1665)
    #dbg_declare(ptr %val.dbg.spill, !1657, !DIExpression(), !1666)
  call void @"_ZN10serde_json2de21Deserializer$LT$R$GT$3new17hd51396d46f77341aE"(ptr sret([56 x i8]) align 8 %de, ptr align 8 %read), !dbg !1667
  invoke void @"_ZN11OpenFaaSRPC1_87_$LT$impl$u20$serde..de..Deserialize$u20$for$u20$OpenFaaSRPC..WriteHomeTimelineArgs$GT$11deserialize17hdf4aa00a32c44e10E"(ptr sret([48 x i8]) align 8 %_4, ptr align 8 %de)
          to label %bb2 unwind label %cleanup, !dbg !1668

bb12:                                             ; preds = %bb11, %cleanup
  invoke void @"_ZN4core3ptr82drop_in_place$LT$serde_json..de..Deserializer$LT$serde_json..read..StrRead$GT$$GT$17h90ca1deb28dca1c8E"(ptr align 8 %de) #25
          to label %bb13 unwind label %terminate, !dbg !1669

cleanup:                                          ; preds = %bb7, %start
  %1 = landingpad { ptr, i32 }
          cleanup
  %2 = extractvalue { ptr, i32 } %1, 0
  %3 = extractvalue { ptr, i32 } %1, 1
  store ptr %2, ptr %0, align 8
  %4 = getelementptr inbounds i8, ptr %0, i64 8
  store i32 %3, ptr %4, align 8
  br label %bb12

bb2:                                              ; preds = %start
  %5 = load i64, ptr %_4, align 8, !dbg !1668
  %6 = icmp eq i64 %5, -9223372036854775808, !dbg !1668
  %_6 = select i1 %6, i64 1, i64 0, !dbg !1668
  %7 = icmp eq i64 %_6, 0, !dbg !1670
  br i1 %7, label %bb5, label %bb4, !dbg !1670

bb5:                                              ; preds = %bb2
  call void @llvm.memcpy.p0.p0.i64(ptr align 8 %val, ptr align 8 %_4, i64 48, i1 false), !dbg !1672
  call void @llvm.memcpy.p0.p0.i64(ptr align 8 %value, ptr align 8 %val, i64 48, i1 false), !dbg !1673
  %8 = invoke align 8 ptr @"_ZN10serde_json2de21Deserializer$LT$R$GT$3end17hcb8d7e47c0030b57E"(ptr align 8 %de)
          to label %bb6 unwind label %cleanup1, !dbg !1674

bb4:                                              ; preds = %bb2
  %9 = getelementptr inbounds i8, ptr %_4, i64 8, !dbg !1675
  %err2 = load ptr, ptr %9, align 8, !dbg !1675
  store ptr %err2, ptr %err.dbg.spill3, align 8, !dbg !1675
    #dbg_declare(ptr %err.dbg.spill3, !1655, !DIExpression(), !1676)
  %10 = getelementptr inbounds i8, ptr %_0, i64 8, !dbg !1677
  store ptr %err2, ptr %10, align 8, !dbg !1677
  store i64 -9223372036854775808, ptr %_0, align 8, !dbg !1677
  br label %bb9, !dbg !1678

bb11:                                             ; preds = %cleanup1
  invoke void @"_ZN4core3ptr55drop_in_place$LT$OpenFaaSRPC..WriteHomeTimelineArgs$GT$17heaa601c588af7c8bE"(ptr align 8 %value) #25
          to label %bb12 unwind label %terminate, !dbg !1680

cleanup1:                                         ; preds = %bb5
  %11 = landingpad { ptr, i32 }
          cleanup
  %12 = extractvalue { ptr, i32 } %11, 0
  %13 = extractvalue { ptr, i32 } %11, 1
  store ptr %12, ptr %0, align 8
  %14 = getelementptr inbounds i8, ptr %0, i64 8
  store i32 %13, ptr %14, align 8
  br label %bb11

bb6:                                              ; preds = %bb5
  store ptr %8, ptr %_9, align 8, !dbg !1674
  %15 = load ptr, ptr %_9, align 8, !dbg !1674
  %16 = ptrtoint ptr %15 to i64, !dbg !1674
  %17 = icmp eq i64 %16, 0, !dbg !1674
  %_11 = select i1 %17, i64 0, i64 1, !dbg !1674
  %18 = icmp eq i64 %_11, 0, !dbg !1681
  br i1 %18, label %bb8, label %bb7, !dbg !1681

bb8:                                              ; preds = %bb6
  call void @llvm.memcpy.p0.p0.i64(ptr align 8 %_13, ptr align 8 %value, i64 48, i1 false), !dbg !1683
  call void @llvm.memcpy.p0.p0.i64(ptr align 8 %_0, ptr align 8 %_13, i64 48, i1 false), !dbg !1684
  call void @"_ZN4core3ptr82drop_in_place$LT$serde_json..de..Deserializer$LT$serde_json..read..StrRead$GT$$GT$17h90ca1deb28dca1c8E"(ptr align 8 %de), !dbg !1669
  br label %bb10, !dbg !1669

bb7:                                              ; preds = %bb6
  %err = load ptr, ptr %_9, align 8, !dbg !1685
  store ptr %err, ptr %err.dbg.spill, align 8, !dbg !1685
    #dbg_declare(ptr %err.dbg.spill, !1659, !DIExpression(), !1686)
  %19 = getelementptr inbounds i8, ptr %_0, i64 8, !dbg !1687
  store ptr %err, ptr %19, align 8, !dbg !1687
  store i64 -9223372036854775808, ptr %_0, align 8, !dbg !1687
  invoke void @"_ZN4core3ptr55drop_in_place$LT$OpenFaaSRPC..WriteHomeTimelineArgs$GT$17heaa601c588af7c8bE"(ptr align 8 %value)
          to label %bb9 unwind label %cleanup, !dbg !1680

bb10:                                             ; preds = %bb9, %bb8
  ret void, !dbg !1688

bb9:                                              ; preds = %bb7, %bb4
  call void @"_ZN4core3ptr82drop_in_place$LT$serde_json..de..Deserializer$LT$serde_json..read..StrRead$GT$$GT$17h90ca1deb28dca1c8E"(ptr align 8 %de), !dbg !1669
  br label %bb10, !dbg !1669

terminate:                                        ; preds = %bb11, %bb12
  %20 = landingpad { ptr, i32 }
          filter [0 x ptr] zeroinitializer
  %21 = extractvalue { ptr, i32 } %20, 0
  %22 = extractvalue { ptr, i32 } %20, 1
  call void @_ZN4core9panicking16panic_in_cleanup17hdb19dc6496e5af6eE() #26, !dbg !1689
  unreachable, !dbg !1689

bb3:                                              ; No predecessors!
  unreachable, !dbg !1690

bb13:                                             ; preds = %bb12
  %23 = load ptr, ptr %0, align 8, !dbg !1689
  %24 = getelementptr inbounds i8, ptr %0, i64 8, !dbg !1689
  %25 = load i32, ptr %24, align 8, !dbg !1689
  %26 = insertvalue { ptr, i32 } poison, ptr %23, 0, !dbg !1689
  %27 = insertvalue { ptr, i32 } %26, i32 %25, 1, !dbg !1689
  resume { ptr, i32 } %27, !dbg !1689
}

; Function Attrs: nonlazybind uwtable
define internal { i64, ptr } @_ZN10serde_json2de12ParserNumber5visit17hb462f3968d496a9fE(ptr align 8 %self) unnamed_addr #0 !dbg !1692 {
start:
  %x.dbg.spill4 = alloca [8 x i8], align 8
  %x.dbg.spill2 = alloca [8 x i8], align 8
  %x.dbg.spill = alloca [8 x i8], align 8
  %visitor.dbg.spill = alloca [0 x i8], align 1
  %_0 = alloca [16 x i8], align 8
    #dbg_declare(ptr %self, !1731, !DIExpression(), !1739)
    #dbg_declare(ptr %visitor.dbg.spill, !1732, !DIExpression(), !1740)
  %_3 = load i64, ptr %self, align 8, !dbg !1741
  switch i64 %_3, label %bb1 [
    i64 0, label %bb4
    i64 1, label %bb3
    i64 2, label %bb2
  ], !dbg !1742

bb1:                                              ; preds = %start
  unreachable, !dbg !1741

bb4:                                              ; preds = %start
  %0 = getelementptr inbounds i8, ptr %self, i64 8, !dbg !1743
  %x = load double, ptr %0, align 8, !dbg !1743
  store double %x, ptr %x.dbg.spill, align 8, !dbg !1743
    #dbg_declare(ptr %x.dbg.spill, !1733, !DIExpression(), !1744)
  %1 = call { i64, ptr } @_ZN5serde2de7Visitor9visit_f6417h6790504c9484e97aE(double %x), !dbg !1745
  %2 = extractvalue { i64, ptr } %1, 0, !dbg !1745
  %3 = extractvalue { i64, ptr } %1, 1, !dbg !1745
  store i64 %2, ptr %_0, align 8, !dbg !1745
  %4 = getelementptr inbounds i8, ptr %_0, i64 8, !dbg !1745
  store ptr %3, ptr %4, align 8, !dbg !1745
  br label %bb5, !dbg !1745

bb3:                                              ; preds = %start
  %5 = getelementptr inbounds i8, ptr %self, i64 8, !dbg !1746
  %x1 = load i64, ptr %5, align 8, !dbg !1746
  store i64 %x1, ptr %x.dbg.spill2, align 8, !dbg !1746
    #dbg_declare(ptr %x.dbg.spill2, !1735, !DIExpression(), !1747)
  %6 = call { i64, ptr } @"_ZN143_$LT$serde..de..impls..$LT$impl$u20$serde..de..Deserialize$u20$for$u20$i64$GT$..deserialize..PrimitiveVisitor$u20$as$u20$serde..de..Visitor$GT$9visit_u6417h972d57260f6da7b0E"(i64 %x1), !dbg !1748
  %7 = extractvalue { i64, ptr } %6, 0, !dbg !1748
  %8 = extractvalue { i64, ptr } %6, 1, !dbg !1748
  store i64 %7, ptr %_0, align 8, !dbg !1748
  %9 = getelementptr inbounds i8, ptr %_0, i64 8, !dbg !1748
  store ptr %8, ptr %9, align 8, !dbg !1748
  br label %bb5, !dbg !1748

bb2:                                              ; preds = %start
  %10 = getelementptr inbounds i8, ptr %self, i64 8, !dbg !1749
  %x3 = load i64, ptr %10, align 8, !dbg !1749
  store i64 %x3, ptr %x.dbg.spill4, align 8, !dbg !1749
    #dbg_declare(ptr %x.dbg.spill4, !1737, !DIExpression(), !1750)
  %11 = call { i64, ptr } @"_ZN143_$LT$serde..de..impls..$LT$impl$u20$serde..de..Deserialize$u20$for$u20$i64$GT$..deserialize..PrimitiveVisitor$u20$as$u20$serde..de..Visitor$GT$9visit_i6417hc414d91843672285E"(i64 %x3), !dbg !1751
  %12 = extractvalue { i64, ptr } %11, 0, !dbg !1751
  %13 = extractvalue { i64, ptr } %11, 1, !dbg !1751
  store i64 %12, ptr %_0, align 8, !dbg !1751
  %14 = getelementptr inbounds i8, ptr %_0, i64 8, !dbg !1751
  store ptr %13, ptr %14, align 8, !dbg !1751
  br label %bb5, !dbg !1751

bb5:                                              ; preds = %bb2, %bb3, %bb4
  %15 = load i64, ptr %_0, align 8, !dbg !1752
  %16 = getelementptr inbounds i8, ptr %_0, i64 8, !dbg !1752
  %17 = load ptr, ptr %16, align 8, !dbg !1752
  %18 = insertvalue { i64, ptr } poison, i64 %15, 0, !dbg !1752
  %19 = insertvalue { i64, ptr } %18, ptr %17, 1, !dbg !1752
  ret { i64, ptr } %19, !dbg !1752
}

; Function Attrs: nonlazybind uwtable
define internal { i64, ptr } @"_ZN10serde_json2de21Deserializer$LT$R$GT$18deserialize_number17h161577f05ae1b649E"(ptr align 8 %self) unnamed_addr #0 personality ptr @rust_eh_personality !dbg !1753 {
start:
  %err.dbg.spill9 = alloca [8 x i8], align 8
  %err.dbg.spill7 = alloca [8 x i8], align 8
  %err.dbg.spill5 = alloca [8 x i8], align 8
  %value.dbg.spill = alloca [8 x i8], align 8
  %err.dbg.spill = alloca [8 x i8], align 8
  %peek.dbg.spill = alloca [1 x i8], align 1
  %0 = alloca [16 x i8], align 8
  %self.dbg.spill = alloca [8 x i8], align 8
  %_34 = alloca [1 x i8], align 1
  %val2 = alloca [16 x i8], align 8
  %_21 = alloca [16 x i8], align 8
  %val1 = alloca [16 x i8], align 8
  %_16 = alloca [16 x i8], align 8
  %value = alloca [16 x i8], align 8
  %_11 = alloca [24 x i8], align 8
  %val = alloca [2 x i8], align 1
  %_3 = alloca [16 x i8], align 8
  %_0 = alloca [16 x i8], align 8
  %visitor = alloca [0 x i8], align 1
  store ptr %self, ptr %self.dbg.spill, align 8
    #dbg_declare(ptr %self.dbg.spill, !1760, !DIExpression(), !1795)
    #dbg_declare(ptr %visitor, !1761, !DIExpression(), !1796)
    #dbg_declare(ptr %val, !1764, !DIExpression(), !1797)
    #dbg_declare(ptr %value, !1781, !DIExpression(), !1798)
    #dbg_declare(ptr %val1, !1783, !DIExpression(), !1799)
    #dbg_declare(ptr %val2, !1787, !DIExpression(), !1800)
  store i8 0, ptr %_34, align 1, !dbg !1801
  store i8 1, ptr %_34, align 1, !dbg !1801
  invoke void @"_ZN10serde_json2de21Deserializer$LT$R$GT$16parse_whitespace17h5fff05b88d124cfeE"(ptr sret([16 x i8]) align 8 %_3, ptr align 8 %self)
          to label %bb1 unwind label %cleanup, !dbg !1802

bb31:                                             ; preds = %cleanup
  %1 = load i8, ptr %_34, align 1, !dbg !1803
  %2 = trunc i8 %1 to i1, !dbg !1803
  br i1 %2, label %bb30, label %bb28, !dbg !1803

cleanup:                                          ; preds = %bb22, %bb19, %bb10, %bb8, %bb16, %bb13, %bb12, %bb5, %start
  %3 = landingpad { ptr, i32 }
          cleanup
  %4 = extractvalue { ptr, i32 } %3, 0
  %5 = extractvalue { ptr, i32 } %3, 1
  store ptr %4, ptr %0, align 8
  %6 = getelementptr inbounds i8, ptr %0, i64 8
  store i32 %5, ptr %6, align 8
  br label %bb31

bb1:                                              ; preds = %start
  %7 = load i8, ptr %_3, align 8, !dbg !1802
  %8 = trunc i8 %7 to i1, !dbg !1802
  %_4 = zext i1 %8 to i64, !dbg !1802
  %9 = icmp eq i64 %_4, 0, !dbg !1804
  br i1 %9, label %bb4, label %bb3, !dbg !1804

bb4:                                              ; preds = %bb1
  %10 = getelementptr inbounds i8, ptr %_3, i64 1, !dbg !1806
  %11 = load i8, ptr %10, align 1, !dbg !1806
  %12 = trunc i8 %11 to i1, !dbg !1806
  %13 = getelementptr inbounds i8, ptr %10, i64 1, !dbg !1806
  %14 = load i8, ptr %13, align 1, !dbg !1806
  %15 = zext i1 %12 to i8, !dbg !1806
  store i8 %15, ptr %val, align 1, !dbg !1806
  %16 = getelementptr inbounds i8, ptr %val, i64 1, !dbg !1806
  store i8 %14, ptr %16, align 1, !dbg !1806
  %17 = load i8, ptr %val, align 1, !dbg !1804
  %18 = trunc i8 %17 to i1, !dbg !1804
  %_7 = zext i1 %18 to i64, !dbg !1804
  %19 = icmp eq i64 %_7, 0, !dbg !1804
  br i1 %19, label %bb5, label %bb6, !dbg !1804

bb3:                                              ; preds = %bb1
  %20 = getelementptr inbounds i8, ptr %_3, i64 8, !dbg !1807
  %err8 = load ptr, ptr %20, align 8, !dbg !1807
  store ptr %err8, ptr %err.dbg.spill9, align 8, !dbg !1807
    #dbg_declare(ptr %err.dbg.spill9, !1777, !DIExpression(), !1808)
  %21 = getelementptr inbounds i8, ptr %_0, i64 8, !dbg !1809
  store ptr %err8, ptr %21, align 8, !dbg !1809
  store i64 1, ptr %_0, align 8, !dbg !1809
  br label %bb26, !dbg !1810

bb5:                                              ; preds = %bb4
  store i64 5, ptr %_11, align 8, !dbg !1812
  %_9 = invoke align 8 ptr @"_ZN10serde_json2de21Deserializer$LT$R$GT$10peek_error17h6df5cfefe9076ba8E"(ptr align 8 %self, ptr align 8 %_11)
          to label %bb7 unwind label %cleanup, !dbg !1813

bb6:                                              ; preds = %bb4
  %22 = getelementptr inbounds i8, ptr %val, i64 1, !dbg !1814
  %peek = load i8, ptr %22, align 1, !dbg !1814
  store i8 %peek, ptr %peek.dbg.spill, align 1, !dbg !1814
    #dbg_declare(ptr %peek.dbg.spill, !1762, !DIExpression(), !1815)
    #dbg_declare(ptr %peek.dbg.spill, !1779, !DIExpression(), !1816)
  %23 = icmp eq i8 %peek, 45, !dbg !1817
  br i1 %23, label %bb12, label %bb9, !dbg !1817

bb7:                                              ; preds = %bb5
  %24 = getelementptr inbounds i8, ptr %_0, i64 8, !dbg !1818
  store ptr %_9, ptr %24, align 8, !dbg !1818
  store i64 1, ptr %_0, align 8, !dbg !1818
  br label %bb26, !dbg !1819

bb26:                                             ; preds = %bb18, %bb15, %bb7, %bb3
  br label %bb27, !dbg !1803

bb12:                                             ; preds = %bb6
  invoke void @"_ZN10serde_json2de21Deserializer$LT$R$GT$8eat_char17he57f7f9fe92d40fcE"(ptr align 8 %self)
          to label %bb13 unwind label %cleanup, !dbg !1820

bb9:                                              ; preds = %bb6
  %_13 = icmp ule i8 48, %peek, !dbg !1821
  br i1 %_13, label %bb11, label %bb8, !dbg !1821

bb13:                                             ; preds = %bb12
  invoke void @"_ZN10serde_json2de21Deserializer$LT$R$GT$13parse_integer17h0ce1822522329e79E"(ptr sret([16 x i8]) align 8 %_16, ptr align 8 %self, i1 zeroext false)
          to label %bb14 unwind label %cleanup, !dbg !1822

bb14:                                             ; preds = %bb13
  %25 = load i64, ptr %_16, align 8, !dbg !1822
  %26 = icmp eq i64 %25, 3, !dbg !1822
  %_17 = select i1 %26, i64 1, i64 0, !dbg !1822
  %27 = icmp eq i64 %_17, 0, !dbg !1823
  br i1 %27, label %bb16, label %bb15, !dbg !1823

bb16:                                             ; preds = %bb14
  call void @llvm.memcpy.p0.p0.i64(ptr align 8 %val1, ptr align 8 %_16, i64 16, i1 false), !dbg !1825
  store i8 0, ptr %_34, align 1, !dbg !1826
  %28 = invoke { i64, ptr } @_ZN10serde_json2de12ParserNumber5visit17hb462f3968d496a9fE(ptr align 8 %val1)
          to label %bb32 unwind label %cleanup, !dbg !1827

bb15:                                             ; preds = %bb14
  %29 = getelementptr inbounds i8, ptr %_16, i64 8, !dbg !1828
  %err = load ptr, ptr %29, align 8, !dbg !1828
  store ptr %err, ptr %err.dbg.spill, align 8, !dbg !1828
    #dbg_declare(ptr %err.dbg.spill, !1785, !DIExpression(), !1829)
  %30 = getelementptr inbounds i8, ptr %_0, i64 8, !dbg !1830
  store ptr %err, ptr %30, align 8, !dbg !1830
  store i64 1, ptr %_0, align 8, !dbg !1830
  br label %bb26, !dbg !1831

bb32:                                             ; preds = %bb16
  %31 = extractvalue { i64, ptr } %28, 0, !dbg !1827
  %32 = extractvalue { i64, ptr } %28, 1, !dbg !1827
  store i64 %31, ptr %value, align 8, !dbg !1827
  %33 = getelementptr inbounds i8, ptr %value, i64 8, !dbg !1827
  store ptr %32, ptr %33, align 8, !dbg !1827
  br label %bb21, !dbg !1827

bb21:                                             ; preds = %bb33, %bb20, %bb32
  %_29 = load i64, ptr %value, align 8, !dbg !1833
  %34 = icmp eq i64 %_29, 0, !dbg !1834
  br i1 %34, label %bb23, label %bb22, !dbg !1834

bb8:                                              ; preds = %bb11, %bb9
  %_26 = invoke align 8 ptr @"_ZN10serde_json2de21Deserializer$LT$R$GT$17peek_invalid_type17hcdaf4dc125e315acE"(ptr align 8 %self, ptr align 1 %visitor, ptr align 8 @vtable.0)
          to label %bb20 unwind label %cleanup, !dbg !1835

bb11:                                             ; preds = %bb9
  %_14 = icmp ule i8 %peek, 57, !dbg !1821
  br i1 %_14, label %bb10, label %bb8, !dbg !1821

bb10:                                             ; preds = %bb11
  invoke void @"_ZN10serde_json2de21Deserializer$LT$R$GT$13parse_integer17h0ce1822522329e79E"(ptr sret([16 x i8]) align 8 %_21, ptr align 8 %self, i1 zeroext true)
          to label %bb17 unwind label %cleanup, !dbg !1836

bb20:                                             ; preds = %bb8
  %35 = getelementptr inbounds i8, ptr %value, i64 8, !dbg !1837
  store ptr %_26, ptr %35, align 8, !dbg !1837
  store i64 1, ptr %value, align 8, !dbg !1837
  br label %bb21, !dbg !1838

bb17:                                             ; preds = %bb10
  %36 = load i64, ptr %_21, align 8, !dbg !1836
  %37 = icmp eq i64 %36, 3, !dbg !1836
  %_22 = select i1 %37, i64 1, i64 0, !dbg !1836
  %38 = icmp eq i64 %_22, 0, !dbg !1823
  br i1 %38, label %bb19, label %bb18, !dbg !1823

bb19:                                             ; preds = %bb17
  call void @llvm.memcpy.p0.p0.i64(ptr align 8 %val2, ptr align 8 %_21, i64 16, i1 false), !dbg !1825
  store i8 0, ptr %_34, align 1, !dbg !1839
  %39 = invoke { i64, ptr } @_ZN10serde_json2de12ParserNumber5visit17hb462f3968d496a9fE(ptr align 8 %val2)
          to label %bb33 unwind label %cleanup, !dbg !1840

bb18:                                             ; preds = %bb17
  %40 = getelementptr inbounds i8, ptr %_21, i64 8, !dbg !1828
  %err6 = load ptr, ptr %40, align 8, !dbg !1828
  store ptr %err6, ptr %err.dbg.spill7, align 8, !dbg !1828
    #dbg_declare(ptr %err.dbg.spill7, !1789, !DIExpression(), !1841)
  %41 = getelementptr inbounds i8, ptr %_0, i64 8, !dbg !1842
  store ptr %err6, ptr %41, align 8, !dbg !1842
  store i64 1, ptr %_0, align 8, !dbg !1842
  br label %bb26, !dbg !1831

bb33:                                             ; preds = %bb19
  %42 = extractvalue { i64, ptr } %39, 0, !dbg !1840
  %43 = extractvalue { i64, ptr } %39, 1, !dbg !1840
  store i64 %42, ptr %value, align 8, !dbg !1840
  %44 = getelementptr inbounds i8, ptr %value, i64 8, !dbg !1840
  store ptr %43, ptr %44, align 8, !dbg !1840
  br label %bb21, !dbg !1840

bb23:                                             ; preds = %bb21
  %45 = getelementptr inbounds i8, ptr %value, i64 8, !dbg !1843
  %value3 = load i64, ptr %45, align 8, !dbg !1843
  store i64 %value3, ptr %value.dbg.spill, align 8, !dbg !1843
    #dbg_declare(ptr %value.dbg.spill, !1791, !DIExpression(), !1844)
  %46 = getelementptr inbounds i8, ptr %_0, i64 8, !dbg !1845
  store i64 %value3, ptr %46, align 8, !dbg !1845
  store i64 0, ptr %_0, align 8, !dbg !1845
  br label %bb25, !dbg !1846

bb22:                                             ; preds = %bb21
  %47 = getelementptr inbounds i8, ptr %value, i64 8, !dbg !1847
  %err4 = load ptr, ptr %47, align 8, !dbg !1847
  store ptr %err4, ptr %err.dbg.spill5, align 8, !dbg !1847
    #dbg_declare(ptr %err.dbg.spill5, !1793, !DIExpression(), !1848)
  %_32 = invoke align 8 ptr @"_ZN10serde_json2de21Deserializer$LT$R$GT$12fix_position17he413c6a0ebbf1ff6E"(ptr align 8 %self, ptr align 8 %err4)
          to label %bb24 unwind label %cleanup, !dbg !1849

bb25:                                             ; preds = %bb24, %bb23
  %48 = load i8, ptr %_34, align 1, !dbg !1803
  %49 = trunc i8 %48 to i1, !dbg !1803
  br i1 %49, label %bb29, label %bb27, !dbg !1803

bb24:                                             ; preds = %bb22
  %50 = getelementptr inbounds i8, ptr %_0, i64 8, !dbg !1850
  store ptr %_32, ptr %50, align 8, !dbg !1850
  store i64 1, ptr %_0, align 8, !dbg !1850
  br label %bb25, !dbg !1851

bb27:                                             ; preds = %bb29, %bb25, %bb26
  %51 = load i64, ptr %_0, align 8, !dbg !1852
  %52 = getelementptr inbounds i8, ptr %_0, i64 8, !dbg !1852
  %53 = load ptr, ptr %52, align 8, !dbg !1852
  %54 = insertvalue { i64, ptr } poison, i64 %51, 0, !dbg !1852
  %55 = insertvalue { i64, ptr } %54, ptr %53, 1, !dbg !1852
  ret { i64, ptr } %55, !dbg !1852

bb29:                                             ; preds = %bb25
  br label %bb27, !dbg !1803

bb2:                                              ; No predecessors!
  unreachable, !dbg !1810

bb28:                                             ; preds = %bb30, %bb31
  %56 = load ptr, ptr %0, align 8, !dbg !1853
  %57 = getelementptr inbounds i8, ptr %0, i64 8, !dbg !1853
  %58 = load i32, ptr %57, align 8, !dbg !1853
  %59 = insertvalue { ptr, i32 } poison, ptr %56, 0, !dbg !1853
  %60 = insertvalue { ptr, i32 } %59, i32 %58, 1, !dbg !1853
  resume { ptr, i32 } %60, !dbg !1853

bb30:                                             ; preds = %bb31
  br label %bb28, !dbg !1803
}

; Function Attrs: nonlazybind uwtable
define internal void @_ZN10serde_json2de8from_str17hb9e1bcc44eaefe5aE(ptr sret([24 x i8]) align 8 %_0, ptr align 1 %s.0, i64 %s.1) unnamed_addr #0 !dbg !1854 {
start:
  %s.dbg.spill = alloca [16 x i8], align 8
  %_2 = alloca [24 x i8], align 8
  store ptr %s.0, ptr %s.dbg.spill, align 8
  %0 = getelementptr inbounds i8, ptr %s.dbg.spill, i64 8
  store i64 %s.1, ptr %0, align 8
    #dbg_declare(ptr %s.dbg.spill, !1858, !DIExpression(), !1860)
  call void @_ZN10serde_json4read7StrRead3new17ha89b36731706638dE(ptr sret([24 x i8]) align 8 %_2, ptr align 1 %s.0, i64 %s.1), !dbg !1861
  call void @_ZN10serde_json2de10from_trait17h123354186b39d4c1E(ptr sret([24 x i8]) align 8 %_0, ptr align 8 %_2), !dbg !1862
  ret void, !dbg !1863
}

; Function Attrs: nonlazybind uwtable
define internal void @_ZN10serde_json2de8from_str17hccd12fa74df04055E(ptr sret([48 x i8]) align 8 %_0, ptr align 1 %s.0, i64 %s.1) unnamed_addr #0 !dbg !1864 {
start:
  %s.dbg.spill = alloca [16 x i8], align 8
  %_2 = alloca [24 x i8], align 8
  store ptr %s.0, ptr %s.dbg.spill, align 8
  %0 = getelementptr inbounds i8, ptr %s.dbg.spill, i64 8
  store i64 %s.1, ptr %0, align 8
    #dbg_declare(ptr %s.dbg.spill, !1868, !DIExpression(), !1869)
  call void @_ZN10serde_json4read7StrRead3new17ha89b36731706638dE(ptr sret([24 x i8]) align 8 %_2, ptr align 1 %s.0, i64 %s.1), !dbg !1870
  call void @_ZN10serde_json2de10from_trait17hf290f9642ab3f313E(ptr sret([48 x i8]) align 8 %_0, ptr align 8 %_2), !dbg !1871
  ret void, !dbg !1872
}

; Function Attrs: inlinehint nonlazybind uwtable
define internal void @_ZN10serde_json3ser6to_vec17hb2825631b4deb322E(ptr sret([24 x i8]) align 8 %_0, ptr align 8 %value) unnamed_addr #1 personality ptr @rust_eh_personality !dbg !1873 {
start:
  %err.dbg.spill = alloca [8 x i8], align 8
  %0 = alloca [16 x i8], align 8
  %val.dbg.spill = alloca [0 x i8], align 1
  %value.dbg.spill = alloca [8 x i8], align 8
  %_7 = alloca [24 x i8], align 8
  %_3 = alloca [8 x i8], align 8
  %writer = alloca [24 x i8], align 8
  store ptr %value, ptr %value.dbg.spill, align 8
    #dbg_declare(ptr %value.dbg.spill, !1897, !DIExpression(), !1906)
    #dbg_declare(ptr %writer, !1898, !DIExpression(), !1907)
    #dbg_declare(ptr %val.dbg.spill, !1900, !DIExpression(), !1908)
  call void @"_ZN5alloc3vec12Vec$LT$T$GT$13with_capacity17h22ec58aa2fbb2066E"(ptr sret([24 x i8]) align 8 %writer, i64 128, ptr align 8 @alloc_ae52e422ab29884b58622d79788975fe), !dbg !1909
  %1 = invoke align 8 ptr @_ZN10serde_json3ser9to_writer17h3cda1a979bd9a145E(ptr align 8 %writer, ptr align 8 %value)
          to label %bb2 unwind label %cleanup, !dbg !1910

bb7:                                              ; preds = %cleanup
  invoke void @"_ZN4core3ptr46drop_in_place$LT$alloc..vec..Vec$LT$u8$GT$$GT$17h1e425b946ab324c0E"(ptr align 8 %writer) #25
          to label %bb8 unwind label %terminate, !dbg !1911

cleanup:                                          ; preds = %start
  %2 = landingpad { ptr, i32 }
          cleanup
  %3 = extractvalue { ptr, i32 } %2, 0
  %4 = extractvalue { ptr, i32 } %2, 1
  store ptr %3, ptr %0, align 8
  %5 = getelementptr inbounds i8, ptr %0, i64 8
  store i32 %4, ptr %5, align 8
  br label %bb7

bb2:                                              ; preds = %start
  store ptr %1, ptr %_3, align 8, !dbg !1910
  %6 = load ptr, ptr %_3, align 8, !dbg !1910
  %7 = ptrtoint ptr %6 to i64, !dbg !1910
  %8 = icmp eq i64 %7, 0, !dbg !1910
  %_5 = select i1 %8, i64 0, i64 1, !dbg !1910
  %9 = icmp eq i64 %_5, 0, !dbg !1912
  br i1 %9, label %bb5, label %bb4, !dbg !1912

bb5:                                              ; preds = %bb2
  call void @llvm.memcpy.p0.p0.i64(ptr align 8 %_7, ptr align 8 %writer, i64 24, i1 false), !dbg !1914
  call void @llvm.memcpy.p0.p0.i64(ptr align 8 %_0, ptr align 8 %_7, i64 24, i1 false), !dbg !1915
  br label %bb6, !dbg !1916

bb4:                                              ; preds = %bb2
  %err = load ptr, ptr %_3, align 8, !dbg !1917
  store ptr %err, ptr %err.dbg.spill, align 8, !dbg !1917
    #dbg_declare(ptr %err.dbg.spill, !1902, !DIExpression(), !1918)
  %10 = getelementptr inbounds i8, ptr %_0, i64 8, !dbg !1919
  store ptr %err, ptr %10, align 8, !dbg !1919
  store i64 -9223372036854775808, ptr %_0, align 8, !dbg !1919
  call void @"_ZN4core3ptr46drop_in_place$LT$alloc..vec..Vec$LT$u8$GT$$GT$17h1e425b946ab324c0E"(ptr align 8 %writer), !dbg !1911
  br label %bb6, !dbg !1911

bb6:                                              ; preds = %bb4, %bb5
  ret void, !dbg !1916

bb3:                                              ; No predecessors!
  unreachable, !dbg !1910

terminate:                                        ; preds = %bb7
  %11 = landingpad { ptr, i32 }
          filter [0 x ptr] zeroinitializer
  %12 = extractvalue { ptr, i32 } %11, 0
  %13 = extractvalue { ptr, i32 } %11, 1
  call void @_ZN4core9panicking16panic_in_cleanup17hdb19dc6496e5af6eE() #26, !dbg !1920
  unreachable, !dbg !1920

bb8:                                              ; preds = %bb7
  %14 = load ptr, ptr %0, align 8, !dbg !1920
  %15 = getelementptr inbounds i8, ptr %0, i64 8, !dbg !1920
  %16 = load i32, ptr %15, align 8, !dbg !1920
  %17 = insertvalue { ptr, i32 } poison, ptr %14, 0, !dbg !1920
  %18 = insertvalue { ptr, i32 } %17, i32 %16, 1, !dbg !1920
  resume { ptr, i32 } %18, !dbg !1920
}

; Function Attrs: inlinehint nonlazybind uwtable
define internal ptr @_ZN10serde_json3ser9Formatter9write_i6417h5a97a873cefa81aaE(ptr align 1 %self, ptr align 8 %writer, i64 %value) unnamed_addr #1 !dbg !1921 {
start:
  %self.dbg.spill.i = alloca [16 x i8], align 8
  %s.dbg.spill = alloca [16 x i8], align 8
  %value.dbg.spill = alloca [8 x i8], align 8
  %writer.dbg.spill = alloca [8 x i8], align 8
  %self.dbg.spill = alloca [8 x i8], align 8
  %buffer = alloca [40 x i8], align 1
  store ptr %self, ptr %self.dbg.spill, align 8
    #dbg_declare(ptr %self.dbg.spill, !1945, !DIExpression(), !1969)
  store ptr %writer, ptr %writer.dbg.spill, align 8
    #dbg_declare(ptr %writer.dbg.spill, !1946, !DIExpression(), !1970)
  store i64 %value, ptr %value.dbg.spill, align 8
    #dbg_declare(ptr %value.dbg.spill, !1947, !DIExpression(), !1971)
    #dbg_declare(ptr %buffer, !1948, !DIExpression(), !1972)
  call void @_ZN4itoa6Buffer3new17h6b664e4ce7339da7E(ptr sret([40 x i8]) align 1 %buffer), !dbg !1973
  %0 = call { ptr, i64 } @_ZN4itoa6Buffer6format17h903916b0e50d2d35E(ptr align 1 %buffer, i64 %value), !dbg !1974
  %s.0 = extractvalue { ptr, i64 } %0, 0, !dbg !1974
  %s.1 = extractvalue { ptr, i64 } %0, 1, !dbg !1974
  store ptr %s.0, ptr %s.dbg.spill, align 8, !dbg !1974
  %1 = getelementptr inbounds i8, ptr %s.dbg.spill, i64 8, !dbg !1974
  store i64 %s.1, ptr %1, align 8, !dbg !1974
    #dbg_declare(ptr %s.dbg.spill, !1964, !DIExpression(), !1975)
  store ptr %s.0, ptr %self.dbg.spill.i, align 8
  %2 = getelementptr inbounds i8, ptr %self.dbg.spill.i, i64 8
  store i64 %s.1, ptr %2, align 8
    #dbg_declare(ptr %self.dbg.spill.i, !1976, !DIExpression(), !1984)
  %_7.0 = extractvalue { ptr, i64 } %0, 0, !dbg !1986
  %_7.1 = extractvalue { ptr, i64 } %0, 1, !dbg !1986
  %_0 = call ptr @"_ZN3std2io5impls58_$LT$impl$u20$std..io..Write$u20$for$u20$$RF$mut$u20$W$GT$9write_all17h8818109b78c785e3E"(ptr align 8 %writer, ptr align 1 %_7.0, i64 %_7.1), !dbg !1987
  ret ptr %_0, !dbg !1988
}

; Function Attrs: inlinehint nonlazybind uwtable
define internal void @_ZN10serde_json3ser9to_string17h98ed8e0f13c2ca17E(ptr sret([24 x i8]) align 8 %_0, ptr align 8 %value) unnamed_addr #1 personality ptr @rust_eh_personality !dbg !1989 {
start:
  %err.dbg.spill = alloca [8 x i8], align 8
  %0 = alloca [16 x i8], align 8
  %value.dbg.spill = alloca [8 x i8], align 8
  %_9 = alloca [1 x i8], align 1
  %_8 = alloca [24 x i8], align 8
  %string = alloca [24 x i8], align 8
  %val = alloca [24 x i8], align 8
  %_3 = alloca [24 x i8], align 8
  %vec = alloca [24 x i8], align 8
  store ptr %value, ptr %value.dbg.spill, align 8
    #dbg_declare(ptr %value.dbg.spill, !2007, !DIExpression(), !2016)
    #dbg_declare(ptr %vec, !2008, !DIExpression(), !2017)
    #dbg_declare(ptr %val, !2010, !DIExpression(), !2018)
    #dbg_declare(ptr %string, !2014, !DIExpression(), !2019)
  store i8 0, ptr %_9, align 1, !dbg !2020
  call void @_ZN10serde_json3ser6to_vec17hb2825631b4deb322E(ptr sret([24 x i8]) align 8 %_3, ptr align 8 %value), !dbg !2021
  %1 = load i64, ptr %_3, align 8, !dbg !2021
  %2 = icmp eq i64 %1, -9223372036854775808, !dbg !2021
  %_4 = select i1 %2, i64 1, i64 0, !dbg !2021
  %3 = icmp eq i64 %_4, 0, !dbg !2022
  br i1 %3, label %bb4, label %bb3, !dbg !2022

bb4:                                              ; preds = %start
  call void @llvm.memcpy.p0.p0.i64(ptr align 8 %val, ptr align 8 %_3, i64 24, i1 false), !dbg !2024
  store i8 1, ptr %_9, align 1, !dbg !2025
  call void @llvm.memcpy.p0.p0.i64(ptr align 8 %vec, ptr align 8 %val, i64 24, i1 false), !dbg !2025
  store i8 0, ptr %_9, align 1, !dbg !2026
  call void @llvm.memcpy.p0.p0.i64(ptr align 8 %_8, ptr align 8 %vec, i64 24, i1 false), !dbg !2026
  invoke void @_ZN5alloc6string6String19from_utf8_unchecked17ha889d710b0aa5792E(ptr sret([24 x i8]) align 8 %string, ptr align 8 %_8)
          to label %bb5 unwind label %cleanup, !dbg !2027

bb3:                                              ; preds = %start
  %4 = getelementptr inbounds i8, ptr %_3, i64 8, !dbg !2028
  %err = load ptr, ptr %4, align 8, !dbg !2028
  store ptr %err, ptr %err.dbg.spill, align 8, !dbg !2028
    #dbg_declare(ptr %err.dbg.spill, !2012, !DIExpression(), !2029)
  %5 = getelementptr inbounds i8, ptr %_0, i64 8, !dbg !2030
  store ptr %err, ptr %5, align 8, !dbg !2030
  store i64 -9223372036854775808, ptr %_0, align 8, !dbg !2030
  store i8 0, ptr %_9, align 1, !dbg !2031
  br label %bb6, !dbg !2032

bb9:                                              ; preds = %cleanup
  %6 = load i8, ptr %_9, align 1, !dbg !2031
  %7 = trunc i8 %6 to i1, !dbg !2031
  br i1 %7, label %bb8, label %bb7, !dbg !2031

cleanup:                                          ; preds = %bb4
  %8 = landingpad { ptr, i32 }
          cleanup
  %9 = extractvalue { ptr, i32 } %8, 0
  %10 = extractvalue { ptr, i32 } %8, 1
  store ptr %9, ptr %0, align 8
  %11 = getelementptr inbounds i8, ptr %0, i64 8
  store i32 %10, ptr %11, align 8
  br label %bb9

bb5:                                              ; preds = %bb4
  call void @llvm.memcpy.p0.p0.i64(ptr align 8 %_0, ptr align 8 %string, i64 24, i1 false), !dbg !2033
  store i8 0, ptr %_9, align 1, !dbg !2031
  br label %bb6, !dbg !2032

bb6:                                              ; preds = %bb5, %bb3
  ret void, !dbg !2032

bb7:                                              ; preds = %bb8, %bb9
  %12 = load ptr, ptr %0, align 8, !dbg !2034
  %13 = getelementptr inbounds i8, ptr %0, i64 8, !dbg !2034
  %14 = load i32, ptr %13, align 8, !dbg !2034
  %15 = insertvalue { ptr, i32 } poison, ptr %12, 0, !dbg !2034
  %16 = insertvalue { ptr, i32 } %15, i32 %14, 1, !dbg !2034
  resume { ptr, i32 } %16, !dbg !2034

bb8:                                              ; preds = %bb9
  invoke void @"_ZN4core3ptr46drop_in_place$LT$alloc..vec..Vec$LT$u8$GT$$GT$17h1e425b946ab324c0E"(ptr align 8 %vec) #25
          to label %bb7 unwind label %terminate, !dbg !2031

terminate:                                        ; preds = %bb8
  %17 = landingpad { ptr, i32 }
          filter [0 x ptr] zeroinitializer
  %18 = extractvalue { ptr, i32 } %17, 0
  %19 = extractvalue { ptr, i32 } %17, 1
  call void @_ZN4core9panicking16panic_in_cleanup17hdb19dc6496e5af6eE() #26, !dbg !2034
  unreachable, !dbg !2034

bb2:                                              ; No predecessors!
  unreachable, !dbg !2021
}

; Function Attrs: inlinehint nonlazybind uwtable
define internal align 8 ptr @_ZN10serde_json3ser9to_writer17h3cda1a979bd9a145E(ptr align 8 %writer, ptr align 8 %value) unnamed_addr #1 personality ptr @rust_eh_personality !dbg !2035 {
start:
  %0 = alloca [16 x i8], align 8
  %value.dbg.spill = alloca [8 x i8], align 8
  %writer.dbg.spill = alloca [8 x i8], align 8
  %ser = alloca [8 x i8], align 8
  store ptr %writer, ptr %writer.dbg.spill, align 8
    #dbg_declare(ptr %writer.dbg.spill, !2053, !DIExpression(), !2064)
  store ptr %value, ptr %value.dbg.spill, align 8
    #dbg_declare(ptr %value.dbg.spill, !2054, !DIExpression(), !2065)
    #dbg_declare(ptr %ser, !2055, !DIExpression(), !2066)
  %1 = call align 8 ptr @"_ZN10serde_json3ser19Serializer$LT$W$GT$3new17h90407324e4aed7a1E"(ptr align 8 %writer), !dbg !2067
  store ptr %1, ptr %ser, align 8, !dbg !2067
  %_0 = invoke align 8 ptr @"_ZN11OpenFaaSRPC1_92_$LT$impl$u20$serde..ser..Serialize$u20$for$u20$OpenFaaSRPC..SocialGraphGetFollowersArgs$GT$9serialize17ha519a9c99004ecfeE"(ptr align 8 %value, ptr align 8 %ser)
          to label %bb2 unwind label %cleanup, !dbg !2068

bb4:                                              ; preds = %cleanup
  %2 = load ptr, ptr %0, align 8, !dbg !2069
  %3 = getelementptr inbounds i8, ptr %0, i64 8, !dbg !2069
  %4 = load i32, ptr %3, align 8, !dbg !2069
  %5 = insertvalue { ptr, i32 } poison, ptr %2, 0, !dbg !2069
  %6 = insertvalue { ptr, i32 } %5, i32 %4, 1, !dbg !2069
  resume { ptr, i32 } %6, !dbg !2069

cleanup:                                          ; preds = %start
  %7 = landingpad { ptr, i32 }
          cleanup
  %8 = extractvalue { ptr, i32 } %7, 0
  %9 = extractvalue { ptr, i32 } %7, 1
  store ptr %8, ptr %0, align 8
  %10 = getelementptr inbounds i8, ptr %0, i64 8
  store i32 %9, ptr %10, align 8
  br label %bb4

bb2:                                              ; preds = %start
  ret ptr %_0, !dbg !2070
}

; Function Attrs: inlinehint nonlazybind uwtable
define internal align 8 ptr @"_ZN110_$LT$core..slice..iter..Iter$LT$T$GT$$u20$as$u20$core..iter..traits..unchecked_iterator..UncheckedIterator$GT$14next_unchecked17h6bc2f3ac55371156E"(ptr align 8 %self) unnamed_addr #1 !dbg !2071 {
start:
  %self.dbg.spill.i2.i = alloca [8 x i8], align 8
  %count.dbg.spill.i.i = alloca [8 x i8], align 8
  %self.dbg.spill.i1.i1 = alloca [8 x i8], align 8
  %self.dbg.spill.i.i2 = alloca [8 x i8], align 8
  %_end.dbg.spill.i = alloca [8 x i8], align 8
  %old.dbg.spill.i = alloca [8 x i8], align 8
  %offset.dbg.spill.i = alloca [8 x i8], align 8
  %self.dbg.spill.i3 = alloca [8 x i8], align 8
  %self.dbg.spill.i1.i = alloca [8 x i8], align 8
  %self.dbg.spill.i.i = alloca [8 x i8], align 8
  %self.dbg.spill.i = alloca [8 x i8], align 8
  %self.dbg.spill = alloca [8 x i8], align 8
  %_3 = alloca [8 x i8], align 8
  store ptr %self, ptr %self.dbg.spill, align 8
    #dbg_declare(ptr %self.dbg.spill, !2078, !DIExpression(), !2079)
  store ptr %self, ptr %self.dbg.spill.i3, align 8
    #dbg_declare(ptr %self.dbg.spill.i3, !2080, !DIExpression(), !2095)
  store i64 1, ptr %offset.dbg.spill.i, align 8
    #dbg_declare(ptr %offset.dbg.spill.i, !2086, !DIExpression(), !2097)
  %old.i = load ptr, ptr %self, align 8, !dbg !2098
  store ptr %old.i, ptr %old.dbg.spill.i, align 8, !dbg !2098
    #dbg_declare(ptr %old.dbg.spill.i, !2087, !DIExpression(), !2099)
  %_10.i = getelementptr inbounds i8, ptr %self, i64 8, !dbg !2100
  store ptr %_10.i, ptr %self.dbg.spill.i.i2, align 8
    #dbg_declare(ptr %self.dbg.spill.i.i2, !2101, !DIExpression(), !2114)
  store ptr %_10.i, ptr %_end.dbg.spill.i, align 8, !dbg !2116
    #dbg_declare(ptr %_end.dbg.spill.i, !2092, !DIExpression(), !2117)
  %_12.i = load ptr, ptr %self, align 8, !dbg !2118
  store ptr %_12.i, ptr %self.dbg.spill.i1.i1, align 8
    #dbg_declare(ptr %self.dbg.spill.i1.i1, !1404, !DIExpression(), !2119)
  store i64 1, ptr %count.dbg.spill.i.i, align 8
    #dbg_declare(ptr %count.dbg.spill.i.i, !1411, !DIExpression(), !2121)
  store ptr %_12.i, ptr %self.dbg.spill.i2.i, align 8
    #dbg_declare(ptr %self.dbg.spill.i2.i, !1415, !DIExpression(), !2122)
  %_3.i.i = getelementptr inbounds i64, ptr %_12.i, i64 1, !dbg !2124
  store ptr %_3.i.i, ptr %self, align 8, !dbg !2125
  store ptr %old.i, ptr %_3, align 8, !dbg !2126
  store ptr %_3, ptr %self.dbg.spill.i, align 8
    #dbg_declare(ptr %self.dbg.spill.i, !2127, !DIExpression(), !2134)
  %_4.i = load ptr, ptr %_3, align 8, !dbg !2136
  store ptr %_4.i, ptr %self.dbg.spill.i1.i, align 8
    #dbg_declare(ptr %self.dbg.spill.i1.i, !1415, !DIExpression(), !2137)
  store ptr %_4.i, ptr %self.dbg.spill.i.i, align 8
    #dbg_declare(ptr %self.dbg.spill.i.i, !2139, !DIExpression(), !2144)
  ret ptr %_4.i, !dbg !2146
}

; Function Attrs: nonlazybind uwtable
define internal void @"_ZN111_$LT$alloc..vec..Vec$LT$T$GT$$u20$as$u20$alloc..vec..spec_from_iter_nested..SpecFromIterNested$LT$T$C$I$GT$$GT$9from_iter17h83719e7bc275a987E"(ptr sret([24 x i8]) align 8 %_0, ptr align 8 %iterator, ptr align 8 %0) unnamed_addr #0 personality ptr @rust_eh_personality !dbg !2147 {
start:
  %1 = alloca [8 x i8], align 8
  %rhs.dbg.spill.i = alloca [8 x i8], align 8
  %self.dbg.spill.i = alloca [8 x i8], align 8
  %initial_capacity.dbg.spill = alloca [8 x i8], align 8
  %lower.dbg.spill = alloca [8 x i8], align 8
  %element.dbg.spill = alloca [8 x i8], align 8
  %2 = alloca [16 x i8], align 8
  %_23 = alloca [1 x i8], align 1
  %_22 = alloca [1 x i8], align 1
  %_21 = alloca [64 x i8], align 8
  %vector1 = alloca [24 x i8], align 8
  %_8 = alloca [24 x i8], align 8
  %_3 = alloca [16 x i8], align 8
  %vector = alloca [24 x i8], align 8
    #dbg_declare(ptr %iterator, !2154, !DIExpression(), !2167)
    #dbg_declare(ptr %vector, !2155, !DIExpression(), !2168)
    #dbg_declare(ptr %vector1, !2163, !DIExpression(), !2169)
  store i8 0, ptr %_23, align 1, !dbg !2170
  store i8 0, ptr %_22, align 1, !dbg !2170
  store i8 1, ptr %_23, align 1, !dbg !2170
  %3 = invoke { i64, i64 } @"_ZN102_$LT$core..iter..adapters..map..Map$LT$I$C$F$GT$$u20$as$u20$core..iter..traits..iterator..Iterator$GT$4next17h555a95cb623b314fE"(ptr align 8 %iterator)
          to label %bb1 unwind label %cleanup, !dbg !2171

bb21:                                             ; preds = %bb18, %bb15, %bb19, %cleanup
  %4 = load i8, ptr %_23, align 1, !dbg !2172
  %5 = trunc i8 %4 to i1, !dbg !2172
  br i1 %5, label %bb20, label %bb17, !dbg !2172

cleanup:                                          ; preds = %bb4, %start
  %6 = landingpad { ptr, i32 }
          cleanup
  %7 = extractvalue { ptr, i32 } %6, 0
  %8 = extractvalue { ptr, i32 } %6, 1
  store ptr %7, ptr %2, align 8
  %9 = getelementptr inbounds i8, ptr %2, i64 8
  store i32 %8, ptr %9, align 8
  br label %bb21

bb1:                                              ; preds = %start
  %10 = extractvalue { i64, i64 } %3, 0, !dbg !2171
  %11 = extractvalue { i64, i64 } %3, 1, !dbg !2171
  store i64 %10, ptr %_3, align 8, !dbg !2171
  %12 = getelementptr inbounds i8, ptr %_3, i64 8, !dbg !2171
  store i64 %11, ptr %12, align 8, !dbg !2171
  %_5 = load i64, ptr %_3, align 8, !dbg !2171
  %13 = icmp eq i64 %_5, 0, !dbg !2173
  br i1 %13, label %bb4, label %bb3, !dbg !2173

bb4:                                              ; preds = %bb1
  invoke void @"_ZN5alloc3vec12Vec$LT$T$GT$3new17hb2858c229ba00576E"(ptr sret([24 x i8]) align 8 %_0)
          to label %bb13 unwind label %cleanup, !dbg !2174

bb3:                                              ; preds = %bb1
  store i8 1, ptr %_22, align 1, !dbg !2175
  %14 = getelementptr inbounds i8, ptr %_3, i64 8, !dbg !2175
  %element = load i64, ptr %14, align 8, !dbg !2175
  store i64 %element, ptr %element.dbg.spill, align 8, !dbg !2175
    #dbg_declare(ptr %element.dbg.spill, !2157, !DIExpression(), !2176)
  invoke void @"_ZN102_$LT$core..iter..adapters..map..Map$LT$I$C$F$GT$$u20$as$u20$core..iter..traits..iterator..Iterator$GT$9size_hint17he2532d2051fed240E"(ptr sret([24 x i8]) align 8 %_8, ptr align 8 %iterator)
          to label %bb5 unwind label %cleanup2, !dbg !2177

bb13:                                             ; preds = %bb4
  call void @"_ZN4core3ptr160drop_in_place$LT$core..iter..adapters..map..Map$LT$std..collections..hash..map..IntoIter$LT$i64$C$bool$GT$$C$function..main..$u7b$$u7b$closure$u7d$$u7d$$GT$$GT$17hcee1aeadf5857054E"(ptr align 8 %iterator), !dbg !2172
  br label %bb14, !dbg !2172

bb14:                                             ; preds = %bb12, %bb13
  ret void, !dbg !2178

bb19:                                             ; preds = %bb16, %cleanup2
  %15 = load i8, ptr %_22, align 1, !dbg !2179
  %16 = trunc i8 %15 to i1, !dbg !2179
  br i1 %16, label %bb18, label %bb21, !dbg !2179

cleanup2:                                         ; preds = %bb7, %bb6, %bb3
  %17 = landingpad { ptr, i32 }
          cleanup
  %18 = extractvalue { ptr, i32 } %17, 0
  %19 = extractvalue { ptr, i32 } %17, 1
  store ptr %18, ptr %2, align 8
  %20 = getelementptr inbounds i8, ptr %2, i64 8
  store i32 %19, ptr %20, align 8
  br label %bb19

bb5:                                              ; preds = %bb3
  %lower = load i64, ptr %_8, align 8, !dbg !2180
  store i64 %lower, ptr %lower.dbg.spill, align 8, !dbg !2180
    #dbg_declare(ptr %lower.dbg.spill, !2159, !DIExpression(), !2181)
  store i64 %lower, ptr %self.dbg.spill.i, align 8
    #dbg_declare(ptr %self.dbg.spill.i, !2182, !DIExpression(), !2190)
  store i64 1, ptr %rhs.dbg.spill.i, align 8
    #dbg_declare(ptr %rhs.dbg.spill.i, !2189, !DIExpression(), !2192)
  %21 = call i64 @llvm.uadd.sat.i64(i64 %lower, i64 1), !dbg !2193
  store i64 %21, ptr %1, align 8, !dbg !2193
  %_0.i = load i64, ptr %1, align 8, !dbg !2193
  br label %bb6, !dbg !2194

bb6:                                              ; preds = %bb5
  %initial_capacity = invoke i64 @_ZN4core3cmp3max17h1fa10ef14ed6b42bE(i64 4, i64 %_0.i)
          to label %bb7 unwind label %cleanup2, !dbg !2195

bb7:                                              ; preds = %bb6
  store i64 %initial_capacity, ptr %initial_capacity.dbg.spill, align 8, !dbg !2195
    #dbg_declare(ptr %initial_capacity.dbg.spill, !2161, !DIExpression(), !2196)
  invoke void @"_ZN5alloc3vec12Vec$LT$T$GT$13with_capacity17hc8862a335add72abE"(ptr sret([24 x i8]) align 8 %vector1, i64 %initial_capacity, ptr align 8 %0)
          to label %bb8 unwind label %cleanup2, !dbg !2197

bb8:                                              ; preds = %bb7
  %_14 = invoke ptr @"_ZN5alloc3vec16Vec$LT$T$C$A$GT$10as_mut_ptr17hf5deb706541c9974E"(ptr align 8 %vector1)
          to label %bb9 unwind label %cleanup3, !dbg !2198

bb16:                                             ; preds = %cleanup3
  invoke void @"_ZN4core3ptr47drop_in_place$LT$alloc..vec..Vec$LT$i64$GT$$GT$17h45a35d44e4fb44aaE"(ptr align 8 %vector1) #25
          to label %bb19 unwind label %terminate, !dbg !2199

cleanup3:                                         ; preds = %bb10, %bb9, %bb8
  %22 = landingpad { ptr, i32 }
          cleanup
  %23 = extractvalue { ptr, i32 } %22, 0
  %24 = extractvalue { ptr, i32 } %22, 1
  store ptr %23, ptr %2, align 8
  %25 = getelementptr inbounds i8, ptr %2, i64 8
  store i32 %24, ptr %25, align 8
  br label %bb16

bb9:                                              ; preds = %bb8
  store i8 0, ptr %_22, align 1, !dbg !2200
  invoke void @_ZN4core3ptr5write17h9529a603ae8b83c6E(ptr %_14, i64 %element)
          to label %bb10 unwind label %cleanup3, !dbg !2201

bb10:                                             ; preds = %bb9
  invoke void @"_ZN5alloc3vec16Vec$LT$T$C$A$GT$7set_len17h15de3b37910aed94E"(ptr align 8 %vector1, i64 1)
          to label %bb11 unwind label %cleanup3, !dbg !2202

bb11:                                             ; preds = %bb10
  call void @llvm.memcpy.p0.p0.i64(ptr align 8 %vector, ptr align 8 %vector1, i64 24, i1 false), !dbg !2203
  store i8 0, ptr %_22, align 1, !dbg !2179
  store i8 0, ptr %_23, align 1, !dbg !2204
  call void @llvm.memcpy.p0.p0.i64(ptr align 8 %_21, ptr align 8 %iterator, i64 64, i1 false), !dbg !2204
  invoke void @"_ZN97_$LT$alloc..vec..Vec$LT$T$C$A$GT$$u20$as$u20$alloc..vec..spec_extend..SpecExtend$LT$T$C$I$GT$$GT$11spec_extend17h2e27c6b323c46386E"(ptr align 8 %vector, ptr align 8 %_21, ptr align 8 %0)
          to label %bb12 unwind label %cleanup4, !dbg !2205

bb15:                                             ; preds = %cleanup4
  invoke void @"_ZN4core3ptr47drop_in_place$LT$alloc..vec..Vec$LT$i64$GT$$GT$17h45a35d44e4fb44aaE"(ptr align 8 %vector) #25
          to label %bb21 unwind label %terminate, !dbg !2172

cleanup4:                                         ; preds = %bb11
  %26 = landingpad { ptr, i32 }
          cleanup
  %27 = extractvalue { ptr, i32 } %26, 0
  %28 = extractvalue { ptr, i32 } %26, 1
  store ptr %27, ptr %2, align 8
  %29 = getelementptr inbounds i8, ptr %2, i64 8
  store i32 %28, ptr %29, align 8
  br label %bb15

bb12:                                             ; preds = %bb11
  call void @llvm.memcpy.p0.p0.i64(ptr align 8 %_0, ptr align 8 %vector, i64 24, i1 false), !dbg !2206
  br label %bb14, !dbg !2172

terminate:                                        ; preds = %bb20, %bb15, %bb16
  %30 = landingpad { ptr, i32 }
          filter [0 x ptr] zeroinitializer
  %31 = extractvalue { ptr, i32 } %30, 0
  %32 = extractvalue { ptr, i32 } %30, 1
  call void @_ZN4core9panicking16panic_in_cleanup17hdb19dc6496e5af6eE() #26, !dbg !2207
  unreachable, !dbg !2207

bb18:                                             ; preds = %bb19
  br label %bb21, !dbg !2179

bb2:                                              ; No predecessors!
  unreachable, !dbg !2171

bb17:                                             ; preds = %bb20, %bb21
  %33 = load ptr, ptr %2, align 8, !dbg !2207
  %34 = getelementptr inbounds i8, ptr %2, i64 8, !dbg !2207
  %35 = load i32, ptr %34, align 8, !dbg !2207
  %36 = insertvalue { ptr, i32 } poison, ptr %33, 0, !dbg !2207
  %37 = insertvalue { ptr, i32 } %36, i32 %35, 1, !dbg !2207
  resume { ptr, i32 } %37, !dbg !2207

bb20:                                             ; preds = %bb21
  invoke void @"_ZN4core3ptr160drop_in_place$LT$core..iter..adapters..map..Map$LT$std..collections..hash..map..IntoIter$LT$i64$C$bool$GT$$C$function..main..$u7b$$u7b$closure$u7d$$u7d$$GT$$GT$17hcee1aeadf5857054E"(ptr align 8 %iterator) #25
          to label %bb17 unwind label %terminate, !dbg !2172
}

; Function Attrs: nonlazybind uwtable
define internal { i64, ptr } @"_ZN114_$LT$serde..__private..de..missing_field..MissingFieldDeserializer$LT$E$GT$$u20$as$u20$serde..de..Deserializer$GT$15deserialize_any17h19386182b3941653E"(ptr align 1 %self.0, i64 %self.1) unnamed_addr #0 personality ptr @rust_eh_personality !dbg !2208 {
start:
  %0 = alloca [16 x i8], align 8
  %_visitor.dbg.spill = alloca [0 x i8], align 1
  %self.dbg.spill = alloca [16 x i8], align 8
  %_0 = alloca [16 x i8], align 8
  store ptr %self.0, ptr %self.dbg.spill, align 8
  %1 = getelementptr inbounds i8, ptr %self.dbg.spill, i64 8
  store i64 %self.1, ptr %1, align 8
    #dbg_declare(ptr %self.dbg.spill, !2225, !DIExpression(), !2228)
    #dbg_declare(ptr %_visitor.dbg.spill, !2226, !DIExpression(), !2229)
  %_3 = invoke align 8 ptr @_ZN5serde2de5Error13missing_field17h989730a1cdfd45faE(ptr align 1 %self.0, i64 %self.1)
          to label %bb1 unwind label %cleanup, !dbg !2230

bb3:                                              ; preds = %cleanup
  %2 = load ptr, ptr %0, align 8, !dbg !2231
  %3 = getelementptr inbounds i8, ptr %0, i64 8, !dbg !2231
  %4 = load i32, ptr %3, align 8, !dbg !2231
  %5 = insertvalue { ptr, i32 } poison, ptr %2, 0, !dbg !2231
  %6 = insertvalue { ptr, i32 } %5, i32 %4, 1, !dbg !2231
  resume { ptr, i32 } %6, !dbg !2231

cleanup:                                          ; preds = %start
  %7 = landingpad { ptr, i32 }
          cleanup
  %8 = extractvalue { ptr, i32 } %7, 0
  %9 = extractvalue { ptr, i32 } %7, 1
  store ptr %8, ptr %0, align 8
  %10 = getelementptr inbounds i8, ptr %0, i64 8
  store i32 %9, ptr %10, align 8
  br label %bb3

bb1:                                              ; preds = %start
  %11 = getelementptr inbounds i8, ptr %_0, i64 8, !dbg !2232
  store ptr %_3, ptr %11, align 8, !dbg !2232
  store i64 1, ptr %_0, align 8, !dbg !2232
  %12 = load i64, ptr %_0, align 8, !dbg !2233
  %13 = getelementptr inbounds i8, ptr %_0, i64 8, !dbg !2233
  %14 = load ptr, ptr %13, align 8, !dbg !2233
  %15 = insertvalue { i64, ptr } poison, i64 %12, 0, !dbg !2233
  %16 = insertvalue { i64, ptr } %15, ptr %14, 1, !dbg !2233
  ret { i64, ptr } %16, !dbg !2233
}

; Function Attrs: nonlazybind uwtable
define internal void @"_ZN114_$LT$serde..__private..de..missing_field..MissingFieldDeserializer$LT$E$GT$$u20$as$u20$serde..de..Deserializer$GT$15deserialize_any17hfeade76406b4bfebE"(ptr sret([24 x i8]) align 8 %_0, ptr align 1 %self.0, i64 %self.1) unnamed_addr #0 personality ptr @rust_eh_personality !dbg !2234 {
start:
  %0 = alloca [16 x i8], align 8
  %_visitor.dbg.spill = alloca [0 x i8], align 1
  %self.dbg.spill = alloca [16 x i8], align 8
  store ptr %self.0, ptr %self.dbg.spill, align 8
  %1 = getelementptr inbounds i8, ptr %self.dbg.spill, i64 8
  store i64 %self.1, ptr %1, align 8
    #dbg_declare(ptr %self.dbg.spill, !2238, !DIExpression(), !2242)
    #dbg_declare(ptr %_visitor.dbg.spill, !2239, !DIExpression(), !2243)
  %_3 = invoke align 8 ptr @_ZN5serde2de5Error13missing_field17h989730a1cdfd45faE(ptr align 1 %self.0, i64 %self.1)
          to label %bb1 unwind label %cleanup, !dbg !2244

bb3:                                              ; preds = %cleanup
  %2 = load ptr, ptr %0, align 8, !dbg !2245
  %3 = getelementptr inbounds i8, ptr %0, i64 8, !dbg !2245
  %4 = load i32, ptr %3, align 8, !dbg !2245
  %5 = insertvalue { ptr, i32 } poison, ptr %2, 0, !dbg !2245
  %6 = insertvalue { ptr, i32 } %5, i32 %4, 1, !dbg !2245
  resume { ptr, i32 } %6, !dbg !2245

cleanup:                                          ; preds = %start
  %7 = landingpad { ptr, i32 }
          cleanup
  %8 = extractvalue { ptr, i32 } %7, 0
  %9 = extractvalue { ptr, i32 } %7, 1
  store ptr %8, ptr %0, align 8
  %10 = getelementptr inbounds i8, ptr %0, i64 8
  store i32 %9, ptr %10, align 8
  br label %bb3

bb1:                                              ; preds = %start
  %11 = getelementptr inbounds i8, ptr %_0, i64 8, !dbg !2246
  store ptr %_3, ptr %11, align 8, !dbg !2246
  store i64 -9223372036854775808, ptr %_0, align 8, !dbg !2246
  ret void, !dbg !2247
}

; Function Attrs: inlinehint nonlazybind uwtable
define internal { i64, ptr } @"_ZN114_$LT$serde..__private..de..missing_field..MissingFieldDeserializer$LT$E$GT$$u20$as$u20$serde..de..Deserializer$GT$15deserialize_i6417hea568337d8ae6b0dE"(ptr align 1 %self.0, i64 %self.1) unnamed_addr #1 !dbg !2248 {
start:
  %visitor.dbg.spill = alloca [0 x i8], align 1
  %self.dbg.spill = alloca [16 x i8], align 8
  store ptr %self.0, ptr %self.dbg.spill, align 8
  %0 = getelementptr inbounds i8, ptr %self.dbg.spill, i64 8
  store i64 %self.1, ptr %0, align 8
    #dbg_declare(ptr %self.dbg.spill, !2251, !DIExpression(), !2253)
    #dbg_declare(ptr %visitor.dbg.spill, !2252, !DIExpression(), !2254)
  %1 = call { i64, ptr } @"_ZN114_$LT$serde..__private..de..missing_field..MissingFieldDeserializer$LT$E$GT$$u20$as$u20$serde..de..Deserializer$GT$15deserialize_any17h19386182b3941653E"(ptr align 1 %self.0, i64 %self.1), !dbg !2255
  %_0.0 = extractvalue { i64, ptr } %1, 0, !dbg !2255
  %_0.1 = extractvalue { i64, ptr } %1, 1, !dbg !2255
  %2 = insertvalue { i64, ptr } poison, i64 %_0.0, 0, !dbg !2256
  %3 = insertvalue { i64, ptr } %2, ptr %_0.1, 1, !dbg !2256
  ret { i64, ptr } %3, !dbg !2256
}

; Function Attrs: inlinehint nonlazybind uwtable
define internal void @"_ZN114_$LT$serde..__private..de..missing_field..MissingFieldDeserializer$LT$E$GT$$u20$as$u20$serde..de..Deserializer$GT$15deserialize_seq17h221779084b05fafdE"(ptr sret([24 x i8]) align 8 %_0, ptr align 1 %self.0, i64 %self.1) unnamed_addr #1 !dbg !2257 {
start:
  %visitor.dbg.spill = alloca [0 x i8], align 1
  %self.dbg.spill = alloca [16 x i8], align 8
  store ptr %self.0, ptr %self.dbg.spill, align 8
  %0 = getelementptr inbounds i8, ptr %self.dbg.spill, i64 8
  store i64 %self.1, ptr %0, align 8
    #dbg_declare(ptr %self.dbg.spill, !2259, !DIExpression(), !2261)
    #dbg_declare(ptr %visitor.dbg.spill, !2260, !DIExpression(), !2262)
  call void @"_ZN114_$LT$serde..__private..de..missing_field..MissingFieldDeserializer$LT$E$GT$$u20$as$u20$serde..de..Deserializer$GT$15deserialize_any17hfeade76406b4bfebE"(ptr sret([24 x i8]) align 8 %_0, ptr align 1 %self.0, i64 %self.1), !dbg !2263
  ret void, !dbg !2264
}

; Function Attrs: inlinehint nonlazybind uwtable
define internal void @"_ZN115_$LT$core..panic..unwind_safe..AssertUnwindSafe$LT$F$GT$$u20$as$u20$core..ops..function..FnOnce$LT$$LP$$RP$$GT$$GT$9call_once17h623793413f319c37E"(ptr sret([24 x i8]) align 8 %_0, ptr align 8 %self) unnamed_addr #1 !dbg !2265 {
start:
  %_args.dbg.spill = alloca [0 x i8], align 1
  %_3 = alloca [56 x i8], align 8
  %_2 = alloca [0 x i8], align 1
    #dbg_declare(ptr %self, !2282, !DIExpression(), !2288)
    #dbg_declare(ptr %_2, !2284, !DIExpression(), !2289)
    #dbg_declare(ptr %_args.dbg.spill, !2283, !DIExpression(), !2289)
  call void @llvm.memcpy.p0.p0.i64(ptr align 8 %_3, ptr align 8 %self, i64 56, i1 false), !dbg !2290
  call void @"_ZN3std6thread7Builder16spawn_unchecked_28_$u7b$$u7b$closure$u7d$$u7d$28_$u7b$$u7b$closure$u7d$$u7d$17hfdfbf6c19197b2b6E"(ptr sret([24 x i8]) align 8 %_0, ptr align 8 %_3), !dbg !2290
  ret void, !dbg !2291
}

; Function Attrs: inlinehint nonlazybind uwtable
define internal void @"_ZN115_$LT$core..panic..unwind_safe..AssertUnwindSafe$LT$F$GT$$u20$as$u20$core..ops..function..FnOnce$LT$$LP$$RP$$GT$$GT$9call_once17hd84e122fada2f251E"(ptr align 8 %self) unnamed_addr #1 !dbg !2292 {
start:
  %_args.dbg.spill = alloca [0 x i8], align 1
  %self.dbg.spill = alloca [8 x i8], align 8
  %_2 = alloca [0 x i8], align 1
  store ptr %self, ptr %self.dbg.spill, align 8
    #dbg_declare(ptr %self.dbg.spill, !2307, !DIExpression(), !2313)
    #dbg_declare(ptr %_2, !2309, !DIExpression(), !2314)
    #dbg_declare(ptr %_args.dbg.spill, !2308, !DIExpression(), !2314)
  call void @_ZN4core3ops8function6FnOnce9call_once17hb19b1d2d007c960eE(ptr align 8 %self), !dbg !2315
  ret void, !dbg !2316
}

; Function Attrs: inlinehint nonlazybind uwtable
define internal void @"_ZN115_$LT$std..collections..hash..map..HashMap$LT$K$C$V$C$S$GT$$u20$as$u20$core..iter..traits..collect..IntoIterator$GT$9into_iter17h6df178ab0c9d4c01E"(ptr sret([64 x i8]) align 8 %_0, ptr align 8 %self) unnamed_addr #1 !dbg !2317 {
start:
  %_3 = alloca [48 x i8], align 8
  %_2 = alloca [64 x i8], align 8
    #dbg_declare(ptr %self, !2326, !DIExpression(), !2327)
  call void @llvm.memcpy.p0.p0.i64(ptr align 8 %_3, ptr align 8 %self, i64 48, i1 false), !dbg !2328
  call void @"_ZN106_$LT$hashbrown..map..HashMap$LT$K$C$V$C$S$C$A$GT$$u20$as$u20$core..iter..traits..collect..IntoIterator$GT$9into_iter17h9c0d0937594c7d79E"(ptr sret([64 x i8]) align 8 %_2, ptr align 8 %_3), !dbg !2328
  call void @llvm.memcpy.p0.p0.i64(ptr align 8 %_0, ptr align 8 %_2, i64 64, i1 false), !dbg !2329
  ret void, !dbg !2330
}

; Function Attrs: nonlazybind uwtable
define internal void @"_ZN11OpenFaaSRPC1_87_$LT$impl$u20$serde..de..Deserialize$u20$for$u20$OpenFaaSRPC..WriteHomeTimelineArgs$GT$11deserialize17hdf4aa00a32c44e10E"(ptr sret([48 x i8]) align 8 %_0, ptr align 8 %__deserializer) unnamed_addr #0 !dbg !2331 {
start:
  %__deserializer.dbg.spill = alloca [8 x i8], align 8
  store ptr %__deserializer, ptr %__deserializer.dbg.spill, align 8
    #dbg_declare(ptr %__deserializer.dbg.spill, !2336, !DIExpression(), !2339)
  call void @"_ZN93_$LT$$RF$mut$u20$serde_json..de..Deserializer$LT$R$GT$$u20$as$u20$serde..de..Deserializer$GT$18deserialize_struct17hd8506d104685e225E"(ptr sret([48 x i8]) align 8 %_0, ptr align 8 %__deserializer, ptr align 1 @alloc_8654d27ce1e18ede425bdb1be5d1281e, i64 21, ptr align 8 @alloc_dc8a1e9508bc8619093e97c08425e5c3, i64 4), !dbg !2339
  ret void, !dbg !2340
}

; Function Attrs: nonlazybind uwtable
define internal align 8 ptr @"_ZN11OpenFaaSRPC1_92_$LT$impl$u20$serde..ser..Serialize$u20$for$u20$OpenFaaSRPC..SocialGraphGetFollowersArgs$GT$9serialize17ha519a9c99004ecfeE"(ptr align 8 %self, ptr align 8 %__serializer) unnamed_addr #0 personality ptr @rust_eh_personality !dbg !2341 {
start:
  %residual.dbg.spill4 = alloca [8 x i8], align 8
  %residual.dbg.spill = alloca [8 x i8], align 8
  %val.dbg.spill1 = alloca [16 x i8], align 8
  %0 = alloca [16 x i8], align 8
  %val.dbg.spill = alloca [0 x i8], align 1
  %__serializer.dbg.spill = alloca [8 x i8], align 8
  %self.dbg.spill = alloca [8 x i8], align 8
  %_21 = alloca [1 x i8], align 1
  %_20 = alloca [1 x i8], align 1
  %_13 = alloca [8 x i8], align 8
  %_5 = alloca [16 x i8], align 8
  %_4 = alloca [16 x i8], align 8
  %__serde_state = alloca [16 x i8], align 8
  %_0 = alloca [8 x i8], align 8
  store ptr %self, ptr %self.dbg.spill, align 8
    #dbg_declare(ptr %self.dbg.spill, !2346, !DIExpression(), !2387)
  store ptr %__serializer, ptr %__serializer.dbg.spill, align 8
    #dbg_declare(ptr %__serializer.dbg.spill, !2347, !DIExpression(), !2387)
    #dbg_declare(ptr %__serde_state, !2348, !DIExpression(), !2388)
    #dbg_declare(ptr %val.dbg.spill, !2383, !DIExpression(), !2389)
  store i8 0, ptr %_20, align 1, !dbg !2387
  store i8 0, ptr %_21, align 1, !dbg !2387
  store i8 1, ptr %_21, align 1, !dbg !2387
  %1 = call { i64, i1 } @llvm.uadd.with.overflow.i64(i64 0, i64 1), !dbg !2387
  %_9.0 = extractvalue { i64, i1 } %1, 0, !dbg !2387
  %_9.1 = extractvalue { i64, i1 } %1, 1, !dbg !2387
  br i1 %_9.1, label %panic, label %bb1, !dbg !2387

bb1:                                              ; preds = %start
  store i8 0, ptr %_21, align 1, !dbg !2387
  invoke void @"_ZN95_$LT$$RF$mut$u20$serde_json..ser..Serializer$LT$W$C$F$GT$$u20$as$u20$serde..ser..Serializer$GT$16serialize_struct17hfc79fd10f03752aaE"(ptr sret([16 x i8]) align 8 %_5, ptr align 8 %__serializer, ptr align 1 @alloc_1fcba90cb36554639964cdfaa443ba11, i64 27, i64 %_9.0)
          to label %bb2 unwind label %cleanup, !dbg !2387

panic:                                            ; preds = %start
  invoke void @_ZN4core9panicking11panic_const24panic_const_add_overflow17hba62940e649c8158E(ptr align 8 @alloc_ae52e422ab29884b58622d79788975fe) #27
          to label %unreachable unwind label %cleanup, !dbg !2387

bb19:                                             ; preds = %cleanup
  %2 = load i8, ptr %_21, align 1, !dbg !2390
  %3 = trunc i8 %2 to i1, !dbg !2390
  br i1 %3, label %bb18, label %bb15, !dbg !2390

cleanup:                                          ; preds = %panic, %bb1
  %4 = landingpad { ptr, i32 }
          cleanup
  %5 = extractvalue { ptr, i32 } %4, 0
  %6 = extractvalue { ptr, i32 } %4, 1
  store ptr %5, ptr %0, align 8
  %7 = getelementptr inbounds i8, ptr %0, i64 8
  store i32 %6, ptr %7, align 8
  br label %bb19

unreachable:                                      ; preds = %panic
  unreachable

bb2:                                              ; preds = %bb1
  store i8 0, ptr %_21, align 1, !dbg !2390
  call void @"_ZN79_$LT$core..result..Result$LT$T$C$E$GT$$u20$as$u20$core..ops..try_trait..Try$GT$6branch17h196497c317708be0E"(ptr sret([16 x i8]) align 8 %_4, ptr align 8 %_5), !dbg !2387
  %8 = getelementptr inbounds i8, ptr %_4, i64 8, !dbg !2387
  %9 = load i8, ptr %8, align 8, !dbg !2387
  %10 = icmp eq i8 %9, 3, !dbg !2387
  %_10 = select i1 %10, i64 1, i64 0, !dbg !2387
  %11 = icmp eq i64 %_10, 0, !dbg !2387
  br i1 %11, label %bb5, label %bb6, !dbg !2387

bb5:                                              ; preds = %bb2
  %val.0 = load ptr, ptr %_4, align 8, !dbg !2387
  %12 = getelementptr inbounds i8, ptr %_4, i64 8, !dbg !2387
  %val.1 = load i8, ptr %12, align 8, !dbg !2387
  store ptr %val.0, ptr %val.dbg.spill1, align 8, !dbg !2387
  %13 = getelementptr inbounds i8, ptr %val.dbg.spill1, i64 8, !dbg !2387
  store i8 %val.1, ptr %13, align 8, !dbg !2387
    #dbg_declare(ptr %val.dbg.spill1, !2379, !DIExpression(), !2391)
  store i8 1, ptr %_20, align 1, !dbg !2391
  store ptr %val.0, ptr %__serde_state, align 8, !dbg !2391
  %14 = getelementptr inbounds i8, ptr %__serde_state, i64 8, !dbg !2391
  store i8 %val.1, ptr %14, align 8, !dbg !2391
  %_14 = invoke align 8 ptr @"_ZN86_$LT$serde_json..ser..Compound$LT$W$C$F$GT$$u20$as$u20$serde..ser..SerializeStruct$GT$15serialize_field17h428be01e74c508e6E"(ptr align 8 %__serde_state, ptr align 1 @alloc_17c2596754a11fa444906090c11cb050, i64 7, ptr align 8 %self)
          to label %bb7 unwind label %cleanup2, !dbg !2388

bb6:                                              ; preds = %bb2
  %residual3 = load ptr, ptr %_4, align 8, !dbg !2390
  store ptr %residual3, ptr %residual.dbg.spill4, align 8, !dbg !2390
    #dbg_declare(ptr %residual.dbg.spill4, !2359, !DIExpression(), !2392)
  %15 = call align 8 ptr @"_ZN153_$LT$core..result..Result$LT$T$C$F$GT$$u20$as$u20$core..ops..try_trait..FromResidual$LT$core..result..Result$LT$core..convert..Infallible$C$E$GT$$GT$$GT$13from_residual17h39c0fed3bdebb70dE"(ptr align 8 %residual3, ptr align 8 @alloc_ae52e422ab29884b58622d79788975fe), !dbg !2393
  store ptr %15, ptr %_0, align 8, !dbg !2393
  br label %bb13, !dbg !2393

bb17:                                             ; preds = %cleanup2
  %16 = load i8, ptr %_20, align 1, !dbg !2390
  %17 = trunc i8 %16 to i1, !dbg !2390
  br i1 %17, label %bb16, label %bb15, !dbg !2390

cleanup2:                                         ; preds = %bb10, %bb9, %bb7, %bb5
  %18 = landingpad { ptr, i32 }
          cleanup
  %19 = extractvalue { ptr, i32 } %18, 0
  %20 = extractvalue { ptr, i32 } %18, 1
  store ptr %19, ptr %0, align 8
  %21 = getelementptr inbounds i8, ptr %0, i64 8
  store i32 %20, ptr %21, align 8
  br label %bb17

bb7:                                              ; preds = %bb5
  %22 = invoke align 8 ptr @"_ZN79_$LT$core..result..Result$LT$T$C$E$GT$$u20$as$u20$core..ops..try_trait..Try$GT$6branch17h9d437323e742c28dE"(ptr align 8 %_14)
          to label %bb8 unwind label %cleanup2, !dbg !2388

bb8:                                              ; preds = %bb7
  store ptr %22, ptr %_13, align 8, !dbg !2388
  %23 = load ptr, ptr %_13, align 8, !dbg !2388
  %24 = ptrtoint ptr %23 to i64, !dbg !2388
  %25 = icmp eq i64 %24, 0, !dbg !2388
  %_17 = select i1 %25, i64 0, i64 1, !dbg !2388
  %26 = icmp eq i64 %_17, 0, !dbg !2388
  br i1 %26, label %bb9, label %bb10, !dbg !2388

bb9:                                              ; preds = %bb8
  store i8 0, ptr %_20, align 1, !dbg !2388
  %_19.0 = load ptr, ptr %__serde_state, align 8, !dbg !2388
  %27 = getelementptr inbounds i8, ptr %__serde_state, i64 8, !dbg !2388
  %_19.1 = load i8, ptr %27, align 8, !dbg !2388
  %28 = invoke align 8 ptr @"_ZN86_$LT$serde_json..ser..Compound$LT$W$C$F$GT$$u20$as$u20$serde..ser..SerializeStruct$GT$3end17hf0cbec84f8d805dbE"(ptr align 8 %_19.0, i8 %_19.1)
          to label %bb12 unwind label %cleanup2, !dbg !2388

bb10:                                             ; preds = %bb8
  %residual = load ptr, ptr %_13, align 8, !dbg !2394
  store ptr %residual, ptr %residual.dbg.spill, align 8, !dbg !2394
    #dbg_declare(ptr %residual.dbg.spill, !2381, !DIExpression(), !2395)
  %29 = invoke align 8 ptr @"_ZN153_$LT$core..result..Result$LT$T$C$F$GT$$u20$as$u20$core..ops..try_trait..FromResidual$LT$core..result..Result$LT$core..convert..Infallible$C$E$GT$$GT$$GT$13from_residual17h39c0fed3bdebb70dE"(ptr align 8 %residual, ptr align 8 @alloc_ae52e422ab29884b58622d79788975fe)
          to label %bb11 unwind label %cleanup2, !dbg !2396

bb12:                                             ; preds = %bb9
  store ptr %28, ptr %_0, align 8, !dbg !2388
  store i8 0, ptr %_20, align 1, !dbg !2390
  br label %bb14, !dbg !2390

bb14:                                             ; preds = %bb13, %bb12
  %30 = load ptr, ptr %_0, align 8, !dbg !2397
  ret ptr %30, !dbg !2397

bb11:                                             ; preds = %bb10
  store ptr %29, ptr %_0, align 8, !dbg !2396
  br label %bb13, !dbg !2390

bb13:                                             ; preds = %bb11, %bb6
  store i8 0, ptr %_20, align 1, !dbg !2390
  br label %bb14, !dbg !2390

bb15:                                             ; preds = %bb18, %bb16, %bb17, %bb19
  %31 = load ptr, ptr %0, align 8, !dbg !2387
  %32 = getelementptr inbounds i8, ptr %0, i64 8, !dbg !2387
  %33 = load i32, ptr %32, align 8, !dbg !2387
  %34 = insertvalue { ptr, i32 } poison, ptr %31, 0, !dbg !2387
  %35 = insertvalue { ptr, i32 } %34, i32 %33, 1, !dbg !2387
  resume { ptr, i32 } %35, !dbg !2387

bb16:                                             ; preds = %bb17
  br label %bb15, !dbg !2390

bb4:                                              ; No predecessors!
  unreachable, !dbg !2398

bb18:                                             ; preds = %bb19
  br label %bb15, !dbg !2390
}

; Function Attrs: nonlazybind uwtable
define internal void @"_ZN121_$LT$hashbrown..map..HashMap$LT$K$C$V$C$S$C$A$GT$$u20$as$u20$core..iter..traits..collect..Extend$LT$$LP$K$C$V$RP$$GT$$GT$6extend17h1d39b49d61fe30a3E"(ptr align 8 %self, ptr %iter.0, ptr %iter.1) unnamed_addr #0 personality ptr @rust_eh_personality !dbg !2400 {
start:
  %0 = alloca [16 x i8], align 8
  %iter.dbg.spill = alloca [16 x i8], align 8
  %self.dbg.spill = alloca [8 x i8], align 8
  %_20 = alloca [1 x i8], align 1
  %_11 = alloca [24 x i8], align 8
  %_7 = alloca [24 x i8], align 8
  %reserve = alloca [8 x i8], align 8
  %iter = alloca [16 x i8], align 8
  store ptr %self, ptr %self.dbg.spill, align 8
    #dbg_declare(ptr %self.dbg.spill, !2404, !DIExpression(), !2412)
  store ptr %iter.0, ptr %iter.dbg.spill, align 8
  %1 = getelementptr inbounds i8, ptr %iter.dbg.spill, i64 8
  store ptr %iter.1, ptr %1, align 8
    #dbg_declare(ptr %iter.dbg.spill, !2405, !DIExpression(), !2413)
    #dbg_declare(ptr %iter, !2406, !DIExpression(), !2414)
    #dbg_declare(ptr %reserve, !2408, !DIExpression(), !2415)
  store i8 0, ptr %_20, align 1, !dbg !2416
  %2 = call { ptr, ptr } @"_ZN63_$LT$I$u20$as$u20$core..iter..traits..collect..IntoIterator$GT$9into_iter17h7ffc40af2e674a8eE"(ptr %iter.0, ptr %iter.1), !dbg !2417
  %3 = extractvalue { ptr, ptr } %2, 0, !dbg !2417
  %4 = extractvalue { ptr, ptr } %2, 1, !dbg !2417
  store ptr %3, ptr %iter, align 8, !dbg !2417
  %5 = getelementptr inbounds i8, ptr %iter, i64 8, !dbg !2417
  store ptr %4, ptr %5, align 8, !dbg !2417
  store i8 1, ptr %_20, align 1, !dbg !2418
  %_5 = invoke zeroext i1 @"_ZN9hashbrown3map28HashMap$LT$K$C$V$C$S$C$A$GT$8is_empty17hb3b1ae6fc9a3fe16E"(ptr align 8 %self)
          to label %bb2 unwind label %cleanup, !dbg !2419

bb14:                                             ; preds = %cleanup
  %6 = load i8, ptr %_20, align 1, !dbg !2420
  %7 = trunc i8 %6 to i1, !dbg !2420
  br i1 %7, label %bb13, label %bb12, !dbg !2420

cleanup:                                          ; preds = %bb10, %bb9, %panic, %bb3, %bb5, %start
  %8 = landingpad { ptr, i32 }
          cleanup
  %9 = extractvalue { ptr, i32 } %8, 0
  %10 = extractvalue { ptr, i32 } %8, 1
  store ptr %9, ptr %0, align 8
  %11 = getelementptr inbounds i8, ptr %0, i64 8
  store i32 %10, ptr %11, align 8
  br label %bb14

bb2:                                              ; preds = %start
  br i1 %_5, label %bb3, label %bb5, !dbg !2419

bb5:                                              ; preds = %bb2
  invoke void @"_ZN102_$LT$core..iter..adapters..map..Map$LT$I$C$F$GT$$u20$as$u20$core..iter..traits..iterator..Iterator$GT$9size_hint17hb4a79ae0fd5233acE"(ptr sret([24 x i8]) align 8 %_11, ptr align 8 %iter)
          to label %bb6 unwind label %cleanup, !dbg !2421

bb3:                                              ; preds = %bb2
  invoke void @"_ZN102_$LT$core..iter..adapters..map..Map$LT$I$C$F$GT$$u20$as$u20$core..iter..traits..iterator..Iterator$GT$9size_hint17hb4a79ae0fd5233acE"(ptr sret([24 x i8]) align 8 %_7, ptr align 8 %iter)
          to label %bb4 unwind label %cleanup, !dbg !2422

bb6:                                              ; preds = %bb5
  %_10 = load i64, ptr %_11, align 8, !dbg !2421
  %12 = call { i64, i1 } @llvm.uadd.with.overflow.i64(i64 %_10, i64 1), !dbg !2423
  %_13.0 = extractvalue { i64, i1 } %12, 0, !dbg !2423
  %_13.1 = extractvalue { i64, i1 } %12, 1, !dbg !2423
  br i1 %_13.1, label %panic, label %bb7, !dbg !2423

bb7:                                              ; preds = %bb6
  br label %bb8, !dbg !2423

panic:                                            ; preds = %bb6
  invoke void @_ZN4core9panicking11panic_const24panic_const_add_overflow17hba62940e649c8158E(ptr align 8 @alloc_ae52e422ab29884b58622d79788975fe) #27
          to label %unreachable unwind label %cleanup, !dbg !2423

unreachable:                                      ; preds = %panic
  unreachable

bb8:                                              ; preds = %bb7
  %13 = udiv i64 %_13.0, 2, !dbg !2423
  store i64 %13, ptr %reserve, align 8, !dbg !2423
  br label %bb9, !dbg !2424

bb9:                                              ; preds = %bb4, %bb8
  %_16 = load i64, ptr %reserve, align 8, !dbg !2425
  invoke void @"_ZN9hashbrown3map28HashMap$LT$K$C$V$C$S$C$A$GT$7reserve17h7c304a0eb5f0038dE"(ptr align 8 %self, i64 %_16)
          to label %bb10 unwind label %cleanup, !dbg !2426

bb4:                                              ; preds = %bb3
  %14 = load i64, ptr %_7, align 8, !dbg !2422
  store i64 %14, ptr %reserve, align 8, !dbg !2422
  br label %bb9, !dbg !2424

bb10:                                             ; preds = %bb9
  store i8 0, ptr %_20, align 1, !dbg !2427
  %_18.0 = load ptr, ptr %iter, align 8, !dbg !2427
  %15 = getelementptr inbounds i8, ptr %iter, i64 8, !dbg !2427
  %_18.1 = load ptr, ptr %15, align 8, !dbg !2427
  invoke void @_ZN4core4iter6traits8iterator8Iterator8for_each17h7e3a5ba7ef55afe7E(ptr %_18.0, ptr %_18.1, ptr align 8 %self)
          to label %bb11 unwind label %cleanup, !dbg !2427

bb11:                                             ; preds = %bb10
  store i8 0, ptr %_20, align 1, !dbg !2420
  ret void, !dbg !2428

bb12:                                             ; preds = %bb13, %bb14
  %16 = load ptr, ptr %0, align 8, !dbg !2429
  %17 = getelementptr inbounds i8, ptr %0, i64 8, !dbg !2429
  %18 = load i32, ptr %17, align 8, !dbg !2429
  %19 = insertvalue { ptr, i32 } poison, ptr %16, 0, !dbg !2429
  %20 = insertvalue { ptr, i32 } %19, i32 %18, 1, !dbg !2429
  resume { ptr, i32 } %20, !dbg !2429

bb13:                                             ; preds = %bb14
  br label %bb12, !dbg !2420
}

; Function Attrs: inlinehint nonlazybind uwtable
define internal void @"_ZN121_$LT$hashbrown..map..HashMap$LT$K$C$V$C$S$C$A$GT$$u20$as$u20$core..iter..traits..collect..Extend$LT$$LP$K$C$V$RP$$GT$$GT$6extend28_$u7b$$u7b$closure$u7d$$u7d$17h827ffc4a136c3e0dE"(ptr align 8 %_1, i64 %_2.0, i1 zeroext %_2.1) unnamed_addr #1 !dbg !2430 {
start:
  %v.dbg.spill = alloca [1 x i8], align 1
  %k.dbg.spill = alloca [8 x i8], align 8
  %_2.dbg.spill = alloca [16 x i8], align 8
  %_1.dbg.spill = alloca [8 x i8], align 8
  store ptr %_1, ptr %_1.dbg.spill, align 8
    #dbg_declare(ptr %_1.dbg.spill, !2435, !DIExpression(DW_OP_deref), !2440)
  store i64 %_2.0, ptr %_2.dbg.spill, align 8
  %0 = getelementptr inbounds i8, ptr %_2.dbg.spill, i64 8
  %1 = zext i1 %_2.1 to i8
  store i8 %1, ptr %0, align 8
    #dbg_declare(ptr %_2.dbg.spill, !2439, !DIExpression(), !2441)
  store i64 %_2.0, ptr %k.dbg.spill, align 8, !dbg !2442
    #dbg_declare(ptr %k.dbg.spill, !2436, !DIExpression(), !2443)
  %2 = zext i1 %_2.1 to i8, !dbg !2444
  store i8 %2, ptr %v.dbg.spill, align 1, !dbg !2444
    #dbg_declare(ptr %v.dbg.spill, !2438, !DIExpression(), !2445)
  %_6 = load ptr, ptr %_1, align 8, !dbg !2446
  %_5 = call i8 @"_ZN9hashbrown3map28HashMap$LT$K$C$V$C$S$C$A$GT$6insert17h63e2be1d6bf49034E"(ptr align 8 %_6, i64 %_2.0, i1 zeroext %_2.1), !dbg !2446
  ret void, !dbg !2447
}

; Function Attrs: inlinehint nonlazybind uwtable
define internal void @"_ZN130_$LT$std..collections..hash..map..HashMap$LT$K$C$V$C$S$GT$$u20$as$u20$core..iter..traits..collect..Extend$LT$$LP$K$C$V$RP$$GT$$GT$6extend17h71ff68327b0a3331E"(ptr align 8 %self, ptr %iter.0, ptr %iter.1) unnamed_addr #1 !dbg !2448 {
start:
  %iter.dbg.spill = alloca [16 x i8], align 8
  %self.dbg.spill = alloca [8 x i8], align 8
  store ptr %self, ptr %self.dbg.spill, align 8
    #dbg_declare(ptr %self.dbg.spill, !2454, !DIExpression(), !2457)
  store ptr %iter.0, ptr %iter.dbg.spill, align 8
  %0 = getelementptr inbounds i8, ptr %iter.dbg.spill, i64 8
  store ptr %iter.1, ptr %0, align 8
    #dbg_declare(ptr %iter.dbg.spill, !2455, !DIExpression(), !2458)
  call void @"_ZN121_$LT$hashbrown..map..HashMap$LT$K$C$V$C$S$C$A$GT$$u20$as$u20$core..iter..traits..collect..Extend$LT$$LP$K$C$V$RP$$GT$$GT$6extend17h1d39b49d61fe30a3E"(ptr align 8 %self, ptr %iter.0, ptr %iter.1), !dbg !2459
  ret void, !dbg !2460
}

; Function Attrs: nonlazybind uwtable
define internal void @"_ZN136_$LT$std..collections..hash..map..HashMap$LT$K$C$V$C$S$GT$$u20$as$u20$core..iter..traits..collect..FromIterator$LT$$LP$K$C$V$RP$$GT$$GT$9from_iter17h7f4d5bdab44b8c3cE"(ptr sret([48 x i8]) align 8 %_0, ptr %iter.0, ptr %iter.1) unnamed_addr #0 personality ptr @rust_eh_personality !dbg !2461 {
start:
  %0 = alloca [16 x i8], align 8
  %iter.dbg.spill = alloca [16 x i8], align 8
  %_7 = alloca [1 x i8], align 1
  %map = alloca [48 x i8], align 8
  store ptr %iter.0, ptr %iter.dbg.spill, align 8
  %1 = getelementptr inbounds i8, ptr %iter.dbg.spill, i64 8
  store ptr %iter.1, ptr %1, align 8
    #dbg_declare(ptr %iter.dbg.spill, !2466, !DIExpression(), !2469)
    #dbg_declare(ptr %map, !2467, !DIExpression(), !2470)
  store i8 0, ptr %_7, align 1, !dbg !2471
  store i8 1, ptr %_7, align 1, !dbg !2471
  %2 = invoke { i64, i64 } @"_ZN73_$LT$std..hash..random..RandomState$u20$as$u20$core..default..Default$GT$7default17hf0ef9427ef850f47E"()
          to label %bb1 unwind label %cleanup, !dbg !2472

bb7:                                              ; preds = %bb4, %cleanup
  %3 = load i8, ptr %_7, align 1, !dbg !2473
  %4 = trunc i8 %3 to i1, !dbg !2473
  br i1 %4, label %bb6, label %bb5, !dbg !2473

cleanup:                                          ; preds = %bb1, %start
  %5 = landingpad { ptr, i32 }
          cleanup
  %6 = extractvalue { ptr, i32 } %5, 0
  %7 = extractvalue { ptr, i32 } %5, 1
  store ptr %6, ptr %0, align 8
  %8 = getelementptr inbounds i8, ptr %0, i64 8
  store i32 %7, ptr %8, align 8
  br label %bb7

bb1:                                              ; preds = %start
  %_3.0 = extractvalue { i64, i64 } %2, 0, !dbg !2472
  %_3.1 = extractvalue { i64, i64 } %2, 1, !dbg !2472
  invoke void @"_ZN3std11collections4hash3map24HashMap$LT$K$C$V$C$S$GT$11with_hasher17h3961d2af7679e9f8E"(ptr sret([48 x i8]) align 8 %map, i64 %_3.0, i64 %_3.1)
          to label %bb2 unwind label %cleanup, !dbg !2474

bb2:                                              ; preds = %bb1
  store i8 0, ptr %_7, align 1, !dbg !2475
  invoke void @"_ZN130_$LT$std..collections..hash..map..HashMap$LT$K$C$V$C$S$GT$$u20$as$u20$core..iter..traits..collect..Extend$LT$$LP$K$C$V$RP$$GT$$GT$6extend17h71ff68327b0a3331E"(ptr align 8 %map, ptr %iter.0, ptr %iter.1)
          to label %bb3 unwind label %cleanup1, !dbg !2476

bb4:                                              ; preds = %cleanup1
  invoke void @"_ZN4core3ptr75drop_in_place$LT$std..collections..hash..map..HashMap$LT$i64$C$bool$GT$$GT$17h4d2cb543b843e7d1E"(ptr align 8 %map) #25
          to label %bb7 unwind label %terminate, !dbg !2473

cleanup1:                                         ; preds = %bb2
  %9 = landingpad { ptr, i32 }
          cleanup
  %10 = extractvalue { ptr, i32 } %9, 0
  %11 = extractvalue { ptr, i32 } %9, 1
  store ptr %10, ptr %0, align 8
  %12 = getelementptr inbounds i8, ptr %0, i64 8
  store i32 %11, ptr %12, align 8
  br label %bb4

bb3:                                              ; preds = %bb2
  call void @llvm.memcpy.p0.p0.i64(ptr align 8 %_0, ptr align 8 %map, i64 48, i1 false), !dbg !2477
  ret void, !dbg !2478

terminate:                                        ; preds = %bb4
  %13 = landingpad { ptr, i32 }
          filter [0 x ptr] zeroinitializer
  %14 = extractvalue { ptr, i32 } %13, 0
  %15 = extractvalue { ptr, i32 } %13, 1
  call void @_ZN4core9panicking16panic_in_cleanup17hdb19dc6496e5af6eE() #26, !dbg !2479
  unreachable, !dbg !2479

bb5:                                              ; preds = %bb6, %bb7
  %16 = load ptr, ptr %0, align 8, !dbg !2479
  %17 = getelementptr inbounds i8, ptr %0, i64 8, !dbg !2479
  %18 = load i32, ptr %17, align 8, !dbg !2479
  %19 = insertvalue { ptr, i32 } poison, ptr %16, 0, !dbg !2479
  %20 = insertvalue { ptr, i32 } %19, i32 %18, 1, !dbg !2479
  resume { ptr, i32 } %20, !dbg !2479

bb6:                                              ; preds = %bb7
  br label %bb5, !dbg !2473
}

; Function Attrs: inlinehint nonlazybind uwtable
define internal { i64, ptr } @"_ZN143_$LT$serde..de..impls..$LT$impl$u20$serde..de..Deserialize$u20$for$u20$i64$GT$..deserialize..PrimitiveVisitor$u20$as$u20$serde..de..Visitor$GT$9visit_i6417hc414d91843672285E"(i64 %v) unnamed_addr #1 !dbg !2480 {
start:
  %self.dbg.spill = alloca [0 x i8], align 1
  %v.dbg.spill = alloca [8 x i8], align 8
  %_1.dbg.spill = alloca [0 x i8], align 1
  %_0 = alloca [16 x i8], align 8
    #dbg_declare(ptr %_1.dbg.spill, !2488, !DIExpression(), !2489)
  store i64 %v, ptr %v.dbg.spill, align 8
    #dbg_declare(ptr %v.dbg.spill, !2487, !DIExpression(), !2490)
    #dbg_declare(ptr %self.dbg.spill, !2486, !DIExpression(), !2489)
  %0 = getelementptr inbounds i8, ptr %_0, i64 8, !dbg !2491
  store i64 %v, ptr %0, align 8, !dbg !2491
  store i64 0, ptr %_0, align 8, !dbg !2491
  %1 = load i64, ptr %_0, align 8, !dbg !2492
  %2 = getelementptr inbounds i8, ptr %_0, i64 8, !dbg !2492
  %3 = load ptr, ptr %2, align 8, !dbg !2492
  %4 = insertvalue { i64, ptr } poison, i64 %1, 0, !dbg !2492
  %5 = insertvalue { i64, ptr } %4, ptr %3, 1, !dbg !2492
  ret { i64, ptr } %5, !dbg !2492
}

; Function Attrs: inlinehint nonlazybind uwtable
define internal { i64, ptr } @"_ZN143_$LT$serde..de..impls..$LT$impl$u20$serde..de..Deserialize$u20$for$u20$i64$GT$..deserialize..PrimitiveVisitor$u20$as$u20$serde..de..Visitor$GT$9visit_u6417h972d57260f6da7b0E"(i64 %v) unnamed_addr #1 !dbg !2493 {
start:
  %self.dbg.spill = alloca [0 x i8], align 1
  %v.dbg.spill = alloca [8 x i8], align 8
  %_8 = alloca [24 x i8], align 8
  %_0 = alloca [16 x i8], align 8
  %_1 = alloca [0 x i8], align 1
    #dbg_declare(ptr %_1, !2499, !DIExpression(), !2500)
  store i64 %v, ptr %v.dbg.spill, align 8
    #dbg_declare(ptr %v.dbg.spill, !2498, !DIExpression(), !2501)
    #dbg_declare(ptr %self.dbg.spill, !2497, !DIExpression(), !2500)
  %_3 = icmp ule i64 %v, 9223372036854775807, !dbg !2502
  br i1 %_3, label %bb2, label %bb3, !dbg !2502

bb3:                                              ; preds = %start
  %0 = getelementptr inbounds i8, ptr %_8, i64 8, !dbg !2503
  store i64 %v, ptr %0, align 8, !dbg !2503
  store i8 1, ptr %_8, align 8, !dbg !2503
  %_7 = call align 8 ptr @"_ZN61_$LT$serde_json..error..Error$u20$as$u20$serde..de..Error$GT$13invalid_value17h0bf29d44fead6507E"(ptr align 8 %_8, ptr align 1 %_1, ptr align 8 @vtable.0), !dbg !2504
  %1 = getelementptr inbounds i8, ptr %_0, i64 8, !dbg !2505
  store ptr %_7, ptr %1, align 8, !dbg !2505
  store i64 1, ptr %_0, align 8, !dbg !2505
  br label %bb5, !dbg !2506

bb2:                                              ; preds = %start
  %2 = getelementptr inbounds i8, ptr %_0, i64 8, !dbg !2507
  store i64 %v, ptr %2, align 8, !dbg !2507
  store i64 0, ptr %_0, align 8, !dbg !2507
  br label %bb5, !dbg !2506

bb5:                                              ; preds = %bb2, %bb3
  %3 = load i64, ptr %_0, align 8, !dbg !2508
  %4 = getelementptr inbounds i8, ptr %_0, i64 8, !dbg !2508
  %5 = load ptr, ptr %4, align 8, !dbg !2508
  %6 = insertvalue { i64, ptr } poison, i64 %3, 0, !dbg !2508
  %7 = insertvalue { i64, ptr } %6, ptr %5, 1, !dbg !2508
  ret { i64, ptr } %7, !dbg !2508
}

; Function Attrs: inlinehint nonlazybind uwtable
define internal { i64, i8 } @"_ZN145_$LT$core..option..Option$LT$T$GT$$u20$as$u20$core..ops..try_trait..FromResidual$LT$core..option..Option$LT$core..convert..Infallible$GT$$GT$$GT$13from_residual17h4268068127c033f6E"() unnamed_addr #1 !dbg !2509 {
start:
  %residual.dbg.spill = alloca [0 x i8], align 1
  %_1.dbg.spill = alloca [0 x i8], align 1
  %_0 = alloca [16 x i8], align 8
    #dbg_declare(ptr %_1.dbg.spill, !2527, !DIExpression(), !2528)
    #dbg_declare(ptr %residual.dbg.spill, !2526, !DIExpression(), !2528)
  %0 = getelementptr inbounds i8, ptr %_0, i64 8, !dbg !2529
  store i8 2, ptr %0, align 8, !dbg !2529
  %1 = load i64, ptr %_0, align 8, !dbg !2530
  %2 = getelementptr inbounds i8, ptr %_0, i64 8, !dbg !2530
  %3 = load i8, ptr %2, align 8, !dbg !2530
  %4 = insertvalue { i64, i8 } poison, i64 %1, 0, !dbg !2530
  %5 = insertvalue { i64, i8 } %4, i8 %3, 1, !dbg !2530
  ret { i64, i8 } %5, !dbg !2530
}

; Function Attrs: inlinehint nonlazybind uwtable
define internal void @"_ZN153_$LT$core..result..Result$LT$T$C$F$GT$$u20$as$u20$core..ops..try_trait..FromResidual$LT$core..result..Result$LT$core..convert..Infallible$C$E$GT$$GT$$GT$13from_residual17h1a95e2b843f9020aE"(ptr sret([32 x i8]) align 8 %_0, ptr %0, ptr align 8 %1) unnamed_addr #1 !dbg !2531 {
start:
  %t.dbg.spill.i = alloca [8 x i8], align 8
  %e.dbg.spill = alloca [8 x i8], align 8
  %residual = alloca [8 x i8], align 8
  store ptr %0, ptr %residual, align 8
    #dbg_declare(ptr %residual, !2577, !DIExpression(), !2582)
  %e = load ptr, ptr %residual, align 8, !dbg !2583
  store ptr %e, ptr %e.dbg.spill, align 8, !dbg !2583
    #dbg_declare(ptr %e.dbg.spill, !2578, !DIExpression(), !2584)
  store ptr %e, ptr %t.dbg.spill.i, align 8
    #dbg_declare(ptr %t.dbg.spill.i, !2585, !DIExpression(), !2594)
  %2 = getelementptr inbounds i8, ptr %_0, i64 8, !dbg !2596
  store ptr %e, ptr %2, align 8, !dbg !2596
  store i64 2, ptr %_0, align 8, !dbg !2596
  ret void, !dbg !2597
}

; Function Attrs: inlinehint nonlazybind uwtable
define internal void @"_ZN153_$LT$core..result..Result$LT$T$C$F$GT$$u20$as$u20$core..ops..try_trait..FromResidual$LT$core..result..Result$LT$core..convert..Infallible$C$E$GT$$GT$$GT$13from_residual17h64dc218e1a47f235E"(ptr sret([32 x i8]) align 8 %_0, ptr %0, ptr align 8 %1) unnamed_addr #1 !dbg !2598 {
start:
  %t.dbg.spill.i = alloca [8 x i8], align 8
  %e.dbg.spill = alloca [8 x i8], align 8
  %residual = alloca [8 x i8], align 8
  store ptr %0, ptr %residual, align 8
    #dbg_declare(ptr %residual, !2617, !DIExpression(), !2621)
  %e = load ptr, ptr %residual, align 8, !dbg !2622
  store ptr %e, ptr %e.dbg.spill, align 8, !dbg !2622
    #dbg_declare(ptr %e.dbg.spill, !2618, !DIExpression(), !2623)
  store ptr %e, ptr %t.dbg.spill.i, align 8
    #dbg_declare(ptr %t.dbg.spill.i, !2585, !DIExpression(), !2624)
  %2 = getelementptr inbounds i8, ptr %_0, i64 8, !dbg !2626
  store ptr %e, ptr %2, align 8, !dbg !2626
  store i64 2, ptr %_0, align 8, !dbg !2626
  ret void, !dbg !2627
}

; Function Attrs: inlinehint nonlazybind uwtable
define internal void @"_ZN153_$LT$core..result..Result$LT$T$C$F$GT$$u20$as$u20$core..ops..try_trait..FromResidual$LT$core..result..Result$LT$core..convert..Infallible$C$E$GT$$GT$$GT$13from_residual17ha01b68dfcc208291E"(ptr sret([48 x i8]) align 8 %_0, ptr align 8 %0, ptr align 8 %1) unnamed_addr #1 !dbg !2628 {
start:
  %t.dbg.spill.i = alloca [8 x i8], align 8
  %e.dbg.spill = alloca [8 x i8], align 8
  %residual = alloca [8 x i8], align 8
  store ptr %0, ptr %residual, align 8
    #dbg_declare(ptr %residual, !2632, !DIExpression(), !2637)
  %e = load ptr, ptr %residual, align 8, !dbg !2638
  store ptr %e, ptr %e.dbg.spill, align 8, !dbg !2638
    #dbg_declare(ptr %e.dbg.spill, !2633, !DIExpression(), !2639)
  store ptr %e, ptr %t.dbg.spill.i, align 8
    #dbg_declare(ptr %t.dbg.spill.i, !2640, !DIExpression(), !2645)
  %2 = getelementptr inbounds i8, ptr %_0, i64 8, !dbg !2647
  store ptr %e, ptr %2, align 8, !dbg !2647
  store i64 -9223372036854775808, ptr %_0, align 8, !dbg !2647
  ret void, !dbg !2648
}

; Function Attrs: inlinehint nonlazybind uwtable
define internal void @"_ZN153_$LT$core..result..Result$LT$T$C$F$GT$$u20$as$u20$core..ops..try_trait..FromResidual$LT$core..result..Result$LT$core..convert..Infallible$C$E$GT$$GT$$GT$13from_residual17hf748a8bd6b5e783bE"(ptr sret([88 x i8]) align 8 %_0, ptr align 8 %residual, ptr align 8 %0) unnamed_addr #1 !dbg !2649 {
start:
  %_3 = alloca [56 x i8], align 8
  %e = alloca [56 x i8], align 8
    #dbg_declare(ptr %residual, !2745, !DIExpression(), !2750)
    #dbg_declare(ptr %e, !2746, !DIExpression(), !2751)
  call void @llvm.memcpy.p0.p0.i64(ptr align 8 %e, ptr align 8 %residual, i64 56, i1 false), !dbg !2752
    #dbg_declare(ptr %e, !2753, !DIExpression(), !2760)
  call void @llvm.memcpy.p0.p0.i64(ptr align 8 %_3, ptr align 8 %e, i64 56, i1 false), !dbg !2762
  %1 = getelementptr inbounds i8, ptr %_0, i64 8, !dbg !2763
  call void @llvm.memcpy.p0.p0.i64(ptr align 8 %1, ptr align 8 %_3, i64 56, i1 false), !dbg !2763
  store i64 -9223372036854775807, ptr %_0, align 8, !dbg !2763
  ret void, !dbg !2764
}

; Function Attrs: nonlazybind uwtable
define internal void @"_ZN157_$LT$$LT$alloc..vec..into_iter..IntoIter$LT$T$C$A$GT$$u20$as$u20$core..ops..drop..Drop$GT$..drop..DropGuard$LT$T$C$A$GT$$u20$as$u20$core..ops..drop..Drop$GT$4drop17h01f675a211885301E"(ptr align 8 %self) unnamed_addr #0 !dbg !2765 {
start:
  %alloc.dbg.spill = alloca [0 x i8], align 1
  %self.dbg.spill = alloca [8 x i8], align 8
  %_4 = alloca [16 x i8], align 8
  store ptr %self, ptr %self.dbg.spill, align 8
    #dbg_declare(ptr %self.dbg.spill, !2776, !DIExpression(), !2779)
    #dbg_declare(ptr %alloc.dbg.spill, !2777, !DIExpression(), !2780)
  %_7 = load ptr, ptr %self, align 8, !dbg !2781
  %_3 = getelementptr inbounds i8, ptr %_7, i64 32, !dbg !2781
  call void @"_ZN4core3mem13manually_drop21ManuallyDrop$LT$T$GT$4take17h742e6c197ed76e4bE"(ptr align 1 %_3), !dbg !2782
  %_8 = load ptr, ptr %self, align 8, !dbg !2783
  %_5 = load ptr, ptr %_8, align 8, !dbg !2783
  %_9 = load ptr, ptr %self, align 8, !dbg !2784
  %0 = getelementptr inbounds i8, ptr %_9, i64 16, !dbg !2784
  %_6 = load i64, ptr %0, align 8, !dbg !2784
  %1 = call { i64, ptr } @"_ZN5alloc7raw_vec19RawVec$LT$T$C$A$GT$15from_nonnull_in17h7de263044ae17660E"(ptr %_5, i64 %_6), !dbg !2785
  %2 = extractvalue { i64, ptr } %1, 0, !dbg !2785
  %3 = extractvalue { i64, ptr } %1, 1, !dbg !2785
  store i64 %2, ptr %_4, align 8, !dbg !2785
  %4 = getelementptr inbounds i8, ptr %_4, i64 8, !dbg !2785
  store ptr %3, ptr %4, align 8, !dbg !2785
  call void @"_ZN4core3ptr54drop_in_place$LT$alloc..raw_vec..RawVec$LT$i64$GT$$GT$17h8322bb410788bc82E"(ptr align 8 %_4), !dbg !2786
  ret void, !dbg !2787
}

; Function Attrs: inlinehint nonlazybind uwtable
define internal void @"_ZN165_$LT$OpenFaaSRPC.._..$LT$impl$u20$serde..de..Deserialize$u20$for$u20$OpenFaaSRPC..WriteHomeTimelineArgs$GT$..deserialize..__Visitor$u20$as$u20$serde..de..Visitor$GT$9visit_map17h0c3c9ac1cc883f6fE"(ptr sret([48 x i8]) align 8 %_0, ptr align 8 %0, i1 zeroext %1) unnamed_addr #1 personality ptr @rust_eh_personality !dbg !2788 {
start:
  %residual.dbg.spill41 = alloca [8 x i8], align 8
  %residual.dbg.spill39 = alloca [8 x i8], align 8
  %__field2.dbg.spill = alloca [8 x i8], align 8
  %residual.dbg.spill36 = alloca [8 x i8], align 8
  %val.dbg.spill34 = alloca [8 x i8], align 8
  %__field1.dbg.spill = alloca [8 x i8], align 8
  %residual.dbg.spill31 = alloca [8 x i8], align 8
  %val.dbg.spill29 = alloca [8 x i8], align 8
  %__field0.dbg.spill = alloca [8 x i8], align 8
  %residual.dbg.spill26 = alloca [8 x i8], align 8
  %val.dbg.spill24 = alloca [8 x i8], align 8
  %residual.dbg.spill22 = alloca [8 x i8], align 8
  %residual.dbg.spill20 = alloca [8 x i8], align 8
  %residual.dbg.spill17 = alloca [8 x i8], align 8
  %val.dbg.spill15 = alloca [8 x i8], align 8
  %residual.dbg.spill13 = alloca [8 x i8], align 8
  %val.dbg.spill11 = alloca [8 x i8], align 8
  %residual.dbg.spill = alloca [8 x i8], align 8
  %val.dbg.spill9 = alloca [8 x i8], align 8
  %2 = alloca [16 x i8], align 8
  %val.dbg.spill = alloca [0 x i8], align 1
  %self.dbg.spill = alloca [0 x i8], align 1
  %_1.dbg.spill = alloca [0 x i8], align 1
  %_98 = alloca [1 x i8], align 1
  %_97 = alloca [24 x i8], align 8
  %_93 = alloca [48 x i8], align 8
  %val7 = alloca [24 x i8], align 8
  %_89 = alloca [24 x i8], align 8
  %_88 = alloca [24 x i8], align 8
  %__field36 = alloca [24 x i8], align 8
  %__field35 = alloca [24 x i8], align 8
  %_80 = alloca [16 x i8], align 8
  %__field24 = alloca [8 x i8], align 8
  %_72 = alloca [16 x i8], align 8
  %__field13 = alloca [8 x i8], align 8
  %_64 = alloca [16 x i8], align 8
  %__field02 = alloca [8 x i8], align 8
  %_56 = alloca [8 x i8], align 8
  %val1 = alloca [24 x i8], align 8
  %_51 = alloca [24 x i8], align 8
  %_50 = alloca [24 x i8], align 8
  %_49 = alloca [24 x i8], align 8
  %_40 = alloca [16 x i8], align 8
  %_39 = alloca [16 x i8], align 8
  %_30 = alloca [16 x i8], align 8
  %_29 = alloca [16 x i8], align 8
  %_20 = alloca [16 x i8], align 8
  %_19 = alloca [16 x i8], align 8
  %__key = alloca [1 x i8], align 1
  %val = alloca [1 x i8], align 1
  %_8 = alloca [16 x i8], align 8
  %_7 = alloca [16 x i8], align 8
  %__field3 = alloca [24 x i8], align 8
  %__field2 = alloca [16 x i8], align 8
  %__field1 = alloca [16 x i8], align 8
  %__field0 = alloca [16 x i8], align 8
  %__map = alloca [16 x i8], align 8
  store ptr %0, ptr %__map, align 8
  %3 = getelementptr inbounds i8, ptr %__map, i64 8
  %4 = zext i1 %1 to i8
  store i8 %4, ptr %3, align 8
    #dbg_declare(ptr %_1.dbg.spill, !2891, !DIExpression(), !2894)
    #dbg_declare(ptr %__map, !2798, !DIExpression(), !2894)
    #dbg_declare(ptr %__field0, !2799, !DIExpression(), !2895)
    #dbg_declare(ptr %__field1, !2801, !DIExpression(), !2896)
    #dbg_declare(ptr %__field2, !2803, !DIExpression(), !2897)
    #dbg_declare(ptr %__field3, !2805, !DIExpression(), !2898)
    #dbg_declare(ptr %val, !2821, !DIExpression(), !2899)
    #dbg_declare(ptr %__key, !2836, !DIExpression(), !2900)
    #dbg_declare(ptr %val1, !2851, !DIExpression(), !2901)
    #dbg_declare(ptr %__field02, !2859, !DIExpression(), !2902)
    #dbg_declare(ptr %__field13, !2867, !DIExpression(), !2903)
    #dbg_declare(ptr %__field24, !2875, !DIExpression(), !2904)
    #dbg_declare(ptr %__field35, !2883, !DIExpression(), !2905)
    #dbg_declare(ptr %__field36, !2885, !DIExpression(), !2906)
    #dbg_declare(ptr %val7, !2889, !DIExpression(), !2907)
    #dbg_declare(ptr %self.dbg.spill, !2797, !DIExpression(), !2894)
    #dbg_declare(ptr %val.dbg.spill, !2855, !DIExpression(), !2908)
  store i8 0, ptr %_98, align 1, !dbg !2894
  store i64 0, ptr %__field0, align 8, !dbg !2894
  store i64 0, ptr %__field1, align 8, !dbg !2895
  store i64 0, ptr %__field2, align 8, !dbg !2896
  store i8 1, ptr %_98, align 1, !dbg !2897
  store i64 -9223372036854775808, ptr %__field3, align 8, !dbg !2897
  br label %bb1, !dbg !2898

bb1:                                              ; preds = %bb49, %bb46, %bb36, %bb28, %bb20, %start
  invoke void @_ZN5serde2de9MapAccess8next_key17h87c6818b2f1d0eccE(ptr sret([16 x i8]) align 8 %_8, ptr align 8 %__map)
          to label %bb2 unwind label %cleanup, !dbg !2900

bb88:                                             ; preds = %bb47, %cleanup
  %5 = load i64, ptr %__field3, align 8, !dbg !2909
  %6 = icmp eq i64 %5, -9223372036854775808, !dbg !2909
  %_100 = select i1 %6, i64 0, i64 1, !dbg !2909
  %7 = icmp eq i64 %_100, 1, !dbg !2909
  br i1 %7, label %bb86, label %bb80, !dbg !2909

cleanup:                                          ; preds = %bb77, %bb74, %bb72, %bb70, %bb67, %bb65, %bb63, %bb60, %bb58, %bb56, %bb53, %bb51, %bb50, %bb48, %bb45, %bb42, %bb39, %bb41, %bb37, %bb34, %bb31, %bb33, %bb29, %bb26, %bb23, %bb25, %bb21, %bb18, %bb15, %bb17, %bb9, %bb10, %bb11, %bb12, %bb13, %bb6, %bb2, %bb1
  %8 = landingpad { ptr, i32 }
          cleanup
  %9 = extractvalue { ptr, i32 } %8, 0
  %10 = extractvalue { ptr, i32 } %8, 1
  store ptr %9, ptr %2, align 8
  %11 = getelementptr inbounds i8, ptr %2, i64 8
  store i32 %10, ptr %11, align 8
  br label %bb88

bb2:                                              ; preds = %bb1
  invoke void @"_ZN79_$LT$core..result..Result$LT$T$C$E$GT$$u20$as$u20$core..ops..try_trait..Try$GT$6branch17he034ffdde91a86dcE"(ptr sret([16 x i8]) align 8 %_7, ptr align 8 %_8)
          to label %bb3 unwind label %cleanup, !dbg !2900

bb3:                                              ; preds = %bb2
  %12 = load i8, ptr %_7, align 8, !dbg !2900
  %13 = trunc i8 %12 to i1, !dbg !2900
  %_10 = zext i1 %13 to i64, !dbg !2900
  %14 = icmp eq i64 %_10, 0, !dbg !2900
  br i1 %14, label %bb5, label %bb6, !dbg !2900

bb5:                                              ; preds = %bb3
  %15 = getelementptr inbounds i8, ptr %_7, i64 1, !dbg !2900
  %16 = load i8, ptr %15, align 1, !dbg !2900
  store i8 %16, ptr %val, align 1, !dbg !2900
  %17 = load i8, ptr %val, align 1, !dbg !2900
  %18 = icmp eq i8 %17, 5, !dbg !2900
  %_13 = select i1 %18, i64 0, i64 1, !dbg !2900
  %19 = icmp eq i64 %_13, 1, !dbg !2900
  br i1 %19, label %bb8, label %bb7, !dbg !2900

bb6:                                              ; preds = %bb3
  %20 = getelementptr inbounds i8, ptr %_7, i64 8, !dbg !2910
  %residual40 = load ptr, ptr %20, align 8, !dbg !2910
  store ptr %residual40, ptr %residual.dbg.spill41, align 8, !dbg !2910
    #dbg_declare(ptr %residual.dbg.spill41, !2818, !DIExpression(), !2911)
  invoke void @"_ZN153_$LT$core..result..Result$LT$T$C$F$GT$$u20$as$u20$core..ops..try_trait..FromResidual$LT$core..result..Result$LT$core..convert..Infallible$C$E$GT$$GT$$GT$13from_residual17ha01b68dfcc208291E"(ptr sret([48 x i8]) align 8 %_0, ptr align 8 %residual40, ptr align 8 @alloc_ae52e422ab29884b58622d79788975fe)
          to label %bb89 unwind label %cleanup, !dbg !2912

bb8:                                              ; preds = %bb5
  %21 = load i8, ptr %val, align 1, !dbg !2900
  store i8 %21, ptr %__key, align 1, !dbg !2900
  %22 = load i8, ptr %__key, align 1, !dbg !2900
  %_15 = zext i8 %22 to i64, !dbg !2900
  switch i64 %_15, label %bb4 [
    i64 0, label %bb13
    i64 1, label %bb12
    i64 2, label %bb11
    i64 3, label %bb10
    i64 4, label %bb9
  ], !dbg !2900

bb7:                                              ; preds = %bb5
  %_62 = load i64, ptr %__field0, align 8, !dbg !2898
  %23 = icmp eq i64 %_62, 0, !dbg !2898
  br i1 %23, label %bb51, label %bb52, !dbg !2898

bb4:                                              ; preds = %bb8
  unreachable, !dbg !2913

bb13:                                             ; preds = %bb8
  %_16 = invoke zeroext i1 @"_ZN4core6option15Option$LT$T$GT$7is_some17h6a6a3087a1cf1d1dE"(ptr align 8 %__field0)
          to label %bb14 unwind label %cleanup, !dbg !2900

bb12:                                             ; preds = %bb8
  %_26 = invoke zeroext i1 @"_ZN4core6option15Option$LT$T$GT$7is_some17h6a6a3087a1cf1d1dE"(ptr align 8 %__field1)
          to label %bb22 unwind label %cleanup, !dbg !2900

bb11:                                             ; preds = %bb8
  %_36 = invoke zeroext i1 @"_ZN4core6option15Option$LT$T$GT$7is_some17h6a6a3087a1cf1d1dE"(ptr align 8 %__field2)
          to label %bb30 unwind label %cleanup, !dbg !2900

bb10:                                             ; preds = %bb8
  %_46 = invoke zeroext i1 @"_ZN4core6option15Option$LT$T$GT$7is_some17hb7b677a8141e9c0eE"(ptr align 8 %__field3)
          to label %bb38 unwind label %cleanup, !dbg !2900

bb9:                                              ; preds = %bb8
  %_57 = invoke align 8 ptr @_ZN5serde2de9MapAccess10next_value17h4755e993b5cc77d5E(ptr align 8 %__map)
          to label %bb48 unwind label %cleanup, !dbg !2900

bb14:                                             ; preds = %bb13
  br i1 %_16, label %bb15, label %bb17, !dbg !2900

bb17:                                             ; preds = %bb14
  %24 = invoke { i64, ptr } @_ZN5serde2de9MapAccess10next_value17ha7a25943a0e00a4fE(ptr align 8 %__map)
          to label %bb18 unwind label %cleanup, !dbg !2900

bb15:                                             ; preds = %bb14
  %_18 = invoke align 8 ptr @_ZN5serde2de5Error15duplicate_field17h7128ae2090b01e11E(ptr align 1 @alloc_fbf529a31431d812ea51987957c18fdb, i64 7)
          to label %bb16 unwind label %cleanup, !dbg !2900

bb18:                                             ; preds = %bb17
  %_21.0 = extractvalue { i64, ptr } %24, 0, !dbg !2900
  %_21.1 = extractvalue { i64, ptr } %24, 1, !dbg !2900
  %25 = invoke { i64, ptr } @"_ZN79_$LT$core..result..Result$LT$T$C$E$GT$$u20$as$u20$core..ops..try_trait..Try$GT$6branch17hd09f4ebb6db0bc6eE"(i64 %_21.0, ptr %_21.1)
          to label %bb19 unwind label %cleanup, !dbg !2900

bb19:                                             ; preds = %bb18
  %26 = extractvalue { i64, ptr } %25, 0, !dbg !2900
  %27 = extractvalue { i64, ptr } %25, 1, !dbg !2900
  store i64 %26, ptr %_20, align 8, !dbg !2900
  %28 = getelementptr inbounds i8, ptr %_20, i64 8, !dbg !2900
  store ptr %27, ptr %28, align 8, !dbg !2900
  %_23 = load i64, ptr %_20, align 8, !dbg !2900
  %29 = icmp eq i64 %_23, 0, !dbg !2900
  br i1 %29, label %bb20, label %bb21, !dbg !2900

bb20:                                             ; preds = %bb19
  %30 = getelementptr inbounds i8, ptr %_20, i64 8, !dbg !2900
  %val8 = load i64, ptr %30, align 8, !dbg !2900
  store i64 %val8, ptr %val.dbg.spill9, align 8, !dbg !2900
    #dbg_declare(ptr %val.dbg.spill9, !2839, !DIExpression(), !2915)
  %31 = getelementptr inbounds i8, ptr %_19, i64 8, !dbg !2900
  store i64 %val8, ptr %31, align 8, !dbg !2900
  store i64 1, ptr %_19, align 8, !dbg !2900
  %32 = load i64, ptr %_19, align 8, !dbg !2900
  %33 = getelementptr inbounds i8, ptr %_19, i64 8, !dbg !2900
  %34 = load i64, ptr %33, align 8, !dbg !2900
  store i64 %32, ptr %__field0, align 8, !dbg !2900
  %35 = getelementptr inbounds i8, ptr %__field0, i64 8, !dbg !2900
  store i64 %34, ptr %35, align 8, !dbg !2900
  br label %bb1, !dbg !2900

bb21:                                             ; preds = %bb19
  %36 = getelementptr inbounds i8, ptr %_20, i64 8, !dbg !2910
  %residual = load ptr, ptr %36, align 8, !dbg !2910
  store ptr %residual, ptr %residual.dbg.spill, align 8, !dbg !2910
    #dbg_declare(ptr %residual.dbg.spill, !2837, !DIExpression(), !2916)
  invoke void @"_ZN153_$LT$core..result..Result$LT$T$C$F$GT$$u20$as$u20$core..ops..try_trait..FromResidual$LT$core..result..Result$LT$core..convert..Infallible$C$E$GT$$GT$$GT$13from_residual17ha01b68dfcc208291E"(ptr sret([48 x i8]) align 8 %_0, ptr align 8 %residual, ptr align 8 @alloc_ae52e422ab29884b58622d79788975fe)
          to label %bb90 unwind label %cleanup, !dbg !2917

bb90:                                             ; preds = %bb21
  br label %bb85, !dbg !2917

bb85:                                             ; preds = %bb89, %bb98, %bb97, %bb96, %bb95, %bb94, %bb40, %bb93, %bb32, %bb92, %bb24, %bb91, %bb16, %bb90
  %37 = load i64, ptr %__field3, align 8, !dbg !2909
  %38 = icmp eq i64 %37, -9223372036854775808, !dbg !2909
  %_99 = select i1 %38, i64 0, i64 1, !dbg !2909
  %39 = icmp eq i64 %_99, 1, !dbg !2909
  br i1 %39, label %bb83, label %bb82, !dbg !2909

bb16:                                             ; preds = %bb15
  %40 = getelementptr inbounds i8, ptr %_0, i64 8, !dbg !2900
  store ptr %_18, ptr %40, align 8, !dbg !2900
  store i64 -9223372036854775808, ptr %_0, align 8, !dbg !2900
  br label %bb85, !dbg !2918

bb22:                                             ; preds = %bb12
  br i1 %_26, label %bb23, label %bb25, !dbg !2900

bb25:                                             ; preds = %bb22
  %41 = invoke { i64, ptr } @_ZN5serde2de9MapAccess10next_value17ha7a25943a0e00a4fE(ptr align 8 %__map)
          to label %bb26 unwind label %cleanup, !dbg !2900

bb23:                                             ; preds = %bb22
  %_28 = invoke align 8 ptr @_ZN5serde2de5Error15duplicate_field17h7128ae2090b01e11E(ptr align 1 @alloc_17c2596754a11fa444906090c11cb050, i64 7)
          to label %bb24 unwind label %cleanup, !dbg !2900

bb26:                                             ; preds = %bb25
  %_31.0 = extractvalue { i64, ptr } %41, 0, !dbg !2900
  %_31.1 = extractvalue { i64, ptr } %41, 1, !dbg !2900
  %42 = invoke { i64, ptr } @"_ZN79_$LT$core..result..Result$LT$T$C$E$GT$$u20$as$u20$core..ops..try_trait..Try$GT$6branch17hd09f4ebb6db0bc6eE"(i64 %_31.0, ptr %_31.1)
          to label %bb27 unwind label %cleanup, !dbg !2900

bb27:                                             ; preds = %bb26
  %43 = extractvalue { i64, ptr } %42, 0, !dbg !2900
  %44 = extractvalue { i64, ptr } %42, 1, !dbg !2900
  store i64 %43, ptr %_30, align 8, !dbg !2900
  %45 = getelementptr inbounds i8, ptr %_30, i64 8, !dbg !2900
  store ptr %44, ptr %45, align 8, !dbg !2900
  %_33 = load i64, ptr %_30, align 8, !dbg !2900
  %46 = icmp eq i64 %_33, 0, !dbg !2900
  br i1 %46, label %bb28, label %bb29, !dbg !2900

bb28:                                             ; preds = %bb27
  %47 = getelementptr inbounds i8, ptr %_30, i64 8, !dbg !2900
  %val10 = load i64, ptr %47, align 8, !dbg !2900
  store i64 %val10, ptr %val.dbg.spill11, align 8, !dbg !2900
    #dbg_declare(ptr %val.dbg.spill11, !2843, !DIExpression(), !2920)
  %48 = getelementptr inbounds i8, ptr %_29, i64 8, !dbg !2900
  store i64 %val10, ptr %48, align 8, !dbg !2900
  store i64 1, ptr %_29, align 8, !dbg !2900
  %49 = load i64, ptr %_29, align 8, !dbg !2900
  %50 = getelementptr inbounds i8, ptr %_29, i64 8, !dbg !2900
  %51 = load i64, ptr %50, align 8, !dbg !2900
  store i64 %49, ptr %__field1, align 8, !dbg !2900
  %52 = getelementptr inbounds i8, ptr %__field1, i64 8, !dbg !2900
  store i64 %51, ptr %52, align 8, !dbg !2900
  br label %bb1, !dbg !2900

bb29:                                             ; preds = %bb27
  %53 = getelementptr inbounds i8, ptr %_30, i64 8, !dbg !2910
  %residual12 = load ptr, ptr %53, align 8, !dbg !2910
  store ptr %residual12, ptr %residual.dbg.spill13, align 8, !dbg !2910
    #dbg_declare(ptr %residual.dbg.spill13, !2841, !DIExpression(), !2921)
  invoke void @"_ZN153_$LT$core..result..Result$LT$T$C$F$GT$$u20$as$u20$core..ops..try_trait..FromResidual$LT$core..result..Result$LT$core..convert..Infallible$C$E$GT$$GT$$GT$13from_residual17ha01b68dfcc208291E"(ptr sret([48 x i8]) align 8 %_0, ptr align 8 %residual12, ptr align 8 @alloc_ae52e422ab29884b58622d79788975fe)
          to label %bb91 unwind label %cleanup, !dbg !2922

bb91:                                             ; preds = %bb29
  br label %bb85, !dbg !2922

bb24:                                             ; preds = %bb23
  %54 = getelementptr inbounds i8, ptr %_0, i64 8, !dbg !2900
  store ptr %_28, ptr %54, align 8, !dbg !2900
  store i64 -9223372036854775808, ptr %_0, align 8, !dbg !2900
  br label %bb85, !dbg !2918

bb30:                                             ; preds = %bb11
  br i1 %_36, label %bb31, label %bb33, !dbg !2900

bb33:                                             ; preds = %bb30
  %55 = invoke { i64, ptr } @_ZN5serde2de9MapAccess10next_value17ha7a25943a0e00a4fE(ptr align 8 %__map)
          to label %bb34 unwind label %cleanup, !dbg !2900

bb31:                                             ; preds = %bb30
  %_38 = invoke align 8 ptr @_ZN5serde2de5Error15duplicate_field17h7128ae2090b01e11E(ptr align 1 @alloc_5e776ce52c9f5c81d68da620afd2d199, i64 9)
          to label %bb32 unwind label %cleanup, !dbg !2900

bb34:                                             ; preds = %bb33
  %_41.0 = extractvalue { i64, ptr } %55, 0, !dbg !2900
  %_41.1 = extractvalue { i64, ptr } %55, 1, !dbg !2900
  %56 = invoke { i64, ptr } @"_ZN79_$LT$core..result..Result$LT$T$C$E$GT$$u20$as$u20$core..ops..try_trait..Try$GT$6branch17hd09f4ebb6db0bc6eE"(i64 %_41.0, ptr %_41.1)
          to label %bb35 unwind label %cleanup, !dbg !2900

bb35:                                             ; preds = %bb34
  %57 = extractvalue { i64, ptr } %56, 0, !dbg !2900
  %58 = extractvalue { i64, ptr } %56, 1, !dbg !2900
  store i64 %57, ptr %_40, align 8, !dbg !2900
  %59 = getelementptr inbounds i8, ptr %_40, i64 8, !dbg !2900
  store ptr %58, ptr %59, align 8, !dbg !2900
  %_43 = load i64, ptr %_40, align 8, !dbg !2900
  %60 = icmp eq i64 %_43, 0, !dbg !2900
  br i1 %60, label %bb36, label %bb37, !dbg !2900

bb36:                                             ; preds = %bb35
  %61 = getelementptr inbounds i8, ptr %_40, i64 8, !dbg !2900
  %val14 = load i64, ptr %61, align 8, !dbg !2900
  store i64 %val14, ptr %val.dbg.spill15, align 8, !dbg !2900
    #dbg_declare(ptr %val.dbg.spill15, !2847, !DIExpression(), !2923)
  %62 = getelementptr inbounds i8, ptr %_39, i64 8, !dbg !2900
  store i64 %val14, ptr %62, align 8, !dbg !2900
  store i64 1, ptr %_39, align 8, !dbg !2900
  %63 = load i64, ptr %_39, align 8, !dbg !2900
  %64 = getelementptr inbounds i8, ptr %_39, i64 8, !dbg !2900
  %65 = load i64, ptr %64, align 8, !dbg !2900
  store i64 %63, ptr %__field2, align 8, !dbg !2900
  %66 = getelementptr inbounds i8, ptr %__field2, i64 8, !dbg !2900
  store i64 %65, ptr %66, align 8, !dbg !2900
  br label %bb1, !dbg !2900

bb37:                                             ; preds = %bb35
  %67 = getelementptr inbounds i8, ptr %_40, i64 8, !dbg !2910
  %residual16 = load ptr, ptr %67, align 8, !dbg !2910
  store ptr %residual16, ptr %residual.dbg.spill17, align 8, !dbg !2910
    #dbg_declare(ptr %residual.dbg.spill17, !2845, !DIExpression(), !2924)
  invoke void @"_ZN153_$LT$core..result..Result$LT$T$C$F$GT$$u20$as$u20$core..ops..try_trait..FromResidual$LT$core..result..Result$LT$core..convert..Infallible$C$E$GT$$GT$$GT$13from_residual17ha01b68dfcc208291E"(ptr sret([48 x i8]) align 8 %_0, ptr align 8 %residual16, ptr align 8 @alloc_ae52e422ab29884b58622d79788975fe)
          to label %bb92 unwind label %cleanup, !dbg !2925

bb92:                                             ; preds = %bb37
  br label %bb85, !dbg !2925

bb32:                                             ; preds = %bb31
  %68 = getelementptr inbounds i8, ptr %_0, i64 8, !dbg !2900
  store ptr %_38, ptr %68, align 8, !dbg !2900
  store i64 -9223372036854775808, ptr %_0, align 8, !dbg !2900
  br label %bb85, !dbg !2918

bb38:                                             ; preds = %bb10
  br i1 %_46, label %bb39, label %bb41, !dbg !2900

bb41:                                             ; preds = %bb38
  invoke void @_ZN5serde2de9MapAccess10next_value17h52f00e672ba3da30E(ptr sret([24 x i8]) align 8 %_51, ptr align 8 %__map)
          to label %bb42 unwind label %cleanup, !dbg !2900

bb39:                                             ; preds = %bb38
  %_48 = invoke align 8 ptr @_ZN5serde2de5Error15duplicate_field17h7128ae2090b01e11E(ptr align 1 @alloc_831319f78ea5ff8c180eff7cc714c6a5, i64 16)
          to label %bb40 unwind label %cleanup, !dbg !2900

bb42:                                             ; preds = %bb41
  invoke void @"_ZN79_$LT$core..result..Result$LT$T$C$E$GT$$u20$as$u20$core..ops..try_trait..Try$GT$6branch17h115d0a5384981936E"(ptr sret([24 x i8]) align 8 %_50, ptr align 8 %_51)
          to label %bb43 unwind label %cleanup, !dbg !2900

bb43:                                             ; preds = %bb42
  %69 = load i64, ptr %_50, align 8, !dbg !2900
  %70 = icmp eq i64 %69, -9223372036854775808, !dbg !2900
  %_53 = select i1 %70, i64 1, i64 0, !dbg !2900
  %71 = icmp eq i64 %_53, 0, !dbg !2900
  br i1 %71, label %bb44, label %bb45, !dbg !2900

bb44:                                             ; preds = %bb43
  call void @llvm.memcpy.p0.p0.i64(ptr align 8 %val1, ptr align 8 %_50, i64 24, i1 false), !dbg !2900
  call void @llvm.memcpy.p0.p0.i64(ptr align 8 %_49, ptr align 8 %val1, i64 24, i1 false), !dbg !2900
  invoke void @"_ZN4core3ptr75drop_in_place$LT$core..option..Option$LT$alloc..vec..Vec$LT$i64$GT$$GT$$GT$17h18cf8b3080377490E"(ptr align 8 %__field3)
          to label %bb46 unwind label %cleanup18, !dbg !2900

bb45:                                             ; preds = %bb43
  %72 = getelementptr inbounds i8, ptr %_50, i64 8, !dbg !2910
  %residual19 = load ptr, ptr %72, align 8, !dbg !2910
  store ptr %residual19, ptr %residual.dbg.spill20, align 8, !dbg !2910
    #dbg_declare(ptr %residual.dbg.spill20, !2849, !DIExpression(), !2926)
  invoke void @"_ZN153_$LT$core..result..Result$LT$T$C$F$GT$$u20$as$u20$core..ops..try_trait..FromResidual$LT$core..result..Result$LT$core..convert..Infallible$C$E$GT$$GT$$GT$13from_residual17ha01b68dfcc208291E"(ptr sret([48 x i8]) align 8 %_0, ptr align 8 %residual19, ptr align 8 @alloc_ae52e422ab29884b58622d79788975fe)
          to label %bb93 unwind label %cleanup, !dbg !2927

bb47:                                             ; preds = %cleanup18
  store i8 1, ptr %_98, align 1, !dbg !2900
  call void @llvm.memcpy.p0.p0.i64(ptr align 8 %__field3, ptr align 8 %_49, i64 24, i1 false), !dbg !2900
  br label %bb88, !dbg !2900

cleanup18:                                        ; preds = %bb44
  %73 = landingpad { ptr, i32 }
          cleanup
  %74 = extractvalue { ptr, i32 } %73, 0
  %75 = extractvalue { ptr, i32 } %73, 1
  store ptr %74, ptr %2, align 8
  %76 = getelementptr inbounds i8, ptr %2, i64 8
  store i32 %75, ptr %76, align 8
  br label %bb47

bb46:                                             ; preds = %bb44
  store i8 1, ptr %_98, align 1, !dbg !2900
  call void @llvm.memcpy.p0.p0.i64(ptr align 8 %__field3, ptr align 8 %_49, i64 24, i1 false), !dbg !2900
  br label %bb1, !dbg !2900

bb93:                                             ; preds = %bb45
  br label %bb85, !dbg !2927

bb40:                                             ; preds = %bb39
  %77 = getelementptr inbounds i8, ptr %_0, i64 8, !dbg !2900
  store ptr %_48, ptr %77, align 8, !dbg !2900
  store i64 -9223372036854775808, ptr %_0, align 8, !dbg !2900
  br label %bb85, !dbg !2918

bb48:                                             ; preds = %bb9
  %78 = invoke align 8 ptr @"_ZN79_$LT$core..result..Result$LT$T$C$E$GT$$u20$as$u20$core..ops..try_trait..Try$GT$6branch17h0596b983c452e44dE"(ptr align 8 %_57)
          to label %bb49 unwind label %cleanup, !dbg !2900

bb49:                                             ; preds = %bb48
  store ptr %78, ptr %_56, align 8, !dbg !2900
  %79 = load ptr, ptr %_56, align 8, !dbg !2900
  %80 = ptrtoint ptr %79 to i64, !dbg !2900
  %81 = icmp eq i64 %80, 0, !dbg !2900
  %_59 = select i1 %81, i64 0, i64 1, !dbg !2900
  %82 = icmp eq i64 %_59, 0, !dbg !2900
  br i1 %82, label %bb1, label %bb50, !dbg !2900

bb50:                                             ; preds = %bb49
  %residual21 = load ptr, ptr %_56, align 8, !dbg !2910
  store ptr %residual21, ptr %residual.dbg.spill22, align 8, !dbg !2910
    #dbg_declare(ptr %residual.dbg.spill22, !2853, !DIExpression(), !2928)
  invoke void @"_ZN153_$LT$core..result..Result$LT$T$C$F$GT$$u20$as$u20$core..ops..try_trait..FromResidual$LT$core..result..Result$LT$core..convert..Infallible$C$E$GT$$GT$$GT$13from_residual17ha01b68dfcc208291E"(ptr sret([48 x i8]) align 8 %_0, ptr align 8 %residual21, ptr align 8 @alloc_ae52e422ab29884b58622d79788975fe)
          to label %bb94 unwind label %cleanup, !dbg !2929

bb94:                                             ; preds = %bb50
  br label %bb85, !dbg !2929

bb51:                                             ; preds = %bb7
  %83 = invoke { i64, ptr } @_ZN5serde9__private2de13missing_field17h6fefb222cdbf097eE(ptr align 1 @alloc_fbf529a31431d812ea51987957c18fdb, i64 7)
          to label %bb53 unwind label %cleanup, !dbg !2898

bb52:                                             ; preds = %bb7
  %84 = getelementptr inbounds i8, ptr %__field0, i64 8, !dbg !2898
  %__field027 = load i64, ptr %84, align 8, !dbg !2898
  store i64 %__field027, ptr %__field0.dbg.spill, align 8, !dbg !2898
    #dbg_declare(ptr %__field0.dbg.spill, !2861, !DIExpression(), !2930)
  store i64 %__field027, ptr %__field02, align 8, !dbg !2930
  br label %bb57, !dbg !2931

bb53:                                             ; preds = %bb51
  %_65.0 = extractvalue { i64, ptr } %83, 0, !dbg !2898
  %_65.1 = extractvalue { i64, ptr } %83, 1, !dbg !2898
  %85 = invoke { i64, ptr } @"_ZN79_$LT$core..result..Result$LT$T$C$E$GT$$u20$as$u20$core..ops..try_trait..Try$GT$6branch17hd09f4ebb6db0bc6eE"(i64 %_65.0, ptr %_65.1)
          to label %bb54 unwind label %cleanup, !dbg !2898

bb54:                                             ; preds = %bb53
  %86 = extractvalue { i64, ptr } %85, 0, !dbg !2898
  %87 = extractvalue { i64, ptr } %85, 1, !dbg !2898
  store i64 %86, ptr %_64, align 8, !dbg !2898
  %88 = getelementptr inbounds i8, ptr %_64, i64 8, !dbg !2898
  store ptr %87, ptr %88, align 8, !dbg !2898
  %_66 = load i64, ptr %_64, align 8, !dbg !2898
  %89 = icmp eq i64 %_66, 0, !dbg !2898
  br i1 %89, label %bb55, label %bb56, !dbg !2898

bb55:                                             ; preds = %bb54
  %90 = getelementptr inbounds i8, ptr %_64, i64 8, !dbg !2898
  %val23 = load i64, ptr %90, align 8, !dbg !2898
  store i64 %val23, ptr %val.dbg.spill24, align 8, !dbg !2898
    #dbg_declare(ptr %val.dbg.spill24, !2865, !DIExpression(), !2932)
  store i64 %val23, ptr %__field02, align 8, !dbg !2932
  br label %bb57, !dbg !2931

bb56:                                             ; preds = %bb54
  %91 = getelementptr inbounds i8, ptr %_64, i64 8, !dbg !2931
  %residual25 = load ptr, ptr %91, align 8, !dbg !2931
  store ptr %residual25, ptr %residual.dbg.spill26, align 8, !dbg !2931
    #dbg_declare(ptr %residual.dbg.spill26, !2863, !DIExpression(), !2933)
  invoke void @"_ZN153_$LT$core..result..Result$LT$T$C$F$GT$$u20$as$u20$core..ops..try_trait..FromResidual$LT$core..result..Result$LT$core..convert..Infallible$C$E$GT$$GT$$GT$13from_residual17ha01b68dfcc208291E"(ptr sret([48 x i8]) align 8 %_0, ptr align 8 %residual25, ptr align 8 @alloc_ae52e422ab29884b58622d79788975fe)
          to label %bb95 unwind label %cleanup, !dbg !2934

bb57:                                             ; preds = %bb55, %bb52
  %_70 = load i64, ptr %__field1, align 8, !dbg !2902
  %92 = icmp eq i64 %_70, 0, !dbg !2902
  br i1 %92, label %bb58, label %bb59, !dbg !2902

bb95:                                             ; preds = %bb56
  br label %bb85, !dbg !2934

bb58:                                             ; preds = %bb57
  %93 = invoke { i64, ptr } @_ZN5serde9__private2de13missing_field17h6fefb222cdbf097eE(ptr align 1 @alloc_17c2596754a11fa444906090c11cb050, i64 7)
          to label %bb60 unwind label %cleanup, !dbg !2902

bb59:                                             ; preds = %bb57
  %94 = getelementptr inbounds i8, ptr %__field1, i64 8, !dbg !2902
  %__field132 = load i64, ptr %94, align 8, !dbg !2902
  store i64 %__field132, ptr %__field1.dbg.spill, align 8, !dbg !2902
    #dbg_declare(ptr %__field1.dbg.spill, !2869, !DIExpression(), !2935)
  store i64 %__field132, ptr %__field13, align 8, !dbg !2935
  br label %bb64, !dbg !2936

bb60:                                             ; preds = %bb58
  %_73.0 = extractvalue { i64, ptr } %93, 0, !dbg !2902
  %_73.1 = extractvalue { i64, ptr } %93, 1, !dbg !2902
  %95 = invoke { i64, ptr } @"_ZN79_$LT$core..result..Result$LT$T$C$E$GT$$u20$as$u20$core..ops..try_trait..Try$GT$6branch17hd09f4ebb6db0bc6eE"(i64 %_73.0, ptr %_73.1)
          to label %bb61 unwind label %cleanup, !dbg !2902

bb61:                                             ; preds = %bb60
  %96 = extractvalue { i64, ptr } %95, 0, !dbg !2902
  %97 = extractvalue { i64, ptr } %95, 1, !dbg !2902
  store i64 %96, ptr %_72, align 8, !dbg !2902
  %98 = getelementptr inbounds i8, ptr %_72, i64 8, !dbg !2902
  store ptr %97, ptr %98, align 8, !dbg !2902
  %_74 = load i64, ptr %_72, align 8, !dbg !2902
  %99 = icmp eq i64 %_74, 0, !dbg !2902
  br i1 %99, label %bb62, label %bb63, !dbg !2902

bb62:                                             ; preds = %bb61
  %100 = getelementptr inbounds i8, ptr %_72, i64 8, !dbg !2902
  %val28 = load i64, ptr %100, align 8, !dbg !2902
  store i64 %val28, ptr %val.dbg.spill29, align 8, !dbg !2902
    #dbg_declare(ptr %val.dbg.spill29, !2873, !DIExpression(), !2937)
  store i64 %val28, ptr %__field13, align 8, !dbg !2937
  br label %bb64, !dbg !2936

bb63:                                             ; preds = %bb61
  %101 = getelementptr inbounds i8, ptr %_72, i64 8, !dbg !2936
  %residual30 = load ptr, ptr %101, align 8, !dbg !2936
  store ptr %residual30, ptr %residual.dbg.spill31, align 8, !dbg !2936
    #dbg_declare(ptr %residual.dbg.spill31, !2871, !DIExpression(), !2938)
  invoke void @"_ZN153_$LT$core..result..Result$LT$T$C$F$GT$$u20$as$u20$core..ops..try_trait..FromResidual$LT$core..result..Result$LT$core..convert..Infallible$C$E$GT$$GT$$GT$13from_residual17ha01b68dfcc208291E"(ptr sret([48 x i8]) align 8 %_0, ptr align 8 %residual30, ptr align 8 @alloc_ae52e422ab29884b58622d79788975fe)
          to label %bb96 unwind label %cleanup, !dbg !2939

bb64:                                             ; preds = %bb62, %bb59
  %_78 = load i64, ptr %__field2, align 8, !dbg !2903
  %102 = icmp eq i64 %_78, 0, !dbg !2903
  br i1 %102, label %bb65, label %bb66, !dbg !2903

bb96:                                             ; preds = %bb63
  br label %bb85, !dbg !2939

bb65:                                             ; preds = %bb64
  %103 = invoke { i64, ptr } @_ZN5serde9__private2de13missing_field17h6fefb222cdbf097eE(ptr align 1 @alloc_5e776ce52c9f5c81d68da620afd2d199, i64 9)
          to label %bb67 unwind label %cleanup, !dbg !2903

bb66:                                             ; preds = %bb64
  %104 = getelementptr inbounds i8, ptr %__field2, i64 8, !dbg !2903
  %__field237 = load i64, ptr %104, align 8, !dbg !2903
  store i64 %__field237, ptr %__field2.dbg.spill, align 8, !dbg !2903
    #dbg_declare(ptr %__field2.dbg.spill, !2877, !DIExpression(), !2940)
  store i64 %__field237, ptr %__field24, align 8, !dbg !2940
  br label %bb71, !dbg !2941

bb67:                                             ; preds = %bb65
  %_81.0 = extractvalue { i64, ptr } %103, 0, !dbg !2903
  %_81.1 = extractvalue { i64, ptr } %103, 1, !dbg !2903
  %105 = invoke { i64, ptr } @"_ZN79_$LT$core..result..Result$LT$T$C$E$GT$$u20$as$u20$core..ops..try_trait..Try$GT$6branch17hd09f4ebb6db0bc6eE"(i64 %_81.0, ptr %_81.1)
          to label %bb68 unwind label %cleanup, !dbg !2903

bb68:                                             ; preds = %bb67
  %106 = extractvalue { i64, ptr } %105, 0, !dbg !2903
  %107 = extractvalue { i64, ptr } %105, 1, !dbg !2903
  store i64 %106, ptr %_80, align 8, !dbg !2903
  %108 = getelementptr inbounds i8, ptr %_80, i64 8, !dbg !2903
  store ptr %107, ptr %108, align 8, !dbg !2903
  %_82 = load i64, ptr %_80, align 8, !dbg !2903
  %109 = icmp eq i64 %_82, 0, !dbg !2903
  br i1 %109, label %bb69, label %bb70, !dbg !2903

bb69:                                             ; preds = %bb68
  %110 = getelementptr inbounds i8, ptr %_80, i64 8, !dbg !2903
  %val33 = load i64, ptr %110, align 8, !dbg !2903
  store i64 %val33, ptr %val.dbg.spill34, align 8, !dbg !2903
    #dbg_declare(ptr %val.dbg.spill34, !2881, !DIExpression(), !2942)
  store i64 %val33, ptr %__field24, align 8, !dbg !2942
  br label %bb71, !dbg !2941

bb70:                                             ; preds = %bb68
  %111 = getelementptr inbounds i8, ptr %_80, i64 8, !dbg !2941
  %residual35 = load ptr, ptr %111, align 8, !dbg !2941
  store ptr %residual35, ptr %residual.dbg.spill36, align 8, !dbg !2941
    #dbg_declare(ptr %residual.dbg.spill36, !2879, !DIExpression(), !2943)
  invoke void @"_ZN153_$LT$core..result..Result$LT$T$C$F$GT$$u20$as$u20$core..ops..try_trait..FromResidual$LT$core..result..Result$LT$core..convert..Infallible$C$E$GT$$GT$$GT$13from_residual17ha01b68dfcc208291E"(ptr sret([48 x i8]) align 8 %_0, ptr align 8 %residual35, ptr align 8 @alloc_ae52e422ab29884b58622d79788975fe)
          to label %bb97 unwind label %cleanup, !dbg !2944

bb71:                                             ; preds = %bb69, %bb66
  %112 = load i64, ptr %__field3, align 8, !dbg !2904
  %113 = icmp eq i64 %112, -9223372036854775808, !dbg !2904
  %_86 = select i1 %113, i64 0, i64 1, !dbg !2904
  %114 = icmp eq i64 %_86, 0, !dbg !2904
  br i1 %114, label %bb72, label %bb73, !dbg !2904

bb97:                                             ; preds = %bb70
  br label %bb85, !dbg !2944

bb72:                                             ; preds = %bb71
  invoke void @_ZN5serde9__private2de13missing_field17hf88597c4d9d6fff1E(ptr sret([24 x i8]) align 8 %_89, ptr align 1 @alloc_831319f78ea5ff8c180eff7cc714c6a5, i64 16)
          to label %bb74 unwind label %cleanup, !dbg !2904

bb73:                                             ; preds = %bb71
  store i8 0, ptr %_98, align 1, !dbg !2904
  call void @llvm.memcpy.p0.p0.i64(ptr align 8 %__field36, ptr align 8 %__field3, i64 24, i1 false), !dbg !2904
  call void @llvm.memcpy.p0.p0.i64(ptr align 8 %__field35, ptr align 8 %__field36, i64 24, i1 false), !dbg !2906
  br label %bb78, !dbg !2945

bb74:                                             ; preds = %bb72
  invoke void @"_ZN79_$LT$core..result..Result$LT$T$C$E$GT$$u20$as$u20$core..ops..try_trait..Try$GT$6branch17h115d0a5384981936E"(ptr sret([24 x i8]) align 8 %_88, ptr align 8 %_89)
          to label %bb75 unwind label %cleanup, !dbg !2904

bb75:                                             ; preds = %bb74
  %115 = load i64, ptr %_88, align 8, !dbg !2904
  %116 = icmp eq i64 %115, -9223372036854775808, !dbg !2904
  %_90 = select i1 %116, i64 1, i64 0, !dbg !2904
  %117 = icmp eq i64 %_90, 0, !dbg !2904
  br i1 %117, label %bb76, label %bb77, !dbg !2904

bb76:                                             ; preds = %bb75
  call void @llvm.memcpy.p0.p0.i64(ptr align 8 %val7, ptr align 8 %_88, i64 24, i1 false), !dbg !2904
  call void @llvm.memcpy.p0.p0.i64(ptr align 8 %__field35, ptr align 8 %val7, i64 24, i1 false), !dbg !2907
  br label %bb78, !dbg !2945

bb77:                                             ; preds = %bb75
  %118 = getelementptr inbounds i8, ptr %_88, i64 8, !dbg !2945
  %residual38 = load ptr, ptr %118, align 8, !dbg !2945
  store ptr %residual38, ptr %residual.dbg.spill39, align 8, !dbg !2945
    #dbg_declare(ptr %residual.dbg.spill39, !2887, !DIExpression(), !2946)
  invoke void @"_ZN153_$LT$core..result..Result$LT$T$C$F$GT$$u20$as$u20$core..ops..try_trait..FromResidual$LT$core..result..Result$LT$core..convert..Infallible$C$E$GT$$GT$$GT$13from_residual17ha01b68dfcc208291E"(ptr sret([48 x i8]) align 8 %_0, ptr align 8 %residual38, ptr align 8 @alloc_ae52e422ab29884b58622d79788975fe)
          to label %bb98 unwind label %cleanup, !dbg !2947

bb78:                                             ; preds = %bb76, %bb73
  %_94 = load i64, ptr %__field02, align 8, !dbg !2905
  %_95 = load i64, ptr %__field13, align 8, !dbg !2905
  %_96 = load i64, ptr %__field24, align 8, !dbg !2905
  call void @llvm.memcpy.p0.p0.i64(ptr align 8 %_97, ptr align 8 %__field35, i64 24, i1 false), !dbg !2905
  %119 = getelementptr inbounds i8, ptr %_93, i64 24, !dbg !2905
  store i64 %_94, ptr %119, align 8, !dbg !2905
  %120 = getelementptr inbounds i8, ptr %_93, i64 32, !dbg !2905
  store i64 %_95, ptr %120, align 8, !dbg !2905
  %121 = getelementptr inbounds i8, ptr %_93, i64 40, !dbg !2905
  store i64 %_96, ptr %121, align 8, !dbg !2905
  call void @llvm.memcpy.p0.p0.i64(ptr align 8 %_93, ptr align 8 %_97, i64 24, i1 false), !dbg !2905
  call void @llvm.memcpy.p0.p0.i64(ptr align 8 %_0, ptr align 8 %_93, i64 48, i1 false), !dbg !2905
  store i8 0, ptr %_98, align 1, !dbg !2909
  br label %bb79, !dbg !2948

bb98:                                             ; preds = %bb77
  br label %bb85, !dbg !2947

bb79:                                             ; preds = %bb82, %bb78
  ret void, !dbg !2949

bb89:                                             ; preds = %bb6
  br label %bb85, !dbg !2912

bb83:                                             ; preds = %bb85
  %122 = load i8, ptr %_98, align 1, !dbg !2909
  %123 = trunc i8 %122 to i1, !dbg !2909
  br i1 %123, label %bb84, label %bb82, !dbg !2909

bb82:                                             ; preds = %bb84, %bb83, %bb85
  store i8 0, ptr %_98, align 1, !dbg !2909
  br label %bb79, !dbg !2948

bb84:                                             ; preds = %bb83
  invoke void @"_ZN4core3ptr47drop_in_place$LT$alloc..vec..Vec$LT$i64$GT$$GT$17h45a35d44e4fb44aaE"(ptr align 8 %__field3)
          to label %bb82 unwind label %cleanup42, !dbg !2909

bb80:                                             ; preds = %bb87, %bb86, %cleanup42, %bb88
  %124 = load ptr, ptr %2, align 8, !dbg !2894
  %125 = getelementptr inbounds i8, ptr %2, i64 8, !dbg !2894
  %126 = load i32, ptr %125, align 8, !dbg !2894
  %127 = insertvalue { ptr, i32 } poison, ptr %124, 0, !dbg !2894
  %128 = insertvalue { ptr, i32 } %127, i32 %126, 1, !dbg !2894
  resume { ptr, i32 } %128, !dbg !2894

cleanup42:                                        ; preds = %bb84
  %129 = landingpad { ptr, i32 }
          cleanup
  %130 = extractvalue { ptr, i32 } %129, 0
  %131 = extractvalue { ptr, i32 } %129, 1
  store ptr %130, ptr %2, align 8
  %132 = getelementptr inbounds i8, ptr %2, i64 8
  store i32 %131, ptr %132, align 8
  br label %bb80

bb86:                                             ; preds = %bb88
  %133 = load i8, ptr %_98, align 1, !dbg !2909
  %134 = trunc i8 %133 to i1, !dbg !2909
  br i1 %134, label %bb87, label %bb80, !dbg !2909

bb87:                                             ; preds = %bb86
  invoke void @"_ZN4core3ptr47drop_in_place$LT$alloc..vec..Vec$LT$i64$GT$$GT$17h45a35d44e4fb44aaE"(ptr align 8 %__field3) #25
          to label %bb80 unwind label %terminate, !dbg !2909

terminate:                                        ; preds = %bb87
  %135 = landingpad { ptr, i32 }
          filter [0 x ptr] zeroinitializer
  %136 = extractvalue { ptr, i32 } %135, 0
  %137 = extractvalue { ptr, i32 } %135, 1
  call void @_ZN4core9panicking16panic_in_cleanup17hdb19dc6496e5af6eE() #26, !dbg !2894
  unreachable, !dbg !2894
}

; Function Attrs: inlinehint nonlazybind uwtable
define internal void @"_ZN165_$LT$OpenFaaSRPC.._..$LT$impl$u20$serde..de..Deserialize$u20$for$u20$OpenFaaSRPC..WriteHomeTimelineArgs$GT$..deserialize..__Visitor$u20$as$u20$serde..de..Visitor$GT$9visit_seq17h2040686df2464f5aE"(ptr sret([48 x i8]) align 8 %_0, ptr align 8 %0, i1 zeroext %1) unnamed_addr #1 personality ptr @rust_eh_personality !dbg !2950 {
start:
  %residual.dbg.spill9 = alloca [8 x i8], align 8
  %residual.dbg.spill7 = alloca [8 x i8], align 8
  %residual.dbg.spill5 = alloca [8 x i8], align 8
  %residual.dbg.spill = alloca [8 x i8], align 8
  %__field2.dbg.spill = alloca [8 x i8], align 8
  %__field1.dbg.spill = alloca [8 x i8], align 8
  %__field0.dbg.spill = alloca [8 x i8], align 8
  %2 = alloca [16 x i8], align 8
  %self.dbg.spill = alloca [0 x i8], align 1
  %_1.dbg.spill = alloca [0 x i8], align 1
  %_47 = alloca [48 x i8], align 8
  %__field3 = alloca [24 x i8], align 8
  %val3 = alloca [24 x i8], align 8
  %_37 = alloca [24 x i8], align 8
  %_36 = alloca [24 x i8], align 8
  %val2 = alloca [16 x i8], align 8
  %_26 = alloca [16 x i8], align 8
  %_25 = alloca [16 x i8], align 8
  %val1 = alloca [16 x i8], align 8
  %_15 = alloca [16 x i8], align 8
  %_14 = alloca [16 x i8], align 8
  %val = alloca [16 x i8], align 8
  %_4 = alloca [16 x i8], align 8
  %_3 = alloca [16 x i8], align 8
  %__seq = alloca [16 x i8], align 8
  store ptr %0, ptr %__seq, align 8
  %3 = getelementptr inbounds i8, ptr %__seq, i64 8
  %4 = zext i1 %1 to i8
  store i8 %4, ptr %3, align 8
    #dbg_declare(ptr %_1.dbg.spill, !2992, !DIExpression(), !2995)
    #dbg_declare(ptr %__seq, !2959, !DIExpression(), !2995)
    #dbg_declare(ptr %val, !2964, !DIExpression(), !2996)
    #dbg_declare(ptr %val1, !2972, !DIExpression(), !2997)
    #dbg_declare(ptr %val2, !2980, !DIExpression(), !2998)
    #dbg_declare(ptr %val3, !2988, !DIExpression(), !2999)
    #dbg_declare(ptr %__field3, !2984, !DIExpression(), !3000)
    #dbg_declare(ptr %__field3, !2990, !DIExpression(), !3001)
    #dbg_declare(ptr %self.dbg.spill, !2958, !DIExpression(), !2995)
  invoke void @_ZN5serde2de9SeqAccess12next_element17hd111f8534bdccd83E(ptr sret([16 x i8]) align 8 %_4, ptr align 8 %__seq)
          to label %bb1 unwind label %cleanup, !dbg !2995

bb32:                                             ; preds = %cleanup
  %5 = load ptr, ptr %2, align 8, !dbg !2995
  %6 = getelementptr inbounds i8, ptr %2, i64 8, !dbg !2995
  %7 = load i32, ptr %6, align 8, !dbg !2995
  %8 = insertvalue { ptr, i32 } poison, ptr %5, 0, !dbg !2995
  %9 = insertvalue { ptr, i32 } %8, i32 %7, 1, !dbg !2995
  resume { ptr, i32 } %9, !dbg !2995

cleanup:                                          ; preds = %bb27, %bb26, %bb23, %bb21, %bb20, %bb19, %bb16, %bb14, %bb13, %bb12, %bb9, %bb7, %bb6, %bb5, %bb1, %start
  %10 = landingpad { ptr, i32 }
          cleanup
  %11 = extractvalue { ptr, i32 } %10, 0
  %12 = extractvalue { ptr, i32 } %10, 1
  store ptr %11, ptr %2, align 8
  %13 = getelementptr inbounds i8, ptr %2, i64 8
  store i32 %12, ptr %13, align 8
  br label %bb32

bb1:                                              ; preds = %start
  invoke void @"_ZN79_$LT$core..result..Result$LT$T$C$E$GT$$u20$as$u20$core..ops..try_trait..Try$GT$6branch17ha88dcfd3fa6619acE"(ptr sret([16 x i8]) align 8 %_3, ptr align 8 %_4)
          to label %bb2 unwind label %cleanup, !dbg !2995

bb2:                                              ; preds = %bb1
  %14 = load i64, ptr %_3, align 8, !dbg !2995
  %15 = icmp eq i64 %14, 2, !dbg !2995
  %_6 = select i1 %15, i64 1, i64 0, !dbg !2995
  %16 = icmp eq i64 %_6, 0, !dbg !2995
  br i1 %16, label %bb4, label %bb5, !dbg !2995

bb4:                                              ; preds = %bb2
  %17 = load i64, ptr %_3, align 8, !dbg !2995
  %18 = getelementptr inbounds i8, ptr %_3, i64 8, !dbg !2995
  %19 = load i64, ptr %18, align 8, !dbg !2995
  store i64 %17, ptr %val, align 8, !dbg !2995
  %20 = getelementptr inbounds i8, ptr %val, i64 8, !dbg !2995
  store i64 %19, ptr %20, align 8, !dbg !2995
  %_9 = load i64, ptr %val, align 8, !dbg !2995
  %21 = icmp eq i64 %_9, 0, !dbg !2995
  br i1 %21, label %bb6, label %bb7, !dbg !2995

bb5:                                              ; preds = %bb2
  %22 = getelementptr inbounds i8, ptr %_3, i64 8, !dbg !3002
  %residual8 = load ptr, ptr %22, align 8, !dbg !3002
  store ptr %residual8, ptr %residual.dbg.spill9, align 8, !dbg !3002
    #dbg_declare(ptr %residual.dbg.spill9, !2962, !DIExpression(), !3003)
  invoke void @"_ZN153_$LT$core..result..Result$LT$T$C$F$GT$$u20$as$u20$core..ops..try_trait..FromResidual$LT$core..result..Result$LT$core..convert..Infallible$C$E$GT$$GT$$GT$13from_residual17ha01b68dfcc208291E"(ptr sret([48 x i8]) align 8 %_0, ptr align 8 %residual8, ptr align 8 @alloc_ae52e422ab29884b58622d79788975fe)
          to label %bb34 unwind label %cleanup, !dbg !3004

bb6:                                              ; preds = %bb4
  %_11 = invoke align 8 ptr @_ZN5serde2de5Error14invalid_length17h9e2d4f799e4839deE(i64 0, ptr align 1 @alloc_f58fcb9c4e49c192b1285e58cb79b058, ptr align 8 @vtable.1)
          to label %bb8 unwind label %cleanup, !dbg !2995

bb7:                                              ; preds = %bb4
  %23 = getelementptr inbounds i8, ptr %val, i64 8, !dbg !2995
  %__field0 = load i64, ptr %23, align 8, !dbg !2995
  store i64 %__field0, ptr %__field0.dbg.spill, align 8, !dbg !2995
    #dbg_declare(ptr %__field0.dbg.spill, !2960, !DIExpression(), !3005)
    #dbg_declare(ptr %__field0.dbg.spill, !2966, !DIExpression(), !3006)
  invoke void @_ZN5serde2de9SeqAccess12next_element17hd111f8534bdccd83E(ptr sret([16 x i8]) align 8 %_15, ptr align 8 %__seq)
          to label %bb9 unwind label %cleanup, !dbg !3005

bb8:                                              ; preds = %bb6
  %24 = getelementptr inbounds i8, ptr %_0, i64 8, !dbg !2995
  store ptr %_11, ptr %24, align 8, !dbg !2995
  store i64 -9223372036854775808, ptr %_0, align 8, !dbg !2995
  br label %bb30, !dbg !3007

bb30:                                             ; preds = %bb34, %bb35, %bb36, %bb37, %bb29, %bb22, %bb15, %bb8
  br label %bb31, !dbg !3002

bb9:                                              ; preds = %bb7
  invoke void @"_ZN79_$LT$core..result..Result$LT$T$C$E$GT$$u20$as$u20$core..ops..try_trait..Try$GT$6branch17ha88dcfd3fa6619acE"(ptr sret([16 x i8]) align 8 %_14, ptr align 8 %_15)
          to label %bb10 unwind label %cleanup, !dbg !3005

bb10:                                             ; preds = %bb9
  %25 = load i64, ptr %_14, align 8, !dbg !3005
  %26 = icmp eq i64 %25, 2, !dbg !3005
  %_17 = select i1 %26, i64 1, i64 0, !dbg !3005
  %27 = icmp eq i64 %_17, 0, !dbg !3005
  br i1 %27, label %bb11, label %bb12, !dbg !3005

bb11:                                             ; preds = %bb10
  %28 = load i64, ptr %_14, align 8, !dbg !3005
  %29 = getelementptr inbounds i8, ptr %_14, i64 8, !dbg !3005
  %30 = load i64, ptr %29, align 8, !dbg !3005
  store i64 %28, ptr %val1, align 8, !dbg !3005
  %31 = getelementptr inbounds i8, ptr %val1, i64 8, !dbg !3005
  store i64 %30, ptr %31, align 8, !dbg !3005
  %_20 = load i64, ptr %val1, align 8, !dbg !3005
  %32 = icmp eq i64 %_20, 0, !dbg !3005
  br i1 %32, label %bb13, label %bb14, !dbg !3005

bb12:                                             ; preds = %bb10
  %33 = getelementptr inbounds i8, ptr %_14, i64 8, !dbg !3009
  %residual6 = load ptr, ptr %33, align 8, !dbg !3009
  store ptr %residual6, ptr %residual.dbg.spill7, align 8, !dbg !3009
    #dbg_declare(ptr %residual.dbg.spill7, !2970, !DIExpression(), !3010)
  invoke void @"_ZN153_$LT$core..result..Result$LT$T$C$F$GT$$u20$as$u20$core..ops..try_trait..FromResidual$LT$core..result..Result$LT$core..convert..Infallible$C$E$GT$$GT$$GT$13from_residual17ha01b68dfcc208291E"(ptr sret([48 x i8]) align 8 %_0, ptr align 8 %residual6, ptr align 8 @alloc_ae52e422ab29884b58622d79788975fe)
          to label %bb35 unwind label %cleanup, !dbg !3011

bb13:                                             ; preds = %bb11
  %_22 = invoke align 8 ptr @_ZN5serde2de5Error14invalid_length17h9e2d4f799e4839deE(i64 1, ptr align 1 @alloc_f58fcb9c4e49c192b1285e58cb79b058, ptr align 8 @vtable.1)
          to label %bb15 unwind label %cleanup, !dbg !3005

bb14:                                             ; preds = %bb11
  %34 = getelementptr inbounds i8, ptr %val1, i64 8, !dbg !3005
  %__field1 = load i64, ptr %34, align 8, !dbg !3005
  store i64 %__field1, ptr %__field1.dbg.spill, align 8, !dbg !3005
    #dbg_declare(ptr %__field1.dbg.spill, !2968, !DIExpression(), !3012)
    #dbg_declare(ptr %__field1.dbg.spill, !2974, !DIExpression(), !3013)
  invoke void @_ZN5serde2de9SeqAccess12next_element17hd111f8534bdccd83E(ptr sret([16 x i8]) align 8 %_26, ptr align 8 %__seq)
          to label %bb16 unwind label %cleanup, !dbg !3012

bb15:                                             ; preds = %bb13
  %35 = getelementptr inbounds i8, ptr %_0, i64 8, !dbg !3005
  store ptr %_22, ptr %35, align 8, !dbg !3005
  store i64 -9223372036854775808, ptr %_0, align 8, !dbg !3005
  br label %bb30, !dbg !3014

bb16:                                             ; preds = %bb14
  invoke void @"_ZN79_$LT$core..result..Result$LT$T$C$E$GT$$u20$as$u20$core..ops..try_trait..Try$GT$6branch17ha88dcfd3fa6619acE"(ptr sret([16 x i8]) align 8 %_25, ptr align 8 %_26)
          to label %bb17 unwind label %cleanup, !dbg !3012

bb17:                                             ; preds = %bb16
  %36 = load i64, ptr %_25, align 8, !dbg !3012
  %37 = icmp eq i64 %36, 2, !dbg !3012
  %_28 = select i1 %37, i64 1, i64 0, !dbg !3012
  %38 = icmp eq i64 %_28, 0, !dbg !3012
  br i1 %38, label %bb18, label %bb19, !dbg !3012

bb18:                                             ; preds = %bb17
  %39 = load i64, ptr %_25, align 8, !dbg !3012
  %40 = getelementptr inbounds i8, ptr %_25, i64 8, !dbg !3012
  %41 = load i64, ptr %40, align 8, !dbg !3012
  store i64 %39, ptr %val2, align 8, !dbg !3012
  %42 = getelementptr inbounds i8, ptr %val2, i64 8, !dbg !3012
  store i64 %41, ptr %42, align 8, !dbg !3012
  %_31 = load i64, ptr %val2, align 8, !dbg !3012
  %43 = icmp eq i64 %_31, 0, !dbg !3012
  br i1 %43, label %bb20, label %bb21, !dbg !3012

bb19:                                             ; preds = %bb17
  %44 = getelementptr inbounds i8, ptr %_25, i64 8, !dbg !3016
  %residual4 = load ptr, ptr %44, align 8, !dbg !3016
  store ptr %residual4, ptr %residual.dbg.spill5, align 8, !dbg !3016
    #dbg_declare(ptr %residual.dbg.spill5, !2978, !DIExpression(), !3017)
  invoke void @"_ZN153_$LT$core..result..Result$LT$T$C$F$GT$$u20$as$u20$core..ops..try_trait..FromResidual$LT$core..result..Result$LT$core..convert..Infallible$C$E$GT$$GT$$GT$13from_residual17ha01b68dfcc208291E"(ptr sret([48 x i8]) align 8 %_0, ptr align 8 %residual4, ptr align 8 @alloc_ae52e422ab29884b58622d79788975fe)
          to label %bb36 unwind label %cleanup, !dbg !3018

bb20:                                             ; preds = %bb18
  %_33 = invoke align 8 ptr @_ZN5serde2de5Error14invalid_length17h9e2d4f799e4839deE(i64 2, ptr align 1 @alloc_f58fcb9c4e49c192b1285e58cb79b058, ptr align 8 @vtable.1)
          to label %bb22 unwind label %cleanup, !dbg !3012

bb21:                                             ; preds = %bb18
  %45 = getelementptr inbounds i8, ptr %val2, i64 8, !dbg !3012
  %__field2 = load i64, ptr %45, align 8, !dbg !3012
  store i64 %__field2, ptr %__field2.dbg.spill, align 8, !dbg !3012
    #dbg_declare(ptr %__field2.dbg.spill, !2976, !DIExpression(), !3019)
    #dbg_declare(ptr %__field2.dbg.spill, !2982, !DIExpression(), !3020)
  invoke void @_ZN5serde2de9SeqAccess12next_element17h931c8fe1c00f93ebE(ptr sret([24 x i8]) align 8 %_37, ptr align 8 %__seq)
          to label %bb23 unwind label %cleanup, !dbg !3019

bb22:                                             ; preds = %bb20
  %46 = getelementptr inbounds i8, ptr %_0, i64 8, !dbg !3012
  store ptr %_33, ptr %46, align 8, !dbg !3012
  store i64 -9223372036854775808, ptr %_0, align 8, !dbg !3012
  br label %bb30, !dbg !3021

bb23:                                             ; preds = %bb21
  invoke void @"_ZN79_$LT$core..result..Result$LT$T$C$E$GT$$u20$as$u20$core..ops..try_trait..Try$GT$6branch17hcf2da1828894c67cE"(ptr sret([24 x i8]) align 8 %_36, ptr align 8 %_37)
          to label %bb24 unwind label %cleanup, !dbg !3019

bb24:                                             ; preds = %bb23
  %47 = load i64, ptr %_36, align 8, !dbg !3019
  %48 = icmp eq i64 %47, -9223372036854775807, !dbg !3019
  %_39 = select i1 %48, i64 1, i64 0, !dbg !3019
  %49 = icmp eq i64 %_39, 0, !dbg !3019
  br i1 %49, label %bb25, label %bb26, !dbg !3019

bb25:                                             ; preds = %bb24
  call void @llvm.memcpy.p0.p0.i64(ptr align 8 %val3, ptr align 8 %_36, i64 24, i1 false), !dbg !3019
  %50 = load i64, ptr %val3, align 8, !dbg !3019
  %51 = icmp eq i64 %50, -9223372036854775808, !dbg !3019
  %_42 = select i1 %51, i64 0, i64 1, !dbg !3019
  %52 = icmp eq i64 %_42, 0, !dbg !3019
  br i1 %52, label %bb27, label %bb28, !dbg !3019

bb26:                                             ; preds = %bb24
  %53 = getelementptr inbounds i8, ptr %_36, i64 8, !dbg !3023
  %residual = load ptr, ptr %53, align 8, !dbg !3023
  store ptr %residual, ptr %residual.dbg.spill, align 8, !dbg !3023
    #dbg_declare(ptr %residual.dbg.spill, !2986, !DIExpression(), !3024)
  invoke void @"_ZN153_$LT$core..result..Result$LT$T$C$F$GT$$u20$as$u20$core..ops..try_trait..FromResidual$LT$core..result..Result$LT$core..convert..Infallible$C$E$GT$$GT$$GT$13from_residual17ha01b68dfcc208291E"(ptr sret([48 x i8]) align 8 %_0, ptr align 8 %residual, ptr align 8 @alloc_ae52e422ab29884b58622d79788975fe)
          to label %bb37 unwind label %cleanup, !dbg !3025

bb27:                                             ; preds = %bb25
  %_44 = invoke align 8 ptr @_ZN5serde2de5Error14invalid_length17h9e2d4f799e4839deE(i64 3, ptr align 1 @alloc_f58fcb9c4e49c192b1285e58cb79b058, ptr align 8 @vtable.1)
          to label %bb29 unwind label %cleanup, !dbg !3019

bb28:                                             ; preds = %bb25
  call void @llvm.memcpy.p0.p0.i64(ptr align 8 %__field3, ptr align 8 %val3, i64 24, i1 false), !dbg !3019
  %54 = getelementptr inbounds i8, ptr %_47, i64 24, !dbg !3000
  store i64 %__field0, ptr %54, align 8, !dbg !3000
  %55 = getelementptr inbounds i8, ptr %_47, i64 32, !dbg !3000
  store i64 %__field1, ptr %55, align 8, !dbg !3000
  %56 = getelementptr inbounds i8, ptr %_47, i64 40, !dbg !3000
  store i64 %__field2, ptr %56, align 8, !dbg !3000
  call void @llvm.memcpy.p0.p0.i64(ptr align 8 %_47, ptr align 8 %__field3, i64 24, i1 false), !dbg !3000
  call void @llvm.memcpy.p0.p0.i64(ptr align 8 %_0, ptr align 8 %_47, i64 48, i1 false), !dbg !3000
  br label %bb31, !dbg !3002

bb29:                                             ; preds = %bb27
  %57 = getelementptr inbounds i8, ptr %_0, i64 8, !dbg !3019
  store ptr %_44, ptr %57, align 8, !dbg !3019
  store i64 -9223372036854775808, ptr %_0, align 8, !dbg !3019
  br label %bb30, !dbg !3023

bb31:                                             ; preds = %bb28, %bb30
  ret void, !dbg !3026

bb37:                                             ; preds = %bb26
  br label %bb30, !dbg !3025

bb36:                                             ; preds = %bb19
  br label %bb30, !dbg !3018

bb35:                                             ; preds = %bb12
  br label %bb30, !dbg !3011

bb34:                                             ; preds = %bb5
  br label %bb30, !dbg !3004

bb3:                                              ; No predecessors!
  unreachable, !dbg !3007
}

; Function Attrs: inlinehint nonlazybind uwtable
define internal void @"_ZN167_$LT$OpenFaaSRPC.._..$LT$impl$u20$serde..de..Deserialize$u20$for$u20$OpenFaaSRPC..WriteHomeTimelineArgs$GT$..deserialize..__Field$u20$as$u20$serde..de..Deserialize$GT$11deserialize17hc6a6df345ccc3442E"(ptr sret([16 x i8]) align 8 %_0, ptr align 8 %__deserializer) unnamed_addr #1 !dbg !3027 {
start:
  %__deserializer.dbg.spill = alloca [8 x i8], align 8
  store ptr %__deserializer, ptr %__deserializer.dbg.spill, align 8
    #dbg_declare(ptr %__deserializer.dbg.spill, !3049, !DIExpression(), !3052)
  call void @"_ZN75_$LT$serde_json..de..MapKey$LT$R$GT$$u20$as$u20$serde..de..Deserializer$GT$22deserialize_identifier17ha66ba53b0c5dd08fE"(ptr sret([16 x i8]) align 8 %_0, ptr align 8 %__deserializer), !dbg !3052
  ret void, !dbg !3053
}

; Function Attrs: nonlazybind uwtable
define internal zeroext i1 @"_ZN167_$LT$serde..de..impls..$LT$impl$u20$serde..de..Deserialize$u20$for$u20$alloc..vec..Vec$LT$T$GT$$GT$..deserialize..VecVisitor$LT$T$GT$$u20$as$u20$serde..de..Visitor$GT$9expecting17h546e1f24d7b480c9E"(ptr align 1 %self, ptr align 8 %formatter) unnamed_addr #0 !dbg !3054 {
start:
  %formatter.dbg.spill = alloca [8 x i8], align 8
  %self.dbg.spill = alloca [8 x i8], align 8
  store ptr %self, ptr %self.dbg.spill, align 8
    #dbg_declare(ptr %self.dbg.spill, !3108, !DIExpression(), !3110)
  store ptr %formatter, ptr %formatter.dbg.spill, align 8
    #dbg_declare(ptr %formatter.dbg.spill, !3109, !DIExpression(), !3111)
  %_0 = call zeroext i1 @_ZN4core3fmt9Formatter9write_str17h9c3d36917088d88dE(ptr align 8 %formatter, ptr align 1 @alloc_c705cb38a8523735dfb9d88c7a0743fd, i64 10), !dbg !3112
  ret i1 %_0, !dbg !3113
}

; Function Attrs: nonlazybind uwtable
define internal void @"_ZN167_$LT$serde..de..impls..$LT$impl$u20$serde..de..Deserialize$u20$for$u20$alloc..vec..Vec$LT$T$GT$$GT$..deserialize..VecVisitor$LT$T$GT$$u20$as$u20$serde..de..Visitor$GT$9visit_seq17h84ae802752aafbb0E"(ptr sret([24 x i8]) align 8 %_0, ptr align 8 %0, i1 zeroext %1) unnamed_addr #0 personality ptr @rust_eh_personality !dbg !3114 {
start:
  %err.dbg.spill = alloca [8 x i8], align 8
  %value.dbg.spill = alloca [8 x i8], align 8
  %val.dbg.spill = alloca [16 x i8], align 8
  %capacity.dbg.spill = alloca [8 x i8], align 8
  %2 = alloca [16 x i8], align 8
  %self.dbg.spill = alloca [0 x i8], align 1
  %_1.dbg.spill = alloca [0 x i8], align 1
  %_17 = alloca [24 x i8], align 8
  %_8 = alloca [16 x i8], align 8
  %_7 = alloca [16 x i8], align 8
  %values = alloca [24 x i8], align 8
  %seq = alloca [16 x i8], align 8
  store ptr %0, ptr %seq, align 8
  %3 = getelementptr inbounds i8, ptr %seq, i64 8
  %4 = zext i1 %1 to i8
  store i8 %4, ptr %3, align 8
    #dbg_declare(ptr %_1.dbg.spill, !3131, !DIExpression(), !3134)
    #dbg_declare(ptr %seq, !3119, !DIExpression(), !3135)
    #dbg_declare(ptr %values, !3122, !DIExpression(), !3136)
    #dbg_declare(ptr %self.dbg.spill, !3118, !DIExpression(), !3134)
  %5 = invoke { i64, i64 } @_ZN5serde2de9SeqAccess9size_hint17he9402b4d0dafd482E(ptr align 8 %seq)
          to label %bb1 unwind label %cleanup, !dbg !3137

bb13:                                             ; preds = %bb12, %cleanup
  %6 = load ptr, ptr %2, align 8, !dbg !3138
  %7 = getelementptr inbounds i8, ptr %2, i64 8, !dbg !3138
  %8 = load i32, ptr %7, align 8, !dbg !3138
  %9 = insertvalue { ptr, i32 } poison, ptr %6, 0, !dbg !3138
  %10 = insertvalue { ptr, i32 } %9, i32 %8, 1, !dbg !3138
  resume { ptr, i32 } %10, !dbg !3138

cleanup:                                          ; preds = %bb6, %bb2, %bb1, %start
  %11 = landingpad { ptr, i32 }
          cleanup
  %12 = extractvalue { ptr, i32 } %11, 0
  %13 = extractvalue { ptr, i32 } %11, 1
  store ptr %12, ptr %2, align 8
  %14 = getelementptr inbounds i8, ptr %2, i64 8
  store i32 %13, ptr %14, align 8
  br label %bb13

bb1:                                              ; preds = %start
  %_4.0 = extractvalue { i64, i64 } %5, 0, !dbg !3137
  %_4.1 = extractvalue { i64, i64 } %5, 1, !dbg !3137
  %capacity = invoke i64 @_ZN5serde2de9size_hint8cautious17hf29aa8df9b3bc5dcE(i64 %_4.0, i64 %_4.1)
          to label %bb2 unwind label %cleanup, !dbg !3139

bb2:                                              ; preds = %bb1
  store i64 %capacity, ptr %capacity.dbg.spill, align 8, !dbg !3139
    #dbg_declare(ptr %capacity.dbg.spill, !3120, !DIExpression(), !3140)
  invoke void @"_ZN5alloc3vec12Vec$LT$T$GT$13with_capacity17hc8862a335add72abE"(ptr sret([24 x i8]) align 8 %values, i64 %capacity, ptr align 8 @alloc_ae52e422ab29884b58622d79788975fe)
          to label %bb16 unwind label %cleanup, !dbg !3141

bb16:                                             ; preds = %bb2
  br label %bb3, !dbg !3141

bb3:                                              ; preds = %bb17, %bb16
  invoke void @_ZN5serde2de9SeqAccess12next_element17hd111f8534bdccd83E(ptr sret([16 x i8]) align 8 %_8, ptr align 8 %seq)
          to label %bb4 unwind label %cleanup1, !dbg !3142

bb12:                                             ; preds = %cleanup1
  invoke void @"_ZN4core3ptr47drop_in_place$LT$alloc..vec..Vec$LT$i64$GT$$GT$17h45a35d44e4fb44aaE"(ptr align 8 %values) #25
          to label %bb13 unwind label %terminate, !dbg !3143

cleanup1:                                         ; preds = %bb9, %bb3
  %15 = landingpad { ptr, i32 }
          cleanup
  %16 = extractvalue { ptr, i32 } %15, 0
  %17 = extractvalue { ptr, i32 } %15, 1
  store ptr %16, ptr %2, align 8
  %18 = getelementptr inbounds i8, ptr %2, i64 8
  store i32 %17, ptr %18, align 8
  br label %bb12

bb4:                                              ; preds = %bb3
  %19 = load i64, ptr %_8, align 8, !dbg !3142
  %20 = icmp eq i64 %19, 2, !dbg !3142
  %_10 = select i1 %20, i64 1, i64 0, !dbg !3142
  %21 = icmp eq i64 %_10, 0, !dbg !3144
  br i1 %21, label %bb7, label %bb6, !dbg !3144

bb7:                                              ; preds = %bb4
  %val.0 = load i64, ptr %_8, align 8, !dbg !3146
  %22 = getelementptr inbounds i8, ptr %_8, i64 8, !dbg !3146
  %val.1 = load i64, ptr %22, align 8, !dbg !3146
  store i64 %val.0, ptr %val.dbg.spill, align 8, !dbg !3146
  %23 = getelementptr inbounds i8, ptr %val.dbg.spill, i64 8, !dbg !3146
  store i64 %val.1, ptr %23, align 8, !dbg !3146
    #dbg_declare(ptr %val.dbg.spill, !3124, !DIExpression(), !3147)
  store i64 %val.0, ptr %_7, align 8, !dbg !3148
  %24 = getelementptr inbounds i8, ptr %_7, i64 8, !dbg !3148
  store i64 %val.1, ptr %24, align 8, !dbg !3148
  %_13 = load i64, ptr %_7, align 8, !dbg !3144
  %25 = icmp eq i64 %_13, 1, !dbg !3149
  br i1 %25, label %bb9, label %bb8, !dbg !3149

bb6:                                              ; preds = %bb4
  %26 = getelementptr inbounds i8, ptr %_8, i64 8, !dbg !3150
  %err = load ptr, ptr %26, align 8, !dbg !3150
  store ptr %err, ptr %err.dbg.spill, align 8, !dbg !3150
    #dbg_declare(ptr %err.dbg.spill, !3128, !DIExpression(), !3151)
  %27 = getelementptr inbounds i8, ptr %_0, i64 8, !dbg !3152
  store ptr %err, ptr %27, align 8, !dbg !3152
  store i64 -9223372036854775808, ptr %_0, align 8, !dbg !3152
  invoke void @"_ZN4core3ptr47drop_in_place$LT$alloc..vec..Vec$LT$i64$GT$$GT$17h45a35d44e4fb44aaE"(ptr align 8 %values)
          to label %bb10 unwind label %cleanup, !dbg !3143

bb9:                                              ; preds = %bb7
  %28 = getelementptr inbounds i8, ptr %_7, i64 8, !dbg !3153
  %value = load i64, ptr %28, align 8, !dbg !3153
  store i64 %value, ptr %value.dbg.spill, align 8, !dbg !3153
    #dbg_declare(ptr %value.dbg.spill, !3130, !DIExpression(), !3153)
  invoke void @"_ZN5alloc3vec16Vec$LT$T$C$A$GT$4push17hf36c626d8bbcfa49E"(ptr align 8 %values, i64 %value, ptr align 8 @alloc_ae52e422ab29884b58622d79788975fe)
          to label %bb17 unwind label %cleanup1, !dbg !3154

bb8:                                              ; preds = %bb7
  br label %bb15, !dbg !3155

bb17:                                             ; preds = %bb9
  br label %bb3, !dbg !3154

bb15:                                             ; preds = %bb8
  call void @llvm.memcpy.p0.p0.i64(ptr align 8 %_17, ptr align 8 %values, i64 24, i1 false), !dbg !3156
  call void @llvm.memcpy.p0.p0.i64(ptr align 8 %_0, ptr align 8 %_17, i64 24, i1 false), !dbg !3157
  br label %bb11, !dbg !3158

bb11:                                             ; preds = %bb10, %bb15
  ret void, !dbg !3159

bb10:                                             ; preds = %bb6
  br label %bb11, !dbg !3158

bb5:                                              ; No predecessors!
  unreachable, !dbg !3142

terminate:                                        ; preds = %bb12
  %29 = landingpad { ptr, i32 }
          filter [0 x ptr] zeroinitializer
  %30 = extractvalue { ptr, i32 } %29, 0
  %31 = extractvalue { ptr, i32 } %29, 1
  call void @_ZN4core9panicking16panic_in_cleanup17hdb19dc6496e5af6eE() #26, !dbg !3138
  unreachable, !dbg !3138
}

; Function Attrs: nonlazybind uwtable
define internal void @"_ZN170_$LT$OpenFaaSRPC.._..$LT$impl$u20$serde..de..Deserialize$u20$for$u20$OpenFaaSRPC..WriteHomeTimelineArgs$GT$..deserialize..__FieldVisitor$u20$as$u20$serde..de..Visitor$GT$9visit_str17h4037aee19fcf7eeeE"(ptr sret([16 x i8]) align 8 %_0, ptr align 1 %__value.0, i64 %__value.1) unnamed_addr #0 !dbg !3160 {
start:
  %self.dbg.spill = alloca [0 x i8], align 1
  %__value.dbg.spill = alloca [16 x i8], align 8
  %_1.dbg.spill = alloca [0 x i8], align 1
  %_11 = alloca [1 x i8], align 1
  %_10 = alloca [1 x i8], align 1
  %_9 = alloca [1 x i8], align 1
  %_8 = alloca [1 x i8], align 1
  %_7 = alloca [1 x i8], align 1
    #dbg_declare(ptr %_1.dbg.spill, !3168, !DIExpression(), !3171)
  store ptr %__value.0, ptr %__value.dbg.spill, align 8
  %0 = getelementptr inbounds i8, ptr %__value.dbg.spill, i64 8
  store i64 %__value.1, ptr %0, align 8
    #dbg_declare(ptr %__value.dbg.spill, !3167, !DIExpression(), !3171)
    #dbg_declare(ptr %self.dbg.spill, !3166, !DIExpression(), !3171)
  %_6 = call zeroext i1 @"_ZN4core3str6traits54_$LT$impl$u20$core..cmp..PartialEq$u20$for$u20$str$GT$2eq17h8a3e58a60ba4ca78E"(ptr align 1 %__value.0, i64 %__value.1, ptr align 1 @alloc_fbf529a31431d812ea51987957c18fdb, i64 7), !dbg !3172
  br i1 %_6, label %bb2, label %bb3, !dbg !3172

bb3:                                              ; preds = %start
  %_5 = call zeroext i1 @"_ZN4core3str6traits54_$LT$impl$u20$core..cmp..PartialEq$u20$for$u20$str$GT$2eq17h8a3e58a60ba4ca78E"(ptr align 1 %__value.0, i64 %__value.1, ptr align 1 @alloc_17c2596754a11fa444906090c11cb050, i64 7), !dbg !3173
  br i1 %_5, label %bb4, label %bb5, !dbg !3173

bb2:                                              ; preds = %start
  store i8 0, ptr %_7, align 1, !dbg !3171
  %1 = load i8, ptr %_7, align 1, !dbg !3171
  %2 = getelementptr inbounds i8, ptr %_0, i64 1, !dbg !3171
  store i8 %1, ptr %2, align 1, !dbg !3171
  store i8 0, ptr %_0, align 8, !dbg !3171
  br label %bb13, !dbg !3174

bb5:                                              ; preds = %bb3
  %_4 = call zeroext i1 @"_ZN4core3str6traits54_$LT$impl$u20$core..cmp..PartialEq$u20$for$u20$str$GT$2eq17h8a3e58a60ba4ca78E"(ptr align 1 %__value.0, i64 %__value.1, ptr align 1 @alloc_5e776ce52c9f5c81d68da620afd2d199, i64 9), !dbg !3175
  br i1 %_4, label %bb6, label %bb7, !dbg !3175

bb4:                                              ; preds = %bb3
  store i8 1, ptr %_8, align 1, !dbg !3171
  %3 = load i8, ptr %_8, align 1, !dbg !3171
  %4 = getelementptr inbounds i8, ptr %_0, i64 1, !dbg !3171
  store i8 %3, ptr %4, align 1, !dbg !3171
  store i8 0, ptr %_0, align 8, !dbg !3171
  br label %bb13, !dbg !3174

bb7:                                              ; preds = %bb5
  %_3 = call zeroext i1 @"_ZN4core3str6traits54_$LT$impl$u20$core..cmp..PartialEq$u20$for$u20$str$GT$2eq17h8a3e58a60ba4ca78E"(ptr align 1 %__value.0, i64 %__value.1, ptr align 1 @alloc_831319f78ea5ff8c180eff7cc714c6a5, i64 16), !dbg !3176
  br i1 %_3, label %bb8, label %bb1, !dbg !3176

bb6:                                              ; preds = %bb5
  store i8 2, ptr %_9, align 1, !dbg !3171
  %5 = load i8, ptr %_9, align 1, !dbg !3171
  %6 = getelementptr inbounds i8, ptr %_0, i64 1, !dbg !3171
  store i8 %5, ptr %6, align 1, !dbg !3171
  store i8 0, ptr %_0, align 8, !dbg !3171
  br label %bb13, !dbg !3174

bb1:                                              ; preds = %bb7
  store i8 4, ptr %_11, align 1, !dbg !3171
  %7 = load i8, ptr %_11, align 1, !dbg !3171
  %8 = getelementptr inbounds i8, ptr %_0, i64 1, !dbg !3171
  store i8 %7, ptr %8, align 1, !dbg !3171
  store i8 0, ptr %_0, align 8, !dbg !3171
  br label %bb13, !dbg !3174

bb8:                                              ; preds = %bb7
  store i8 3, ptr %_10, align 1, !dbg !3171
  %9 = load i8, ptr %_10, align 1, !dbg !3171
  %10 = getelementptr inbounds i8, ptr %_0, i64 1, !dbg !3171
  store i8 %9, ptr %10, align 1, !dbg !3171
  store i8 0, ptr %_0, align 8, !dbg !3171
  br label %bb13, !dbg !3174

bb13:                                             ; preds = %bb8, %bb1, %bb6, %bb4, %bb2
  ret void, !dbg !3177
}

; Function Attrs: inlinehint nonlazybind uwtable
define internal align 1 ptr @"_ZN3std11collections4hash3map18Entry$LT$K$C$V$GT$14or_insert_with17h9bd3b49cb799e5abE"(ptr align 8 %self) unnamed_addr #1 personality ptr @rust_eh_personality !dbg !3178 {
start:
  %0 = alloca [16 x i8], align 8
  %entry.dbg.spill = alloca [16 x i8], align 8
  %default.dbg.spill = alloca [0 x i8], align 1
  %_13 = alloca [1 x i8], align 1
  %_12 = alloca [1 x i8], align 1
  %_9 = alloca [24 x i8], align 8
  %entry = alloca [24 x i8], align 8
  %_3 = alloca [8 x i8], align 8
    #dbg_declare(ptr %self, !3216, !DIExpression(), !3222)
    #dbg_declare(ptr %default.dbg.spill, !3217, !DIExpression(), !3223)
    #dbg_declare(ptr %entry, !3220, !DIExpression(), !3224)
  store i8 0, ptr %_12, align 1, !dbg !3225
  store i8 0, ptr %_13, align 1, !dbg !3225
  store i8 1, ptr %_12, align 1, !dbg !3225
  %1 = load ptr, ptr %self, align 8, !dbg !3226
  %2 = ptrtoint ptr %1 to i64, !dbg !3226
  %3 = icmp eq i64 %2, 0, !dbg !3226
  %_4 = select i1 %3, i64 0, i64 1, !dbg !3226
  %4 = icmp eq i64 %_4, 0, !dbg !3225
  br i1 %4, label %bb3, label %bb2, !dbg !3225

bb3:                                              ; preds = %start
  %5 = getelementptr inbounds i8, ptr %self, i64 8, !dbg !3227
  %entry.0 = load ptr, ptr %5, align 8, !dbg !3227
  %6 = getelementptr inbounds i8, ptr %5, i64 8, !dbg !3227
  %entry.1 = load ptr, ptr %6, align 8, !dbg !3227
  store ptr %entry.0, ptr %entry.dbg.spill, align 8, !dbg !3227
  %7 = getelementptr inbounds i8, ptr %entry.dbg.spill, i64 8, !dbg !3227
  store ptr %entry.1, ptr %7, align 8, !dbg !3227
    #dbg_declare(ptr %entry.dbg.spill, !3218, !DIExpression(), !3228)
  %_6 = invoke align 1 ptr @"_ZN3std11collections4hash3map26OccupiedEntry$LT$K$C$V$GT$8into_mut17h7cd9eff12faa93b3E"(ptr %entry.0, ptr align 8 %entry.1)
          to label %bb4 unwind label %cleanup, !dbg !3229

bb2:                                              ; preds = %start
  call void @llvm.memcpy.p0.p0.i64(ptr align 8 %entry, ptr align 8 %self, i64 24, i1 false), !dbg !3230
  store i8 1, ptr %_13, align 1, !dbg !3231
  call void @llvm.memcpy.p0.p0.i64(ptr align 8 %_9, ptr align 8 %entry, i64 24, i1 false), !dbg !3231
  store i8 0, ptr %_12, align 1, !dbg !3232
  %_10 = invoke zeroext i1 @"_ZN8function4main28_$u7b$$u7b$closure$u7d$$u7d$17h223336d6edcba749E_write-home-timeline"()
          to label %bb5 unwind label %cleanup1, !dbg !3232

bb14:                                             ; preds = %bb11, %bb12, %cleanup
  %8 = load i8, ptr %_12, align 1, !dbg !3233
  %9 = trunc i8 %8 to i1, !dbg !3233
  br i1 %9, label %bb13, label %bb9, !dbg !3233

cleanup:                                          ; preds = %bb3
  %10 = landingpad { ptr, i32 }
          cleanup
  %11 = extractvalue { ptr, i32 } %10, 0
  %12 = extractvalue { ptr, i32 } %10, 1
  store ptr %11, ptr %0, align 8
  %13 = getelementptr inbounds i8, ptr %0, i64 8
  store i32 %12, ptr %13, align 8
  br label %bb14

bb4:                                              ; preds = %bb3
  store ptr %_6, ptr %_3, align 8, !dbg !3229
  br label %bb7, !dbg !3234

bb7:                                              ; preds = %bb6, %bb4
  %_0 = load ptr, ptr %_3, align 8, !dbg !3225
  %14 = load i8, ptr %_12, align 1, !dbg !3233
  %15 = trunc i8 %14 to i1, !dbg !3233
  br i1 %15, label %bb10, label %bb8, !dbg !3233

bb12:                                             ; preds = %cleanup1
  %16 = load i8, ptr %_13, align 1, !dbg !3235
  %17 = trunc i8 %16 to i1, !dbg !3235
  br i1 %17, label %bb11, label %bb14, !dbg !3235

cleanup1:                                         ; preds = %bb5, %bb2
  %18 = landingpad { ptr, i32 }
          cleanup
  %19 = extractvalue { ptr, i32 } %18, 0
  %20 = extractvalue { ptr, i32 } %18, 1
  store ptr %19, ptr %0, align 8
  %21 = getelementptr inbounds i8, ptr %0, i64 8
  store i32 %20, ptr %21, align 8
  br label %bb12

bb5:                                              ; preds = %bb2
  store i8 0, ptr %_13, align 1, !dbg !3231
  %_8 = invoke align 1 ptr @"_ZN3std11collections4hash3map24VacantEntry$LT$K$C$V$GT$6insert17hd07dedbd02f04fe8E"(ptr align 8 %_9, i1 zeroext %_10)
          to label %bb6 unwind label %cleanup1, !dbg !3231

bb6:                                              ; preds = %bb5
  store ptr %_8, ptr %_3, align 8, !dbg !3231
  store i8 0, ptr %_13, align 1, !dbg !3235
  br label %bb7, !dbg !3236

bb8:                                              ; preds = %bb10, %bb7
  ret ptr %_0, !dbg !3237

bb10:                                             ; preds = %bb7
  br label %bb8, !dbg !3233

bb11:                                             ; preds = %bb12
  br label %bb14, !dbg !3235

bb9:                                              ; preds = %bb13, %bb14
  %22 = load ptr, ptr %0, align 8, !dbg !3238
  %23 = getelementptr inbounds i8, ptr %0, i64 8, !dbg !3238
  %24 = load i32, ptr %23, align 8, !dbg !3238
  %25 = insertvalue { ptr, i32 } poison, ptr %22, 0, !dbg !3238
  %26 = insertvalue { ptr, i32 } %25, i32 %24, 1, !dbg !3238
  resume { ptr, i32 } %26, !dbg !3238

bb13:                                             ; preds = %bb14
  br label %bb9, !dbg !3233

bb1:                                              ; No predecessors!
  unreachable, !dbg !3226
}

; Function Attrs: inlinehint nonlazybind uwtable
define internal void @"_ZN3std11collections4hash3map24HashMap$LT$K$C$V$C$S$GT$11with_hasher17h3961d2af7679e9f8E"(ptr sret([48 x i8]) align 8 %_0, i64 %hash_builder.0, i64 %hash_builder.1) unnamed_addr #1 !dbg !3239 {
start:
  %hash_builder.dbg.spill = alloca [16 x i8], align 8
  %_2 = alloca [48 x i8], align 8
  store i64 %hash_builder.0, ptr %hash_builder.dbg.spill, align 8
  %0 = getelementptr inbounds i8, ptr %hash_builder.dbg.spill, i64 8
  store i64 %hash_builder.1, ptr %0, align 8
    #dbg_declare(ptr %hash_builder.dbg.spill, !3244, !DIExpression(), !3245)
  call void @"_ZN9hashbrown3map24HashMap$LT$K$C$V$C$S$GT$11with_hasher17h020a035c5b82dea0E"(ptr sret([48 x i8]) align 8 %_2, i64 %hash_builder.0, i64 %hash_builder.1), !dbg !3246
  call void @llvm.memcpy.p0.p0.i64(ptr align 8 %_0, ptr align 8 %_2, i64 48, i1 false), !dbg !3247
  ret void, !dbg !3248
}

; Function Attrs: inlinehint nonlazybind uwtable
define internal void @"_ZN3std11collections4hash3map24HashMap$LT$K$C$V$C$S$GT$5entry17hcd32cd912258d272E"(ptr sret([24 x i8]) align 8 %_0, ptr align 8 %self, i64 %key) unnamed_addr #1 !dbg !3249 {
start:
  %key.dbg.spill = alloca [8 x i8], align 8
  %self.dbg.spill = alloca [8 x i8], align 8
  %_3 = alloca [24 x i8], align 8
  store ptr %self, ptr %self.dbg.spill, align 8
    #dbg_declare(ptr %self.dbg.spill, !3254, !DIExpression(), !3256)
  store i64 %key, ptr %key.dbg.spill, align 8
    #dbg_declare(ptr %key.dbg.spill, !3255, !DIExpression(), !3257)
  call void @"_ZN9hashbrown11rustc_entry62_$LT$impl$u20$hashbrown..map..HashMap$LT$K$C$V$C$S$C$A$GT$$GT$11rustc_entry17hd4b684b273c83f93E"(ptr sret([24 x i8]) align 8 %_3, ptr align 8 %self, i64 %key), !dbg !3258
  call void @_ZN3std11collections4hash3map9map_entry17h9043e50b15741de6E(ptr sret([24 x i8]) align 8 %_0, ptr align 8 %_3), !dbg !3259
  ret void, !dbg !3260
}

; Function Attrs: inlinehint nonlazybind uwtable
define internal align 1 ptr @"_ZN3std11collections4hash3map24VacantEntry$LT$K$C$V$GT$6insert17hd07dedbd02f04fe8E"(ptr align 8 %self, i1 zeroext %value) unnamed_addr #1 !dbg !3261 {
start:
  %value.dbg.spill = alloca [1 x i8], align 1
  %_3 = alloca [24 x i8], align 8
    #dbg_declare(ptr %self, !3266, !DIExpression(), !3268)
  %0 = zext i1 %value to i8
  store i8 %0, ptr %value.dbg.spill, align 1
    #dbg_declare(ptr %value.dbg.spill, !3267, !DIExpression(), !3269)
  call void @llvm.memcpy.p0.p0.i64(ptr align 8 %_3, ptr align 8 %self, i64 24, i1 false), !dbg !3270
  %_0 = call align 1 ptr @"_ZN9hashbrown11rustc_entry33RustcVacantEntry$LT$K$C$V$C$A$GT$6insert17hc79c62ac4aab83bdE"(ptr align 8 %_3, i1 zeroext %value), !dbg !3270
  ret ptr %_0, !dbg !3271
}

; Function Attrs: inlinehint nonlazybind uwtable
define internal align 1 ptr @"_ZN3std11collections4hash3map26OccupiedEntry$LT$K$C$V$GT$8into_mut17h7cd9eff12faa93b3E"(ptr %self.0, ptr align 8 %self.1) unnamed_addr #1 !dbg !3272 {
start:
  %self.dbg.spill = alloca [16 x i8], align 8
  store ptr %self.0, ptr %self.dbg.spill, align 8
  %0 = getelementptr inbounds i8, ptr %self.dbg.spill, i64 8
  store ptr %self.1, ptr %0, align 8
    #dbg_declare(ptr %self.dbg.spill, !3277, !DIExpression(), !3278)
  %_0 = call align 1 ptr @"_ZN9hashbrown11rustc_entry35RustcOccupiedEntry$LT$K$C$V$C$A$GT$8into_mut17h3c226434b24392b6E"(ptr %self.0, ptr align 8 %self.1), !dbg !3279
  ret ptr %_0, !dbg !3280
}

; Function Attrs: inlinehint nonlazybind uwtable
define internal void @_ZN3std11collections4hash3map9map_entry17h9043e50b15741de6E(ptr sret([24 x i8]) align 8 %_0, ptr align 8 %raw) unnamed_addr #1 !dbg !3281 {
start:
  %base.dbg.spill = alloca [16 x i8], align 8
  %_6 = alloca [24 x i8], align 8
  %base = alloca [24 x i8], align 8
    #dbg_declare(ptr %raw, !3298, !DIExpression(), !3303)
    #dbg_declare(ptr %base, !3301, !DIExpression(), !3304)
  %0 = load ptr, ptr %raw, align 8, !dbg !3305
  %1 = ptrtoint ptr %0 to i64, !dbg !3305
  %2 = icmp eq i64 %1, 0, !dbg !3305
  %_2 = select i1 %2, i64 0, i64 1, !dbg !3305
  %3 = icmp eq i64 %_2, 0, !dbg !3306
  br i1 %3, label %bb3, label %bb2, !dbg !3306

bb3:                                              ; preds = %start
  %4 = getelementptr inbounds i8, ptr %raw, i64 8, !dbg !3307
  %base.0 = load ptr, ptr %4, align 8, !dbg !3307
  %5 = getelementptr inbounds i8, ptr %4, i64 8, !dbg !3307
  %base.1 = load ptr, ptr %5, align 8, !dbg !3307
  store ptr %base.0, ptr %base.dbg.spill, align 8, !dbg !3307
  %6 = getelementptr inbounds i8, ptr %base.dbg.spill, i64 8, !dbg !3307
  store ptr %base.1, ptr %6, align 8, !dbg !3307
    #dbg_declare(ptr %base.dbg.spill, !3299, !DIExpression(), !3308)
  %7 = getelementptr inbounds i8, ptr %_0, i64 8, !dbg !3309
  store ptr %base.0, ptr %7, align 8, !dbg !3309
  %8 = getelementptr inbounds i8, ptr %7, i64 8, !dbg !3309
  store ptr %base.1, ptr %8, align 8, !dbg !3309
  store ptr null, ptr %_0, align 8, !dbg !3309
  br label %bb4, !dbg !3310

bb2:                                              ; preds = %start
  call void @llvm.memcpy.p0.p0.i64(ptr align 8 %base, ptr align 8 %raw, i64 24, i1 false), !dbg !3311
  call void @llvm.memcpy.p0.p0.i64(ptr align 8 %_6, ptr align 8 %base, i64 24, i1 false), !dbg !3312
  call void @llvm.memcpy.p0.p0.i64(ptr align 8 %_0, ptr align 8 %_6, i64 24, i1 false), !dbg !3313
  br label %bb4, !dbg !3314

bb4:                                              ; preds = %bb2, %bb3
  ret void, !dbg !3315

bb1:                                              ; No predecessors!
  unreachable, !dbg !3305
}

; Function Attrs: nonlazybind uwtable
define hidden i64 @_ZN3std2rt10lang_start17h72125b49843628faE(ptr %main, i64 %argc, ptr %argv, i8 %sigpipe) unnamed_addr #0 !dbg !3316 {
start:
  %v.dbg.spill = alloca [8 x i8], align 8
  %sigpipe.dbg.spill = alloca [1 x i8], align 1
  %argv.dbg.spill = alloca [8 x i8], align 8
  %argc.dbg.spill = alloca [8 x i8], align 8
  %main.dbg.spill = alloca [8 x i8], align 8
  %_8 = alloca [8 x i8], align 8
  %_5 = alloca [8 x i8], align 8
  store ptr %main, ptr %main.dbg.spill, align 8
    #dbg_declare(ptr %main.dbg.spill, !3323, !DIExpression(), !3329)
  store i64 %argc, ptr %argc.dbg.spill, align 8
    #dbg_declare(ptr %argc.dbg.spill, !3324, !DIExpression(), !3330)
  store ptr %argv, ptr %argv.dbg.spill, align 8
    #dbg_declare(ptr %argv.dbg.spill, !3325, !DIExpression(), !3331)
  store i8 %sigpipe, ptr %sigpipe.dbg.spill, align 1
    #dbg_declare(ptr %sigpipe.dbg.spill, !3326, !DIExpression(), !3332)
  store ptr %main, ptr %_8, align 8, !dbg !3333
  %0 = call i64 @_ZN3std2rt19lang_start_internal17hf028c99a517e8b1aE(ptr align 1 %_8, ptr align 8 @vtable.2, i64 %argc, ptr %argv, i8 %sigpipe), !dbg !3334
  store i64 %0, ptr %_5, align 8, !dbg !3334
  %v = load i64, ptr %_5, align 8, !dbg !3335
  store i64 %v, ptr %v.dbg.spill, align 8, !dbg !3335
    #dbg_declare(ptr %v.dbg.spill, !3327, !DIExpression(), !3336)
  ret i64 %v, !dbg !3337
}

; Function Attrs: inlinehint nonlazybind uwtable
define internal i32 @"_ZN3std2rt10lang_start28_$u7b$$u7b$closure$u7d$$u7d$17h753ccdb3e4a8c247E"(ptr align 8 %_1) unnamed_addr #1 !dbg !3338 {
start:
  %_1.dbg.spill = alloca [8 x i8], align 8
  store ptr %_1, ptr %_1.dbg.spill, align 8
    #dbg_declare(ptr %_1.dbg.spill, !3343, !DIExpression(DW_OP_deref), !3344)
  %_4 = load ptr, ptr %_1, align 8, !dbg !3345
  call void @_ZN3std3sys9backtrace28__rust_begin_short_backtrace17h35d86e51eac050b1E(ptr %_4), !dbg !3346
  %_2 = call i8 @"_ZN54_$LT$$LP$$RP$$u20$as$u20$std..process..Termination$GT$6report17h8a16ccac5711e0caE"(), !dbg !3346
  %_0 = call i32 @_ZN3std7process8ExitCode6to_i3217h0d1af089f26507a8E(i8 %_2), !dbg !3346
  ret i32 %_0, !dbg !3347
}

; Function Attrs: inlinehint nonlazybind uwtable
define internal { ptr, i64 } @_ZN3std3ffi6os_str5OsStr10from_inner17h17c57af2bfa0e095E(ptr align 1 %inner.0, i64 %inner.1) unnamed_addr #1 !dbg !3348 {
start:
  %inner.dbg.spill = alloca [16 x i8], align 8
  store ptr %inner.0, ptr %inner.dbg.spill, align 8
  %0 = getelementptr inbounds i8, ptr %inner.dbg.spill, i64 8
  store i64 %inner.1, ptr %0, align 8
    #dbg_declare(ptr %inner.dbg.spill, !3358, !DIExpression(), !3359)
  %1 = insertvalue { ptr, i64 } poison, ptr %inner.0, 0, !dbg !3360
  %2 = insertvalue { ptr, i64 } %1, i64 %inner.1, 1, !dbg !3360
  ret { ptr, i64 } %2, !dbg !3360
}

; Function Attrs: inlinehint nonlazybind uwtable
define internal { ptr, i64 } @_ZN3std3ffi6os_str5OsStr6to_str17hd64eab3243d7e1a0E(ptr align 1 %self.0, i64 %self.1) unnamed_addr #1 !dbg !3361 {
start:
  %self.dbg.spill = alloca [16 x i8], align 8
  %_2 = alloca [24 x i8], align 8
  store ptr %self.0, ptr %self.dbg.spill, align 8
  %0 = getelementptr inbounds i8, ptr %self.dbg.spill, i64 8
  store i64 %self.1, ptr %0, align 8
    #dbg_declare(ptr %self.dbg.spill, !3379, !DIExpression(), !3380)
  call void @_ZN3std3sys6os_str5bytes5Slice6to_str17h0cfb440360602664E(ptr sret([24 x i8]) align 8 %_2, ptr align 1 %self.0, i64 %self.1), !dbg !3381
  %1 = call { ptr, i64 } @"_ZN4core6result19Result$LT$T$C$E$GT$2ok17hc47ce2a3420d7a27E"(ptr align 8 %_2), !dbg !3381
  %_0.0 = extractvalue { ptr, i64 } %1, 0, !dbg !3381
  %_0.1 = extractvalue { ptr, i64 } %1, 1, !dbg !3381
  %2 = insertvalue { ptr, i64 } poison, ptr %_0.0, 0, !dbg !3382
  %3 = insertvalue { ptr, i64 } %2, i64 %_0.1, 1, !dbg !3382
  ret { ptr, i64 } %3, !dbg !3382
}

; Function Attrs: inlinehint nonlazybind uwtable
define internal i32 @_ZN3std3sys3pal4unix7process14process_common8ExitCode6as_i3217h0f2fe0933d50509fE(ptr align 1 %self) unnamed_addr #1 !dbg !3383 {
start:
  %self.dbg.spill = alloca [8 x i8], align 8
  store ptr %self, ptr %self.dbg.spill, align 8
    #dbg_declare(ptr %self.dbg.spill, !3395, !DIExpression(), !3396)
  %_2 = load i8, ptr %self, align 1, !dbg !3397
  %_0 = zext i8 %_2 to i32, !dbg !3397
  ret i32 %_0, !dbg !3398
}

; Function Attrs: inlinehint nonlazybind uwtable
define internal { ptr, i64 } @_ZN3std3sys6os_str5bytes3Buf8as_slice17he81ae6e64ff8eb6dE(ptr align 8 %self) unnamed_addr #1 !dbg !3399 {
start:
  %self.dbg.spill = alloca [8 x i8], align 8
  store ptr %self, ptr %self.dbg.spill, align 8
    #dbg_declare(ptr %self.dbg.spill, !3406, !DIExpression(), !3407)
  %0 = call { ptr, i64 } @"_ZN72_$LT$alloc..vec..Vec$LT$T$C$A$GT$$u20$as$u20$core..ops..deref..Deref$GT$5deref17h76b989925e0e01acE"(ptr align 8 %self), !dbg !3408
  %_2.0 = extractvalue { ptr, i64 } %0, 0, !dbg !3408
  %_2.1 = extractvalue { ptr, i64 } %0, 1, !dbg !3408
  %1 = insertvalue { ptr, i64 } poison, ptr %_2.0, 0, !dbg !3409
  %2 = insertvalue { ptr, i64 } %1, i64 %_2.1, 1, !dbg !3409
  ret { ptr, i64 } %2, !dbg !3409
}

; Function Attrs: nonlazybind uwtable
define internal void @_ZN3std3sys9backtrace28__rust_begin_short_backtrace17h21e391c6023dec5cE(ptr align 8 %f) unnamed_addr #0 personality ptr @rust_eh_personality !dbg !3410 {
start:
  %0 = alloca [16 x i8], align 8
    #dbg_declare(ptr %f, !3420, !DIExpression(), !3425)
  %result.dbg.spill = alloca [0 x i8], align 1
    #dbg_declare(ptr %result.dbg.spill, !3421, !DIExpression(), !3426)
  call void @"_ZN3std6thread7Builder16spawn_unchecked_28_$u7b$$u7b$closure$u7d$$u7d$28_$u7b$$u7b$closure$u7d$$u7d$28_$u7b$$u7b$closure$u7d$$u7d$17h5ba406c12b58370dE"(ptr align 8 %f), !dbg !3427
  invoke void @_ZN4core4hint9black_box17h0ec8e4bde002e40bE()
          to label %bb2 unwind label %cleanup, !dbg !3428

bb3:                                              ; preds = %cleanup
  %1 = load ptr, ptr %0, align 8, !dbg !3429
  %2 = getelementptr inbounds i8, ptr %0, i64 8, !dbg !3429
  %3 = load i32, ptr %2, align 8, !dbg !3429
  %4 = insertvalue { ptr, i32 } poison, ptr %1, 0, !dbg !3429
  %5 = insertvalue { ptr, i32 } %4, i32 %3, 1, !dbg !3429
  resume { ptr, i32 } %5, !dbg !3429

cleanup:                                          ; preds = %start
  %6 = landingpad { ptr, i32 }
          cleanup
  %7 = extractvalue { ptr, i32 } %6, 0
  %8 = extractvalue { ptr, i32 } %6, 1
  store ptr %7, ptr %0, align 8
  %9 = getelementptr inbounds i8, ptr %0, i64 8
  store i32 %8, ptr %9, align 8
  br label %bb3

bb2:                                              ; preds = %start
  ret void, !dbg !3430
}

; Function Attrs: nonlazybind uwtable
define internal void @_ZN3std3sys9backtrace28__rust_begin_short_backtrace17h35d86e51eac050b1E(ptr %f) unnamed_addr #0 personality ptr @rust_eh_personality !dbg !3431 {
start:
  %0 = alloca [16 x i8], align 8
  %result.dbg.spill = alloca [0 x i8], align 1
  %f.dbg.spill = alloca [8 x i8], align 8
  store ptr %f, ptr %f.dbg.spill, align 8
    #dbg_declare(ptr %f.dbg.spill, !3435, !DIExpression(), !3440)
    #dbg_declare(ptr %result.dbg.spill, !3436, !DIExpression(), !3441)
  call void @_ZN4core3ops8function6FnOnce9call_once17h942a79f1552c309bE(ptr %f), !dbg !3442
  invoke void @_ZN4core4hint9black_box17h0ec8e4bde002e40bE()
          to label %bb2 unwind label %cleanup, !dbg !3443

bb3:                                              ; preds = %cleanup
  %1 = load ptr, ptr %0, align 8, !dbg !3444
  %2 = getelementptr inbounds i8, ptr %0, i64 8, !dbg !3444
  %3 = load i32, ptr %2, align 8, !dbg !3444
  %4 = insertvalue { ptr, i32 } poison, ptr %1, 0, !dbg !3444
  %5 = insertvalue { ptr, i32 } %4, i32 %3, 1, !dbg !3444
  resume { ptr, i32 } %5, !dbg !3444

cleanup:                                          ; preds = %start
  %6 = landingpad { ptr, i32 }
          cleanup
  %7 = extractvalue { ptr, i32 } %6, 0
  %8 = extractvalue { ptr, i32 } %6, 1
  store ptr %7, ptr %0, align 8
  %9 = getelementptr inbounds i8, ptr %0, i64 8
  store i32 %8, ptr %9, align 8
  br label %bb3

bb2:                                              ; preds = %start
  ret void, !dbg !3445
}

; Function Attrs: nonlazybind uwtable
define internal void @_ZN3std3sys9backtrace28__rust_begin_short_backtrace17h7ee3c2a3f80343abE(ptr sret([24 x i8]) align 8 %_0, ptr align 8 %f) unnamed_addr #0 personality ptr @rust_eh_personality !dbg !3446 {
start:
  %0 = alloca [16 x i8], align 8
  %result = alloca [24 x i8], align 8
    #dbg_declare(ptr %f, !3450, !DIExpression(), !3455)
    #dbg_declare(ptr %result, !3451, !DIExpression(), !3456)
  call void @"_ZN8function4main28_$u7b$$u7b$closure$u7d$$u7d$17hc1da42e977191532E_write-home-timeline"(ptr sret([24 x i8]) align 8 %result, ptr align 8 %f), !dbg !3457
  invoke void @_ZN4core4hint9black_box17h0ec8e4bde002e40bE()
          to label %bb2 unwind label %cleanup, !dbg !3458

bb3:                                              ; preds = %cleanup
  invoke void @"_ZN4core3ptr42drop_in_place$LT$alloc..string..String$GT$17hb3b04e371e33c46dE"(ptr align 8 %result) #25
          to label %bb4 unwind label %terminate, !dbg !3459

cleanup:                                          ; preds = %start
  %1 = landingpad { ptr, i32 }
          cleanup
  %2 = extractvalue { ptr, i32 } %1, 0
  %3 = extractvalue { ptr, i32 } %1, 1
  store ptr %2, ptr %0, align 8
  %4 = getelementptr inbounds i8, ptr %0, i64 8
  store i32 %3, ptr %4, align 8
  br label %bb3

bb2:                                              ; preds = %start
  call void @llvm.memcpy.p0.p0.i64(ptr align 8 %_0, ptr align 8 %result, i64 24, i1 false), !dbg !3460
  ret void, !dbg !3461

terminate:                                        ; preds = %bb3
  %5 = landingpad { ptr, i32 }
          filter [0 x ptr] zeroinitializer
  %6 = extractvalue { ptr, i32 } %5, 0
  %7 = extractvalue { ptr, i32 } %5, 1
  call void @_ZN4core9panicking16panic_in_cleanup17hdb19dc6496e5af6eE() #26, !dbg !3462
  unreachable, !dbg !3462

bb4:                                              ; preds = %bb3
  %8 = load ptr, ptr %0, align 8, !dbg !3462
  %9 = getelementptr inbounds i8, ptr %0, i64 8, !dbg !3462
  %10 = load i32, ptr %9, align 8, !dbg !3462
  %11 = insertvalue { ptr, i32 } poison, ptr %8, 0, !dbg !3462
  %12 = insertvalue { ptr, i32 } %11, i32 %10, 1, !dbg !3462
  resume { ptr, i32 } %12, !dbg !3462
}

; Function Attrs: inlinehint nonlazybind uwtable
define internal { i64, i64 } @_ZN3std4hash6random11RandomState3new17h18d07f5f902ca5c1E() unnamed_addr #1 !dbg !3463 {
start:
  %0 = call { i64, i64 } @"_ZN3std6thread5local17LocalKey$LT$T$GT$4with17hdfe39c5fbce9b91bE"(ptr align 8 @alloc_af0ad50687be8757d76841bfb6af39f7), !dbg !3468
  %_0.0 = extractvalue { i64, i64 } %0, 0, !dbg !3468
  %_0.1 = extractvalue { i64, i64 } %0, 1, !dbg !3468
  %1 = insertvalue { i64, i64 } poison, i64 %_0.0, 0, !dbg !3469
  %2 = insertvalue { i64, i64 } %1, i64 %_0.1, 1, !dbg !3469
  ret { i64, i64 } %2, !dbg !3469
}

; Function Attrs: nonlazybind uwtable
define internal { ptr, ptr } @_ZN3std5panic12catch_unwind17h3f11678e05991695E(ptr align 8 %f) unnamed_addr #0 !dbg !3470 {
start:
  %f.dbg.spill = alloca [8 x i8], align 8
  store ptr %f, ptr %f.dbg.spill, align 8
    #dbg_declare(ptr %f.dbg.spill, !3490, !DIExpression(), !3493)
  %0 = call { ptr, ptr } @_ZN3std9panicking3try17h6e542b39147ba5c1E(ptr align 8 %f), !dbg !3494
  %_0.0 = extractvalue { ptr, ptr } %0, 0, !dbg !3494
  %_0.1 = extractvalue { ptr, ptr } %0, 1, !dbg !3494
  %1 = insertvalue { ptr, ptr } poison, ptr %_0.0, 0, !dbg !3495
  %2 = insertvalue { ptr, ptr } %1, ptr %_0.1, 1, !dbg !3495
  ret { ptr, ptr } %2, !dbg !3495
}

; Function Attrs: nonlazybind uwtable
define internal void @_ZN3std5panic12catch_unwind17h967cfe9d374568beE(ptr sret([24 x i8]) align 8 %_0, ptr align 8 %f) unnamed_addr #0 !dbg !3496 {
start:
    #dbg_declare(ptr %f, !3500, !DIExpression(), !3503)
  call void @_ZN3std9panicking3try17he86b60963a67d32dE(ptr sret([24 x i8]) align 8 %_0, ptr align 8 %f), !dbg !3504
  ret void, !dbg !3505
}

; Function Attrs: nonlazybind uwtable
define internal void @"_ZN3std6thread18JoinInner$LT$T$GT$4join17h6235290f95240099E"(ptr sret([24 x i8]) align 8 %_0, ptr align 8 %self) unnamed_addr #0 personality ptr @rust_eh_personality !dbg !3506 {
start:
  %val.dbg.spill.i = alloca [8 x i8], align 8
  %self.i = alloca [8 x i8], align 8
  %self.dbg.spill.i = alloca [8 x i8], align 8
  %0 = alloca [16 x i8], align 8
  %_4 = alloca [24 x i8], align 8
    #dbg_declare(ptr %self, !3511, !DIExpression(), !3512)
  %1 = getelementptr inbounds i8, ptr %self, i64 24, !dbg !3513
  %_3 = load i64, ptr %1, align 8, !dbg !3513
  invoke void @_ZN3std3sys3pal4unix6thread6Thread4join17h681a76dbbece399bE(i64 %_3)
          to label %bb1 unwind label %cleanup, !dbg !3513

bb12:                                             ; preds = %cleanup
  invoke void @"_ZN4core3ptr40drop_in_place$LT$std..thread..Thread$GT$17hb4f698d92bb14bfcE"(ptr align 8 %self) #25
          to label %bb11 unwind label %terminate, !dbg !3514

cleanup:                                          ; preds = %bb2.i3, %bb4, %bb2.i, %bb1, %start
  %2 = landingpad { ptr, i32 }
          cleanup
  %3 = extractvalue { ptr, i32 } %2, 0
  %4 = extractvalue { ptr, i32 } %2, 1
  store ptr %3, ptr %0, align 8
  %5 = getelementptr inbounds i8, ptr %0, i64 8
  store i32 %4, ptr %5, align 8
  br label %bb12

bb1:                                              ; preds = %start
  %_9 = getelementptr inbounds i8, ptr %self, i64 16, !dbg !3515
  %_8 = invoke align 8 ptr @"_ZN5alloc4sync16Arc$LT$T$C$A$GT$7get_mut17h0a302f84744db950E"(ptr align 8 %_9)
          to label %bb2 unwind label %cleanup, !dbg !3516

bb2:                                              ; preds = %bb1
  store ptr %_8, ptr %self.i, align 8
    #dbg_declare(ptr %self.i, !3517, !DIExpression(), !3539)
  %6 = load ptr, ptr %self.i, align 8, !dbg !3541
  %7 = ptrtoint ptr %6 to i64, !dbg !3541
  %8 = icmp eq i64 %7, 0, !dbg !3541
  %_2.i = select i1 %8, i64 0, i64 1, !dbg !3541
  br i1 %8, label %bb2.i, label %"_ZN4core6option15Option$LT$T$GT$6unwrap17h10d550b0e31a8e56E.exit", !dbg !3542

bb2.i:                                            ; preds = %bb2
  invoke void @_ZN4core6option13unwrap_failed17h63b2dcf4b9cfad64E(ptr align 8 @alloc_ae52e422ab29884b58622d79788975fe) #27
          to label %.noexc unwind label %cleanup, !dbg !3543

.noexc:                                           ; preds = %bb2.i
  unreachable, !dbg !3543

"_ZN4core6option15Option$LT$T$GT$6unwrap17h10d550b0e31a8e56E.exit": ; preds = %bb2
  %val.i = load ptr, ptr %self.i, align 8, !dbg !3544
  store ptr %val.i, ptr %val.dbg.spill.i, align 8, !dbg !3544
    #dbg_declare(ptr %val.dbg.spill.i, !3537, !DIExpression(), !3545)
  br label %bb3, !dbg !3546

bb3:                                              ; preds = %"_ZN4core6option15Option$LT$T$GT$6unwrap17h10d550b0e31a8e56E.exit"
  %_6 = getelementptr inbounds i8, ptr %val.i, i64 8, !dbg !3516
  store ptr %_6, ptr %self.dbg.spill.i, align 8
    #dbg_declare(ptr %self.dbg.spill.i, !3547, !DIExpression(), !3555)
  br label %bb4, !dbg !3557

bb4:                                              ; preds = %bb3
  invoke void @"_ZN4core6option15Option$LT$T$GT$4take17h9b26d3fe761e0916E"(ptr sret([24 x i8]) align 8 %_4, ptr align 8 %_6)
          to label %bb5 unwind label %cleanup, !dbg !3516

bb5:                                              ; preds = %bb4
    #dbg_declare(ptr %_0, !3558, !DIExpression(), !3566)
    #dbg_declare(ptr %_4, !3565, !DIExpression(), !3568)
  %9 = load i64, ptr %_4, align 8, !dbg !3569
  %10 = icmp eq i64 %9, -9223372036854775807, !dbg !3569
  %_2.i2 = select i1 %10, i64 0, i64 1, !dbg !3569
  br i1 %10, label %bb2.i3, label %"_ZN4core6option15Option$LT$T$GT$6unwrap17hafb3bc9bced650e8E.exit", !dbg !3570

bb2.i3:                                           ; preds = %bb5
  invoke void @_ZN4core6option13unwrap_failed17h63b2dcf4b9cfad64E(ptr align 8 @alloc_ae52e422ab29884b58622d79788975fe) #27
          to label %.noexc4 unwind label %cleanup, !dbg !3571

.noexc4:                                          ; preds = %bb2.i3
  unreachable, !dbg !3571

"_ZN4core6option15Option$LT$T$GT$6unwrap17hafb3bc9bced650e8E.exit": ; preds = %bb5
  call void @llvm.memcpy.p0.p0.i64(ptr align 8 %_0, ptr align 8 %_4, i64 24, i1 false), !dbg !3572
  br label %bb6, !dbg !3573

bb6:                                              ; preds = %"_ZN4core6option15Option$LT$T$GT$6unwrap17hafb3bc9bced650e8E.exit"
  invoke void @"_ZN4core3ptr40drop_in_place$LT$std..thread..Thread$GT$17hb4f698d92bb14bfcE"(ptr align 8 %self)
          to label %bb10 unwind label %cleanup1, !dbg !3514

bb9:                                              ; preds = %cleanup1
  %11 = getelementptr inbounds i8, ptr %self, i64 16, !dbg !3514
  invoke void @"_ZN4core3ptr93drop_in_place$LT$alloc..sync..Arc$LT$std..thread..Packet$LT$alloc..string..String$GT$$GT$$GT$17h526bf0b0bc9c5994E"(ptr align 8 %11) #25
          to label %bb7 unwind label %terminate, !dbg !3514

cleanup1:                                         ; preds = %bb6
  %12 = landingpad { ptr, i32 }
          cleanup
  %13 = extractvalue { ptr, i32 } %12, 0
  %14 = extractvalue { ptr, i32 } %12, 1
  store ptr %13, ptr %0, align 8
  %15 = getelementptr inbounds i8, ptr %0, i64 8
  store i32 %14, ptr %15, align 8
  br label %bb9

bb10:                                             ; preds = %bb6
  %16 = getelementptr inbounds i8, ptr %self, i64 16, !dbg !3514
  call void @"_ZN4core3ptr93drop_in_place$LT$alloc..sync..Arc$LT$std..thread..Packet$LT$alloc..string..String$GT$$GT$$GT$17h526bf0b0bc9c5994E"(ptr align 8 %16), !dbg !3514
  ret void, !dbg !3574

terminate:                                        ; preds = %bb11, %bb9, %bb12
  %17 = landingpad { ptr, i32 }
          filter [0 x ptr] zeroinitializer
  %18 = extractvalue { ptr, i32 } %17, 0
  %19 = extractvalue { ptr, i32 } %17, 1
  call void @_ZN4core9panicking16panic_in_cleanup17hdb19dc6496e5af6eE() #26, !dbg !3575
  unreachable, !dbg !3575

bb7:                                              ; preds = %bb11, %bb9
  %20 = load ptr, ptr %0, align 8, !dbg !3575
  %21 = getelementptr inbounds i8, ptr %0, i64 8, !dbg !3575
  %22 = load i32, ptr %21, align 8, !dbg !3575
  %23 = insertvalue { ptr, i32 } poison, ptr %20, 0, !dbg !3575
  %24 = insertvalue { ptr, i32 } %23, i32 %22, 1, !dbg !3575
  resume { ptr, i32 } %24, !dbg !3575

bb11:                                             ; preds = %bb12
  %25 = getelementptr inbounds i8, ptr %self, i64 16, !dbg !3514
  invoke void @"_ZN4core3ptr93drop_in_place$LT$alloc..sync..Arc$LT$std..thread..Packet$LT$alloc..string..String$GT$$GT$$GT$17h526bf0b0bc9c5994E"(ptr align 8 %25) #25
          to label %bb7 unwind label %terminate, !dbg !3514
}

; Function Attrs: nonlazybind uwtable
define internal void @"_ZN3std6thread19JoinHandle$LT$T$GT$4join17ha9b5c1ce1aa66e3fE"(ptr sret([24 x i8]) align 8 %_0, ptr align 8 %self) unnamed_addr #0 !dbg !3576 {
start:
  %_2 = alloca [32 x i8], align 8
    #dbg_declare(ptr %self, !3581, !DIExpression(), !3582)
  call void @llvm.memcpy.p0.p0.i64(ptr align 8 %_2, ptr align 8 %self, i64 32, i1 false), !dbg !3583
  call void @"_ZN3std6thread18JoinInner$LT$T$GT$4join17h6235290f95240099E"(ptr sret([24 x i8]) align 8 %_0, ptr align 8 %_2), !dbg !3583
  ret void, !dbg !3584
}

; Function Attrs: nonlazybind uwtable
define internal void @_ZN3std6thread5spawn17hcef82344ae42cb56E(ptr sret([32 x i8]) align 8 %_0, ptr align 8 %f) unnamed_addr #0 personality ptr @rust_eh_personality !dbg !3585 {
start:
  %0 = alloca [16 x i8], align 8
  %_6 = alloca [1 x i8], align 1
  %_4 = alloca [24 x i8], align 8
  %_3 = alloca [48 x i8], align 8
  %_2 = alloca [32 x i8], align 8
    #dbg_declare(ptr %f, !3589, !DIExpression(), !3590)
  store i8 0, ptr %_6, align 1, !dbg !3591
  store i8 1, ptr %_6, align 1, !dbg !3591
  invoke void @_ZN3std6thread7Builder3new17h59c2d442c9eac309E(ptr sret([48 x i8]) align 8 %_3)
          to label %bb1 unwind label %cleanup, !dbg !3591

bb6:                                              ; preds = %cleanup
  %1 = load i8, ptr %_6, align 1, !dbg !3592
  %2 = trunc i8 %1 to i1, !dbg !3592
  br i1 %2, label %bb5, label %bb4, !dbg !3592

cleanup:                                          ; preds = %bb2, %bb1, %start
  %3 = landingpad { ptr, i32 }
          cleanup
  %4 = extractvalue { ptr, i32 } %3, 0
  %5 = extractvalue { ptr, i32 } %3, 1
  store ptr %4, ptr %0, align 8
  %6 = getelementptr inbounds i8, ptr %0, i64 8
  store i32 %5, ptr %6, align 8
  br label %bb6

bb1:                                              ; preds = %start
  store i8 0, ptr %_6, align 1, !dbg !3593
  call void @llvm.memcpy.p0.p0.i64(ptr align 8 %_4, ptr align 8 %f, i64 24, i1 false), !dbg !3593
  invoke void @_ZN3std6thread7Builder5spawn17hbd959c5b695065ccE(ptr sret([32 x i8]) align 8 %_2, ptr align 8 %_3, ptr align 8 %_4)
          to label %bb2 unwind label %cleanup, !dbg !3591

bb2:                                              ; preds = %bb1
  invoke void @"_ZN4core6result19Result$LT$T$C$E$GT$6expect17h6c7567164a9dded6E"(ptr sret([32 x i8]) align 8 %_0, ptr align 8 %_2, ptr align 1 @alloc_e3605bf48dd8479a638909176cc37fce, i64 22, ptr align 8 @alloc_ae52e422ab29884b58622d79788975fe)
          to label %bb3 unwind label %cleanup, !dbg !3591

bb3:                                              ; preds = %bb2
  ret void, !dbg !3594

bb4:                                              ; preds = %bb5, %bb6
  %7 = load ptr, ptr %0, align 8, !dbg !3595
  %8 = getelementptr inbounds i8, ptr %0, i64 8, !dbg !3595
  %9 = load i32, ptr %8, align 8, !dbg !3595
  %10 = insertvalue { ptr, i32 } poison, ptr %7, 0, !dbg !3595
  %11 = insertvalue { ptr, i32 } %10, i32 %9, 1, !dbg !3595
  resume { ptr, i32 } %11, !dbg !3595

bb5:                                              ; preds = %bb6
  invoke void @"_ZN4core3ptr64drop_in_place$LT$function..main..$u7b$$u7b$closure$u7d$$u7d$$GT$17h7e4e4304a82c6fd8E"(ptr align 8 %f) #25
          to label %bb4 unwind label %terminate, !dbg !3592

terminate:                                        ; preds = %bb5
  %12 = landingpad { ptr, i32 }
          filter [0 x ptr] zeroinitializer
  %13 = extractvalue { ptr, i32 } %12, 0
  %14 = extractvalue { ptr, i32 } %12, 1
  call void @_ZN4core9panicking16panic_in_cleanup17hdb19dc6496e5af6eE() #26, !dbg !3595
  unreachable, !dbg !3595
}

; Function Attrs: nonlazybind uwtable
define internal void @_ZN3std6thread7Builder15spawn_unchecked17h2f545906cc82c655E(ptr sret([32 x i8]) align 8 %_0, ptr align 8 %self, ptr align 8 %f) unnamed_addr #0 !dbg !3596 {
start:
  %residual.dbg.spill = alloca [8 x i8], align 8
  %val = alloca [32 x i8], align 8
  %_6 = alloca [8 x i8], align 8
  %_5 = alloca [32 x i8], align 8
  %_4 = alloca [32 x i8], align 8
  %_3 = alloca [32 x i8], align 8
    #dbg_declare(ptr %self, !3606, !DIExpression(), !3612)
    #dbg_declare(ptr %f, !3607, !DIExpression(), !3613)
    #dbg_declare(ptr %val, !3610, !DIExpression(), !3614)
  store ptr null, ptr %_6, align 8, !dbg !3615
  %0 = load ptr, ptr %_6, align 8, !dbg !3616
  call void @_ZN3std6thread7Builder16spawn_unchecked_17h104de78296eab7e0E(ptr sret([32 x i8]) align 8 %_5, ptr align 8 %self, ptr align 8 %f, ptr %0), !dbg !3616
  call void @"_ZN79_$LT$core..result..Result$LT$T$C$E$GT$$u20$as$u20$core..ops..try_trait..Try$GT$6branch17h98c56272a8081ce3E"(ptr sret([32 x i8]) align 8 %_4, ptr align 8 %_5), !dbg !3617
  %1 = load i64, ptr %_4, align 8, !dbg !3617
  %2 = icmp eq i64 %1, 2, !dbg !3617
  %_7 = select i1 %2, i64 1, i64 0, !dbg !3617
  %3 = icmp eq i64 %_7, 0, !dbg !3617
  br i1 %3, label %bb4, label %bb5, !dbg !3617

bb4:                                              ; preds = %start
  call void @llvm.memcpy.p0.p0.i64(ptr align 8 %val, ptr align 8 %_4, i64 32, i1 false), !dbg !3617
  call void @llvm.memcpy.p0.p0.i64(ptr align 8 %_3, ptr align 8 %val, i64 32, i1 false), !dbg !3618
  call void @llvm.memcpy.p0.p0.i64(ptr align 8 %_0, ptr align 8 %_3, i64 32, i1 false), !dbg !3619
  br label %bb6, !dbg !3620

bb5:                                              ; preds = %start
  %4 = getelementptr inbounds i8, ptr %_4, i64 8, !dbg !3621
  %residual = load ptr, ptr %4, align 8, !dbg !3621
  store ptr %residual, ptr %residual.dbg.spill, align 8, !dbg !3621
    #dbg_declare(ptr %residual.dbg.spill, !3608, !DIExpression(), !3622)
  call void @"_ZN153_$LT$core..result..Result$LT$T$C$F$GT$$u20$as$u20$core..ops..try_trait..FromResidual$LT$core..result..Result$LT$core..convert..Infallible$C$E$GT$$GT$$GT$13from_residual17h1a95e2b843f9020aE"(ptr sret([32 x i8]) align 8 %_0, ptr %residual, ptr align 8 @alloc_ae52e422ab29884b58622d79788975fe), !dbg !3623
  br label %bb6, !dbg !3623

bb6:                                              ; preds = %bb5, %bb4
  ret void, !dbg !3624

bb3:                                              ; No predecessors!
  unreachable, !dbg !3617
}

; Function Attrs: nonlazybind uwtable
define internal void @_ZN3std6thread7Builder16spawn_unchecked_17h104de78296eab7e0E(ptr sret([32 x i8]) align 8 %_0, ptr align 8 %self, ptr align 8 %f, ptr %0) unnamed_addr #0 personality ptr @rust_eh_personality !dbg !3625 {
start:
  %1 = alloca [16 x i8], align 8
  %residual.dbg.spill = alloca [8 x i8], align 8
  %val.dbg.spill = alloca [8 x i8], align 8
  %main.dbg.spill12 = alloca [16 x i8], align 8
  %main.dbg.spill = alloca [8 x i8], align 8
  %scope_data.dbg.spill = alloca [8 x i8], align 8
  %id.dbg.spill = alloca [8 x i8], align 8
  %stack_size.dbg.spill3 = alloca [8 x i8], align 8
  %2 = alloca [16 x i8], align 8
  %no_hooks.dbg.spill = alloca [1 x i8], align 1
  %stack_size.dbg.spill = alloca [16 x i8], align 8
  %_54 = alloca [1 x i8], align 1
  %_53 = alloca [1 x i8], align 1
  %_52 = alloca [1 x i8], align 1
  %_51 = alloca [1 x i8], align 1
  %_50 = alloca [1 x i8], align 1
  %_49 = alloca [1 x i8], align 1
  %_48 = alloca [1 x i8], align 1
  %_40 = alloca [16 x i8], align 8
  %_39 = alloca [32 x i8], align 8
  %_35 = alloca [80 x i8], align 8
  %main = alloca [80 x i8], align 8
  %_25 = alloca [24 x i8], align 8
  %f2 = alloca [24 x i8], align 8
  %their_packet = alloca [8 x i8], align 8
  %_21 = alloca [24 x i8], align 8
  %_20 = alloca [24 x i8], align 8
  %_19 = alloca [8 x i8], align 8
  %_18 = alloca [32 x i8], align 8
  %my_packet = alloca [8 x i8], align 8
  %their_thread = alloca [16 x i8], align 8
  %hooks = alloca [32 x i8], align 8
  %_12 = alloca [24 x i8], align 8
  %name1 = alloca [24 x i8], align 8
  %my_thread = alloca [16 x i8], align 8
  %name = alloca [24 x i8], align 8
  %scope_data = alloca [8 x i8], align 8
  store ptr %0, ptr %scope_data, align 8
    #dbg_declare(ptr %self, !3630, !DIExpression(), !3669)
    #dbg_declare(ptr %f, !3631, !DIExpression(), !3670)
    #dbg_declare(ptr %scope_data, !3632, !DIExpression(), !3671)
    #dbg_declare(ptr %name, !3633, !DIExpression(), !3672)
    #dbg_declare(ptr %my_thread, !3641, !DIExpression(), !3673)
    #dbg_declare(ptr %name1, !3643, !DIExpression(), !3674)
    #dbg_declare(ptr %hooks, !3645, !DIExpression(), !3675)
    #dbg_declare(ptr %their_thread, !3647, !DIExpression(), !3676)
    #dbg_declare(ptr %my_packet, !3649, !DIExpression(), !3677)
    #dbg_declare(ptr %their_packet, !3651, !DIExpression(), !3678)
    #dbg_declare(ptr %f2, !3653, !DIExpression(), !3679)
    #dbg_declare(ptr %main, !3655, !DIExpression(), !3680)
  store i8 0, ptr %_54, align 1, !dbg !3681
  store i8 0, ptr %_53, align 1, !dbg !3681
  store i8 0, ptr %_51, align 1, !dbg !3681
  store i8 0, ptr %_50, align 1, !dbg !3681
  store i8 0, ptr %_49, align 1, !dbg !3681
  store i8 0, ptr %_48, align 1, !dbg !3681
  store i8 0, ptr %_52, align 1, !dbg !3681
  store i8 1, ptr %_54, align 1, !dbg !3681
  store i8 1, ptr %_53, align 1, !dbg !3681
  store i8 1, ptr %_52, align 1, !dbg !3682
  %3 = getelementptr inbounds i8, ptr %self, i64 16, !dbg !3682
  call void @llvm.memcpy.p0.p0.i64(ptr align 8 %name, ptr align 8 %3, i64 24, i1 false), !dbg !3682
  %stack_size.0 = load i64, ptr %self, align 8, !dbg !3683
  %4 = getelementptr inbounds i8, ptr %self, i64 8, !dbg !3683
  %stack_size.1 = load i64, ptr %4, align 8, !dbg !3683
  store i64 %stack_size.0, ptr %stack_size.dbg.spill, align 8, !dbg !3683
  %5 = getelementptr inbounds i8, ptr %stack_size.dbg.spill, i64 8, !dbg !3683
  store i64 %stack_size.1, ptr %5, align 8, !dbg !3683
    #dbg_declare(ptr %stack_size.dbg.spill, !3635, !DIExpression(), !3684)
  %6 = getelementptr inbounds i8, ptr %self, i64 40, !dbg !3685
  %7 = load i8, ptr %6, align 8, !dbg !3685
  %no_hooks = trunc i8 %7 to i1, !dbg !3685
  %8 = zext i1 %no_hooks to i8, !dbg !3685
  store i8 %8, ptr %no_hooks.dbg.spill, align 1, !dbg !3685
    #dbg_declare(ptr %no_hooks.dbg.spill, !3636, !DIExpression(), !3686)
  %stack_size = invoke i64 @"_ZN4core6option15Option$LT$T$GT$14unwrap_or_else17h57db02da5d767811E"(i64 %stack_size.0, i64 %stack_size.1, ptr align 8 @alloc_ae52e422ab29884b58622d79788975fe)
          to label %bb1 unwind label %cleanup, !dbg !3687

bb51:                                             ; preds = %bb36, %cleanup
  %9 = load i64, ptr %name, align 8, !dbg !3688
  %10 = icmp eq i64 %9, -9223372036854775808, !dbg !3688
  %_55 = select i1 %10, i64 0, i64 1, !dbg !3688
  %11 = icmp eq i64 %_55, 1, !dbg !3688
  br i1 %11, label %bb49, label %bb37, !dbg !3688

cleanup:                                          ; preds = %bb6, %bb5, %bb4, %bb1, %start
  %12 = landingpad { ptr, i32 }
          cleanup
  %13 = extractvalue { ptr, i32 } %12, 0
  %14 = extractvalue { ptr, i32 } %12, 1
  store ptr %13, ptr %2, align 8
  %15 = getelementptr inbounds i8, ptr %2, i64 8
  store i32 %14, ptr %15, align 8
  br label %bb51

bb1:                                              ; preds = %start
  store i64 %stack_size, ptr %stack_size.dbg.spill3, align 8, !dbg !3687
    #dbg_declare(ptr %stack_size.dbg.spill3, !3637, !DIExpression(), !3689)
  %id = invoke i64 @_ZN3std6thread8ThreadId3new17h8f0b673365fe0a2fE()
          to label %bb2 unwind label %cleanup, !dbg !3690

bb2:                                              ; preds = %bb1
  store i64 %id, ptr %id.dbg.spill, align 8, !dbg !3690
    #dbg_declare(ptr %id.dbg.spill, !3639, !DIExpression(), !3691)
  %16 = load i64, ptr %name, align 8, !dbg !3692
  %17 = icmp eq i64 %16, -9223372036854775808, !dbg !3692
  %_10 = select i1 %17, i64 0, i64 1, !dbg !3692
  %18 = icmp eq i64 %_10, 0, !dbg !3693
  br i1 %18, label %bb4, label %bb5, !dbg !3693

bb4:                                              ; preds = %bb2
  %19 = invoke { i64, ptr } @_ZN3std6thread6Thread11new_unnamed17h013701aeaae7b1d8E(i64 %id)
          to label %bb54 unwind label %cleanup, !dbg !3694

bb5:                                              ; preds = %bb2
  store i8 0, ptr %_52, align 1, !dbg !3695
  call void @llvm.memcpy.p0.p0.i64(ptr align 8 %name1, ptr align 8 %name, i64 24, i1 false), !dbg !3695
  invoke void @"_ZN50_$LT$T$u20$as$u20$core..convert..Into$LT$U$GT$$GT$4into17h750cbe0b4364d707E"(ptr sret([24 x i8]) align 8 %_12, ptr align 8 %name1, ptr align 8 @alloc_ae52e422ab29884b58622d79788975fe)
          to label %bb6 unwind label %cleanup, !dbg !3696

bb54:                                             ; preds = %bb4
  %20 = extractvalue { i64, ptr } %19, 0, !dbg !3694
  %21 = extractvalue { i64, ptr } %19, 1, !dbg !3694
  store i64 %20, ptr %my_thread, align 8, !dbg !3694
  %22 = getelementptr inbounds i8, ptr %my_thread, i64 8, !dbg !3694
  store ptr %21, ptr %22, align 8, !dbg !3694
  br label %bb7, !dbg !3694

bb7:                                              ; preds = %bb55, %bb54
  br i1 %no_hooks, label %bb8, label %bb9, !dbg !3697

bb6:                                              ; preds = %bb5
  %23 = invoke { i64, ptr } @_ZN3std6thread6Thread3new17h12eccb089929614fE(i64 %id, ptr align 8 %_12)
          to label %bb55 unwind label %cleanup, !dbg !3698

bb55:                                             ; preds = %bb6
  %24 = extractvalue { i64, ptr } %23, 0, !dbg !3698
  %25 = extractvalue { i64, ptr } %23, 1, !dbg !3698
  store i64 %24, ptr %my_thread, align 8, !dbg !3698
  %26 = getelementptr inbounds i8, ptr %my_thread, i64 8, !dbg !3698
  store ptr %25, ptr %26, align 8, !dbg !3698
  br label %bb7, !dbg !3698

bb9:                                              ; preds = %bb7
  invoke void @_ZN3std6thread9spawnhook15run_spawn_hooks17hf6281674c1c9faa7E(ptr sret([32 x i8]) align 8 %hooks, ptr align 8 %my_thread)
          to label %bb10 unwind label %cleanup4, !dbg !3699

bb8:                                              ; preds = %bb7
  invoke void @"_ZN82_$LT$std..thread..spawnhook..ChildSpawnHooks$u20$as$u20$core..default..Default$GT$7default17h68ce19370277e70aE"(ptr sret([32 x i8]) align 8 %hooks)
          to label %bb40 unwind label %cleanup4, !dbg !3700

bb36:                                             ; preds = %bb47, %bb48, %cleanup4
  invoke void @"_ZN4core3ptr40drop_in_place$LT$std..thread..Thread$GT$17hb4f698d92bb14bfcE"(ptr align 8 %my_thread) #25
          to label %bb51 unwind label %terminate, !dbg !3701

cleanup4:                                         ; preds = %bb8, %bb9
  %27 = landingpad { ptr, i32 }
          cleanup
  %28 = extractvalue { ptr, i32 } %27, 0
  %29 = extractvalue { ptr, i32 } %27, 1
  store ptr %28, ptr %2, align 8
  %30 = getelementptr inbounds i8, ptr %2, i64 8
  store i32 %29, ptr %30, align 8
  br label %bb36

bb10:                                             ; preds = %bb9
  store i8 1, ptr %_51, align 1, !dbg !3702
  br label %bb11, !dbg !3703

bb11:                                             ; preds = %bb40, %bb10
  %31 = invoke { i64, ptr } @"_ZN58_$LT$std..thread..Thread$u20$as$u20$core..clone..Clone$GT$5clone17h91dd70a3024635f2E"(ptr align 8 %my_thread)
          to label %bb12 unwind label %cleanup5, !dbg !3704

bb40:                                             ; preds = %bb8
  store i8 1, ptr %_51, align 1, !dbg !3700
  br label %bb11, !dbg !3700

bb48:                                             ; preds = %bb45, %bb46, %cleanup5
  %32 = load i8, ptr %_51, align 1, !dbg !3705
  %33 = trunc i8 %32 to i1, !dbg !3705
  br i1 %33, label %bb47, label %bb36, !dbg !3705

cleanup5:                                         ; preds = %bb11
  %34 = landingpad { ptr, i32 }
          cleanup
  %35 = extractvalue { ptr, i32 } %34, 0
  %36 = extractvalue { ptr, i32 } %34, 1
  store ptr %35, ptr %2, align 8
  %37 = getelementptr inbounds i8, ptr %2, i64 8
  store i32 %36, ptr %37, align 8
  br label %bb48

bb12:                                             ; preds = %bb11
  %38 = extractvalue { i64, ptr } %31, 0, !dbg !3704
  %39 = extractvalue { i64, ptr } %31, 1, !dbg !3704
  store i64 %38, ptr %their_thread, align 8, !dbg !3704
  %40 = getelementptr inbounds i8, ptr %their_thread, i64 8, !dbg !3704
  store ptr %39, ptr %40, align 8, !dbg !3704
  store i8 1, ptr %_50, align 1, !dbg !3706
  store i8 0, ptr %_53, align 1, !dbg !3707
  %41 = load ptr, ptr %scope_data, align 8, !dbg !3707
  store ptr %41, ptr %_19, align 8, !dbg !3707
  store i64 -9223372036854775807, ptr %_21, align 8, !dbg !3708
    #dbg_declare(ptr %_21, !3709, !DIExpression(), !3715)
  call void @llvm.memcpy.p0.p0.i64(ptr align 8 %_20, ptr align 8 %_21, i64 24, i1 false), !dbg !3717
  br label %bb13, !dbg !3718

bb35:                                             ; preds = %cleanup6
  invoke void @"_ZN4core3ptr103drop_in_place$LT$core..option..Option$LT$alloc..sync..Arc$LT$std..thread..scoped..ScopeData$GT$$GT$$GT$17h62cd245181c811ceE"(ptr align 8 %_19) #25
          to label %bb46 unwind label %terminate, !dbg !3719

cleanup6:                                         ; No predecessors!
  %42 = landingpad { ptr, i32 }
          cleanup
  %43 = extractvalue { ptr, i32 } %42, 0
  %44 = extractvalue { ptr, i32 } %42, 1
  store ptr %43, ptr %2, align 8
  %45 = getelementptr inbounds i8, ptr %2, i64 8
  store i32 %44, ptr %45, align 8
  br label %bb35

bb13:                                             ; preds = %bb12
  %46 = load ptr, ptr %_19, align 8, !dbg !3720
  store ptr %46, ptr %_18, align 8, !dbg !3720
  %47 = getelementptr inbounds i8, ptr %_18, i64 8, !dbg !3720
  call void @llvm.memcpy.p0.p0.i64(ptr align 8 %47, ptr align 8 %_20, i64 24, i1 false), !dbg !3720
  %48 = invoke ptr @"_ZN5alloc4sync12Arc$LT$T$GT$3new17hc20ac6061c8a0ef3E"(ptr align 8 %_18)
          to label %bb14 unwind label %cleanup7, !dbg !3721

bb46:                                             ; preds = %bb34, %cleanup7, %bb35
  %49 = load i8, ptr %_50, align 1, !dbg !3722
  %50 = trunc i8 %49 to i1, !dbg !3722
  br i1 %50, label %bb45, label %bb48, !dbg !3722

cleanup7:                                         ; preds = %bb13
  %51 = landingpad { ptr, i32 }
          cleanup
  %52 = extractvalue { ptr, i32 } %51, 0
  %53 = extractvalue { ptr, i32 } %51, 1
  store ptr %52, ptr %2, align 8
  %54 = getelementptr inbounds i8, ptr %2, i64 8
  store i32 %53, ptr %54, align 8
  br label %bb46

bb14:                                             ; preds = %bb13
  store ptr %48, ptr %my_packet, align 8, !dbg !3721
  %55 = invoke ptr @"_ZN68_$LT$alloc..sync..Arc$LT$T$C$A$GT$$u20$as$u20$core..clone..Clone$GT$5clone17h7dc1ed8a76f4602eE"(ptr align 8 %my_packet)
          to label %bb15 unwind label %cleanup8, !dbg !3723

bb34:                                             ; preds = %bb43, %bb44, %cleanup8
  invoke void @"_ZN4core3ptr93drop_in_place$LT$alloc..sync..Arc$LT$std..thread..Packet$LT$alloc..string..String$GT$$GT$$GT$17h526bf0b0bc9c5994E"(ptr align 8 %my_packet) #25
          to label %bb46 unwind label %terminate, !dbg !3724

cleanup8:                                         ; preds = %bb14
  %56 = landingpad { ptr, i32 }
          cleanup
  %57 = extractvalue { ptr, i32 } %56, 0
  %58 = extractvalue { ptr, i32 } %56, 1
  store ptr %57, ptr %2, align 8
  %59 = getelementptr inbounds i8, ptr %2, i64 8
  store i32 %58, ptr %59, align 8
  br label %bb34

bb15:                                             ; preds = %bb14
  store ptr %55, ptr %their_packet, align 8, !dbg !3723
  store i8 1, ptr %_49, align 1, !dbg !3725
  store i8 0, ptr %_54, align 1, !dbg !3726
  call void @llvm.memcpy.p0.p0.i64(ptr align 8 %_25, ptr align 8 %f, i64 24, i1 false), !dbg !3726
  invoke void @"_ZN3std6thread7Builder16spawn_unchecked_22MaybeDangling$LT$T$GT$3new17hc4a21d2f5115816cE"(ptr sret([24 x i8]) align 8 %f2, ptr align 8 %_25)
          to label %bb16 unwind label %cleanup9, !dbg !3727

bb44:                                             ; preds = %bb41, %bb42, %cleanup9
  %60 = load i8, ptr %_49, align 1, !dbg !3728
  %61 = trunc i8 %60 to i1, !dbg !3728
