; ModuleID = 'function-4ae85c4c1c3eb68f.bc'
source_filename = "bah3d6oc870hlqxhmmr16jhmm"
target datalayout = "e-m:e-p270:32:32-p271:32:32-p272:64:64-i64:64-i128:128-f80:128-n8:16:32:64-S128"
target triple = "x86_64-unknown-linux-gnu"

%"core::sync::atomic::AtomicUsize" = type { i64 }
%"r2d2::IdleConn<memcache::connection::Connection>" = type { %"r2d2::Conn<memcache::connection::Connection>", %"std::time::Instant" }
%"r2d2::Conn<memcache::connection::Connection>" = type { %"memcache::connection::Connection", %"std::time::Instant", %"r2d2::extensions::Extensions", i64 }
%"memcache::connection::Connection" = type { %"memcache::protocol::Protocol", ptr }
%"memcache::protocol::Protocol" = type { i64, [263 x i64] }
%"r2d2::extensions::Extensions" = type { %"std::collections::hash::map::HashMap<core::any::TypeId, alloc::boxed::Box<dyn core::any::Any + core::marker::Send + core::marker::Sync>>" }
%"std::collections::hash::map::HashMap<core::any::TypeId, alloc::boxed::Box<dyn core::any::Any + core::marker::Send + core::marker::Sync>>" = type { %"hashbrown::map::HashMap<core::any::TypeId, alloc::boxed::Box<dyn core::any::Any + core::marker::Send + core::marker::Sync>, std::hash::random::RandomState>" }
%"hashbrown::map::HashMap<core::any::TypeId, alloc::boxed::Box<dyn core::any::Any + core::marker::Send + core::marker::Sync>, std::hash::random::RandomState>" = type { %"hashbrown::raw::RawTable<(core::any::TypeId, alloc::boxed::Box<dyn core::any::Any + core::marker::Send + core::marker::Sync>)>", %"std::hash::random::RandomState" }
%"hashbrown::raw::RawTable<(core::any::TypeId, alloc::boxed::Box<dyn core::any::Any + core::marker::Send + core::marker::Sync>)>" = type { %"hashbrown::raw::RawTableInner", %"alloc::alloc::Global", %"core::marker::PhantomData<(core::any::TypeId, alloc::boxed::Box<dyn core::any::Any + core::marker::Send + core::marker::Sync>)>" }
%"hashbrown::raw::RawTableInner" = type { ptr, i64, i64, i64 }
%"alloc::alloc::Global" = type {}
%"core::marker::PhantomData<(core::any::TypeId, alloc::boxed::Box<dyn core::any::Any + core::marker::Send + core::marker::Sync>)>" = type {}
%"std::hash::random::RandomState" = type { i64, i64 }
%"std::time::Instant" = type { %"std::sys::pal::unix::time::Instant" }
%"std::sys::pal::unix::time::Instant" = type { %"std::sys::pal::unix::time::Timespec" }
%"std::sys::pal::unix::time::Timespec" = type { i64, i32, [1 x i32] }
%"alloc::string::String" = type { %"alloc::vec::Vec<u8>" }
%"alloc::vec::Vec<u8>" = type { %"alloc::raw_vec::RawVec<u8>", i64 }
%"alloc::raw_vec::RawVec<u8>" = type { %"alloc::raw_vec::RawVecInner", %"core::marker::PhantomData<u8>" }
%"alloc::raw_vec::RawVecInner" = type { i64, ptr, %"alloc::alloc::Global" }
%"core::marker::PhantomData<u8>" = type {}
%"OpenFaaSRPC::Follower" = type { i64, i64 }
%"core::fmt::rt::Argument<'_>" = type { %"core::fmt::rt::ArgumentType<'_>" }
%"core::fmt::rt::ArgumentType<'_>" = type { ptr, [1 x i64] }
%"core::mem::maybe_uninit::MaybeUninit<alloc::vec::Vec<r2d2::IdleConn<memcache::connection::Connection>>>" = type { [3 x i64] }

@alloc_4192ed3b92b550c0d82c6e919997c0e9 = private unnamed_addr constant <{ [10 x i8] }> <{ [10 x i8] c"<redacted>" }>, align 1
@alloc_ae52e422ab29884b58622d79788975fe = private unnamed_addr constant <{ ptr, [16 x i8] }> <{ ptr @alloc_4192ed3b92b550c0d82c6e919997c0e9, [16 x i8] c"\0A\00\00\00\00\00\00\00\00\00\00\00\00\00\00\00" }>, align 8
@vtable.0 = private constant <{ [24 x i8], ptr }> <{ [24 x i8] c"\00\00\00\00\00\00\00\00\00\00\00\00\00\00\00\00\01\00\00\00\00\00\00\00", ptr @"_ZN41_$LT$T$u20$as$u20$serde..de..Expected$GT$3fmt17hc7815c32bd458137E" }>, align 8, !dbg !0
@alloc_036636151bab3754536335311c8d3ab8 = private unnamed_addr constant <{ [1 x i8] }> <{ [1 x i8] c"[" }>, align 1
@alloc_41a776d8d06dc2b9b0480e88fa257ffe = private unnamed_addr constant <{ [1 x i8] }> <{ [1 x i8] c"," }>, align 1
@alloc_7a6887ef0f93938f57a4bb958cf80311 = private unnamed_addr constant <{ [1 x i8] }> <{ [1 x i8] c"]" }>, align 1
@alloc_6c3c28a042770293cfa9bea3e20a3fd6 = private unnamed_addr constant <{ [8 x i8] }> <{ [8 x i8] c"Follower" }>, align 1
@alloc_5e5d0fc3969e190d5b793845b4d75f83 = private unnamed_addr constant <{ [11 x i8] }> <{ [11 x i8] c"follower_id" }>, align 1
@alloc_5e776ce52c9f5c81d68da620afd2d199 = private unnamed_addr constant <{ [9 x i8] }> <{ [9 x i8] c"timestamp" }>, align 1
@alloc_745ce56c87da20961640991551607f5c = private unnamed_addr constant <{ ptr, [8 x i8], ptr, [8 x i8] }> <{ ptr @alloc_5e5d0fc3969e190d5b793845b4d75f83, [8 x i8] c"\0B\00\00\00\00\00\00\00", ptr @alloc_5e776ce52c9f5c81d68da620afd2d199, [8 x i8] c"\09\00\00\00\00\00\00\00" }>, align 8
@alloc_1fcba90cb36554639964cdfaa443ba11 = private unnamed_addr constant <{ [27 x i8] }> <{ [27 x i8] c"SocialGraphGetFollowersArgs" }>, align 1
@alloc_17c2596754a11fa444906090c11cb050 = private unnamed_addr constant <{ [7 x i8] }> <{ [7 x i8] c"user_id" }>, align 1
@alloc_8a1c00313d545b9334da69b73e87c929 = private unnamed_addr constant <{ ptr, [8 x i8] }> <{ ptr @alloc_17c2596754a11fa444906090c11cb050, [8 x i8] c"\07\00\00\00\00\00\00\00" }>, align 8
@alloc_606dc6fb7b7dd2f8c1e5eb307d5ca90f = private unnamed_addr constant <{ [4 x i8] }> <{ [4 x i8] c"get " }>, align 1
@alloc_980705bbcb4b81b075ee5637d0bc8d86 = private unnamed_addr constant <{ [2 x i8] }> <{ [2 x i8] c"\0D\0A" }>, align 1
@alloc_93c2d8667cd422f6cb8cc63a8abc3096 = private unnamed_addr constant <{ ptr, [8 x i8], ptr, [8 x i8] }> <{ ptr @alloc_606dc6fb7b7dd2f8c1e5eb307d5ca90f, [8 x i8] c"\04\00\00\00\00\00\00\00", ptr @alloc_980705bbcb4b81b075ee5637d0bc8d86, [8 x i8] c"\02\00\00\00\00\00\00\00" }>, align 8
@alloc_93f57990a3fec9ee98f802a73f76e16f = private unnamed_addr constant <{ [28 x i8] }> <{ [28 x i8] c"Expected end of get response" }>, align 1
@alloc_7e57629ddc83db8b8b209e5718511663 = private unnamed_addr constant <{ [33 x i8] }> <{ [33 x i8] c"key doesn't match in the response" }>, align 1
@alloc_34ac169841d4f3303cf4c610a8bc34b3 = private unnamed_addr constant <{ [31 x i8] }> <{ [31 x i8] c"struct Follower with 2 elements" }>, align 1
@alloc_65ff3fd662cc16f39ef2ec386f6a7101 = private unnamed_addr constant <{ ptr, [8 x i8] }> <{ ptr @alloc_34ac169841d4f3303cf4c610a8bc34b3, [8 x i8] c"\1F\00\00\00\00\00\00\00" }>, align 8
@vtable.1 = private constant <{ [24 x i8], ptr }> <{ [24 x i8] c"\00\00\00\00\00\00\00\00\10\00\00\00\00\00\00\00\08\00\00\00\00\00\00\00", ptr @"_ZN47_$LT$$RF$str$u20$as$u20$serde..de..Expected$GT$3fmt17hcfda961f704db5bdE" }>, align 8, !dbg !19
@alloc_c705cb38a8523735dfb9d88c7a0743fd = private unnamed_addr constant <{ [10 x i8] }> <{ [10 x i8] c"a sequence" }>, align 1
@alloc_75ed0930a87037e8a732783d506123a6 = private unnamed_addr constant <{ [49 x i8] }> <{ [49 x i8] c"struct SocialGraphGetFollowersArgs with 1 element" }>, align 1
@alloc_aea92f2b505d549f2baf751900009e7d = private unnamed_addr constant <{ ptr, [8 x i8] }> <{ ptr @alloc_75ed0930a87037e8a732783d506123a6, [8 x i8] c"1\00\00\00\00\00\00\00" }>, align 8
@vtable.2 = private constant <{ ptr, [16 x i8], ptr, ptr }> <{ ptr @"_ZN4core3ptr118drop_in_place$LT$r2d2..Pool$LT$memcache..connection..ConnectionManager$GT$..new_inner..$u7b$$u7b$closure$u7d$$u7d$$GT$17hd8cff273a2483c0fE", [16 x i8] c"\08\00\00\00\00\00\00\00\08\00\00\00\00\00\00\00", ptr @"_ZN4core3ops8function6FnOnce40call_once$u7b$$u7b$vtable.shim$u7d$$u7d$17hb810bcf81f98098fE", ptr @"_ZN4r2d213Pool$LT$M$GT$9new_inner28_$u7b$$u7b$closure$u7d$$u7d$17hf5edc181c7821d68E" }>, align 8, !dbg !33
@_ZN3log20MAX_LOG_LEVEL_FILTER17h462664ddfba63cdcE = external global %"core::sync::atomic::AtomicUsize"
@vtable.3 = private constant <{ [24 x i8], ptr, ptr, ptr }> <{ [24 x i8] c"\00\00\00\00\00\00\00\00\08\00\00\00\00\00\00\00\08\00\00\00\00\00\00\00", ptr @"_ZN4core3ops8function6FnOnce40call_once$u7b$$u7b$vtable.shim$u7d$$u7d$17h8fe65fe154c9edfdE", ptr @"_ZN3std2rt10lang_start28_$u7b$$u7b$closure$u7d$$u7d$17hd0ff8e4780e78079E", ptr @"_ZN3std2rt10lang_start28_$u7b$$u7b$closure$u7d$$u7d$17hd0ff8e4780e78079E" }>, align 8, !dbg !1170
@vtable.4 = private constant <{ ptr, [16 x i8], ptr, ptr, ptr }> <{ ptr @"_ZN4core3ptr42drop_in_place$LT$alloc..string..String$GT$17hb3b04e371e33c46dE", [16 x i8] c"\18\00\00\00\00\00\00\00\08\00\00\00\00\00\00\00", ptr @"_ZN58_$LT$alloc..string..String$u20$as$u20$core..fmt..Write$GT$9write_str17h0f040bb422fac576E", ptr @"_ZN58_$LT$alloc..string..String$u20$as$u20$core..fmt..Write$GT$10write_char17h8213fbefa7517f85E", ptr @_ZN4core3fmt5Write9write_fmt17h6894637872bcf126E }>, align 8, !dbg !1188
@alloc_cc656815297f75969399c3f4b1ad3de4 = private unnamed_addr constant <{ [55 x i8] }> <{ [55 x i8] c"a Display implementation returned an error unexpectedly" }>, align 1
@alloc_8df0580a595a87d56789d20c7318e185 = private unnamed_addr constant <{ [166 x i8] }> <{ [166 x i8] c"unsafe precondition(s) violated: ptr::copy_nonoverlapping requires that both pointer arguments are aligned and non-null and the specified memory ranges do not overlap" }>, align 1
@alloc_ffc44ed1670ebf78d81555edceff65f6 = private unnamed_addr constant <{ [69 x i8] }> <{ [69 x i8] c"unsafe precondition(s) violated: usize::unchecked_mul cannot overflow" }>, align 1
@alloc_546a48d82dbbd37bfd409d4513b73f46 = private unnamed_addr constant <{ [166 x i8] }> <{ [166 x i8] c"unsafe precondition(s) violated: ptr::swap_nonoverlapping requires that both pointer arguments are aligned and non-null and the specified memory ranges do not overlap" }>, align 1
@alloc_981fd9513041e1603a1d1d7b668a749d = private unnamed_addr constant <{ [101 x i8] }> <{ [101 x i8] c"unsafe precondition(s) violated: ptr::read requires that the pointer argument is aligned and non-null" }>, align 1
@alloc_b7474065d782af00c4610bb4ef55210b = private unnamed_addr constant <{ [102 x i8] }> <{ [102 x i8] c"unsafe precondition(s) violated: ptr::write requires that the pointer argument is aligned and non-null" }>, align 1
@alloc_0a14891e1e5c702b367f18048e678740 = private unnamed_addr constant <{ [97 x i8] }> <{ [97 x i8] c"unsafe precondition(s) violated: ptr::add requires that the address calculation does not overflow" }>, align 1
@alloc_ec595fc0e82ef92fc59bd74f68296eae = private unnamed_addr constant <{ [73 x i8] }> <{ [73 x i8] c"assertion failed: 0 < pointee_size && pointee_size <= isize::MAX as usize" }>, align 1
@alloc_7efb3a7632b3620f628ce83a521b4d9b = private unnamed_addr constant <{ [71 x i8] }> <{ [71 x i8] c"unsafe precondition(s) violated: ptr::sub_ptr requires `self >= origin`" }>, align 1
@alloc_ab14703751a9eb3585c49b2e55e9a9e5 = private unnamed_addr constant <{ [104 x i8] }> <{ [104 x i8] c"unsafe precondition(s) violated: hint::assert_unchecked must never be called when the condition is false" }>, align 1
@alloc_cd1513ae8d1ae22acf9342b8dfa1561d = private unnamed_addr constant <{ [164 x i8] }> <{ [164 x i8] c"unsafe precondition(s) violated: Layout::from_size_align_unchecked requires that align is a power of 2 and the rounded-up allocation size does not exceed isize::MAX" }>, align 1
@alloc_11195730e5236cfdc15ea13be1c301f9 = private unnamed_addr constant <{ [162 x i8] }> <{ [162 x i8] c"unsafe precondition(s) violated: slice::from_raw_parts requires the pointer to be aligned and non-null, and the total size of the slice not to exceed `isize::MAX`" }>, align 1
@alloc_d685bb4d9a1abf4f5af46d1af0d9ef8a = private unnamed_addr constant <{ [166 x i8] }> <{ [166 x i8] c"unsafe precondition(s) violated: slice::from_raw_parts_mut requires the pointer to be aligned and non-null, and the total size of the slice not to exceed `isize::MAX`" }>, align 1
@alloc_00ae4b301f7fab8ac9617c03fcbd7274 = private unnamed_addr constant <{ [43 x i8] }> <{ [43 x i8] c"called `Result::unwrap()` on an `Err` value" }>, align 1
@vtable.5 = private constant <{ ptr, [16 x i8], ptr }> <{ ptr @"_ZN4core3ptr51drop_in_place$LT$memcache..error..MemcacheError$GT$17h41e428fc3256f4d7E", [16 x i8] c"8\00\00\00\00\00\00\00\08\00\00\00\00\00\00\00", ptr @"_ZN67_$LT$memcache..error..MemcacheError$u20$as$u20$core..fmt..Debug$GT$3fmt17h21a0dbd667163d36E" }>, align 8, !dbg !1198
@vtable.6 = private constant <{ ptr, [16 x i8], ptr }> <{ ptr @"_ZN4core3ptr45drop_in_place$LT$serde_json..error..Error$GT$17hc544a2c1ddfd9a48E", [16 x i8] c"\08\00\00\00\00\00\00\00\08\00\00\00\00\00\00\00", ptr @"_ZN61_$LT$serde_json..error..Error$u20$as$u20$core..fmt..Debug$GT$3fmt17h63a26ae1ebae4ffdE" }>, align 8, !dbg !1206
@vtable.7 = private constant <{ ptr, [16 x i8], ptr }> <{ ptr @"_ZN4core3ptr45drop_in_place$LT$redis..types..RedisError$GT$17h17871fe046528873E", [16 x i8] c"8\00\00\00\00\00\00\00\08\00\00\00\00\00\00\00", ptr @"_ZN61_$LT$redis..types..RedisError$u20$as$u20$core..fmt..Debug$GT$3fmt17h6ae157addfaa1f5aE" }>, align 8, !dbg !1288
@vtable.8 = private constant <{ [24 x i8], ptr }> <{ [24 x i8] c"\00\00\00\00\00\00\00\00\00\00\00\00\00\00\00\00\01\00\00\00\00\00\00\00", ptr @"_ZN67_$LT$core..array..TryFromSliceError$u20$as$u20$core..fmt..Debug$GT$3fmt17hd2311ba41f7233e5E" }>, align 8, !dbg !1351
@vtable.9 = private constant <{ [24 x i8], ptr }> <{ [24 x i8] c"\00\00\00\00\00\00\00\00\08\00\00\00\00\00\00\00\08\00\00\00\00\00\00\00", ptr @"_ZN42_$LT$$RF$T$u20$as$u20$core..fmt..Debug$GT$3fmt17h47f23c23c179dab5E" }>, align 8, !dbg !1363
@alloc_763310d78c99c2c1ad3f8a9821e942f3 = private unnamed_addr constant <{ [61 x i8] }> <{ [61 x i8] c"is_nonoverlapping: `size_of::<T>() * count` overflows a usize" }>, align 1
@alloc_8518a6561828c584ba07bb3763e8315b = private unnamed_addr constant <{ [40 x i8] }> <{ [40 x i8] c"min_idle must be no larger than max_size" }>, align 1
@alloc_5ddcc4d571870f69fb17382ddbfc3217 = private unnamed_addr constant <{ [14 x i8] }> <{ [14 x i8] c"r2d2-worker-{}" }>, align 1
@alloc_a9795d8ba7733f0c781c1e214a919329 = private unnamed_addr constant <{ [35 x i8] }> <{ [35 x i8] c"connection_timeout must be positive" }>, align 1
@alloc_31051f577b8e53159e57f395b8e4c2e4 = private unnamed_addr constant <{ [25 x i8] }> <{ [25 x i8] c"max_size must be positive" }>, align 1
@alloc_3860cda7c7ca35d104df03f530f92d4f = private unnamed_addr constant <{ [78 x i8] }> <{ [78 x i8] c"InPlaceIterable contract violation, write pointer advanced beyond read pointer" }>, align 1
@alloc_ad0398e6e71ac4d71954beba0ca527f5 = private unnamed_addr constant <{ ptr, [8 x i8] }> <{ ptr @alloc_3860cda7c7ca35d104df03f530f92d4f, [8 x i8] c"N\00\00\00\00\00\00\00" }>, align 8
@alloc_53973d2fe29b4adba8bb7390b5678745 = private unnamed_addr constant <{ [8 x i8] }> zeroinitializer, align 8
@alloc_c2b8d18a8820c4c36eea34c45987dafc = private unnamed_addr constant <{ [34 x i8] }> <{ [34 x i8] c"InPlaceIterable contract violation" }>, align 1
@alloc_6e00b24992d19a4fbc54d5661e2548d5 = private unnamed_addr constant <{ ptr, [8 x i8] }> <{ ptr @alloc_c2b8d18a8820c4c36eea34c45987dafc, [8 x i8] c"\22\00\00\00\00\00\00\00" }>, align 8
@__rust_no_alloc_shim_is_unstable = external global i8
@alloc_671aa59773f02257fc9741a0f6515002 = private unnamed_addr constant <{ [5 x i8] }> <{ [5 x i8] c"HMGET" }>, align 1
@alloc_b406d848b20b973d13f404eb7b952b6b = private unnamed_addr constant <{ [4 x i8] }> <{ [4 x i8] c"HGET" }>, align 1
@vtable.a = private constant <{ ptr, [16 x i8], ptr, ptr, ptr, ptr, ptr, ptr, ptr }> <{ ptr @"_ZN4core3ptr50drop_in_place$LT$redis..connection..Connection$GT$17h61e564b38ae0d3bcE", [16 x i8] c"X\00\00\00\00\00\00\00\08\00\00\00\00\00\00\00", ptr @"_ZN83_$LT$redis..connection..Connection$u20$as$u20$redis..connection..ConnectionLike$GT$18req_packed_command17h1763018b380d8b78E", ptr @"_ZN83_$LT$redis..connection..Connection$u20$as$u20$redis..connection..ConnectionLike$GT$19req_packed_commands17h5849d9048f826e1eE", ptr @_ZN5redis10connection14ConnectionLike11req_command17h15cf3f865c0a8efaE, ptr @"_ZN83_$LT$redis..connection..Connection$u20$as$u20$redis..connection..ConnectionLike$GT$6get_db17h8185c9728687f629E", ptr @_ZN5redis10connection14ConnectionLike19supports_pipelining17hbb3ccbcdd779eae6E, ptr @"_ZN83_$LT$redis..connection..Connection$u20$as$u20$redis..connection..ConnectionLike$GT$16check_connection17hef3a2cb1a720334bE", ptr @"_ZN83_$LT$redis..connection..Connection$u20$as$u20$redis..connection..ConnectionLike$GT$7is_open17hd6eca3242c7eba84E" }>, align 8, !dbg !1383
@alloc_c18aec2f64791555f5b3394d1fad7c20 = private unnamed_addr constant <{ [72 x i8] }> <{ [72 x i8] c"`new_layout.size()` must be smaller than or equal to `old_layout.size()`" }>, align 1
@alloc_1020994b51d9ceb7568ac48c79478bfe = private unnamed_addr constant <{ ptr, [8 x i8] }> <{ ptr @alloc_c18aec2f64791555f5b3394d1fad7c20, [8 x i8] c"H\00\00\00\00\00\00\00" }>, align 8
@alloc_33e8ada5b6178afcb200a31f257552b1 = private unnamed_addr constant <{ [8 x i8] }> <{ [8 x i8] c"\05\00\00\00\00\00\00\00" }>, align 8
@alloc_eab5d04767146d7d9b93b60d28ef530a = private unnamed_addr constant <{ ptr, [8 x i8] }> <{ ptr inttoptr (i64 1 to ptr), [8 x i8] zeroinitializer }>, align 8
@alloc_c6fcdfef848df325684f2662252d07fe = private unnamed_addr constant <{ [4 x i8] }> <{ [4 x i8] c"r2d2" }>, align 1
@vtable.b = private constant <{ [24 x i8], ptr, ptr }> <{ [24 x i8] c"\00\00\00\00\00\00\00\00\00\00\00\00\00\00\00\00\01\00\00\00\00\00\00\00", ptr @"_ZN62_$LT$r2d2..LoggingErrorHandler$u20$as$u20$core..fmt..Debug$GT$3fmt17he6940219833491e1E", ptr @"_ZN72_$LT$r2d2..LoggingErrorHandler$u20$as$u20$r2d2..HandleError$LT$E$GT$$GT$12handle_error17h8e4c3cd229991bedE" }>, align 8, !dbg !1483
@vtable.c = private constant <{ [24 x i8], ptr, ptr, ptr, ptr, ptr, ptr }> <{ [24 x i8] c"\00\00\00\00\00\00\00\00\00\00\00\00\00\00\00\00\01\00\00\00\00\00\00\00", ptr @"_ZN65_$LT$r2d2..event..NopEventHandler$u20$as$u20$core..fmt..Debug$GT$3fmt17h31f74d8b10143401E", ptr @_ZN4r2d25event11HandleEvent14handle_acquire17h5f65d7b59fbc1c21E, ptr @_ZN4r2d25event11HandleEvent14handle_release17h5edaf75e72fe1840E, ptr @_ZN4r2d25event11HandleEvent15handle_checkout17h8c06cfb1404f5610E, ptr @_ZN4r2d25event11HandleEvent14handle_timeout17h4af65f0ace991d75E, ptr @_ZN4r2d25event11HandleEvent14handle_checkin17hddcdee6ef0e1d604E }>, align 8, !dbg !1493
@vtable.d = private constant <{ [24 x i8], ptr, ptr, ptr }> <{ [24 x i8] c"\00\00\00\00\00\00\00\00\00\00\00\00\00\00\00\00\01\00\00\00\00\00\00\00", ptr @"_ZN66_$LT$r2d2..NopConnectionCustomizer$u20$as$u20$core..fmt..Debug$GT$3fmt17hb086f4a285122291E", ptr @_ZN4r2d219CustomizeConnection10on_acquire17ha03f5759f4648319E, ptr @_ZN4r2d219CustomizeConnection10on_release17h6c8d0894c669b55eE }>, align 8, !dbg !1508
@alloc_8821998f047ca62cad40e6bc4e4d87c4 = private unnamed_addr constant <{ [1 x i8] }> <{ [1 x i8] c"\01" }>, align 1
@anon.26cf1c0c57df484a4737be6e98684769.0 = private unnamed_addr constant <{ [1 x i8] }> zeroinitializer, align 1
@alloc_24a2937763a8c1f5b7dbe1dc66afbde2 = private unnamed_addr constant <{ [15 x i8] }> <{ [15 x i8] c"connect_timeout" }>, align 1
@alloc_0191943665a98f23552f09a5e8095e6c = private unnamed_addr constant <{ ptr, [8 x i8] }> <{ ptr @alloc_24a2937763a8c1f5b7dbe1dc66afbde2, [8 x i8] c"\0F\00\00\00\00\00\00\00" }>, align 8
@alloc_684ec25ca0704768680f480f94c3547c = private unnamed_addr constant <{ [32 x i8] }> <{ [32 x i8] c"Ascii protocol response too long" }>, align 1
@alloc_0e4f1add760fc16671b4ae3d6afa64b0 = private unnamed_addr constant <{ [28 x i8] }> <{ [28 x i8] c"Ascii protocol no line found" }>, align 1
@alloc_605785061f10bfa33fb9569133baf330 = private unnamed_addr constant <{ ptr }> <{ ptr @alloc_980705bbcb4b81b075ee5637d0bc8d86 }>, align 8
@alloc_cba40c5db543b4bfb3380d6fccd8b74a = private unnamed_addr constant <{ [5 x i8] }> <{ [5 x i8] c"END\0D\0A" }>, align 1
@alloc_ad925f40761cf2590bdc1754b17c8ed8 = private unnamed_addr constant <{ ptr, [8 x i8] }> <{ ptr @alloc_cba40c5db543b4bfb3380d6fccd8b74a, [8 x i8] c"\05\00\00\00\00\00\00\00" }>, align 8
@alloc_23ae5e0b2ef9fbdd84411c6352508b65 = private unnamed_addr constant <{ [5 x i8] }> <{ [5 x i8] c"VALUE" }>, align 1
@alloc_0242e8ee118de705af76c627590b82cc = private unnamed_addr constant <{ [1 x i8] }> <{ [1 x i8] c" " }>, align 1
@vtable.e = private constant <{ [24 x i8], ptr }> <{ [24 x i8] c"\00\00\00\00\00\00\00\00\00\00\00\00\00\00\00\00\01\00\00\00\00\00\00\00", ptr @"_ZN41_$LT$T$u20$as$u20$serde..de..Expected$GT$3fmt17hfa4bb4883d3f7428E" }>, align 8, !dbg !1519
@vtable.f = private constant <{ [24 x i8], ptr }> <{ [24 x i8] c"\00\00\00\00\00\00\00\00\00\00\00\00\00\00\00\00\01\00\00\00\00\00\00\00", ptr @"_ZN41_$LT$T$u20$as$u20$serde..de..Expected$GT$3fmt17h872e04d5d7f15aabE" }>, align 8, !dbg !1533
@vtable.g = private constant <{ [24 x i8], ptr }> <{ [24 x i8] c"\00\00\00\00\00\00\00\00\00\00\00\00\00\00\00\00\01\00\00\00\00\00\00\00", ptr @"_ZN41_$LT$T$u20$as$u20$serde..de..Expected$GT$3fmt17hc3b7767643a62aa3E" }>, align 8, !dbg !1552
@alloc_d791eaf358ed821941e2d4cfd804d89b = private unnamed_addr constant <{ [16 x i8] }> <{ [16 x i8] c"\01\00\00\00\00\00\00\00\00\00\00\00\00\00\00\00" }>, align 8
@alloc_c9b03edc1d4c89345b1a90b58c48a145 = private unnamed_addr constant <{ [10 x i8] }> <{ [10 x i8] c":followers" }>, align 1
@alloc_b43be9105ad19cdde664e37eef28e680 = private unnamed_addr constant <{ [13 x i8] }> <{ [13 x i8] c"social-graph:" }>, align 1
@alloc_defe1279fd5a2acbdf45ebb75e64b471 = private unnamed_addr constant <{ [9 x i8] }> <{ [9 x i8] c"followers" }>, align 1
@__rustc_debug_gdb_scripts_section__ = linkonce_odr unnamed_addr constant [34 x i8] c"\01gdb_load_rust_pretty_printers.py\00", section ".debug_gdb_scripts", align 1

; Function Attrs: nonlazybind uwtable
define internal { ptr, ptr } @"_ZN102_$LT$core..iter..adapters..map..Map$LT$I$C$F$GT$$u20$as$u20$core..iter..traits..iterator..Iterator$GT$8try_fold17hafa36e018d64086cE"(ptr align 8 %self, ptr %init.0, ptr %init.1, ptr %g) unnamed_addr #0 personality ptr @rust_eh_personality !dbg !1700 {
start:
  %0 = alloca [16 x i8], align 8
  %g.dbg.spill = alloca [8 x i8], align 8
  %init.dbg.spill = alloca [16 x i8], align 8
  %self.dbg.spill = alloca [8 x i8], align 8
  %_8 = alloca [1 x i8], align 1
  %_5 = alloca [16 x i8], align 8
  store ptr %self, ptr %self.dbg.spill, align 8
    #dbg_declare(ptr %self.dbg.spill, !1766, !DIExpression(), !1774)
  store ptr %init.0, ptr %init.dbg.spill, align 8
  %1 = getelementptr inbounds i8, ptr %init.dbg.spill, i64 8
  store ptr %init.1, ptr %1, align 8
    #dbg_declare(ptr %init.dbg.spill, !1767, !DIExpression(), !1775)
  store ptr %g, ptr %g.dbg.spill, align 8
    #dbg_declare(ptr %g.dbg.spill, !1768, !DIExpression(), !1776)
  store i8 0, ptr %_8, align 1, !dbg !1777
  store i8 1, ptr %_8, align 1, !dbg !1778
  store ptr %init.0, ptr %_5, align 8, !dbg !1778
  %2 = getelementptr inbounds i8, ptr %_5, i64 8, !dbg !1778
  store ptr %init.1, ptr %2, align 8, !dbg !1778
  %_7 = getelementptr inbounds i8, ptr %self, i64 32, !dbg !1779
  %3 = invoke { ptr, ptr } @_ZN4core4iter8adapters3map12map_try_fold17hec3e3cb02d83a7baE(ptr align 1 %_7, ptr %g)
          to label %bb1 unwind label %cleanup, !dbg !1780

bb5:                                              ; preds = %cleanup
  %4 = load i8, ptr %_8, align 1, !dbg !1781
  %5 = trunc i8 %4 to i1, !dbg !1781
  br i1 %5, label %bb4, label %bb3, !dbg !1781

cleanup:                                          ; preds = %bb1, %start
  %6 = landingpad { ptr, i32 }
          cleanup
  %7 = extractvalue { ptr, i32 } %6, 0
  %8 = extractvalue { ptr, i32 } %6, 1
  store ptr %7, ptr %0, align 8
  %9 = getelementptr inbounds i8, ptr %0, i64 8
  store i32 %8, ptr %9, align 8
  br label %bb5

bb1:                                              ; preds = %start
  %_6.0 = extractvalue { ptr, ptr } %3, 0, !dbg !1780
  %_6.1 = extractvalue { ptr, ptr } %3, 1, !dbg !1780
  store i8 0, ptr %_8, align 1, !dbg !1777
  %10 = load ptr, ptr %_5, align 8, !dbg !1777
  %11 = getelementptr inbounds i8, ptr %_5, i64 8, !dbg !1777
  %12 = load ptr, ptr %11, align 8, !dbg !1777
  %13 = invoke { ptr, ptr } @"_ZN103_$LT$alloc..vec..into_iter..IntoIter$LT$T$C$A$GT$$u20$as$u20$core..iter..traits..iterator..Iterator$GT$8try_fold17h5deafdbe4712e562E"(ptr align 8 %self, ptr %10, ptr %12, ptr align 1 %_6.0, ptr %_6.1)
          to label %bb2 unwind label %cleanup, !dbg !1777

bb2:                                              ; preds = %bb1
  %_0.0 = extractvalue { ptr, ptr } %13, 0, !dbg !1777
  %_0.1 = extractvalue { ptr, ptr } %13, 1, !dbg !1777
  store i8 0, ptr %_8, align 1, !dbg !1781
  %14 = insertvalue { ptr, ptr } poison, ptr %_0.0, 0, !dbg !1782
  %15 = insertvalue { ptr, ptr } %14, ptr %_0.1, 1, !dbg !1782
  ret { ptr, ptr } %15, !dbg !1782

bb3:                                              ; preds = %bb4, %bb5
  %16 = load ptr, ptr %0, align 8, !dbg !1783
  %17 = getelementptr inbounds i8, ptr %0, i64 8, !dbg !1783
  %18 = load i32, ptr %17, align 8, !dbg !1783
  %19 = insertvalue { ptr, i32 } poison, ptr %16, 0, !dbg !1783
  %20 = insertvalue { ptr, i32 } %19, i32 %18, 1, !dbg !1783
  resume { ptr, i32 } %20, !dbg !1783

bb4:                                              ; preds = %bb5
  invoke void @"_ZN4core3ptr70drop_in_place$LT$alloc..vec..in_place_drop..InPlaceDrop$LT$i64$GT$$GT$17hb7d76c1fe1e577faE"(ptr align 8 %_5) #23
          to label %bb3 unwind label %terminate, !dbg !1781

terminate:                                        ; preds = %bb4
  %21 = landingpad { ptr, i32 }
          filter [0 x ptr] zeroinitializer
  %22 = extractvalue { ptr, i32 } %21, 0
  %23 = extractvalue { ptr, i32 } %21, 1
  call void @_ZN4core9panicking16panic_in_cleanup17hdb19dc6496e5af6eE() #24, !dbg !1783
  unreachable, !dbg !1783
}

; Function Attrs: inlinehint nonlazybind uwtable
define internal void @"_ZN103_$LT$alloc..vec..into_iter..IntoIter$LT$T$C$A$GT$$u20$as$u20$core..iter..traits..iterator..Iterator$GT$4next17h2a00c69e43984b8aE"(ptr sret([2208 x i8]) align 8 %_0, ptr align 8 %self) unnamed_addr #1 !dbg !1784 {
start:
  %self.dbg.spill.i1 = alloca [8 x i8], align 8
  %count.dbg.spill.i = alloca [8 x i8], align 8
  %self.dbg.spill.i = alloca [8 x i8], align 8
  %old.dbg.spill = alloca [8 x i8], align 8
  %self.dbg.spill = alloca [8 x i8], align 8
  %_18 = alloca [2208 x i8], align 8
  %_13 = alloca [8 x i8], align 8
  %ptr = alloca [8 x i8], align 8
  store ptr %self, ptr %self.dbg.spill, align 8
    #dbg_declare(ptr %self.dbg.spill, !1814, !DIExpression(), !1819)
    #dbg_declare(ptr %ptr, !1815, !DIExpression(), !1820)
  br label %bb6, !dbg !1821

bb6:                                              ; preds = %start
  %_11 = getelementptr inbounds i8, ptr %self, i64 8, !dbg !1822
  %_15 = getelementptr inbounds i8, ptr %self, i64 24, !dbg !1823
  %0 = load ptr, ptr %_15, align 8, !dbg !1824
  store ptr %0, ptr %_13, align 8, !dbg !1824
  %_10 = call zeroext i1 @"_ZN78_$LT$core..ptr..non_null..NonNull$LT$T$GT$$u20$as$u20$core..cmp..PartialEq$GT$2eq17h36bc0885df4d1d5dE"(ptr align 8 %_11, ptr align 8 %_13), !dbg !1822
  br i1 %_10, label %bb8, label %bb9, !dbg !1822

bb9:                                              ; preds = %bb6
  %1 = getelementptr inbounds i8, ptr %self, i64 8, !dbg !1825
  %old = load ptr, ptr %1, align 8, !dbg !1825
  store ptr %old, ptr %old.dbg.spill, align 8, !dbg !1825
    #dbg_declare(ptr %old.dbg.spill, !1817, !DIExpression(), !1826)
  store ptr %old, ptr %self.dbg.spill.i, align 8
    #dbg_declare(ptr %self.dbg.spill.i, !1827, !DIExpression(), !1835)
  store i64 1, ptr %count.dbg.spill.i, align 8
    #dbg_declare(ptr %count.dbg.spill.i, !1834, !DIExpression(), !1837)
  store ptr %old, ptr %self.dbg.spill.i1, align 8
    #dbg_declare(ptr %self.dbg.spill.i1, !1838, !DIExpression(), !1845)
  %_3.i = getelementptr inbounds %"r2d2::IdleConn<memcache::connection::Connection>", ptr %old, i64 1, !dbg !1847
  %2 = getelementptr inbounds i8, ptr %self, i64 8, !dbg !1848
  store ptr %_3.i, ptr %2, align 8, !dbg !1848
  store ptr %old, ptr %ptr, align 8, !dbg !1849
  br label %bb11, !dbg !1850

bb8:                                              ; preds = %bb6
  store i64 -9223372036854775803, ptr %_0, align 8, !dbg !1851
  br label %bb13, !dbg !1852

bb11:                                             ; preds = %bb9
  %_19 = load ptr, ptr %ptr, align 8, !dbg !1855
  call void @"_ZN4core3ptr8non_null16NonNull$LT$T$GT$4read17h7e1d7b0b5da6f12cE"(ptr sret([2208 x i8]) align 8 %_18, ptr %_19), !dbg !1855
  call void @llvm.memcpy.p0.p0.i64(ptr align 8 %_0, ptr align 8 %_18, i64 2208, i1 false), !dbg !1856
  br label %bb13, !dbg !1857

bb13:                                             ; preds = %bb11, %bb8
  ret void, !dbg !1857

bb1:                                              ; No predecessors!
  unreachable

bb2:                                              ; No predecessors!
  unreachable

bb3:                                              ; No predecessors!
  unreachable

bb4:                                              ; No predecessors!
  unreachable

bb5:                                              ; No predecessors!
  unreachable
}

; Function Attrs: inlinehint nonlazybind uwtable
define internal void @"_ZN103_$LT$alloc..vec..into_iter..IntoIter$LT$T$C$A$GT$$u20$as$u20$core..iter..traits..iterator..Iterator$GT$4next17ha6be1f47f110126fE"(ptr sret([24 x i8]) align 8 %_0, ptr align 8 %self) unnamed_addr #1 !dbg !1858 {
start:
  %self.dbg.spill.i1 = alloca [8 x i8], align 8
  %count.dbg.spill.i = alloca [8 x i8], align 8
  %self.dbg.spill.i = alloca [8 x i8], align 8
  %old.dbg.spill = alloca [8 x i8], align 8
  %self.dbg.spill = alloca [8 x i8], align 8
  %_18 = alloca [24 x i8], align 8
  %_13 = alloca [8 x i8], align 8
  %ptr = alloca [8 x i8], align 8
  store ptr %self, ptr %self.dbg.spill, align 8
    #dbg_declare(ptr %self.dbg.spill, !1876, !DIExpression(), !1881)
    #dbg_declare(ptr %ptr, !1877, !DIExpression(), !1882)
  br label %bb6, !dbg !1883

bb6:                                              ; preds = %start
  %_11 = getelementptr inbounds i8, ptr %self, i64 8, !dbg !1884
  %_15 = getelementptr inbounds i8, ptr %self, i64 24, !dbg !1885
  %0 = load ptr, ptr %_15, align 8, !dbg !1886
  store ptr %0, ptr %_13, align 8, !dbg !1886
  %_10 = call zeroext i1 @"_ZN78_$LT$core..ptr..non_null..NonNull$LT$T$GT$$u20$as$u20$core..cmp..PartialEq$GT$2eq17heaef2cd4a3c27b7dE"(ptr align 8 %_11, ptr align 8 %_13), !dbg !1884
  br i1 %_10, label %bb8, label %bb9, !dbg !1884

bb9:                                              ; preds = %bb6
  %1 = getelementptr inbounds i8, ptr %self, i64 8, !dbg !1887
  %old = load ptr, ptr %1, align 8, !dbg !1887
  store ptr %old, ptr %old.dbg.spill, align 8, !dbg !1887
    #dbg_declare(ptr %old.dbg.spill, !1879, !DIExpression(), !1888)
  store ptr %old, ptr %self.dbg.spill.i, align 8
    #dbg_declare(ptr %self.dbg.spill.i, !1889, !DIExpression(), !1896)
  store i64 1, ptr %count.dbg.spill.i, align 8
    #dbg_declare(ptr %count.dbg.spill.i, !1895, !DIExpression(), !1898)
  store ptr %old, ptr %self.dbg.spill.i1, align 8
    #dbg_declare(ptr %self.dbg.spill.i1, !1899, !DIExpression(), !1906)
  %_3.i = getelementptr inbounds %"alloc::string::String", ptr %old, i64 1, !dbg !1908
  %2 = getelementptr inbounds i8, ptr %self, i64 8, !dbg !1909
  store ptr %_3.i, ptr %2, align 8, !dbg !1909
  store ptr %old, ptr %ptr, align 8, !dbg !1910
  br label %bb11, !dbg !1911

bb8:                                              ; preds = %bb6
  store i64 -9223372036854775808, ptr %_0, align 8, !dbg !1912
  br label %bb13, !dbg !1913

bb11:                                             ; preds = %bb9
  %_19 = load ptr, ptr %ptr, align 8, !dbg !1915
  call void @"_ZN4core3ptr8non_null16NonNull$LT$T$GT$4read17hc9e916a74efdc450E"(ptr sret([24 x i8]) align 8 %_18, ptr %_19), !dbg !1915
  call void @llvm.memcpy.p0.p0.i64(ptr align 8 %_0, ptr align 8 %_18, i64 24, i1 false), !dbg !1916
  br label %bb13, !dbg !1917

bb13:                                             ; preds = %bb11, %bb8
  ret void, !dbg !1917

bb1:                                              ; No predecessors!
  unreachable

bb2:                                              ; No predecessors!
  unreachable

bb3:                                              ; No predecessors!
  unreachable

bb4:                                              ; No predecessors!
  unreachable

bb5:                                              ; No predecessors!
  unreachable
}

; Function Attrs: nonlazybind uwtable
define internal { ptr, ptr } @"_ZN103_$LT$alloc..vec..into_iter..IntoIter$LT$T$C$A$GT$$u20$as$u20$core..iter..traits..iterator..Iterator$GT$8try_fold17h5deafdbe4712e562E"(ptr align 8 %self, ptr %0, ptr %1, ptr align 1 %2, ptr %3) unnamed_addr #0 personality ptr @rust_eh_personality !dbg !1918 {
start:
  %self.dbg.spill.i4 = alloca [8 x i8], align 8
  %count.dbg.spill.i = alloca [8 x i8], align 8
  %self.dbg.spill.i = alloca [8 x i8], align 8
  %val.dbg.spill = alloca [16 x i8], align 8
  %tmp.dbg.spill = alloca [16 x i8], align 8
  %4 = alloca [16 x i8], align 8
  %residual.dbg.spill1 = alloca [0 x i8], align 1
  %residual.dbg.spill = alloca [0 x i8], align 1
  %self.dbg.spill = alloca [8 x i8], align 8
  %_44 = alloca [1 x i8], align 1
  %_42 = alloca [1 x i8], align 1
  %_35 = alloca [32 x i8], align 8
  %_32 = alloca [16 x i8], align 8
  %_25 = alloca [8 x i8], align 8
  %_0 = alloca [16 x i8], align 8
  %f = alloca [16 x i8], align 8
  %accum = alloca [16 x i8], align 8
  store ptr %0, ptr %accum, align 8
  %5 = getelementptr inbounds i8, ptr %accum, i64 8
  store ptr %1, ptr %5, align 8
  store ptr %2, ptr %f, align 8
  %6 = getelementptr inbounds i8, ptr %f, i64 8
  store ptr %3, ptr %6, align 8
  store ptr %self, ptr %self.dbg.spill, align 8
    #dbg_declare(ptr %self.dbg.spill, !1929, !DIExpression(), !1965)
    #dbg_declare(ptr %accum, !1930, !DIExpression(), !1966)
    #dbg_declare(ptr %f, !1931, !DIExpression(), !1967)
    #dbg_declare(ptr %residual.dbg.spill, !1934, !DIExpression(), !1968)
    #dbg_declare(ptr %residual.dbg.spill1, !1958, !DIExpression(), !1969)
  store i8 0, ptr %_44, align 1, !dbg !1970
  store i8 0, ptr %_42, align 1, !dbg !1970
  store i8 1, ptr %_44, align 1, !dbg !1970
  br label %bb13, !dbg !1971

bb13:                                             ; preds = %bb20, %start
  %_23 = getelementptr inbounds i8, ptr %self, i64 8, !dbg !1972
  %_27 = getelementptr inbounds i8, ptr %self, i64 24, !dbg !1973
  %7 = load ptr, ptr %_27, align 8, !dbg !1974
  store ptr %7, ptr %_25, align 8, !dbg !1974
  %_22 = invoke zeroext i1 @_ZN4core3cmp9PartialEq2ne17h18c433aabba02f14E(ptr align 8 %_23, ptr align 8 %_25)
          to label %bb14 unwind label %cleanup, !dbg !1972

bb27:                                             ; preds = %bb29, %bb30, %cleanup
  br label %bb34, !dbg !1975

cleanup:                                          ; preds = %bb15, %bb23, %bb13
  %8 = landingpad { ptr, i32 }
          cleanup
  %9 = extractvalue { ptr, i32 } %8, 0
  %10 = extractvalue { ptr, i32 } %8, 1
  store ptr %9, ptr %4, align 8
  %11 = getelementptr inbounds i8, ptr %4, i64 8
  store i32 %10, ptr %11, align 8
  br label %bb27

bb14:                                             ; preds = %bb13
  br i1 %_22, label %bb15, label %bb23, !dbg !1972

bb23:                                             ; preds = %bb14
  store i8 0, ptr %_44, align 1, !dbg !1976
  %_41.0 = load ptr, ptr %accum, align 8, !dbg !1976
  %12 = getelementptr inbounds i8, ptr %accum, i64 8, !dbg !1976
  %_41.1 = load ptr, ptr %12, align 8, !dbg !1976
  %13 = invoke { ptr, ptr } @"_ZN79_$LT$core..result..Result$LT$T$C$E$GT$$u20$as$u20$core..ops..try_trait..Try$GT$11from_output17h4133c63cc4e8f810E"(ptr %_41.0, ptr %_41.1)
          to label %bb24 unwind label %cleanup, !dbg !1977

bb15:                                             ; preds = %bb14
  %14 = getelementptr inbounds i8, ptr %self, i64 8, !dbg !1978
  %_29 = load ptr, ptr %14, align 8, !dbg !1978
  %15 = invoke { i64, i64 } @"_ZN4core3ptr8non_null16NonNull$LT$T$GT$4read17h0a8fd532c16e7abdE"(ptr %_29)
          to label %bb16 unwind label %cleanup, !dbg !1978

bb24:                                             ; preds = %bb23
  %16 = extractvalue { ptr, ptr } %13, 0, !dbg !1977
  %17 = extractvalue { ptr, ptr } %13, 1, !dbg !1977
  store ptr %16, ptr %_0, align 8, !dbg !1977
  %18 = getelementptr inbounds i8, ptr %_0, i64 8, !dbg !1977
  store ptr %17, ptr %18, align 8, !dbg !1977
  br label %bb26, !dbg !1975

bb26:                                             ; preds = %bb25, %bb24
  %19 = load ptr, ptr %_0, align 8, !dbg !1979
  %20 = getelementptr inbounds i8, ptr %_0, i64 8, !dbg !1979
  %21 = load ptr, ptr %20, align 8, !dbg !1979
  %22 = insertvalue { ptr, ptr } poison, ptr %19, 0, !dbg !1979
  %23 = insertvalue { ptr, ptr } %22, ptr %21, 1, !dbg !1979
  ret { ptr, ptr } %23, !dbg !1979

bb16:                                             ; preds = %bb15
  %tmp.0 = extractvalue { i64, i64 } %15, 0, !dbg !1978
  %tmp.1 = extractvalue { i64, i64 } %15, 1, !dbg !1978
  store i64 %tmp.0, ptr %tmp.dbg.spill, align 8, !dbg !1978
  %24 = getelementptr inbounds i8, ptr %tmp.dbg.spill, i64 8, !dbg !1978
  store i64 %tmp.1, ptr %24, align 8, !dbg !1978
    #dbg_declare(ptr %tmp.dbg.spill, !1956, !DIExpression(), !1980)
  store i8 1, ptr %_42, align 1, !dbg !1981
  %25 = getelementptr inbounds i8, ptr %self, i64 8, !dbg !1982
  %_31 = load ptr, ptr %25, align 8, !dbg !1982
  store ptr %_31, ptr %self.dbg.spill.i, align 8
    #dbg_declare(ptr %self.dbg.spill.i, !1983, !DIExpression(), !1990)
  store i64 1, ptr %count.dbg.spill.i, align 8
    #dbg_declare(ptr %count.dbg.spill.i, !1989, !DIExpression(), !1992)
  store ptr %_31, ptr %self.dbg.spill.i4, align 8
    #dbg_declare(ptr %self.dbg.spill.i4, !1993, !DIExpression(), !2000)
  br label %"_ZN4core3ptr8non_null16NonNull$LT$T$GT$3add17h3c46d461d5b99f03E.exit", !dbg !2002

"_ZN4core3ptr8non_null16NonNull$LT$T$GT$3add17h3c46d461d5b99f03E.exit": ; preds = %bb16
  %_3.i = getelementptr inbounds %"OpenFaaSRPC::Follower", ptr %_31, i64 1, !dbg !2003
  br label %bb17, !dbg !2004

bb30:                                             ; preds = %cleanup2
  %26 = load i8, ptr %_42, align 1, !dbg !2005
  %27 = trunc i8 %26 to i1, !dbg !2005
  br i1 %27, label %bb29, label %bb27, !dbg !2005

cleanup2:                                         ; preds = %bb21, %bb18, %bb17
  %28 = landingpad { ptr, i32 }
          cleanup
  %29 = extractvalue { ptr, i32 } %28, 0
  %30 = extractvalue { ptr, i32 } %28, 1
  store ptr %29, ptr %4, align 8
  %31 = getelementptr inbounds i8, ptr %4, i64 8
  store i32 %30, ptr %31, align 8
  br label %bb30

bb17:                                             ; preds = %"_ZN4core3ptr8non_null16NonNull$LT$T$GT$3add17h3c46d461d5b99f03E.exit"
  %32 = getelementptr inbounds i8, ptr %self, i64 8, !dbg !2006
  store ptr %_3.i, ptr %32, align 8, !dbg !2006
  store i8 0, ptr %_44, align 1, !dbg !2007
  %_36.0 = load ptr, ptr %accum, align 8, !dbg !2007
  %33 = getelementptr inbounds i8, ptr %accum, i64 8, !dbg !2007
  %_36.1 = load ptr, ptr %33, align 8, !dbg !2007
  store i8 0, ptr %_42, align 1, !dbg !2008
  store ptr %_36.0, ptr %_35, align 8, !dbg !2009
  %34 = getelementptr inbounds i8, ptr %_35, i64 8, !dbg !2009
  store ptr %_36.1, ptr %34, align 8, !dbg !2009
  %35 = getelementptr inbounds i8, ptr %_35, i64 16, !dbg !2009
  store i64 %tmp.0, ptr %35, align 8, !dbg !2009
  %36 = getelementptr inbounds i8, ptr %35, i64 8, !dbg !2009
  store i64 %tmp.1, ptr %36, align 8, !dbg !2009
  %37 = load ptr, ptr %_35, align 8, !dbg !2009
  %38 = getelementptr inbounds i8, ptr %_35, i64 8, !dbg !2009
  %39 = load ptr, ptr %38, align 8, !dbg !2009
  %40 = getelementptr inbounds i8, ptr %_35, i64 16, !dbg !2009
  %41 = load i64, ptr %40, align 8, !dbg !2009
  %42 = getelementptr inbounds i8, ptr %40, i64 8, !dbg !2009
  %43 = load i64, ptr %42, align 8, !dbg !2009
  %44 = invoke { ptr, ptr } @"_ZN4core4iter8adapters3map12map_try_fold28_$u7b$$u7b$closure$u7d$$u7d$17h4769939245078bb7E"(ptr align 8 %f, ptr %37, ptr %39, i64 %41, i64 %43)
          to label %bb18 unwind label %cleanup2, !dbg !2009

bb18:                                             ; preds = %bb17
  %_33.0 = extractvalue { ptr, ptr } %44, 0, !dbg !2009
  %_33.1 = extractvalue { ptr, ptr } %44, 1, !dbg !2009
  %45 = invoke { ptr, ptr } @"_ZN79_$LT$core..result..Result$LT$T$C$E$GT$$u20$as$u20$core..ops..try_trait..Try$GT$6branch17heabfe491697101eaE"(ptr %_33.0, ptr %_33.1)
          to label %bb19 unwind label %cleanup2, !dbg !2009

bb19:                                             ; preds = %bb18
  %46 = extractvalue { ptr, ptr } %45, 0, !dbg !2009
  %47 = extractvalue { ptr, ptr } %45, 1, !dbg !2009
  store ptr %46, ptr %_32, align 8, !dbg !2009
  %48 = getelementptr inbounds i8, ptr %_32, i64 8, !dbg !2009
  store ptr %47, ptr %48, align 8, !dbg !2009
  br label %bb20, !dbg !2009

bb20:                                             ; preds = %bb19
  %val.0 = load ptr, ptr %_32, align 8, !dbg !2009
  %49 = getelementptr inbounds i8, ptr %_32, i64 8, !dbg !2009
  %val.1 = load ptr, ptr %49, align 8, !dbg !2009
  store ptr %val.0, ptr %val.dbg.spill, align 8, !dbg !2009
  %50 = getelementptr inbounds i8, ptr %val.dbg.spill, i64 8, !dbg !2009
  store ptr %val.1, ptr %50, align 8, !dbg !2009
    #dbg_declare(ptr %val.dbg.spill, !1960, !DIExpression(), !2010)
  store i8 1, ptr %_44, align 1, !dbg !2011
  store ptr %val.0, ptr %accum, align 8, !dbg !2011
  %51 = getelementptr inbounds i8, ptr %accum, i64 8, !dbg !2011
  store ptr %val.1, ptr %51, align 8, !dbg !2011
  store i8 0, ptr %_42, align 1, !dbg !2005
  br label %bb13, !dbg !2012

bb21:                                             ; No predecessors!
  %52 = invoke { ptr, ptr } @"_ZN153_$LT$core..result..Result$LT$T$C$F$GT$$u20$as$u20$core..ops..try_trait..FromResidual$LT$core..result..Result$LT$core..convert..Infallible$C$E$GT$$GT$$GT$13from_residual17hf7275403c24fdd49E"(ptr align 8 @alloc_ae52e422ab29884b58622d79788975fe)
          to label %bb22 unwind label %cleanup2, !dbg !2013

bb22:                                             ; preds = %bb21
  %53 = extractvalue { ptr, ptr } %52, 0, !dbg !2013
  %54 = extractvalue { ptr, ptr } %52, 1, !dbg !2013
  store ptr %53, ptr %_0, align 8, !dbg !2013
  %55 = getelementptr inbounds i8, ptr %_0, i64 8, !dbg !2013
  store ptr %54, ptr %55, align 8, !dbg !2013
  store i8 0, ptr %_42, align 1, !dbg !2005
  br label %bb25, !dbg !2014

bb25:                                             ; preds = %bb22
  br label %bb26, !dbg !1975

bb9:                                              ; No predecessors!
  unreachable, !dbg !2014

bb29:                                             ; preds = %bb30
  br label %bb27, !dbg !2005

bb34:                                             ; preds = %bb27
  %56 = load i8, ptr %_44, align 1, !dbg !1975
  %57 = trunc i8 %56 to i1, !dbg !1975
  br i1 %57, label %bb33, label %bb28, !dbg !1975

bb28:                                             ; preds = %bb33, %bb34
  %58 = load ptr, ptr %4, align 8, !dbg !2016
  %59 = getelementptr inbounds i8, ptr %4, i64 8, !dbg !2016
  %60 = load i32, ptr %59, align 8, !dbg !2016
  %61 = insertvalue { ptr, i32 } poison, ptr %58, 0, !dbg !2016
  %62 = insertvalue { ptr, i32 } %61, i32 %60, 1, !dbg !2016
  resume { ptr, i32 } %62, !dbg !2016

bb33:                                             ; preds = %bb34
  invoke void @"_ZN4core3ptr70drop_in_place$LT$alloc..vec..in_place_drop..InPlaceDrop$LT$i64$GT$$GT$17hb7d76c1fe1e577faE"(ptr align 8 %accum) #23
          to label %bb28 unwind label %terminate, !dbg !1975

terminate:                                        ; preds = %bb33
  %63 = landingpad { ptr, i32 }
          filter [0 x ptr] zeroinitializer
  %64 = extractvalue { ptr, i32 } %63, 0
  %65 = extractvalue { ptr, i32 } %63, 1
  call void @_ZN4core9panicking16panic_in_cleanup17hdb19dc6496e5af6eE() #24, !dbg !2016
  unreachable, !dbg !2016

bb1:                                              ; No predecessors!
  unreachable

bb2:                                              ; No predecessors!
  unreachable

bb3:                                              ; No predecessors!
  unreachable

bb4:                                              ; No predecessors!
  unreachable

bb5:                                              ; No predecessors!
  unreachable

bb6:                                              ; No predecessors!
  unreachable

bb7:                                              ; No predecessors!
  unreachable

bb8:                                              ; No predecessors!
  unreachable

bb10:                                             ; No predecessors!
  unreachable

bb11:                                             ; No predecessors!
  unreachable

bb12:                                             ; No predecessors!
  unreachable

bb31:                                             ; No predecessors!
  unreachable

bb32:                                             ; No predecessors!
  unreachable
}

; Function Attrs: inlinehint nonlazybind uwtable
define internal void @"_ZN103_$LT$alloc..vec..into_iter..IntoIter$LT$T$C$A$GT$$u20$as$u20$core..iter..traits..iterator..Iterator$GT$9size_hint17h0b74dc86b104e515E"(ptr sret([24 x i8]) align 8 %_0, ptr align 8 %self) unnamed_addr #1 !dbg !2017 {
start:
  %self.dbg.spill = alloca [8 x i8], align 8
  %_13 = alloca [16 x i8], align 8
  %exact = alloca [8 x i8], align 8
  store ptr %self, ptr %self.dbg.spill, align 8
    #dbg_declare(ptr %self.dbg.spill, !2037, !DIExpression(), !2040)
    #dbg_declare(ptr %exact, !2038, !DIExpression(), !2041)
  br label %bb5, !dbg !2042

bb5:                                              ; preds = %start
  %_10 = getelementptr inbounds i8, ptr %self, i64 24, !dbg !2043
  %_8 = load ptr, ptr %_10, align 8, !dbg !2044
  %0 = getelementptr inbounds i8, ptr %self, i64 8, !dbg !2045
  %_11 = load ptr, ptr %0, align 8, !dbg !2045
  %1 = call i64 @"_ZN4core3ptr8non_null16NonNull$LT$T$GT$7sub_ptr17hebbed351111ebc0dE"(ptr %_8, ptr %_11), !dbg !2046
  store i64 %1, ptr %exact, align 8, !dbg !2046
  br label %bb6, !dbg !2046

bb6:                                              ; preds = %bb5
  %_12 = load i64, ptr %exact, align 8, !dbg !2047
  %_14 = load i64, ptr %exact, align 8, !dbg !2048
  %2 = getelementptr inbounds i8, ptr %_13, i64 8, !dbg !2049
  store i64 %_14, ptr %2, align 8, !dbg !2049
  store i64 1, ptr %_13, align 8, !dbg !2049
  store i64 %_12, ptr %_0, align 8, !dbg !2050
  %3 = load i64, ptr %_13, align 8, !dbg !2050
  %4 = getelementptr inbounds i8, ptr %_13, i64 8, !dbg !2050
  %5 = load i64, ptr %4, align 8, !dbg !2050
  %6 = getelementptr inbounds i8, ptr %_0, i64 8, !dbg !2050
  store i64 %3, ptr %6, align 8, !dbg !2050
  %7 = getelementptr inbounds i8, ptr %6, i64 8, !dbg !2050
  store i64 %5, ptr %7, align 8, !dbg !2050
  ret void, !dbg !2051

bb1:                                              ; No predecessors!
  unreachable

bb2:                                              ; No predecessors!
  unreachable

bb3:                                              ; No predecessors!
  unreachable

bb4:                                              ; No predecessors!
  unreachable
}

; Function Attrs: inlinehint nonlazybind uwtable
define internal void @"_ZN103_$LT$alloc..vec..into_iter..IntoIter$LT$T$C$A$GT$$u20$as$u20$core..iter..traits..iterator..Iterator$GT$9size_hint17h4680724c7727fe72E"(ptr sret([24 x i8]) align 8 %_0, ptr align 8 %self) unnamed_addr #1 !dbg !2052 {
start:
  %self.dbg.spill = alloca [8 x i8], align 8
  %_13 = alloca [16 x i8], align 8
  %exact = alloca [8 x i8], align 8
  store ptr %self, ptr %self.dbg.spill, align 8
    #dbg_declare(ptr %self.dbg.spill, !2057, !DIExpression(), !2060)
    #dbg_declare(ptr %exact, !2058, !DIExpression(), !2061)
  br label %bb5, !dbg !2062

bb5:                                              ; preds = %start
  %_10 = getelementptr inbounds i8, ptr %self, i64 24, !dbg !2063
  %_8 = load ptr, ptr %_10, align 8, !dbg !2064
  %0 = getelementptr inbounds i8, ptr %self, i64 8, !dbg !2065
  %_11 = load ptr, ptr %0, align 8, !dbg !2065
  %1 = call i64 @"_ZN4core3ptr8non_null16NonNull$LT$T$GT$7sub_ptr17h0e2c214594a46797E"(ptr %_8, ptr %_11), !dbg !2066
  store i64 %1, ptr %exact, align 8, !dbg !2066
  br label %bb6, !dbg !2066

bb6:                                              ; preds = %bb5
  %_12 = load i64, ptr %exact, align 8, !dbg !2067
  %_14 = load i64, ptr %exact, align 8, !dbg !2068
  %2 = getelementptr inbounds i8, ptr %_13, i64 8, !dbg !2069
  store i64 %_14, ptr %2, align 8, !dbg !2069
  store i64 1, ptr %_13, align 8, !dbg !2069
  store i64 %_12, ptr %_0, align 8, !dbg !2070
  %3 = load i64, ptr %_13, align 8, !dbg !2070
  %4 = getelementptr inbounds i8, ptr %_13, i64 8, !dbg !2070
  %5 = load i64, ptr %4, align 8, !dbg !2070
  %6 = getelementptr inbounds i8, ptr %_0, i64 8, !dbg !2070
  store i64 %3, ptr %6, align 8, !dbg !2070
  %7 = getelementptr inbounds i8, ptr %6, i64 8, !dbg !2070
  store i64 %5, ptr %7, align 8, !dbg !2070
  ret void, !dbg !2071

bb1:                                              ; No predecessors!
  unreachable

bb2:                                              ; No predecessors!
  unreachable

bb3:                                              ; No predecessors!
  unreachable

bb4:                                              ; No predecessors!
  unreachable
}

; Function Attrs: inlinehint nonlazybind uwtable
define internal void @"_ZN103_$LT$alloc..vec..into_iter..IntoIter$LT$T$C$A$GT$$u20$as$u20$core..iter..traits..iterator..Iterator$GT$9size_hint17h4e8c4cba158a4eacE"(ptr sret([24 x i8]) align 8 %_0, ptr align 8 %self) unnamed_addr #1 !dbg !2072 {
start:
  %self.dbg.spill = alloca [8 x i8], align 8
  %_13 = alloca [16 x i8], align 8
  %exact = alloca [8 x i8], align 8
  store ptr %self, ptr %self.dbg.spill, align 8
    #dbg_declare(ptr %self.dbg.spill, !2077, !DIExpression(), !2080)
    #dbg_declare(ptr %exact, !2078, !DIExpression(), !2081)
  br label %bb5, !dbg !2082

bb5:                                              ; preds = %start
  %_10 = getelementptr inbounds i8, ptr %self, i64 24, !dbg !2083
  %_8 = load ptr, ptr %_10, align 8, !dbg !2084
  %0 = getelementptr inbounds i8, ptr %self, i64 8, !dbg !2085
  %_11 = load ptr, ptr %0, align 8, !dbg !2085
  %1 = call i64 @"_ZN4core3ptr8non_null16NonNull$LT$T$GT$7sub_ptr17he9253b0676600c98E"(ptr %_8, ptr %_11), !dbg !2086
  store i64 %1, ptr %exact, align 8, !dbg !2086
  br label %bb6, !dbg !2086

bb6:                                              ; preds = %bb5
  %_12 = load i64, ptr %exact, align 8, !dbg !2087
  %_14 = load i64, ptr %exact, align 8, !dbg !2088
  %2 = getelementptr inbounds i8, ptr %_13, i64 8, !dbg !2089
  store i64 %_14, ptr %2, align 8, !dbg !2089
  store i64 1, ptr %_13, align 8, !dbg !2089
  store i64 %_12, ptr %_0, align 8, !dbg !2090
  %3 = load i64, ptr %_13, align 8, !dbg !2090
  %4 = getelementptr inbounds i8, ptr %_13, i64 8, !dbg !2090
  %5 = load i64, ptr %4, align 8, !dbg !2090
  %6 = getelementptr inbounds i8, ptr %_0, i64 8, !dbg !2090
  store i64 %3, ptr %6, align 8, !dbg !2090
  %7 = getelementptr inbounds i8, ptr %6, i64 8, !dbg !2090
  store i64 %5, ptr %7, align 8, !dbg !2090
  ret void, !dbg !2091

bb1:                                              ; No predecessors!
  unreachable

bb2:                                              ; No predecessors!
  unreachable

bb3:                                              ; No predecessors!
  unreachable

bb4:                                              ; No predecessors!
  unreachable
}

; Function Attrs: nonlazybind uwtable
define internal align 8 ptr @"_ZN104_$LT$alloc..vec..into_iter..IntoIter$LT$T$GT$$u20$as$u20$alloc..vec..in_place_collect..AsVecIntoIter$GT$12as_into_iter17h6de62c0b21aa0574E"(ptr align 8 %self) unnamed_addr #0 !dbg !2092 {
start:
  %self.dbg.spill = alloca [8 x i8], align 8
  store ptr %self, ptr %self.dbg.spill, align 8
    #dbg_declare(ptr %self.dbg.spill, !2097, !DIExpression(), !2098)
  ret ptr %self, !dbg !2099
}

; Function Attrs: nonlazybind uwtable
define internal void @_ZN10serde_json2de10from_trait17h4417e7b74ff46369E(ptr sret([24 x i8]) align 8 %_0, ptr align 8 %read) unnamed_addr #0 personality ptr @rust_eh_personality !dbg !2100 {
start:
  %err.dbg.spill3 = alloca [8 x i8], align 8
  %err.dbg.spill = alloca [8 x i8], align 8
  %0 = alloca [16 x i8], align 8
  %val.dbg.spill = alloca [0 x i8], align 1
  %_13 = alloca [24 x i8], align 8
  %_9 = alloca [8 x i8], align 8
  %val = alloca [24 x i8], align 8
  %_4 = alloca [24 x i8], align 8
  %value = alloca [24 x i8], align 8
  %de = alloca [56 x i8], align 8
    #dbg_declare(ptr %read, !2142, !DIExpression(), !2164)
    #dbg_declare(ptr %de, !2143, !DIExpression(), !2165)
    #dbg_declare(ptr %value, !2152, !DIExpression(), !2166)
    #dbg_declare(ptr %val, !2154, !DIExpression(), !2167)
    #dbg_declare(ptr %val.dbg.spill, !2159, !DIExpression(), !2168)
  call void @"_ZN10serde_json2de21Deserializer$LT$R$GT$3new17h20653f96c2617eafE"(ptr sret([56 x i8]) align 8 %de, ptr align 8 %read), !dbg !2169
  invoke void @"_ZN5serde2de5impls77_$LT$impl$u20$serde..de..Deserialize$u20$for$u20$alloc..vec..Vec$LT$T$GT$$GT$11deserialize17h29f0a1973d4da5cbE"(ptr sret([24 x i8]) align 8 %_4, ptr align 8 %de)
          to label %bb2 unwind label %cleanup, !dbg !2170

bb12:                                             ; preds = %bb11, %cleanup
  invoke void @"_ZN4core3ptr82drop_in_place$LT$serde_json..de..Deserializer$LT$serde_json..read..StrRead$GT$$GT$17hd4d2921e2d68d455E"(ptr align 8 %de) #23
          to label %bb13 unwind label %terminate, !dbg !2171

cleanup:                                          ; preds = %bb7, %start
  %1 = landingpad { ptr, i32 }
          cleanup
  %2 = extractvalue { ptr, i32 } %1, 0
  %3 = extractvalue { ptr, i32 } %1, 1
  store ptr %2, ptr %0, align 8
  %4 = getelementptr inbounds i8, ptr %0, i64 8
  store i32 %3, ptr %4, align 8
  br label %bb12

bb2:                                              ; preds = %start
  %5 = load i64, ptr %_4, align 8, !dbg !2170
  %6 = icmp eq i64 %5, -9223372036854775808, !dbg !2170
  %_6 = select i1 %6, i64 1, i64 0, !dbg !2170
  %7 = icmp eq i64 %_6, 0, !dbg !2172
  br i1 %7, label %bb5, label %bb4, !dbg !2172

bb5:                                              ; preds = %bb2
  call void @llvm.memcpy.p0.p0.i64(ptr align 8 %val, ptr align 8 %_4, i64 24, i1 false), !dbg !2174
  call void @llvm.memcpy.p0.p0.i64(ptr align 8 %value, ptr align 8 %val, i64 24, i1 false), !dbg !2175
  %8 = invoke align 8 ptr @"_ZN10serde_json2de21Deserializer$LT$R$GT$3end17hab94ed96c79b763eE"(ptr align 8 %de)
          to label %bb6 unwind label %cleanup1, !dbg !2176

bb4:                                              ; preds = %bb2
  %9 = getelementptr inbounds i8, ptr %_4, i64 8, !dbg !2177
  %err2 = load ptr, ptr %9, align 8, !dbg !2177
  store ptr %err2, ptr %err.dbg.spill3, align 8, !dbg !2177
    #dbg_declare(ptr %err.dbg.spill3, !2157, !DIExpression(), !2178)
  %10 = getelementptr inbounds i8, ptr %_0, i64 8, !dbg !2179
  store ptr %err2, ptr %10, align 8, !dbg !2179
  store i64 -9223372036854775808, ptr %_0, align 8, !dbg !2179
  br label %bb9, !dbg !2180

bb11:                                             ; preds = %cleanup1
  invoke void @"_ZN4core3ptr65drop_in_place$LT$alloc..vec..Vec$LT$OpenFaaSRPC..Follower$GT$$GT$17he9ec91e66525f5d3E"(ptr align 8 %value) #23
          to label %bb12 unwind label %terminate, !dbg !2182

cleanup1:                                         ; preds = %bb5
  %11 = landingpad { ptr, i32 }
          cleanup
  %12 = extractvalue { ptr, i32 } %11, 0
  %13 = extractvalue { ptr, i32 } %11, 1
  store ptr %12, ptr %0, align 8
  %14 = getelementptr inbounds i8, ptr %0, i64 8
  store i32 %13, ptr %14, align 8
  br label %bb11

bb6:                                              ; preds = %bb5
  store ptr %8, ptr %_9, align 8, !dbg !2176
  %15 = load ptr, ptr %_9, align 8, !dbg !2176
  %16 = ptrtoint ptr %15 to i64, !dbg !2176
  %17 = icmp eq i64 %16, 0, !dbg !2176
  %_11 = select i1 %17, i64 0, i64 1, !dbg !2176
  %18 = icmp eq i64 %_11, 0, !dbg !2183
  br i1 %18, label %bb8, label %bb7, !dbg !2183

bb8:                                              ; preds = %bb6
  call void @llvm.memcpy.p0.p0.i64(ptr align 8 %_13, ptr align 8 %value, i64 24, i1 false), !dbg !2185
  call void @llvm.memcpy.p0.p0.i64(ptr align 8 %_0, ptr align 8 %_13, i64 24, i1 false), !dbg !2186
  call void @"_ZN4core3ptr82drop_in_place$LT$serde_json..de..Deserializer$LT$serde_json..read..StrRead$GT$$GT$17hd4d2921e2d68d455E"(ptr align 8 %de), !dbg !2171
  br label %bb10, !dbg !2171

bb7:                                              ; preds = %bb6
  %err = load ptr, ptr %_9, align 8, !dbg !2187
  store ptr %err, ptr %err.dbg.spill, align 8, !dbg !2187
    #dbg_declare(ptr %err.dbg.spill, !2161, !DIExpression(), !2188)
  %19 = getelementptr inbounds i8, ptr %_0, i64 8, !dbg !2189
  store ptr %err, ptr %19, align 8, !dbg !2189
  store i64 -9223372036854775808, ptr %_0, align 8, !dbg !2189
  invoke void @"_ZN4core3ptr65drop_in_place$LT$alloc..vec..Vec$LT$OpenFaaSRPC..Follower$GT$$GT$17he9ec91e66525f5d3E"(ptr align 8 %value)
          to label %bb9 unwind label %cleanup, !dbg !2182

bb10:                                             ; preds = %bb9, %bb8
  ret void, !dbg !2190

bb9:                                              ; preds = %bb7, %bb4
  call void @"_ZN4core3ptr82drop_in_place$LT$serde_json..de..Deserializer$LT$serde_json..read..StrRead$GT$$GT$17hd4d2921e2d68d455E"(ptr align 8 %de), !dbg !2171
  br label %bb10, !dbg !2171

terminate:                                        ; preds = %bb11, %bb12
  %20 = landingpad { ptr, i32 }
          filter [0 x ptr] zeroinitializer
  %21 = extractvalue { ptr, i32 } %20, 0
  %22 = extractvalue { ptr, i32 } %20, 1
  call void @_ZN4core9panicking16panic_in_cleanup17hdb19dc6496e5af6eE() #24, !dbg !2191
  unreachable, !dbg !2191

bb3:                                              ; No predecessors!
  unreachable, !dbg !2192

bb13:                                             ; preds = %bb12
  %23 = load ptr, ptr %0, align 8, !dbg !2191
  %24 = getelementptr inbounds i8, ptr %0, i64 8, !dbg !2191
  %25 = load i32, ptr %24, align 8, !dbg !2191
  %26 = insertvalue { ptr, i32 } poison, ptr %23, 0, !dbg !2191
  %27 = insertvalue { ptr, i32 } %26, i32 %25, 1, !dbg !2191
  resume { ptr, i32 } %27, !dbg !2191
}

; Function Attrs: nonlazybind uwtable
define internal { i64, ptr } @_ZN10serde_json2de10from_trait17hea9cf6de3a08e949E(ptr align 8 %read) unnamed_addr #0 personality ptr @rust_eh_personality !dbg !2194 {
start:
  %err.dbg.spill4 = alloca [8 x i8], align 8
  %err.dbg.spill = alloca [8 x i8], align 8
  %value.dbg.spill = alloca [8 x i8], align 8
  %val.dbg.spill1 = alloca [8 x i8], align 8
  %0 = alloca [16 x i8], align 8
  %val.dbg.spill = alloca [0 x i8], align 1
  %_9 = alloca [8 x i8], align 8
  %_4 = alloca [16 x i8], align 8
  %de = alloca [56 x i8], align 8
  %_0 = alloca [16 x i8], align 8
    #dbg_declare(ptr %read, !2212, !DIExpression(), !2226)
    #dbg_declare(ptr %de, !2213, !DIExpression(), !2227)
    #dbg_declare(ptr %val.dbg.spill, !2221, !DIExpression(), !2228)
  call void @"_ZN10serde_json2de21Deserializer$LT$R$GT$3new17h20653f96c2617eafE"(ptr sret([56 x i8]) align 8 %de, ptr align 8 %read), !dbg !2229
  %1 = invoke { i64, ptr } @"_ZN11OpenFaaSRPC1_93_$LT$impl$u20$serde..de..Deserialize$u20$for$u20$OpenFaaSRPC..SocialGraphGetFollowersArgs$GT$11deserialize17h61af39748639d751E"(ptr align 8 %de)
          to label %bb2 unwind label %cleanup, !dbg !2230

bb12:                                             ; preds = %bb11, %cleanup
  invoke void @"_ZN4core3ptr82drop_in_place$LT$serde_json..de..Deserializer$LT$serde_json..read..StrRead$GT$$GT$17hd4d2921e2d68d455E"(ptr align 8 %de) #23
          to label %bb13 unwind label %terminate, !dbg !2231

cleanup:                                          ; preds = %start
  %2 = landingpad { ptr, i32 }
          cleanup
  %3 = extractvalue { ptr, i32 } %2, 0
  %4 = extractvalue { ptr, i32 } %2, 1
  store ptr %3, ptr %0, align 8
  %5 = getelementptr inbounds i8, ptr %0, i64 8
  store i32 %4, ptr %5, align 8
  br label %bb12

bb2:                                              ; preds = %start
  %6 = extractvalue { i64, ptr } %1, 0, !dbg !2230
  %7 = extractvalue { i64, ptr } %1, 1, !dbg !2230
  store i64 %6, ptr %_4, align 8, !dbg !2230
  %8 = getelementptr inbounds i8, ptr %_4, i64 8, !dbg !2230
  store ptr %7, ptr %8, align 8, !dbg !2230
  %_6 = load i64, ptr %_4, align 8, !dbg !2230
  %9 = icmp eq i64 %_6, 0, !dbg !2232
  br i1 %9, label %bb5, label %bb4, !dbg !2232

bb5:                                              ; preds = %bb2
  %10 = getelementptr inbounds i8, ptr %_4, i64 8, !dbg !2234
  %val = load i64, ptr %10, align 8, !dbg !2234
  store i64 %val, ptr %val.dbg.spill1, align 8, !dbg !2234
    #dbg_declare(ptr %val.dbg.spill1, !2217, !DIExpression(), !2235)
  store i64 %val, ptr %value.dbg.spill, align 8, !dbg !2236
    #dbg_declare(ptr %value.dbg.spill, !2215, !DIExpression(), !2237)
  %11 = invoke align 8 ptr @"_ZN10serde_json2de21Deserializer$LT$R$GT$3end17hab94ed96c79b763eE"(ptr align 8 %de)
          to label %bb6 unwind label %cleanup2, !dbg !2238

bb4:                                              ; preds = %bb2
  %12 = getelementptr inbounds i8, ptr %_4, i64 8, !dbg !2239
  %err3 = load ptr, ptr %12, align 8, !dbg !2239
  store ptr %err3, ptr %err.dbg.spill4, align 8, !dbg !2239
    #dbg_declare(ptr %err.dbg.spill4, !2219, !DIExpression(), !2240)
  %13 = getelementptr inbounds i8, ptr %_0, i64 8, !dbg !2241
  store ptr %err3, ptr %13, align 8, !dbg !2241
  store i64 1, ptr %_0, align 8, !dbg !2241
  br label %bb9, !dbg !2242

bb11:                                             ; preds = %cleanup2
  br label %bb12, !dbg !2244

cleanup2:                                         ; preds = %bb5
  %14 = landingpad { ptr, i32 }
          cleanup
  %15 = extractvalue { ptr, i32 } %14, 0
  %16 = extractvalue { ptr, i32 } %14, 1
  store ptr %15, ptr %0, align 8
  %17 = getelementptr inbounds i8, ptr %0, i64 8
  store i32 %16, ptr %17, align 8
  br label %bb11

bb6:                                              ; preds = %bb5
  store ptr %11, ptr %_9, align 8, !dbg !2238
  %18 = load ptr, ptr %_9, align 8, !dbg !2238
  %19 = ptrtoint ptr %18 to i64, !dbg !2238
  %20 = icmp eq i64 %19, 0, !dbg !2238
  %_11 = select i1 %20, i64 0, i64 1, !dbg !2238
  %21 = icmp eq i64 %_11, 0, !dbg !2245
  br i1 %21, label %bb8, label %bb7, !dbg !2245

bb8:                                              ; preds = %bb6
  %22 = getelementptr inbounds i8, ptr %_0, i64 8, !dbg !2247
  store i64 %val, ptr %22, align 8, !dbg !2247
  store i64 0, ptr %_0, align 8, !dbg !2247
  call void @"_ZN4core3ptr82drop_in_place$LT$serde_json..de..Deserializer$LT$serde_json..read..StrRead$GT$$GT$17hd4d2921e2d68d455E"(ptr align 8 %de), !dbg !2231
  br label %bb10, !dbg !2231

bb7:                                              ; preds = %bb6
  %err = load ptr, ptr %_9, align 8, !dbg !2248
  store ptr %err, ptr %err.dbg.spill, align 8, !dbg !2248
    #dbg_declare(ptr %err.dbg.spill, !2223, !DIExpression(), !2249)
  %23 = getelementptr inbounds i8, ptr %_0, i64 8, !dbg !2250
  store ptr %err, ptr %23, align 8, !dbg !2250
  store i64 1, ptr %_0, align 8, !dbg !2250
  br label %bb9, !dbg !2244

bb10:                                             ; preds = %bb9, %bb8
  %24 = load i64, ptr %_0, align 8, !dbg !2251
  %25 = getelementptr inbounds i8, ptr %_0, i64 8, !dbg !2251
  %26 = load ptr, ptr %25, align 8, !dbg !2251
  %27 = insertvalue { i64, ptr } poison, i64 %24, 0, !dbg !2251
  %28 = insertvalue { i64, ptr } %27, ptr %26, 1, !dbg !2251
  ret { i64, ptr } %28, !dbg !2251

bb9:                                              ; preds = %bb7, %bb4
  call void @"_ZN4core3ptr82drop_in_place$LT$serde_json..de..Deserializer$LT$serde_json..read..StrRead$GT$$GT$17hd4d2921e2d68d455E"(ptr align 8 %de), !dbg !2231
  br label %bb10, !dbg !2231

bb3:                                              ; No predecessors!
  unreachable, !dbg !2252

terminate:                                        ; preds = %bb12
  %29 = landingpad { ptr, i32 }
          filter [0 x ptr] zeroinitializer
  %30 = extractvalue { ptr, i32 } %29, 0
  %31 = extractvalue { ptr, i32 } %29, 1
  call void @_ZN4core9panicking16panic_in_cleanup17hdb19dc6496e5af6eE() #24, !dbg !2254
  unreachable, !dbg !2254

bb13:                                             ; preds = %bb12
  %32 = load ptr, ptr %0, align 8, !dbg !2254
  %33 = getelementptr inbounds i8, ptr %0, i64 8, !dbg !2254
  %34 = load i32, ptr %33, align 8, !dbg !2254
  %35 = insertvalue { ptr, i32 } poison, ptr %32, 0, !dbg !2254
  %36 = insertvalue { ptr, i32 } %35, i32 %34, 1, !dbg !2254
  resume { ptr, i32 } %36, !dbg !2254
}

; Function Attrs: nonlazybind uwtable
define internal { i64, ptr } @_ZN10serde_json2de12ParserNumber5visit17h49abb4f22bb0ee8aE(ptr align 8 %self) unnamed_addr #0 !dbg !2255 {
start:
  %x.dbg.spill4 = alloca [8 x i8], align 8
  %x.dbg.spill2 = alloca [8 x i8], align 8
  %x.dbg.spill = alloca [8 x i8], align 8
  %visitor.dbg.spill = alloca [0 x i8], align 1
  %_0 = alloca [16 x i8], align 8
    #dbg_declare(ptr %self, !2294, !DIExpression(), !2302)
    #dbg_declare(ptr %visitor.dbg.spill, !2295, !DIExpression(), !2303)
  %_3 = load i64, ptr %self, align 8, !dbg !2304
  switch i64 %_3, label %bb1 [
    i64 0, label %bb4
    i64 1, label %bb3
    i64 2, label %bb2
  ], !dbg !2305

bb1:                                              ; preds = %start
  unreachable, !dbg !2304

bb4:                                              ; preds = %start
  %0 = getelementptr inbounds i8, ptr %self, i64 8, !dbg !2306
  %x = load double, ptr %0, align 8, !dbg !2306
  store double %x, ptr %x.dbg.spill, align 8, !dbg !2306
    #dbg_declare(ptr %x.dbg.spill, !2296, !DIExpression(), !2307)
  %1 = call { i64, ptr } @_ZN5serde2de7Visitor9visit_f6417h82080757ee536dbcE(double %x), !dbg !2308
  %2 = extractvalue { i64, ptr } %1, 0, !dbg !2308
  %3 = extractvalue { i64, ptr } %1, 1, !dbg !2308
  store i64 %2, ptr %_0, align 8, !dbg !2308
  %4 = getelementptr inbounds i8, ptr %_0, i64 8, !dbg !2308
  store ptr %3, ptr %4, align 8, !dbg !2308
  br label %bb5, !dbg !2308

bb3:                                              ; preds = %start
  %5 = getelementptr inbounds i8, ptr %self, i64 8, !dbg !2309
  %x1 = load i64, ptr %5, align 8, !dbg !2309
  store i64 %x1, ptr %x.dbg.spill2, align 8, !dbg !2309
    #dbg_declare(ptr %x.dbg.spill2, !2298, !DIExpression(), !2310)
  %6 = call { i64, ptr } @"_ZN143_$LT$serde..de..impls..$LT$impl$u20$serde..de..Deserialize$u20$for$u20$i64$GT$..deserialize..PrimitiveVisitor$u20$as$u20$serde..de..Visitor$GT$9visit_u6417hc2c647441bdacd86E"(i64 %x1), !dbg !2311
  %7 = extractvalue { i64, ptr } %6, 0, !dbg !2311
  %8 = extractvalue { i64, ptr } %6, 1, !dbg !2311
  store i64 %7, ptr %_0, align 8, !dbg !2311
  %9 = getelementptr inbounds i8, ptr %_0, i64 8, !dbg !2311
  store ptr %8, ptr %9, align 8, !dbg !2311
  br label %bb5, !dbg !2311

bb2:                                              ; preds = %start
  %10 = getelementptr inbounds i8, ptr %self, i64 8, !dbg !2312
  %x3 = load i64, ptr %10, align 8, !dbg !2312
  store i64 %x3, ptr %x.dbg.spill4, align 8, !dbg !2312
    #dbg_declare(ptr %x.dbg.spill4, !2300, !DIExpression(), !2313)
  %11 = call { i64, ptr } @"_ZN143_$LT$serde..de..impls..$LT$impl$u20$serde..de..Deserialize$u20$for$u20$i64$GT$..deserialize..PrimitiveVisitor$u20$as$u20$serde..de..Visitor$GT$9visit_i6417hfddc5f24b94f0de1E"(i64 %x3), !dbg !2314
  %12 = extractvalue { i64, ptr } %11, 0, !dbg !2314
  %13 = extractvalue { i64, ptr } %11, 1, !dbg !2314
  store i64 %12, ptr %_0, align 8, !dbg !2314
  %14 = getelementptr inbounds i8, ptr %_0, i64 8, !dbg !2314
  store ptr %13, ptr %14, align 8, !dbg !2314
  br label %bb5, !dbg !2314

bb5:                                              ; preds = %bb2, %bb3, %bb4
  %15 = load i64, ptr %_0, align 8, !dbg !2315
  %16 = getelementptr inbounds i8, ptr %_0, i64 8, !dbg !2315
  %17 = load ptr, ptr %16, align 8, !dbg !2315
  %18 = insertvalue { i64, ptr } poison, i64 %15, 0, !dbg !2315
  %19 = insertvalue { i64, ptr } %18, ptr %17, 1, !dbg !2315
  ret { i64, ptr } %19, !dbg !2315
}

; Function Attrs: nonlazybind uwtable
define internal { i64, ptr } @"_ZN10serde_json2de21Deserializer$LT$R$GT$18deserialize_number17ha550b8b4a3a1c16fE"(ptr align 8 %self) unnamed_addr #0 personality ptr @rust_eh_personality !dbg !2316 {
start:
  %err.dbg.spill9 = alloca [8 x i8], align 8
  %err.dbg.spill7 = alloca [8 x i8], align 8
  %err.dbg.spill5 = alloca [8 x i8], align 8
  %value.dbg.spill = alloca [8 x i8], align 8
  %err.dbg.spill = alloca [8 x i8], align 8
  %peek.dbg.spill = alloca [1 x i8], align 1
  %0 = alloca [16 x i8], align 8
  %self.dbg.spill = alloca [8 x i8], align 8
  %_34 = alloca [1 x i8], align 1
  %val2 = alloca [16 x i8], align 8
  %_21 = alloca [16 x i8], align 8
  %val1 = alloca [16 x i8], align 8
  %_16 = alloca [16 x i8], align 8
  %value = alloca [16 x i8], align 8
  %_11 = alloca [24 x i8], align 8
  %val = alloca [2 x i8], align 1
  %_3 = alloca [16 x i8], align 8
  %_0 = alloca [16 x i8], align 8
  %visitor = alloca [0 x i8], align 1
  store ptr %self, ptr %self.dbg.spill, align 8
    #dbg_declare(ptr %self.dbg.spill, !2323, !DIExpression(), !2347)
    #dbg_declare(ptr %visitor, !2324, !DIExpression(), !2348)
    #dbg_declare(ptr %val, !2327, !DIExpression(), !2349)
    #dbg_declare(ptr %value, !2333, !DIExpression(), !2350)
    #dbg_declare(ptr %val1, !2335, !DIExpression(), !2351)
    #dbg_declare(ptr %val2, !2339, !DIExpression(), !2352)
  store i8 0, ptr %_34, align 1, !dbg !2353
  store i8 1, ptr %_34, align 1, !dbg !2353
  invoke void @"_ZN10serde_json2de21Deserializer$LT$R$GT$16parse_whitespace17hd3201d22bc7fb250E"(ptr sret([16 x i8]) align 8 %_3, ptr align 8 %self)
          to label %bb1 unwind label %cleanup, !dbg !2354

bb31:                                             ; preds = %cleanup
  %1 = load i8, ptr %_34, align 1, !dbg !2355
  %2 = trunc i8 %1 to i1, !dbg !2355
  br i1 %2, label %bb30, label %bb28, !dbg !2355

cleanup:                                          ; preds = %bb22, %bb19, %bb10, %bb8, %bb16, %bb13, %bb12, %bb5, %start
  %3 = landingpad { ptr, i32 }
          cleanup
  %4 = extractvalue { ptr, i32 } %3, 0
  %5 = extractvalue { ptr, i32 } %3, 1
  store ptr %4, ptr %0, align 8
  %6 = getelementptr inbounds i8, ptr %0, i64 8
  store i32 %5, ptr %6, align 8
  br label %bb31

bb1:                                              ; preds = %start
  %7 = load i8, ptr %_3, align 8, !dbg !2354
  %8 = trunc i8 %7 to i1, !dbg !2354
  %_4 = zext i1 %8 to i64, !dbg !2354
  %9 = icmp eq i64 %_4, 0, !dbg !2356
  br i1 %9, label %bb4, label %bb3, !dbg !2356

bb4:                                              ; preds = %bb1
  %10 = getelementptr inbounds i8, ptr %_3, i64 1, !dbg !2358
  %11 = load i8, ptr %10, align 1, !dbg !2358
  %12 = trunc i8 %11 to i1, !dbg !2358
  %13 = getelementptr inbounds i8, ptr %10, i64 1, !dbg !2358
  %14 = load i8, ptr %13, align 1, !dbg !2358
  %15 = zext i1 %12 to i8, !dbg !2358
  store i8 %15, ptr %val, align 1, !dbg !2358
  %16 = getelementptr inbounds i8, ptr %val, i64 1, !dbg !2358
  store i8 %14, ptr %16, align 1, !dbg !2358
  %17 = load i8, ptr %val, align 1, !dbg !2356
  %18 = trunc i8 %17 to i1, !dbg !2356
  %_7 = zext i1 %18 to i64, !dbg !2356
  %19 = icmp eq i64 %_7, 0, !dbg !2356
  br i1 %19, label %bb5, label %bb6, !dbg !2356

bb3:                                              ; preds = %bb1
  %20 = getelementptr inbounds i8, ptr %_3, i64 8, !dbg !2359
  %err8 = load ptr, ptr %20, align 8, !dbg !2359
  store ptr %err8, ptr %err.dbg.spill9, align 8, !dbg !2359
    #dbg_declare(ptr %err.dbg.spill9, !2329, !DIExpression(), !2360)
  %21 = getelementptr inbounds i8, ptr %_0, i64 8, !dbg !2361
  store ptr %err8, ptr %21, align 8, !dbg !2361
  store i64 1, ptr %_0, align 8, !dbg !2361
  br label %bb26, !dbg !2362

bb5:                                              ; preds = %bb4
  store i64 5, ptr %_11, align 8, !dbg !2364
  %_9 = invoke align 8 ptr @"_ZN10serde_json2de21Deserializer$LT$R$GT$10peek_error17h254393f814fb614aE"(ptr align 8 %self, ptr align 8 %_11)
          to label %bb7 unwind label %cleanup, !dbg !2365

bb6:                                              ; preds = %bb4
  %22 = getelementptr inbounds i8, ptr %val, i64 1, !dbg !2366
  %peek = load i8, ptr %22, align 1, !dbg !2366
  store i8 %peek, ptr %peek.dbg.spill, align 1, !dbg !2366
    #dbg_declare(ptr %peek.dbg.spill, !2325, !DIExpression(), !2367)
    #dbg_declare(ptr %peek.dbg.spill, !2331, !DIExpression(), !2368)
  %23 = icmp eq i8 %peek, 45, !dbg !2369
  br i1 %23, label %bb12, label %bb9, !dbg !2369

bb7:                                              ; preds = %bb5
  %24 = getelementptr inbounds i8, ptr %_0, i64 8, !dbg !2370
  store ptr %_9, ptr %24, align 8, !dbg !2370
  store i64 1, ptr %_0, align 8, !dbg !2370
  br label %bb26, !dbg !2371

bb26:                                             ; preds = %bb18, %bb15, %bb7, %bb3
  br label %bb27, !dbg !2355

bb12:                                             ; preds = %bb6
  invoke void @"_ZN10serde_json2de21Deserializer$LT$R$GT$8eat_char17he18110e32bb8ddb0E"(ptr align 8 %self)
          to label %bb13 unwind label %cleanup, !dbg !2372

bb9:                                              ; preds = %bb6
  %_13 = icmp ule i8 48, %peek, !dbg !2373
  br i1 %_13, label %bb11, label %bb8, !dbg !2373

bb13:                                             ; preds = %bb12
  invoke void @"_ZN10serde_json2de21Deserializer$LT$R$GT$13parse_integer17h107606ab8d42d5c7E"(ptr sret([16 x i8]) align 8 %_16, ptr align 8 %self, i1 zeroext false)
          to label %bb14 unwind label %cleanup, !dbg !2374

bb14:                                             ; preds = %bb13
  %25 = load i64, ptr %_16, align 8, !dbg !2374
  %26 = icmp eq i64 %25, 3, !dbg !2374
  %_17 = select i1 %26, i64 1, i64 0, !dbg !2374
  %27 = icmp eq i64 %_17, 0, !dbg !2375
  br i1 %27, label %bb16, label %bb15, !dbg !2375

bb16:                                             ; preds = %bb14
  call void @llvm.memcpy.p0.p0.i64(ptr align 8 %val1, ptr align 8 %_16, i64 16, i1 false), !dbg !2377
  store i8 0, ptr %_34, align 1, !dbg !2378
  %28 = invoke { i64, ptr } @_ZN10serde_json2de12ParserNumber5visit17h49abb4f22bb0ee8aE(ptr align 8 %val1)
          to label %bb32 unwind label %cleanup, !dbg !2379

bb15:                                             ; preds = %bb14
  %29 = getelementptr inbounds i8, ptr %_16, i64 8, !dbg !2380
  %err = load ptr, ptr %29, align 8, !dbg !2380
  store ptr %err, ptr %err.dbg.spill, align 8, !dbg !2380
    #dbg_declare(ptr %err.dbg.spill, !2337, !DIExpression(), !2381)
  %30 = getelementptr inbounds i8, ptr %_0, i64 8, !dbg !2382
  store ptr %err, ptr %30, align 8, !dbg !2382
  store i64 1, ptr %_0, align 8, !dbg !2382
  br label %bb26, !dbg !2383

bb32:                                             ; preds = %bb16
  %31 = extractvalue { i64, ptr } %28, 0, !dbg !2379
  %32 = extractvalue { i64, ptr } %28, 1, !dbg !2379
  store i64 %31, ptr %value, align 8, !dbg !2379
  %33 = getelementptr inbounds i8, ptr %value, i64 8, !dbg !2379
  store ptr %32, ptr %33, align 8, !dbg !2379
  br label %bb21, !dbg !2379

bb21:                                             ; preds = %bb33, %bb20, %bb32
  %_29 = load i64, ptr %value, align 8, !dbg !2385
  %34 = icmp eq i64 %_29, 0, !dbg !2386
  br i1 %34, label %bb23, label %bb22, !dbg !2386

bb8:                                              ; preds = %bb11, %bb9
  %_26 = invoke align 8 ptr @"_ZN10serde_json2de21Deserializer$LT$R$GT$17peek_invalid_type17hfc8b4f1f807640aaE"(ptr align 8 %self, ptr align 1 %visitor, ptr align 8 @vtable.0)
          to label %bb20 unwind label %cleanup, !dbg !2387

bb11:                                             ; preds = %bb9
  %_14 = icmp ule i8 %peek, 57, !dbg !2373
  br i1 %_14, label %bb10, label %bb8, !dbg !2373

bb10:                                             ; preds = %bb11
  invoke void @"_ZN10serde_json2de21Deserializer$LT$R$GT$13parse_integer17h107606ab8d42d5c7E"(ptr sret([16 x i8]) align 8 %_21, ptr align 8 %self, i1 zeroext true)
          to label %bb17 unwind label %cleanup, !dbg !2388

bb20:                                             ; preds = %bb8
  %35 = getelementptr inbounds i8, ptr %value, i64 8, !dbg !2389
  store ptr %_26, ptr %35, align 8, !dbg !2389
  store i64 1, ptr %value, align 8, !dbg !2389
  br label %bb21, !dbg !2390

bb17:                                             ; preds = %bb10
  %36 = load i64, ptr %_21, align 8, !dbg !2388
  %37 = icmp eq i64 %36, 3, !dbg !2388
  %_22 = select i1 %37, i64 1, i64 0, !dbg !2388
  %38 = icmp eq i64 %_22, 0, !dbg !2375
  br i1 %38, label %bb19, label %bb18, !dbg !2375

bb19:                                             ; preds = %bb17
  call void @llvm.memcpy.p0.p0.i64(ptr align 8 %val2, ptr align 8 %_21, i64 16, i1 false), !dbg !2377
  store i8 0, ptr %_34, align 1, !dbg !2391
  %39 = invoke { i64, ptr } @_ZN10serde_json2de12ParserNumber5visit17h49abb4f22bb0ee8aE(ptr align 8 %val2)
          to label %bb33 unwind label %cleanup, !dbg !2392

bb18:                                             ; preds = %bb17
  %40 = getelementptr inbounds i8, ptr %_21, i64 8, !dbg !2380
  %err6 = load ptr, ptr %40, align 8, !dbg !2380
  store ptr %err6, ptr %err.dbg.spill7, align 8, !dbg !2380
    #dbg_declare(ptr %err.dbg.spill7, !2341, !DIExpression(), !2393)
  %41 = getelementptr inbounds i8, ptr %_0, i64 8, !dbg !2394
  store ptr %err6, ptr %41, align 8, !dbg !2394
  store i64 1, ptr %_0, align 8, !dbg !2394
  br label %bb26, !dbg !2383

bb33:                                             ; preds = %bb19
  %42 = extractvalue { i64, ptr } %39, 0, !dbg !2392
  %43 = extractvalue { i64, ptr } %39, 1, !dbg !2392
  store i64 %42, ptr %value, align 8, !dbg !2392
  %44 = getelementptr inbounds i8, ptr %value, i64 8, !dbg !2392
  store ptr %43, ptr %44, align 8, !dbg !2392
  br label %bb21, !dbg !2392

bb23:                                             ; preds = %bb21
  %45 = getelementptr inbounds i8, ptr %value, i64 8, !dbg !2395
  %value3 = load i64, ptr %45, align 8, !dbg !2395
  store i64 %value3, ptr %value.dbg.spill, align 8, !dbg !2395
    #dbg_declare(ptr %value.dbg.spill, !2343, !DIExpression(), !2396)
  %46 = getelementptr inbounds i8, ptr %_0, i64 8, !dbg !2397
  store i64 %value3, ptr %46, align 8, !dbg !2397
  store i64 0, ptr %_0, align 8, !dbg !2397
  br label %bb25, !dbg !2398

bb22:                                             ; preds = %bb21
  %47 = getelementptr inbounds i8, ptr %value, i64 8, !dbg !2399
  %err4 = load ptr, ptr %47, align 8, !dbg !2399
  store ptr %err4, ptr %err.dbg.spill5, align 8, !dbg !2399
    #dbg_declare(ptr %err.dbg.spill5, !2345, !DIExpression(), !2400)
  %_32 = invoke align 8 ptr @"_ZN10serde_json2de21Deserializer$LT$R$GT$12fix_position17h7bc38fc61fafcbf3E"(ptr align 8 %self, ptr align 8 %err4)
          to label %bb24 unwind label %cleanup, !dbg !2401

bb25:                                             ; preds = %bb24, %bb23
  %48 = load i8, ptr %_34, align 1, !dbg !2355
  %49 = trunc i8 %48 to i1, !dbg !2355
  br i1 %49, label %bb29, label %bb27, !dbg !2355

bb24:                                             ; preds = %bb22
  %50 = getelementptr inbounds i8, ptr %_0, i64 8, !dbg !2402
  store ptr %_32, ptr %50, align 8, !dbg !2402
  store i64 1, ptr %_0, align 8, !dbg !2402
  br label %bb25, !dbg !2403

bb27:                                             ; preds = %bb29, %bb25, %bb26
  %51 = load i64, ptr %_0, align 8, !dbg !2404
  %52 = getelementptr inbounds i8, ptr %_0, i64 8, !dbg !2404
  %53 = load ptr, ptr %52, align 8, !dbg !2404
  %54 = insertvalue { i64, ptr } poison, i64 %51, 0, !dbg !2404
  %55 = insertvalue { i64, ptr } %54, ptr %53, 1, !dbg !2404
  ret { i64, ptr } %55, !dbg !2404

bb29:                                             ; preds = %bb25
  br label %bb27, !dbg !2355

bb2:                                              ; No predecessors!
  unreachable, !dbg !2362

bb28:                                             ; preds = %bb30, %bb31
  %56 = load ptr, ptr %0, align 8, !dbg !2405
  %57 = getelementptr inbounds i8, ptr %0, i64 8, !dbg !2405
  %58 = load i32, ptr %57, align 8, !dbg !2405
  %59 = insertvalue { ptr, i32 } poison, ptr %56, 0, !dbg !2405
  %60 = insertvalue { ptr, i32 } %59, i32 %58, 1, !dbg !2405
  resume { ptr, i32 } %60, !dbg !2405

bb30:                                             ; preds = %bb31
  br label %bb28, !dbg !2355
}

; Function Attrs: nonlazybind uwtable
define internal { i64, ptr } @_ZN10serde_json2de8from_str17ha386578da2a3ba7fE(ptr align 1 %s.0, i64 %s.1) unnamed_addr #0 !dbg !2406 {
start:
  %s.dbg.spill = alloca [16 x i8], align 8
  %_2 = alloca [24 x i8], align 8
  store ptr %s.0, ptr %s.dbg.spill, align 8
  %0 = getelementptr inbounds i8, ptr %s.dbg.spill, i64 8
  store i64 %s.1, ptr %0, align 8
    #dbg_declare(ptr %s.dbg.spill, !2410, !DIExpression(), !2411)
  call void @_ZN10serde_json4read7StrRead3new17h8a539594df39b967E(ptr sret([24 x i8]) align 8 %_2, ptr align 1 %s.0, i64 %s.1), !dbg !2412
  %1 = call { i64, ptr } @_ZN10serde_json2de10from_trait17hea9cf6de3a08e949E(ptr align 8 %_2), !dbg !2413
  %_0.0 = extractvalue { i64, ptr } %1, 0, !dbg !2413
  %_0.1 = extractvalue { i64, ptr } %1, 1, !dbg !2413
  %2 = insertvalue { i64, ptr } poison, i64 %_0.0, 0, !dbg !2414
  %3 = insertvalue { i64, ptr } %2, ptr %_0.1, 1, !dbg !2414
  ret { i64, ptr } %3, !dbg !2414
}

; Function Attrs: nonlazybind uwtable
define internal void @_ZN10serde_json2de8from_str17hf543eebe83e0b302E(ptr sret([24 x i8]) align 8 %_0, ptr align 1 %s.0, i64 %s.1) unnamed_addr #0 !dbg !2415 {
start:
  %s.dbg.spill = alloca [16 x i8], align 8
  %_2 = alloca [24 x i8], align 8
  store ptr %s.0, ptr %s.dbg.spill, align 8
  %0 = getelementptr inbounds i8, ptr %s.dbg.spill, i64 8
  store i64 %s.1, ptr %0, align 8
    #dbg_declare(ptr %s.dbg.spill, !2419, !DIExpression(), !2421)
  call void @_ZN10serde_json4read7StrRead3new17h8a539594df39b967E(ptr sret([24 x i8]) align 8 %_2, ptr align 1 %s.0, i64 %s.1), !dbg !2422
  call void @_ZN10serde_json2de10from_trait17h4417e7b74ff46369E(ptr sret([24 x i8]) align 8 %_0, ptr align 8 %_2), !dbg !2423
  ret void, !dbg !2424
}

; Function Attrs: inlinehint nonlazybind uwtable
define internal void @_ZN10serde_json3ser6to_vec17h316921ce6aaae6d2E(ptr sret([24 x i8]) align 8 %_0, ptr align 8 %value) unnamed_addr #1 personality ptr @rust_eh_personality !dbg !2425 {
start:
  %err.dbg.spill = alloca [8 x i8], align 8
  %0 = alloca [16 x i8], align 8
  %val.dbg.spill = alloca [0 x i8], align 1
  %value.dbg.spill = alloca [8 x i8], align 8
  %_7 = alloca [24 x i8], align 8
  %_3 = alloca [8 x i8], align 8
  %writer = alloca [24 x i8], align 8
  store ptr %value, ptr %value.dbg.spill, align 8
    #dbg_declare(ptr %value.dbg.spill, !2446, !DIExpression(), !2453)
    #dbg_declare(ptr %writer, !2447, !DIExpression(), !2454)
    #dbg_declare(ptr %val.dbg.spill, !2449, !DIExpression(), !2455)
  call void @"_ZN5alloc3vec12Vec$LT$T$GT$13with_capacity17h22ec58aa2fbb2066E"(ptr sret([24 x i8]) align 8 %writer, i64 128, ptr align 8 @alloc_ae52e422ab29884b58622d79788975fe), !dbg !2456
  %1 = invoke align 8 ptr @_ZN10serde_json3ser9to_writer17h99b661ced2463cc9E(ptr align 8 %writer, ptr align 8 %value)
          to label %bb2 unwind label %cleanup, !dbg !2457

bb7:                                              ; preds = %cleanup
  invoke void @"_ZN4core3ptr46drop_in_place$LT$alloc..vec..Vec$LT$u8$GT$$GT$17h1e425b946ab324c0E"(ptr align 8 %writer) #23
          to label %bb8 unwind label %terminate, !dbg !2458

cleanup:                                          ; preds = %start
  %2 = landingpad { ptr, i32 }
          cleanup
  %3 = extractvalue { ptr, i32 } %2, 0
  %4 = extractvalue { ptr, i32 } %2, 1
  store ptr %3, ptr %0, align 8
  %5 = getelementptr inbounds i8, ptr %0, i64 8
  store i32 %4, ptr %5, align 8
  br label %bb7

bb2:                                              ; preds = %start
  store ptr %1, ptr %_3, align 8, !dbg !2457
  %6 = load ptr, ptr %_3, align 8, !dbg !2457
  %7 = ptrtoint ptr %6 to i64, !dbg !2457
  %8 = icmp eq i64 %7, 0, !dbg !2457
  %_5 = select i1 %8, i64 0, i64 1, !dbg !2457
  %9 = icmp eq i64 %_5, 0, !dbg !2459
  br i1 %9, label %bb5, label %bb4, !dbg !2459

bb5:                                              ; preds = %bb2
  call void @llvm.memcpy.p0.p0.i64(ptr align 8 %_7, ptr align 8 %writer, i64 24, i1 false), !dbg !2461
  call void @llvm.memcpy.p0.p0.i64(ptr align 8 %_0, ptr align 8 %_7, i64 24, i1 false), !dbg !2462
  br label %bb6, !dbg !2463

bb4:                                              ; preds = %bb2
  %err = load ptr, ptr %_3, align 8, !dbg !2464
  store ptr %err, ptr %err.dbg.spill, align 8, !dbg !2464
    #dbg_declare(ptr %err.dbg.spill, !2451, !DIExpression(), !2465)
  %10 = getelementptr inbounds i8, ptr %_0, i64 8, !dbg !2466
  store ptr %err, ptr %10, align 8, !dbg !2466
  store i64 -9223372036854775808, ptr %_0, align 8, !dbg !2466
  call void @"_ZN4core3ptr46drop_in_place$LT$alloc..vec..Vec$LT$u8$GT$$GT$17h1e425b946ab324c0E"(ptr align 8 %writer), !dbg !2458
  br label %bb6, !dbg !2458

bb6:                                              ; preds = %bb4, %bb5
  ret void, !dbg !2463

bb3:                                              ; No predecessors!
  unreachable, !dbg !2457

terminate:                                        ; preds = %bb7
  %11 = landingpad { ptr, i32 }
          filter [0 x ptr] zeroinitializer
  %12 = extractvalue { ptr, i32 } %11, 0
  %13 = extractvalue { ptr, i32 } %11, 1
  call void @_ZN4core9panicking16panic_in_cleanup17hdb19dc6496e5af6eE() #24, !dbg !2467
  unreachable, !dbg !2467

bb8:                                              ; preds = %bb7
  %14 = load ptr, ptr %0, align 8, !dbg !2467
  %15 = getelementptr inbounds i8, ptr %0, i64 8, !dbg !2467
  %16 = load i32, ptr %15, align 8, !dbg !2467
  %17 = insertvalue { ptr, i32 } poison, ptr %14, 0, !dbg !2467
  %18 = insertvalue { ptr, i32 } %17, i32 %16, 1, !dbg !2467
  resume { ptr, i32 } %18, !dbg !2467
}

; Function Attrs: inlinehint nonlazybind uwtable
define internal void @_ZN10serde_json3ser6to_vec17h3bd0330eeb207785E(ptr sret([24 x i8]) align 8 %_0, ptr align 8 %value) unnamed_addr #1 personality ptr @rust_eh_personality !dbg !2468 {
start:
  %err.dbg.spill = alloca [8 x i8], align 8
  %0 = alloca [16 x i8], align 8
  %val.dbg.spill = alloca [0 x i8], align 1
  %value.dbg.spill = alloca [8 x i8], align 8
  %_7 = alloca [24 x i8], align 8
  %_3 = alloca [8 x i8], align 8
  %writer = alloca [24 x i8], align 8
  store ptr %value, ptr %value.dbg.spill, align 8
    #dbg_declare(ptr %value.dbg.spill, !2483, !DIExpression(), !2492)
    #dbg_declare(ptr %writer, !2484, !DIExpression(), !2493)
    #dbg_declare(ptr %val.dbg.spill, !2486, !DIExpression(), !2494)
  call void @"_ZN5alloc3vec12Vec$LT$T$GT$13with_capacity17h22ec58aa2fbb2066E"(ptr sret([24 x i8]) align 8 %writer, i64 128, ptr align 8 @alloc_ae52e422ab29884b58622d79788975fe), !dbg !2495
  %1 = invoke align 8 ptr @_ZN10serde_json3ser9to_writer17h3bc0bf155ef6543fE(ptr align 8 %writer, ptr align 8 %value)
          to label %bb2 unwind label %cleanup, !dbg !2496

bb7:                                              ; preds = %cleanup
  invoke void @"_ZN4core3ptr46drop_in_place$LT$alloc..vec..Vec$LT$u8$GT$$GT$17h1e425b946ab324c0E"(ptr align 8 %writer) #23
          to label %bb8 unwind label %terminate, !dbg !2497

cleanup:                                          ; preds = %start
  %2 = landingpad { ptr, i32 }
          cleanup
  %3 = extractvalue { ptr, i32 } %2, 0
  %4 = extractvalue { ptr, i32 } %2, 1
  store ptr %3, ptr %0, align 8
  %5 = getelementptr inbounds i8, ptr %0, i64 8
  store i32 %4, ptr %5, align 8
  br label %bb7

bb2:                                              ; preds = %start
  store ptr %1, ptr %_3, align 8, !dbg !2496
  %6 = load ptr, ptr %_3, align 8, !dbg !2496
  %7 = ptrtoint ptr %6 to i64, !dbg !2496
  %8 = icmp eq i64 %7, 0, !dbg !2496
  %_5 = select i1 %8, i64 0, i64 1, !dbg !2496
  %9 = icmp eq i64 %_5, 0, !dbg !2498
  br i1 %9, label %bb5, label %bb4, !dbg !2498

bb5:                                              ; preds = %bb2
  call void @llvm.memcpy.p0.p0.i64(ptr align 8 %_7, ptr align 8 %writer, i64 24, i1 false), !dbg !2500
  call void @llvm.memcpy.p0.p0.i64(ptr align 8 %_0, ptr align 8 %_7, i64 24, i1 false), !dbg !2501
  br label %bb6, !dbg !2502

bb4:                                              ; preds = %bb2
  %err = load ptr, ptr %_3, align 8, !dbg !2503
  store ptr %err, ptr %err.dbg.spill, align 8, !dbg !2503
    #dbg_declare(ptr %err.dbg.spill, !2488, !DIExpression(), !2504)
  %10 = getelementptr inbounds i8, ptr %_0, i64 8, !dbg !2505
  store ptr %err, ptr %10, align 8, !dbg !2505
  store i64 -9223372036854775808, ptr %_0, align 8, !dbg !2505
  call void @"_ZN4core3ptr46drop_in_place$LT$alloc..vec..Vec$LT$u8$GT$$GT$17h1e425b946ab324c0E"(ptr align 8 %writer), !dbg !2497
  br label %bb6, !dbg !2497

bb6:                                              ; preds = %bb4, %bb5
  ret void, !dbg !2502

bb3:                                              ; No predecessors!
  unreachable, !dbg !2496

terminate:                                        ; preds = %bb7
  %11 = landingpad { ptr, i32 }
          filter [0 x ptr] zeroinitializer
  %12 = extractvalue { ptr, i32 } %11, 0
  %13 = extractvalue { ptr, i32 } %11, 1
  call void @_ZN4core9panicking16panic_in_cleanup17hdb19dc6496e5af6eE() #24, !dbg !2506
  unreachable, !dbg !2506

bb8:                                              ; preds = %bb7
  %14 = load ptr, ptr %0, align 8, !dbg !2506
  %15 = getelementptr inbounds i8, ptr %0, i64 8, !dbg !2506
  %16 = load i32, ptr %15, align 8, !dbg !2506
  %17 = insertvalue { ptr, i32 } poison, ptr %14, 0, !dbg !2506
  %18 = insertvalue { ptr, i32 } %17, i32 %16, 1, !dbg !2506
  resume { ptr, i32 } %18, !dbg !2506
}

; Function Attrs: inlinehint nonlazybind uwtable
define internal ptr @_ZN10serde_json3ser9Formatter11begin_array17h3f85eae5b622abd3E(ptr align 1 %self, ptr align 8 %writer) unnamed_addr #1 !dbg !2507 {
start:
  %writer.dbg.spill = alloca [8 x i8], align 8
  %self.dbg.spill = alloca [8 x i8], align 8
  store ptr %self, ptr %self.dbg.spill, align 8
    #dbg_declare(ptr %self.dbg.spill, !2531, !DIExpression(), !2536)
  store ptr %writer, ptr %writer.dbg.spill, align 8
    #dbg_declare(ptr %writer.dbg.spill, !2532, !DIExpression(), !2537)
  %_0 = call ptr @"_ZN3std2io5impls58_$LT$impl$u20$std..io..Write$u20$for$u20$$RF$mut$u20$W$GT$9write_all17h9a7fe3a0fe679111E"(ptr align 8 %writer, ptr align 1 @alloc_036636151bab3754536335311c8d3ab8, i64 1), !dbg !2538
  ret ptr %_0, !dbg !2539
}

; Function Attrs: inlinehint nonlazybind uwtable
define internal ptr @_ZN10serde_json3ser9Formatter15end_array_value17h5a07820cebe5e6b6E(ptr align 1 %self, ptr align 8 %_writer) unnamed_addr #1 !dbg !2540 {
start:
  %_writer.dbg.spill = alloca [8 x i8], align 8
  %self.dbg.spill = alloca [8 x i8], align 8
  %_0 = alloca [8 x i8], align 8
  store ptr %self, ptr %self.dbg.spill, align 8
    #dbg_declare(ptr %self.dbg.spill, !2542, !DIExpression(), !2544)
  store ptr %_writer, ptr %_writer.dbg.spill, align 8
    #dbg_declare(ptr %_writer.dbg.spill, !2543, !DIExpression(), !2545)
  store ptr null, ptr %_0, align 8, !dbg !2546
  %0 = load ptr, ptr %_0, align 8, !dbg !2547
  ret ptr %0, !dbg !2547
}

; Function Attrs: inlinehint nonlazybind uwtable
define internal ptr @_ZN10serde_json3ser9Formatter17begin_array_value17h2c8d41ade968fcaeE(ptr align 1 %self, ptr align 8 %writer, i1 zeroext %first) unnamed_addr #1 !dbg !2548 {
start:
  %first.dbg.spill = alloca [1 x i8], align 1
  %writer.dbg.spill = alloca [8 x i8], align 8
  %self.dbg.spill = alloca [8 x i8], align 8
  %_0 = alloca [8 x i8], align 8
  store ptr %self, ptr %self.dbg.spill, align 8
    #dbg_declare(ptr %self.dbg.spill, !2552, !DIExpression(), !2555)
  store ptr %writer, ptr %writer.dbg.spill, align 8
    #dbg_declare(ptr %writer.dbg.spill, !2553, !DIExpression(), !2556)
  %0 = zext i1 %first to i8
  store i8 %0, ptr %first.dbg.spill, align 1
    #dbg_declare(ptr %first.dbg.spill, !2554, !DIExpression(), !2557)
  br i1 %first, label %bb1, label %bb2, !dbg !2558

bb2:                                              ; preds = %start
  %1 = call ptr @"_ZN3std2io5impls58_$LT$impl$u20$std..io..Write$u20$for$u20$$RF$mut$u20$W$GT$9write_all17h9a7fe3a0fe679111E"(ptr align 8 %writer, ptr align 1 @alloc_41a776d8d06dc2b9b0480e88fa257ffe, i64 1), !dbg !2559
  store ptr %1, ptr %_0, align 8, !dbg !2559
  br label %bb3, !dbg !2559

bb1:                                              ; preds = %start
  store ptr null, ptr %_0, align 8, !dbg !2560
  br label %bb3, !dbg !2561

bb3:                                              ; preds = %bb1, %bb2
  %2 = load ptr, ptr %_0, align 8, !dbg !2562
  ret ptr %2, !dbg !2562
}

; Function Attrs: inlinehint nonlazybind uwtable
define internal ptr @_ZN10serde_json3ser9Formatter9end_array17h877ace5eaa9d7b77E(ptr align 1 %self, ptr align 8 %writer) unnamed_addr #1 !dbg !2563 {
start:
  %writer.dbg.spill = alloca [8 x i8], align 8
  %self.dbg.spill = alloca [8 x i8], align 8
  store ptr %self, ptr %self.dbg.spill, align 8
    #dbg_declare(ptr %self.dbg.spill, !2565, !DIExpression(), !2567)
  store ptr %writer, ptr %writer.dbg.spill, align 8
    #dbg_declare(ptr %writer.dbg.spill, !2566, !DIExpression(), !2568)
  %_0 = call ptr @"_ZN3std2io5impls58_$LT$impl$u20$std..io..Write$u20$for$u20$$RF$mut$u20$W$GT$9write_all17h9a7fe3a0fe679111E"(ptr align 8 %writer, ptr align 1 @alloc_7a6887ef0f93938f57a4bb958cf80311, i64 1), !dbg !2569
  ret ptr %_0, !dbg !2570
}

; Function Attrs: inlinehint nonlazybind uwtable
define internal ptr @_ZN10serde_json3ser9Formatter9write_i6417h7e6a0872af08b977E(ptr align 1 %self, ptr align 8 %writer, i64 %value) unnamed_addr #1 !dbg !2571 {
start:
  %self.dbg.spill.i = alloca [16 x i8], align 8
  %s.dbg.spill = alloca [16 x i8], align 8
  %value.dbg.spill = alloca [8 x i8], align 8
  %writer.dbg.spill = alloca [8 x i8], align 8
  %self.dbg.spill = alloca [8 x i8], align 8
  %buffer = alloca [40 x i8], align 1
  store ptr %self, ptr %self.dbg.spill, align 8
    #dbg_declare(ptr %self.dbg.spill, !2575, !DIExpression(), !2597)
  store ptr %writer, ptr %writer.dbg.spill, align 8
    #dbg_declare(ptr %writer.dbg.spill, !2576, !DIExpression(), !2598)
  store i64 %value, ptr %value.dbg.spill, align 8
    #dbg_declare(ptr %value.dbg.spill, !2577, !DIExpression(), !2599)
    #dbg_declare(ptr %buffer, !2578, !DIExpression(), !2600)
  call void @_ZN4itoa6Buffer3new17hcef8b7530d247155E(ptr sret([40 x i8]) align 1 %buffer), !dbg !2601
  %0 = call { ptr, i64 } @_ZN4itoa6Buffer6format17h1d5fa47c1e2e4648E(ptr align 1 %buffer, i64 %value), !dbg !2602
  %s.0 = extractvalue { ptr, i64 } %0, 0, !dbg !2602
  %s.1 = extractvalue { ptr, i64 } %0, 1, !dbg !2602
  store ptr %s.0, ptr %s.dbg.spill, align 8, !dbg !2602
  %1 = getelementptr inbounds i8, ptr %s.dbg.spill, i64 8, !dbg !2602
  store i64 %s.1, ptr %1, align 8, !dbg !2602
    #dbg_declare(ptr %s.dbg.spill, !2595, !DIExpression(), !2603)
  store ptr %s.0, ptr %self.dbg.spill.i, align 8
  %2 = getelementptr inbounds i8, ptr %self.dbg.spill.i, i64 8
  store i64 %s.1, ptr %2, align 8
    #dbg_declare(ptr %self.dbg.spill.i, !2604, !DIExpression(), !2611)
  %_7.0 = extractvalue { ptr, i64 } %0, 0, !dbg !2613
  %_7.1 = extractvalue { ptr, i64 } %0, 1, !dbg !2613
  %_0 = call ptr @"_ZN3std2io5impls58_$LT$impl$u20$std..io..Write$u20$for$u20$$RF$mut$u20$W$GT$9write_all17h9a7fe3a0fe679111E"(ptr align 8 %writer, ptr align 1 %_7.0, i64 %_7.1), !dbg !2614
  ret ptr %_0, !dbg !2615
}

; Function Attrs: inlinehint nonlazybind uwtable
define internal void @_ZN10serde_json3ser9to_string17h77c4616ad7a7f96aE(ptr sret([24 x i8]) align 8 %_0, ptr align 8 %value) unnamed_addr #1 personality ptr @rust_eh_personality !dbg !2616 {
start:
  %err.dbg.spill = alloca [8 x i8], align 8
  %0 = alloca [16 x i8], align 8
  %value.dbg.spill = alloca [8 x i8], align 8
  %_9 = alloca [1 x i8], align 1
  %_8 = alloca [24 x i8], align 8
  %string = alloca [24 x i8], align 8
  %val = alloca [24 x i8], align 8
  %_3 = alloca [24 x i8], align 8
  %vec = alloca [24 x i8], align 8
  store ptr %value, ptr %value.dbg.spill, align 8
    #dbg_declare(ptr %value.dbg.spill, !2634, !DIExpression(), !2643)
    #dbg_declare(ptr %vec, !2635, !DIExpression(), !2644)
    #dbg_declare(ptr %val, !2637, !DIExpression(), !2645)
    #dbg_declare(ptr %string, !2641, !DIExpression(), !2646)
  store i8 0, ptr %_9, align 1, !dbg !2647
  call void @_ZN10serde_json3ser6to_vec17h3bd0330eeb207785E(ptr sret([24 x i8]) align 8 %_3, ptr align 8 %value), !dbg !2648
  %1 = load i64, ptr %_3, align 8, !dbg !2648
  %2 = icmp eq i64 %1, -9223372036854775808, !dbg !2648
  %_4 = select i1 %2, i64 1, i64 0, !dbg !2648
  %3 = icmp eq i64 %_4, 0, !dbg !2649
  br i1 %3, label %bb4, label %bb3, !dbg !2649

bb4:                                              ; preds = %start
  call void @llvm.memcpy.p0.p0.i64(ptr align 8 %val, ptr align 8 %_3, i64 24, i1 false), !dbg !2651
  store i8 1, ptr %_9, align 1, !dbg !2652
  call void @llvm.memcpy.p0.p0.i64(ptr align 8 %vec, ptr align 8 %val, i64 24, i1 false), !dbg !2652
  store i8 0, ptr %_9, align 1, !dbg !2653
  call void @llvm.memcpy.p0.p0.i64(ptr align 8 %_8, ptr align 8 %vec, i64 24, i1 false), !dbg !2653
  invoke void @_ZN5alloc6string6String19from_utf8_unchecked17h59c5cffbba2fdcf9E(ptr sret([24 x i8]) align 8 %string, ptr align 8 %_8)
          to label %bb5 unwind label %cleanup, !dbg !2654

bb3:                                              ; preds = %start
  %4 = getelementptr inbounds i8, ptr %_3, i64 8, !dbg !2655
  %err = load ptr, ptr %4, align 8, !dbg !2655
  store ptr %err, ptr %err.dbg.spill, align 8, !dbg !2655
    #dbg_declare(ptr %err.dbg.spill, !2639, !DIExpression(), !2656)
  %5 = getelementptr inbounds i8, ptr %_0, i64 8, !dbg !2657
  store ptr %err, ptr %5, align 8, !dbg !2657
  store i64 -9223372036854775808, ptr %_0, align 8, !dbg !2657
  store i8 0, ptr %_9, align 1, !dbg !2658
  br label %bb6, !dbg !2659

bb9:                                              ; preds = %cleanup
  %6 = load i8, ptr %_9, align 1, !dbg !2658
  %7 = trunc i8 %6 to i1, !dbg !2658
  br i1 %7, label %bb8, label %bb7, !dbg !2658

cleanup:                                          ; preds = %bb4
  %8 = landingpad { ptr, i32 }
          cleanup
  %9 = extractvalue { ptr, i32 } %8, 0
  %10 = extractvalue { ptr, i32 } %8, 1
  store ptr %9, ptr %0, align 8
  %11 = getelementptr inbounds i8, ptr %0, i64 8
  store i32 %10, ptr %11, align 8
  br label %bb9

bb5:                                              ; preds = %bb4
  call void @llvm.memcpy.p0.p0.i64(ptr align 8 %_0, ptr align 8 %string, i64 24, i1 false), !dbg !2660
  store i8 0, ptr %_9, align 1, !dbg !2658
  br label %bb6, !dbg !2659

bb6:                                              ; preds = %bb5, %bb3
  ret void, !dbg !2659

bb7:                                              ; preds = %bb8, %bb9
  %12 = load ptr, ptr %0, align 8, !dbg !2661
  %13 = getelementptr inbounds i8, ptr %0, i64 8, !dbg !2661
  %14 = load i32, ptr %13, align 8, !dbg !2661
  %15 = insertvalue { ptr, i32 } poison, ptr %12, 0, !dbg !2661
  %16 = insertvalue { ptr, i32 } %15, i32 %14, 1, !dbg !2661
  resume { ptr, i32 } %16, !dbg !2661

bb8:                                              ; preds = %bb9
  invoke void @"_ZN4core3ptr46drop_in_place$LT$alloc..vec..Vec$LT$u8$GT$$GT$17h1e425b946ab324c0E"(ptr align 8 %vec) #23
          to label %bb7 unwind label %terminate, !dbg !2658

terminate:                                        ; preds = %bb8
  %17 = landingpad { ptr, i32 }
          filter [0 x ptr] zeroinitializer
  %18 = extractvalue { ptr, i32 } %17, 0
  %19 = extractvalue { ptr, i32 } %17, 1
  call void @_ZN4core9panicking16panic_in_cleanup17hdb19dc6496e5af6eE() #24, !dbg !2661
  unreachable, !dbg !2661

bb2:                                              ; No predecessors!
  unreachable, !dbg !2648
}

; Function Attrs: inlinehint nonlazybind uwtable
define internal void @_ZN10serde_json3ser9to_string17hde79092f5f55dcd4E(ptr sret([24 x i8]) align 8 %_0, ptr align 8 %value) unnamed_addr #1 personality ptr @rust_eh_personality !dbg !2662 {
start:
  %err.dbg.spill = alloca [8 x i8], align 8
  %0 = alloca [16 x i8], align 8
  %value.dbg.spill = alloca [8 x i8], align 8
  %_9 = alloca [1 x i8], align 1
  %_8 = alloca [24 x i8], align 8
  %string = alloca [24 x i8], align 8
  %val = alloca [24 x i8], align 8
  %_3 = alloca [24 x i8], align 8
  %vec = alloca [24 x i8], align 8
  store ptr %value, ptr %value.dbg.spill, align 8
    #dbg_declare(ptr %value.dbg.spill, !2666, !DIExpression(), !2675)
    #dbg_declare(ptr %vec, !2667, !DIExpression(), !2676)
    #dbg_declare(ptr %val, !2669, !DIExpression(), !2677)
    #dbg_declare(ptr %string, !2673, !DIExpression(), !2678)
  store i8 0, ptr %_9, align 1, !dbg !2679
  call void @_ZN10serde_json3ser6to_vec17h316921ce6aaae6d2E(ptr sret([24 x i8]) align 8 %_3, ptr align 8 %value), !dbg !2680
  %1 = load i64, ptr %_3, align 8, !dbg !2680
  %2 = icmp eq i64 %1, -9223372036854775808, !dbg !2680
  %_4 = select i1 %2, i64 1, i64 0, !dbg !2680
  %3 = icmp eq i64 %_4, 0, !dbg !2681
  br i1 %3, label %bb4, label %bb3, !dbg !2681

bb4:                                              ; preds = %start
  call void @llvm.memcpy.p0.p0.i64(ptr align 8 %val, ptr align 8 %_3, i64 24, i1 false), !dbg !2683
  store i8 1, ptr %_9, align 1, !dbg !2684
  call void @llvm.memcpy.p0.p0.i64(ptr align 8 %vec, ptr align 8 %val, i64 24, i1 false), !dbg !2684
  store i8 0, ptr %_9, align 1, !dbg !2685
  call void @llvm.memcpy.p0.p0.i64(ptr align 8 %_8, ptr align 8 %vec, i64 24, i1 false), !dbg !2685
  invoke void @_ZN5alloc6string6String19from_utf8_unchecked17h59c5cffbba2fdcf9E(ptr sret([24 x i8]) align 8 %string, ptr align 8 %_8)
          to label %bb5 unwind label %cleanup, !dbg !2686

bb3:                                              ; preds = %start
  %4 = getelementptr inbounds i8, ptr %_3, i64 8, !dbg !2687
  %err = load ptr, ptr %4, align 8, !dbg !2687
  store ptr %err, ptr %err.dbg.spill, align 8, !dbg !2687
    #dbg_declare(ptr %err.dbg.spill, !2671, !DIExpression(), !2688)
  %5 = getelementptr inbounds i8, ptr %_0, i64 8, !dbg !2689
  store ptr %err, ptr %5, align 8, !dbg !2689
  store i64 -9223372036854775808, ptr %_0, align 8, !dbg !2689
  store i8 0, ptr %_9, align 1, !dbg !2690
  br label %bb6, !dbg !2691

bb9:                                              ; preds = %cleanup
  %6 = load i8, ptr %_9, align 1, !dbg !2690
  %7 = trunc i8 %6 to i1, !dbg !2690
  br i1 %7, label %bb8, label %bb7, !dbg !2690

cleanup:                                          ; preds = %bb4
  %8 = landingpad { ptr, i32 }
          cleanup
  %9 = extractvalue { ptr, i32 } %8, 0
  %10 = extractvalue { ptr, i32 } %8, 1
  store ptr %9, ptr %0, align 8
  %11 = getelementptr inbounds i8, ptr %0, i64 8
  store i32 %10, ptr %11, align 8
  br label %bb9

bb5:                                              ; preds = %bb4
  call void @llvm.memcpy.p0.p0.i64(ptr align 8 %_0, ptr align 8 %string, i64 24, i1 false), !dbg !2692
  store i8 0, ptr %_9, align 1, !dbg !2690
  br label %bb6, !dbg !2691

bb6:                                              ; preds = %bb5, %bb3
  ret void, !dbg !2691

bb7:                                              ; preds = %bb8, %bb9
  %12 = load ptr, ptr %0, align 8, !dbg !2693
  %13 = getelementptr inbounds i8, ptr %0, i64 8, !dbg !2693
  %14 = load i32, ptr %13, align 8, !dbg !2693
  %15 = insertvalue { ptr, i32 } poison, ptr %12, 0, !dbg !2693
  %16 = insertvalue { ptr, i32 } %15, i32 %14, 1, !dbg !2693
  resume { ptr, i32 } %16, !dbg !2693

bb8:                                              ; preds = %bb9
  invoke void @"_ZN4core3ptr46drop_in_place$LT$alloc..vec..Vec$LT$u8$GT$$GT$17h1e425b946ab324c0E"(ptr align 8 %vec) #23
          to label %bb7 unwind label %terminate, !dbg !2690

terminate:                                        ; preds = %bb8
  %17 = landingpad { ptr, i32 }
          filter [0 x ptr] zeroinitializer
  %18 = extractvalue { ptr, i32 } %17, 0
  %19 = extractvalue { ptr, i32 } %17, 1
  call void @_ZN4core9panicking16panic_in_cleanup17hdb19dc6496e5af6eE() #24, !dbg !2693
  unreachable, !dbg !2693

bb2:                                              ; No predecessors!
  unreachable, !dbg !2680
}

; Function Attrs: inlinehint nonlazybind uwtable
define internal align 8 ptr @_ZN10serde_json3ser9to_writer17h3bc0bf155ef6543fE(ptr align 8 %writer, ptr align 8 %value) unnamed_addr #1 personality ptr @rust_eh_personality !dbg !2694 {
start:
  %0 = alloca [16 x i8], align 8
  %value.dbg.spill = alloca [8 x i8], align 8
  %writer.dbg.spill = alloca [8 x i8], align 8
  %ser = alloca [8 x i8], align 8
  store ptr %writer, ptr %writer.dbg.spill, align 8
    #dbg_declare(ptr %writer.dbg.spill, !2712, !DIExpression(), !2723)
  store ptr %value, ptr %value.dbg.spill, align 8
    #dbg_declare(ptr %value.dbg.spill, !2713, !DIExpression(), !2724)
    #dbg_declare(ptr %ser, !2714, !DIExpression(), !2725)
  %1 = call align 8 ptr @"_ZN10serde_json3ser19Serializer$LT$W$GT$3new17h3787b021dffda7f8E"(ptr align 8 %writer), !dbg !2726
  store ptr %1, ptr %ser, align 8, !dbg !2726
  %_0 = invoke align 8 ptr @"_ZN5serde3ser5impls76_$LT$impl$u20$serde..ser..Serialize$u20$for$u20$alloc..vec..Vec$LT$T$GT$$GT$9serialize17haeae2fa35d56a765E"(ptr align 8 %value, ptr align 8 %ser)
          to label %bb2 unwind label %cleanup, !dbg !2727

bb4:                                              ; preds = %cleanup
  %2 = load ptr, ptr %0, align 8, !dbg !2728
  %3 = getelementptr inbounds i8, ptr %0, i64 8, !dbg !2728
  %4 = load i32, ptr %3, align 8, !dbg !2728
  %5 = insertvalue { ptr, i32 } poison, ptr %2, 0, !dbg !2728
  %6 = insertvalue { ptr, i32 } %5, i32 %4, 1, !dbg !2728
  resume { ptr, i32 } %6, !dbg !2728

cleanup:                                          ; preds = %start
  %7 = landingpad { ptr, i32 }
          cleanup
  %8 = extractvalue { ptr, i32 } %7, 0
  %9 = extractvalue { ptr, i32 } %7, 1
  store ptr %8, ptr %0, align 8
  %10 = getelementptr inbounds i8, ptr %0, i64 8
  store i32 %9, ptr %10, align 8
  br label %bb4

bb2:                                              ; preds = %start
  ret ptr %_0, !dbg !2729
}

; Function Attrs: inlinehint nonlazybind uwtable
define internal align 8 ptr @_ZN10serde_json3ser9to_writer17h99b661ced2463cc9E(ptr align 8 %writer, ptr align 8 %value) unnamed_addr #1 personality ptr @rust_eh_personality !dbg !2730 {
start:
  %0 = alloca [16 x i8], align 8
  %value.dbg.spill = alloca [8 x i8], align 8
  %writer.dbg.spill = alloca [8 x i8], align 8
  %ser = alloca [8 x i8], align 8
  store ptr %writer, ptr %writer.dbg.spill, align 8
    #dbg_declare(ptr %writer.dbg.spill, !2734, !DIExpression(), !2739)
  store ptr %value, ptr %value.dbg.spill, align 8
    #dbg_declare(ptr %value.dbg.spill, !2735, !DIExpression(), !2740)
    #dbg_declare(ptr %ser, !2736, !DIExpression(), !2741)
  %1 = call align 8 ptr @"_ZN10serde_json3ser19Serializer$LT$W$GT$3new17h3787b021dffda7f8E"(ptr align 8 %writer), !dbg !2742
  store ptr %1, ptr %ser, align 8, !dbg !2742
  %_0 = invoke align 8 ptr @"_ZN5serde3ser5impls76_$LT$impl$u20$serde..ser..Serialize$u20$for$u20$alloc..vec..Vec$LT$T$GT$$GT$9serialize17hc7c460a569c37ec9E"(ptr align 8 %value, ptr align 8 %ser)
          to label %bb2 unwind label %cleanup, !dbg !2743

bb4:                                              ; preds = %cleanup
  %2 = load ptr, ptr %0, align 8, !dbg !2744
  %3 = getelementptr inbounds i8, ptr %0, i64 8, !dbg !2744
  %4 = load i32, ptr %3, align 8, !dbg !2744
  %5 = insertvalue { ptr, i32 } poison, ptr %2, 0, !dbg !2744
  %6 = insertvalue { ptr, i32 } %5, i32 %4, 1, !dbg !2744
  resume { ptr, i32 } %6, !dbg !2744

cleanup:                                          ; preds = %start
  %7 = landingpad { ptr, i32 }
          cleanup
  %8 = extractvalue { ptr, i32 } %7, 0
  %9 = extractvalue { ptr, i32 } %7, 1
  store ptr %8, ptr %0, align 8
  %10 = getelementptr inbounds i8, ptr %0, i64 8
  store i32 %9, ptr %10, align 8
  br label %bb4

bb2:                                              ; preds = %start
  ret ptr %_0, !dbg !2745
}

; Function Attrs: inlinehint nonlazybind uwtable
define internal align 8 ptr @"_ZN110_$LT$core..slice..iter..Iter$LT$T$GT$$u20$as$u20$core..iter..traits..unchecked_iterator..UncheckedIterator$GT$14next_unchecked17h484b020b31fd1042E"(ptr align 8 %self) unnamed_addr #1 !dbg !2746 {
start:
  %self.dbg.spill.i2.i = alloca [8 x i8], align 8
  %count.dbg.spill.i.i = alloca [8 x i8], align 8
  %self.dbg.spill.i1.i1 = alloca [8 x i8], align 8
  %self.dbg.spill.i.i2 = alloca [8 x i8], align 8
  %_end.dbg.spill.i = alloca [8 x i8], align 8
  %old.dbg.spill.i = alloca [8 x i8], align 8
  %offset.dbg.spill.i = alloca [8 x i8], align 8
  %self.dbg.spill.i3 = alloca [8 x i8], align 8
  %self.dbg.spill.i1.i = alloca [8 x i8], align 8
  %self.dbg.spill.i.i = alloca [8 x i8], align 8
  %self.dbg.spill.i = alloca [8 x i8], align 8
  %self.dbg.spill = alloca [8 x i8], align 8
  %_3 = alloca [8 x i8], align 8
  store ptr %self, ptr %self.dbg.spill, align 8
    #dbg_declare(ptr %self.dbg.spill, !2764, !DIExpression(), !2765)
  store ptr %self, ptr %self.dbg.spill.i3, align 8
    #dbg_declare(ptr %self.dbg.spill.i3, !2766, !DIExpression(), !2781)
  store i64 1, ptr %offset.dbg.spill.i, align 8
    #dbg_declare(ptr %offset.dbg.spill.i, !2772, !DIExpression(), !2783)
  %old.i = load ptr, ptr %self, align 8, !dbg !2784
  store ptr %old.i, ptr %old.dbg.spill.i, align 8, !dbg !2784
    #dbg_declare(ptr %old.dbg.spill.i, !2773, !DIExpression(), !2785)
  %_10.i = getelementptr inbounds i8, ptr %self, i64 8, !dbg !2786
  store ptr %_10.i, ptr %self.dbg.spill.i.i2, align 8
    #dbg_declare(ptr %self.dbg.spill.i.i2, !2787, !DIExpression(), !2800)
  store ptr %_10.i, ptr %_end.dbg.spill.i, align 8, !dbg !2802
    #dbg_declare(ptr %_end.dbg.spill.i, !2778, !DIExpression(), !2803)
  %_12.i = load ptr, ptr %self, align 8, !dbg !2804
  store ptr %_12.i, ptr %self.dbg.spill.i1.i1, align 8
    #dbg_declare(ptr %self.dbg.spill.i1.i1, !1983, !DIExpression(), !2805)
  store i64 1, ptr %count.dbg.spill.i.i, align 8
    #dbg_declare(ptr %count.dbg.spill.i.i, !1989, !DIExpression(), !2807)
  store ptr %_12.i, ptr %self.dbg.spill.i2.i, align 8
    #dbg_declare(ptr %self.dbg.spill.i2.i, !1993, !DIExpression(), !2808)
  %_3.i.i = getelementptr inbounds %"OpenFaaSRPC::Follower", ptr %_12.i, i64 1, !dbg !2810
  store ptr %_3.i.i, ptr %self, align 8, !dbg !2811
  store ptr %old.i, ptr %_3, align 8, !dbg !2812
  store ptr %_3, ptr %self.dbg.spill.i, align 8
    #dbg_declare(ptr %self.dbg.spill.i, !2813, !DIExpression(), !2819)
  %_4.i = load ptr, ptr %_3, align 8, !dbg !2821
  store ptr %_4.i, ptr %self.dbg.spill.i1.i, align 8
    #dbg_declare(ptr %self.dbg.spill.i1.i, !1993, !DIExpression(), !2822)
  store ptr %_4.i, ptr %self.dbg.spill.i.i, align 8
    #dbg_declare(ptr %self.dbg.spill.i.i, !2824, !DIExpression(), !2829)
  ret ptr %_4.i, !dbg !2831
}

; Function Attrs: inlinehint nonlazybind uwtable
define internal align 8 ptr @"_ZN110_$LT$core..slice..iter..Iter$LT$T$GT$$u20$as$u20$core..iter..traits..unchecked_iterator..UncheckedIterator$GT$14next_unchecked17h9d7db9694d4d135cE"(ptr align 8 %self) unnamed_addr #1 !dbg !2832 {
start:
  %self.dbg.spill.i2.i = alloca [8 x i8], align 8
  %count.dbg.spill.i.i = alloca [8 x i8], align 8
  %self.dbg.spill.i1.i1 = alloca [8 x i8], align 8
  %self.dbg.spill.i.i2 = alloca [8 x i8], align 8
  %_end.dbg.spill.i = alloca [8 x i8], align 8
  %old.dbg.spill.i = alloca [8 x i8], align 8
  %offset.dbg.spill.i = alloca [8 x i8], align 8
  %self.dbg.spill.i3 = alloca [8 x i8], align 8
  %self.dbg.spill.i1.i = alloca [8 x i8], align 8
  %self.dbg.spill.i.i = alloca [8 x i8], align 8
  %self.dbg.spill.i = alloca [8 x i8], align 8
  %self.dbg.spill = alloca [8 x i8], align 8
  %_3 = alloca [8 x i8], align 8
  store ptr %self, ptr %self.dbg.spill, align 8
    #dbg_declare(ptr %self.dbg.spill, !2849, !DIExpression(), !2850)
  store ptr %self, ptr %self.dbg.spill.i3, align 8
    #dbg_declare(ptr %self.dbg.spill.i3, !2851, !DIExpression(), !2865)
  store i64 1, ptr %offset.dbg.spill.i, align 8
    #dbg_declare(ptr %offset.dbg.spill.i, !2857, !DIExpression(), !2867)
  %old.i = load ptr, ptr %self, align 8, !dbg !2868
  store ptr %old.i, ptr %old.dbg.spill.i, align 8, !dbg !2868
    #dbg_declare(ptr %old.dbg.spill.i, !2858, !DIExpression(), !2869)
  %_10.i = getelementptr inbounds i8, ptr %self, i64 8, !dbg !2870
  store ptr %_10.i, ptr %self.dbg.spill.i.i2, align 8
    #dbg_declare(ptr %self.dbg.spill.i.i2, !2871, !DIExpression(), !2881)
  store ptr %_10.i, ptr %_end.dbg.spill.i, align 8, !dbg !2883
    #dbg_declare(ptr %_end.dbg.spill.i, !2862, !DIExpression(), !2884)
  %_12.i = load ptr, ptr %self, align 8, !dbg !2885
  store ptr %_12.i, ptr %self.dbg.spill.i1.i1, align 8
    #dbg_declare(ptr %self.dbg.spill.i1.i1, !2886, !DIExpression(), !2893)
  store i64 1, ptr %count.dbg.spill.i.i, align 8
    #dbg_declare(ptr %count.dbg.spill.i.i, !2892, !DIExpression(), !2895)
  store ptr %_12.i, ptr %self.dbg.spill.i2.i, align 8
    #dbg_declare(ptr %self.dbg.spill.i2.i, !2896, !DIExpression(), !2902)
  %_3.i.i = getelementptr inbounds i64, ptr %_12.i, i64 1, !dbg !2904
  store ptr %_3.i.i, ptr %self, align 8, !dbg !2905
  store ptr %old.i, ptr %_3, align 8, !dbg !2906
  store ptr %_3, ptr %self.dbg.spill.i, align 8
    #dbg_declare(ptr %self.dbg.spill.i, !2907, !DIExpression(), !2914)
  %_4.i = load ptr, ptr %_3, align 8, !dbg !2916
  store ptr %_4.i, ptr %self.dbg.spill.i1.i, align 8
    #dbg_declare(ptr %self.dbg.spill.i1.i, !2896, !DIExpression(), !2917)
  store ptr %_4.i, ptr %self.dbg.spill.i.i, align 8
    #dbg_declare(ptr %self.dbg.spill.i.i, !2919, !DIExpression(), !2924)
  ret ptr %_4.i, !dbg !2926
}

; Function Attrs: inlinehint nonlazybind uwtable
define internal void @"_ZN111_$LT$alloc..vec..in_place_drop..InPlaceDstDataSrcBufDrop$LT$Src$C$Dest$GT$$u20$as$u20$core..ops..drop..Drop$GT$4drop17h0dbc6e44d2d28df8E"(ptr align 8 %self) unnamed_addr #1 personality ptr @rust_eh_personality !dbg !2927 {
start:
  %self.dbg.spill.i = alloca [8 x i8], align 8
  %0 = alloca [16 x i8], align 8
  %self.dbg.spill = alloca [8 x i8], align 8
  %_drop_allocation = alloca [16 x i8], align 8
  store ptr %self, ptr %self.dbg.spill, align 8
    #dbg_declare(ptr %self.dbg.spill, !2943, !DIExpression(), !2946)
    #dbg_declare(ptr %_drop_allocation, !2944, !DIExpression(), !2947)
  %_4 = load ptr, ptr %self, align 8, !dbg !2948
  %_3 = call ptr @"_ZN4core3ptr8non_null16NonNull$LT$T$GT$4cast17h5152a3c6fe934b5aE"(ptr %_4), !dbg !2948
  %1 = getelementptr inbounds i8, ptr %self, i64 16, !dbg !2949
  %_5 = load i64, ptr %1, align 8, !dbg !2949
  %2 = call { i64, ptr } @"_ZN5alloc7raw_vec19RawVec$LT$T$C$A$GT$15from_nonnull_in17ha0021f5bf8794c3dE"(ptr %_3, i64 %_5), !dbg !2950
  %3 = extractvalue { i64, ptr } %2, 0, !dbg !2950
  %4 = extractvalue { i64, ptr } %2, 1, !dbg !2950
  store i64 %3, ptr %_drop_allocation, align 8, !dbg !2950
  %5 = getelementptr inbounds i8, ptr %_drop_allocation, i64 8, !dbg !2950
  store ptr %4, ptr %5, align 8, !dbg !2950
  %_9 = load ptr, ptr %self, align 8, !dbg !2951
  store ptr %_9, ptr %self.dbg.spill.i, align 8
    #dbg_declare(ptr %self.dbg.spill.i, !2896, !DIExpression(), !2952)
  br label %bb3, !dbg !2954

bb7:                                              ; preds = %cleanup
  invoke void @"_ZN4core3ptr72drop_in_place$LT$alloc..raw_vec..RawVec$LT$OpenFaaSRPC..Follower$GT$$GT$17h3ba467d6f6c6f1e3E"(ptr align 8 %_drop_allocation) #23
          to label %bb8 unwind label %terminate, !dbg !2955

cleanup:                                          ; preds = %bb3
  %6 = landingpad { ptr, i32 }
          cleanup
  %7 = extractvalue { ptr, i32 } %6, 0
  %8 = extractvalue { ptr, i32 } %6, 1
  store ptr %7, ptr %0, align 8
  %9 = getelementptr inbounds i8, ptr %0, i64 8
  store i32 %8, ptr %9, align 8
  br label %bb7

bb3:                                              ; preds = %start
  %10 = getelementptr inbounds i8, ptr %self, i64 8, !dbg !2956
  %_10 = load i64, ptr %10, align 8, !dbg !2956
  %11 = invoke { ptr, i64 } @_ZN4core3ptr24slice_from_raw_parts_mut17h9066df5dc9405e90E(ptr %_9, i64 %_10)
          to label %bb4 unwind label %cleanup, !dbg !2957

bb4:                                              ; preds = %bb3
  %_7.0 = extractvalue { ptr, i64 } %11, 0, !dbg !2957
  %_7.1 = extractvalue { ptr, i64 } %11, 1, !dbg !2957
  br label %bb5, !dbg !2958

bb5:                                              ; preds = %bb4
  call void @"_ZN4core3ptr72drop_in_place$LT$alloc..raw_vec..RawVec$LT$OpenFaaSRPC..Follower$GT$$GT$17h3ba467d6f6c6f1e3E"(ptr align 8 %_drop_allocation), !dbg !2955
  ret void, !dbg !2959

terminate:                                        ; preds = %bb7
  %12 = landingpad { ptr, i32 }
          filter [0 x ptr] zeroinitializer
  %13 = extractvalue { ptr, i32 } %12, 0
  %14 = extractvalue { ptr, i32 } %12, 1
  call void @_ZN4core9panicking16panic_in_cleanup17hdb19dc6496e5af6eE() #24, !dbg !2960
  unreachable, !dbg !2960

bb8:                                              ; preds = %bb7
  %15 = load ptr, ptr %0, align 8, !dbg !2960
  %16 = getelementptr inbounds i8, ptr %0, i64 8, !dbg !2960
  %17 = load i32, ptr %16, align 8, !dbg !2960
  %18 = insertvalue { ptr, i32 } poison, ptr %15, 0, !dbg !2960
  %19 = insertvalue { ptr, i32 } %18, i32 %17, 1, !dbg !2960
  resume { ptr, i32 } %19, !dbg !2960
}

; Function Attrs: nonlazybind uwtable
define internal { i64, ptr } @"_ZN114_$LT$serde..__private..de..missing_field..MissingFieldDeserializer$LT$E$GT$$u20$as$u20$serde..de..Deserializer$GT$15deserialize_any17hd4470181db8f54c5E"(ptr align 1 %self.0, i64 %self.1) unnamed_addr #0 personality ptr @rust_eh_personality !dbg !2961 {
start:
  %0 = alloca [16 x i8], align 8
  %_visitor.dbg.spill = alloca [0 x i8], align 1
  %self.dbg.spill = alloca [16 x i8], align 8
  %_0 = alloca [16 x i8], align 8
  store ptr %self.0, ptr %self.dbg.spill, align 8
  %1 = getelementptr inbounds i8, ptr %self.dbg.spill, i64 8
  store i64 %self.1, ptr %1, align 8
    #dbg_declare(ptr %self.dbg.spill, !2978, !DIExpression(), !2981)
    #dbg_declare(ptr %_visitor.dbg.spill, !2979, !DIExpression(), !2982)
  %_3 = invoke align 8 ptr @_ZN5serde2de5Error13missing_field17hb92d704f284084e0E(ptr align 1 %self.0, i64 %self.1)
          to label %bb1 unwind label %cleanup, !dbg !2983

bb3:                                              ; preds = %cleanup
  %2 = load ptr, ptr %0, align 8, !dbg !2984
  %3 = getelementptr inbounds i8, ptr %0, i64 8, !dbg !2984
  %4 = load i32, ptr %3, align 8, !dbg !2984
  %5 = insertvalue { ptr, i32 } poison, ptr %2, 0, !dbg !2984
  %6 = insertvalue { ptr, i32 } %5, i32 %4, 1, !dbg !2984
  resume { ptr, i32 } %6, !dbg !2984

cleanup:                                          ; preds = %start
  %7 = landingpad { ptr, i32 }
          cleanup
  %8 = extractvalue { ptr, i32 } %7, 0
  %9 = extractvalue { ptr, i32 } %7, 1
  store ptr %8, ptr %0, align 8
  %10 = getelementptr inbounds i8, ptr %0, i64 8
  store i32 %9, ptr %10, align 8
  br label %bb3

bb1:                                              ; preds = %start
  %11 = getelementptr inbounds i8, ptr %_0, i64 8, !dbg !2985
  store ptr %_3, ptr %11, align 8, !dbg !2985
  store i64 1, ptr %_0, align 8, !dbg !2985
  %12 = load i64, ptr %_0, align 8, !dbg !2986
  %13 = getelementptr inbounds i8, ptr %_0, i64 8, !dbg !2986
  %14 = load ptr, ptr %13, align 8, !dbg !2986
  %15 = insertvalue { i64, ptr } poison, i64 %12, 0, !dbg !2986
  %16 = insertvalue { i64, ptr } %15, ptr %14, 1, !dbg !2986
  ret { i64, ptr } %16, !dbg !2986
}

; Function Attrs: inlinehint nonlazybind uwtable
define internal { i64, ptr } @"_ZN114_$LT$serde..__private..de..missing_field..MissingFieldDeserializer$LT$E$GT$$u20$as$u20$serde..de..Deserializer$GT$15deserialize_i6417h6609a688f8117f2fE"(ptr align 1 %self.0, i64 %self.1) unnamed_addr #1 !dbg !2987 {
start:
  %visitor.dbg.spill = alloca [0 x i8], align 1
  %self.dbg.spill = alloca [16 x i8], align 8
  store ptr %self.0, ptr %self.dbg.spill, align 8
  %0 = getelementptr inbounds i8, ptr %self.dbg.spill, i64 8
  store i64 %self.1, ptr %0, align 8
    #dbg_declare(ptr %self.dbg.spill, !2990, !DIExpression(), !2992)
    #dbg_declare(ptr %visitor.dbg.spill, !2991, !DIExpression(), !2993)
  %1 = call { i64, ptr } @"_ZN114_$LT$serde..__private..de..missing_field..MissingFieldDeserializer$LT$E$GT$$u20$as$u20$serde..de..Deserializer$GT$15deserialize_any17hd4470181db8f54c5E"(ptr align 1 %self.0, i64 %self.1), !dbg !2994
  %_0.0 = extractvalue { i64, ptr } %1, 0, !dbg !2994
  %_0.1 = extractvalue { i64, ptr } %1, 1, !dbg !2994
  %2 = insertvalue { i64, ptr } poison, i64 %_0.0, 0, !dbg !2995
  %3 = insertvalue { i64, ptr } %2, ptr %_0.1, 1, !dbg !2995
  ret { i64, ptr } %3, !dbg !2995
}

; Function Attrs: nonlazybind uwtable
define internal align 8 ptr @"_ZN11OpenFaaSRPC1_73_$LT$impl$u20$serde..ser..Serialize$u20$for$u20$OpenFaaSRPC..Follower$GT$9serialize17hda751c68d451fcf9E"(ptr align 8 %self, ptr align 8 %__serializer) unnamed_addr #0 personality ptr @rust_eh_personality !dbg !2996 {
start:
  %residual.dbg.spill8 = alloca [8 x i8], align 8
  %residual.dbg.spill6 = alloca [8 x i8], align 8
  %residual.dbg.spill = alloca [8 x i8], align 8
  %val.dbg.spill3 = alloca [16 x i8], align 8
  %0 = alloca [16 x i8], align 8
  %val.dbg.spill1 = alloca [0 x i8], align 1
  %val.dbg.spill = alloca [0 x i8], align 1
  %__serializer.dbg.spill = alloca [8 x i8], align 8
  %self.dbg.spill = alloca [8 x i8], align 8
  %_29 = alloca [1 x i8], align 1
  %_28 = alloca [1 x i8], align 1
  %_21 = alloca [8 x i8], align 8
  %_15 = alloca [8 x i8], align 8
  %_5 = alloca [16 x i8], align 8
  %_4 = alloca [16 x i8], align 8
  %__serde_state = alloca [16 x i8], align 8
  %_0 = alloca [8 x i8], align 8
  store ptr %self, ptr %self.dbg.spill, align 8
    #dbg_declare(ptr %self.dbg.spill, !3002, !DIExpression(), !3042)
  store ptr %__serializer, ptr %__serializer.dbg.spill, align 8
    #dbg_declare(ptr %__serializer.dbg.spill, !3003, !DIExpression(), !3042)
    #dbg_declare(ptr %__serde_state, !3004, !DIExpression(), !3043)
    #dbg_declare(ptr %val.dbg.spill, !3034, !DIExpression(), !3044)
    #dbg_declare(ptr %val.dbg.spill1, !3038, !DIExpression(), !3045)
  store i8 0, ptr %_28, align 1, !dbg !3042
  store i8 0, ptr %_29, align 1, !dbg !3042
  store i8 1, ptr %_29, align 1, !dbg !3042
  %1 = call { i64, i1 } @llvm.uadd.with.overflow.i64(i64 0, i64 1), !dbg !3042
  %_10.0 = extractvalue { i64, i1 } %1, 0, !dbg !3042
  %_10.1 = extractvalue { i64, i1 } %1, 1, !dbg !3042
  br i1 %_10.1, label %panic, label %bb1, !dbg !3042

bb1:                                              ; preds = %start
  %2 = call { i64, i1 } @llvm.uadd.with.overflow.i64(i64 %_10.0, i64 1), !dbg !3042
  %_11.0 = extractvalue { i64, i1 } %2, 0, !dbg !3042
  %_11.1 = extractvalue { i64, i1 } %2, 1, !dbg !3042
  br i1 %_11.1, label %panic2, label %bb2, !dbg !3042

panic:                                            ; preds = %start
  invoke void @_ZN4core9panicking11panic_const24panic_const_add_overflow17hba62940e649c8158E(ptr align 8 @alloc_ae52e422ab29884b58622d79788975fe) #25
          to label %unreachable unwind label %cleanup, !dbg !3042

bb24:                                             ; preds = %cleanup
  %3 = load i8, ptr %_29, align 1, !dbg !3046
  %4 = trunc i8 %3 to i1, !dbg !3046
  br i1 %4, label %bb23, label %bb20, !dbg !3046

cleanup:                                          ; preds = %panic2, %bb2, %panic
  %5 = landingpad { ptr, i32 }
          cleanup
  %6 = extractvalue { ptr, i32 } %5, 0
  %7 = extractvalue { ptr, i32 } %5, 1
  store ptr %6, ptr %0, align 8
  %8 = getelementptr inbounds i8, ptr %0, i64 8
  store i32 %7, ptr %8, align 8
  br label %bb24

unreachable:                                      ; preds = %panic2, %panic
  unreachable

bb2:                                              ; preds = %bb1
  store i8 0, ptr %_29, align 1, !dbg !3042
  invoke void @"_ZN95_$LT$$RF$mut$u20$serde_json..ser..Serializer$LT$W$C$F$GT$$u20$as$u20$serde..ser..Serializer$GT$16serialize_struct17hafc3928f050d3c11E"(ptr sret([16 x i8]) align 8 %_5, ptr align 8 %__serializer, ptr align 1 @alloc_6c3c28a042770293cfa9bea3e20a3fd6, i64 8, i64 %_11.0)
          to label %bb3 unwind label %cleanup, !dbg !3042

panic2:                                           ; preds = %bb1
  invoke void @_ZN4core9panicking11panic_const24panic_const_add_overflow17hba62940e649c8158E(ptr align 8 @alloc_ae52e422ab29884b58622d79788975fe) #25
          to label %unreachable unwind label %cleanup, !dbg !3042

bb3:                                              ; preds = %bb2
  store i8 0, ptr %_29, align 1, !dbg !3046
  call void @"_ZN79_$LT$core..result..Result$LT$T$C$E$GT$$u20$as$u20$core..ops..try_trait..Try$GT$6branch17h71feed0653bb0293E"(ptr sret([16 x i8]) align 8 %_4, ptr align 8 %_5), !dbg !3042
  %9 = getelementptr inbounds i8, ptr %_4, i64 8, !dbg !3042
  %10 = load i8, ptr %9, align 8, !dbg !3042
  %11 = icmp eq i8 %10, 3, !dbg !3042
  %_12 = select i1 %11, i64 1, i64 0, !dbg !3042
  %12 = icmp eq i64 %_12, 0, !dbg !3042
  br i1 %12, label %bb6, label %bb7, !dbg !3042

bb6:                                              ; preds = %bb3
  %val.0 = load ptr, ptr %_4, align 8, !dbg !3042
  %13 = getelementptr inbounds i8, ptr %_4, i64 8, !dbg !3042
  %val.1 = load i8, ptr %13, align 8, !dbg !3042
  store ptr %val.0, ptr %val.dbg.spill3, align 8, !dbg !3042
  %14 = getelementptr inbounds i8, ptr %val.dbg.spill3, i64 8, !dbg !3042
  store i8 %val.1, ptr %14, align 8, !dbg !3042
    #dbg_declare(ptr %val.dbg.spill3, !3030, !DIExpression(), !3047)
  store i8 1, ptr %_28, align 1, !dbg !3047
  store ptr %val.0, ptr %__serde_state, align 8, !dbg !3047
  %15 = getelementptr inbounds i8, ptr %__serde_state, i64 8, !dbg !3047
  store i8 %val.1, ptr %15, align 8, !dbg !3047
  %_16 = invoke align 8 ptr @"_ZN86_$LT$serde_json..ser..Compound$LT$W$C$F$GT$$u20$as$u20$serde..ser..SerializeStruct$GT$15serialize_field17h15d701a362f2b84dE"(ptr align 8 %__serde_state, ptr align 1 @alloc_5e5d0fc3969e190d5b793845b4d75f83, i64 11, ptr align 8 %self)
          to label %bb8 unwind label %cleanup4, !dbg !3043

bb7:                                              ; preds = %bb3
  %residual7 = load ptr, ptr %_4, align 8, !dbg !3046
  store ptr %residual7, ptr %residual.dbg.spill8, align 8, !dbg !3046
    #dbg_declare(ptr %residual.dbg.spill8, !3015, !DIExpression(), !3048)
  %16 = call align 8 ptr @"_ZN153_$LT$core..result..Result$LT$T$C$F$GT$$u20$as$u20$core..ops..try_trait..FromResidual$LT$core..result..Result$LT$core..convert..Infallible$C$E$GT$$GT$$GT$13from_residual17ha86c344000b47ce5E"(ptr align 8 %residual7, ptr align 8 @alloc_ae52e422ab29884b58622d79788975fe), !dbg !3049
  store ptr %16, ptr %_0, align 8, !dbg !3049
  br label %bb18, !dbg !3049

bb22:                                             ; preds = %cleanup4
  %17 = load i8, ptr %_28, align 1, !dbg !3046
  %18 = trunc i8 %17 to i1, !dbg !3046
  br i1 %18, label %bb21, label %bb20, !dbg !3046

cleanup4:                                         ; preds = %bb15, %bb14, %bb12, %bb11, %bb10, %bb8, %bb6
  %19 = landingpad { ptr, i32 }
          cleanup
  %20 = extractvalue { ptr, i32 } %19, 0
  %21 = extractvalue { ptr, i32 } %19, 1
  store ptr %20, ptr %0, align 8
  %22 = getelementptr inbounds i8, ptr %0, i64 8
  store i32 %21, ptr %22, align 8
  br label %bb22

bb8:                                              ; preds = %bb6
  %23 = invoke align 8 ptr @"_ZN79_$LT$core..result..Result$LT$T$C$E$GT$$u20$as$u20$core..ops..try_trait..Try$GT$6branch17he730072a58713060E"(ptr align 8 %_16)
          to label %bb9 unwind label %cleanup4, !dbg !3043

bb9:                                              ; preds = %bb8
  store ptr %23, ptr %_15, align 8, !dbg !3043
  %24 = load ptr, ptr %_15, align 8, !dbg !3043
  %25 = ptrtoint ptr %24 to i64, !dbg !3043
  %26 = icmp eq i64 %25, 0, !dbg !3043
  %_19 = select i1 %26, i64 0, i64 1, !dbg !3043
  %27 = icmp eq i64 %_19, 0, !dbg !3043
  br i1 %27, label %bb10, label %bb11, !dbg !3043

bb10:                                             ; preds = %bb9
  %_24 = getelementptr inbounds i8, ptr %self, i64 8, !dbg !3043
  %_22 = invoke align 8 ptr @"_ZN86_$LT$serde_json..ser..Compound$LT$W$C$F$GT$$u20$as$u20$serde..ser..SerializeStruct$GT$15serialize_field17h15d701a362f2b84dE"(ptr align 8 %__serde_state, ptr align 1 @alloc_5e776ce52c9f5c81d68da620afd2d199, i64 9, ptr align 8 %_24)
          to label %bb12 unwind label %cleanup4, !dbg !3043

bb11:                                             ; preds = %bb9
  %residual5 = load ptr, ptr %_15, align 8, !dbg !3050
  store ptr %residual5, ptr %residual.dbg.spill6, align 8, !dbg !3050
    #dbg_declare(ptr %residual.dbg.spill6, !3032, !DIExpression(), !3051)
  %28 = invoke align 8 ptr @"_ZN153_$LT$core..result..Result$LT$T$C$F$GT$$u20$as$u20$core..ops..try_trait..FromResidual$LT$core..result..Result$LT$core..convert..Infallible$C$E$GT$$GT$$GT$13from_residual17ha86c344000b47ce5E"(ptr align 8 %residual5, ptr align 8 @alloc_ae52e422ab29884b58622d79788975fe)
          to label %bb25 unwind label %cleanup4, !dbg !3052

bb12:                                             ; preds = %bb10
  %29 = invoke align 8 ptr @"_ZN79_$LT$core..result..Result$LT$T$C$E$GT$$u20$as$u20$core..ops..try_trait..Try$GT$6branch17he730072a58713060E"(ptr align 8 %_22)
          to label %bb13 unwind label %cleanup4, !dbg !3043

bb13:                                             ; preds = %bb12
  store ptr %29, ptr %_21, align 8, !dbg !3043
  %30 = load ptr, ptr %_21, align 8, !dbg !3043
  %31 = ptrtoint ptr %30 to i64, !dbg !3043
  %32 = icmp eq i64 %31, 0, !dbg !3043
  %_25 = select i1 %32, i64 0, i64 1, !dbg !3043
  %33 = icmp eq i64 %_25, 0, !dbg !3043
  br i1 %33, label %bb14, label %bb15, !dbg !3043

bb14:                                             ; preds = %bb13
  store i8 0, ptr %_28, align 1, !dbg !3043
  %_27.0 = load ptr, ptr %__serde_state, align 8, !dbg !3043
  %34 = getelementptr inbounds i8, ptr %__serde_state, i64 8, !dbg !3043
  %_27.1 = load i8, ptr %34, align 8, !dbg !3043
  %35 = invoke align 8 ptr @"_ZN86_$LT$serde_json..ser..Compound$LT$W$C$F$GT$$u20$as$u20$serde..ser..SerializeStruct$GT$3end17h74aebb17b0022dc2E"(ptr align 8 %_27.0, i8 %_27.1)
          to label %bb16 unwind label %cleanup4, !dbg !3043

bb15:                                             ; preds = %bb13
  %residual = load ptr, ptr %_21, align 8, !dbg !3050
  store ptr %residual, ptr %residual.dbg.spill, align 8, !dbg !3050
    #dbg_declare(ptr %residual.dbg.spill, !3036, !DIExpression(), !3053)
  %36 = invoke align 8 ptr @"_ZN153_$LT$core..result..Result$LT$T$C$F$GT$$u20$as$u20$core..ops..try_trait..FromResidual$LT$core..result..Result$LT$core..convert..Infallible$C$E$GT$$GT$$GT$13from_residual17ha86c344000b47ce5E"(ptr align 8 %residual, ptr align 8 @alloc_ae52e422ab29884b58622d79788975fe)
          to label %bb26 unwind label %cleanup4, !dbg !3054

bb16:                                             ; preds = %bb14
  store ptr %35, ptr %_0, align 8, !dbg !3043
  store i8 0, ptr %_28, align 1, !dbg !3046
  br label %bb19, !dbg !3046

bb19:                                             ; preds = %bb18, %bb16
  %37 = load ptr, ptr %_0, align 8, !dbg !3055
  ret ptr %37, !dbg !3055

bb26:                                             ; preds = %bb15
  store ptr %36, ptr %_0, align 8, !dbg !3054
  br label %bb17, !dbg !3054

bb17:                                             ; preds = %bb25, %bb26
  br label %bb18, !dbg !3046

bb25:                                             ; preds = %bb11
  store ptr %28, ptr %_0, align 8, !dbg !3052
  br label %bb17, !dbg !3052

bb18:                                             ; preds = %bb17, %bb7
  store i8 0, ptr %_28, align 1, !dbg !3046
  br label %bb19, !dbg !3046

bb20:                                             ; preds = %bb23, %bb21, %bb22, %bb24
  %38 = load ptr, ptr %0, align 8, !dbg !3042
  %39 = getelementptr inbounds i8, ptr %0, i64 8, !dbg !3042
  %40 = load i32, ptr %39, align 8, !dbg !3042
  %41 = insertvalue { ptr, i32 } poison, ptr %38, 0, !dbg !3042
  %42 = insertvalue { ptr, i32 } %41, i32 %40, 1, !dbg !3042
  resume { ptr, i32 } %42, !dbg !3042

bb21:                                             ; preds = %bb22
  br label %bb20, !dbg !3046

bb5:                                              ; No predecessors!
  unreachable, !dbg !3056

bb23:                                             ; preds = %bb24
  br label %bb20, !dbg !3046
}

; Function Attrs: nonlazybind uwtable
define internal void @"_ZN11OpenFaaSRPC1_74_$LT$impl$u20$serde..de..Deserialize$u20$for$u20$OpenFaaSRPC..Follower$GT$11deserialize17hf9d434c7c8a9856dE"(ptr sret([24 x i8]) align 8 %_0, ptr align 8 %__deserializer) unnamed_addr #0 !dbg !3058 {
start:
  %__deserializer.dbg.spill = alloca [8 x i8], align 8
  store ptr %__deserializer, ptr %__deserializer.dbg.spill, align 8
    #dbg_declare(ptr %__deserializer.dbg.spill, !3076, !DIExpression(), !3079)
  call void @"_ZN93_$LT$$RF$mut$u20$serde_json..de..Deserializer$LT$R$GT$$u20$as$u20$serde..de..Deserializer$GT$18deserialize_struct17h418b7e29101f3c54E"(ptr sret([24 x i8]) align 8 %_0, ptr align 8 %__deserializer, ptr align 1 @alloc_6c3c28a042770293cfa9bea3e20a3fd6, i64 8, ptr align 8 @alloc_745ce56c87da20961640991551607f5c, i64 2), !dbg !3079
  ret void, !dbg !3080
}

; Function Attrs: nonlazybind uwtable
define internal { i64, ptr } @"_ZN11OpenFaaSRPC1_93_$LT$impl$u20$serde..de..Deserialize$u20$for$u20$OpenFaaSRPC..SocialGraphGetFollowersArgs$GT$11deserialize17h61af39748639d751E"(ptr align 8 %__deserializer) unnamed_addr #0 !dbg !3081 {
start:
  %__deserializer.dbg.spill = alloca [8 x i8], align 8
  store ptr %__deserializer, ptr %__deserializer.dbg.spill, align 8
    #dbg_declare(ptr %__deserializer.dbg.spill, !3085, !DIExpression(), !3086)
  %0 = call { i64, ptr } @"_ZN93_$LT$$RF$mut$u20$serde_json..de..Deserializer$LT$R$GT$$u20$as$u20$serde..de..Deserializer$GT$18deserialize_struct17hd4bdf4a6b67cb65eE"(ptr align 8 %__deserializer, ptr align 1 @alloc_1fcba90cb36554639964cdfaa443ba11, i64 27, ptr align 8 @alloc_8a1c00313d545b9334da69b73e87c929, i64 1), !dbg !3086
  %_0.0 = extractvalue { i64, ptr } %0, 0, !dbg !3086
  %_0.1 = extractvalue { i64, ptr } %0, 1, !dbg !3086
  %1 = insertvalue { i64, ptr } poison, i64 %_0.0, 0, !dbg !3087
  %2 = insertvalue { i64, ptr } %1, ptr %_0.1, 1, !dbg !3087
  ret { i64, ptr } %2, !dbg !3087
}

; Function Attrs: inlinehint nonlazybind uwtable
define internal zeroext i1 @_ZN11parking_lot7condvar17WaitTimeoutResult9timed_out17h5ed89f025271644dE(i1 zeroext %self) unnamed_addr #1 !dbg !3088 {
start:
  %self.dbg.spill = alloca [1 x i8], align 1
  %0 = zext i1 %self to i8
  store i8 %0, ptr %self.dbg.spill, align 1
    #dbg_declare(ptr %self.dbg.spill, !3097, !DIExpression(), !3098)
  ret i1 %self, !dbg !3099
}

; Function Attrs: inlinehint nonlazybind uwtable
define internal i64 @_ZN11parking_lot7condvar7Condvar3new17h18ad8692a01c5519E() unnamed_addr #1 !dbg !3100 {
start:
  %addr.dbg.spill.i.i = alloca [8 x i8], align 8
  %0 = alloca [8 x i8], align 8
  %_1 = alloca [8 x i8], align 8
  %_0 = alloca [8 x i8], align 8
  store i64 0, ptr %addr.dbg.spill.i.i, align 8
    #dbg_declare(ptr %addr.dbg.spill.i.i, !3104, !DIExpression(), !3111)
  %_0.i = call ptr @_ZN4core3ptr8metadata18from_raw_parts_mut17hc49c74d1d7f11b49E(ptr null), !dbg !3117
  %1 = call i64 @"_ZN4core4sync6atomic18AtomicPtr$LT$T$GT$3new17h90c52bb83dd2a0d7E"(ptr %_0.i), !dbg !3118
  store i64 %1, ptr %0, align 8, !dbg !3118
  call void @llvm.memcpy.p0.p0.i64(ptr align 8 %_1, ptr align 8 %0, i64 8, i1 false), !dbg !3118
  call void @llvm.memcpy.p0.p0.i64(ptr align 8 %_0, ptr align 8 %_1, i64 8, i1 false), !dbg !3119
  %2 = load i64, ptr %_0, align 8, !dbg !3120
  ret i64 %2, !dbg !3120
}

; Function Attrs: nonlazybind uwtable
define internal void @"_ZN126_$LT$memcache..protocol..ascii..AsciiProtocol$LT$memcache..stream..Stream$GT$$u20$as$u20$memcache..protocol..ProtocolTrait$GT$3get17he56e9d7a2afec388E"(ptr sret([56 x i8]) align 8 %_0, ptr align 8 %self, ptr align 1 %0, i64 %1) unnamed_addr #0 personality ptr @rust_eh_personality !dbg !3121 {
start:
  %residual.dbg.spill = alloca [8 x i8], align 8
  %2 = alloca [16 x i8], align 8
  %val.dbg.spill = alloca [0 x i8], align 1
  %self.dbg.spill = alloca [8 x i8], align 8
  %_56 = alloca [1 x i8], align 1
  %_55 = alloca [1 x i8], align 1
  %_54 = alloca [1 x i8], align 1
  %_53 = alloca [24 x i8], align 8
  %val6 = alloca [56 x i8], align 8
  %residual5 = alloca [32 x i8], align 8
  %_48 = alloca [24 x i8], align 8
  %_47 = alloca [32 x i8], align 8
  %_46 = alloca [56 x i8], align 8
  %_45 = alloca [56 x i8], align 8
  %_44 = alloca [24 x i8], align 8
  %_43 = alloca [24 x i8], align 8
  %val4 = alloca [48 x i8], align 8
  %residual3 = alloca [56 x i8], align 8
  %_39 = alloca [56 x i8], align 8
  %_38 = alloca [56 x i8], align 8
  %_37 = alloca [48 x i8], align 8
  %val2 = alloca [56 x i8], align 8
  %residual1 = alloca [32 x i8], align 8
  %_30 = alloca [24 x i8], align 8
  %_29 = alloca [32 x i8], align 8
  %_28 = alloca [56 x i8], align 8
  %_27 = alloca [56 x i8], align 8
  %v = alloca [24 x i8], align 8
  %k = alloca [24 x i8], align 8
  %val = alloca [48 x i8], align 8
  %residual = alloca [56 x i8], align 8
  %_17 = alloca [56 x i8], align 8
  %_16 = alloca [56 x i8], align 8
  %_15 = alloca [48 x i8], align 8
  %_11 = alloca [16 x i8], align 8
  %_10 = alloca [16 x i8], align 8
  %_7 = alloca [48 x i8], align 8
  %_3 = alloca [8 x i8], align 8
  %key = alloca [16 x i8], align 8
  store ptr %0, ptr %key, align 8
  %3 = getelementptr inbounds i8, ptr %key, i64 8
  store i64 %1, ptr %3, align 8
  store ptr %self, ptr %self.dbg.spill, align 8
    #dbg_declare(ptr %self.dbg.spill, !3143, !DIExpression(), !3227)
    #dbg_declare(ptr %key, !3144, !DIExpression(), !3228)
    #dbg_declare(ptr %residual, !3162, !DIExpression(), !3229)
    #dbg_declare(ptr %val, !3178, !DIExpression(), !3230)
    #dbg_declare(ptr %k, !3197, !DIExpression(), !3231)
    #dbg_declare(ptr %v, !3198, !DIExpression(), !3232)
    #dbg_declare(ptr %residual1, !3199, !DIExpression(), !3233)
    #dbg_declare(ptr %val2, !3215, !DIExpression(), !3234)
    #dbg_declare(ptr %residual3, !3217, !DIExpression(), !3235)
    #dbg_declare(ptr %val4, !3219, !DIExpression(), !3236)
    #dbg_declare(ptr %residual5, !3221, !DIExpression(), !3237)
    #dbg_declare(ptr %val6, !3223, !DIExpression(), !3238)
    #dbg_declare(ptr %val.dbg.spill, !3160, !DIExpression(), !3239)
  store i8 0, ptr %_54, align 1, !dbg !3240
  store i8 0, ptr %_56, align 1, !dbg !3240
  store i8 0, ptr %_55, align 1, !dbg !3240
  %_5 = call align 8 ptr @"_ZN8memcache8protocol5ascii25CappedLineReader$LT$C$GT$7get_mut17hf89018d70fa530f8E"(ptr align 8 %self), !dbg !3241
  call void @_ZN4core3fmt2rt8Argument11new_display17h67f8689a35894c32E(ptr sret([16 x i8]) align 8 %_11, ptr align 8 %key), !dbg !3240
  %4 = getelementptr inbounds %"core::fmt::rt::Argument<'_>", ptr %_10, i64 0, !dbg !3240
  call void @llvm.memcpy.p0.p0.i64(ptr align 8 %4, ptr align 8 %_11, i64 16, i1 false), !dbg !3240
  call void @_ZN4core3fmt9Arguments6new_v117h4d80ba28ee77a689E(ptr sret([48 x i8]) align 8 %_7, ptr align 8 @alloc_93c2d8667cd422f6cb8cc63a8abc3096, ptr align 8 %_10), !dbg !3240
  %_4 = call ptr @_ZN3std2io5Write9write_fmt17h5c8ef3fa45abd96dE(ptr align 8 %_5, ptr align 8 %_7), !dbg !3240
  %5 = call ptr @"_ZN79_$LT$core..result..Result$LT$T$C$E$GT$$u20$as$u20$core..ops..try_trait..Try$GT$6branch17h6a97e3acecbd540bE"(ptr %_4), !dbg !3240
  store ptr %5, ptr %_3, align 8, !dbg !3240
  %6 = load ptr, ptr %_3, align 8, !dbg !3240
  %7 = ptrtoint ptr %6 to i64, !dbg !3240
  %8 = icmp eq i64 %7, 0, !dbg !3240
  %_13 = select i1 %8, i64 0, i64 1, !dbg !3240
  %9 = icmp eq i64 %_13, 0, !dbg !3240
  br i1 %9, label %bb7, label %bb8, !dbg !3240

bb7:                                              ; preds = %start
  call void @"_ZN8memcache8protocol5ascii45AsciiProtocol$LT$memcache..stream..Stream$GT$18parse_get_response17h4c6087d9c3c3be0aE"(ptr sret([56 x i8]) align 8 %_17, ptr align 8 %self, i1 zeroext false), !dbg !3242
  call void @"_ZN79_$LT$core..result..Result$LT$T$C$E$GT$$u20$as$u20$core..ops..try_trait..Try$GT$6branch17h7139854337e717faE"(ptr sret([56 x i8]) align 8 %_16, ptr align 8 %_17), !dbg !3242
  %10 = load i64, ptr %_16, align 8, !dbg !3242
  %11 = icmp eq i64 %10, 11, !dbg !3242
  %_18 = select i1 %11, i64 0, i64 1, !dbg !3242
  %12 = icmp eq i64 %_18, 0, !dbg !3242
  br i1 %12, label %bb11, label %bb12, !dbg !3242

bb8:                                              ; preds = %start
  %residual10 = load ptr, ptr %_3, align 8, !dbg !3243
  store ptr %residual10, ptr %residual.dbg.spill, align 8, !dbg !3243
    #dbg_declare(ptr %residual.dbg.spill, !3145, !DIExpression(), !3244)
  call void @"_ZN153_$LT$core..result..Result$LT$T$C$F$GT$$u20$as$u20$core..ops..try_trait..FromResidual$LT$core..result..Result$LT$core..convert..Infallible$C$E$GT$$GT$$GT$13from_residual17h4856de636f65b194E"(ptr sret([56 x i8]) align 8 %_0, ptr %residual10, ptr align 8 @alloc_ae52e422ab29884b58622d79788975fe), !dbg !3245
  br label %bb36, !dbg !3245

bb11:                                             ; preds = %bb7
  %13 = getelementptr inbounds i8, ptr %_16, i64 8, !dbg !3242
  call void @llvm.memcpy.p0.p0.i64(ptr align 8 %val, ptr align 8 %13, i64 48, i1 false), !dbg !3242
  store i8 1, ptr %_55, align 1, !dbg !3230
  store i8 1, ptr %_56, align 1, !dbg !3230
  call void @llvm.memcpy.p0.p0.i64(ptr align 8 %_15, ptr align 8 %val, i64 48, i1 false), !dbg !3230
  %14 = load i64, ptr %_15, align 8, !dbg !3242
  %15 = icmp eq i64 %14, -9223372036854775808, !dbg !3242
  %_21 = select i1 %15, i64 0, i64 1, !dbg !3242
  %16 = icmp eq i64 %_21, 1, !dbg !3246
  br i1 %16, label %bb14, label %bb13, !dbg !3246

bb12:                                             ; preds = %bb7
  call void @llvm.memcpy.p0.p0.i64(ptr align 8 %residual, ptr align 8 %_16, i64 56, i1 false), !dbg !3247
  call void @"_ZN153_$LT$core..result..Result$LT$T$C$F$GT$$u20$as$u20$core..ops..try_trait..FromResidual$LT$core..result..Result$LT$core..convert..Infallible$C$E$GT$$GT$$GT$13from_residual17h3cdd9a9055b80359E"(ptr sret([56 x i8]) align 8 %_0, ptr align 8 %residual, ptr align 8 @alloc_ae52e422ab29884b58622d79788975fe), !dbg !3248
  br label %bb35, !dbg !3248

bb14:                                             ; preds = %bb11
  store i8 0, ptr %_56, align 1, !dbg !3231
  call void @llvm.memcpy.p0.p0.i64(ptr align 8 %k, ptr align 8 %_15, i64 24, i1 false), !dbg !3231
  store i8 0, ptr %_55, align 1, !dbg !3232
  store i8 1, ptr %_54, align 1, !dbg !3232
  %17 = getelementptr inbounds i8, ptr %_15, i64 24, !dbg !3232
  call void @llvm.memcpy.p0.p0.i64(ptr align 8 %v, ptr align 8 %17, i64 24, i1 false), !dbg !3232
  %_24 = invoke zeroext i1 @"_ZN77_$LT$alloc..string..String$u20$as$u20$core..cmp..PartialEq$LT$$RF$str$GT$$GT$2ne17h0daeb50f2ee79523E"(ptr align 8 %k, ptr align 8 %key)
          to label %bb15 unwind label %cleanup, !dbg !3249

bb13:                                             ; preds = %bb11
  store i64 -9223372036854775808, ptr %_53, align 8, !dbg !3250
  %18 = getelementptr inbounds i8, ptr %_0, i64 8, !dbg !3251
  call void @llvm.memcpy.p0.p0.i64(ptr align 8 %18, ptr align 8 %_53, i64 24, i1 false), !dbg !3251
  store i64 11, ptr %_0, align 8, !dbg !3251
  br label %bb51, !dbg !3252

bb38:                                             ; preds = %bb37, %cleanup
  invoke void @"_ZN4core3ptr42drop_in_place$LT$alloc..string..String$GT$17hb3b04e371e33c46dE"(ptr align 8 %v) #23
          to label %bb39 unwind label %terminate, !dbg !3253

cleanup:                                          ; preds = %bb19, %bb30, %bb42, %bb26, %bb27, %bb24, %bb21, %bb16, %bb20, %bb14
  %19 = landingpad { ptr, i32 }
          cleanup
  %20 = extractvalue { ptr, i32 } %19, 0
  %21 = extractvalue { ptr, i32 } %19, 1
  store ptr %20, ptr %2, align 8
  %22 = getelementptr inbounds i8, ptr %2, i64 8
  store i32 %21, ptr %22, align 8
  br label %bb38

bb15:                                             ; preds = %bb14
  br i1 %_24, label %bb16, label %bb20, !dbg !3249

bb20:                                             ; preds = %bb15
  invoke void @"_ZN8memcache8protocol5ascii45AsciiProtocol$LT$memcache..stream..Stream$GT$18parse_get_response17h4c6087d9c3c3be0aE"(ptr sret([56 x i8]) align 8 %_39, ptr align 8 %self, i1 zeroext false)
          to label %bb21 unwind label %cleanup, !dbg !3254

bb16:                                             ; preds = %bb15
  %23 = getelementptr inbounds i8, ptr %_30, i64 8, !dbg !3255
  store ptr @alloc_7e57629ddc83db8b8b209e5718511663, ptr %23, align 8, !dbg !3255
  %24 = getelementptr inbounds i8, ptr %23, i64 8, !dbg !3255
  store i64 33, ptr %24, align 8, !dbg !3255
  store i64 -9223372036854775808, ptr %_30, align 8, !dbg !3255
  %25 = getelementptr inbounds i8, ptr %_29, i64 8, !dbg !3256
  call void @llvm.memcpy.p0.p0.i64(ptr align 8 %25, ptr align 8 %_30, i64 24, i1 false), !dbg !3256
  store i8 1, ptr %_29, align 8, !dbg !3256
  %26 = getelementptr inbounds i8, ptr %_28, i64 8, !dbg !3257
  call void @llvm.memcpy.p0.p0.i64(ptr align 8 %26, ptr align 8 %_29, i64 32, i1 false), !dbg !3257
  store i64 12, ptr %_28, align 8, !dbg !3257
  invoke void @"_ZN79_$LT$core..result..Result$LT$T$C$E$GT$$u20$as$u20$core..ops..try_trait..Try$GT$6branch17h82cd69a936153d14E"(ptr sret([56 x i8]) align 8 %_27, ptr align 8 %_28)
          to label %bb17 unwind label %cleanup, !dbg !3257

bb21:                                             ; preds = %bb20
  invoke void @"_ZN79_$LT$core..result..Result$LT$T$C$E$GT$$u20$as$u20$core..ops..try_trait..Try$GT$6branch17h7139854337e717faE"(ptr sret([56 x i8]) align 8 %_38, ptr align 8 %_39)
          to label %bb22 unwind label %cleanup, !dbg !3254

bb22:                                             ; preds = %bb21
  %27 = load i64, ptr %_38, align 8, !dbg !3254
  %28 = icmp eq i64 %27, 11, !dbg !3254
  %_40 = select i1 %28, i64 0, i64 1, !dbg !3254
  %29 = icmp eq i64 %_40, 0, !dbg !3254
  br i1 %29, label %bb23, label %bb24, !dbg !3254

bb23:                                             ; preds = %bb22
  %30 = getelementptr inbounds i8, ptr %_38, i64 8, !dbg !3254
  call void @llvm.memcpy.p0.p0.i64(ptr align 8 %val4, ptr align 8 %30, i64 48, i1 false), !dbg !3254
  call void @llvm.memcpy.p0.p0.i64(ptr align 8 %_37, ptr align 8 %val4, i64 48, i1 false), !dbg !3236
  %_35 = invoke zeroext i1 @"_ZN4core6option15Option$LT$T$GT$7is_none17hf6bd791b8a78e096E"(ptr align 8 %_37)
          to label %bb25 unwind label %cleanup7, !dbg !3254

bb24:                                             ; preds = %bb22
  call void @llvm.memcpy.p0.p0.i64(ptr align 8 %residual3, ptr align 8 %_38, i64 56, i1 false), !dbg !3258
  invoke void @"_ZN153_$LT$core..result..Result$LT$T$C$F$GT$$u20$as$u20$core..ops..try_trait..FromResidual$LT$core..result..Result$LT$core..convert..Infallible$C$E$GT$$GT$$GT$13from_residual17h3cdd9a9055b80359E"(ptr sret([56 x i8]) align 8 %_0, ptr align 8 %residual3, ptr align 8 @alloc_ae52e422ab29884b58622d79788975fe)
          to label %bb53 unwind label %cleanup, !dbg !3259

bb37:                                             ; preds = %cleanup7
  invoke void @"_ZN4core3ptr102drop_in_place$LT$core..option..Option$LT$$LP$alloc..string..String$C$alloc..string..String$RP$$GT$$GT$17hd98aa248c13d9ea5E"(ptr align 8 %_37) #23
          to label %bb38 unwind label %terminate, !dbg !3260

cleanup7:                                         ; preds = %bb23
  %31 = landingpad { ptr, i32 }
          cleanup
  %32 = extractvalue { ptr, i32 } %31, 0
  %33 = extractvalue { ptr, i32 } %31, 1
  store ptr %32, ptr %2, align 8
  %34 = getelementptr inbounds i8, ptr %2, i64 8
  store i32 %33, ptr %34, align 8
  br label %bb37

bb25:                                             ; preds = %bb23
  br i1 %_35, label %bb26, label %bb27, !dbg !3254

bb27:                                             ; preds = %bb25
  invoke void @"_ZN4core3ptr102drop_in_place$LT$core..option..Option$LT$$LP$alloc..string..String$C$alloc..string..String$RP$$GT$$GT$17hd98aa248c13d9ea5E"(ptr align 8 %_37)
          to label %bb42 unwind label %cleanup, !dbg !3260

bb26:                                             ; preds = %bb25
  invoke void @"_ZN4core3ptr102drop_in_place$LT$core..option..Option$LT$$LP$alloc..string..String$C$alloc..string..String$RP$$GT$$GT$17hd98aa248c13d9ea5E"(ptr align 8 %_37)
          to label %bb41 unwind label %cleanup, !dbg !3260

bb42:                                             ; preds = %bb27
  %35 = getelementptr inbounds i8, ptr %_48, i64 8, !dbg !3261
  store ptr @alloc_93f57990a3fec9ee98f802a73f76e16f, ptr %35, align 8, !dbg !3261
  %36 = getelementptr inbounds i8, ptr %35, i64 8, !dbg !3261
  store i64 28, ptr %36, align 8, !dbg !3261
  store i64 -9223372036854775808, ptr %_48, align 8, !dbg !3261
  %37 = getelementptr inbounds i8, ptr %_47, i64 8, !dbg !3262
  call void @llvm.memcpy.p0.p0.i64(ptr align 8 %37, ptr align 8 %_48, i64 24, i1 false), !dbg !3262
  store i8 1, ptr %_47, align 8, !dbg !3262
  %38 = getelementptr inbounds i8, ptr %_46, i64 8, !dbg !3263
  call void @llvm.memcpy.p0.p0.i64(ptr align 8 %38, ptr align 8 %_47, i64 32, i1 false), !dbg !3263
  store i64 12, ptr %_46, align 8, !dbg !3263
  invoke void @"_ZN79_$LT$core..result..Result$LT$T$C$E$GT$$u20$as$u20$core..ops..try_trait..Try$GT$6branch17h82cd69a936153d14E"(ptr sret([56 x i8]) align 8 %_45, ptr align 8 %_46)
          to label %bb28 unwind label %cleanup, !dbg !3263

bb28:                                             ; preds = %bb42
  %39 = load i64, ptr %_45, align 8, !dbg !3263
  %40 = icmp eq i64 %39, 12, !dbg !3263
  %_50 = select i1 %40, i64 1, i64 0, !dbg !3263
  %41 = icmp eq i64 %_50, 0, !dbg !3263
  br i1 %41, label %bb29, label %bb30, !dbg !3263

bb29:                                             ; preds = %bb28
  call void @llvm.memcpy.p0.p0.i64(ptr align 8 %val6, ptr align 8 %_45, i64 56, i1 false), !dbg !3263
  call void @llvm.memcpy.p0.p0.i64(ptr align 8 %_0, ptr align 8 %val6, i64 56, i1 false), !dbg !3238
  br label %bb31, !dbg !3264

bb30:                                             ; preds = %bb28
  %42 = getelementptr inbounds i8, ptr %_45, i64 8, !dbg !3265
  call void @llvm.memcpy.p0.p0.i64(ptr align 8 %residual5, ptr align 8 %42, i64 32, i1 false), !dbg !3265
  invoke void @"_ZN153_$LT$core..result..Result$LT$T$C$F$GT$$u20$as$u20$core..ops..try_trait..FromResidual$LT$core..result..Result$LT$core..convert..Infallible$C$E$GT$$GT$$GT$13from_residual17h1ad98d9917a0a819E"(ptr sret([56 x i8]) align 8 %_0, ptr align 8 %residual5, ptr align 8 @alloc_ae52e422ab29884b58622d79788975fe)
          to label %bb54 unwind label %cleanup, !dbg !3266

bb31:                                             ; preds = %bb18, %bb41, %bb29
  %43 = load i8, ptr %_54, align 1, !dbg !3253
  %44 = trunc i8 %43 to i1, !dbg !3253
  br i1 %44, label %bb43, label %bb32, !dbg !3253

bb54:                                             ; preds = %bb30
  br label %bb33, !dbg !3266

bb33:                                             ; preds = %bb52, %bb53, %bb54
  invoke void @"_ZN4core3ptr42drop_in_place$LT$alloc..string..String$GT$17hb3b04e371e33c46dE"(ptr align 8 %v)
          to label %bb34 unwind label %cleanup8, !dbg !3253

bb41:                                             ; preds = %bb26
  store i8 0, ptr %_54, align 1, !dbg !3267
  call void @llvm.memcpy.p0.p0.i64(ptr align 8 %_44, ptr align 8 %v, i64 24, i1 false), !dbg !3267
  call void @llvm.memcpy.p0.p0.i64(ptr align 8 %_43, ptr align 8 %_44, i64 24, i1 false), !dbg !3268
  %45 = getelementptr inbounds i8, ptr %_0, i64 8, !dbg !3269
  call void @llvm.memcpy.p0.p0.i64(ptr align 8 %45, ptr align 8 %_43, i64 24, i1 false), !dbg !3269
  store i64 11, ptr %_0, align 8, !dbg !3269
  br label %bb31, !dbg !3264

terminate:                                        ; preds = %bb47, %bb39, %bb37, %bb38
  %46 = landingpad { ptr, i32 }
          filter [0 x ptr] zeroinitializer
  %47 = extractvalue { ptr, i32 } %46, 0
  %48 = extractvalue { ptr, i32 } %46, 1
  call void @_ZN4core9panicking16panic_in_cleanup17hdb19dc6496e5af6eE() #24, !dbg !3270
  unreachable, !dbg !3270

bb53:                                             ; preds = %bb24
  br label %bb33, !dbg !3259

bb17:                                             ; preds = %bb16
  %49 = load i64, ptr %_27, align 8, !dbg !3257
  %50 = icmp eq i64 %49, 12, !dbg !3257
  %_32 = select i1 %50, i64 1, i64 0, !dbg !3257
  %51 = icmp eq i64 %_32, 0, !dbg !3257
  br i1 %51, label %bb18, label %bb19, !dbg !3257

bb18:                                             ; preds = %bb17
  call void @llvm.memcpy.p0.p0.i64(ptr align 8 %val2, ptr align 8 %_27, i64 56, i1 false), !dbg !3257
  call void @llvm.memcpy.p0.p0.i64(ptr align 8 %_0, ptr align 8 %val2, i64 56, i1 false), !dbg !3234
  br label %bb31, !dbg !3271

bb19:                                             ; preds = %bb17
  %52 = getelementptr inbounds i8, ptr %_27, i64 8, !dbg !3272
  call void @llvm.memcpy.p0.p0.i64(ptr align 8 %residual1, ptr align 8 %52, i64 32, i1 false), !dbg !3272
  invoke void @"_ZN153_$LT$core..result..Result$LT$T$C$F$GT$$u20$as$u20$core..ops..try_trait..FromResidual$LT$core..result..Result$LT$core..convert..Infallible$C$E$GT$$GT$$GT$13from_residual17h1ad98d9917a0a819E"(ptr sret([56 x i8]) align 8 %_0, ptr align 8 %residual1, ptr align 8 @alloc_ae52e422ab29884b58622d79788975fe)
          to label %bb52 unwind label %cleanup, !dbg !3273

bb32:                                             ; preds = %bb43, %bb31
  store i8 0, ptr %_54, align 1, !dbg !3253
  call void @"_ZN4core3ptr42drop_in_place$LT$alloc..string..String$GT$17hb3b04e371e33c46dE"(ptr align 8 %k), !dbg !3253
  br label %bb51, !dbg !3253

bb43:                                             ; preds = %bb31
  invoke void @"_ZN4core3ptr42drop_in_place$LT$alloc..string..String$GT$17hb3b04e371e33c46dE"(ptr align 8 %v)
          to label %bb32 unwind label %cleanup8, !dbg !3253

bb39:                                             ; preds = %cleanup8, %bb38
  invoke void @"_ZN4core3ptr42drop_in_place$LT$alloc..string..String$GT$17hb3b04e371e33c46dE"(ptr align 8 %k) #23
          to label %bb40 unwind label %terminate, !dbg !3253

cleanup8:                                         ; preds = %bb43, %bb33
  %53 = landingpad { ptr, i32 }
          cleanup
  %54 = extractvalue { ptr, i32 } %53, 0
  %55 = extractvalue { ptr, i32 } %53, 1
  store ptr %54, ptr %2, align 8
  %56 = getelementptr inbounds i8, ptr %2, i64 8
  store i32 %55, ptr %56, align 8
  br label %bb39

bb51:                                             ; preds = %bb32, %bb13
  %57 = load i64, ptr %_15, align 8, !dbg !3274
  %58 = icmp eq i64 %57, -9223372036854775808, !dbg !3274
  %_57 = select i1 %58, i64 0, i64 1, !dbg !3274
  %59 = icmp eq i64 %_57, 1, !dbg !3274
  br i1 %59, label %bb45, label %bb44, !dbg !3274

bb52:                                             ; preds = %bb19
  br label %bb33, !dbg !3273

bb34:                                             ; preds = %bb33
  store i8 0, ptr %_54, align 1, !dbg !3253
  call void @"_ZN4core3ptr42drop_in_place$LT$alloc..string..String$GT$17hb3b04e371e33c46dE"(ptr align 8 %k), !dbg !3253
  br label %bb35, !dbg !3253

bb35:                                             ; preds = %bb34, %bb12
  store i8 0, ptr %_55, align 1, !dbg !3274
  store i8 0, ptr %_56, align 1, !dbg !3274
  br label %bb36, !dbg !3275

bb40:                                             ; preds = %bb47, %bb46, %bb39
  %60 = load ptr, ptr %2, align 8, !dbg !3270
  %61 = getelementptr inbounds i8, ptr %2, i64 8, !dbg !3270
  %62 = load i32, ptr %61, align 8, !dbg !3270
  %63 = insertvalue { ptr, i32 } poison, ptr %60, 0, !dbg !3270
  %64 = insertvalue { ptr, i32 } %63, i32 %62, 1, !dbg !3270
  resume { ptr, i32 } %64, !dbg !3270

bb45:                                             ; preds = %bb51
  %65 = load i8, ptr %_56, align 1, !dbg !3274
  %66 = trunc i8 %65 to i1, !dbg !3274
  br i1 %66, label %bb50, label %bb48, !dbg !3274

bb44:                                             ; preds = %bb49, %bb48, %bb51
  store i8 0, ptr %_55, align 1, !dbg !3274
  store i8 0, ptr %_56, align 1, !dbg !3274
  br label %bb36, !dbg !3277

bb48:                                             ; preds = %bb50, %bb45
  %67 = load i8, ptr %_55, align 1, !dbg !3274
  %68 = trunc i8 %67 to i1, !dbg !3274
  br i1 %68, label %bb49, label %bb44, !dbg !3274

bb50:                                             ; preds = %bb45
  invoke void @"_ZN4core3ptr42drop_in_place$LT$alloc..string..String$GT$17hb3b04e371e33c46dE"(ptr align 8 %_15)
          to label %bb48 unwind label %cleanup9, !dbg !3274

bb46:                                             ; preds = %cleanup9
  %69 = load i8, ptr %_55, align 1, !dbg !3274
  %70 = trunc i8 %69 to i1, !dbg !3274
  br i1 %70, label %bb47, label %bb40, !dbg !3274

cleanup9:                                         ; preds = %bb50
  %71 = landingpad { ptr, i32 }
          cleanup
  %72 = extractvalue { ptr, i32 } %71, 0
  %73 = extractvalue { ptr, i32 } %71, 1
  store ptr %72, ptr %2, align 8
  %74 = getelementptr inbounds i8, ptr %2, i64 8
  store i32 %73, ptr %74, align 8
  br label %bb46

bb49:                                             ; preds = %bb48
  %75 = getelementptr inbounds i8, ptr %_15, i64 24, !dbg !3274
  call void @"_ZN4core3ptr42drop_in_place$LT$alloc..string..String$GT$17hb3b04e371e33c46dE"(ptr align 8 %75), !dbg !3274
  br label %bb44, !dbg !3274

bb47:                                             ; preds = %bb46
  %76 = getelementptr inbounds i8, ptr %_15, i64 24, !dbg !3274
  invoke void @"_ZN4core3ptr42drop_in_place$LT$alloc..string..String$GT$17hb3b04e371e33c46dE"(ptr align 8 %76) #23
          to label %bb40 unwind label %terminate, !dbg !3274

bb36:                                             ; preds = %bb44, %bb35, %bb8
  ret void, !dbg !3277

bb6:                                              ; No predecessors!
  unreachable, !dbg !3275
}

; Function Attrs: inlinehint nonlazybind uwtable
define internal { i64, ptr } @"_ZN143_$LT$serde..de..impls..$LT$impl$u20$serde..de..Deserialize$u20$for$u20$i64$GT$..deserialize..PrimitiveVisitor$u20$as$u20$serde..de..Visitor$GT$9visit_i6417hfddc5f24b94f0de1E"(i64 %v) unnamed_addr #1 !dbg !3278 {
start:
  %self.dbg.spill = alloca [0 x i8], align 1
  %v.dbg.spill = alloca [8 x i8], align 8
  %_1.dbg.spill = alloca [0 x i8], align 1
  %_0 = alloca [16 x i8], align 8
    #dbg_declare(ptr %_1.dbg.spill, !3286, !DIExpression(), !3287)
  store i64 %v, ptr %v.dbg.spill, align 8
    #dbg_declare(ptr %v.dbg.spill, !3285, !DIExpression(), !3288)
    #dbg_declare(ptr %self.dbg.spill, !3284, !DIExpression(), !3287)
  %0 = getelementptr inbounds i8, ptr %_0, i64 8, !dbg !3289
  store i64 %v, ptr %0, align 8, !dbg !3289
  store i64 0, ptr %_0, align 8, !dbg !3289
  %1 = load i64, ptr %_0, align 8, !dbg !3290
  %2 = getelementptr inbounds i8, ptr %_0, i64 8, !dbg !3290
  %3 = load ptr, ptr %2, align 8, !dbg !3290
  %4 = insertvalue { i64, ptr } poison, i64 %1, 0, !dbg !3290
  %5 = insertvalue { i64, ptr } %4, ptr %3, 1, !dbg !3290
  ret { i64, ptr } %5, !dbg !3290
}

; Function Attrs: inlinehint nonlazybind uwtable
define internal { i64, ptr } @"_ZN143_$LT$serde..de..impls..$LT$impl$u20$serde..de..Deserialize$u20$for$u20$i64$GT$..deserialize..PrimitiveVisitor$u20$as$u20$serde..de..Visitor$GT$9visit_u6417hc2c647441bdacd86E"(i64 %v) unnamed_addr #1 !dbg !3291 {
start:
  %self.dbg.spill = alloca [0 x i8], align 1
  %v.dbg.spill = alloca [8 x i8], align 8
  %_8 = alloca [24 x i8], align 8
  %_0 = alloca [16 x i8], align 8
  %_1 = alloca [0 x i8], align 1
    #dbg_declare(ptr %_1, !3297, !DIExpression(), !3298)
  store i64 %v, ptr %v.dbg.spill, align 8
    #dbg_declare(ptr %v.dbg.spill, !3296, !DIExpression(), !3299)
    #dbg_declare(ptr %self.dbg.spill, !3295, !DIExpression(), !3298)
  %_3 = icmp ule i64 %v, 9223372036854775807, !dbg !3300
  br i1 %_3, label %bb2, label %bb3, !dbg !3300

bb3:                                              ; preds = %start
  %0 = getelementptr inbounds i8, ptr %_8, i64 8, !dbg !3301
  store i64 %v, ptr %0, align 8, !dbg !3301
  store i8 1, ptr %_8, align 8, !dbg !3301
  %_7 = call align 8 ptr @"_ZN61_$LT$serde_json..error..Error$u20$as$u20$serde..de..Error$GT$13invalid_value17he4ea66e478cb786bE"(ptr align 8 %_8, ptr align 1 %_1, ptr align 8 @vtable.0), !dbg !3302
  %1 = getelementptr inbounds i8, ptr %_0, i64 8, !dbg !3303
  store ptr %_7, ptr %1, align 8, !dbg !3303
  store i64 1, ptr %_0, align 8, !dbg !3303
  br label %bb5, !dbg !3304

bb2:                                              ; preds = %start
  %2 = getelementptr inbounds i8, ptr %_0, i64 8, !dbg !3305
  store i64 %v, ptr %2, align 8, !dbg !3305
  store i64 0, ptr %_0, align 8, !dbg !3305
  br label %bb5, !dbg !3304

bb5:                                              ; preds = %bb2, %bb3
  %3 = load i64, ptr %_0, align 8, !dbg !3306
  %4 = getelementptr inbounds i8, ptr %_0, i64 8, !dbg !3306
  %5 = load ptr, ptr %4, align 8, !dbg !3306
  %6 = insertvalue { i64, ptr } poison, i64 %3, 0, !dbg !3306
  %7 = insertvalue { i64, ptr } %6, ptr %5, 1, !dbg !3306
  ret { i64, ptr } %7, !dbg !3306
}

; Function Attrs: inlinehint nonlazybind uwtable
define internal void @"_ZN152_$LT$OpenFaaSRPC.._..$LT$impl$u20$serde..de..Deserialize$u20$for$u20$OpenFaaSRPC..Follower$GT$..deserialize..__Visitor$u20$as$u20$serde..de..Visitor$GT$9visit_map17h394770556e50837aE"(ptr sret([24 x i8]) align 8 %_0, ptr align 8 %0, i1 zeroext %1) unnamed_addr #1 personality ptr @rust_eh_personality !dbg !3307 {
start:
  %residual.dbg.spill22 = alloca [8 x i8], align 8
  %__field1.dbg.spill = alloca [8 x i8], align 8
  %residual.dbg.spill19 = alloca [8 x i8], align 8
  %val.dbg.spill17 = alloca [8 x i8], align 8
  %__field0.dbg.spill = alloca [8 x i8], align 8
  %residual.dbg.spill14 = alloca [8 x i8], align 8
  %val.dbg.spill12 = alloca [8 x i8], align 8
  %residual.dbg.spill10 = alloca [8 x i8], align 8
  %residual.dbg.spill8 = alloca [8 x i8], align 8
  %val.dbg.spill6 = alloca [8 x i8], align 8
  %residual.dbg.spill = alloca [8 x i8], align 8
  %val.dbg.spill4 = alloca [8 x i8], align 8
  %2 = alloca [16 x i8], align 8
  %val.dbg.spill = alloca [0 x i8], align 1
  %self.dbg.spill = alloca [0 x i8], align 1
  %_1.dbg.spill = alloca [0 x i8], align 1
  %_50 = alloca [16 x i8], align 8
  %__field12 = alloca [8 x i8], align 8
  %_42 = alloca [16 x i8], align 8
  %__field01 = alloca [8 x i8], align 8
  %_34 = alloca [8 x i8], align 8
  %_28 = alloca [16 x i8], align 8
  %_27 = alloca [16 x i8], align 8
  %_18 = alloca [16 x i8], align 8
  %_17 = alloca [16 x i8], align 8
  %__key = alloca [1 x i8], align 1
  %val = alloca [1 x i8], align 1
  %_6 = alloca [16 x i8], align 8
  %_5 = alloca [16 x i8], align 8
  %__field1 = alloca [16 x i8], align 8
  %__field0 = alloca [16 x i8], align 8
  %__map = alloca [16 x i8], align 8
  store ptr %0, ptr %__map, align 8
  %3 = getelementptr inbounds i8, ptr %__map, i64 8
  %4 = zext i1 %1 to i8
  store i8 %4, ptr %3, align 8
    #dbg_declare(ptr %_1.dbg.spill, !3382, !DIExpression(), !3385)
    #dbg_declare(ptr %__map, !3317, !DIExpression(), !3385)
    #dbg_declare(ptr %__field0, !3318, !DIExpression(), !3386)
    #dbg_declare(ptr %__field1, !3331, !DIExpression(), !3387)
    #dbg_declare(ptr %val, !3336, !DIExpression(), !3388)
    #dbg_declare(ptr %__key, !3351, !DIExpression(), !3389)
    #dbg_declare(ptr %__field01, !3366, !DIExpression(), !3390)
    #dbg_declare(ptr %__field12, !3374, !DIExpression(), !3391)
    #dbg_declare(ptr %self.dbg.spill, !3316, !DIExpression(), !3385)
    #dbg_declare(ptr %val.dbg.spill, !3362, !DIExpression(), !3392)
  store i64 0, ptr %__field0, align 8, !dbg !3385
  store i64 0, ptr %__field1, align 8, !dbg !3386
  br label %bb1, !dbg !3387

bb1:                                              ; preds = %bb29, %bb26, %bb18, %start
  invoke void @_ZN5serde2de9MapAccess8next_key17hd48fbd349ca70f0cE(ptr sret([16 x i8]) align 8 %_6, ptr align 8 %__map)
          to label %bb2 unwind label %cleanup, !dbg !3389

bb47:                                             ; preds = %cleanup
  %5 = load ptr, ptr %2, align 8, !dbg !3385
  %6 = getelementptr inbounds i8, ptr %2, i64 8, !dbg !3385
  %7 = load i32, ptr %6, align 8, !dbg !3385
  %8 = insertvalue { ptr, i32 } poison, ptr %5, 0, !dbg !3385
  %9 = insertvalue { ptr, i32 } %8, i32 %7, 1, !dbg !3385
  resume { ptr, i32 } %9, !dbg !3385

cleanup:                                          ; preds = %bb43, %bb40, %bb38, %bb36, %bb33, %bb31, %bb30, %bb28, %bb27, %bb24, %bb21, %bb23, %bb19, %bb16, %bb13, %bb15, %bb9, %bb10, %bb11, %bb6, %bb2, %bb1
  %10 = landingpad { ptr, i32 }
          cleanup
  %11 = extractvalue { ptr, i32 } %10, 0
  %12 = extractvalue { ptr, i32 } %10, 1
  store ptr %11, ptr %2, align 8
  %13 = getelementptr inbounds i8, ptr %2, i64 8
  store i32 %12, ptr %13, align 8
  br label %bb47

bb2:                                              ; preds = %bb1
  invoke void @"_ZN79_$LT$core..result..Result$LT$T$C$E$GT$$u20$as$u20$core..ops..try_trait..Try$GT$6branch17h20af50e9ff3f9fa1E"(ptr sret([16 x i8]) align 8 %_5, ptr align 8 %_6)
          to label %bb3 unwind label %cleanup, !dbg !3389

bb3:                                              ; preds = %bb2
  %14 = load i8, ptr %_5, align 8, !dbg !3389
  %15 = trunc i8 %14 to i1, !dbg !3389
  %_8 = zext i1 %15 to i64, !dbg !3389
  %16 = icmp eq i64 %_8, 0, !dbg !3389
  br i1 %16, label %bb5, label %bb6, !dbg !3389

bb5:                                              ; preds = %bb3
  %17 = getelementptr inbounds i8, ptr %_5, i64 1, !dbg !3389
  %18 = load i8, ptr %17, align 1, !dbg !3389
  store i8 %18, ptr %val, align 1, !dbg !3389
  %19 = load i8, ptr %val, align 1, !dbg !3389
  %20 = icmp eq i8 %19, 3, !dbg !3389
  %_11 = select i1 %20, i64 0, i64 1, !dbg !3389
  %21 = icmp eq i64 %_11, 1, !dbg !3389
  br i1 %21, label %bb8, label %bb7, !dbg !3389

bb6:                                              ; preds = %bb3
  %22 = getelementptr inbounds i8, ptr %_5, i64 8, !dbg !3393
  %residual21 = load ptr, ptr %22, align 8, !dbg !3393
  store ptr %residual21, ptr %residual.dbg.spill22, align 8, !dbg !3393
    #dbg_declare(ptr %residual.dbg.spill22, !3333, !DIExpression(), !3394)
  invoke void @"_ZN153_$LT$core..result..Result$LT$T$C$F$GT$$u20$as$u20$core..ops..try_trait..FromResidual$LT$core..result..Result$LT$core..convert..Infallible$C$E$GT$$GT$$GT$13from_residual17h2eb3e20c0bbe22c1E"(ptr sret([24 x i8]) align 8 %_0, ptr align 8 %residual21, ptr align 8 @alloc_ae52e422ab29884b58622d79788975fe)
          to label %bb49 unwind label %cleanup, !dbg !3395

bb8:                                              ; preds = %bb5
  %23 = load i8, ptr %val, align 1, !dbg !3389
  store i8 %23, ptr %__key, align 1, !dbg !3389
  %24 = load i8, ptr %__key, align 1, !dbg !3389
  %_13 = zext i8 %24 to i64, !dbg !3389
  switch i64 %_13, label %bb4 [
    i64 0, label %bb11
    i64 1, label %bb10
    i64 2, label %bb9
  ], !dbg !3389

bb7:                                              ; preds = %bb5
  %_40 = load i64, ptr %__field0, align 8, !dbg !3387
  %25 = icmp eq i64 %_40, 0, !dbg !3387
  br i1 %25, label %bb31, label %bb32, !dbg !3387

bb4:                                              ; preds = %bb8
  unreachable, !dbg !3396

bb11:                                             ; preds = %bb8
  %_14 = invoke zeroext i1 @"_ZN4core6option15Option$LT$T$GT$7is_some17ha6daa54fd618d770E"(ptr align 8 %__field0)
          to label %bb12 unwind label %cleanup, !dbg !3389

bb10:                                             ; preds = %bb8
  %_24 = invoke zeroext i1 @"_ZN4core6option15Option$LT$T$GT$7is_some17ha6daa54fd618d770E"(ptr align 8 %__field1)
          to label %bb20 unwind label %cleanup, !dbg !3389

bb9:                                              ; preds = %bb8
  %_35 = invoke align 8 ptr @_ZN5serde2de9MapAccess10next_value17h79e0e12a54919e9eE(ptr align 8 %__map)
          to label %bb28 unwind label %cleanup, !dbg !3389

bb12:                                             ; preds = %bb11
  br i1 %_14, label %bb13, label %bb15, !dbg !3389

bb15:                                             ; preds = %bb12
  %26 = invoke { i64, ptr } @_ZN5serde2de9MapAccess10next_value17hb95f594748689775E(ptr align 8 %__map)
          to label %bb16 unwind label %cleanup, !dbg !3389

bb13:                                             ; preds = %bb12
  %_16 = invoke align 8 ptr @_ZN5serde2de5Error15duplicate_field17h2d1f650a3b3a2aa9E(ptr align 1 @alloc_5e5d0fc3969e190d5b793845b4d75f83, i64 11)
          to label %bb14 unwind label %cleanup, !dbg !3389

bb16:                                             ; preds = %bb15
  %_19.0 = extractvalue { i64, ptr } %26, 0, !dbg !3389
  %_19.1 = extractvalue { i64, ptr } %26, 1, !dbg !3389
  %27 = invoke { i64, ptr } @"_ZN79_$LT$core..result..Result$LT$T$C$E$GT$$u20$as$u20$core..ops..try_trait..Try$GT$6branch17h3bcdcb743ef3f7bfE"(i64 %_19.0, ptr %_19.1)
          to label %bb17 unwind label %cleanup, !dbg !3389

bb17:                                             ; preds = %bb16
  %28 = extractvalue { i64, ptr } %27, 0, !dbg !3389
  %29 = extractvalue { i64, ptr } %27, 1, !dbg !3389
  store i64 %28, ptr %_18, align 8, !dbg !3389
  %30 = getelementptr inbounds i8, ptr %_18, i64 8, !dbg !3389
  store ptr %29, ptr %30, align 8, !dbg !3389
  %_21 = load i64, ptr %_18, align 8, !dbg !3389
  %31 = icmp eq i64 %_21, 0, !dbg !3389
  br i1 %31, label %bb18, label %bb19, !dbg !3389

bb18:                                             ; preds = %bb17
  %32 = getelementptr inbounds i8, ptr %_18, i64 8, !dbg !3389
  %val3 = load i64, ptr %32, align 8, !dbg !3389
  store i64 %val3, ptr %val.dbg.spill4, align 8, !dbg !3389
    #dbg_declare(ptr %val.dbg.spill4, !3354, !DIExpression(), !3398)
  %33 = getelementptr inbounds i8, ptr %_17, i64 8, !dbg !3389
  store i64 %val3, ptr %33, align 8, !dbg !3389
  store i64 1, ptr %_17, align 8, !dbg !3389
  %34 = load i64, ptr %_17, align 8, !dbg !3389
  %35 = getelementptr inbounds i8, ptr %_17, i64 8, !dbg !3389
  %36 = load i64, ptr %35, align 8, !dbg !3389
  store i64 %34, ptr %__field0, align 8, !dbg !3389
  %37 = getelementptr inbounds i8, ptr %__field0, i64 8, !dbg !3389
  store i64 %36, ptr %37, align 8, !dbg !3389
  br label %bb1, !dbg !3389

bb19:                                             ; preds = %bb17
  %38 = getelementptr inbounds i8, ptr %_18, i64 8, !dbg !3393
  %residual = load ptr, ptr %38, align 8, !dbg !3393
  store ptr %residual, ptr %residual.dbg.spill, align 8, !dbg !3393
    #dbg_declare(ptr %residual.dbg.spill, !3352, !DIExpression(), !3399)
  invoke void @"_ZN153_$LT$core..result..Result$LT$T$C$F$GT$$u20$as$u20$core..ops..try_trait..FromResidual$LT$core..result..Result$LT$core..convert..Infallible$C$E$GT$$GT$$GT$13from_residual17h2eb3e20c0bbe22c1E"(ptr sret([24 x i8]) align 8 %_0, ptr align 8 %residual, ptr align 8 @alloc_ae52e422ab29884b58622d79788975fe)
          to label %bb50 unwind label %cleanup, !dbg !3400

bb50:                                             ; preds = %bb19
  br label %bb45, !dbg !3400

bb45:                                             ; preds = %bb49, %bb54, %bb53, %bb52, %bb22, %bb51, %bb14, %bb50
  br label %bb46, !dbg !3401

bb14:                                             ; preds = %bb13
  %39 = getelementptr inbounds i8, ptr %_0, i64 8, !dbg !3389
  store ptr %_16, ptr %39, align 8, !dbg !3389
  store i64 1, ptr %_0, align 8, !dbg !3389
  br label %bb45, !dbg !3402

bb20:                                             ; preds = %bb10
  br i1 %_24, label %bb21, label %bb23, !dbg !3389

bb23:                                             ; preds = %bb20
  %40 = invoke { i64, ptr } @_ZN5serde2de9MapAccess10next_value17hb95f594748689775E(ptr align 8 %__map)
          to label %bb24 unwind label %cleanup, !dbg !3389

bb21:                                             ; preds = %bb20
  %_26 = invoke align 8 ptr @_ZN5serde2de5Error15duplicate_field17h2d1f650a3b3a2aa9E(ptr align 1 @alloc_5e776ce52c9f5c81d68da620afd2d199, i64 9)
          to label %bb22 unwind label %cleanup, !dbg !3389

bb24:                                             ; preds = %bb23
  %_29.0 = extractvalue { i64, ptr } %40, 0, !dbg !3389
  %_29.1 = extractvalue { i64, ptr } %40, 1, !dbg !3389
  %41 = invoke { i64, ptr } @"_ZN79_$LT$core..result..Result$LT$T$C$E$GT$$u20$as$u20$core..ops..try_trait..Try$GT$6branch17h3bcdcb743ef3f7bfE"(i64 %_29.0, ptr %_29.1)
          to label %bb25 unwind label %cleanup, !dbg !3389

bb25:                                             ; preds = %bb24
  %42 = extractvalue { i64, ptr } %41, 0, !dbg !3389
  %43 = extractvalue { i64, ptr } %41, 1, !dbg !3389
  store i64 %42, ptr %_28, align 8, !dbg !3389
  %44 = getelementptr inbounds i8, ptr %_28, i64 8, !dbg !3389
  store ptr %43, ptr %44, align 8, !dbg !3389
  %_31 = load i64, ptr %_28, align 8, !dbg !3389
  %45 = icmp eq i64 %_31, 0, !dbg !3389
  br i1 %45, label %bb26, label %bb27, !dbg !3389

bb26:                                             ; preds = %bb25
  %46 = getelementptr inbounds i8, ptr %_28, i64 8, !dbg !3389
  %val5 = load i64, ptr %46, align 8, !dbg !3389
  store i64 %val5, ptr %val.dbg.spill6, align 8, !dbg !3389
    #dbg_declare(ptr %val.dbg.spill6, !3358, !DIExpression(), !3404)
  %47 = getelementptr inbounds i8, ptr %_27, i64 8, !dbg !3389
  store i64 %val5, ptr %47, align 8, !dbg !3389
  store i64 1, ptr %_27, align 8, !dbg !3389
  %48 = load i64, ptr %_27, align 8, !dbg !3389
  %49 = getelementptr inbounds i8, ptr %_27, i64 8, !dbg !3389
  %50 = load i64, ptr %49, align 8, !dbg !3389
  store i64 %48, ptr %__field1, align 8, !dbg !3389
  %51 = getelementptr inbounds i8, ptr %__field1, i64 8, !dbg !3389
  store i64 %50, ptr %51, align 8, !dbg !3389
  br label %bb1, !dbg !3389

bb27:                                             ; preds = %bb25
  %52 = getelementptr inbounds i8, ptr %_28, i64 8, !dbg !3393
  %residual7 = load ptr, ptr %52, align 8, !dbg !3393
  store ptr %residual7, ptr %residual.dbg.spill8, align 8, !dbg !3393
    #dbg_declare(ptr %residual.dbg.spill8, !3356, !DIExpression(), !3405)
  invoke void @"_ZN153_$LT$core..result..Result$LT$T$C$F$GT$$u20$as$u20$core..ops..try_trait..FromResidual$LT$core..result..Result$LT$core..convert..Infallible$C$E$GT$$GT$$GT$13from_residual17h2eb3e20c0bbe22c1E"(ptr sret([24 x i8]) align 8 %_0, ptr align 8 %residual7, ptr align 8 @alloc_ae52e422ab29884b58622d79788975fe)
          to label %bb51 unwind label %cleanup, !dbg !3406

bb51:                                             ; preds = %bb27
  br label %bb45, !dbg !3406

bb22:                                             ; preds = %bb21
  %53 = getelementptr inbounds i8, ptr %_0, i64 8, !dbg !3389
  store ptr %_26, ptr %53, align 8, !dbg !3389
  store i64 1, ptr %_0, align 8, !dbg !3389
  br label %bb45, !dbg !3402

bb28:                                             ; preds = %bb9
  %54 = invoke align 8 ptr @"_ZN79_$LT$core..result..Result$LT$T$C$E$GT$$u20$as$u20$core..ops..try_trait..Try$GT$6branch17hc26c71af1167a9cfE"(ptr align 8 %_35)
          to label %bb29 unwind label %cleanup, !dbg !3389

bb29:                                             ; preds = %bb28
  store ptr %54, ptr %_34, align 8, !dbg !3389
  %55 = load ptr, ptr %_34, align 8, !dbg !3389
  %56 = ptrtoint ptr %55 to i64, !dbg !3389
  %57 = icmp eq i64 %56, 0, !dbg !3389
  %_37 = select i1 %57, i64 0, i64 1, !dbg !3389
  %58 = icmp eq i64 %_37, 0, !dbg !3389
  br i1 %58, label %bb1, label %bb30, !dbg !3389

bb30:                                             ; preds = %bb29
  %residual9 = load ptr, ptr %_34, align 8, !dbg !3393
  store ptr %residual9, ptr %residual.dbg.spill10, align 8, !dbg !3393
    #dbg_declare(ptr %residual.dbg.spill10, !3360, !DIExpression(), !3407)
  invoke void @"_ZN153_$LT$core..result..Result$LT$T$C$F$GT$$u20$as$u20$core..ops..try_trait..FromResidual$LT$core..result..Result$LT$core..convert..Infallible$C$E$GT$$GT$$GT$13from_residual17h2eb3e20c0bbe22c1E"(ptr sret([24 x i8]) align 8 %_0, ptr align 8 %residual9, ptr align 8 @alloc_ae52e422ab29884b58622d79788975fe)
          to label %bb52 unwind label %cleanup, !dbg !3408

bb52:                                             ; preds = %bb30
  br label %bb45, !dbg !3408

bb31:                                             ; preds = %bb7
  %59 = invoke { i64, ptr } @_ZN5serde9__private2de13missing_field17h6ad0af5ebef2a4fcE(ptr align 1 @alloc_5e5d0fc3969e190d5b793845b4d75f83, i64 11)
          to label %bb33 unwind label %cleanup, !dbg !3387

bb32:                                             ; preds = %bb7
  %60 = getelementptr inbounds i8, ptr %__field0, i64 8, !dbg !3387
  %__field015 = load i64, ptr %60, align 8, !dbg !3387
  store i64 %__field015, ptr %__field0.dbg.spill, align 8, !dbg !3387
    #dbg_declare(ptr %__field0.dbg.spill, !3368, !DIExpression(), !3409)
  store i64 %__field015, ptr %__field01, align 8, !dbg !3409
  br label %bb37, !dbg !3410

bb33:                                             ; preds = %bb31
  %_43.0 = extractvalue { i64, ptr } %59, 0, !dbg !3387
  %_43.1 = extractvalue { i64, ptr } %59, 1, !dbg !3387
  %61 = invoke { i64, ptr } @"_ZN79_$LT$core..result..Result$LT$T$C$E$GT$$u20$as$u20$core..ops..try_trait..Try$GT$6branch17h3bcdcb743ef3f7bfE"(i64 %_43.0, ptr %_43.1)
          to label %bb34 unwind label %cleanup, !dbg !3387

bb34:                                             ; preds = %bb33
  %62 = extractvalue { i64, ptr } %61, 0, !dbg !3387
  %63 = extractvalue { i64, ptr } %61, 1, !dbg !3387
  store i64 %62, ptr %_42, align 8, !dbg !3387
  %64 = getelementptr inbounds i8, ptr %_42, i64 8, !dbg !3387
  store ptr %63, ptr %64, align 8, !dbg !3387
  %_44 = load i64, ptr %_42, align 8, !dbg !3387
  %65 = icmp eq i64 %_44, 0, !dbg !3387
  br i1 %65, label %bb35, label %bb36, !dbg !3387

bb35:                                             ; preds = %bb34
  %66 = getelementptr inbounds i8, ptr %_42, i64 8, !dbg !3387
  %val11 = load i64, ptr %66, align 8, !dbg !3387
  store i64 %val11, ptr %val.dbg.spill12, align 8, !dbg !3387
    #dbg_declare(ptr %val.dbg.spill12, !3372, !DIExpression(), !3411)
  store i64 %val11, ptr %__field01, align 8, !dbg !3411
  br label %bb37, !dbg !3410

bb36:                                             ; preds = %bb34
  %67 = getelementptr inbounds i8, ptr %_42, i64 8, !dbg !3410
  %residual13 = load ptr, ptr %67, align 8, !dbg !3410
  store ptr %residual13, ptr %residual.dbg.spill14, align 8, !dbg !3410
    #dbg_declare(ptr %residual.dbg.spill14, !3370, !DIExpression(), !3412)
  invoke void @"_ZN153_$LT$core..result..Result$LT$T$C$F$GT$$u20$as$u20$core..ops..try_trait..FromResidual$LT$core..result..Result$LT$core..convert..Infallible$C$E$GT$$GT$$GT$13from_residual17h2eb3e20c0bbe22c1E"(ptr sret([24 x i8]) align 8 %_0, ptr align 8 %residual13, ptr align 8 @alloc_ae52e422ab29884b58622d79788975fe)
          to label %bb53 unwind label %cleanup, !dbg !3413

bb37:                                             ; preds = %bb35, %bb32
  %_48 = load i64, ptr %__field1, align 8, !dbg !3390
  %68 = icmp eq i64 %_48, 0, !dbg !3390
  br i1 %68, label %bb38, label %bb39, !dbg !3390

bb53:                                             ; preds = %bb36
  br label %bb45, !dbg !3413

bb38:                                             ; preds = %bb37
  %69 = invoke { i64, ptr } @_ZN5serde9__private2de13missing_field17h6ad0af5ebef2a4fcE(ptr align 1 @alloc_5e776ce52c9f5c81d68da620afd2d199, i64 9)
          to label %bb40 unwind label %cleanup, !dbg !3390

bb39:                                             ; preds = %bb37
  %70 = getelementptr inbounds i8, ptr %__field1, i64 8, !dbg !3390
  %__field120 = load i64, ptr %70, align 8, !dbg !3390
  store i64 %__field120, ptr %__field1.dbg.spill, align 8, !dbg !3390
    #dbg_declare(ptr %__field1.dbg.spill, !3376, !DIExpression(), !3414)
  store i64 %__field120, ptr %__field12, align 8, !dbg !3414
  br label %bb44, !dbg !3415

bb40:                                             ; preds = %bb38
  %_51.0 = extractvalue { i64, ptr } %69, 0, !dbg !3390
  %_51.1 = extractvalue { i64, ptr } %69, 1, !dbg !3390
  %71 = invoke { i64, ptr } @"_ZN79_$LT$core..result..Result$LT$T$C$E$GT$$u20$as$u20$core..ops..try_trait..Try$GT$6branch17h3bcdcb743ef3f7bfE"(i64 %_51.0, ptr %_51.1)
          to label %bb41 unwind label %cleanup, !dbg !3390

bb41:                                             ; preds = %bb40
  %72 = extractvalue { i64, ptr } %71, 0, !dbg !3390
  %73 = extractvalue { i64, ptr } %71, 1, !dbg !3390
  store i64 %72, ptr %_50, align 8, !dbg !3390
  %74 = getelementptr inbounds i8, ptr %_50, i64 8, !dbg !3390
  store ptr %73, ptr %74, align 8, !dbg !3390
  %_52 = load i64, ptr %_50, align 8, !dbg !3390
  %75 = icmp eq i64 %_52, 0, !dbg !3390
  br i1 %75, label %bb42, label %bb43, !dbg !3390

bb42:                                             ; preds = %bb41
  %76 = getelementptr inbounds i8, ptr %_50, i64 8, !dbg !3390
  %val16 = load i64, ptr %76, align 8, !dbg !3390
  store i64 %val16, ptr %val.dbg.spill17, align 8, !dbg !3390
    #dbg_declare(ptr %val.dbg.spill17, !3380, !DIExpression(), !3416)
  store i64 %val16, ptr %__field12, align 8, !dbg !3416
  br label %bb44, !dbg !3415

bb43:                                             ; preds = %bb41
  %77 = getelementptr inbounds i8, ptr %_50, i64 8, !dbg !3415
  %residual18 = load ptr, ptr %77, align 8, !dbg !3415
  store ptr %residual18, ptr %residual.dbg.spill19, align 8, !dbg !3415
    #dbg_declare(ptr %residual.dbg.spill19, !3378, !DIExpression(), !3417)
  invoke void @"_ZN153_$LT$core..result..Result$LT$T$C$F$GT$$u20$as$u20$core..ops..try_trait..FromResidual$LT$core..result..Result$LT$core..convert..Infallible$C$E$GT$$GT$$GT$13from_residual17h2eb3e20c0bbe22c1E"(ptr sret([24 x i8]) align 8 %_0, ptr align 8 %residual18, ptr align 8 @alloc_ae52e422ab29884b58622d79788975fe)
          to label %bb54 unwind label %cleanup, !dbg !3418

bb44:                                             ; preds = %bb42, %bb39
  %_56 = load i64, ptr %__field01, align 8, !dbg !3391
  %_57 = load i64, ptr %__field12, align 8, !dbg !3391
  %78 = getelementptr inbounds i8, ptr %_0, i64 8, !dbg !3391
  store i64 %_56, ptr %78, align 8, !dbg !3391
  %79 = getelementptr inbounds i8, ptr %78, i64 8, !dbg !3391
  store i64 %_57, ptr %79, align 8, !dbg !3391
  store i64 0, ptr %_0, align 8, !dbg !3391
  br label %bb46, !dbg !3401

bb54:                                             ; preds = %bb43
  br label %bb45, !dbg !3418

bb46:                                             ; preds = %bb44, %bb45
  ret void, !dbg !3419

bb49:                                             ; preds = %bb6
  br label %bb45, !dbg !3395
}

; Function Attrs: inlinehint nonlazybind uwtable
define internal void @"_ZN152_$LT$OpenFaaSRPC.._..$LT$impl$u20$serde..de..Deserialize$u20$for$u20$OpenFaaSRPC..Follower$GT$..deserialize..__Visitor$u20$as$u20$serde..de..Visitor$GT$9visit_seq17h375a60bd7d0ff4b0E"(ptr sret([24 x i8]) align 8 %_0, ptr align 8 %0, i1 zeroext %1) unnamed_addr #1 personality ptr @rust_eh_personality !dbg !3420 {
start:
  %residual.dbg.spill3 = alloca [8 x i8], align 8
  %residual.dbg.spill = alloca [8 x i8], align 8
  %__field1.dbg.spill = alloca [8 x i8], align 8
  %__field0.dbg.spill = alloca [8 x i8], align 8
  %2 = alloca [16 x i8], align 8
  %self.dbg.spill = alloca [0 x i8], align 1
  %_1.dbg.spill = alloca [0 x i8], align 1
  %val1 = alloca [16 x i8], align 8
  %_15 = alloca [16 x i8], align 8
  %_14 = alloca [16 x i8], align 8
  %val = alloca [16 x i8], align 8
  %_4 = alloca [16 x i8], align 8
  %_3 = alloca [16 x i8], align 8
  %__seq = alloca [16 x i8], align 8
  store ptr %0, ptr %__seq, align 8
  %3 = getelementptr inbounds i8, ptr %__seq, i64 8
  %4 = zext i1 %1 to i8
  store i8 %4, ptr %3, align 8
    #dbg_declare(ptr %_1.dbg.spill, !3446, !DIExpression(), !3449)
    #dbg_declare(ptr %__seq, !3429, !DIExpression(), !3449)
    #dbg_declare(ptr %val, !3434, !DIExpression(), !3450)
    #dbg_declare(ptr %val1, !3442, !DIExpression(), !3451)
    #dbg_declare(ptr %self.dbg.spill, !3428, !DIExpression(), !3449)
  invoke void @_ZN5serde2de9SeqAccess12next_element17h9ee06a18382d4929E(ptr sret([16 x i8]) align 8 %_4, ptr align 8 %__seq)
          to label %bb1 unwind label %cleanup, !dbg !3449

bb18:                                             ; preds = %cleanup
  %5 = load ptr, ptr %2, align 8, !dbg !3449
  %6 = getelementptr inbounds i8, ptr %2, i64 8, !dbg !3449
  %7 = load i32, ptr %6, align 8, !dbg !3449
  %8 = insertvalue { ptr, i32 } poison, ptr %5, 0, !dbg !3449
  %9 = insertvalue { ptr, i32 } %8, i32 %7, 1, !dbg !3449
  resume { ptr, i32 } %9, !dbg !3449

cleanup:                                          ; preds = %bb13, %bb12, %bb9, %bb7, %bb6, %bb5, %bb1, %start
  %10 = landingpad { ptr, i32 }
          cleanup
  %11 = extractvalue { ptr, i32 } %10, 0
  %12 = extractvalue { ptr, i32 } %10, 1
  store ptr %11, ptr %2, align 8
  %13 = getelementptr inbounds i8, ptr %2, i64 8
  store i32 %12, ptr %13, align 8
  br label %bb18

bb1:                                              ; preds = %start
  invoke void @"_ZN79_$LT$core..result..Result$LT$T$C$E$GT$$u20$as$u20$core..ops..try_trait..Try$GT$6branch17h605e98011f08ed54E"(ptr sret([16 x i8]) align 8 %_3, ptr align 8 %_4)
          to label %bb2 unwind label %cleanup, !dbg !3449

bb2:                                              ; preds = %bb1
  %14 = load i64, ptr %_3, align 8, !dbg !3449
  %15 = icmp eq i64 %14, 2, !dbg !3449
  %_6 = select i1 %15, i64 1, i64 0, !dbg !3449
  %16 = icmp eq i64 %_6, 0, !dbg !3449
  br i1 %16, label %bb4, label %bb5, !dbg !3449

bb4:                                              ; preds = %bb2
  %17 = load i64, ptr %_3, align 8, !dbg !3449
  %18 = getelementptr inbounds i8, ptr %_3, i64 8, !dbg !3449
  %19 = load i64, ptr %18, align 8, !dbg !3449
  store i64 %17, ptr %val, align 8, !dbg !3449
  %20 = getelementptr inbounds i8, ptr %val, i64 8, !dbg !3449
  store i64 %19, ptr %20, align 8, !dbg !3449
  %_9 = load i64, ptr %val, align 8, !dbg !3449
  %21 = icmp eq i64 %_9, 0, !dbg !3449
  br i1 %21, label %bb6, label %bb7, !dbg !3449

bb5:                                              ; preds = %bb2
  %22 = getelementptr inbounds i8, ptr %_3, i64 8, !dbg !3452
  %residual2 = load ptr, ptr %22, align 8, !dbg !3452
  store ptr %residual2, ptr %residual.dbg.spill3, align 8, !dbg !3452
    #dbg_declare(ptr %residual.dbg.spill3, !3432, !DIExpression(), !3453)
  invoke void @"_ZN153_$LT$core..result..Result$LT$T$C$F$GT$$u20$as$u20$core..ops..try_trait..FromResidual$LT$core..result..Result$LT$core..convert..Infallible$C$E$GT$$GT$$GT$13from_residual17h2eb3e20c0bbe22c1E"(ptr sret([24 x i8]) align 8 %_0, ptr align 8 %residual2, ptr align 8 @alloc_ae52e422ab29884b58622d79788975fe)
          to label %bb20 unwind label %cleanup, !dbg !3454

bb6:                                              ; preds = %bb4
  %_11 = invoke align 8 ptr @_ZN5serde2de5Error14invalid_length17h4d5b955af17b462eE(i64 0, ptr align 1 @alloc_65ff3fd662cc16f39ef2ec386f6a7101, ptr align 8 @vtable.1)
          to label %bb8 unwind label %cleanup, !dbg !3449

bb7:                                              ; preds = %bb4
  %23 = getelementptr inbounds i8, ptr %val, i64 8, !dbg !3449
  %__field0 = load i64, ptr %23, align 8, !dbg !3449
  store i64 %__field0, ptr %__field0.dbg.spill, align 8, !dbg !3449
    #dbg_declare(ptr %__field0.dbg.spill, !3430, !DIExpression(), !3455)
    #dbg_declare(ptr %__field0.dbg.spill, !3436, !DIExpression(), !3456)
  invoke void @_ZN5serde2de9SeqAccess12next_element17h9ee06a18382d4929E(ptr sret([16 x i8]) align 8 %_15, ptr align 8 %__seq)
          to label %bb9 unwind label %cleanup, !dbg !3455

bb8:                                              ; preds = %bb6
  %24 = getelementptr inbounds i8, ptr %_0, i64 8, !dbg !3449
  store ptr %_11, ptr %24, align 8, !dbg !3449
  store i64 1, ptr %_0, align 8, !dbg !3449
  br label %bb16, !dbg !3457

bb16:                                             ; preds = %bb20, %bb21, %bb15, %bb8
  br label %bb17, !dbg !3452

bb9:                                              ; preds = %bb7
  invoke void @"_ZN79_$LT$core..result..Result$LT$T$C$E$GT$$u20$as$u20$core..ops..try_trait..Try$GT$6branch17h605e98011f08ed54E"(ptr sret([16 x i8]) align 8 %_14, ptr align 8 %_15)
          to label %bb10 unwind label %cleanup, !dbg !3455

bb10:                                             ; preds = %bb9
  %25 = load i64, ptr %_14, align 8, !dbg !3455
  %26 = icmp eq i64 %25, 2, !dbg !3455
  %_17 = select i1 %26, i64 1, i64 0, !dbg !3455
  %27 = icmp eq i64 %_17, 0, !dbg !3455
  br i1 %27, label %bb11, label %bb12, !dbg !3455

bb11:                                             ; preds = %bb10
  %28 = load i64, ptr %_14, align 8, !dbg !3455
  %29 = getelementptr inbounds i8, ptr %_14, i64 8, !dbg !3455
  %30 = load i64, ptr %29, align 8, !dbg !3455
  store i64 %28, ptr %val1, align 8, !dbg !3455
  %31 = getelementptr inbounds i8, ptr %val1, i64 8, !dbg !3455
  store i64 %30, ptr %31, align 8, !dbg !3455
  %_20 = load i64, ptr %val1, align 8, !dbg !3455
  %32 = icmp eq i64 %_20, 0, !dbg !3455
  br i1 %32, label %bb13, label %bb14, !dbg !3455

bb12:                                             ; preds = %bb10
  %33 = getelementptr inbounds i8, ptr %_14, i64 8, !dbg !3459
  %residual = load ptr, ptr %33, align 8, !dbg !3459
  store ptr %residual, ptr %residual.dbg.spill, align 8, !dbg !3459
    #dbg_declare(ptr %residual.dbg.spill, !3440, !DIExpression(), !3460)
  invoke void @"_ZN153_$LT$core..result..Result$LT$T$C$F$GT$$u20$as$u20$core..ops..try_trait..FromResidual$LT$core..result..Result$LT$core..convert..Infallible$C$E$GT$$GT$$GT$13from_residual17h2eb3e20c0bbe22c1E"(ptr sret([24 x i8]) align 8 %_0, ptr align 8 %residual, ptr align 8 @alloc_ae52e422ab29884b58622d79788975fe)
          to label %bb21 unwind label %cleanup, !dbg !3461

bb13:                                             ; preds = %bb11
  %_22 = invoke align 8 ptr @_ZN5serde2de5Error14invalid_length17h4d5b955af17b462eE(i64 1, ptr align 1 @alloc_65ff3fd662cc16f39ef2ec386f6a7101, ptr align 8 @vtable.1)
          to label %bb15 unwind label %cleanup, !dbg !3455

bb14:                                             ; preds = %bb11
  %34 = getelementptr inbounds i8, ptr %val1, i64 8, !dbg !3455
  %__field1 = load i64, ptr %34, align 8, !dbg !3455
  store i64 %__field1, ptr %__field1.dbg.spill, align 8, !dbg !3455
    #dbg_declare(ptr %__field1.dbg.spill, !3438, !DIExpression(), !3462)
    #dbg_declare(ptr %__field1.dbg.spill, !3444, !DIExpression(), !3463)
  %35 = getelementptr inbounds i8, ptr %_0, i64 8, !dbg !3462
  store i64 %__field0, ptr %35, align 8, !dbg !3462
  %36 = getelementptr inbounds i8, ptr %35, i64 8, !dbg !3462
  store i64 %__field1, ptr %36, align 8, !dbg !3462
  store i64 0, ptr %_0, align 8, !dbg !3462
  br label %bb17, !dbg !3452

bb15:                                             ; preds = %bb13
  %37 = getelementptr inbounds i8, ptr %_0, i64 8, !dbg !3455
  store ptr %_22, ptr %37, align 8, !dbg !3455
  store i64 1, ptr %_0, align 8, !dbg !3455
  br label %bb16, !dbg !3464

bb17:                                             ; preds = %bb14, %bb16
  ret void, !dbg !3466

bb21:                                             ; preds = %bb12
  br label %bb16, !dbg !3461

bb20:                                             ; preds = %bb5
  br label %bb16, !dbg !3454

bb3:                                              ; No predecessors!
  unreachable, !dbg !3457
}

; Function Attrs: inlinehint nonlazybind uwtable
define internal void @"_ZN153_$LT$core..result..Result$LT$T$C$F$GT$$u20$as$u20$core..ops..try_trait..FromResidual$LT$core..result..Result$LT$core..convert..Infallible$C$E$GT$$GT$$GT$13from_residual17h1ad98d9917a0a819E"(ptr sret([56 x i8]) align 8 %_0, ptr align 8 %residual, ptr align 8 %0) unnamed_addr #1 !dbg !3467 {
start:
  %_3 = alloca [56 x i8], align 8
  %e = alloca [32 x i8], align 8
    #dbg_declare(ptr %residual, !3481, !DIExpression(), !3486)
    #dbg_declare(ptr %e, !3482, !DIExpression(), !3487)
  call void @llvm.memcpy.p0.p0.i64(ptr align 8 %e, ptr align 8 %residual, i64 32, i1 false), !dbg !3488
  call void @"_ZN106_$LT$memcache..error..MemcacheError$u20$as$u20$core..convert..From$LT$memcache..error..ServerError$GT$$GT$4from17h9f83469b0ef0e1e2E"(ptr sret([56 x i8]) align 8 %_3, ptr align 8 %e), !dbg !3489
  call void @llvm.memcpy.p0.p0.i64(ptr align 8 %_0, ptr align 8 %_3, i64 56, i1 false), !dbg !3490
  ret void, !dbg !3491
}

; Function Attrs: inlinehint nonlazybind uwtable
define internal void @"_ZN153_$LT$core..result..Result$LT$T$C$F$GT$$u20$as$u20$core..ops..try_trait..FromResidual$LT$core..result..Result$LT$core..convert..Infallible$C$E$GT$$GT$$GT$13from_residual17h299f2a16641d5a3cE"(ptr sret([64 x i8]) align 8 %_0, ptr align 8 %residual, ptr align 8 %0) unnamed_addr #1 !dbg !3492 {
start:
  %_3 = alloca [56 x i8], align 8
  %e = alloca [24 x i8], align 8
    #dbg_declare(ptr %residual, !3557, !DIExpression(), !3561)
    #dbg_declare(ptr %e, !3558, !DIExpression(), !3562)
  call void @llvm.memcpy.p0.p0.i64(ptr align 8 %e, ptr align 8 %residual, i64 24, i1 false), !dbg !3563
  call void @"_ZN106_$LT$memcache..error..MemcacheError$u20$as$u20$core..convert..From$LT$memcache..error..ClientError$GT$$GT$4from17h5191bfc33ab0617cE"(ptr sret([56 x i8]) align 8 %_3, ptr align 8 %e), !dbg !3564
  %1 = getelementptr inbounds i8, ptr %_0, i64 8, !dbg !3565
  call void @llvm.memcpy.p0.p0.i64(ptr align 8 %1, ptr align 8 %_3, i64 56, i1 false), !dbg !3565
  store i64 1, ptr %_0, align 8, !dbg !3565
  ret void, !dbg !3566
}

; Function Attrs: inlinehint nonlazybind uwtable
define internal void @"_ZN153_$LT$core..result..Result$LT$T$C$F$GT$$u20$as$u20$core..ops..try_trait..FromResidual$LT$core..result..Result$LT$core..convert..Infallible$C$E$GT$$GT$$GT$13from_residual17h2ae333c32bcf7b43E"(ptr sret([56 x i8]) align 8 %_0, i8 %0, ptr align 8 %1) unnamed_addr #1 !dbg !3567 {
start:
  %e.dbg.spill = alloca [1 x i8], align 1
  %_3 = alloca [56 x i8], align 8
  %residual = alloca [1 x i8], align 1
  store i8 %0, ptr %residual, align 1
    #dbg_declare(ptr %residual, !3629, !DIExpression(), !3633)
  %e = load i8, ptr %residual, align 1, !dbg !3634
  store i8 %e, ptr %e.dbg.spill, align 1, !dbg !3634
    #dbg_declare(ptr %e.dbg.spill, !3630, !DIExpression(), !3635)
  call void @"_ZN101_$LT$memcache..error..MemcacheError$u20$as$u20$core..convert..From$LT$url..parser..ParseError$GT$$GT$4from17haf38af5f465755c6E"(ptr sret([56 x i8]) align 8 %_3, i8 %e), !dbg !3636
  call void @llvm.memcpy.p0.p0.i64(ptr align 8 %_0, ptr align 8 %_3, i64 56, i1 false), !dbg !3637
  ret void, !dbg !3638
}

; Function Attrs: inlinehint nonlazybind uwtable
define internal void @"_ZN153_$LT$core..result..Result$LT$T$C$F$GT$$u20$as$u20$core..ops..try_trait..FromResidual$LT$core..result..Result$LT$core..convert..Infallible$C$E$GT$$GT$$GT$13from_residual17h2eb3e20c0bbe22c1E"(ptr sret([24 x i8]) align 8 %_0, ptr align 8 %0, ptr align 8 %1) unnamed_addr #1 !dbg !3639 {
start:
  %t.dbg.spill.i = alloca [8 x i8], align 8
  %e.dbg.spill = alloca [8 x i8], align 8
  %residual = alloca [8 x i8], align 8
  store ptr %0, ptr %residual, align 8
    #dbg_declare(ptr %residual, !3643, !DIExpression(), !3648)
  %e = load ptr, ptr %residual, align 8, !dbg !3649
  store ptr %e, ptr %e.dbg.spill, align 8, !dbg !3649
    #dbg_declare(ptr %e.dbg.spill, !3644, !DIExpression(), !3650)
  store ptr %e, ptr %t.dbg.spill.i, align 8
    #dbg_declare(ptr %t.dbg.spill.i, !3651, !DIExpression(), !3658)
  %2 = getelementptr inbounds i8, ptr %_0, i64 8, !dbg !3660
  store ptr %e, ptr %2, align 8, !dbg !3660
  store i64 1, ptr %_0, align 8, !dbg !3660
  ret void, !dbg !3661
}

; Function Attrs: inlinehint nonlazybind uwtable
define internal void @"_ZN153_$LT$core..result..Result$LT$T$C$F$GT$$u20$as$u20$core..ops..try_trait..FromResidual$LT$core..result..Result$LT$core..convert..Infallible$C$E$GT$$GT$$GT$13from_residual17h300828bddf9c7d91E"(ptr sret([56 x i8]) align 8 %_0, ptr align 8 %residual, ptr align 8 %0) unnamed_addr #1 !dbg !3662 {
start:
  %_3 = alloca [56 x i8], align 8
  %e = alloca [24 x i8], align 8
    #dbg_declare(ptr %residual, !3680, !DIExpression(), !3684)
    #dbg_declare(ptr %e, !3681, !DIExpression(), !3685)
  call void @llvm.memcpy.p0.p0.i64(ptr align 8 %e, ptr align 8 %residual, i64 24, i1 false), !dbg !3686
  call void @"_ZN89_$LT$memcache..error..MemcacheError$u20$as$u20$core..convert..From$LT$r2d2..Error$GT$$GT$4from17h7dfc819b11083f95E"(ptr sret([56 x i8]) align 8 %_3, ptr align 8 %e), !dbg !3687
  call void @llvm.memcpy.p0.p0.i64(ptr align 8 %_0, ptr align 8 %_3, i64 56, i1 false), !dbg !3688
  ret void, !dbg !3689
}

; Function Attrs: inlinehint nonlazybind uwtable
define internal void @"_ZN153_$LT$core..result..Result$LT$T$C$F$GT$$u20$as$u20$core..ops..try_trait..FromResidual$LT$core..result..Result$LT$core..convert..Infallible$C$E$GT$$GT$$GT$13from_residual17h36d31f9f6ffa9446E"(ptr sret([88 x i8]) align 8 %_0, ptr align 8 %residual, ptr align 8 %0) unnamed_addr #1 !dbg !3690 {
start:
  %_3 = alloca [56 x i8], align 8
  %e = alloca [56 x i8], align 8
    #dbg_declare(ptr %residual, !3785, !DIExpression(), !3790)
    #dbg_declare(ptr %e, !3786, !DIExpression(), !3791)
  call void @llvm.memcpy.p0.p0.i64(ptr align 8 %e, ptr align 8 %residual, i64 56, i1 false), !dbg !3792
    #dbg_declare(ptr %e, !3793, !DIExpression(), !3800)
  call void @llvm.memcpy.p0.p0.i64(ptr align 8 %_3, ptr align 8 %e, i64 56, i1 false), !dbg !3802
  %1 = getelementptr inbounds i8, ptr %_0, i64 8, !dbg !3803
  call void @llvm.memcpy.p0.p0.i64(ptr align 8 %1, ptr align 8 %_3, i64 56, i1 false), !dbg !3803
  store i64 -9223372036854775807, ptr %_0, align 8, !dbg !3803
  ret void, !dbg !3804
}

; Function Attrs: inlinehint nonlazybind uwtable
define internal void @"_ZN153_$LT$core..result..Result$LT$T$C$F$GT$$u20$as$u20$core..ops..try_trait..FromResidual$LT$core..result..Result$LT$core..convert..Infallible$C$E$GT$$GT$$GT$13from_residual17h39b5711fee9f2dafE"(ptr sret([64 x i8]) align 8 %_0, i8 %0, ptr align 8 %1) unnamed_addr #1 !dbg !3805 {
start:
  %e.dbg.spill = alloca [1 x i8], align 1
  %_3 = alloca [56 x i8], align 8
  %residual = alloca [1 x i8], align 1
  store i8 %0, ptr %residual, align 1
    #dbg_declare(ptr %residual, !3823, !DIExpression(), !3827)
  %e = load i8, ptr %residual, align 1, !dbg !3828
  store i8 %e, ptr %e.dbg.spill, align 1, !dbg !3828
    #dbg_declare(ptr %e.dbg.spill, !3824, !DIExpression(), !3829)
  call void @"_ZN109_$LT$memcache..error..MemcacheError$u20$as$u20$core..convert..From$LT$core..num..error..ParseIntError$GT$$GT$4from17hc1744949605227d8E"(ptr sret([56 x i8]) align 8 %_3, i8 %e), !dbg !3830
  %2 = getelementptr inbounds i8, ptr %_0, i64 8, !dbg !3831
  call void @llvm.memcpy.p0.p0.i64(ptr align 8 %2, ptr align 8 %_3, i64 56, i1 false), !dbg !3831
  store i64 1, ptr %_0, align 8, !dbg !3831
  ret void, !dbg !3832
}

; Function Attrs: inlinehint nonlazybind uwtable
define internal void @"_ZN153_$LT$core..result..Result$LT$T$C$F$GT$$u20$as$u20$core..ops..try_trait..FromResidual$LT$core..result..Result$LT$core..convert..Infallible$C$E$GT$$GT$$GT$13from_residual17h3cdd9a9055b80359E"(ptr sret([56 x i8]) align 8 %_0, ptr align 8 %residual, ptr align 8 %0) unnamed_addr #1 !dbg !3833 {
start:
  %_3 = alloca [56 x i8], align 8
  %e = alloca [56 x i8], align 8
    #dbg_declare(ptr %residual, !3837, !DIExpression(), !3841)
    #dbg_declare(ptr %e, !3838, !DIExpression(), !3842)
  call void @llvm.memcpy.p0.p0.i64(ptr align 8 %e, ptr align 8 %residual, i64 56, i1 false), !dbg !3843
    #dbg_declare(ptr %e, !3844, !DIExpression(), !3851)
  call void @llvm.memcpy.p0.p0.i64(ptr align 8 %_3, ptr align 8 %e, i64 56, i1 false), !dbg !3853
  call void @llvm.memcpy.p0.p0.i64(ptr align 8 %_0, ptr align 8 %_3, i64 56, i1 false), !dbg !3854
  ret void, !dbg !3855
}

; Function Attrs: inlinehint nonlazybind uwtable
define internal void @"_ZN153_$LT$core..result..Result$LT$T$C$F$GT$$u20$as$u20$core..ops..try_trait..FromResidual$LT$core..result..Result$LT$core..convert..Infallible$C$E$GT$$GT$$GT$13from_residual17h4856de636f65b194E"(ptr sret([56 x i8]) align 8 %_0, ptr %0, ptr align 8 %1) unnamed_addr #1 !dbg !3856 {
start:
  %e.dbg.spill = alloca [8 x i8], align 8
  %_3 = alloca [56 x i8], align 8
  %residual = alloca [8 x i8], align 8
  store ptr %0, ptr %residual, align 8
    #dbg_declare(ptr %residual, !3860, !DIExpression(), !3864)
  %e = load ptr, ptr %residual, align 8, !dbg !3865
  store ptr %e, ptr %e.dbg.spill, align 8, !dbg !3865
    #dbg_declare(ptr %e.dbg.spill, !3861, !DIExpression(), !3866)
  call void @"_ZN99_$LT$memcache..error..MemcacheError$u20$as$u20$core..convert..From$LT$std..io..error..Error$GT$$GT$4from17hf75f287a898040f4E"(ptr sret([56 x i8]) align 8 %_3, ptr %e), !dbg !3867
  call void @llvm.memcpy.p0.p0.i64(ptr align 8 %_0, ptr align 8 %_3, i64 56, i1 false), !dbg !3868
  ret void, !dbg !3869
}

; Function Attrs: inlinehint nonlazybind uwtable
define internal void @"_ZN153_$LT$core..result..Result$LT$T$C$F$GT$$u20$as$u20$core..ops..try_trait..FromResidual$LT$core..result..Result$LT$core..convert..Infallible$C$E$GT$$GT$$GT$13from_residual17h4a1f32f474d525edE"(ptr sret([64 x i8]) align 8 %_0, ptr align 8 %residual, ptr align 8 %0) unnamed_addr #1 !dbg !3870 {
start:
  %_3 = alloca [56 x i8], align 8
  %e = alloca [56 x i8], align 8
    #dbg_declare(ptr %residual, !3874, !DIExpression(), !3878)
    #dbg_declare(ptr %e, !3875, !DIExpression(), !3879)
  call void @llvm.memcpy.p0.p0.i64(ptr align 8 %e, ptr align 8 %residual, i64 56, i1 false), !dbg !3880
    #dbg_declare(ptr %e, !3844, !DIExpression(), !3881)
  call void @llvm.memcpy.p0.p0.i64(ptr align 8 %_3, ptr align 8 %e, i64 56, i1 false), !dbg !3883
  %1 = getelementptr inbounds i8, ptr %_0, i64 8, !dbg !3884
  call void @llvm.memcpy.p0.p0.i64(ptr align 8 %1, ptr align 8 %_3, i64 56, i1 false), !dbg !3884
  store i64 1, ptr %_0, align 8, !dbg !3884
  ret void, !dbg !3885
}

; Function Attrs: inlinehint nonlazybind uwtable
define internal void @"_ZN153_$LT$core..result..Result$LT$T$C$F$GT$$u20$as$u20$core..ops..try_trait..FromResidual$LT$core..result..Result$LT$core..convert..Infallible$C$E$GT$$GT$$GT$13from_residual17h4d2b39354582b995E"(ptr sret([64 x i8]) align 8 %_0, ptr align 8 %residual, ptr align 8 %0) unnamed_addr #1 !dbg !3886 {
start:
  %_3 = alloca [56 x i8], align 8
  %e = alloca [16 x i8], align 8
    #dbg_declare(ptr %residual, !3904, !DIExpression(), !3908)
    #dbg_declare(ptr %e, !3905, !DIExpression(), !3909)
  call void @llvm.memcpy.p0.p0.i64(ptr align 8 %e, ptr align 8 %residual, i64 16, i1 false), !dbg !3910
  call void @"_ZN105_$LT$memcache..error..MemcacheError$u20$as$u20$core..convert..From$LT$core..str..error..Utf8Error$GT$$GT$4from17h4e5698513e593319E"(ptr sret([56 x i8]) align 8 %_3, ptr align 8 %e), !dbg !3911
  %1 = getelementptr inbounds i8, ptr %_0, i64 8, !dbg !3912
  call void @llvm.memcpy.p0.p0.i64(ptr align 8 %1, ptr align 8 %_3, i64 56, i1 false), !dbg !3912
  store i64 1, ptr %_0, align 8, !dbg !3912
  ret void, !dbg !3913
}

; Function Attrs: inlinehint nonlazybind uwtable
define internal void @"_ZN153_$LT$core..result..Result$LT$T$C$F$GT$$u20$as$u20$core..ops..try_trait..FromResidual$LT$core..result..Result$LT$core..convert..Infallible$C$E$GT$$GT$$GT$13from_residual17h7bd84624726b9316E"(ptr sret([56 x i8]) align 8 %_0, ptr align 8 %residual, ptr align 8 %0) unnamed_addr #1 !dbg !3914 {
start:
  %_3 = alloca [56 x i8], align 8
  %e = alloca [56 x i8], align 8
    #dbg_declare(ptr %residual, !3933, !DIExpression(), !3937)
    #dbg_declare(ptr %e, !3934, !DIExpression(), !3938)
  call void @llvm.memcpy.p0.p0.i64(ptr align 8 %e, ptr align 8 %residual, i64 56, i1 false), !dbg !3939
    #dbg_declare(ptr %e, !3844, !DIExpression(), !3940)
  call void @llvm.memcpy.p0.p0.i64(ptr align 8 %_3, ptr align 8 %e, i64 56, i1 false), !dbg !3942
  call void @llvm.memcpy.p0.p0.i64(ptr align 8 %_0, ptr align 8 %_3, i64 56, i1 false), !dbg !3943
  ret void, !dbg !3944
}

; Function Attrs: inlinehint nonlazybind uwtable
define internal void @"_ZN153_$LT$core..result..Result$LT$T$C$F$GT$$u20$as$u20$core..ops..try_trait..FromResidual$LT$core..result..Result$LT$core..convert..Infallible$C$E$GT$$GT$$GT$13from_residual17h7ce85f41dcfd87e3E"(ptr sret([56 x i8]) align 8 %_0, ptr align 8 %residual, ptr align 8 %0) unnamed_addr #1 !dbg !3945 {
start:
  %_3 = alloca [56 x i8], align 8
  %e = alloca [40 x i8], align 8
    #dbg_declare(ptr %residual, !3963, !DIExpression(), !3967)
    #dbg_declare(ptr %e, !3964, !DIExpression(), !3968)
  call void @llvm.memcpy.p0.p0.i64(ptr align 8 %e, ptr align 8 %residual, i64 40, i1 false), !dbg !3969
  call void @"_ZN106_$LT$memcache..error..MemcacheError$u20$as$u20$core..convert..From$LT$alloc..string..FromUtf8Error$GT$$GT$4from17h8c70ce0fd7e53eccE"(ptr sret([56 x i8]) align 8 %_3, ptr align 8 %e), !dbg !3970
  call void @llvm.memcpy.p0.p0.i64(ptr align 8 %_0, ptr align 8 %_3, i64 56, i1 false), !dbg !3971
  ret void, !dbg !3972
}

; Function Attrs: inlinehint nonlazybind uwtable
define internal void @"_ZN153_$LT$core..result..Result$LT$T$C$F$GT$$u20$as$u20$core..ops..try_trait..FromResidual$LT$core..result..Result$LT$core..convert..Infallible$C$E$GT$$GT$$GT$13from_residual17h7dbf378ee95cd885E"(ptr sret([64 x i8]) align 8 %_0, ptr align 8 %residual, ptr align 8 %0) unnamed_addr #1 !dbg !3973 {
start:
  %_3 = alloca [56 x i8], align 8
  %e = alloca [32 x i8], align 8
    #dbg_declare(ptr %residual, !3977, !DIExpression(), !3981)
    #dbg_declare(ptr %e, !3978, !DIExpression(), !3982)
  call void @llvm.memcpy.p0.p0.i64(ptr align 8 %e, ptr align 8 %residual, i64 32, i1 false), !dbg !3983
  call void @"_ZN106_$LT$memcache..error..MemcacheError$u20$as$u20$core..convert..From$LT$memcache..error..ServerError$GT$$GT$4from17h9f83469b0ef0e1e2E"(ptr sret([56 x i8]) align 8 %_3, ptr align 8 %e), !dbg !3984
  %1 = getelementptr inbounds i8, ptr %_0, i64 8, !dbg !3985
  call void @llvm.memcpy.p0.p0.i64(ptr align 8 %1, ptr align 8 %_3, i64 56, i1 false), !dbg !3985
  store i64 1, ptr %_0, align 8, !dbg !3985
  ret void, !dbg !3986
}

; Function Attrs: inlinehint nonlazybind uwtable
define internal void @"_ZN153_$LT$core..result..Result$LT$T$C$F$GT$$u20$as$u20$core..ops..try_trait..FromResidual$LT$core..result..Result$LT$core..convert..Infallible$C$E$GT$$GT$$GT$13from_residual17h853e70711653b5adE"(ptr sret([64 x i8]) align 8 %_0, ptr %0, ptr align 8 %1) unnamed_addr #1 !dbg !3987 {
start:
  %e.dbg.spill = alloca [8 x i8], align 8
  %_3 = alloca [56 x i8], align 8
  %residual = alloca [8 x i8], align 8
  store ptr %0, ptr %residual, align 8
    #dbg_declare(ptr %residual, !3991, !DIExpression(), !3995)
  %e = load ptr, ptr %residual, align 8, !dbg !3996
  store ptr %e, ptr %e.dbg.spill, align 8, !dbg !3996
    #dbg_declare(ptr %e.dbg.spill, !3992, !DIExpression(), !3997)
  call void @"_ZN99_$LT$memcache..error..MemcacheError$u20$as$u20$core..convert..From$LT$std..io..error..Error$GT$$GT$4from17hf75f287a898040f4E"(ptr sret([56 x i8]) align 8 %_3, ptr %e), !dbg !3998
  %2 = getelementptr inbounds i8, ptr %_0, i64 8, !dbg !3999
  call void @llvm.memcpy.p0.p0.i64(ptr align 8 %2, ptr align 8 %_3, i64 56, i1 false), !dbg !3999
  store i64 1, ptr %_0, align 8, !dbg !3999
  ret void, !dbg !4000
}

; Function Attrs: inlinehint nonlazybind uwtable
define internal void @"_ZN153_$LT$core..result..Result$LT$T$C$F$GT$$u20$as$u20$core..ops..try_trait..FromResidual$LT$core..result..Result$LT$core..convert..Infallible$C$E$GT$$GT$$GT$13from_residual17h96e0e8b0edbd7639E"(ptr sret([24 x i8]) align 8 %_0, ptr align 8 %residual, ptr align 8 %0) unnamed_addr #1 !dbg !4001 {
start:
  %_3 = alloca [24 x i8], align 8
  %e = alloca [24 x i8], align 8
    #dbg_declare(ptr %residual, !4019, !DIExpression(), !4024)
    #dbg_declare(ptr %e, !4020, !DIExpression(), !4025)
  call void @llvm.memcpy.p0.p0.i64(ptr align 8 %e, ptr align 8 %residual, i64 24, i1 false), !dbg !4026
    #dbg_declare(ptr %e, !4027, !DIExpression(), !4034)
  call void @llvm.memcpy.p0.p0.i64(ptr align 8 %_3, ptr align 8 %e, i64 24, i1 false), !dbg !4036
  call void @llvm.memcpy.p0.p0.i64(ptr align 8 %_0, ptr align 8 %_3, i64 24, i1 false), !dbg !4037
  ret void, !dbg !4038
}

; Function Attrs: inlinehint nonlazybind uwtable
define internal void @"_ZN153_$LT$core..result..Result$LT$T$C$F$GT$$u20$as$u20$core..ops..try_trait..FromResidual$LT$core..result..Result$LT$core..convert..Infallible$C$E$GT$$GT$$GT$13from_residual17hbb3d39ddd3f3e7d2E"(ptr sret([56 x i8]) align 8 %_0, ptr align 8 %residual, ptr align 8 %0) unnamed_addr #1 !dbg !4039 {
start:
  %_3 = alloca [56 x i8], align 8
  %e = alloca [24 x i8], align 8
    #dbg_declare(ptr %residual, !4043, !DIExpression(), !4047)
    #dbg_declare(ptr %e, !4044, !DIExpression(), !4048)
  call void @llvm.memcpy.p0.p0.i64(ptr align 8 %e, ptr align 8 %residual, i64 24, i1 false), !dbg !4049
  call void @"_ZN89_$LT$memcache..error..MemcacheError$u20$as$u20$core..convert..From$LT$r2d2..Error$GT$$GT$4from17h7dfc819b11083f95E"(ptr sret([56 x i8]) align 8 %_3, ptr align 8 %e), !dbg !4050
  call void @llvm.memcpy.p0.p0.i64(ptr align 8 %_0, ptr align 8 %_3, i64 56, i1 false), !dbg !4051
  ret void, !dbg !4052
}

; Function Attrs: inlinehint nonlazybind uwtable
define internal void @"_ZN153_$LT$core..result..Result$LT$T$C$F$GT$$u20$as$u20$core..ops..try_trait..FromResidual$LT$core..result..Result$LT$core..convert..Infallible$C$E$GT$$GT$$GT$13from_residual17he3c89e3ca32c21efE"(ptr sret([56 x i8]) align 8 %_0, ptr align 8 %residual, ptr align 8 %0) unnamed_addr #1 !dbg !4053 {
start:
  %_3 = alloca [56 x i8], align 8
  %e = alloca [32 x i8], align 8
    #dbg_declare(ptr %residual, !4057, !DIExpression(), !4061)
    #dbg_declare(ptr %e, !4058, !DIExpression(), !4062)
  call void @llvm.memcpy.p0.p0.i64(ptr align 8 %e, ptr align 8 %residual, i64 32, i1 false), !dbg !4063
  call void @"_ZN106_$LT$memcache..error..MemcacheError$u20$as$u20$core..convert..From$LT$memcache..error..ServerError$GT$$GT$4from17h9f83469b0ef0e1e2E"(ptr sret([56 x i8]) align 8 %_3, ptr align 8 %e), !dbg !4064
  call void @llvm.memcpy.p0.p0.i64(ptr align 8 %_0, ptr align 8 %_3, i64 56, i1 false), !dbg !4065
  ret void, !dbg !4066
}

; Function Attrs: inlinehint nonlazybind uwtable
define internal { i64, ptr } @"_ZN153_$LT$core..result..Result$LT$T$C$F$GT$$u20$as$u20$core..ops..try_trait..FromResidual$LT$core..result..Result$LT$core..convert..Infallible$C$E$GT$$GT$$GT$13from_residual17hefc4644013890f8bE"(ptr align 8 %0, ptr align 8 %1) unnamed_addr #1 !dbg !4067 {
start:
  %t.dbg.spill.i = alloca [8 x i8], align 8
  %e.dbg.spill = alloca [8 x i8], align 8
  %_0 = alloca [16 x i8], align 8
  %residual = alloca [8 x i8], align 8
  store ptr %0, ptr %residual, align 8
    #dbg_declare(ptr %residual, !4071, !DIExpression(), !4075)
  %e = load ptr, ptr %residual, align 8, !dbg !4076
  store ptr %e, ptr %e.dbg.spill, align 8, !dbg !4076
    #dbg_declare(ptr %e.dbg.spill, !4072, !DIExpression(), !4077)
  store ptr %e, ptr %t.dbg.spill.i, align 8
    #dbg_declare(ptr %t.dbg.spill.i, !3651, !DIExpression(), !4078)
  %2 = getelementptr inbounds i8, ptr %_0, i64 8, !dbg !4080
  store ptr %e, ptr %2, align 8, !dbg !4080
  store i64 1, ptr %_0, align 8, !dbg !4080
  %3 = load i64, ptr %_0, align 8, !dbg !4081
  %4 = getelementptr inbounds i8, ptr %_0, i64 8, !dbg !4081
  %5 = load ptr, ptr %4, align 8, !dbg !4081
  %6 = insertvalue { i64, ptr } poison, i64 %3, 0, !dbg !4081
  %7 = insertvalue { i64, ptr } %6, ptr %5, 1, !dbg !4081
  ret { i64, ptr } %7, !dbg !4081
}

; Function Attrs: inlinehint nonlazybind uwtable
define internal { ptr, ptr } @"_ZN153_$LT$core..result..Result$LT$T$C$F$GT$$u20$as$u20$core..ops..try_trait..FromResidual$LT$core..result..Result$LT$core..convert..Infallible$C$E$GT$$GT$$GT$13from_residual17hf7275403c24fdd49E"(ptr align 8 %0) unnamed_addr #1 !dbg !4082 {
start:
  %e.dbg.spill = alloca [0 x i8], align 1
  %residual.dbg.spill = alloca [0 x i8], align 1
  %_0 = alloca [16 x i8], align 8
    #dbg_declare(ptr %residual.dbg.spill, !4086, !DIExpression(), !4091)
    #dbg_declare(ptr %e.dbg.spill, !4087, !DIExpression(), !4092)
    #dbg_declare(ptr undef, !4093, !DIExpression(), !4100)
  call void @llvm.trap(), !dbg !4102
  unreachable, !dbg !4102

"_ZN50_$LT$T$u20$as$u20$core..convert..From$LT$T$GT$$GT$4from17h20fbdb1d937074ffE.exit": ; No predecessors!
  call void @llvm.trap(), !dbg !4103
  %1 = load ptr, ptr %_0, align 8, !dbg !4104
  %2 = getelementptr inbounds i8, ptr %_0, i64 8, !dbg !4104
  %3 = load ptr, ptr %2, align 8, !dbg !4104
  %4 = insertvalue { ptr, ptr } poison, ptr %1, 0, !dbg !4104
  %5 = insertvalue { ptr, ptr } %4, ptr %3, 1, !dbg !4104
  ret { ptr, ptr } %5, !dbg !4104
}

; Function Attrs: inlinehint nonlazybind uwtable
define internal void @"_ZN154_$LT$OpenFaaSRPC.._..$LT$impl$u20$serde..de..Deserialize$u20$for$u20$OpenFaaSRPC..Follower$GT$..deserialize..__Field$u20$as$u20$serde..de..Deserialize$GT$11deserialize17h48f117ece1f5713cE"(ptr sret([16 x i8]) align 8 %_0, ptr align 8 %__deserializer) unnamed_addr #1 !dbg !4105 {
start:
  %__deserializer.dbg.spill = alloca [8 x i8], align 8
  store ptr %__deserializer, ptr %__deserializer.dbg.spill, align 8
    #dbg_declare(ptr %__deserializer.dbg.spill, !4127, !DIExpression(), !4130)
  call void @"_ZN75_$LT$serde_json..de..MapKey$LT$R$GT$$u20$as$u20$serde..de..Deserializer$GT$22deserialize_identifier17hdae7bd6441b768c7E"(ptr sret([16 x i8]) align 8 %_0, ptr align 8 %__deserializer), !dbg !4130
  ret void, !dbg !4131
}

; Function Attrs: nonlazybind uwtable
define internal void @"_ZN157_$LT$$LT$alloc..vec..into_iter..IntoIter$LT$T$C$A$GT$$u20$as$u20$core..ops..drop..Drop$GT$..drop..DropGuard$LT$T$C$A$GT$$u20$as$u20$core..ops..drop..Drop$GT$4drop17h60838b28af451b0eE"(ptr align 8 %self) unnamed_addr #0 !dbg !4132 {
start:
  %alloc.dbg.spill = alloca [0 x i8], align 1
  %self.dbg.spill = alloca [8 x i8], align 8
  %_4 = alloca [16 x i8], align 8
  store ptr %self, ptr %self.dbg.spill, align 8
    #dbg_declare(ptr %self.dbg.spill, !4143, !DIExpression(), !4146)
    #dbg_declare(ptr %alloc.dbg.spill, !4144, !DIExpression(), !4147)
  %_7 = load ptr, ptr %self, align 8, !dbg !4148
  %_3 = getelementptr inbounds i8, ptr %_7, i64 32, !dbg !4148
  call void @"_ZN4core3mem13manually_drop21ManuallyDrop$LT$T$GT$4take17h2678bf7ef90362bbE"(ptr align 1 %_3), !dbg !4149
  %_8 = load ptr, ptr %self, align 8, !dbg !4150
  %_5 = load ptr, ptr %_8, align 8, !dbg !4150
  %_9 = load ptr, ptr %self, align 8, !dbg !4151
  %0 = getelementptr inbounds i8, ptr %_9, i64 16, !dbg !4151
  %_6 = load i64, ptr %0, align 8, !dbg !4151
  %1 = call { i64, ptr } @"_ZN5alloc7raw_vec19RawVec$LT$T$C$A$GT$15from_nonnull_in17ha0021f5bf8794c3dE"(ptr %_5, i64 %_6), !dbg !4152
  %2 = extractvalue { i64, ptr } %1, 0, !dbg !4152
  %3 = extractvalue { i64, ptr } %1, 1, !dbg !4152
  store i64 %2, ptr %_4, align 8, !dbg !4152
  %4 = getelementptr inbounds i8, ptr %_4, i64 8, !dbg !4152
  store ptr %3, ptr %4, align 8, !dbg !4152
  call void @"_ZN4core3ptr72drop_in_place$LT$alloc..raw_vec..RawVec$LT$OpenFaaSRPC..Follower$GT$$GT$17h3ba467d6f6c6f1e3E"(ptr align 8 %_4), !dbg !4153
  ret void, !dbg !4154
}

; Function Attrs: nonlazybind uwtable
define internal void @"_ZN157_$LT$$LT$alloc..vec..into_iter..IntoIter$LT$T$C$A$GT$$u20$as$u20$core..ops..drop..Drop$GT$..drop..DropGuard$LT$T$C$A$GT$$u20$as$u20$core..ops..drop..Drop$GT$4drop17h7e59888ef5bdc9d5E"(ptr align 8 %self) unnamed_addr #0 !dbg !4155 {
start:
  %alloc.dbg.spill = alloca [0 x i8], align 1
  %self.dbg.spill = alloca [8 x i8], align 8
  %_4 = alloca [16 x i8], align 8
  store ptr %self, ptr %self.dbg.spill, align 8
    #dbg_declare(ptr %self.dbg.spill, !4163, !DIExpression(), !4166)
    #dbg_declare(ptr %alloc.dbg.spill, !4164, !DIExpression(), !4167)
  %_7 = load ptr, ptr %self, align 8, !dbg !4168
  %_3 = getelementptr inbounds i8, ptr %_7, i64 32, !dbg !4168
  call void @"_ZN4core3mem13manually_drop21ManuallyDrop$LT$T$GT$4take17h2678bf7ef90362bbE"(ptr align 1 %_3), !dbg !4169
  %_8 = load ptr, ptr %self, align 8, !dbg !4170
  %_5 = load ptr, ptr %_8, align 8, !dbg !4170
  %_9 = load ptr, ptr %self, align 8, !dbg !4171
  %0 = getelementptr inbounds i8, ptr %_9, i64 16, !dbg !4171
  %_6 = load i64, ptr %0, align 8, !dbg !4171
  %1 = call { i64, ptr } @"_ZN5alloc7raw_vec19RawVec$LT$T$C$A$GT$15from_nonnull_in17h82dec056914149ebE"(ptr %_5, i64 %_6), !dbg !4172
  %2 = extractvalue { i64, ptr } %1, 0, !dbg !4172
  %3 = extractvalue { i64, ptr } %1, 1, !dbg !4172
  store i64 %2, ptr %_4, align 8, !dbg !4172
  %4 = getelementptr inbounds i8, ptr %_4, i64 8, !dbg !4172
  store ptr %3, ptr %4, align 8, !dbg !4172
  call void @"_ZN4core3ptr72drop_in_place$LT$alloc..raw_vec..RawVec$LT$alloc..string..String$GT$$GT$17h12ad406401eb85cbE"(ptr align 8 %_4), !dbg !4173
  ret void, !dbg !4174
}

; Function Attrs: nonlazybind uwtable
define internal void @"_ZN157_$LT$$LT$alloc..vec..into_iter..IntoIter$LT$T$C$A$GT$$u20$as$u20$core..ops..drop..Drop$GT$..drop..DropGuard$LT$T$C$A$GT$$u20$as$u20$core..ops..drop..Drop$GT$4drop17haee9fad12b53d230E"(ptr align 8 %self) unnamed_addr #0 !dbg !4175 {
start:
  %alloc.dbg.spill = alloca [0 x i8], align 1
  %self.dbg.spill = alloca [8 x i8], align 8
  %_4 = alloca [16 x i8], align 8
  store ptr %self, ptr %self.dbg.spill, align 8
    #dbg_declare(ptr %self.dbg.spill, !4183, !DIExpression(), !4186)
    #dbg_declare(ptr %alloc.dbg.spill, !4184, !DIExpression(), !4187)
  %_7 = load ptr, ptr %self, align 8, !dbg !4188
  %_3 = getelementptr inbounds i8, ptr %_7, i64 32, !dbg !4188
  call void @"_ZN4core3mem13manually_drop21ManuallyDrop$LT$T$GT$4take17h2678bf7ef90362bbE"(ptr align 1 %_3), !dbg !4189
  %_8 = load ptr, ptr %self, align 8, !dbg !4190
  %_5 = load ptr, ptr %_8, align 8, !dbg !4190
  %_9 = load ptr, ptr %self, align 8, !dbg !4191
  %0 = getelementptr inbounds i8, ptr %_9, i64 16, !dbg !4191
  %_6 = load i64, ptr %0, align 8, !dbg !4191
  %1 = call { i64, ptr } @"_ZN5alloc7raw_vec19RawVec$LT$T$C$A$GT$15from_nonnull_in17hda62b67bd17dced3E"(ptr %_5, i64 %_6), !dbg !4192
  %2 = extractvalue { i64, ptr } %1, 0, !dbg !4192
  %3 = extractvalue { i64, ptr } %1, 1, !dbg !4192
  store i64 %2, ptr %_4, align 8, !dbg !4192
  %4 = getelementptr inbounds i8, ptr %_4, i64 8, !dbg !4192
  store ptr %3, ptr %4, align 8, !dbg !4192
  call void @"_ZN4core3ptr105drop_in_place$LT$alloc..raw_vec..RawVec$LT$r2d2..IdleConn$LT$memcache..connection..Connection$GT$$GT$$GT$17h940026f6e6be6bc8E"(ptr align 8 %_4), !dbg !4193
  ret void, !dbg !4194
}

; Function Attrs: nonlazybind uwtable
define internal void @"_ZN157_$LT$OpenFaaSRPC.._..$LT$impl$u20$serde..de..Deserialize$u20$for$u20$OpenFaaSRPC..Follower$GT$..deserialize..__FieldVisitor$u20$as$u20$serde..de..Visitor$GT$9visit_str17h2c25b57b8a81acd0E"(ptr sret([16 x i8]) align 8 %_0, ptr align 1 %__value.0, i64 %__value.1) unnamed_addr #0 !dbg !4195 {
start:
  %self.dbg.spill = alloca [0 x i8], align 1
  %__value.dbg.spill = alloca [16 x i8], align 8
  %_1.dbg.spill = alloca [0 x i8], align 1
  %_7 = alloca [1 x i8], align 1
  %_6 = alloca [1 x i8], align 1
  %_5 = alloca [1 x i8], align 1
    #dbg_declare(ptr %_1.dbg.spill, !4203, !DIExpression(), !4206)
  store ptr %__value.0, ptr %__value.dbg.spill, align 8
  %0 = getelementptr inbounds i8, ptr %__value.dbg.spill, i64 8
  store i64 %__value.1, ptr %0, align 8
    #dbg_declare(ptr %__value.dbg.spill, !4202, !DIExpression(), !4206)
    #dbg_declare(ptr %self.dbg.spill, !4201, !DIExpression(), !4206)
  %_4 = call zeroext i1 @"_ZN4core3str6traits54_$LT$impl$u20$core..cmp..PartialEq$u20$for$u20$str$GT$2eq17ha52c3de84656c176E"(ptr align 1 %__value.0, i64 %__value.1, ptr align 1 @alloc_5e5d0fc3969e190d5b793845b4d75f83, i64 11), !dbg !4207
  br i1 %_4, label %bb2, label %bb3, !dbg !4207

bb3:                                              ; preds = %start
  %_3 = call zeroext i1 @"_ZN4core3str6traits54_$LT$impl$u20$core..cmp..PartialEq$u20$for$u20$str$GT$2eq17ha52c3de84656c176E"(ptr align 1 %__value.0, i64 %__value.1, ptr align 1 @alloc_5e776ce52c9f5c81d68da620afd2d199, i64 9), !dbg !4208
  br i1 %_3, label %bb4, label %bb1, !dbg !4208

bb2:                                              ; preds = %start
  store i8 0, ptr %_5, align 1, !dbg !4206
  %1 = load i8, ptr %_5, align 1, !dbg !4206
  %2 = getelementptr inbounds i8, ptr %_0, i64 1, !dbg !4206
  store i8 %1, ptr %2, align 1, !dbg !4206
  store i8 0, ptr %_0, align 8, !dbg !4206
  br label %bb7, !dbg !4209

bb1:                                              ; preds = %bb3
  store i8 2, ptr %_7, align 1, !dbg !4206
  %3 = load i8, ptr %_7, align 1, !dbg !4206
  %4 = getelementptr inbounds i8, ptr %_0, i64 1, !dbg !4206
  store i8 %3, ptr %4, align 1, !dbg !4206
  store i8 0, ptr %_0, align 8, !dbg !4206
  br label %bb7, !dbg !4209

bb4:                                              ; preds = %bb3
  store i8 1, ptr %_6, align 1, !dbg !4206
  %5 = load i8, ptr %_6, align 1, !dbg !4206
  %6 = getelementptr inbounds i8, ptr %_0, i64 1, !dbg !4206
  store i8 %5, ptr %6, align 1, !dbg !4206
  store i8 0, ptr %_0, align 8, !dbg !4206
  br label %bb7, !dbg !4209

bb7:                                              ; preds = %bb4, %bb1, %bb2
  ret void, !dbg !4210
}

; Function Attrs: inlinehint nonlazybind uwtable
define internal { ptr, i64 } @_ZN15form_urlencoded5parse17h01fdbe2509372a8bE(ptr align 1 %input.0, i64 %input.1) unnamed_addr #1 !dbg !4211 {
start:
  %input.dbg.spill = alloca [16 x i8], align 8
  store ptr %input.0, ptr %input.dbg.spill, align 8
  %0 = getelementptr inbounds i8, ptr %input.dbg.spill, i64 8
  store i64 %input.1, ptr %0, align 8
    #dbg_declare(ptr %input.dbg.spill, !4220, !DIExpression(), !4221)
  %1 = insertvalue { ptr, i64 } poison, ptr %input.0, 0, !dbg !4222
  %2 = insertvalue { ptr, i64 } %1, i64 %input.1, 1, !dbg !4222
  ret { ptr, i64 } %2, !dbg !4222
}

; Function Attrs: nonlazybind uwtable
define internal zeroext i1 @"_ZN167_$LT$serde..de..impls..$LT$impl$u20$serde..de..Deserialize$u20$for$u20$alloc..vec..Vec$LT$T$GT$$GT$..deserialize..VecVisitor$LT$T$GT$$u20$as$u20$serde..de..Visitor$GT$9expecting17h90d77d2a81f28f1cE"(ptr align 1 %self, ptr align 8 %formatter) unnamed_addr #0 !dbg !4223 {
start:
  %formatter.dbg.spill = alloca [8 x i8], align 8
  %self.dbg.spill = alloca [8 x i8], align 8
  store ptr %self, ptr %self.dbg.spill, align 8
    #dbg_declare(ptr %self.dbg.spill, !4277, !DIExpression(), !4279)
  store ptr %formatter, ptr %formatter.dbg.spill, align 8
    #dbg_declare(ptr %formatter.dbg.spill, !4278, !DIExpression(), !4280)
  %_0 = call zeroext i1 @_ZN4core3fmt9Formatter9write_str17h9c3d36917088d88dE(ptr align 8 %formatter, ptr align 1 @alloc_c705cb38a8523735dfb9d88c7a0743fd, i64 10), !dbg !4281
  ret i1 %_0, !dbg !4282
}

; Function Attrs: nonlazybind uwtable
define internal void @"_ZN167_$LT$serde..de..impls..$LT$impl$u20$serde..de..Deserialize$u20$for$u20$alloc..vec..Vec$LT$T$GT$$GT$..deserialize..VecVisitor$LT$T$GT$$u20$as$u20$serde..de..Visitor$GT$9visit_seq17h7444fb364528c61dE"(ptr sret([24 x i8]) align 8 %_0, ptr align 8 %0, i1 zeroext %1) unnamed_addr #0 personality ptr @rust_eh_personality !dbg !4283 {
start:
  %err.dbg.spill = alloca [8 x i8], align 8
  %value.dbg.spill = alloca [16 x i8], align 8
  %capacity.dbg.spill = alloca [8 x i8], align 8
  %2 = alloca [16 x i8], align 8
  %self.dbg.spill = alloca [0 x i8], align 1
  %_1.dbg.spill = alloca [0 x i8], align 1
  %_17 = alloca [24 x i8], align 8
  %val = alloca [24 x i8], align 8
  %_8 = alloca [24 x i8], align 8
  %_7 = alloca [24 x i8], align 8
  %values = alloca [24 x i8], align 8
  %seq = alloca [16 x i8], align 8
  store ptr %0, ptr %seq, align 8
  %3 = getelementptr inbounds i8, ptr %seq, i64 8
  %4 = zext i1 %1 to i8
  store i8 %4, ptr %3, align 8
    #dbg_declare(ptr %_1.dbg.spill, !4311, !DIExpression(), !4314)
    #dbg_declare(ptr %seq, !4288, !DIExpression(), !4315)
    #dbg_declare(ptr %values, !4291, !DIExpression(), !4316)
    #dbg_declare(ptr %val, !4293, !DIExpression(), !4317)
    #dbg_declare(ptr %self.dbg.spill, !4287, !DIExpression(), !4314)
  %5 = invoke { i64, i64 } @_ZN5serde2de9SeqAccess9size_hint17h8d12e7269998ac71E(ptr align 8 %seq)
          to label %bb1 unwind label %cleanup, !dbg !4318

bb13:                                             ; preds = %bb12, %cleanup
  %6 = load ptr, ptr %2, align 8, !dbg !4319
  %7 = getelementptr inbounds i8, ptr %2, i64 8, !dbg !4319
  %8 = load i32, ptr %7, align 8, !dbg !4319
  %9 = insertvalue { ptr, i32 } poison, ptr %6, 0, !dbg !4319
  %10 = insertvalue { ptr, i32 } %9, i32 %8, 1, !dbg !4319
  resume { ptr, i32 } %10, !dbg !4319

cleanup:                                          ; preds = %bb6, %bb2, %bb1, %start
  %11 = landingpad { ptr, i32 }
          cleanup
  %12 = extractvalue { ptr, i32 } %11, 0
  %13 = extractvalue { ptr, i32 } %11, 1
  store ptr %12, ptr %2, align 8
  %14 = getelementptr inbounds i8, ptr %2, i64 8
  store i32 %13, ptr %14, align 8
  br label %bb13

bb1:                                              ; preds = %start
  %_4.0 = extractvalue { i64, i64 } %5, 0, !dbg !4318
  %_4.1 = extractvalue { i64, i64 } %5, 1, !dbg !4318
  %capacity = invoke i64 @_ZN5serde2de9size_hint8cautious17h2c56bb8c1f92a61aE(i64 %_4.0, i64 %_4.1)
          to label %bb2 unwind label %cleanup, !dbg !4320

bb2:                                              ; preds = %bb1
  store i64 %capacity, ptr %capacity.dbg.spill, align 8, !dbg !4320
    #dbg_declare(ptr %capacity.dbg.spill, !4289, !DIExpression(), !4321)
  invoke void @"_ZN5alloc3vec12Vec$LT$T$GT$13with_capacity17h33ea22c4d662a280E"(ptr sret([24 x i8]) align 8 %values, i64 %capacity, ptr align 8 @alloc_ae52e422ab29884b58622d79788975fe)
          to label %bb16 unwind label %cleanup, !dbg !4322

bb16:                                             ; preds = %bb2
  br label %bb3, !dbg !4322

bb3:                                              ; preds = %bb17, %bb16
  invoke void @_ZN5serde2de9SeqAccess12next_element17h088698106409b7b0E(ptr sret([24 x i8]) align 8 %_8, ptr align 8 %seq)
          to label %bb4 unwind label %cleanup1, !dbg !4323

bb12:                                             ; preds = %cleanup1
  invoke void @"_ZN4core3ptr65drop_in_place$LT$alloc..vec..Vec$LT$OpenFaaSRPC..Follower$GT$$GT$17he9ec91e66525f5d3E"(ptr align 8 %values) #23
          to label %bb13 unwind label %terminate, !dbg !4324

cleanup1:                                         ; preds = %bb9, %bb3
  %15 = landingpad { ptr, i32 }
          cleanup
  %16 = extractvalue { ptr, i32 } %15, 0
  %17 = extractvalue { ptr, i32 } %15, 1
  store ptr %16, ptr %2, align 8
  %18 = getelementptr inbounds i8, ptr %2, i64 8
  store i32 %17, ptr %18, align 8
  br label %bb12

bb4:                                              ; preds = %bb3
  %19 = load i64, ptr %_8, align 8, !dbg !4323
  %20 = icmp eq i64 %19, 2, !dbg !4323
  %_10 = select i1 %20, i64 1, i64 0, !dbg !4323
  %21 = icmp eq i64 %_10, 0, !dbg !4325
  br i1 %21, label %bb7, label %bb6, !dbg !4325

bb7:                                              ; preds = %bb4
  call void @llvm.memcpy.p0.p0.i64(ptr align 8 %val, ptr align 8 %_8, i64 24, i1 false), !dbg !4327
  call void @llvm.memcpy.p0.p0.i64(ptr align 8 %_7, ptr align 8 %val, i64 24, i1 false), !dbg !4328
  %_13 = load i64, ptr %_7, align 8, !dbg !4325
  %22 = icmp eq i64 %_13, 1, !dbg !4329
  br i1 %22, label %bb9, label %bb8, !dbg !4329

bb6:                                              ; preds = %bb4
  %23 = getelementptr inbounds i8, ptr %_8, i64 8, !dbg !4330
  %err = load ptr, ptr %23, align 8, !dbg !4330
  store ptr %err, ptr %err.dbg.spill, align 8, !dbg !4330
    #dbg_declare(ptr %err.dbg.spill, !4308, !DIExpression(), !4331)
  %24 = getelementptr inbounds i8, ptr %_0, i64 8, !dbg !4332
  store ptr %err, ptr %24, align 8, !dbg !4332
  store i64 -9223372036854775808, ptr %_0, align 8, !dbg !4332
  invoke void @"_ZN4core3ptr65drop_in_place$LT$alloc..vec..Vec$LT$OpenFaaSRPC..Follower$GT$$GT$17he9ec91e66525f5d3E"(ptr align 8 %values)
          to label %bb10 unwind label %cleanup, !dbg !4324

bb9:                                              ; preds = %bb7
  %25 = getelementptr inbounds i8, ptr %_7, i64 8, !dbg !4333
  %value.0 = load i64, ptr %25, align 8, !dbg !4333
  %26 = getelementptr inbounds i8, ptr %25, i64 8, !dbg !4333
  %value.1 = load i64, ptr %26, align 8, !dbg !4333
  store i64 %value.0, ptr %value.dbg.spill, align 8, !dbg !4333
  %27 = getelementptr inbounds i8, ptr %value.dbg.spill, i64 8, !dbg !4333
  store i64 %value.1, ptr %27, align 8, !dbg !4333
    #dbg_declare(ptr %value.dbg.spill, !4310, !DIExpression(), !4333)
  invoke void @"_ZN5alloc3vec16Vec$LT$T$C$A$GT$4push17hdcdd2895b9827d1fE"(ptr align 8 %values, i64 %value.0, i64 %value.1, ptr align 8 @alloc_ae52e422ab29884b58622d79788975fe)
          to label %bb17 unwind label %cleanup1, !dbg !4334

bb8:                                              ; preds = %bb7
  br label %bb15, !dbg !4335

bb17:                                             ; preds = %bb9
  br label %bb3, !dbg !4334

bb15:                                             ; preds = %bb8
  call void @llvm.memcpy.p0.p0.i64(ptr align 8 %_17, ptr align 8 %values, i64 24, i1 false), !dbg !4336
  call void @llvm.memcpy.p0.p0.i64(ptr align 8 %_0, ptr align 8 %_17, i64 24, i1 false), !dbg !4337
  br label %bb11, !dbg !4338

bb11:                                             ; preds = %bb10, %bb15
  ret void, !dbg !4339

bb10:                                             ; preds = %bb6
  br label %bb11, !dbg !4338

bb5:                                              ; No predecessors!
  unreachable, !dbg !4323

terminate:                                        ; preds = %bb12
  %28 = landingpad { ptr, i32 }
          filter [0 x ptr] zeroinitializer
  %29 = extractvalue { ptr, i32 } %28, 0
  %30 = extractvalue { ptr, i32 } %28, 1
  call void @_ZN4core9panicking16panic_in_cleanup17hdb19dc6496e5af6eE() #24, !dbg !4319
  unreachable, !dbg !4319
}

; Function Attrs: inlinehint nonlazybind uwtable
define internal { i64, ptr } @"_ZN171_$LT$OpenFaaSRPC.._..$LT$impl$u20$serde..de..Deserialize$u20$for$u20$OpenFaaSRPC..SocialGraphGetFollowersArgs$GT$..deserialize..__Visitor$u20$as$u20$serde..de..Visitor$GT$9visit_map17h0d795055c54dbb70E"(ptr align 8 %0, i1 zeroext %1) unnamed_addr #1 personality ptr @rust_eh_personality !dbg !4340 {
start:
  %residual.dbg.spill12 = alloca [8 x i8], align 8
  %__field0.dbg.spill = alloca [8 x i8], align 8
  %residual.dbg.spill9 = alloca [8 x i8], align 8
  %val.dbg.spill7 = alloca [8 x i8], align 8
  %residual.dbg.spill5 = alloca [8 x i8], align 8
  %residual.dbg.spill = alloca [8 x i8], align 8
  %val.dbg.spill3 = alloca [8 x i8], align 8
  %2 = alloca [16 x i8], align 8
  %val.dbg.spill = alloca [0 x i8], align 1
  %self.dbg.spill = alloca [0 x i8], align 1
  %_1.dbg.spill = alloca [0 x i8], align 1
  %_31 = alloca [16 x i8], align 8
  %__field01 = alloca [8 x i8], align 8
  %_23 = alloca [8 x i8], align 8
  %_17 = alloca [16 x i8], align 8
  %_16 = alloca [16 x i8], align 8
  %__key = alloca [1 x i8], align 1
  %val = alloca [1 x i8], align 1
  %_5 = alloca [16 x i8], align 8
  %_4 = alloca [16 x i8], align 8
  %__field0 = alloca [16 x i8], align 8
  %_0 = alloca [16 x i8], align 8
  %__map = alloca [16 x i8], align 8
  store ptr %0, ptr %__map, align 8
  %3 = getelementptr inbounds i8, ptr %__map, i64 8
  %4 = zext i1 %1 to i8
  store i8 %4, ptr %3, align 8
    #dbg_declare(ptr %_1.dbg.spill, !4383, !DIExpression(), !4384)
    #dbg_declare(ptr %__map, !4345, !DIExpression(), !4384)
    #dbg_declare(ptr %__field0, !4346, !DIExpression(), !4385)
    #dbg_declare(ptr %val, !4351, !DIExpression(), !4386)
    #dbg_declare(ptr %__key, !4366, !DIExpression(), !4387)
    #dbg_declare(ptr %__field01, !4375, !DIExpression(), !4388)
    #dbg_declare(ptr %self.dbg.spill, !4344, !DIExpression(), !4384)
    #dbg_declare(ptr %val.dbg.spill, !4373, !DIExpression(), !4389)
  store i64 0, ptr %__field0, align 8, !dbg !4384
  br label %bb1, !dbg !4385

bb1:                                              ; preds = %bb20, %bb17, %start
  invoke void @_ZN5serde2de9MapAccess8next_key17h514858b4d5e68c5fE(ptr sret([16 x i8]) align 8 %_5, ptr align 8 %__map)
          to label %bb2 unwind label %cleanup, !dbg !4387

bb31:                                             ; preds = %cleanup
  %5 = load ptr, ptr %2, align 8, !dbg !4384
  %6 = getelementptr inbounds i8, ptr %2, i64 8, !dbg !4384
  %7 = load i32, ptr %6, align 8, !dbg !4384
  %8 = insertvalue { ptr, i32 } poison, ptr %5, 0, !dbg !4384
  %9 = insertvalue { ptr, i32 } %8, i32 %7, 1, !dbg !4384
  resume { ptr, i32 } %9, !dbg !4384

cleanup:                                          ; preds = %bb27, %bb24, %bb22, %bb21, %bb19, %bb18, %bb15, %bb12, %bb14, %bb9, %bb10, %bb6, %bb2, %bb1
  %10 = landingpad { ptr, i32 }
          cleanup
  %11 = extractvalue { ptr, i32 } %10, 0
  %12 = extractvalue { ptr, i32 } %10, 1
  store ptr %11, ptr %2, align 8
  %13 = getelementptr inbounds i8, ptr %2, i64 8
  store i32 %12, ptr %13, align 8
  br label %bb31

bb2:                                              ; preds = %bb1
  invoke void @"_ZN79_$LT$core..result..Result$LT$T$C$E$GT$$u20$as$u20$core..ops..try_trait..Try$GT$6branch17hf3667e47279af1acE"(ptr sret([16 x i8]) align 8 %_4, ptr align 8 %_5)
          to label %bb3 unwind label %cleanup, !dbg !4387

bb3:                                              ; preds = %bb2
  %14 = load i8, ptr %_4, align 8, !dbg !4387
  %15 = trunc i8 %14 to i1, !dbg !4387
  %_7 = zext i1 %15 to i64, !dbg !4387
  %16 = icmp eq i64 %_7, 0, !dbg !4387
  br i1 %16, label %bb5, label %bb6, !dbg !4387

bb5:                                              ; preds = %bb3
  %17 = getelementptr inbounds i8, ptr %_4, i64 1, !dbg !4387
  %18 = load i8, ptr %17, align 1, !dbg !4387
  store i8 %18, ptr %val, align 1, !dbg !4387
  %19 = load i8, ptr %val, align 1, !dbg !4387
  %20 = icmp eq i8 %19, 2, !dbg !4387
  %_10 = select i1 %20, i64 0, i64 1, !dbg !4387
  %21 = icmp eq i64 %_10, 1, !dbg !4387
  br i1 %21, label %bb8, label %bb7, !dbg !4387

bb6:                                              ; preds = %bb3
  %22 = getelementptr inbounds i8, ptr %_4, i64 8, !dbg !4390
  %residual11 = load ptr, ptr %22, align 8, !dbg !4390
  store ptr %residual11, ptr %residual.dbg.spill12, align 8, !dbg !4390
    #dbg_declare(ptr %residual.dbg.spill12, !4348, !DIExpression(), !4391)
  %23 = invoke { i64, ptr } @"_ZN153_$LT$core..result..Result$LT$T$C$F$GT$$u20$as$u20$core..ops..try_trait..FromResidual$LT$core..result..Result$LT$core..convert..Infallible$C$E$GT$$GT$$GT$13from_residual17hefc4644013890f8bE"(ptr align 8 %residual11, ptr align 8 @alloc_ae52e422ab29884b58622d79788975fe)
          to label %bb33 unwind label %cleanup, !dbg !4392

bb8:                                              ; preds = %bb5
  %24 = load i8, ptr %val, align 1, !dbg !4387
  %25 = trunc i8 %24 to i1, !dbg !4387
  %26 = zext i1 %25 to i8, !dbg !4387
  store i8 %26, ptr %__key, align 1, !dbg !4387
  %27 = load i8, ptr %__key, align 1, !dbg !4387
  %28 = trunc i8 %27 to i1, !dbg !4387
  %_12 = zext i1 %28 to i64, !dbg !4387
  %29 = icmp eq i64 %_12, 0, !dbg !4387
  br i1 %29, label %bb10, label %bb9, !dbg !4387

bb7:                                              ; preds = %bb5
  %_29 = load i64, ptr %__field0, align 8, !dbg !4385
  %30 = icmp eq i64 %_29, 0, !dbg !4385
  br i1 %30, label %bb22, label %bb23, !dbg !4385

bb10:                                             ; preds = %bb8
  %_13 = invoke zeroext i1 @"_ZN4core6option15Option$LT$T$GT$7is_some17ha6daa54fd618d770E"(ptr align 8 %__field0)
          to label %bb11 unwind label %cleanup, !dbg !4387

bb9:                                              ; preds = %bb8
  %_24 = invoke align 8 ptr @_ZN5serde2de9MapAccess10next_value17h79e0e12a54919e9eE(ptr align 8 %__map)
          to label %bb19 unwind label %cleanup, !dbg !4387

bb11:                                             ; preds = %bb10
  br i1 %_13, label %bb12, label %bb14, !dbg !4387

bb14:                                             ; preds = %bb11
  %31 = invoke { i64, ptr } @_ZN5serde2de9MapAccess10next_value17hb95f594748689775E(ptr align 8 %__map)
          to label %bb15 unwind label %cleanup, !dbg !4387

bb12:                                             ; preds = %bb11
  %_15 = invoke align 8 ptr @_ZN5serde2de5Error15duplicate_field17h2d1f650a3b3a2aa9E(ptr align 1 @alloc_17c2596754a11fa444906090c11cb050, i64 7)
          to label %bb13 unwind label %cleanup, !dbg !4387

bb15:                                             ; preds = %bb14
  %_18.0 = extractvalue { i64, ptr } %31, 0, !dbg !4387
  %_18.1 = extractvalue { i64, ptr } %31, 1, !dbg !4387
  %32 = invoke { i64, ptr } @"_ZN79_$LT$core..result..Result$LT$T$C$E$GT$$u20$as$u20$core..ops..try_trait..Try$GT$6branch17h3bcdcb743ef3f7bfE"(i64 %_18.0, ptr %_18.1)
          to label %bb16 unwind label %cleanup, !dbg !4387

bb16:                                             ; preds = %bb15
  %33 = extractvalue { i64, ptr } %32, 0, !dbg !4387
  %34 = extractvalue { i64, ptr } %32, 1, !dbg !4387
  store i64 %33, ptr %_17, align 8, !dbg !4387
  %35 = getelementptr inbounds i8, ptr %_17, i64 8, !dbg !4387
  store ptr %34, ptr %35, align 8, !dbg !4387
  %_20 = load i64, ptr %_17, align 8, !dbg !4387
  %36 = icmp eq i64 %_20, 0, !dbg !4387
  br i1 %36, label %bb17, label %bb18, !dbg !4387

bb17:                                             ; preds = %bb16
  %37 = getelementptr inbounds i8, ptr %_17, i64 8, !dbg !4387
  %val2 = load i64, ptr %37, align 8, !dbg !4387
  store i64 %val2, ptr %val.dbg.spill3, align 8, !dbg !4387
    #dbg_declare(ptr %val.dbg.spill3, !4369, !DIExpression(), !4393)
  %38 = getelementptr inbounds i8, ptr %_16, i64 8, !dbg !4387
  store i64 %val2, ptr %38, align 8, !dbg !4387
  store i64 1, ptr %_16, align 8, !dbg !4387
  %39 = load i64, ptr %_16, align 8, !dbg !4387
  %40 = getelementptr inbounds i8, ptr %_16, i64 8, !dbg !4387
  %41 = load i64, ptr %40, align 8, !dbg !4387
  store i64 %39, ptr %__field0, align 8, !dbg !4387
  %42 = getelementptr inbounds i8, ptr %__field0, i64 8, !dbg !4387
  store i64 %41, ptr %42, align 8, !dbg !4387
  br label %bb1, !dbg !4387

bb18:                                             ; preds = %bb16
  %43 = getelementptr inbounds i8, ptr %_17, i64 8, !dbg !4390
  %residual = load ptr, ptr %43, align 8, !dbg !4390
  store ptr %residual, ptr %residual.dbg.spill, align 8, !dbg !4390
    #dbg_declare(ptr %residual.dbg.spill, !4367, !DIExpression(), !4394)
  %44 = invoke { i64, ptr } @"_ZN153_$LT$core..result..Result$LT$T$C$F$GT$$u20$as$u20$core..ops..try_trait..FromResidual$LT$core..result..Result$LT$core..convert..Infallible$C$E$GT$$GT$$GT$13from_residual17hefc4644013890f8bE"(ptr align 8 %residual, ptr align 8 @alloc_ae52e422ab29884b58622d79788975fe)
          to label %bb34 unwind label %cleanup, !dbg !4395

bb34:                                             ; preds = %bb18
  %45 = extractvalue { i64, ptr } %44, 0, !dbg !4395
  %46 = extractvalue { i64, ptr } %44, 1, !dbg !4395
  store i64 %45, ptr %_0, align 8, !dbg !4395
  %47 = getelementptr inbounds i8, ptr %_0, i64 8, !dbg !4395
  store ptr %46, ptr %47, align 8, !dbg !4395
  br label %bb29, !dbg !4395

bb29:                                             ; preds = %bb33, %bb36, %bb35, %bb13, %bb34
  br label %bb30, !dbg !4396

bb13:                                             ; preds = %bb12
  %48 = getelementptr inbounds i8, ptr %_0, i64 8, !dbg !4387
  store ptr %_15, ptr %48, align 8, !dbg !4387
  store i64 1, ptr %_0, align 8, !dbg !4387
  br label %bb29, !dbg !4397

bb19:                                             ; preds = %bb9
  %49 = invoke align 8 ptr @"_ZN79_$LT$core..result..Result$LT$T$C$E$GT$$u20$as$u20$core..ops..try_trait..Try$GT$6branch17hc26c71af1167a9cfE"(ptr align 8 %_24)
          to label %bb20 unwind label %cleanup, !dbg !4387

bb20:                                             ; preds = %bb19
  store ptr %49, ptr %_23, align 8, !dbg !4387
  %50 = load ptr, ptr %_23, align 8, !dbg !4387
  %51 = ptrtoint ptr %50 to i64, !dbg !4387
  %52 = icmp eq i64 %51, 0, !dbg !4387
  %_26 = select i1 %52, i64 0, i64 1, !dbg !4387
  %53 = icmp eq i64 %_26, 0, !dbg !4387
  br i1 %53, label %bb1, label %bb21, !dbg !4387

bb21:                                             ; preds = %bb20
  %residual4 = load ptr, ptr %_23, align 8, !dbg !4390
  store ptr %residual4, ptr %residual.dbg.spill5, align 8, !dbg !4390
    #dbg_declare(ptr %residual.dbg.spill5, !4371, !DIExpression(), !4399)
  %54 = invoke { i64, ptr } @"_ZN153_$LT$core..result..Result$LT$T$C$F$GT$$u20$as$u20$core..ops..try_trait..FromResidual$LT$core..result..Result$LT$core..convert..Infallible$C$E$GT$$GT$$GT$13from_residual17hefc4644013890f8bE"(ptr align 8 %residual4, ptr align 8 @alloc_ae52e422ab29884b58622d79788975fe)
          to label %bb35 unwind label %cleanup, !dbg !4400

bb35:                                             ; preds = %bb21
  %55 = extractvalue { i64, ptr } %54, 0, !dbg !4400
  %56 = extractvalue { i64, ptr } %54, 1, !dbg !4400
  store i64 %55, ptr %_0, align 8, !dbg !4400
  %57 = getelementptr inbounds i8, ptr %_0, i64 8, !dbg !4400
  store ptr %56, ptr %57, align 8, !dbg !4400
  br label %bb29, !dbg !4400

bb22:                                             ; preds = %bb7
  %58 = invoke { i64, ptr } @_ZN5serde9__private2de13missing_field17h6ad0af5ebef2a4fcE(ptr align 1 @alloc_17c2596754a11fa444906090c11cb050, i64 7)
          to label %bb24 unwind label %cleanup, !dbg !4385

bb23:                                             ; preds = %bb7
  %59 = getelementptr inbounds i8, ptr %__field0, i64 8, !dbg !4385
  %__field010 = load i64, ptr %59, align 8, !dbg !4385
  store i64 %__field010, ptr %__field0.dbg.spill, align 8, !dbg !4385
    #dbg_declare(ptr %__field0.dbg.spill, !4377, !DIExpression(), !4401)
  store i64 %__field010, ptr %__field01, align 8, !dbg !4401
  br label %bb28, !dbg !4402

bb24:                                             ; preds = %bb22
  %_32.0 = extractvalue { i64, ptr } %58, 0, !dbg !4385
  %_32.1 = extractvalue { i64, ptr } %58, 1, !dbg !4385
  %60 = invoke { i64, ptr } @"_ZN79_$LT$core..result..Result$LT$T$C$E$GT$$u20$as$u20$core..ops..try_trait..Try$GT$6branch17h3bcdcb743ef3f7bfE"(i64 %_32.0, ptr %_32.1)
          to label %bb25 unwind label %cleanup, !dbg !4385

bb25:                                             ; preds = %bb24
  %61 = extractvalue { i64, ptr } %60, 0, !dbg !4385
  %62 = extractvalue { i64, ptr } %60, 1, !dbg !4385
  store i64 %61, ptr %_31, align 8, !dbg !4385
  %63 = getelementptr inbounds i8, ptr %_31, i64 8, !dbg !4385
  store ptr %62, ptr %63, align 8, !dbg !4385
  %_33 = load i64, ptr %_31, align 8, !dbg !4385
  %64 = icmp eq i64 %_33, 0, !dbg !4385
  br i1 %64, label %bb26, label %bb27, !dbg !4385

bb26:                                             ; preds = %bb25
  %65 = getelementptr inbounds i8, ptr %_31, i64 8, !dbg !4385
  %val6 = load i64, ptr %65, align 8, !dbg !4385
  store i64 %val6, ptr %val.dbg.spill7, align 8, !dbg !4385
    #dbg_declare(ptr %val.dbg.spill7, !4381, !DIExpression(), !4403)
  store i64 %val6, ptr %__field01, align 8, !dbg !4403
  br label %bb28, !dbg !4402

bb27:                                             ; preds = %bb25
  %66 = getelementptr inbounds i8, ptr %_31, i64 8, !dbg !4402
  %residual8 = load ptr, ptr %66, align 8, !dbg !4402
  store ptr %residual8, ptr %residual.dbg.spill9, align 8, !dbg !4402
    #dbg_declare(ptr %residual.dbg.spill9, !4379, !DIExpression(), !4404)
  %67 = invoke { i64, ptr } @"_ZN153_$LT$core..result..Result$LT$T$C$F$GT$$u20$as$u20$core..ops..try_trait..FromResidual$LT$core..result..Result$LT$core..convert..Infallible$C$E$GT$$GT$$GT$13from_residual17hefc4644013890f8bE"(ptr align 8 %residual8, ptr align 8 @alloc_ae52e422ab29884b58622d79788975fe)
          to label %bb36 unwind label %cleanup, !dbg !4405

bb28:                                             ; preds = %bb26, %bb23
  %_37 = load i64, ptr %__field01, align 8, !dbg !4388
  %68 = getelementptr inbounds i8, ptr %_0, i64 8, !dbg !4388
  store i64 %_37, ptr %68, align 8, !dbg !4388
  store i64 0, ptr %_0, align 8, !dbg !4388
  br label %bb30, !dbg !4396

bb36:                                             ; preds = %bb27
  %69 = extractvalue { i64, ptr } %67, 0, !dbg !4405
  %70 = extractvalue { i64, ptr } %67, 1, !dbg !4405
  store i64 %69, ptr %_0, align 8, !dbg !4405
  %71 = getelementptr inbounds i8, ptr %_0, i64 8, !dbg !4405
  store ptr %70, ptr %71, align 8, !dbg !4405
  br label %bb29, !dbg !4405

bb30:                                             ; preds = %bb28, %bb29
  %72 = load i64, ptr %_0, align 8, !dbg !4406
  %73 = getelementptr inbounds i8, ptr %_0, i64 8, !dbg !4406
  %74 = load ptr, ptr %73, align 8, !dbg !4406
  %75 = insertvalue { i64, ptr } poison, i64 %72, 0, !dbg !4406
  %76 = insertvalue { i64, ptr } %75, ptr %74, 1, !dbg !4406
  ret { i64, ptr } %76, !dbg !4406

bb33:                                             ; preds = %bb6
  %77 = extractvalue { i64, ptr } %23, 0, !dbg !4392
  %78 = extractvalue { i64, ptr } %23, 1, !dbg !4392
  store i64 %77, ptr %_0, align 8, !dbg !4392
  %79 = getelementptr inbounds i8, ptr %_0, i64 8, !dbg !4392
  store ptr %78, ptr %79, align 8, !dbg !4392
  br label %bb29, !dbg !4392

bb4:                                              ; No predecessors!
  unreachable, !dbg !4407
}

; Function Attrs: inlinehint nonlazybind uwtable
define internal { i64, ptr } @"_ZN171_$LT$OpenFaaSRPC.._..$LT$impl$u20$serde..de..Deserialize$u20$for$u20$OpenFaaSRPC..SocialGraphGetFollowersArgs$GT$..deserialize..__Visitor$u20$as$u20$serde..de..Visitor$GT$9visit_seq17h2dbcbd0f7ec18b18E"(ptr align 8 %0, i1 zeroext %1) unnamed_addr #1 personality ptr @rust_eh_personality !dbg !4409 {
start:
  %residual.dbg.spill = alloca [8 x i8], align 8
  %__field0.dbg.spill = alloca [8 x i8], align 8
  %2 = alloca [16 x i8], align 8
  %self.dbg.spill = alloca [0 x i8], align 1
  %_1.dbg.spill = alloca [0 x i8], align 1
  %val = alloca [16 x i8], align 8
  %_4 = alloca [16 x i8], align 8
  %_3 = alloca [16 x i8], align 8
  %_0 = alloca [16 x i8], align 8
  %__seq = alloca [16 x i8], align 8
  store ptr %0, ptr %__seq, align 8
  %3 = getelementptr inbounds i8, ptr %__seq, i64 8
  %4 = zext i1 %1 to i8
  store i8 %4, ptr %3, align 8
    #dbg_declare(ptr %_1.dbg.spill, !4423, !DIExpression(), !4424)
    #dbg_declare(ptr %__seq, !4414, !DIExpression(), !4424)
    #dbg_declare(ptr %val, !4419, !DIExpression(), !4425)
    #dbg_declare(ptr %self.dbg.spill, !4413, !DIExpression(), !4424)
  invoke void @_ZN5serde2de9SeqAccess12next_element17h9ee06a18382d4929E(ptr sret([16 x i8]) align 8 %_4, ptr align 8 %__seq)
          to label %bb1 unwind label %cleanup, !dbg !4424

bb11:                                             ; preds = %cleanup
  %5 = load ptr, ptr %2, align 8, !dbg !4424
  %6 = getelementptr inbounds i8, ptr %2, i64 8, !dbg !4424
  %7 = load i32, ptr %6, align 8, !dbg !4424
  %8 = insertvalue { ptr, i32 } poison, ptr %5, 0, !dbg !4424
  %9 = insertvalue { ptr, i32 } %8, i32 %7, 1, !dbg !4424
  resume { ptr, i32 } %9, !dbg !4424

cleanup:                                          ; preds = %bb6, %bb5, %bb1, %start
  %10 = landingpad { ptr, i32 }
          cleanup
  %11 = extractvalue { ptr, i32 } %10, 0
  %12 = extractvalue { ptr, i32 } %10, 1
  store ptr %11, ptr %2, align 8
  %13 = getelementptr inbounds i8, ptr %2, i64 8
  store i32 %12, ptr %13, align 8
  br label %bb11

bb1:                                              ; preds = %start
  invoke void @"_ZN79_$LT$core..result..Result$LT$T$C$E$GT$$u20$as$u20$core..ops..try_trait..Try$GT$6branch17h605e98011f08ed54E"(ptr sret([16 x i8]) align 8 %_3, ptr align 8 %_4)
          to label %bb2 unwind label %cleanup, !dbg !4424

bb2:                                              ; preds = %bb1
  %14 = load i64, ptr %_3, align 8, !dbg !4424
  %15 = icmp eq i64 %14, 2, !dbg !4424
  %_6 = select i1 %15, i64 1, i64 0, !dbg !4424
  %16 = icmp eq i64 %_6, 0, !dbg !4424
  br i1 %16, label %bb4, label %bb5, !dbg !4424

bb4:                                              ; preds = %bb2
  %17 = load i64, ptr %_3, align 8, !dbg !4424
  %18 = getelementptr inbounds i8, ptr %_3, i64 8, !dbg !4424
  %19 = load i64, ptr %18, align 8, !dbg !4424
  store i64 %17, ptr %val, align 8, !dbg !4424
  %20 = getelementptr inbounds i8, ptr %val, i64 8, !dbg !4424
  store i64 %19, ptr %20, align 8, !dbg !4424
  %_9 = load i64, ptr %val, align 8, !dbg !4424
  %21 = icmp eq i64 %_9, 0, !dbg !4424
  br i1 %21, label %bb6, label %bb7, !dbg !4424

bb5:                                              ; preds = %bb2
  %22 = getelementptr inbounds i8, ptr %_3, i64 8, !dbg !4426
