; ModuleID = 'build_script_build.5102a09b53ec2eb8-cgu.0'
source_filename = "build_script_build.5102a09b53ec2eb8-cgu.0"
target datalayout = "e-m:e-p270:32:32-p271:32:32-p272:64:64-i64:64-f80:128-n8:16:32:64-S128"
target triple = "x86_64-unknown-linux-gnu"

%"core::option::Option<&[core::mem::maybe_uninit::MaybeUninit<u8>]>" = type { ptr, [1 x i64] }
%"core::option::Option<u32>" = type { i32, [1 x i32] }
%"core::option::Option<(usize, char)>" = type { [2 x i32], i32, [1 x i32] }
%"core::str::iter::CharIndices<'_>" = type { %"core::str::iter::Chars<'_>", i64 }
%"core::str::iter::Chars<'_>" = type { %"core::slice::iter::Iter<'_, u8>" }
%"core::slice::iter::Iter<'_, u8>" = type { ptr, ptr, %"core::marker::PhantomData<&u8>" }
%"core::marker::PhantomData<&u8>" = type {}
%"core::str::pattern::SearchStep" = type { i64, [2 x i64] }
%"core::str::pattern::MultiCharEqSearcher<'_, {closure@core::str::<impl str>::trim::{closure#0}}>" = type { { ptr, i64 }, %"core::str::iter::CharIndices<'_>", %"{closure@core::str::<impl str>::trim::{closure#0}}" }
%"{closure@core::str::<impl str>::trim::{closure#0}}" = type {}
%"core::str::pattern::SearchStep::Reject" = type { [1 x i64], i64, i64 }
%"core::str::pattern::SearchStep::Match" = type { [1 x i64], i64, i64 }
%"core::ptr::metadata::PtrComponents<[u8]>" = type { ptr, i64 }
%"core::ptr::metadata::PtrRepr<[u8]>" = type { [2 x i64] }
%"core::option::Option<&[u8]>" = type { ptr, [1 x i64] }
%"core::option::Option<(usize, usize)>" = type { i64, [2 x i64] }
%"core::option::Option<(usize, usize)>::Some" = type { [1 x i64], { i64, i64 } }
%"alloc::collections::btree::map::IntoIter<std::ffi::os_str::OsString, core::option::Option<std::ffi::os_str::OsString>>" = type { %"alloc::collections::btree::navigate::LazyLeafRange<alloc::collections::btree::node::marker::Dying, std::ffi::os_str::OsString, core::option::Option<std::ffi::os_str::OsString>>", i64, %"alloc::alloc::Global" }
%"alloc::collections::btree::navigate::LazyLeafRange<alloc::collections::btree::node::marker::Dying, std::ffi::os_str::OsString, core::option::Option<std::ffi::os_str::OsString>>" = type { %"core::option::Option<alloc::collections::btree::navigate::LazyLeafHandle<alloc::collections::btree::node::marker::Dying, std::ffi::os_str::OsString, core::option::Option<std::ffi::os_str::OsString>>>", %"core::option::Option<alloc::collections::btree::navigate::LazyLeafHandle<alloc::collections::btree::node::marker::Dying, std::ffi::os_str::OsString, core::option::Option<std::ffi::os_str::OsString>>>" }
%"core::option::Option<alloc::collections::btree::navigate::LazyLeafHandle<alloc::collections::btree::node::marker::Dying, std::ffi::os_str::OsString, core::option::Option<std::ffi::os_str::OsString>>>" = type { i64, [3 x i64] }
%"alloc::alloc::Global" = type {}
%"alloc::collections::btree::navigate::LazyLeafHandle<alloc::collections::btree::node::marker::Dying, std::ffi::os_str::OsString, core::option::Option<std::ffi::os_str::OsString>>" = type { ptr, [2 x i64] }
%"alloc::collections::btree::node::NodeRef<alloc::collections::btree::node::marker::Dying, std::ffi::os_str::OsString, core::option::Option<std::ffi::os_str::OsString>, alloc::collections::btree::node::marker::LeafOrInternal>" = type { ptr, i64, %"core::marker::PhantomData<(alloc::collections::btree::node::marker::Dying, alloc::collections::btree::node::marker::LeafOrInternal)>" }
%"core::marker::PhantomData<(alloc::collections::btree::node::marker::Dying, alloc::collections::btree::node::marker::LeafOrInternal)>" = type {}
%"core::option::Option<alloc::collections::btree::node::NodeRef<alloc::collections::btree::node::marker::Owned, std::ffi::os_str::OsString, core::option::Option<std::ffi::os_str::OsString>, alloc::collections::btree::node::marker::LeafOrInternal>>" = type { ptr, [1 x i64] }
%"core::mem::manually_drop::ManuallyDrop<alloc::collections::btree::map::BTreeMap<std::ffi::os_str::OsString, core::option::Option<std::ffi::os_str::OsString>>>" = type { %"alloc::collections::btree::map::BTreeMap<std::ffi::os_str::OsString, core::option::Option<std::ffi::os_str::OsString>>" }
%"alloc::collections::btree::map::BTreeMap<std::ffi::os_str::OsString, core::option::Option<std::ffi::os_str::OsString>>" = type { %"core::option::Option<alloc::collections::btree::node::NodeRef<alloc::collections::btree::node::marker::Owned, std::ffi::os_str::OsString, core::option::Option<std::ffi::os_str::OsString>, alloc::collections::btree::node::marker::LeafOrInternal>>", i64, %"core::mem::manually_drop::ManuallyDrop<alloc::alloc::Global>", %"core::marker::PhantomData<alloc::boxed::Box<(std::ffi::os_str::OsString, core::option::Option<std::ffi::os_str::OsString>)>>" }
%"core::mem::manually_drop::ManuallyDrop<alloc::alloc::Global>" = type { %"alloc::alloc::Global" }
%"core::marker::PhantomData<alloc::boxed::Box<(std::ffi::os_str::OsString, core::option::Option<std::ffi::os_str::OsString>)>>" = type {}
%"alloc::collections::btree::navigate::LazyLeafHandle<alloc::collections::btree::node::marker::Dying, std::ffi::os_str::OsString, core::option::Option<std::ffi::os_str::OsString>>::Root" = type { [1 x i64], %"alloc::collections::btree::node::NodeRef<alloc::collections::btree::node::marker::Dying, std::ffi::os_str::OsString, core::option::Option<std::ffi::os_str::OsString>, alloc::collections::btree::node::marker::LeafOrInternal>" }
%"core::option::Option<alloc::collections::btree::navigate::LazyLeafHandle<alloc::collections::btree::node::marker::Dying, std::ffi::os_str::OsString, core::option::Option<std::ffi::os_str::OsString>>>::Some" = type { [1 x i64], %"alloc::collections::btree::navigate::LazyLeafHandle<alloc::collections::btree::node::marker::Dying, std::ffi::os_str::OsString, core::option::Option<std::ffi::os_str::OsString>>" }
%"alloc::vec::Vec<u8>" = type { %"alloc::raw_vec::RawVec<u8>", i64 }
%"alloc::raw_vec::RawVec<u8>" = type { i64, ptr, %"alloc::alloc::Global" }
%"alloc::collections::btree::node::Handle<alloc::collections::btree::node::NodeRef<alloc::collections::btree::node::marker::Dying, std::ffi::os_str::OsString, core::option::Option<std::ffi::os_str::OsString>, alloc::collections::btree::node::marker::LeafOrInternal>, alloc::collections::btree::node::marker::KV>" = type { %"alloc::collections::btree::node::NodeRef<alloc::collections::btree::node::marker::Dying, std::ffi::os_str::OsString, core::option::Option<std::ffi::os_str::OsString>, alloc::collections::btree::node::marker::LeafOrInternal>", i64, %"core::marker::PhantomData<alloc::collections::btree::node::marker::KV>" }
%"core::marker::PhantomData<alloc::collections::btree::node::marker::KV>" = type {}
%"core::option::Option<alloc::collections::btree::node::Handle<alloc::collections::btree::node::NodeRef<alloc::collections::btree::node::marker::Dying, std::ffi::os_str::OsString, core::option::Option<std::ffi::os_str::OsString>, alloc::collections::btree::node::marker::LeafOrInternal>, alloc::collections::btree::node::marker::KV>>" = type { ptr, [2 x i64] }
%"std::io::error::ErrorData<alloc::boxed::Box<std::io::error::Custom>>" = type { i8, [15 x i8] }
%"core::ptr::metadata::PtrComponents<()>" = type { ptr, {} }
%"core::ptr::metadata::PtrRepr<()>" = type { [1 x i64] }
%"std::io::error::ErrorData<alloc::boxed::Box<std::io::error::Custom>>::Os" = type { [1 x i32], i32 }
%"std::io::error::ErrorData<alloc::boxed::Box<std::io::error::Custom>>::SimpleMessage" = type { [1 x i64], ptr }
%"std::io::error::ErrorData<alloc::boxed::Box<std::io::error::Custom>>::Simple" = type { [1 x i8], i8 }
%"std::io::error::ErrorData<alloc::boxed::Box<std::io::error::Custom>>::Custom" = type { [1 x i64], ptr }
%"core::result::Result<alloc::string::String, std::env::VarError>" = type { i64, [3 x i64] }
%"core::option::Option<std::ffi::os_str::OsString>" = type { i64, [2 x i64] }
%"std::process::Command" = type { %"std::sys::pal::unix::process::process_common::Command" }
%"std::sys::pal::unix::process::process_common::Command" = type { %"alloc::vec::Vec<alloc::ffi::c_str::CString>", %"std::sys::pal::unix::process::process_common::Argv", %"alloc::vec::Vec<alloc::boxed::Box<dyn core::ops::function::FnMut() -> core::result::Result<(), std::io::error::Error> + core::marker::Send + core::marker::Sync>>", %"core::option::Option<u32>", %"core::option::Option<u32>", %"core::option::Option<i32>", %"core::option::Option<std::sys::pal::unix::process::process_common::Stdio>", %"core::option::Option<std::sys::pal::unix::process::process_common::Stdio>", %"core::option::Option<std::sys::pal::unix::process::process_common::Stdio>", %"std::sys_common::process::CommandEnv", %"alloc::ffi::c_str::CString", %"core::option::Option<alloc::ffi::c_str::CString>", %"core::option::Option<alloc::boxed::Box<[u32]>>", i8, i8, i8, [5 x i8] }
%"alloc::vec::Vec<alloc::ffi::c_str::CString>" = type { %"alloc::raw_vec::RawVec<alloc::ffi::c_str::CString>", i64 }
%"alloc::raw_vec::RawVec<alloc::ffi::c_str::CString>" = type { i64, ptr, %"alloc::alloc::Global" }
%"std::sys::pal::unix::process::process_common::Argv" = type { %"alloc::vec::Vec<*const i8>" }
%"alloc::vec::Vec<*const i8>" = type { %"alloc::raw_vec::RawVec<*const i8>", i64 }
%"alloc::raw_vec::RawVec<*const i8>" = type { i64, ptr, %"alloc::alloc::Global" }
%"alloc::vec::Vec<alloc::boxed::Box<dyn core::ops::function::FnMut() -> core::result::Result<(), std::io::error::Error> + core::marker::Send + core::marker::Sync>>" = type { %"alloc::raw_vec::RawVec<alloc::boxed::Box<dyn core::ops::function::FnMut() -> core::result::Result<(), std::io::error::Error> + core::marker::Send + core::marker::Sync>>", i64 }
%"alloc::raw_vec::RawVec<alloc::boxed::Box<dyn core::ops::function::FnMut() -> core::result::Result<(), std::io::error::Error> + core::marker::Send + core::marker::Sync>>" = type { i64, ptr, %"alloc::alloc::Global" }
%"core::option::Option<i32>" = type { i32, [1 x i32] }
%"core::option::Option<std::sys::pal::unix::process::process_common::Stdio>" = type { i32, [1 x i32] }
%"std::sys_common::process::CommandEnv" = type { %"alloc::collections::btree::map::BTreeMap<std::ffi::os_str::OsString, core::option::Option<std::ffi::os_str::OsString>>", i8, i8, [6 x i8] }
%"alloc::ffi::c_str::CString" = type { %"alloc::boxed::Box<[u8]>" }
%"alloc::boxed::Box<[u8]>" = type { %"core::ptr::unique::Unique<[u8]>", %"alloc::alloc::Global" }
%"core::ptr::unique::Unique<[u8]>" = type { %"core::ptr::non_null::NonNull<[u8]>", %"core::marker::PhantomData<[u8]>" }
%"core::ptr::non_null::NonNull<[u8]>" = type { { ptr, i64 } }
%"core::marker::PhantomData<[u8]>" = type {}
%"core::option::Option<alloc::ffi::c_str::CString>" = type { ptr, [1 x i64] }
%"core::option::Option<alloc::boxed::Box<[u32]>>" = type { ptr, [1 x i64] }
%"{closure@std::panicking::begin_panic<&str>::{closure#0}}" = type { { ptr, i64 }, ptr }
%"core::option::Option<&str>" = type { ptr, [1 x i64] }
%"std::panicking::begin_panic::Payload<&str>" = type { %"core::option::Option<&str>" }
%"core::str::pattern::CharPredicateSearcher<'_, {closure@core::str::<impl str>::trim::{closure#0}}>" = type { %"core::str::pattern::MultiCharEqSearcher<'_, {closure@core::str::<impl str>::trim::{closure#0}}>" }
%"core::str::pattern::CharPredicateSearcher<'_, {closure@/users/zyuxuan/.cargo/registry/src/index.crates.io-6f17d22bba15001f/libc-0.2.153/build.rs:283:43: 283:46}>" = type { %"core::str::pattern::MultiCharEqSearcher<'_, {closure@/users/zyuxuan/.cargo/registry/src/index.crates.io-6f17d22bba15001f/libc-0.2.153/build.rs:283:43: 283:46}>" }
%"core::str::pattern::MultiCharEqSearcher<'_, {closure@/users/zyuxuan/.cargo/registry/src/index.crates.io-6f17d22bba15001f/libc-0.2.153/build.rs:283:43: 283:46}>" = type { { ptr, i64 }, %"core::str::iter::CharIndices<'_>", %"{closure@/users/zyuxuan/.cargo/registry/src/index.crates.io-6f17d22bba15001f/libc-0.2.153/build.rs:283:43: 283:46}" }
%"{closure@/users/zyuxuan/.cargo/registry/src/index.crates.io-6f17d22bba15001f/libc-0.2.153/build.rs:283:43: 283:46}" = type {}
%"core::fmt::Arguments<'_>" = type { { ptr, i64 }, { ptr, i64 }, %"core::option::Option<&[core::fmt::rt::Placeholder]>" }
%"core::option::Option<&[core::fmt::rt::Placeholder]>" = type { ptr, [1 x i64] }
%"core::option::Option<usize>" = type { i64, [1 x i64] }
%"core::result::Result<alloc::string::String, alloc::string::FromUtf8Error>::Ok" = type { [1 x i64], %"alloc::string::String" }
%"alloc::string::String" = type { %"alloc::vec::Vec<u8>" }
%"alloc::boxed::Box<dyn core::ops::function::FnMut() -> core::result::Result<(), std::io::error::Error> + core::marker::Send + core::marker::Sync>" = type { %"core::ptr::unique::Unique<dyn core::ops::function::FnMut() -> core::result::Result<(), std::io::error::Error> + core::marker::Send + core::marker::Sync>", %"alloc::alloc::Global" }
%"core::ptr::unique::Unique<dyn core::ops::function::FnMut() -> core::result::Result<(), std::io::error::Error> + core::marker::Send + core::marker::Sync>" = type { %"core::ptr::non_null::NonNull<dyn core::ops::function::FnMut() -> core::result::Result<(), std::io::error::Error> + core::marker::Send + core::marker::Sync>", %"core::marker::PhantomData<dyn core::ops::function::FnMut() -> core::result::Result<(), std::io::error::Error> + core::marker::Send + core::marker::Sync>" }
%"core::ptr::non_null::NonNull<dyn core::ops::function::FnMut() -> core::result::Result<(), std::io::error::Error> + core::marker::Send + core::marker::Sync>" = type { { ptr, ptr } }
%"core::marker::PhantomData<dyn core::ops::function::FnMut() -> core::result::Result<(), std::io::error::Error> + core::marker::Send + core::marker::Sync>" = type {}
%"std::process::Output" = type { %"alloc::vec::Vec<u8>", %"alloc::vec::Vec<u8>", i32, [1 x i32] }
%"core::result::Result<alloc::string::String, std::env::VarError>::Ok" = type { [1 x i64], %"alloc::string::String" }
%"core::result::Result<alloc::string::String, std::env::VarError>::Err" = type { [1 x i64], %"std::env::VarError" }
%"std::env::VarError" = type { i64, [2 x i64] }
%"core::result::Result<std::process::Output, std::io::error::Error>::Err" = type { [1 x i64], ptr }
%"core::result::Result<u32, core::num::error::ParseIntError>" = type { i8, [7 x i8] }
%"core::result::Result<u64, core::num::error::ParseIntError>" = type { i8, [15 x i8] }
%"core::str::iter::Split<'_, {closure@/users/zyuxuan/.cargo/registry/src/index.crates.io-6f17d22bba15001f/libc-0.2.153/build.rs:283:43: 283:46}>" = type { %"core::str::iter::SplitInternal<'_, {closure@/users/zyuxuan/.cargo/registry/src/index.crates.io-6f17d22bba15001f/libc-0.2.153/build.rs:283:43: 283:46}>" }
%"core::str::iter::SplitInternal<'_, {closure@/users/zyuxuan/.cargo/registry/src/index.crates.io-6f17d22bba15001f/libc-0.2.153/build.rs:283:43: 283:46}>" = type { i64, i64, %"core::str::pattern::CharPredicateSearcher<'_, {closure@/users/zyuxuan/.cargo/registry/src/index.crates.io-6f17d22bba15001f/libc-0.2.153/build.rs:283:43: 283:46}>", i8, i8, [6 x i8] }
%"core::str::iter::Split<'_, char>" = type { %"core::str::iter::SplitInternal<'_, char>" }
%"core::str::iter::SplitInternal<'_, char>" = type { i64, i64, %"core::str::pattern::CharSearcher<'_>", i8, i8, [6 x i8] }
%"core::str::pattern::CharSearcher<'_>" = type { { ptr, i64 }, i64, i64, i64, [4 x i8], i32 }
%"core::ops::range::Range<usize>" = type { i64, i64 }
%"core::fmt::rt::Argument<'_>" = type { ptr, ptr }
%"core::ops::control_flow::ControlFlow<core::option::Option<core::convert::Infallible>, usize>" = type { i64, [1 x i64] }
%"core::alloc::layout::Layout" = type { i64, i64 }
%"core::result::Result<core::alloc::layout::Layout, core::alloc::layout::LayoutError>" = type { i64, [1 x i64] }
%"core::option::Option<(&mut [core::mem::maybe_uninit::MaybeUninit<u8>], &mut [core::mem::maybe_uninit::MaybeUninit<u8>])>" = type { ptr, [3 x i64] }
%"core::ptr::metadata::PtrComponents<[core::mem::maybe_uninit::MaybeUninit<u8>]>" = type { ptr, i64 }
%"core::ptr::metadata::PtrRepr<[core::mem::maybe_uninit::MaybeUninit<u8>]>" = type { [2 x i64] }
%"core::slice::iter::Iter<'_, (&str, &[&str])>" = type { ptr, ptr, %"core::marker::PhantomData<&(&str, &[&str])>" }
%"core::marker::PhantomData<&(&str, &[&str])>" = type {}
%"core::slice::iter::Iter<'_, &str>" = type { ptr, ptr, %"core::marker::PhantomData<&&str>" }
%"core::marker::PhantomData<&&str>" = type {}
%"core::option::Option<u64>" = type { i64, [1 x i64] }
%"core::result::Result<&str, core::str::error::Utf8Error>::Ok" = type { [1 x i64], { ptr, i64 } }
%"core::option::Option<alloc::string::String>" = type { i64, [2 x i64] }
%"core::result::Result<u64, core::num::error::ParseIntError>::Ok" = type { [1 x i64], i64 }
%"core::result::Result<u32, core::num::error::ParseIntError>::Ok" = type { [1 x i32], i32 }
%"core::option::Option<std::process::Output>" = type { i64, [6 x i64] }
%"core::result::Result<core::ptr::non_null::NonNull<[u8]>, alloc::collections::TryReserveError>" = type { i64, [2 x i64] }
%"core::result::Result<core::ptr::non_null::NonNull<[u8]>, core::alloc::AllocError>" = type { ptr, [1 x i64] }
%"core::result::Result<core::ptr::non_null::NonNull<[u8]>, alloc::collections::TryReserveError>::Ok" = type { [1 x i64], %"core::ptr::non_null::NonNull<[u8]>" }
%"core::result::Result<core::ptr::non_null::NonNull<[u8]>, alloc::collections::TryReserveError>::Err" = type { [1 x i64], %"alloc::collections::TryReserveError" }
%"alloc::collections::TryReserveError" = type { %"alloc::collections::TryReserveErrorKind" }
%"alloc::collections::TryReserveErrorKind" = type { i64, [1 x i64] }
%"core::result::Result<(), alloc::collections::TryReserveErrorKind>" = type { i64, [1 x i64] }
%"core::result::Result<(), alloc::collections::TryReserveError>" = type { i64, [1 x i64] }
%"core::result::Result<core::alloc::layout::Layout, alloc::collections::TryReserveErrorKind>" = type { i64, [2 x i64] }
%"core::result::Result<core::alloc::layout::Layout, alloc::collections::TryReserveErrorKind>::Ok" = type { [1 x i64], %"core::alloc::layout::Layout" }
%"core::result::Result<core::alloc::layout::Layout, alloc::collections::TryReserveErrorKind>::Err" = type { [1 x i64], %"alloc::collections::TryReserveErrorKind" }
%"alloc::collections::btree::node::Handle<alloc::collections::btree::node::NodeRef<alloc::collections::btree::node::marker::Dying, std::ffi::os_str::OsString, core::option::Option<std::ffi::os_str::OsString>, alloc::collections::btree::node::marker::Leaf>, alloc::collections::btree::node::marker::Edge>" = type { %"alloc::collections::btree::node::NodeRef<alloc::collections::btree::node::marker::Dying, std::ffi::os_str::OsString, core::option::Option<std::ffi::os_str::OsString>, alloc::collections::btree::node::marker::Leaf>", i64, %"core::marker::PhantomData<alloc::collections::btree::node::marker::Edge>" }
%"alloc::collections::btree::node::NodeRef<alloc::collections::btree::node::marker::Dying, std::ffi::os_str::OsString, core::option::Option<std::ffi::os_str::OsString>, alloc::collections::btree::node::marker::Leaf>" = type { ptr, i64, %"core::marker::PhantomData<(alloc::collections::btree::node::marker::Dying, alloc::collections::btree::node::marker::Leaf)>" }
%"core::marker::PhantomData<(alloc::collections::btree::node::marker::Dying, alloc::collections::btree::node::marker::Leaf)>" = type {}
%"core::marker::PhantomData<alloc::collections::btree::node::marker::Edge>" = type {}
%"alloc::collections::btree::mem::replace::PanicGuard" = type {}
%"core::option::Option<alloc::collections::btree::node::Handle<alloc::collections::btree::node::NodeRef<alloc::collections::btree::node::marker::Dying, std::ffi::os_str::OsString, core::option::Option<std::ffi::os_str::OsString>, alloc::collections::btree::node::marker::Internal>, alloc::collections::btree::node::marker::Edge>>" = type { ptr, [2 x i64] }
%"alloc::collections::btree::node::Handle<alloc::collections::btree::node::NodeRef<alloc::collections::btree::node::marker::Dying, std::ffi::os_str::OsString, core::option::Option<std::ffi::os_str::OsString>, alloc::collections::btree::node::marker::Internal>, alloc::collections::btree::node::marker::Edge>" = type { %"alloc::collections::btree::node::NodeRef<alloc::collections::btree::node::marker::Dying, std::ffi::os_str::OsString, core::option::Option<std::ffi::os_str::OsString>, alloc::collections::btree::node::marker::Internal>", i64, %"core::marker::PhantomData<alloc::collections::btree::node::marker::Edge>" }
%"alloc::collections::btree::node::NodeRef<alloc::collections::btree::node::marker::Dying, std::ffi::os_str::OsString, core::option::Option<std::ffi::os_str::OsString>, alloc::collections::btree::node::marker::Internal>" = type { ptr, i64, %"core::marker::PhantomData<(alloc::collections::btree::node::marker::Dying, alloc::collections::btree::node::marker::Internal)>" }
%"core::marker::PhantomData<(alloc::collections::btree::node::marker::Dying, alloc::collections::btree::node::marker::Internal)>" = type {}
%"core::result::Result<alloc::collections::btree::node::Handle<alloc::collections::btree::node::NodeRef<alloc::collections::btree::node::marker::Dying, std::ffi::os_str::OsString, core::option::Option<std::ffi::os_str::OsString>, alloc::collections::btree::node::marker::Internal>, alloc::collections::btree::node::marker::Edge>, alloc::collections::btree::node::NodeRef<alloc::collections::btree::node::marker::Dying, std::ffi::os_str::OsString, core::option::Option<std::ffi::os_str::OsString>, alloc::collections::btree::node::marker::LeafOrInternal>>" = type { ptr, [2 x i64] }
%"alloc::collections::btree::node::ForceResult<alloc::collections::btree::node::Handle<alloc::collections::btree::node::NodeRef<alloc::collections::btree::node::marker::Dying, std::ffi::os_str::OsString, core::option::Option<std::ffi::os_str::OsString>, alloc::collections::btree::node::marker::Leaf>, alloc::collections::btree::node::marker::KV>, alloc::collections::btree::node::Handle<alloc::collections::btree::node::NodeRef<alloc::collections::btree::node::marker::Dying, std::ffi::os_str::OsString, core::option::Option<std::ffi::os_str::OsString>, alloc::collections::btree::node::marker::Internal>, alloc::collections::btree::node::marker::KV>>" = type { i64, [3 x i64] }
%"alloc::collections::btree::node::Handle<alloc::collections::btree::node::NodeRef<alloc::collections::btree::node::marker::Dying, std::ffi::os_str::OsString, core::option::Option<std::ffi::os_str::OsString>, alloc::collections::btree::node::marker::Internal>, alloc::collections::btree::node::marker::KV>" = type { %"alloc::collections::btree::node::NodeRef<alloc::collections::btree::node::marker::Dying, std::ffi::os_str::OsString, core::option::Option<std::ffi::os_str::OsString>, alloc::collections::btree::node::marker::Internal>", i64, %"core::marker::PhantomData<alloc::collections::btree::node::marker::KV>" }
%"alloc::collections::btree::node::Handle<alloc::collections::btree::node::NodeRef<alloc::collections::btree::node::marker::Dying, std::ffi::os_str::OsString, core::option::Option<std::ffi::os_str::OsString>, alloc::collections::btree::node::marker::Leaf>, alloc::collections::btree::node::marker::KV>" = type { %"alloc::collections::btree::node::NodeRef<alloc::collections::btree::node::marker::Dying, std::ffi::os_str::OsString, core::option::Option<std::ffi::os_str::OsString>, alloc::collections::btree::node::marker::Leaf>", i64, %"core::marker::PhantomData<alloc::collections::btree::node::marker::KV>" }
%"alloc::collections::btree::node::ForceResult<alloc::collections::btree::node::NodeRef<alloc::collections::btree::node::marker::Dying, std::ffi::os_str::OsString, core::option::Option<std::ffi::os_str::OsString>, alloc::collections::btree::node::marker::Leaf>, alloc::collections::btree::node::NodeRef<alloc::collections::btree::node::marker::Dying, std::ffi::os_str::OsString, core::option::Option<std::ffi::os_str::OsString>, alloc::collections::btree::node::marker::Internal>>" = type { i64, [2 x i64] }
%"alloc::collections::btree::node::ForceResult<alloc::collections::btree::node::NodeRef<alloc::collections::btree::node::marker::Dying, std::ffi::os_str::OsString, core::option::Option<std::ffi::os_str::OsString>, alloc::collections::btree::node::marker::Leaf>, alloc::collections::btree::node::NodeRef<alloc::collections::btree::node::marker::Dying, std::ffi::os_str::OsString, core::option::Option<std::ffi::os_str::OsString>, alloc::collections::btree::node::marker::Internal>>::Leaf" = type { [1 x i64], %"alloc::collections::btree::node::NodeRef<alloc::collections::btree::node::marker::Dying, std::ffi::os_str::OsString, core::option::Option<std::ffi::os_str::OsString>, alloc::collections::btree::node::marker::Leaf>" }
%"alloc::collections::btree::node::ForceResult<alloc::collections::btree::node::NodeRef<alloc::collections::btree::node::marker::Dying, std::ffi::os_str::OsString, core::option::Option<std::ffi::os_str::OsString>, alloc::collections::btree::node::marker::Leaf>, alloc::collections::btree::node::NodeRef<alloc::collections::btree::node::marker::Dying, std::ffi::os_str::OsString, core::option::Option<std::ffi::os_str::OsString>, alloc::collections::btree::node::marker::Internal>>::Internal" = type { [1 x i64], %"alloc::collections::btree::node::NodeRef<alloc::collections::btree::node::marker::Dying, std::ffi::os_str::OsString, core::option::Option<std::ffi::os_str::OsString>, alloc::collections::btree::node::marker::Internal>" }
%"alloc::collections::btree::node::ForceResult<alloc::collections::btree::node::Handle<alloc::collections::btree::node::NodeRef<alloc::collections::btree::node::marker::Dying, std::ffi::os_str::OsString, core::option::Option<std::ffi::os_str::OsString>, alloc::collections::btree::node::marker::Leaf>, alloc::collections::btree::node::marker::KV>, alloc::collections::btree::node::Handle<alloc::collections::btree::node::NodeRef<alloc::collections::btree::node::marker::Dying, std::ffi::os_str::OsString, core::option::Option<std::ffi::os_str::OsString>, alloc::collections::btree::node::marker::Internal>, alloc::collections::btree::node::marker::KV>>::Leaf" = type { [1 x i64], %"alloc::collections::btree::node::Handle<alloc::collections::btree::node::NodeRef<alloc::collections::btree::node::marker::Dying, std::ffi::os_str::OsString, core::option::Option<std::ffi::os_str::OsString>, alloc::collections::btree::node::marker::Leaf>, alloc::collections::btree::node::marker::KV>" }
%"alloc::collections::btree::node::ForceResult<alloc::collections::btree::node::Handle<alloc::collections::btree::node::NodeRef<alloc::collections::btree::node::marker::Dying, std::ffi::os_str::OsString, core::option::Option<std::ffi::os_str::OsString>, alloc::collections::btree::node::marker::Leaf>, alloc::collections::btree::node::marker::KV>, alloc::collections::btree::node::Handle<alloc::collections::btree::node::NodeRef<alloc::collections::btree::node::marker::Dying, std::ffi::os_str::OsString, core::option::Option<std::ffi::os_str::OsString>, alloc::collections::btree::node::marker::Internal>, alloc::collections::btree::node::marker::KV>>::Internal" = type { [1 x i64], %"alloc::collections::btree::node::Handle<alloc::collections::btree::node::NodeRef<alloc::collections::btree::node::marker::Dying, std::ffi::os_str::OsString, core::option::Option<std::ffi::os_str::OsString>, alloc::collections::btree::node::marker::Internal>, alloc::collections::btree::node::marker::KV>" }
%"alloc::collections::btree::node::LeafNode<std::ffi::os_str::OsString, core::option::Option<std::ffi::os_str::OsString>>" = type { ptr, [11 x %"core::mem::maybe_uninit::MaybeUninit<std::ffi::os_str::OsString>"], [11 x %"core::mem::maybe_uninit::MaybeUninit<core::option::Option<std::ffi::os_str::OsString>>"], i16, i16, [2 x i16] }
%"core::mem::maybe_uninit::MaybeUninit<std::ffi::os_str::OsString>" = type { [3 x i64] }
%"core::mem::maybe_uninit::MaybeUninit<core::option::Option<std::ffi::os_str::OsString>>" = type { [3 x i64] }
%"core::result::Result<alloc::collections::btree::node::Handle<alloc::collections::btree::node::NodeRef<alloc::collections::btree::node::marker::Dying, std::ffi::os_str::OsString, core::option::Option<std::ffi::os_str::OsString>, alloc::collections::btree::node::marker::Internal>, alloc::collections::btree::node::marker::Edge>, alloc::collections::btree::node::NodeRef<alloc::collections::btree::node::marker::Dying, std::ffi::os_str::OsString, core::option::Option<std::ffi::os_str::OsString>, alloc::collections::btree::node::marker::LeafOrInternal>>::Err" = type { [1 x i64], %"alloc::collections::btree::node::NodeRef<alloc::collections::btree::node::marker::Dying, std::ffi::os_str::OsString, core::option::Option<std::ffi::os_str::OsString>, alloc::collections::btree::node::marker::LeafOrInternal>" }
%"core::ptr::metadata::PtrRepr<[core::mem::maybe_uninit::MaybeUninit<core::ptr::non_null::NonNull<alloc::collections::btree::node::LeafNode<std::ffi::os_str::OsString, core::option::Option<std::ffi::os_str::OsString>>>>]>" = type { [2 x i64] }
%"alloc::collections::btree::node::InternalNode<std::ffi::os_str::OsString, core::option::Option<std::ffi::os_str::OsString>>" = type { %"alloc::collections::btree::node::LeafNode<std::ffi::os_str::OsString, core::option::Option<std::ffi::os_str::OsString>>", [12 x ptr] }
%"core::option::Option<(alloc::collections::btree::node::Handle<alloc::collections::btree::node::NodeRef<alloc::collections::btree::node::marker::Dying, std::ffi::os_str::OsString, core::option::Option<std::ffi::os_str::OsString>, alloc::collections::btree::node::marker::Leaf>, alloc::collections::btree::node::marker::Edge>, alloc::collections::btree::node::Handle<alloc::collections::btree::node::NodeRef<alloc::collections::btree::node::marker::Dying, std::ffi::os_str::OsString, core::option::Option<std::ffi::os_str::OsString>, alloc::collections::btree::node::marker::LeafOrInternal>, alloc::collections::btree::node::marker::KV>)>" = type { ptr, [5 x i64] }
%"alloc::collections::btree::node::Handle<alloc::collections::btree::node::NodeRef<alloc::collections::btree::node::marker::Dying, std::ffi::os_str::OsString, core::option::Option<std::ffi::os_str::OsString>, alloc::collections::btree::node::marker::LeafOrInternal>, alloc::collections::btree::node::marker::Edge>" = type { %"alloc::collections::btree::node::NodeRef<alloc::collections::btree::node::marker::Dying, std::ffi::os_str::OsString, core::option::Option<std::ffi::os_str::OsString>, alloc::collections::btree::node::marker::LeafOrInternal>", i64, %"core::marker::PhantomData<alloc::collections::btree::node::marker::Edge>" }
%"core::result::Result<alloc::collections::btree::node::Handle<alloc::collections::btree::node::NodeRef<alloc::collections::btree::node::marker::Dying, std::ffi::os_str::OsString, core::option::Option<std::ffi::os_str::OsString>, alloc::collections::btree::node::marker::LeafOrInternal>, alloc::collections::btree::node::marker::KV>, alloc::collections::btree::node::Handle<alloc::collections::btree::node::NodeRef<alloc::collections::btree::node::marker::Dying, std::ffi::os_str::OsString, core::option::Option<std::ffi::os_str::OsString>, alloc::collections::btree::node::marker::LeafOrInternal>, alloc::collections::btree::node::marker::Edge>>" = type { i64, [3 x i64] }
%"core::result::Result<alloc::collections::btree::node::Handle<alloc::collections::btree::node::NodeRef<alloc::collections::btree::node::marker::Dying, std::ffi::os_str::OsString, core::option::Option<std::ffi::os_str::OsString>, alloc::collections::btree::node::marker::LeafOrInternal>, alloc::collections::btree::node::marker::KV>, alloc::collections::btree::node::Handle<alloc::collections::btree::node::NodeRef<alloc::collections::btree::node::marker::Dying, std::ffi::os_str::OsString, core::option::Option<std::ffi::os_str::OsString>, alloc::collections::btree::node::marker::LeafOrInternal>, alloc::collections::btree::node::marker::Edge>>::Err" = type { [1 x i64], %"alloc::collections::btree::node::Handle<alloc::collections::btree::node::NodeRef<alloc::collections::btree::node::marker::Dying, std::ffi::os_str::OsString, core::option::Option<std::ffi::os_str::OsString>, alloc::collections::btree::node::marker::LeafOrInternal>, alloc::collections::btree::node::marker::Edge>" }
%"core::result::Result<alloc::collections::btree::node::Handle<alloc::collections::btree::node::NodeRef<alloc::collections::btree::node::marker::Dying, std::ffi::os_str::OsString, core::option::Option<std::ffi::os_str::OsString>, alloc::collections::btree::node::marker::LeafOrInternal>, alloc::collections::btree::node::marker::KV>, alloc::collections::btree::node::Handle<alloc::collections::btree::node::NodeRef<alloc::collections::btree::node::marker::Dying, std::ffi::os_str::OsString, core::option::Option<std::ffi::os_str::OsString>, alloc::collections::btree::node::marker::LeafOrInternal>, alloc::collections::btree::node::marker::Edge>>::Ok" = type { [1 x i64], %"alloc::collections::btree::node::Handle<alloc::collections::btree::node::NodeRef<alloc::collections::btree::node::marker::Dying, std::ffi::os_str::OsString, core::option::Option<std::ffi::os_str::OsString>, alloc::collections::btree::node::marker::LeafOrInternal>, alloc::collections::btree::node::marker::KV>" }
%"core::option::Option<alloc::collections::btree::node::Handle<alloc::collections::btree::node::NodeRef<alloc::collections::btree::node::marker::Dying, std::ffi::os_str::OsString, core::option::Option<std::ffi::os_str::OsString>, alloc::collections::btree::node::marker::Leaf>, alloc::collections::btree::node::marker::Edge>>" = type { ptr, [2 x i64] }
%"core::ops::control_flow::ControlFlow<core::option::Option<core::convert::Infallible>, alloc::collections::btree::navigate::LazyLeafHandle<alloc::collections::btree::node::marker::Dying, std::ffi::os_str::OsString, core::option::Option<std::ffi::os_str::OsString>>>" = type { i64, [3 x i64] }
%"core::ops::control_flow::ControlFlow<core::option::Option<core::convert::Infallible>, alloc::collections::btree::navigate::LazyLeafHandle<alloc::collections::btree::node::marker::Dying, std::ffi::os_str::OsString, core::option::Option<std::ffi::os_str::OsString>>>::Continue" = type { [1 x i64], %"alloc::collections::btree::navigate::LazyLeafHandle<alloc::collections::btree::node::marker::Dying, std::ffi::os_str::OsString, core::option::Option<std::ffi::os_str::OsString>>" }
%"core::iter::adapters::map::Map<core::slice::iter::Iter<'_, &str>, {closure@alloc::str::join_generic_copy<str, u8, &str>::{closure#1}}>" = type { %"core::slice::iter::Iter<'_, &str>", %"{closure@alloc::str::join_generic_copy<str, u8, &str>::{closure#1}}" }
%"{closure@alloc::str::join_generic_copy<str, u8, &str>::{closure#1}}" = type {}
%"{closure@alloc::str::join_generic_copy<str, u8, &str>::{closure#0}}" = type { { ptr, i64 } }
%"core::iter::adapters::map::Map<core::slice::iter::Iter<'_, &str>, {closure@alloc::str::join_generic_copy<str, u8, &str>::{closure#0}::{closure#0}}>" = type { %"core::slice::iter::Iter<'_, &str>", %"{closure@alloc::str::join_generic_copy<str, u8, &str>::{closure#0}::{closure#0}}" }
%"{closure@alloc::str::join_generic_copy<str, u8, &str>::{closure#0}::{closure#0}}" = type {}
%"core::ops::control_flow::ControlFlow<core::result::Result<core::convert::Infallible, core::alloc::AllocError>, core::ptr::non_null::NonNull<[u8]>>" = type { ptr, [1 x i64] }
%"core::result::Result<alloc::string::String, alloc::string::FromUtf8Error>" = type { i64, [4 x i64] }
%"alloc::string::FromUtf8Error" = type { %"alloc::vec::Vec<u8>", %"core::str::error::Utf8Error" }
%"core::str::error::Utf8Error" = type { i64, %"core::option::Option<u8>", [6 x i8] }
%"core::option::Option<u8>" = type { i8, [1 x i8] }
%"core::result::Result<&str, core::str::error::Utf8Error>" = type { i64, [2 x i64] }
%"core::result::Result<&str, core::str::error::Utf8Error>::Err" = type { [1 x i64], %"core::str::error::Utf8Error" }
%"core::result::Result<core::convert::Infallible, alloc::collections::TryReserveErrorKind>::Err" = type { %"alloc::collections::TryReserveErrorKind" }
%"core::result::Result<core::convert::Infallible, alloc::collections::TryReserveError>::Err" = type { %"alloc::collections::TryReserveError" }
%"core::ops::control_flow::ControlFlow<core::result::Result<core::convert::Infallible, alloc::collections::TryReserveError>>" = type { i64, [1 x i64] }
%"core::ops::control_flow::ControlFlow<core::result::Result<core::convert::Infallible, alloc::collections::TryReserveErrorKind>, core::alloc::layout::Layout>" = type { i64, [2 x i64] }
%"core::ops::control_flow::ControlFlow<core::result::Result<core::convert::Infallible, alloc::collections::TryReserveErrorKind>, core::alloc::layout::Layout>::Continue" = type { [1 x i64], %"core::alloc::layout::Layout" }
%"core::ops::control_flow::ControlFlow<core::result::Result<core::convert::Infallible, alloc::collections::TryReserveErrorKind>, core::alloc::layout::Layout>::Break" = type { [1 x i64], %"core::result::Result<core::convert::Infallible, alloc::collections::TryReserveErrorKind>::Err" }
%"core::option::Option<(core::ptr::non_null::NonNull<u8>, core::alloc::layout::Layout)>" = type { [1 x i64], i64, [1 x i64] }
%"core::ops::control_flow::ControlFlow<core::result::Result<core::convert::Infallible, alloc::collections::TryReserveError>, core::ptr::non_null::NonNull<[u8]>>" = type { i64, [2 x i64] }
%"core::result::Result<usize, alloc::collections::TryReserveErrorKind>" = type { i64, [1 x i64] }
%"core::ops::control_flow::ControlFlow<core::result::Result<core::convert::Infallible, alloc::collections::TryReserveErrorKind>, usize>" = type { i64, [1 x i64] }
%"core::result::Result<usize, alloc::collections::TryReserveErrorKind>::Ok" = type { [1 x i64], i64 }
%"core::ops::control_flow::ControlFlow<core::result::Result<core::convert::Infallible, alloc::collections::TryReserveErrorKind>, usize>::Continue" = type { [1 x i64], i64 }
%"core::ops::control_flow::ControlFlow<core::result::Result<core::convert::Infallible, alloc::collections::TryReserveError>, core::ptr::non_null::NonNull<[u8]>>::Continue" = type { [1 x i64], %"core::ptr::non_null::NonNull<[u8]>" }
%"core::ops::control_flow::ControlFlow<core::result::Result<core::convert::Infallible, alloc::collections::TryReserveError>, core::ptr::non_null::NonNull<[u8]>>::Break" = type { [1 x i64], %"core::result::Result<core::convert::Infallible, alloc::collections::TryReserveError>::Err" }
%"alloc::borrow::Cow<'_, str>::Borrowed" = type { [1 x i64], { ptr, i64 } }
%"core::ptr::metadata::PtrComponents<[alloc::ffi::c_str::CString]>" = type { ptr, i64 }
%"core::ptr::metadata::PtrRepr<[alloc::ffi::c_str::CString]>" = type { [2 x i64] }
%"core::ptr::metadata::PtrComponents<[*const i8]>" = type { ptr, i64 }
%"core::ptr::metadata::PtrRepr<[*const i8]>" = type { [2 x i64] }
%"core::ptr::metadata::PtrComponents<[alloc::boxed::Box<dyn core::ops::function::FnMut() -> core::result::Result<(), std::io::error::Error> + core::marker::Send + core::marker::Sync>]>" = type { ptr, i64 }
%"core::ptr::metadata::PtrRepr<[alloc::boxed::Box<dyn core::ops::function::FnMut() -> core::result::Result<(), std::io::error::Error> + core::marker::Send + core::marker::Sync>]>" = type { [2 x i64] }
%"core::ops::control_flow::ControlFlow<core::option::Option<core::convert::Infallible>, &[u8]>" = type { ptr, [1 x i64] }
%"core::ptr::non_null::NonNull<dyn core::any::Any + core::marker::Send>" = type { { ptr, ptr } }
%"core::mem::manually_drop::ManuallyDrop<alloc::boxed::Box<dyn core::any::Any + core::marker::Send>>" = type { %"alloc::boxed::Box<dyn core::any::Any + core::marker::Send>" }
%"alloc::boxed::Box<dyn core::any::Any + core::marker::Send>" = type { %"core::ptr::unique::Unique<dyn core::any::Any + core::marker::Send>", %"alloc::alloc::Global" }
%"core::ptr::unique::Unique<dyn core::any::Any + core::marker::Send>" = type { %"core::ptr::non_null::NonNull<dyn core::any::Any + core::marker::Send>", %"core::marker::PhantomData<dyn core::any::Any + core::marker::Send>" }
%"core::marker::PhantomData<dyn core::any::Any + core::marker::Send>" = type {}
%"alloc::borrow::Cow<'_, str>" = type { i64, [2 x i64] }
%"std::ffi::os_str::OsString" = type { %"std::sys::os_str::bytes::Buf" }
%"std::sys::os_str::bytes::Buf" = type { %"alloc::vec::Vec<u8>" }
%"core::result::Result<std::process::Output, std::io::error::Error>" = type { i64, [6 x i64] }

@alloc_ec595fc0e82ef92fc59bd74f68296eae = private unnamed_addr constant <{ [73 x i8] }> <{ [73 x i8] c"assertion failed: 0 < pointee_size && pointee_size <= isize::MAX as usize" }>, align 1
@alloc_4932f39bd283994f8d3e764cc620ee52 = private unnamed_addr constant <{ [81 x i8] }> <{ [81 x i8] c"/rustc/aedd173a2c086e558c2b66d3743b344f977621a7/library/core/src/ptr/const_ptr.rs" }>, align 1
@alloc_768f4da2d83915fa9ce0d03164202475 = private unnamed_addr constant <{ ptr, [16 x i8] }> <{ ptr @alloc_4932f39bd283994f8d3e764cc620ee52, [16 x i8] c"Q\00\00\00\00\00\00\004\03\00\00\09\00\00\00" }>, align 8
@0 = private unnamed_addr constant <{ [8 x i8], [4 x i8], [4 x i8] }> <{ [8 x i8] undef, [4 x i8] c"\00\00\11\00", [4 x i8] undef }>, align 8
@1 = private unnamed_addr constant <{ [8 x i8], [8 x i8] }> <{ [8 x i8] zeroinitializer, [8 x i8] undef }>, align 8
@alloc_a500d906b91607583596fa15e63c2ada = private unnamed_addr constant <{ [40 x i8] }> <{ [40 x i8] c"internal error: entered unreachable code" }>, align 1
@alloc_4dc3c9a7f2fb38379b849190ec5adafd = private unnamed_addr constant <{ [90 x i8] }> <{ [90 x i8] c"/rustc/aedd173a2c086e558c2b66d3743b344f977621a7/library/std/src/io/error/repr_bitpacked.rs" }>, align 1
@alloc_5f9ca26e4863825896f7978e113f791b = private unnamed_addr constant <{ ptr, [16 x i8] }> <{ ptr @alloc_4dc3c9a7f2fb38379b849190ec5adafd, [16 x i8] c"Z\00\00\00\00\00\00\00\17\01\00\00\0D\00\00\00" }>, align 8
@vtable.0 = private unnamed_addr constant <{ ptr, [16 x i8], ptr, ptr, ptr }> <{ ptr @"_ZN4core3ptr85drop_in_place$LT$std..rt..lang_start$LT$$LP$$RP$$GT$..$u7b$$u7b$closure$u7d$$u7d$$GT$17h623181823e2aaa5eE", [16 x i8] c"\08\00\00\00\00\00\00\00\08\00\00\00\00\00\00\00", ptr @"_ZN4core3ops8function6FnOnce40call_once$u7b$$u7b$vtable.shim$u7d$$u7d$17hdc9a2db86fb3ab5dE", ptr @"_ZN3std2rt10lang_start28_$u7b$$u7b$closure$u7d$$u7d$17h0ebffd6a21155742E", ptr @"_ZN3std2rt10lang_start28_$u7b$$u7b$closure$u7d$$u7d$17h0ebffd6a21155742E" }>, align 8
@vtable.1 = private unnamed_addr constant <{ ptr, [16 x i8], ptr, ptr }> <{ ptr @"_ZN4core3ptr72drop_in_place$LT$std..panicking..begin_panic..Payload$LT$$RF$str$GT$$GT$17h7ea04f708ef0e1c5E", [16 x i8] c"\10\00\00\00\00\00\00\00\08\00\00\00\00\00\00\00", ptr @"_ZN91_$LT$std..panicking..begin_panic..Payload$LT$A$GT$$u20$as$u20$core..panic..PanicPayload$GT$8take_box17hbf7a35896ca82ad9E", ptr @"_ZN91_$LT$std..panicking..begin_panic..Payload$LT$A$GT$$u20$as$u20$core..panic..PanicPayload$GT$3get17hbf50a9aa14053857E" }>, align 8
@alloc_91c7fa63c3cfeaa3c795652d5cf060e4 = private unnamed_addr constant <{ [12 x i8] }> <{ [12 x i8] c"invalid args" }>, align 1
@alloc_af99043bc04c419363a7f04d23183506 = private unnamed_addr constant <{ ptr, [8 x i8] }> <{ ptr @alloc_91c7fa63c3cfeaa3c795652d5cf060e4, [8 x i8] c"\0C\00\00\00\00\00\00\00" }>, align 8
@alloc_513570631223a12912d85da2bec3b15a = private unnamed_addr constant <{}> zeroinitializer, align 8
@alloc_6de2818331109612dbb09d5e2073dc73 = private unnamed_addr constant <{ [75 x i8] }> <{ [75 x i8] c"/rustc/aedd173a2c086e558c2b66d3743b344f977621a7/library/core/src/fmt/mod.rs" }>, align 1
@alloc_b96933a8148f906cfb135db9ebeba42b = private unnamed_addr constant <{ ptr, [16 x i8] }> <{ ptr @alloc_6de2818331109612dbb09d5e2073dc73, [16 x i8] c"K\00\00\00\00\00\00\00M\01\00\00\0D\00\00\00" }>, align 8
@alloc_b1c9b46fd6543b9e0f93a51d745efa2a = private unnamed_addr constant <{ ptr, [16 x i8] }> <{ ptr @alloc_6de2818331109612dbb09d5e2073dc73, [16 x i8] c"K\00\00\00\00\00\00\00C\01\00\00\0D\00\00\00" }>, align 8
@2 = private unnamed_addr constant <{ [4 x i8], [4 x i8] }> <{ [4 x i8] zeroinitializer, [4 x i8] undef }>, align 4
@alloc_b424893d6bb704b6d451a9d0687c3d41 = private unnamed_addr constant <{ [80 x i8] }> <{ [80 x i8] c"/rustc/aedd173a2c086e558c2b66d3743b344f977621a7/library/core/src/char/methods.rs" }>, align 1
@alloc_7a7f897cbce61fe5aefd1aacce65247e = private unnamed_addr constant <{ ptr, [16 x i8] }> <{ ptr @alloc_b424893d6bb704b6d451a9d0687c3d41, [16 x i8] c"P\00\00\00\00\00\00\00\05\07\00\00\0D\00\00\00" }>, align 8
@alloc_6b031f9bca8204235732c7c365d04a1d = private unnamed_addr constant <{ [18 x i8] }> <{ [18 x i8] c"encode_utf8: need " }>, align 1
@alloc_28d13efb0f9a95ccb5d02ec33dd195cf = private unnamed_addr constant <{ [19 x i8] }> <{ [19 x i8] c" bytes to encode U+" }>, align 1
@alloc_0d928972d2befd736e581c7fcc5a2f9a = private unnamed_addr constant <{ [21 x i8] }> <{ [21 x i8] c", but the buffer has " }>, align 1
@alloc_d51214f097f67314513b76e97e13aa6b = private unnamed_addr constant <{ ptr, [8 x i8], ptr, [8 x i8], ptr, [8 x i8] }> <{ ptr @alloc_6b031f9bca8204235732c7c365d04a1d, [8 x i8] c"\12\00\00\00\00\00\00\00", ptr @alloc_28d13efb0f9a95ccb5d02ec33dd195cf, [8 x i8] c"\13\00\00\00\00\00\00\00", ptr @alloc_0d928972d2befd736e581c7fcc5a2f9a, [8 x i8] c"\15\00\00\00\00\00\00\00" }>, align 8
@alloc_9cd042eb6cb0d992fdeb8ae2db92c748 = private unnamed_addr constant <{ ptr, [16 x i8] }> <{ ptr @alloc_b424893d6bb704b6d451a9d0687c3d41, [16 x i8] c"P\00\00\00\00\00\00\00\FE\06\00\00\0E\00\00\00" }>, align 8
@alloc_4713d75e44433589dc609fdbfa49699b = private unnamed_addr constant <{ [80 x i8] }> <{ [80 x i8] c"/rustc/aedd173a2c086e558c2b66d3743b344f977621a7/library/core/src/alloc/layout.rs" }>, align 1
@alloc_37f08cc86d215bcabda8bef18acdfc7b = private unnamed_addr constant <{ ptr, [16 x i8] }> <{ ptr @alloc_4713d75e44433589dc609fdbfa49699b, [16 x i8] c"P\00\00\00\00\00\00\00\C1\01\00\00)\00\00\00" }>, align 8
@str.2 = internal unnamed_addr constant [25 x i8] c"attempt to divide by zero"
@alloc_6dcb7de3ea3172f1492a2498f404d352 = private unnamed_addr constant <{ [77 x i8] }> <{ [77 x i8] c"/rustc/aedd173a2c086e558c2b66d3743b344f977621a7/library/core/src/slice/mod.rs" }>, align 1
@alloc_18fdfadcbcf6e2d76e399d12cf4a970b = private unnamed_addr constant <{ ptr, [16 x i8] }> <{ ptr @alloc_6dcb7de3ea3172f1492a2498f404d352, [16 x i8] c"M\00\00\00\00\00\00\00\EF\09\00\00+\00\00\00" }>, align 8
@alloc_d1084648e479974e70c9329824bf76f9 = private unnamed_addr constant <{ [9 x i8] }> <{ [9 x i8] c"mid > len" }>, align 1
@alloc_2b3e40161faa82f936e1f97ea2aea002 = private unnamed_addr constant <{ ptr, [8 x i8] }> <{ ptr @alloc_d1084648e479974e70c9329824bf76f9, [8 x i8] c"\09\00\00\00\00\00\00\00" }>, align 8
@alloc_bd805024091ca8424320dc57c3ae5ba9 = private unnamed_addr constant <{ [80 x i8] }> <{ [80 x i8] c"/rustc/aedd173a2c086e558c2b66d3743b344f977621a7/library/core/src/slice/memchr.rs" }>, align 1
@alloc_fd72864725e1c47897c83be58a9099d6 = private unnamed_addr constant <{ ptr, [16 x i8] }> <{ ptr @alloc_bd805024091ca8424320dc57c3ae5ba9, [16 x i8] c"P\00\00\00\00\00\00\00+\00\00\00\0C\00\00\00" }>, align 8
@_ZN4core7unicode12unicode_data11white_space14WHITESPACE_MAP17h111833e126630f52E = external global [256 x i8]
@alloc_442873cd510b2fb373ddd80330138317 = private unnamed_addr constant <{ [88 x i8] }> <{ [88 x i8] c"/rustc/aedd173a2c086e558c2b66d3743b344f977621a7/library/core/src/unicode/unicode_data.rs" }>, align 1
@alloc_4ec9a0893d6c40a3f2ed6f3acf3f1bc5 = private unnamed_addr constant <{ ptr, [16 x i8] }> <{ ptr @alloc_442873cd510b2fb373ddd80330138317, [16 x i8] c"X\00\00\00\00\00\00\00<\02\00\00\12\00\00\00" }>, align 8
@alloc_87b8c6019d0c28cd94a251b6c9615d90 = private unnamed_addr constant <{ ptr, [16 x i8] }> <{ ptr @alloc_442873cd510b2fb373ddd80330138317, [16 x i8] c"X\00\00\00\00\00\00\00>\02\00\00\13\00\00\00" }>, align 8
@alloc_348aae654e64257dd9d050931fa8ebf4 = private unnamed_addr constant <{ [95 x i8] }> <{ [95 x i8] c"/rustc/aedd173a2c086e558c2b66d3743b344f977621a7/library/alloc/src/collections/btree/navigate.rs" }>, align 1
@alloc_462d65656ff0231537c806caec94eab7 = private unnamed_addr constant <{ ptr, [16 x i8] }> <{ ptr @alloc_348aae654e64257dd9d050931fa8ebf4, [16 x i8] c"_\00\00\00\00\00\00\00Y\02\00\000\00\00\00" }>, align 8
@alloc_ac76f5382bcfae58ca8f35f08d974795 = private unnamed_addr constant <{ ptr, [16 x i8] }> <{ ptr @alloc_348aae654e64257dd9d050931fa8ebf4, [16 x i8] c"_\00\00\00\00\00\00\00\C7\00\00\00'\00\00\00" }>, align 8
@alloc_ca673fb95acb8e58af271999e89294ae = private unnamed_addr constant <{ [53 x i8] }> <{ [53 x i8] c"attempt to join into collection with len > usize::MAX" }>, align 1
@alloc_ee4f726f49cb6fc2b42dc4c390f8e1f2 = private unnamed_addr constant <{ [72 x i8] }> <{ [72 x i8] c"/rustc/aedd173a2c086e558c2b66d3743b344f977621a7/library/alloc/src/str.rs" }>, align 1
@alloc_3068534db64c07883069a5f112d64238 = private unnamed_addr constant <{ ptr, [16 x i8] }> <{ ptr @alloc_ee4f726f49cb6fc2b42dc4c390f8e1f2, [16 x i8] c"H\00\00\00\00\00\00\00\9B\00\00\00\0A\00\00\00" }>, align 8
@alloc_3a303dcbeb96808a4e23a68d0fb86be4 = private unnamed_addr constant <{ ptr, [16 x i8] }> <{ ptr @alloc_ee4f726f49cb6fc2b42dc4c390f8e1f2, [16 x i8] c"H\00\00\00\00\00\00\00\B2\00\00\00\16\00\00\00" }>, align 8
@__rust_no_alloc_shim_is_unstable = external global i8
@3 = private unnamed_addr constant <{ [8 x i8], [8 x i8] }> <{ [8 x i8] c"\01\00\00\00\00\00\00\80", [8 x i8] undef }>, align 8
@alloc_1b0254a3d4d07de785a4814dc89d512f = private unnamed_addr constant <{ [79 x i8] }> <{ [79 x i8] c"/rustc/aedd173a2c086e558c2b66d3743b344f977621a7/library/core/src/str/pattern.rs" }>, align 1
@alloc_b4da369ef54df77252123b7302c79f68 = private unnamed_addr constant <{ ptr, [16 x i8] }> <{ ptr @alloc_1b0254a3d4d07de785a4814dc89d512f, [16 x i8] c"O\00\00\00\00\00\00\00\B8\01\00\007\00\00\00" }>, align 8
@vtable.3 = private unnamed_addr constant <{ ptr, [16 x i8], ptr }> <{ ptr @"_ZN4core3ptr28drop_in_place$LT$$RF$str$GT$17h746a495aa8946e85E", [16 x i8] c"\10\00\00\00\00\00\00\00\08\00\00\00\00\00\00\00", ptr @"_ZN36_$LT$T$u20$as$u20$core..any..Any$GT$7type_id17h31a6712a293aff15E" }>, align 8
@alloc_742f06589122110502429e832b81e8bd = private unnamed_addr constant <{ [32 x i8] }> <{ [32 x i8] c"cargo:rerun-if-changed=build.rs\0A" }>, align 1
@alloc_87bf645e20c49614b5c80b947cae4b8c = private unnamed_addr constant <{ ptr, [8 x i8] }> <{ ptr @alloc_742f06589122110502429e832b81e8bd, [8 x i8] c" \00\00\00\00\00\00\00" }>, align 8
@alloc_509e3f14595a72dfc2af0a28f5824017 = private unnamed_addr constant <{ [30 x i8] }> <{ [30 x i8] c"CARGO_FEATURE_RUSTC_DEP_OF_STD" }>, align 1
@alloc_049523308945236e971844b698f08be4 = private unnamed_addr constant <{ [19 x i8] }> <{ [19 x i8] c"CARGO_FEATURE_ALIGN" }>, align 1
@alloc_af4054ec92881eb8e1a20ccb7d7ba070 = private unnamed_addr constant <{ [29 x i8] }> <{ [29 x i8] c"CARGO_FEATURE_CONST_EXTERN_FN" }>, align 1
@alloc_f73607afcba5e721c2712249402644b6 = private unnamed_addr constant <{ [7 x i8] }> <{ [7 x i8] c"LIBC_CI" }>, align 1
@alloc_0389fc3ddd5345d995d2c65b5ce04041 = private unnamed_addr constant <{ [14 x i8] }> <{ [14 x i8] c"LIBC_CHECK_CFG" }>, align 1
@alloc_b46eb47ee18964ee417e3fd0982ae0d7 = private unnamed_addr constant <{ [21 x i8] }> <{ [21 x i8] c"CARGO_FEATURE_USE_STD" }>, align 1
@alloc_bf710a7dff7666c87024b33504712b81 = private unnamed_addr constant <{ [132 x i8] }> <{ [132 x i8] c"cargo:warning=\22libc's use_std cargo feature is deprecated since libc 0.2.55; please consider using the `std` cargo feature instead\22\0A" }>, align 1
@alloc_eb5db25328eb708629fae3ae5d88ba59 = private unnamed_addr constant <{ ptr, [8 x i8] }> <{ ptr @alloc_bf710a7dff7666c87024b33504712b81, [8 x i8] c"\84\00\00\00\00\00\00\00" }>, align 8
@alloc_7267420313fdc34f79da1c04bfca7409 = private unnamed_addr constant <{ [9 x i8] }> <{ [9 x i8] c"freebsd10" }>, align 1
@alloc_5581ed16f5c58ecd3f36713b9b396029 = private unnamed_addr constant <{ [9 x i8] }> <{ [9 x i8] c"freebsd11" }>, align 1
@alloc_55f07188386ace482603892e4768112d = private unnamed_addr constant <{ [9 x i8] }> <{ [9 x i8] c"freebsd12" }>, align 1
@alloc_028f45a065ad7442c332be763445b925 = private unnamed_addr constant <{ [9 x i8] }> <{ [9 x i8] c"freebsd13" }>, align 1
@alloc_358590eecf303ad391259af81e368788 = private unnamed_addr constant <{ [9 x i8] }> <{ [9 x i8] c"freebsd14" }>, align 1
@alloc_c8539d7d8992b0450a5874fa781e9124 = private unnamed_addr constant <{ [9 x i8] }> <{ [9 x i8] c"freebsd15" }>, align 1
@alloc_3f077bb6fc35fd7a1c438d4b3d4d6bbe = private unnamed_addr constant <{ [23 x i8] }> <{ [23 x i8] c"emscripten_new_stat_abi" }>, align 1
@alloc_e051788150efb5e0f212c696366647c3 = private unnamed_addr constant <{ [18 x i8] }> <{ [18 x i8] c"libc_deny_warnings" }>, align 1
@alloc_4224da24209f49ca352eb9bac2332c56 = private unnamed_addr constant <{ [17 x i8] }> <{ [17 x i8] c"libc_priv_mod_use" }>, align 1
@alloc_aaad0d565be8ce60589bcafac8395a73 = private unnamed_addr constant <{ [10 x i8] }> <{ [10 x i8] c"libc_union" }>, align 1
@alloc_ac489ff31040a795d855be4741fd9094 = private unnamed_addr constant <{ [18 x i8] }> <{ [18 x i8] c"libc_const_size_of" }>, align 1
@alloc_a0694b70280b454a717a96925982ad71 = private unnamed_addr constant <{ [10 x i8] }> <{ [10 x i8] c"libc_align" }>, align 1
@alloc_5e32122e613a15bb4bb27157e5f91b50 = private unnamed_addr constant <{ [11 x i8] }> <{ [11 x i8] c"libc_int128" }>, align 1
@alloc_907c8bccdec51f6cebb91881e7cce54b = private unnamed_addr constant <{ [15 x i8] }> <{ [15 x i8] c"libc_core_cvoid" }>, align 1
@alloc_13a378823b4a52f40700b9f7ee8e729b = private unnamed_addr constant <{ [12 x i8] }> <{ [12 x i8] c"libc_packedN" }>, align 1
@alloc_723947fb16e0b7bd5d9f22953d76fd9c = private unnamed_addr constant <{ [22 x i8] }> <{ [22 x i8] c"libc_cfg_target_vendor" }>, align 1
@alloc_0963f4568810f6d334268b9479e35810 = private unnamed_addr constant <{ [19 x i8] }> <{ [19 x i8] c"libc_non_exhaustive" }>, align 1
@alloc_f1d3cfe4a520f297017ab6905439fc00 = private unnamed_addr constant <{ [15 x i8] }> <{ [15 x i8] c"libc_long_array" }>, align 1
@alloc_849f0aede6a1dca5c0240ad3be039a34 = private unnamed_addr constant <{ [16 x i8] }> <{ [16 x i8] c"libc_ptr_addr_of" }>, align 1
@alloc_1983fbfcd97d32be2be3bd4b0fa2a4b2 = private unnamed_addr constant <{ [27 x i8] }> <{ [27 x i8] c"libc_underscore_const_names" }>, align 1
@alloc_e300d0c2c56fc656630ece49b293f3f6 = private unnamed_addr constant <{ [17 x i8] }> <{ [17 x i8] c"libc_thread_local" }>, align 1
@alloc_41f20ec2e16f0be833b9905f922c3076 = private unnamed_addr constant <{ [29 x i8] }> <{ [29 x i8] c"libc_const_extern_fn_unstable" }>, align 1
@alloc_4177d98eb312c1530fbc95a2a0fb61e7 = private unnamed_addr constant <{ [20 x i8] }> <{ [20 x i8] c"libc_const_extern_fn" }>, align 1
@alloc_e3df1d59346f6decb8d00e030fa23dfc = private unnamed_addr constant <{ [51 x i8] }> <{ [51 x i8] c"const-extern-fn requires a nightly compiler >= 1.40" }>, align 1
@alloc_1b5cdf517b9a95a7603e6d644bc245dc = private unnamed_addr constant <{ [89 x i8] }> <{ [89 x i8] c"/users/zyuxuan/.cargo/registry/src/index.crates.io-6f17d22bba15001f/libc-0.2.153/build.rs" }>, align 1
@alloc_088eff4f561810cf98169a69700164a9 = private unnamed_addr constant <{ ptr, [16 x i8] }> <{ ptr @alloc_1b5cdf517b9a95a7603e6d644bc245dc, [16 x i8] c"Y\00\00\00\00\00\00\00\9E\00\00\00\11\00\00\00" }>, align 8
@alloc_7f3058a3ef2110c7ddbe5570511ec5bd = private unnamed_addr constant <{ ptr, [8 x i8], ptr, [8 x i8], ptr, [8 x i8], ptr, [8 x i8], ptr, [8 x i8], ptr, [8 x i8], ptr, [8 x i8], ptr, [8 x i8], ptr, [8 x i8], ptr, [8 x i8], ptr, [8 x i8], ptr, [8 x i8], ptr, [8 x i8], ptr, [8 x i8], ptr, [8 x i8], ptr, [8 x i8], ptr, [8 x i8], ptr, [8 x i8], ptr, [8 x i8], ptr, [8 x i8], ptr, [8 x i8], ptr, [8 x i8], ptr, [8 x i8] }> <{ ptr @alloc_3f077bb6fc35fd7a1c438d4b3d4d6bbe, [8 x i8] c"\17\00\00\00\00\00\00\00", ptr @alloc_7267420313fdc34f79da1c04bfca7409, [8 x i8] c"\09\00\00\00\00\00\00\00", ptr @alloc_5581ed16f5c58ecd3f36713b9b396029, [8 x i8] c"\09\00\00\00\00\00\00\00", ptr @alloc_55f07188386ace482603892e4768112d, [8 x i8] c"\09\00\00\00\00\00\00\00", ptr @alloc_028f45a065ad7442c332be763445b925, [8 x i8] c"\09\00\00\00\00\00\00\00", ptr @alloc_358590eecf303ad391259af81e368788, [8 x i8] c"\09\00\00\00\00\00\00\00", ptr @alloc_c8539d7d8992b0450a5874fa781e9124, [8 x i8] c"\09\00\00\00\00\00\00\00", ptr @alloc_a0694b70280b454a717a96925982ad71, [8 x i8] c"\0A\00\00\00\00\00\00\00", ptr @alloc_723947fb16e0b7bd5d9f22953d76fd9c, [8 x i8] c"\16\00\00\00\00\00\00\00", ptr @alloc_4177d98eb312c1530fbc95a2a0fb61e7, [8 x i8] c"\14\00\00\00\00\00\00\00", ptr @alloc_41f20ec2e16f0be833b9905f922c3076, [8 x i8] c"\1D\00\00\00\00\00\00\00", ptr @alloc_ac489ff31040a795d855be4741fd9094, [8 x i8] c"\12\00\00\00\00\00\00\00", ptr @alloc_907c8bccdec51f6cebb91881e7cce54b, [8 x i8] c"\0F\00\00\00\00\00\00\00", ptr @alloc_e051788150efb5e0f212c696366647c3, [8 x i8] c"\12\00\00\00\00\00\00\00", ptr @alloc_5e32122e613a15bb4bb27157e5f91b50, [8 x i8] c"\0B\00\00\00\00\00\00\00", ptr @alloc_f1d3cfe4a520f297017ab6905439fc00, [8 x i8] c"\0F\00\00\00\00\00\00\00", ptr @alloc_0963f4568810f6d334268b9479e35810, [8 x i8] c"\13\00\00\00\00\00\00\00", ptr @alloc_13a378823b4a52f40700b9f7ee8e729b, [8 x i8] c"\0C\00\00\00\00\00\00\00", ptr @alloc_4224da24209f49ca352eb9bac2332c56, [8 x i8] c"\11\00\00\00\00\00\00\00", ptr @alloc_849f0aede6a1dca5c0240ad3be039a34, [8 x i8] c"\10\00\00\00\00\00\00\00", ptr @alloc_e300d0c2c56fc656630ece49b293f3f6, [8 x i8] c"\11\00\00\00\00\00\00\00", ptr @alloc_1983fbfcd97d32be2be3bd4b0fa2a4b2, [8 x i8] c"\1B\00\00\00\00\00\00\00", ptr @alloc_aaad0d565be8ce60589bcafac8395a73, [8 x i8] c"\0A\00\00\00\00\00\00\00" }>, align 8
@alloc_2cddc5e59ad0ce52fa6a12317b7d9940 = private unnamed_addr constant <{ [9 x i8] }> <{ [9 x i8] c"target_os" }>, align 1
@alloc_06bdffecd12566b07b46a1d9c671b787 = private unnamed_addr constant <{ [6 x i8] }> <{ [6 x i8] c"switch" }>, align 1
@alloc_56682c411a884305a0498f0904259ddf = private unnamed_addr constant <{ [3 x i8] }> <{ [3 x i8] c"aix" }>, align 1
@alloc_830cd488b6068638e05ed5b0c299b4af = private unnamed_addr constant <{ [4 x i8] }> <{ [4 x i8] c"ohos" }>, align 1
@alloc_45bb0232104d815c4dda9598abc92521 = private unnamed_addr constant <{ [4 x i8] }> <{ [4 x i8] c"hurd" }>, align 1
@alloc_1cd2c958f82de03d24b8db52560ea2bc = private unnamed_addr constant <{ ptr, [8 x i8], ptr, [8 x i8], ptr, [8 x i8], ptr, [8 x i8] }> <{ ptr @alloc_06bdffecd12566b07b46a1d9c671b787, [8 x i8] c"\06\00\00\00\00\00\00\00", ptr @alloc_56682c411a884305a0498f0904259ddf, [8 x i8] c"\03\00\00\00\00\00\00\00", ptr @alloc_830cd488b6068638e05ed5b0c299b4af, [8 x i8] c"\04\00\00\00\00\00\00\00", ptr @alloc_45bb0232104d815c4dda9598abc92521, [8 x i8] c"\04\00\00\00\00\00\00\00" }>, align 8
@alloc_df599e29b3820982aef0645887d35e8c = private unnamed_addr constant <{ [10 x i8] }> <{ [10 x i8] c"target_env" }>, align 1
@alloc_369c643820514fbe33fb426e73a3da06 = private unnamed_addr constant <{ [7 x i8] }> <{ [7 x i8] c"illumos" }>, align 1
@alloc_7e4f24954a4fa587ee17e75c042a2c6a = private unnamed_addr constant <{ [4 x i8] }> <{ [4 x i8] c"wasi" }>, align 1
@alloc_4c4a32a23bd9dd5fd8a2fdde12485731 = private unnamed_addr constant <{ ptr, [8 x i8], ptr, [8 x i8], ptr, [8 x i8], ptr, [8 x i8] }> <{ ptr @alloc_369c643820514fbe33fb426e73a3da06, [8 x i8] c"\07\00\00\00\00\00\00\00", ptr @alloc_7e4f24954a4fa587ee17e75c042a2c6a, [8 x i8] c"\04\00\00\00\00\00\00\00", ptr @alloc_56682c411a884305a0498f0904259ddf, [8 x i8] c"\03\00\00\00\00\00\00\00", ptr @alloc_830cd488b6068638e05ed5b0c299b4af, [8 x i8] c"\04\00\00\00\00\00\00\00" }>, align 8
@alloc_9259c4107c8646157225831547e51707 = private unnamed_addr constant <{ [11 x i8] }> <{ [11 x i8] c"target_arch" }>, align 1
@alloc_be0c7e2eb8d81d67a6db9a856123bb7e = private unnamed_addr constant <{ [11 x i8] }> <{ [11 x i8] c"loongarch64" }>, align 1
@alloc_cbb73a85e2ed78c1dc2a615b03408878 = private unnamed_addr constant <{ [8 x i8] }> <{ [8 x i8] c"mips32r6" }>, align 1
@alloc_1cb3d6a6216aeea0aa93cb8b80a5f107 = private unnamed_addr constant <{ [8 x i8] }> <{ [8 x i8] c"mips64r6" }>, align 1
@alloc_a5dc2de5b3efc052edbd4e83ca0843da = private unnamed_addr constant <{ [4 x i8] }> <{ [4 x i8] c"csky" }>, align 1
@alloc_746260b83e31e93ed3a760cdb0cfd27c = private unnamed_addr constant <{ ptr, [8 x i8], ptr, [8 x i8], ptr, [8 x i8], ptr, [8 x i8] }> <{ ptr @alloc_be0c7e2eb8d81d67a6db9a856123bb7e, [8 x i8] c"\0B\00\00\00\00\00\00\00", ptr @alloc_cbb73a85e2ed78c1dc2a615b03408878, [8 x i8] c"\08\00\00\00\00\00\00\00", ptr @alloc_1cb3d6a6216aeea0aa93cb8b80a5f107, [8 x i8] c"\08\00\00\00\00\00\00\00", ptr @alloc_a5dc2de5b3efc052edbd4e83ca0843da, [8 x i8] c"\04\00\00\00\00\00\00\00" }>, align 8
@alloc_a3d038f111d5563565401dd403240480 = private unnamed_addr constant <{ ptr, [8 x i8], ptr, [8 x i8], ptr, [8 x i8], ptr, [8 x i8], ptr, [8 x i8], ptr, [8 x i8] }> <{ ptr @alloc_2cddc5e59ad0ce52fa6a12317b7d9940, [8 x i8] c"\09\00\00\00\00\00\00\00", ptr @alloc_1cd2c958f82de03d24b8db52560ea2bc, [8 x i8] c"\04\00\00\00\00\00\00\00", ptr @alloc_df599e29b3820982aef0645887d35e8c, [8 x i8] c"\0A\00\00\00\00\00\00\00", ptr @alloc_4c4a32a23bd9dd5fd8a2fdde12485731, [8 x i8] c"\04\00\00\00\00\00\00\00", ptr @alloc_9259c4107c8646157225831547e51707, [8 x i8] c"\0B\00\00\00\00\00\00\00", ptr @alloc_746260b83e31e93ed3a760cdb0cfd27c, [8 x i8] c"\04\00\00\00\00\00\00\00" }>, align 8
@alloc_4e81f3446308e52f5d03e9e4175413e4 = private unnamed_addr constant <{ [3 x i8] }> <{ [3 x i8] c"\22,\22" }>, align 1
@alloc_6451cabe30bf8eceba038f6f3ea6a713 = private unnamed_addr constant <{ [29 x i8] }> <{ [29 x i8] c"cargo:rustc-check-cfg=values(" }>, align 1
@alloc_2553ec131219601dd6ca857cf7016140 = private unnamed_addr constant <{ [2 x i8] }> <{ [2 x i8] c",\22" }>, align 1
@alloc_28d3976663191d6e04f2b014bc4061fd = private unnamed_addr constant <{ [3 x i8] }> <{ [3 x i8] c"\22)\0A" }>, align 1
@alloc_aca7854352273ca19f412b47c6740d26 = private unnamed_addr constant <{ ptr, [8 x i8], ptr, [8 x i8], ptr, [8 x i8] }> <{ ptr @alloc_6451cabe30bf8eceba038f6f3ea6a713, [8 x i8] c"\1D\00\00\00\00\00\00\00", ptr @alloc_2553ec131219601dd6ca857cf7016140, [8 x i8] c"\02\00\00\00\00\00\00\00", ptr @alloc_28d3976663191d6e04f2b014bc4061fd, [8 x i8] c"\03\00\00\00\00\00\00\00" }>, align 8
@alloc_8e4d7f79330c448f2977292b49677168 = private unnamed_addr constant <{ [26 x i8] }> <{ [26 x i8] c"cargo:rustc-check-cfg=cfg(" }>, align 1
@alloc_b34d42ef5bf9b2651fd979e82ea23cba = private unnamed_addr constant <{ [9 x i8] }> <{ [9 x i8] c",values(\22" }>, align 1
@alloc_cb920443507f8a0fdca067277c47c9cb = private unnamed_addr constant <{ [4 x i8] }> <{ [4 x i8] c"\22))\0A" }>, align 1
@alloc_94e475627f53aa3dbffe693807a45e03 = private unnamed_addr constant <{ ptr, [8 x i8], ptr, [8 x i8], ptr, [8 x i8] }> <{ ptr @alloc_8e4d7f79330c448f2977292b49677168, [8 x i8] c"\1A\00\00\00\00\00\00\00", ptr @alloc_b34d42ef5bf9b2651fd979e82ea23cba, [8 x i8] c"\09\00\00\00\00\00\00\00", ptr @alloc_cb920443507f8a0fdca067277c47c9cb, [8 x i8] c"\04\00\00\00\00\00\00\00" }>, align 8
@alloc_cba169e49d2f6a8c1ea9f5f92c42ec6b = private unnamed_addr constant <{ [2 x i8] }> <{ [2 x i8] c")\0A" }>, align 1
@alloc_4eeda7205751175a49b06499c9a56a10 = private unnamed_addr constant <{ ptr, [8 x i8], ptr, [8 x i8] }> <{ ptr @alloc_6451cabe30bf8eceba038f6f3ea6a713, [8 x i8] c"\1D\00\00\00\00\00\00\00", ptr @alloc_cba169e49d2f6a8c1ea9f5f92c42ec6b, [8 x i8] c"\02\00\00\00\00\00\00\00" }>, align 8
@alloc_52cdc5c3cdbc4fafb7761e3fb7e847e1 = private unnamed_addr constant <{ ptr, [8 x i8], ptr, [8 x i8] }> <{ ptr @alloc_8e4d7f79330c448f2977292b49677168, [8 x i8] c"\1A\00\00\00\00\00\00\00", ptr @alloc_cba169e49d2f6a8c1ea9f5f92c42ec6b, [8 x i8] c"\02\00\00\00\00\00\00\00" }>, align 8
@alloc_806c1ac911172019779ceab530bc1f0e = private unnamed_addr constant <{ [5 x i8] }> <{ [5 x i8] c"RUSTC" }>, align 1
@alloc_c33e5af42b9b9e21f43a4fcb9c0ba190 = private unnamed_addr constant <{ [27 x i8] }> <{ [27 x i8] c"Failed to get rustc version" }>, align 1
@alloc_444d280e7b692568a0200a5be9255183 = private unnamed_addr constant <{ ptr, [16 x i8] }> <{ ptr @alloc_1b5cdf517b9a95a7603e6d644bc245dc, [16 x i8] c"Y\00\00\00\00\00\00\00\C7\00\00\00\11\00\00\00" }>, align 8
@alloc_a887f9858119cc7413062dc002c4d9ab = private unnamed_addr constant <{ [9 x i8] }> <{ [9 x i8] c"--version" }>, align 1
@alloc_c6a42ee6a44f40184120dd3760673084 = private unnamed_addr constant <{ ptr, [16 x i8] }> <{ ptr @alloc_1b5cdf517b9a95a7603e6d644bc245dc, [16 x i8] c"Y\00\00\00\00\00\00\00\CC\00\00\00\0A\00\00\00" }>, align 8
@alloc_24c6a125bbc985b61d58fd74e29f442b = private unnamed_addr constant <{ [21 x i8] }> <{ [21 x i8] c"failed to run rustc: " }>, align 1
@alloc_985df46ffe9b67b492b6f783eb6468a8 = private unnamed_addr constant <{ ptr, [8 x i8] }> <{ ptr @alloc_24c6a125bbc985b61d58fd74e29f442b, [8 x i8] c"\15\00\00\00\00\00\00\00" }>, align 8
@alloc_660e21bf4f9e4ea2c6a8c54fa64be0c3 = private unnamed_addr constant <{ ptr, [16 x i8] }> <{ ptr @alloc_1b5cdf517b9a95a7603e6d644bc245dc, [16 x i8] c"Y\00\00\00\00\00\00\00\CE\00\00\00\09\00\00\00" }>, align 8
@alloc_684e42763fd81214bd8c09751da04597 = private unnamed_addr constant <{ ptr, [16 x i8] }> <{ ptr @alloc_1b5cdf517b9a95a7603e6d644bc245dc, [16 x i8] c"Y\00\00\00\00\00\00\00\D4\00\00\00\13\00\00\00" }>, align 8
@alloc_ca36d7e792bb4bbd1a68749f90007ce8 = private unnamed_addr constant <{ [7 x i8] }> <{ [7 x i8] c"rustc 1" }>, align 1
@alloc_7ba1d4a6fed7eab8864703bfc6e1dfbe = private unnamed_addr constant <{ ptr, [8 x i8] }> <{ ptr @alloc_ca36d7e792bb4bbd1a68749f90007ce8, [8 x i8] c"\07\00\00\00\00\00\00\00" }>, align 8
@alloc_b58107880f3edaeb543fbaa45c523e93 = private unnamed_addr constant <{ ptr, [16 x i8] }> <{ ptr @alloc_1b5cdf517b9a95a7603e6d644bc245dc, [16 x i8] c"Y\00\00\00\00\00\00\00\E2\00\00\00\17\00\00\00" }>, align 8
@alloc_c42a31d32c1db4a02759c86274dcb524 = private unnamed_addr constant <{ ptr, [16 x i8] }> <{ ptr @alloc_1b5cdf517b9a95a7603e6d644bc245dc, [16 x i8] c"Y\00\00\00\00\00\00\00\E6\00\00\00\17\00\00\00" }>, align 8
@alloc_bab092644e04f434e471a118689066bc = private unnamed_addr constant <{ ptr, [16 x i8] }> <{ ptr @alloc_1b5cdf517b9a95a7603e6d644bc245dc, [16 x i8] c"Y\00\00\00\00\00\00\00\E6\00\00\00\11\00\00\00" }>, align 8
@alloc_63af7e8a58f9ee18a2e5499bacfe54fe = private unnamed_addr constant <{ ptr, [16 x i8] }> <{ ptr @alloc_1b5cdf517b9a95a7603e6d644bc245dc, [16 x i8] c"Y\00\00\00\00\00\00\00\D8\00\00\00\09\00\00\00" }>, align 8
@alloc_12dcbe319bdb437b2d068742d0ee3321 = private unnamed_addr constant <{ [3 x i8] }> <{ [3 x i8] c"dev" }>, align 1
@alloc_22ec252afd5f5781ca8ee9b115d4a0d6 = private unnamed_addr constant <{ [7 x i8] }> <{ [7 x i8] c"nightly" }>, align 1
@alloc_71264e62a593ae064235a5eb90a16b4a = private unnamed_addr constant <{ [15 x i8] }> <{ [15 x i8] c"freebsd-version" }>, align 1
@alloc_09726e4670e33a94eec627de0517026c = private unnamed_addr constant <{ ptr, [16 x i8] }> <{ ptr @alloc_1b5cdf517b9a95a7603e6d644bc245dc, [16 x i8] c"Y\00\00\00\00\00\00\00\F0\00\00\00\19\00\00\00" }>, align 8
@alloc_ef2d2168da8c0fa377a8a1fae49df3eb = private unnamed_addr constant <{ ptr, [16 x i8] }> <{ ptr @alloc_1b5cdf517b9a95a7603e6d644bc245dc, [16 x i8] c"Y\00\00\00\00\00\00\00\F9\00\00\00\19\00\00\00" }>, align 8
@alloc_e9aa3e56236bea0534a07b33b08bbbe6 = private unnamed_addr constant <{ [2 x i8] }> <{ [2 x i8] c"10" }>, align 1
@alloc_ae52c2733f312a4a903aef7e6436cb13 = private unnamed_addr constant <{ [2 x i8] }> <{ [2 x i8] c"11" }>, align 1
@alloc_3b059e5eb8e06e7498f909e7a08cef57 = private unnamed_addr constant <{ [2 x i8] }> <{ [2 x i8] c"12" }>, align 1
@alloc_d57d03743ee0b3cf85ca6cc66dce7f4d = private unnamed_addr constant <{ [2 x i8] }> <{ [2 x i8] c"13" }>, align 1
@alloc_e33ac00bdbd8c0cbb04273e924bd654c = private unnamed_addr constant <{ [2 x i8] }> <{ [2 x i8] c"14" }>, align 1
@alloc_27f411dcc9955beae922af37f2bb21f7 = private unnamed_addr constant <{ [2 x i8] }> <{ [2 x i8] c"15" }>, align 1
@alloc_e7b0dd178336291b9ad3b8b25bc77cb0 = private unnamed_addr constant <{ [4 x i8] }> <{ [4 x i8] c"emcc" }>, align 1
@alloc_53695a5ce3568835c4a92269d444b5c9 = private unnamed_addr constant <{ [12 x i8] }> <{ [12 x i8] c"-dumpversion" }>, align 1
@alloc_0501060e1a901ddca0c7d1cb13ac83f2 = private unnamed_addr constant <{ ptr, [16 x i8] }> <{ ptr @alloc_1b5cdf517b9a95a7603e6d644bc245dc, [16 x i8] c"Y\00\00\00\00\00\00\00\0E\01\00\00\19\00\00\00" }>, align 8
@alloc_bceef2e3ee165903ea4592d6f560eb9f = private unnamed_addr constant <{ ptr, [16 x i8] }> <{ ptr @alloc_1b5cdf517b9a95a7603e6d644bc245dc, [16 x i8] c"Y\00\00\00\00\00\00\00\17\01\00\00\1A\00\00\00" }>, align 8
@alloc_dd1d8049006af39563a5fc90234483d0 = private unnamed_addr constant <{ ptr, [16 x i8] }> <{ ptr @alloc_1b5cdf517b9a95a7603e6d644bc245dc, [16 x i8] c"Y\00\00\00\00\00\00\00!\01\00\00\0A\00\00\00" }>, align 8
@str.4 = internal unnamed_addr constant [33 x i8] c"attempt to multiply with overflow"
@alloc_f59ad76bab9422ff762cc4ac6f995084 = private unnamed_addr constant <{ ptr, [16 x i8] }> <{ ptr @alloc_1b5cdf517b9a95a7603e6d644bc245dc, [16 x i8] c"Y\00\00\00\00\00\00\00!\01\00\00\1A\00\00\00" }>, align 8
@str.5 = internal unnamed_addr constant [28 x i8] c"attempt to add with overflow"
@alloc_a99599e6e9267619b8f74409350a9da3 = private unnamed_addr constant <{ [18 x i8] }> <{ [18 x i8] c"trying to set cfg " }>, align 1
@alloc_4eb59c0c17baa4801b5eddd4ef47a15e = private unnamed_addr constant <{ [31 x i8] }> <{ [31 x i8] c", but it is not in ALLOWED_CFGS" }>, align 1
@alloc_715048d6614226cc84be59211b2dcb48 = private unnamed_addr constant <{ ptr, [8 x i8], ptr, [8 x i8] }> <{ ptr @alloc_a99599e6e9267619b8f74409350a9da3, [8 x i8] c"\12\00\00\00\00\00\00\00", ptr @alloc_4eb59c0c17baa4801b5eddd4ef47a15e, [8 x i8] c"\1F\00\00\00\00\00\00\00" }>, align 8
@alloc_37e96330a7a9823678e02a63489bebc6 = private unnamed_addr constant <{ ptr, [16 x i8] }> <{ ptr @alloc_1b5cdf517b9a95a7603e6d644bc245dc, [16 x i8] c"Y\00\00\00\00\00\00\00&\01\00\00\09\00\00\00" }>, align 8
@alloc_6d37a15ac7cea7e8070c0a492e97fefb = private unnamed_addr constant <{ [16 x i8] }> <{ [16 x i8] c"cargo:rustc-cfg=" }>, align 1
@alloc_49a1e817e911805af64bbc7efb390101 = private unnamed_addr constant <{ [1 x i8] }> <{ [1 x i8] c"\0A" }>, align 1
@alloc_14d3fadd47c8d538d7a00d4e2acf6106 = private unnamed_addr constant <{ ptr, [8 x i8], ptr, [8 x i8] }> <{ ptr @alloc_6d37a15ac7cea7e8070c0a492e97fefb, [8 x i8] c"\10\00\00\00\00\00\00\00", ptr @alloc_49a1e817e911805af64bbc7efb390101, [8 x i8] c"\01\00\00\00\00\00\00\00" }>, align 8

; <core::iter::adapters::map::Map<I,F> as core::iter::traits::iterator::Iterator>::next
; Function Attrs: inlinehint nonlazybind uwtable
define internal { ptr, i64 } @"_ZN102_$LT$core..iter..adapters..map..Map$LT$I$C$F$GT$$u20$as$u20$core..iter..traits..iterator..Iterator$GT$4next17hd008f6a710099339E"(ptr align 8 %self) unnamed_addr #0 {
start:
  %_8 = alloca ptr, align 8
  %self1 = alloca ptr, align 8
  %_0 = alloca %"core::option::Option<&[core::mem::maybe_uninit::MaybeUninit<u8>]>", align 8
; call <core::slice::iter::Iter<T> as core::iter::traits::iterator::Iterator>::next
  %0 = call align 8 ptr @"_ZN91_$LT$core..slice..iter..Iter$LT$T$GT$$u20$as$u20$core..iter..traits..iterator..Iterator$GT$4next17h6fda59c7d1678b69E"(ptr align 8 %self)
  store ptr %0, ptr %self1, align 8
  %f = getelementptr inbounds i8, ptr %self, i64 16
  %1 = load ptr, ptr %self1, align 8, !noundef !4
  %2 = ptrtoint ptr %1 to i64
  %3 = icmp eq i64 %2, 0
  %_5 = select i1 %3, i64 0, i64 1
  %4 = icmp eq i64 %_5, 0
  br i1 %4, label %bb2, label %bb4

bb2:                                              ; preds = %start
  store ptr null, ptr %_0, align 8
  br label %bb6

bb4:                                              ; preds = %start
  %x = load ptr, ptr %self1, align 8, !nonnull !4, !align !5, !noundef !4
  store ptr %x, ptr %_8, align 8
  %5 = load ptr, ptr %_8, align 8, !nonnull !4, !align !5, !noundef !4
; call core::ops::function::impls::<impl core::ops::function::FnOnce<A> for &mut F>::call_once
  %6 = call { ptr, i64 } @"_ZN4core3ops8function5impls80_$LT$impl$u20$core..ops..function..FnOnce$LT$A$GT$$u20$for$u20$$RF$mut$u20$F$GT$9call_once17h1b994c775c61d47fE"(ptr align 1 %f, ptr align 8 %5)
  %_7.0 = extractvalue { ptr, i64 } %6, 0
  %_7.1 = extractvalue { ptr, i64 } %6, 1
  store ptr %_7.0, ptr %_0, align 8
  %7 = getelementptr inbounds i8, ptr %_0, i64 8
  store i64 %_7.1, ptr %7, align 8
  br label %bb6

bb6:                                              ; preds = %bb4, %bb2
  %8 = load ptr, ptr %_0, align 8, !align !6, !noundef !4
  %9 = getelementptr inbounds i8, ptr %_0, i64 8
  %10 = load i64, ptr %9, align 8
  %11 = insertvalue { ptr, i64 } poison, ptr %8, 0
  %12 = insertvalue { ptr, i64 } %11, i64 %10, 1
  ret { ptr, i64 } %12

bb3:                                              ; No predecessors!
  unreachable
}

; <core::str::iter::CharIndices as core::iter::traits::double_ended::DoubleEndedIterator>::next_back
; Function Attrs: inlinehint nonlazybind uwtable
define internal { i64, i32 } @"_ZN102_$LT$core..str..iter..CharIndices$u20$as$u20$core..iter..traits..double_ended..DoubleEndedIterator$GT$9next_back17h92b763d85ff5472dE"(ptr align 8 %self) unnamed_addr #0 {
start:
  %_0.i = alloca i64, align 8
  %_16 = alloca { i64, i32, [1 x i32] }, align 8
  %self2 = alloca %"core::option::Option<u32>", align 4
  %self1 = alloca i32, align 4
  %_0 = alloca %"core::option::Option<(usize, char)>", align 8
; call core::str::validations::next_code_point_reverse
  %0 = call { i32, i32 } @_ZN4core3str11validations23next_code_point_reverse17hf95390bda4e0d5e9E(ptr align 8 %self)
  %1 = extractvalue { i32, i32 } %0, 0
  %2 = extractvalue { i32, i32 } %0, 1
  store i32 %1, ptr %self2, align 4
  %3 = getelementptr inbounds i8, ptr %self2, i64 4
  store i32 %2, ptr %3, align 4
  %4 = load i32, ptr %self2, align 4, !range !7, !noundef !4
  %_8 = zext i32 %4 to i64
  %5 = icmp eq i64 %_8, 0
  br i1 %5, label %bb2, label %bb3

bb2:                                              ; preds = %start
  store i32 1114112, ptr %self1, align 4
  br label %bb4

bb3:                                              ; preds = %start
  %6 = getelementptr inbounds i8, ptr %self2, i64 4
  %x = load i32, ptr %6, align 4, !noundef !4
  store i32 %x, ptr %self1, align 4
  br label %bb4

bb4:                                              ; preds = %bb3, %bb2
  %f = getelementptr inbounds %"core::str::iter::CharIndices<'_>", ptr %self, i32 0, i32 1
  %7 = load i32, ptr %self1, align 4, !range !8, !noundef !4
  %8 = icmp eq i32 %7, 1114112
  %_14 = select i1 %8, i64 0, i64 1
  %9 = icmp eq i64 %_14, 0
  br i1 %9, label %bb5, label %bb6

bb5:                                              ; preds = %bb4
  %10 = load i64, ptr @0, align 8
  %11 = load i32, ptr getelementptr inbounds (i8, ptr @0, i64 8), align 8, !range !8, !noundef !4
  store i64 %10, ptr %_0, align 8
  %12 = getelementptr inbounds i8, ptr %_0, i64 8
  store i32 %11, ptr %12, align 8
  br label %bb7

bb6:                                              ; preds = %bb4
  %x3 = load i32, ptr %self1, align 4, !range !9, !noundef !4
  %_18 = load i64, ptr %f, align 8, !noundef !4
  %self1.i = getelementptr inbounds i8, ptr %self, i64 8
  %end.i = load ptr, ptr %self1.i, align 8, !nonnull !4, !noundef !4
  %subtracted.i = load ptr, ptr %self, align 8, !nonnull !4, !noundef !4
  %13 = ptrtoint ptr %end.i to i64
  %14 = ptrtoint ptr %subtracted.i to i64
  %15 = sub nuw i64 %13, %14
  store i64 %15, ptr %_0.i, align 8
  %16 = load i64, ptr %_0.i, align 8, !noundef !4
  %index = add i64 %_18, %16
  store i64 %index, ptr %_16, align 8
  %17 = getelementptr inbounds i8, ptr %_16, i64 8
  store i32 %x3, ptr %17, align 8
  %18 = load i64, ptr %_16, align 8, !noundef !4
  %19 = getelementptr inbounds i8, ptr %_16, i64 8
  %20 = load i32, ptr %19, align 8, !range !9, !noundef !4
  store i64 %18, ptr %_0, align 8
  %21 = getelementptr inbounds i8, ptr %_0, i64 8
  store i32 %20, ptr %21, align 8
  br label %bb7

bb7:                                              ; preds = %bb6, %bb5
  %22 = load i64, ptr %_0, align 8
  %23 = getelementptr inbounds i8, ptr %_0, i64 8
  %24 = load i32, ptr %23, align 8, !range !8, !noundef !4
  %25 = insertvalue { i64, i32 } poison, i64 %22, 0
  %26 = insertvalue { i64, i32 } %25, i32 %24, 1
  ret { i64, i32 } %26

bb9:                                              ; No predecessors!
  unreachable
}

; <core::str::pattern::MultiCharEqSearcher<C> as core::str::pattern::ReverseSearcher>::next_back
; Function Attrs: inlinehint nonlazybind uwtable
define internal void @"_ZN104_$LT$core..str..pattern..MultiCharEqSearcher$LT$C$GT$$u20$as$u20$core..str..pattern..ReverseSearcher$GT$9next_back17h8fc3447be442520dE"(ptr sret(%"core::str::pattern::SearchStep") align 8 %_0, ptr align 8 %self) unnamed_addr #0 {
start:
  %_0.i1 = alloca i64, align 8
  %_0.i = alloca i64, align 8
  %_5 = alloca %"core::option::Option<(usize, char)>", align 8
  %s = getelementptr inbounds %"core::str::pattern::MultiCharEqSearcher<'_, {closure@core::str::<impl str>::trim::{closure#0}}>", ptr %self, i32 0, i32 1
  %_4 = getelementptr inbounds %"core::str::pattern::MultiCharEqSearcher<'_, {closure@core::str::<impl str>::trim::{closure#0}}>", ptr %self, i32 0, i32 1
  %self1.i2 = getelementptr inbounds i8, ptr %_4, i64 8
  %end.i3 = load ptr, ptr %self1.i2, align 8, !nonnull !4, !noundef !4
  %subtracted.i4 = load ptr, ptr %_4, align 8, !nonnull !4, !noundef !4
  %0 = ptrtoint ptr %end.i3 to i64
  %1 = ptrtoint ptr %subtracted.i4 to i64
  %2 = sub nuw i64 %0, %1
  store i64 %2, ptr %_0.i1, align 8
  %3 = load i64, ptr %_0.i1, align 8, !noundef !4
  %_6 = getelementptr inbounds %"core::str::pattern::MultiCharEqSearcher<'_, {closure@core::str::<impl str>::trim::{closure#0}}>", ptr %self, i32 0, i32 1
; call <core::str::iter::CharIndices as core::iter::traits::double_ended::DoubleEndedIterator>::next_back
  %4 = call { i64, i32 } @"_ZN102_$LT$core..str..iter..CharIndices$u20$as$u20$core..iter..traits..double_ended..DoubleEndedIterator$GT$9next_back17h92b763d85ff5472dE"(ptr align 8 %_6)
  %5 = extractvalue { i64, i32 } %4, 0
  %6 = extractvalue { i64, i32 } %4, 1
  store i64 %5, ptr %_5, align 8
  %7 = getelementptr inbounds i8, ptr %_5, i64 8
  store i32 %6, ptr %7, align 8
  %8 = getelementptr inbounds i8, ptr %_5, i64 8
  %9 = load i32, ptr %8, align 8, !range !8, !noundef !4
  %10 = icmp eq i32 %9, 1114112
  %_7 = select i1 %10, i64 0, i64 1
  %11 = icmp eq i64 %_7, 1
  br i1 %11, label %bb3, label %bb8

bb3:                                              ; preds = %start
  %i = load i64, ptr %_5, align 8, !noundef !4
  %12 = getelementptr inbounds i8, ptr %_5, i64 8
  %c = load i32, ptr %12, align 8, !range !9, !noundef !4
  %_11 = getelementptr inbounds %"core::str::pattern::MultiCharEqSearcher<'_, {closure@core::str::<impl str>::trim::{closure#0}}>", ptr %self, i32 0, i32 1
  %self1.i = getelementptr inbounds i8, ptr %_11, i64 8
  %end.i = load ptr, ptr %self1.i, align 8, !nonnull !4, !noundef !4
  %subtracted.i = load ptr, ptr %_11, align 8, !nonnull !4, !noundef !4
  %13 = ptrtoint ptr %end.i to i64
  %14 = ptrtoint ptr %subtracted.i to i64
  %15 = sub nuw i64 %13, %14
  store i64 %15, ptr %_0.i, align 8
  %16 = load i64, ptr %_0.i, align 8, !noundef !4
  %char_len = sub i64 %3, %16
  %_14 = getelementptr inbounds %"core::str::pattern::MultiCharEqSearcher<'_, {closure@core::str::<impl str>::trim::{closure#0}}>", ptr %self, i32 0, i32 2
; call <F as core::str::pattern::MultiCharEq>::matches
  %_13 = call zeroext i1 @"_ZN53_$LT$F$u20$as$u20$core..str..pattern..MultiCharEq$GT$7matches17h6100f3eb609f1675E"(ptr align 1 %_14, i32 %c)
  br i1 %_13, label %bb6, label %bb7

bb8:                                              ; preds = %start
  store i64 2, ptr %_0, align 8
  br label %bb10

bb7:                                              ; preds = %bb3
  %_16 = add i64 %i, %char_len
  %17 = getelementptr inbounds %"core::str::pattern::SearchStep::Reject", ptr %_0, i32 0, i32 1
  store i64 %i, ptr %17, align 8
  %18 = getelementptr inbounds %"core::str::pattern::SearchStep::Reject", ptr %_0, i32 0, i32 2
  store i64 %_16, ptr %18, align 8
  store i64 1, ptr %_0, align 8
  br label %bb9

bb6:                                              ; preds = %bb3
  %_15 = add i64 %i, %char_len
  %19 = getelementptr inbounds %"core::str::pattern::SearchStep::Match", ptr %_0, i32 0, i32 1
  store i64 %i, ptr %19, align 8
  %20 = getelementptr inbounds %"core::str::pattern::SearchStep::Match", ptr %_0, i32 0, i32 2
  store i64 %_15, ptr %20, align 8
  store i64 0, ptr %_0, align 8
  br label %bb9

bb9:                                              ; preds = %bb6, %bb7
  br label %bb10

bb10:                                             ; preds = %bb8, %bb9
  ret void
}

; <core::ops::range::Range<usize> as core::slice::index::SliceIndex<[T]>>::get
; Function Attrs: inlinehint nonlazybind uwtable
define internal { ptr, i64 } @"_ZN106_$LT$core..ops..range..Range$LT$usize$GT$$u20$as$u20$core..slice..index..SliceIndex$LT$$u5b$T$u5d$$GT$$GT$3get17hc35623dda6f617dfE"(i64 %self.0, i64 %self.1, ptr align 1 %slice.0, i64 %slice.1) unnamed_addr #0 {
start:
  %_17 = alloca %"core::ptr::metadata::PtrComponents<[u8]>", align 8
  %_16 = alloca %"core::ptr::metadata::PtrRepr<[u8]>", align 8
  %_0 = alloca %"core::option::Option<&[u8]>", align 8
  %_3 = icmp ugt i64 %self.0, %self.1
  br i1 %_3, label %bb2, label %bb1

bb1:                                              ; preds = %start
  %_6 = icmp ugt i64 %self.1, %slice.1
  br i1 %_6, label %bb2, label %bb3

bb2:                                              ; preds = %bb1, %start
  %0 = load ptr, ptr @1, align 8, !align !6, !noundef !4
  %1 = load i64, ptr getelementptr inbounds (i8, ptr @1, i64 8), align 8
  store ptr %0, ptr %_0, align 8
  %2 = getelementptr inbounds i8, ptr %_0, i64 8
  store i64 %1, ptr %2, align 8
  br label %bb4

bb3:                                              ; preds = %bb1
  %new_len = sub nuw i64 %self.1, %self.0
  %data = getelementptr inbounds i8, ptr %slice.0, i64 %self.0
  store ptr %data, ptr %_17, align 8
  %3 = getelementptr inbounds i8, ptr %_17, i64 8
  store i64 %new_len, ptr %3, align 8
  %4 = load ptr, ptr %_17, align 8, !noundef !4
  %5 = getelementptr inbounds i8, ptr %_17, i64 8
  %6 = load i64, ptr %5, align 8, !noundef !4
  store ptr %4, ptr %_16, align 8
  %7 = getelementptr inbounds i8, ptr %_16, i64 8
  store i64 %6, ptr %7, align 8
  %_9.0 = load ptr, ptr %_16, align 8, !noundef !4
  %8 = getelementptr inbounds i8, ptr %_16, i64 8
  %_9.1 = load i64, ptr %8, align 8, !noundef !4
  store ptr %_9.0, ptr %_0, align 8
  %9 = getelementptr inbounds i8, ptr %_0, i64 8
  store i64 %_9.1, ptr %9, align 8
  br label %bb4

bb4:                                              ; preds = %bb2, %bb3
  %10 = load ptr, ptr %_0, align 8, !align !6, !noundef !4
  %11 = getelementptr inbounds i8, ptr %_0, i64 8
  %12 = load i64, ptr %11, align 8
  %13 = insertvalue { ptr, i64 } poison, ptr %10, 0
  %14 = insertvalue { ptr, i64 } %13, i64 %12, 1
  ret { ptr, i64 } %14
}

; <core::ops::range::Range<usize> as core::slice::index::SliceIndex<[T]>>::index
; Function Attrs: inlinehint nonlazybind uwtable
define internal { ptr, i64 } @"_ZN106_$LT$core..ops..range..Range$LT$usize$GT$$u20$as$u20$core..slice..index..SliceIndex$LT$$u5b$T$u5d$$GT$$GT$5index17h283ab451fcbade8fE"(i64 %self.0, i64 %self.1, ptr align 1 %slice.0, i64 %slice.1, ptr align 8 %0) unnamed_addr #0 {
start:
  %_19 = alloca %"core::ptr::metadata::PtrComponents<[u8]>", align 8
  %_18 = alloca %"core::ptr::metadata::PtrRepr<[u8]>", align 8
  %_3 = icmp ugt i64 %self.0, %self.1
  br i1 %_3, label %bb1, label %bb2

bb2:                                              ; preds = %start
  %_7 = icmp ugt i64 %self.1, %slice.1
  br i1 %_7, label %bb3, label %bb4

bb1:                                              ; preds = %start
; call core::slice::index::slice_index_order_fail
  call void @_ZN4core5slice5index22slice_index_order_fail17h06f4de41a511866fE(i64 %self.0, i64 %self.1, ptr align 8 %0) #22
  unreachable

bb4:                                              ; preds = %bb2
  %new_len = sub nuw i64 %self.1, %self.0
  %data = getelementptr inbounds i8, ptr %slice.0, i64 %self.0
  store ptr %data, ptr %_19, align 8
  %1 = getelementptr inbounds i8, ptr %_19, i64 8
  store i64 %new_len, ptr %1, align 8
  %2 = load ptr, ptr %_19, align 8, !noundef !4
  %3 = getelementptr inbounds i8, ptr %_19, i64 8
  %4 = load i64, ptr %3, align 8, !noundef !4
  store ptr %2, ptr %_18, align 8
  %5 = getelementptr inbounds i8, ptr %_18, i64 8
  store i64 %4, ptr %5, align 8
  %_11.0 = load ptr, ptr %_18, align 8, !noundef !4
  %6 = getelementptr inbounds i8, ptr %_18, i64 8
  %_11.1 = load i64, ptr %6, align 8, !noundef !4
  %7 = insertvalue { ptr, i64 } poison, ptr %_11.0, 0
  %8 = insertvalue { ptr, i64 } %7, i64 %_11.1, 1
  ret { ptr, i64 } %8

bb3:                                              ; preds = %bb2
; call core::slice::index::slice_end_index_len_fail
  call void @_ZN4core5slice5index24slice_end_index_len_fail17h4c9cdbdfca4072caE(i64 %self.1, i64 %slice.1, ptr align 8 %0) #22
  unreachable
}

; <core::ops::range::Range<usize> as core::slice::index::SliceIndex<[T]>>::index_mut
; Function Attrs: inlinehint nonlazybind uwtable
define internal { ptr, i64 } @"_ZN106_$LT$core..ops..range..Range$LT$usize$GT$$u20$as$u20$core..slice..index..SliceIndex$LT$$u5b$T$u5d$$GT$$GT$9index_mut17h9682b84a29849628E"(i64 %self.0, i64 %self.1, ptr align 1 %slice.0, i64 %slice.1, ptr align 8 %0) unnamed_addr #0 {
start:
  %_21 = alloca %"core::ptr::metadata::PtrComponents<[u8]>", align 8
  %_20 = alloca %"core::ptr::metadata::PtrRepr<[u8]>", align 8
  %_3 = icmp ugt i64 %self.0, %self.1
  br i1 %_3, label %bb1, label %bb2

bb2:                                              ; preds = %start
  %_7 = icmp ugt i64 %self.1, %slice.1
  br i1 %_7, label %bb3, label %bb4

bb1:                                              ; preds = %start
; call core::slice::index::slice_index_order_fail
  call void @_ZN4core5slice5index22slice_index_order_fail17h06f4de41a511866fE(i64 %self.0, i64 %self.1, ptr align 8 %0) #22
  unreachable

bb4:                                              ; preds = %bb2
  %new_len = sub nuw i64 %self.1, %self.0
  %data = getelementptr inbounds i8, ptr %slice.0, i64 %self.0
  store ptr %data, ptr %_21, align 8
  %1 = getelementptr inbounds i8, ptr %_21, i64 8
  store i64 %new_len, ptr %1, align 8
  %2 = load ptr, ptr %_21, align 8, !noundef !4
  %3 = getelementptr inbounds i8, ptr %_21, i64 8
  %4 = load i64, ptr %3, align 8, !noundef !4
  store ptr %2, ptr %_20, align 8
  %5 = getelementptr inbounds i8, ptr %_20, i64 8
  store i64 %4, ptr %5, align 8
  %_11.0 = load ptr, ptr %_20, align 8, !noundef !4
  %6 = getelementptr inbounds i8, ptr %_20, i64 8
  %_11.1 = load i64, ptr %6, align 8, !noundef !4
  %7 = insertvalue { ptr, i64 } poison, ptr %_11.0, 0
  %8 = insertvalue { ptr, i64 } %7, i64 %_11.1, 1
  ret { ptr, i64 } %8

bb3:                                              ; preds = %bb2
; call core::slice::index::slice_end_index_len_fail
  call void @_ZN4core5slice5index24slice_end_index_len_fail17h4c9cdbdfca4072caE(i64 %self.1, i64 %slice.1, ptr align 8 %0) #22
  unreachable
}

; <core::slice::iter::Iter<T> as core::iter::traits::double_ended::DoubleEndedIterator>::next_back
; Function Attrs: inlinehint nonlazybind uwtable
define internal align 1 ptr @"_ZN106_$LT$core..slice..iter..Iter$LT$T$GT$$u20$as$u20$core..iter..traits..double_ended..DoubleEndedIterator$GT$9next_back17h5afb966917d91340E"(ptr align 8 %self) unnamed_addr #0 {
start:
  %_10.i = alloca ptr, align 8
  %_0.i = alloca ptr, align 8
  %_13 = alloca ptr, align 8
  %end = alloca ptr, align 8
  %_2 = alloca i8, align 1
  %_0 = alloca ptr, align 8
  br i1 false, label %bb1, label %bb2

bb2:                                              ; preds = %start
  %self1 = getelementptr inbounds i8, ptr %self, i64 8
  %0 = load ptr, ptr %self1, align 8, !nonnull !4, !noundef !4
  store ptr %0, ptr %end, align 8
  %self2 = load ptr, ptr %self, align 8, !nonnull !4, !noundef !4
  %self3 = load ptr, ptr %end, align 8, !nonnull !4, !noundef !4
  %1 = icmp eq ptr %self2, %self3
  %2 = zext i1 %1 to i8
  store i8 %2, ptr %_2, align 1
  br label %bb3

bb1:                                              ; preds = %start
  %3 = getelementptr inbounds i8, ptr %self, i64 8
  %self4 = load ptr, ptr %3, align 8, !noundef !4
  %len = ptrtoint ptr %self4 to i64
  %4 = icmp eq i64 %len, 0
  %5 = zext i1 %4 to i8
  store i8 %5, ptr %_2, align 1
  br label %bb3

bb3:                                              ; preds = %bb1, %bb2
  %6 = load i8, ptr %_2, align 1, !range !10, !noundef !4
  %7 = trunc i8 %6 to i1
  br i1 %7, label %bb4, label %bb5

bb5:                                              ; preds = %bb3
  %self1.i = getelementptr inbounds i8, ptr %self, i64 8
  %self2.i = load ptr, ptr %self1.i, align 8, !nonnull !4, !noundef !4
  %_15.i = getelementptr inbounds i8, ptr %self2.i, i64 -1
  store ptr %_15.i, ptr %_10.i, align 8
  %8 = load ptr, ptr %_10.i, align 8, !nonnull !4, !noundef !4
  store ptr %8, ptr %self1.i, align 8
  %9 = load ptr, ptr %self1.i, align 8, !nonnull !4, !noundef !4
  store ptr %9, ptr %_0.i, align 8
  %10 = load ptr, ptr %_0.i, align 8, !nonnull !4, !noundef !4
  store ptr %10, ptr %_13, align 8
  %self5 = load ptr, ptr %_13, align 8, !nonnull !4, !noundef !4
  store ptr %self5, ptr %_0, align 8
  br label %bb7

bb4:                                              ; preds = %bb3
  store ptr null, ptr %_0, align 8
  br label %bb7

bb7:                                              ; preds = %bb4, %bb5
  %11 = load ptr, ptr %_0, align 8, !align !6, !noundef !4
  ret ptr %11
}

; <core::str::pattern::CharPredicateSearcher<F> as core::str::pattern::ReverseSearcher>::next_reject_back
; Function Attrs: inlinehint nonlazybind uwtable
define internal void @"_ZN106_$LT$core..str..pattern..CharPredicateSearcher$LT$F$GT$$u20$as$u20$core..str..pattern..ReverseSearcher$GT$16next_reject_back17h660de3468ca951eeE"(ptr sret(%"core::option::Option<(usize, usize)>") align 8 %_0, ptr align 8 %self) unnamed_addr #0 {
start:
  %_7 = alloca { i64, i64 }, align 8
  %_3 = alloca %"core::str::pattern::SearchStep", align 8
  br label %bb1

bb1:                                              ; preds = %bb5, %start
; call <core::str::pattern::MultiCharEqSearcher<C> as core::str::pattern::ReverseSearcher>::next_back
  call void @"_ZN104_$LT$core..str..pattern..MultiCharEqSearcher$LT$C$GT$$u20$as$u20$core..str..pattern..ReverseSearcher$GT$9next_back17h8fc3447be442520dE"(ptr sret(%"core::str::pattern::SearchStep") align 8 %_3, ptr align 8 %self)
  %_4 = load i64, ptr %_3, align 8, !range !11, !noundef !4
  switch i64 %_4, label %bb5 [
    i64 1, label %bb3
    i64 2, label %bb4
  ]

bb5:                                              ; preds = %bb1
  br label %bb1

bb3:                                              ; preds = %bb1
  %0 = getelementptr inbounds %"core::str::pattern::SearchStep::Reject", ptr %_3, i32 0, i32 1
  %a = load i64, ptr %0, align 8, !noundef !4
  %1 = getelementptr inbounds %"core::str::pattern::SearchStep::Reject", ptr %_3, i32 0, i32 2
  %b = load i64, ptr %1, align 8, !noundef !4
  store i64 %a, ptr %_7, align 8
  %2 = getelementptr inbounds i8, ptr %_7, i64 8
  store i64 %b, ptr %2, align 8
  %3 = load i64, ptr %_7, align 8, !noundef !4
  %4 = getelementptr inbounds i8, ptr %_7, i64 8
  %5 = load i64, ptr %4, align 8, !noundef !4
  %6 = getelementptr inbounds %"core::option::Option<(usize, usize)>::Some", ptr %_0, i32 0, i32 1
  store i64 %3, ptr %6, align 8
  %7 = getelementptr inbounds i8, ptr %6, i64 8
  store i64 %5, ptr %7, align 8
  store i64 1, ptr %_0, align 8
  br label %bb6

bb4:                                              ; preds = %bb1
  store i64 0, ptr %_0, align 8
  br label %bb6

bb6:                                              ; preds = %bb4, %bb3
  ret void
}

; <alloc::collections::btree::map::BTreeMap<K,V,A> as core::iter::traits::collect::IntoIterator>::into_iter
; Function Attrs: nonlazybind uwtable
define internal void @"_ZN119_$LT$alloc..collections..btree..map..BTreeMap$LT$K$C$V$C$A$GT$$u20$as$u20$core..iter..traits..collect..IntoIterator$GT$9into_iter17h66291d7a8993298fE"(ptr sret(%"alloc::collections::btree::map::IntoIter<std::ffi::os_str::OsString, core::option::Option<std::ffi::os_str::OsString>>") align 8 %_0, ptr align 8 %self) unnamed_addr #1 {
start:
  %_32 = alloca %"core::option::Option<alloc::collections::btree::navigate::LazyLeafHandle<alloc::collections::btree::node::marker::Dying, std::ffi::os_str::OsString, core::option::Option<std::ffi::os_str::OsString>>>", align 8
  %_28 = alloca %"alloc::collections::btree::navigate::LazyLeafHandle<alloc::collections::btree::node::marker::Dying, std::ffi::os_str::OsString, core::option::Option<std::ffi::os_str::OsString>>", align 8
  %_27 = alloca %"core::option::Option<alloc::collections::btree::navigate::LazyLeafHandle<alloc::collections::btree::node::marker::Dying, std::ffi::os_str::OsString, core::option::Option<std::ffi::os_str::OsString>>>", align 8
  %_26 = alloca %"alloc::collections::btree::navigate::LazyLeafHandle<alloc::collections::btree::node::marker::Dying, std::ffi::os_str::OsString, core::option::Option<std::ffi::os_str::OsString>>", align 8
  %_25 = alloca %"core::option::Option<alloc::collections::btree::navigate::LazyLeafHandle<alloc::collections::btree::node::marker::Dying, std::ffi::os_str::OsString, core::option::Option<std::ffi::os_str::OsString>>>", align 8
  %_14 = alloca %"alloc::collections::btree::navigate::LazyLeafRange<alloc::collections::btree::node::marker::Dying, std::ffi::os_str::OsString, core::option::Option<std::ffi::os_str::OsString>>", align 8
  %self1 = alloca %"alloc::collections::btree::node::NodeRef<alloc::collections::btree::node::marker::Dying, std::ffi::os_str::OsString, core::option::Option<std::ffi::os_str::OsString>, alloc::collections::btree::node::marker::LeafOrInternal>", align 8
  %full_range = alloca %"alloc::collections::btree::navigate::LazyLeafRange<alloc::collections::btree::node::marker::Dying, std::ffi::os_str::OsString, core::option::Option<std::ffi::os_str::OsString>>", align 8
  %result = alloca %"core::option::Option<alloc::collections::btree::node::NodeRef<alloc::collections::btree::node::marker::Owned, std::ffi::os_str::OsString, core::option::Option<std::ffi::os_str::OsString>, alloc::collections::btree::node::marker::LeafOrInternal>>", align 8
  %me = alloca %"core::mem::manually_drop::ManuallyDrop<alloc::collections::btree::map::BTreeMap<std::ffi::os_str::OsString, core::option::Option<std::ffi::os_str::OsString>>>", align 8
  call void @llvm.memcpy.p0.p0.i64(ptr align 8 %me, ptr align 8 %self, i64 24, i1 false)
  %0 = load ptr, ptr %me, align 8, !noundef !4
  %1 = getelementptr inbounds i8, ptr %me, i64 8
  %2 = load i64, ptr %1, align 8
  store ptr %0, ptr %result, align 8
  %3 = getelementptr inbounds i8, ptr %result, i64 8
  store i64 %2, ptr %3, align 8
  %4 = load ptr, ptr @1, align 8, !noundef !4
  %5 = load i64, ptr getelementptr inbounds (i8, ptr @1, i64 8), align 8
  store ptr %4, ptr %me, align 8
  %6 = getelementptr inbounds i8, ptr %me, i64 8
  store i64 %5, ptr %6, align 8
  %7 = load ptr, ptr %result, align 8, !noundef !4
  %8 = ptrtoint ptr %7 to i64
  %9 = icmp eq i64 %8, 0
  %_6 = select i1 %9, i64 0, i64 1
  %10 = icmp eq i64 %_6, 1
  br i1 %10, label %bb1, label %bb2

bb1:                                              ; preds = %start
  %11 = getelementptr inbounds i8, ptr %result, i64 8
  %root = load i64, ptr %11, align 8, !noundef !4
  %root2 = load ptr, ptr %result, align 8, !nonnull !4, !noundef !4
  %12 = getelementptr inbounds i8, ptr %self1, i64 8
  store i64 %root, ptr %12, align 8
  store ptr %root2, ptr %self1, align 8
  %self2.0 = load ptr, ptr %self1, align 8, !nonnull !4, !noundef !4
  %13 = getelementptr inbounds i8, ptr %self1, i64 8
  %self2.1 = load i64, ptr %13, align 8, !noundef !4
  %root1.0 = load ptr, ptr %self1, align 8, !nonnull !4, !noundef !4
  %14 = getelementptr inbounds i8, ptr %self1, i64 8
  %root1.1 = load i64, ptr %14, align 8, !noundef !4
  %15 = getelementptr inbounds %"alloc::collections::btree::navigate::LazyLeafHandle<alloc::collections::btree::node::marker::Dying, std::ffi::os_str::OsString, core::option::Option<std::ffi::os_str::OsString>>::Root", ptr %_26, i32 0, i32 1
  store ptr %root1.0, ptr %15, align 8
  %16 = getelementptr inbounds i8, ptr %15, i64 8
  store i64 %root1.1, ptr %16, align 8
  store ptr null, ptr %_26, align 8
  %17 = getelementptr inbounds %"core::option::Option<alloc::collections::btree::navigate::LazyLeafHandle<alloc::collections::btree::node::marker::Dying, std::ffi::os_str::OsString, core::option::Option<std::ffi::os_str::OsString>>>::Some", ptr %_25, i32 0, i32 1
  call void @llvm.memcpy.p0.p0.i64(ptr align 8 %17, ptr align 8 %_26, i64 24, i1 false)
  store i64 1, ptr %_25, align 8
  %18 = getelementptr inbounds %"alloc::collections::btree::navigate::LazyLeafHandle<alloc::collections::btree::node::marker::Dying, std::ffi::os_str::OsString, core::option::Option<std::ffi::os_str::OsString>>::Root", ptr %_28, i32 0, i32 1
  store ptr %self2.0, ptr %18, align 8
  %19 = getelementptr inbounds i8, ptr %18, i64 8
  store i64 %self2.1, ptr %19, align 8
  store ptr null, ptr %_28, align 8
  %20 = getelementptr inbounds %"core::option::Option<alloc::collections::btree::navigate::LazyLeafHandle<alloc::collections::btree::node::marker::Dying, std::ffi::os_str::OsString, core::option::Option<std::ffi::os_str::OsString>>>::Some", ptr %_27, i32 0, i32 1
  call void @llvm.memcpy.p0.p0.i64(ptr align 8 %20, ptr align 8 %_28, i64 24, i1 false)
  store i64 1, ptr %_27, align 8
  call void @llvm.memcpy.p0.p0.i64(ptr align 8 %full_range, ptr align 8 %_25, i64 32, i1 false)
  %21 = getelementptr inbounds %"alloc::collections::btree::navigate::LazyLeafRange<alloc::collections::btree::node::marker::Dying, std::ffi::os_str::OsString, core::option::Option<std::ffi::os_str::OsString>>", ptr %full_range, i32 0, i32 1
  call void @llvm.memcpy.p0.p0.i64(ptr align 8 %21, ptr align 8 %_27, i64 32, i1 false)
  %22 = getelementptr inbounds %"alloc::collections::btree::map::BTreeMap<std::ffi::os_str::OsString, core::option::Option<std::ffi::os_str::OsString>>", ptr %me, i32 0, i32 1
  %_9 = load i64, ptr %22, align 8, !noundef !4
  %slot = getelementptr inbounds %"alloc::collections::btree::map::BTreeMap<std::ffi::os_str::OsString, core::option::Option<std::ffi::os_str::OsString>>", ptr %me, i32 0, i32 2
  %src = getelementptr inbounds %"alloc::collections::btree::map::BTreeMap<std::ffi::os_str::OsString, core::option::Option<std::ffi::os_str::OsString>>", ptr %me, i32 0, i32 2
  call void @llvm.memcpy.p0.p0.i64(ptr align 8 %_0, ptr align 8 %full_range, i64 64, i1 false)
  %23 = getelementptr inbounds %"alloc::collections::btree::map::IntoIter<std::ffi::os_str::OsString, core::option::Option<std::ffi::os_str::OsString>>", ptr %_0, i32 0, i32 1
  store i64 %_9, ptr %23, align 8
  br label %bb3

bb2:                                              ; preds = %start
  store i64 0, ptr %_32, align 8
  call void @llvm.memcpy.p0.p0.i64(ptr align 8 %_14, ptr align 8 %_32, i64 32, i1 false)
  %24 = getelementptr inbounds %"alloc::collections::btree::navigate::LazyLeafRange<alloc::collections::btree::node::marker::Dying, std::ffi::os_str::OsString, core::option::Option<std::ffi::os_str::OsString>>", ptr %_14, i32 0, i32 1
  call void @llvm.memcpy.p0.p0.i64(ptr align 8 %24, ptr align 8 %_32, i64 32, i1 false)
  %slot3 = getelementptr inbounds %"alloc::collections::btree::map::BTreeMap<std::ffi::os_str::OsString, core::option::Option<std::ffi::os_str::OsString>>", ptr %me, i32 0, i32 2
  %src4 = getelementptr inbounds %"alloc::collections::btree::map::BTreeMap<std::ffi::os_str::OsString, core::option::Option<std::ffi::os_str::OsString>>", ptr %me, i32 0, i32 2
  call void @llvm.memcpy.p0.p0.i64(ptr align 8 %_0, ptr align 8 %_14, i64 64, i1 false)
  %25 = getelementptr inbounds %"alloc::collections::btree::map::IntoIter<std::ffi::os_str::OsString, core::option::Option<std::ffi::os_str::OsString>>", ptr %_0, i32 0, i32 1
  store i64 0, ptr %25, align 8
  br label %bb3

bb3:                                              ; preds = %bb2, %bb1
  ret void
}

; <alloc::vec::Vec<T,A> as alloc::vec::spec_extend::SpecExtend<&T,core::slice::iter::Iter<T>>>::spec_extend
; Function Attrs: nonlazybind uwtable
define internal void @"_ZN132_$LT$alloc..vec..Vec$LT$T$C$A$GT$$u20$as$u20$alloc..vec..spec_extend..SpecExtend$LT$$RF$T$C$core..slice..iter..Iter$LT$T$GT$$GT$$GT$11spec_extend17had4b74d7d943de09E"(ptr align 8 %self, ptr %0, ptr %1) unnamed_addr #1 {
start:
  %_24.i = alloca %"core::ptr::metadata::PtrComponents<[u8]>", align 8
  %_23.i = alloca %"core::ptr::metadata::PtrRepr<[u8]>", align 8
  %len.i = alloca i64, align 8
  %iterator = alloca %"core::slice::iter::Iter<'_, u8>", align 8
  store ptr %0, ptr %iterator, align 8
  %2 = getelementptr inbounds i8, ptr %iterator, i64 8
  store ptr %1, ptr %2, align 8
  %self1.i = load ptr, ptr %iterator, align 8, !nonnull !4, !noundef !4
  %self2.i = getelementptr inbounds i8, ptr %iterator, i64 8
  %end.i = load ptr, ptr %self2.i, align 8, !nonnull !4, !noundef !4
  %3 = ptrtoint ptr %end.i to i64
  %4 = ptrtoint ptr %self1.i to i64
  %5 = sub nuw i64 %3, %4
  store i64 %5, ptr %len.i, align 8
  store ptr %self1.i, ptr %_24.i, align 8
  %6 = load i64, ptr %len.i, align 8, !noundef !4
  %7 = getelementptr inbounds i8, ptr %_24.i, i64 8
  store i64 %6, ptr %7, align 8
  %8 = load ptr, ptr %_24.i, align 8, !noundef !4
  %9 = getelementptr inbounds i8, ptr %_24.i, i64 8
  %10 = load i64, ptr %9, align 8, !noundef !4
  store ptr %8, ptr %_23.i, align 8
  %11 = getelementptr inbounds i8, ptr %_23.i, i64 8
  store i64 %10, ptr %11, align 8
  %_21.0.i = load ptr, ptr %_23.i, align 8, !noundef !4
  %12 = getelementptr inbounds i8, ptr %_23.i, i64 8
  %_21.1.i = load i64, ptr %12, align 8, !noundef !4
  %13 = insertvalue { ptr, i64 } poison, ptr %_21.0.i, 0
  %14 = insertvalue { ptr, i64 } %13, i64 %_21.1.i, 1
  %slice.0 = extractvalue { ptr, i64 } %14, 0
  %slice.1 = extractvalue { ptr, i64 } %14, 1
; call alloc::vec::Vec<T,A>::reserve
  call void @"_ZN5alloc3vec16Vec$LT$T$C$A$GT$7reserve17h7d51450b43ab08e6E"(ptr align 8 %self, i64 %slice.1)
  %15 = getelementptr inbounds %"alloc::vec::Vec<u8>", ptr %self, i32 0, i32 1
  %len = load i64, ptr %15, align 8, !noundef !4
  %16 = getelementptr inbounds i8, ptr %self, i64 8
  %self1 = load ptr, ptr %16, align 8, !nonnull !4, !noundef !4
  %dst = getelementptr inbounds i8, ptr %self1, i64 %len
  %17 = mul i64 %slice.1, 1
  call void @llvm.memcpy.p0.p0.i64(ptr align 1 %dst, ptr align 1 %slice.0, i64 %17, i1 false)
  %18 = getelementptr inbounds %"alloc::vec::Vec<u8>", ptr %self, i32 0, i32 1
  %19 = getelementptr inbounds %"alloc::vec::Vec<u8>", ptr %self, i32 0, i32 1
  %20 = load i64, ptr %19, align 8, !noundef !4
  %21 = add i64 %20, %slice.1
  store i64 %21, ptr %18, align 8
  ret void
}

; <<alloc::collections::btree::map::IntoIter<K,V,A> as core::ops::drop::Drop>::drop::DropGuard<K,V,A> as core::ops::drop::Drop>::drop
; Function Attrs: nonlazybind uwtable
define internal void @"_ZN174_$LT$$LT$alloc..collections..btree..map..IntoIter$LT$K$C$V$C$A$GT$$u20$as$u20$core..ops..drop..Drop$GT$..drop..DropGuard$LT$K$C$V$C$A$GT$$u20$as$u20$core..ops..drop..Drop$GT$4drop17h0edfb6fe12bb0a24E"(ptr align 8 %self) unnamed_addr #1 {
start:
  %kv = alloca %"alloc::collections::btree::node::Handle<alloc::collections::btree::node::NodeRef<alloc::collections::btree::node::marker::Dying, std::ffi::os_str::OsString, core::option::Option<std::ffi::os_str::OsString>, alloc::collections::btree::node::marker::LeafOrInternal>, alloc::collections::btree::node::marker::KV>", align 8
  %_2 = alloca %"core::option::Option<alloc::collections::btree::node::Handle<alloc::collections::btree::node::NodeRef<alloc::collections::btree::node::marker::Dying, std::ffi::os_str::OsString, core::option::Option<std::ffi::os_str::OsString>, alloc::collections::btree::node::marker::LeafOrInternal>, alloc::collections::btree::node::marker::KV>>", align 8
  br label %bb1

bb1:                                              ; preds = %bb3, %start
  %_6 = load ptr, ptr %self, align 8, !nonnull !4, !align !5, !noundef !4
; call alloc::collections::btree::map::IntoIter<K,V,A>::dying_next
  call void @"_ZN5alloc11collections5btree3map25IntoIter$LT$K$C$V$C$A$GT$10dying_next17he3baf3f2e3d5ecccE"(ptr sret(%"core::option::Option<alloc::collections::btree::node::Handle<alloc::collections::btree::node::NodeRef<alloc::collections::btree::node::marker::Dying, std::ffi::os_str::OsString, core::option::Option<std::ffi::os_str::OsString>, alloc::collections::btree::node::marker::LeafOrInternal>, alloc::collections::btree::node::marker::KV>>") align 8 %_2, ptr align 8 %_6)
  %0 = load ptr, ptr %_2, align 8, !noundef !4
  %1 = ptrtoint ptr %0 to i64
  %2 = icmp eq i64 %1, 0
  %_3 = select i1 %2, i64 0, i64 1
  %3 = icmp eq i64 %_3, 1
  br i1 %3, label %bb3, label %bb5

bb3:                                              ; preds = %bb1
  call void @llvm.memcpy.p0.p0.i64(ptr align 8 %kv, ptr align 8 %_2, i64 24, i1 false)
; call alloc::collections::btree::node::Handle<alloc::collections::btree::node::NodeRef<alloc::collections::btree::node::marker::Dying,K,V,NodeType>,alloc::collections::btree::node::marker::KV>::drop_key_val
  call void @"_ZN5alloc11collections5btree4node173Handle$LT$alloc..collections..btree..node..NodeRef$LT$alloc..collections..btree..node..marker..Dying$C$K$C$V$C$NodeType$GT$$C$alloc..collections..btree..node..marker..KV$GT$12drop_key_val17hfecadac120d6368eE"(ptr align 8 %kv)
  br label %bb1

bb5:                                              ; preds = %bb1
  ret void
}

; <T as core::any::Any>::type_id
; Function Attrs: nonlazybind uwtable
define internal i128 @"_ZN36_$LT$T$u20$as$u20$core..any..Any$GT$7type_id17h31a6712a293aff15E"(ptr align 8 %self) unnamed_addr #1 {
start:
  %0 = alloca i128, align 16
  %_0 = alloca i128, align 16
  store i128 -3011075744290844973410273712836543551, ptr %0, align 16
  %t = load i128, ptr %0, align 16, !noundef !4
  store i128 %t, ptr %_0, align 16
  %1 = load i128, ptr %_0, align 16, !noundef !4
  ret i128 %1
}

; std::sys_common::backtrace::__rust_end_short_backtrace
; Function Attrs: noinline noreturn nonlazybind uwtable
define internal void @_ZN3std10sys_common9backtrace26__rust_end_short_backtrace17he2a0fb139c7fad80E(ptr align 8 %f) unnamed_addr #2 {
start:
; call std::panicking::begin_panic::{{closure}}
  call void @"_ZN3std9panicking11begin_panic28_$u7b$$u7b$closure$u7d$$u7d$17h2ec4f5e66ba55c69E"(ptr align 8 %f) #22
  call void asm sideeffect "", "~{memory}"(), !srcloc !12
  call void @llvm.trap()
  unreachable
}

; std::sys_common::backtrace::__rust_begin_short_backtrace
; Function Attrs: noinline nonlazybind uwtable
define internal void @_ZN3std10sys_common9backtrace28__rust_begin_short_backtrace17h55702b6b6cc38241E(ptr %f) unnamed_addr #3 {
start:
; call core::ops::function::FnOnce::call_once
  call void @_ZN4core3ops8function6FnOnce9call_once17h8d766620b5e2180cE(ptr %f)
  call void asm sideeffect "", "~{memory}"(), !srcloc !12
  ret void
}

; std::io::error::repr_bitpacked::decode_repr
; Function Attrs: inlinehint nonlazybind uwtable
define internal void @_ZN3std2io5error14repr_bitpacked11decode_repr17he715da4852e45e7cE(ptr sret(%"std::io::error::ErrorData<alloc::boxed::Box<std::io::error::Custom>>") align 8 %_0, ptr %ptr) unnamed_addr #0 personality ptr @rust_eh_personality {
start:
  %0 = alloca ptr, align 8
  %1 = alloca { ptr, i32, [1 x i32] }, align 8
  %_45 = alloca %"core::ptr::metadata::PtrComponents<()>", align 8
  %_44 = alloca %"core::ptr::metadata::PtrRepr<()>", align 8
  %_25 = alloca i8, align 1
  %_23 = alloca ptr, align 8
  %self1 = alloca ptr, align 8
  %self = alloca i8, align 1
  %bits = alloca i64, align 8
  store i8 1, ptr %_25, align 1
  %2 = ptrtoint ptr %ptr to i64
  store i64 %2, ptr %bits, align 8
  %_6 = load i64, ptr %bits, align 8, !noundef !4
  %_5 = and i64 %_6, 3
  switch i64 %_5, label %bb1 [
    i64 2, label %bb2
    i64 3, label %bb3
    i64 0, label %bb5
    i64 1, label %bb6
  ]

bb1:                                              ; preds = %start
; invoke core::panicking::panic
  invoke void @_ZN4core9panicking5panic17h59297120e85ea178E(ptr align 1 @alloc_a500d906b91607583596fa15e63c2ada, i64 40, ptr align 8 @alloc_5f9ca26e4863825896f7978e113f791b) #22
          to label %unreachable unwind label %cleanup

bb2:                                              ; preds = %start
  %_10 = load i64, ptr %bits, align 8, !noundef !4
  %_8 = ashr i64 %_10, 32
  %code = trunc i64 %_8 to i32
  %3 = getelementptr inbounds %"std::io::error::ErrorData<alloc::boxed::Box<std::io::error::Custom>>::Os", ptr %_0, i32 0, i32 1
  store i32 %code, ptr %3, align 4
  store i8 0, ptr %_0, align 8
  br label %bb8

bb3:                                              ; preds = %start
  %_13 = load i64, ptr %bits, align 8, !noundef !4
  %_12 = lshr i64 %_13, 32
  %kind_bits = trunc i64 %_12 to i32
; invoke std::io::error::repr_bitpacked::kind_from_prim
  %4 = invoke i8 @_ZN3std2io5error14repr_bitpacked14kind_from_prim17h9d546f1e8b5ad749E(i32 %kind_bits)
          to label %bb4 unwind label %cleanup, !range !13

bb5:                                              ; preds = %start
  store ptr %ptr, ptr %self1, align 8
  %5 = getelementptr inbounds %"std::io::error::ErrorData<alloc::boxed::Box<std::io::error::Custom>>::SimpleMessage", ptr %_0, i32 0, i32 1
  store ptr %ptr, ptr %5, align 8
  store i8 2, ptr %_0, align 8
  br label %bb8

bb6:                                              ; preds = %start
  %6 = getelementptr i8, ptr %ptr, i64 -1
  store ptr %6, ptr %0, align 8
  %_41 = load ptr, ptr %0, align 8, !noundef !4
  store ptr %_41, ptr %_45, align 8
  call void @llvm.memcpy.p0.p0.i64(ptr align 8 %_44, ptr align 8 %_45, i64 8, i1 false)
  %self2 = load ptr, ptr %_44, align 8, !noundef !4
  store i8 0, ptr %_25, align 1
  store ptr %self2, ptr %_23, align 8
  %7 = load ptr, ptr %_23, align 8, !noundef !4
; invoke <std::io::error::repr_bitpacked::Repr as core::ops::drop::Drop>::drop::{{closure}}
  %_21 = invoke align 8 ptr @"_ZN78_$LT$std..io..error..repr_bitpacked..Repr$u20$as$u20$core..ops..drop..Drop$GT$4drop28_$u7b$$u7b$closure$u7d$$u7d$17h1664458beb3ff70aE"(ptr %7)
          to label %bb7 unwind label %cleanup

bb8:                                              ; preds = %bb7, %bb5, %bb4, %bb2
  %8 = load i8, ptr %_25, align 1, !range !10, !noundef !4
  %9 = trunc i8 %8 to i1
  br i1 %9, label %bb11, label %bb9

bb13:                                             ; preds = %cleanup
  %10 = load i8, ptr %_25, align 1, !range !10, !noundef !4
  %11 = trunc i8 %10 to i1
  br i1 %11, label %bb12, label %bb10

cleanup:                                          ; preds = %bb1, %bb6, %bb3
  %12 = landingpad { ptr, i32 }
          cleanup
  %13 = extractvalue { ptr, i32 } %12, 0
  %14 = extractvalue { ptr, i32 } %12, 1
  store ptr %13, ptr %1, align 8
  %15 = getelementptr inbounds i8, ptr %1, i64 8
  store i32 %14, ptr %15, align 8
  br label %bb13

bb4:                                              ; preds = %bb3
  store i8 %4, ptr %self, align 1
  %16 = load i8, ptr %self, align 1, !range !13, !noundef !4
  %17 = icmp eq i8 %16, 41
  %_27 = select i1 %17, i64 0, i64 1
  %_47 = icmp eq i64 %_27, 1
  call void @llvm.assume(i1 %_47)
  %kind = load i8, ptr %self, align 1, !range !14, !noundef !4
  %18 = getelementptr inbounds %"std::io::error::ErrorData<alloc::boxed::Box<std::io::error::Custom>>::Simple", ptr %_0, i32 0, i32 1
  store i8 %kind, ptr %18, align 1
  store i8 1, ptr %_0, align 8
  br label %bb8

bb7:                                              ; preds = %bb6
  %19 = getelementptr inbounds %"std::io::error::ErrorData<alloc::boxed::Box<std::io::error::Custom>>::Custom", ptr %_0, i32 0, i32 1
  store ptr %_21, ptr %19, align 8
  store i8 3, ptr %_0, align 8
  br label %bb8

bb9:                                              ; preds = %bb11, %bb8
  ret void

bb11:                                             ; preds = %bb8
  br label %bb9

unreachable:                                      ; preds = %bb1
  unreachable

bb10:                                             ; preds = %bb12, %bb13
  %20 = load ptr, ptr %1, align 8, !noundef !4
  %21 = getelementptr inbounds i8, ptr %1, i64 8
  %22 = load i32, ptr %21, align 8, !noundef !4
  %23 = insertvalue { ptr, i32 } poison, ptr %20, 0
  %24 = insertvalue { ptr, i32 } %23, i32 %22, 1
  resume { ptr, i32 } %24

bb12:                                             ; preds = %bb13
  br label %bb10
}

; std::io::error::repr_bitpacked::kind_from_prim
; Function Attrs: inlinehint nonlazybind uwtable
define internal i8 @_ZN3std2io5error14repr_bitpacked14kind_from_prim17h9d546f1e8b5ad749E(i32 %0) unnamed_addr #0 {
start:
  %_0 = alloca i8, align 1
  %ek = alloca i32, align 4
  store i32 %0, ptr %ek, align 4
  %_4 = load i32, ptr %ek, align 4, !noundef !4
  %1 = icmp eq i32 %_4, 0
  br i1 %1, label %bb1, label %bb2

bb1:                                              ; preds = %start
  %v = load i32, ptr %ek, align 4, !noundef !4
  store i8 0, ptr %_0, align 1
  br label %bb83

bb2:                                              ; preds = %start
  %_7 = load i32, ptr %ek, align 4, !noundef !4
  %2 = icmp eq i32 %_7, 1
  br i1 %2, label %bb3, label %bb4

bb83:                                             ; preds = %bb82, %bb81, %bb79, %bb77, %bb75, %bb73, %bb71, %bb69, %bb67, %bb65, %bb63, %bb61, %bb59, %bb57, %bb55, %bb53, %bb51, %bb49, %bb47, %bb45, %bb43, %bb41, %bb39, %bb37, %bb35, %bb33, %bb31, %bb29, %bb27, %bb25, %bb23, %bb21, %bb19, %bb17, %bb15, %bb13, %bb11, %bb9, %bb7, %bb5, %bb3, %bb1
  %3 = load i8, ptr %_0, align 1, !range !13, !noundef !4
  ret i8 %3

bb3:                                              ; preds = %bb2
  %v1 = load i32, ptr %ek, align 4, !noundef !4
  store i8 1, ptr %_0, align 1
  br label %bb83

bb4:                                              ; preds = %bb2
  %_10 = load i32, ptr %ek, align 4, !noundef !4
  %4 = icmp eq i32 %_10, 2
  br i1 %4, label %bb5, label %bb6

bb5:                                              ; preds = %bb4
  %v2 = load i32, ptr %ek, align 4, !noundef !4
  store i8 2, ptr %_0, align 1
  br label %bb83

bb6:                                              ; preds = %bb4
  %_13 = load i32, ptr %ek, align 4, !noundef !4
  %5 = icmp eq i32 %_13, 3
  br i1 %5, label %bb7, label %bb8

bb7:                                              ; preds = %bb6
  %v3 = load i32, ptr %ek, align 4, !noundef !4
  store i8 3, ptr %_0, align 1
  br label %bb83

bb8:                                              ; preds = %bb6
  %_16 = load i32, ptr %ek, align 4, !noundef !4
  %6 = icmp eq i32 %_16, 4
  br i1 %6, label %bb9, label %bb10

bb9:                                              ; preds = %bb8
  %v4 = load i32, ptr %ek, align 4, !noundef !4
  store i8 4, ptr %_0, align 1
  br label %bb83

bb10:                                             ; preds = %bb8
  %_19 = load i32, ptr %ek, align 4, !noundef !4
  %7 = icmp eq i32 %_19, 5
  br i1 %7, label %bb11, label %bb12

bb11:                                             ; preds = %bb10
  %v5 = load i32, ptr %ek, align 4, !noundef !4
  store i8 5, ptr %_0, align 1
  br label %bb83

bb12:                                             ; preds = %bb10
  %_22 = load i32, ptr %ek, align 4, !noundef !4
  %8 = icmp eq i32 %_22, 6
  br i1 %8, label %bb13, label %bb14

bb13:                                             ; preds = %bb12
  %v6 = load i32, ptr %ek, align 4, !noundef !4
  store i8 6, ptr %_0, align 1
  br label %bb83

bb14:                                             ; preds = %bb12
  %_25 = load i32, ptr %ek, align 4, !noundef !4
  %9 = icmp eq i32 %_25, 7
  br i1 %9, label %bb15, label %bb16

bb15:                                             ; preds = %bb14
  %v7 = load i32, ptr %ek, align 4, !noundef !4
  store i8 7, ptr %_0, align 1
  br label %bb83

bb16:                                             ; preds = %bb14
  %_28 = load i32, ptr %ek, align 4, !noundef !4
  %10 = icmp eq i32 %_28, 8
  br i1 %10, label %bb17, label %bb18

bb17:                                             ; preds = %bb16
  %v8 = load i32, ptr %ek, align 4, !noundef !4
  store i8 8, ptr %_0, align 1
  br label %bb83

bb18:                                             ; preds = %bb16
  %_31 = load i32, ptr %ek, align 4, !noundef !4
  %11 = icmp eq i32 %_31, 9
  br i1 %11, label %bb19, label %bb20

bb19:                                             ; preds = %bb18
  %v9 = load i32, ptr %ek, align 4, !noundef !4
  store i8 9, ptr %_0, align 1
  br label %bb83

bb20:                                             ; preds = %bb18
  %_34 = load i32, ptr %ek, align 4, !noundef !4
  %12 = icmp eq i32 %_34, 10
  br i1 %12, label %bb21, label %bb22

bb21:                                             ; preds = %bb20
  %v10 = load i32, ptr %ek, align 4, !noundef !4
  store i8 10, ptr %_0, align 1
  br label %bb83

bb22:                                             ; preds = %bb20
  %_37 = load i32, ptr %ek, align 4, !noundef !4
  %13 = icmp eq i32 %_37, 11
  br i1 %13, label %bb23, label %bb24

bb23:                                             ; preds = %bb22
  %v11 = load i32, ptr %ek, align 4, !noundef !4
  store i8 11, ptr %_0, align 1
  br label %bb83

bb24:                                             ; preds = %bb22
  %_40 = load i32, ptr %ek, align 4, !noundef !4
  %14 = icmp eq i32 %_40, 12
  br i1 %14, label %bb25, label %bb26

bb25:                                             ; preds = %bb24
  %v12 = load i32, ptr %ek, align 4, !noundef !4
  store i8 12, ptr %_0, align 1
  br label %bb83

bb26:                                             ; preds = %bb24
  %_43 = load i32, ptr %ek, align 4, !noundef !4
  %15 = icmp eq i32 %_43, 13
  br i1 %15, label %bb27, label %bb28

bb27:                                             ; preds = %bb26
  %v13 = load i32, ptr %ek, align 4, !noundef !4
  store i8 13, ptr %_0, align 1
  br label %bb83

bb28:                                             ; preds = %bb26
  %_46 = load i32, ptr %ek, align 4, !noundef !4
  %16 = icmp eq i32 %_46, 14
  br i1 %16, label %bb29, label %bb30

bb29:                                             ; preds = %bb28
  %v14 = load i32, ptr %ek, align 4, !noundef !4
  store i8 14, ptr %_0, align 1
  br label %bb83

bb30:                                             ; preds = %bb28
  %_49 = load i32, ptr %ek, align 4, !noundef !4
  %17 = icmp eq i32 %_49, 15
  br i1 %17, label %bb31, label %bb32

bb31:                                             ; preds = %bb30
  %v15 = load i32, ptr %ek, align 4, !noundef !4
  store i8 15, ptr %_0, align 1
  br label %bb83

bb32:                                             ; preds = %bb30
  %_52 = load i32, ptr %ek, align 4, !noundef !4
  %18 = icmp eq i32 %_52, 16
  br i1 %18, label %bb33, label %bb34

bb33:                                             ; preds = %bb32
  %v16 = load i32, ptr %ek, align 4, !noundef !4
  store i8 16, ptr %_0, align 1
  br label %bb83

bb34:                                             ; preds = %bb32
  %_55 = load i32, ptr %ek, align 4, !noundef !4
  %19 = icmp eq i32 %_55, 17
  br i1 %19, label %bb35, label %bb36

bb35:                                             ; preds = %bb34
  %v17 = load i32, ptr %ek, align 4, !noundef !4
  store i8 17, ptr %_0, align 1
  br label %bb83

bb36:                                             ; preds = %bb34
  %_58 = load i32, ptr %ek, align 4, !noundef !4
  %20 = icmp eq i32 %_58, 18
  br i1 %20, label %bb37, label %bb38

bb37:                                             ; preds = %bb36
  %v18 = load i32, ptr %ek, align 4, !noundef !4
  store i8 18, ptr %_0, align 1
  br label %bb83

bb38:                                             ; preds = %bb36
  %_61 = load i32, ptr %ek, align 4, !noundef !4
  %21 = icmp eq i32 %_61, 19
  br i1 %21, label %bb39, label %bb40

bb39:                                             ; preds = %bb38
  %v19 = load i32, ptr %ek, align 4, !noundef !4
  store i8 19, ptr %_0, align 1
  br label %bb83

bb40:                                             ; preds = %bb38
  %_64 = load i32, ptr %ek, align 4, !noundef !4
  %22 = icmp eq i32 %_64, 20
  br i1 %22, label %bb41, label %bb42

bb41:                                             ; preds = %bb40
  %v20 = load i32, ptr %ek, align 4, !noundef !4
  store i8 20, ptr %_0, align 1
  br label %bb83

bb42:                                             ; preds = %bb40
  %_67 = load i32, ptr %ek, align 4, !noundef !4
  %23 = icmp eq i32 %_67, 21
  br i1 %23, label %bb43, label %bb44

bb43:                                             ; preds = %bb42
  %v21 = load i32, ptr %ek, align 4, !noundef !4
  store i8 21, ptr %_0, align 1
  br label %bb83

bb44:                                             ; preds = %bb42
  %_70 = load i32, ptr %ek, align 4, !noundef !4
  %24 = icmp eq i32 %_70, 22
  br i1 %24, label %bb45, label %bb46

bb45:                                             ; preds = %bb44
  %v22 = load i32, ptr %ek, align 4, !noundef !4
  store i8 22, ptr %_0, align 1
  br label %bb83

bb46:                                             ; preds = %bb44
  %_73 = load i32, ptr %ek, align 4, !noundef !4
  %25 = icmp eq i32 %_73, 23
  br i1 %25, label %bb47, label %bb48

bb47:                                             ; preds = %bb46
  %v23 = load i32, ptr %ek, align 4, !noundef !4
  store i8 23, ptr %_0, align 1
  br label %bb83

bb48:                                             ; preds = %bb46
  %_76 = load i32, ptr %ek, align 4, !noundef !4
  %26 = icmp eq i32 %_76, 24
  br i1 %26, label %bb49, label %bb50

bb49:                                             ; preds = %bb48
  %v24 = load i32, ptr %ek, align 4, !noundef !4
  store i8 24, ptr %_0, align 1
  br label %bb83

bb50:                                             ; preds = %bb48
  %_79 = load i32, ptr %ek, align 4, !noundef !4
  %27 = icmp eq i32 %_79, 25
  br i1 %27, label %bb51, label %bb52

bb51:                                             ; preds = %bb50
  %v25 = load i32, ptr %ek, align 4, !noundef !4
  store i8 25, ptr %_0, align 1
  br label %bb83

bb52:                                             ; preds = %bb50
  %_82 = load i32, ptr %ek, align 4, !noundef !4
  %28 = icmp eq i32 %_82, 26
  br i1 %28, label %bb53, label %bb54

bb53:                                             ; preds = %bb52
  %v26 = load i32, ptr %ek, align 4, !noundef !4
  store i8 26, ptr %_0, align 1
  br label %bb83

bb54:                                             ; preds = %bb52
  %_85 = load i32, ptr %ek, align 4, !noundef !4
  %29 = icmp eq i32 %_85, 27
  br i1 %29, label %bb55, label %bb56

bb55:                                             ; preds = %bb54
  %v27 = load i32, ptr %ek, align 4, !noundef !4
  store i8 27, ptr %_0, align 1
  br label %bb83

bb56:                                             ; preds = %bb54
  %_88 = load i32, ptr %ek, align 4, !noundef !4
  %30 = icmp eq i32 %_88, 28
  br i1 %30, label %bb57, label %bb58

bb57:                                             ; preds = %bb56
  %v28 = load i32, ptr %ek, align 4, !noundef !4
  store i8 28, ptr %_0, align 1
  br label %bb83

bb58:                                             ; preds = %bb56
  %_91 = load i32, ptr %ek, align 4, !noundef !4
  %31 = icmp eq i32 %_91, 29
  br i1 %31, label %bb59, label %bb60

bb59:                                             ; preds = %bb58
  %v29 = load i32, ptr %ek, align 4, !noundef !4
  store i8 29, ptr %_0, align 1
  br label %bb83

bb60:                                             ; preds = %bb58
  %_94 = load i32, ptr %ek, align 4, !noundef !4
  %32 = icmp eq i32 %_94, 30
  br i1 %32, label %bb61, label %bb62

bb61:                                             ; preds = %bb60
  %v30 = load i32, ptr %ek, align 4, !noundef !4
  store i8 30, ptr %_0, align 1
  br label %bb83

bb62:                                             ; preds = %bb60
  %_97 = load i32, ptr %ek, align 4, !noundef !4
  %33 = icmp eq i32 %_97, 31
  br i1 %33, label %bb63, label %bb64

bb63:                                             ; preds = %bb62
  %v31 = load i32, ptr %ek, align 4, !noundef !4
  store i8 31, ptr %_0, align 1
  br label %bb83

bb64:                                             ; preds = %bb62
  %_100 = load i32, ptr %ek, align 4, !noundef !4
  %34 = icmp eq i32 %_100, 32
  br i1 %34, label %bb65, label %bb66

bb65:                                             ; preds = %bb64
  %v32 = load i32, ptr %ek, align 4, !noundef !4
  store i8 32, ptr %_0, align 1
  br label %bb83

bb66:                                             ; preds = %bb64
  %_103 = load i32, ptr %ek, align 4, !noundef !4
  %35 = icmp eq i32 %_103, 33
  br i1 %35, label %bb67, label %bb68

bb67:                                             ; preds = %bb66
  %v33 = load i32, ptr %ek, align 4, !noundef !4
  store i8 33, ptr %_0, align 1
  br label %bb83

bb68:                                             ; preds = %bb66
  %_106 = load i32, ptr %ek, align 4, !noundef !4
  %36 = icmp eq i32 %_106, 34
  br i1 %36, label %bb69, label %bb70

bb69:                                             ; preds = %bb68
  %v34 = load i32, ptr %ek, align 4, !noundef !4
  store i8 34, ptr %_0, align 1
  br label %bb83

bb70:                                             ; preds = %bb68
  %_109 = load i32, ptr %ek, align 4, !noundef !4
  %37 = icmp eq i32 %_109, 35
  br i1 %37, label %bb71, label %bb72

bb71:                                             ; preds = %bb70
  %v35 = load i32, ptr %ek, align 4, !noundef !4
  store i8 35, ptr %_0, align 1
  br label %bb83

bb72:                                             ; preds = %bb70
  %_112 = load i32, ptr %ek, align 4, !noundef !4
  %38 = icmp eq i32 %_112, 39
  br i1 %38, label %bb73, label %bb74

bb73:                                             ; preds = %bb72
  %v36 = load i32, ptr %ek, align 4, !noundef !4
  store i8 39, ptr %_0, align 1
  br label %bb83

bb74:                                             ; preds = %bb72
  %_115 = load i32, ptr %ek, align 4, !noundef !4
  %39 = icmp eq i32 %_115, 37
  br i1 %39, label %bb75, label %bb76

bb75:                                             ; preds = %bb74
  %v37 = load i32, ptr %ek, align 4, !noundef !4
  store i8 37, ptr %_0, align 1
  br label %bb83

bb76:                                             ; preds = %bb74
  %_118 = load i32, ptr %ek, align 4, !noundef !4
  %40 = icmp eq i32 %_118, 36
  br i1 %40, label %bb77, label %bb78

bb77:                                             ; preds = %bb76
  %v38 = load i32, ptr %ek, align 4, !noundef !4
  store i8 36, ptr %_0, align 1
  br label %bb83

bb78:                                             ; preds = %bb76
  %_121 = load i32, ptr %ek, align 4, !noundef !4
  %41 = icmp eq i32 %_121, 38
  br i1 %41, label %bb79, label %bb80

bb79:                                             ; preds = %bb78
  %v39 = load i32, ptr %ek, align 4, !noundef !4
  store i8 38, ptr %_0, align 1
  br label %bb83

bb80:                                             ; preds = %bb78
  %_124 = load i32, ptr %ek, align 4, !noundef !4
  %42 = icmp eq i32 %_124, 40
  br i1 %42, label %bb81, label %bb82

bb81:                                             ; preds = %bb80
  %v40 = load i32, ptr %ek, align 4, !noundef !4
  store i8 40, ptr %_0, align 1
  br label %bb83

bb82:                                             ; preds = %bb80
  store i8 41, ptr %_0, align 1
  br label %bb83
}

; std::rt::lang_start
; Function Attrs: nonlazybind uwtable
define hidden i64 @_ZN3std2rt10lang_start17h652645f588292e10E(ptr %main, i64 %argc, ptr %argv, i8 %sigpipe) unnamed_addr #1 {
start:
  %_8 = alloca ptr, align 8
  %_5 = alloca i64, align 8
  store ptr %main, ptr %_8, align 8
; call std::rt::lang_start_internal
  %0 = call i64 @_ZN3std2rt19lang_start_internal17hc3f700406209db2cE(ptr align 1 %_8, ptr align 8 @vtable.0, i64 %argc, ptr %argv, i8 %sigpipe)
  store i64 %0, ptr %_5, align 8
  %v = load i64, ptr %_5, align 8, !noundef !4
  ret i64 %v
}

; std::rt::lang_start::{{closure}}
; Function Attrs: inlinehint nonlazybind uwtable
define internal i32 @"_ZN3std2rt10lang_start28_$u7b$$u7b$closure$u7d$$u7d$17h0ebffd6a21155742E"(ptr align 8 %_1) unnamed_addr #0 {
start:
  %self = alloca i8, align 1
  %_4 = load ptr, ptr %_1, align 8, !nonnull !4, !noundef !4
; call std::sys_common::backtrace::__rust_begin_short_backtrace
  call void @_ZN3std10sys_common9backtrace28__rust_begin_short_backtrace17h55702b6b6cc38241E(ptr %_4)
; call <() as std::process::Termination>::report
  %0 = call i8 @"_ZN54_$LT$$LP$$RP$$u20$as$u20$std..process..Termination$GT$6report17h01401cf03b793a8dE"()
  store i8 %0, ptr %self, align 1
  %_6 = load i8, ptr %self, align 1, !noundef !4
  %_0 = zext i8 %_6 to i32
  ret i32 %_0
}

; std::env::var
; Function Attrs: nonlazybind uwtable
define internal void @_ZN3std3env3var17h91ed464e20ad755cE(ptr sret(%"core::result::Result<alloc::string::String, std::env::VarError>") align 8 %_0, ptr align 1 %0, i64 %1) unnamed_addr #1 personality ptr @rust_eh_personality {
start:
  %2 = alloca { ptr, i32, [1 x i32] }, align 8
  %key = alloca { ptr, i64 }, align 8
  store ptr %0, ptr %key, align 8
  %3 = getelementptr inbounds i8, ptr %key, i64 8
  store i64 %1, ptr %3, align 8
; invoke <&T as core::convert::AsRef<U>>::as_ref
  %4 = invoke { ptr, i64 } @"_ZN55_$LT$$RF$T$u20$as$u20$core..convert..AsRef$LT$U$GT$$GT$6as_ref17h394a871c56004d93E"(ptr align 8 %key)
          to label %bb1 unwind label %cleanup

bb4:                                              ; preds = %cleanup
  %5 = load ptr, ptr %2, align 8, !noundef !4
  %6 = getelementptr inbounds i8, ptr %2, i64 8
  %7 = load i32, ptr %6, align 8, !noundef !4
  %8 = insertvalue { ptr, i32 } poison, ptr %5, 0
  %9 = insertvalue { ptr, i32 } %8, i32 %7, 1
  resume { ptr, i32 } %9

cleanup:                                          ; preds = %bb1, %start
  %10 = landingpad { ptr, i32 }
          cleanup
  %11 = extractvalue { ptr, i32 } %10, 0
  %12 = extractvalue { ptr, i32 } %10, 1
  store ptr %11, ptr %2, align 8
  %13 = getelementptr inbounds i8, ptr %2, i64 8
  store i32 %12, ptr %13, align 8
  br label %bb4

bb1:                                              ; preds = %start
  %_2.0 = extractvalue { ptr, i64 } %4, 0
  %_2.1 = extractvalue { ptr, i64 } %4, 1
; invoke std::env::_var
  invoke void @_ZN3std3env4_var17h15b5dab35f465e04E(ptr sret(%"core::result::Result<alloc::string::String, std::env::VarError>") align 8 %_0, ptr align 1 %_2.0, i64 %_2.1)
          to label %bb2 unwind label %cleanup

bb2:                                              ; preds = %bb1
  ret void
}

; std::env::var_os
; Function Attrs: nonlazybind uwtable
define internal void @_ZN3std3env6var_os17h3bb6347db39043e7E(ptr sret(%"core::option::Option<std::ffi::os_str::OsString>") align 8 %_0, ptr align 1 %0, i64 %1) unnamed_addr #1 personality ptr @rust_eh_personality {
start:
  %2 = alloca { ptr, i32, [1 x i32] }, align 8
  %key = alloca { ptr, i64 }, align 8
  store ptr %0, ptr %key, align 8
  %3 = getelementptr inbounds i8, ptr %key, i64 8
  store i64 %1, ptr %3, align 8
; invoke <&T as core::convert::AsRef<U>>::as_ref
  %4 = invoke { ptr, i64 } @"_ZN55_$LT$$RF$T$u20$as$u20$core..convert..AsRef$LT$U$GT$$GT$6as_ref17h394a871c56004d93E"(ptr align 8 %key)
          to label %bb1 unwind label %cleanup

bb4:                                              ; preds = %cleanup
  %5 = load ptr, ptr %2, align 8, !noundef !4
  %6 = getelementptr inbounds i8, ptr %2, i64 8
  %7 = load i32, ptr %6, align 8, !noundef !4
  %8 = insertvalue { ptr, i32 } poison, ptr %5, 0
  %9 = insertvalue { ptr, i32 } %8, i32 %7, 1
  resume { ptr, i32 } %9

cleanup:                                          ; preds = %bb1, %start
  %10 = landingpad { ptr, i32 }
          cleanup
  %11 = extractvalue { ptr, i32 } %10, 0
  %12 = extractvalue { ptr, i32 } %10, 1
  store ptr %11, ptr %2, align 8
  %13 = getelementptr inbounds i8, ptr %2, i64 8
  store i32 %12, ptr %13, align 8
  br label %bb4

bb1:                                              ; preds = %start
  %_2.0 = extractvalue { ptr, i64 } %4, 0
  %_2.1 = extractvalue { ptr, i64 } %4, 1
; invoke std::env::_var_os
  invoke void @_ZN3std3env7_var_os17h2aab7dfe7e2cd591E(ptr sret(%"core::option::Option<std::ffi::os_str::OsString>") align 8 %_0, ptr align 1 %_2.0, i64 %_2.1)
          to label %bb2 unwind label %cleanup

bb2:                                              ; preds = %bb1
  ret void
}

; std::ffi::os_str::<impl core::convert::AsRef<std::ffi::os_str::OsStr> for str>::as_ref
; Function Attrs: inlinehint nonlazybind uwtable
define internal { ptr, i64 } @"_ZN3std3ffi6os_str85_$LT$impl$u20$core..convert..AsRef$LT$std..ffi..os_str..OsStr$GT$$u20$for$u20$str$GT$6as_ref17hc1fa025e14024c4eE"(ptr align 1 %self.0, i64 %self.1) unnamed_addr #0 {
start:
  %0 = insertvalue { ptr, i64 } poison, ptr %self.0, 0
  %1 = insertvalue { ptr, i64 } %0, i64 %self.1, 1
  ret { ptr, i64 } %1
}

; std::process::Command::arg
; Function Attrs: nonlazybind uwtable
define internal align 8 ptr @_ZN3std7process7Command3arg17hfccb2cadc148ae0bE(ptr align 8 %self, ptr align 1 %0, i64 %1) unnamed_addr #1 personality ptr @rust_eh_personality {
start:
  %2 = alloca { ptr, i32, [1 x i32] }, align 8
  %arg = alloca { ptr, i64 }, align 8
  store ptr %0, ptr %arg, align 8
  %3 = getelementptr inbounds i8, ptr %arg, i64 8
  store i64 %1, ptr %3, align 8
; invoke <&T as core::convert::AsRef<U>>::as_ref
  %4 = invoke { ptr, i64 } @"_ZN55_$LT$$RF$T$u20$as$u20$core..convert..AsRef$LT$U$GT$$GT$6as_ref17h394a871c56004d93E"(ptr align 8 %arg)
          to label %bb1 unwind label %cleanup

bb4:                                              ; preds = %cleanup
  %5 = load ptr, ptr %2, align 8, !noundef !4
  %6 = getelementptr inbounds i8, ptr %2, i64 8
  %7 = load i32, ptr %6, align 8, !noundef !4
  %8 = insertvalue { ptr, i32 } poison, ptr %5, 0
  %9 = insertvalue { ptr, i32 } %8, i32 %7, 1
  resume { ptr, i32 } %9

cleanup:                                          ; preds = %bb1, %start
  %10 = landingpad { ptr, i32 }
          cleanup
  %11 = extractvalue { ptr, i32 } %10, 0
  %12 = extractvalue { ptr, i32 } %10, 1
  store ptr %11, ptr %2, align 8
  %13 = getelementptr inbounds i8, ptr %2, i64 8
  store i32 %12, ptr %13, align 8
  br label %bb4

bb1:                                              ; preds = %start
  %_5.0 = extractvalue { ptr, i64 } %4, 0
  %_5.1 = extractvalue { ptr, i64 } %4, 1
; invoke std::sys::pal::unix::process::process_common::Command::arg
  invoke void @_ZN3std3sys3pal4unix7process14process_common7Command3arg17h2f5a0e34ed366842E(ptr align 8 %self, ptr align 1 %_5.0, i64 %_5.1)
          to label %bb2 unwind label %cleanup

bb2:                                              ; preds = %bb1
  ret ptr %self
}

; std::process::Command::new
; Function Attrs: nonlazybind uwtable
define internal void @_ZN3std7process7Command3new17h0ff30f5c8db2d15aE(ptr sret(%"std::process::Command") align 8 %_0, ptr align 1 %0, i64 %1) unnamed_addr #1 personality ptr @rust_eh_personality {
start:
  %2 = alloca { ptr, i32, [1 x i32] }, align 8
  %_2 = alloca %"std::sys::pal::unix::process::process_common::Command", align 8
  %program = alloca { ptr, i64 }, align 8
  store ptr %0, ptr %program, align 8
  %3 = getelementptr inbounds i8, ptr %program, i64 8
  store i64 %1, ptr %3, align 8
; invoke <&T as core::convert::AsRef<U>>::as_ref
  %4 = invoke { ptr, i64 } @"_ZN55_$LT$$RF$T$u20$as$u20$core..convert..AsRef$LT$U$GT$$GT$6as_ref17h394a871c56004d93E"(ptr align 8 %program)
          to label %bb1 unwind label %cleanup

bb4:                                              ; preds = %cleanup
  %5 = load ptr, ptr %2, align 8, !noundef !4
  %6 = getelementptr inbounds i8, ptr %2, i64 8
  %7 = load i32, ptr %6, align 8, !noundef !4
  %8 = insertvalue { ptr, i32 } poison, ptr %5, 0
  %9 = insertvalue { ptr, i32 } %8, i32 %7, 1
  resume { ptr, i32 } %9

cleanup:                                          ; preds = %bb1, %start
  %10 = landingpad { ptr, i32 }
          cleanup
  %11 = extractvalue { ptr, i32 } %10, 0
  %12 = extractvalue { ptr, i32 } %10, 1
  store ptr %11, ptr %2, align 8
  %13 = getelementptr inbounds i8, ptr %2, i64 8
  store i32 %12, ptr %13, align 8
  br label %bb4

bb1:                                              ; preds = %start
  %_3.0 = extractvalue { ptr, i64 } %4, 0
  %_3.1 = extractvalue { ptr, i64 } %4, 1
; invoke std::sys::pal::unix::process::process_common::Command::new
  invoke void @_ZN3std3sys3pal4unix7process14process_common7Command3new17h2720cbe0a0e2318cE(ptr sret(%"std::sys::pal::unix::process::process_common::Command") align 8 %_2, ptr align 1 %_3.0, i64 %_3.1)
          to label %bb2 unwind label %cleanup

bb2:                                              ; preds = %bb1
  call void @llvm.memcpy.p0.p0.i64(ptr align 8 %_0, ptr align 8 %_2, i64 208, i1 false)
  ret void
}

; std::process::Command::new
; Function Attrs: nonlazybind uwtable
define internal void @_ZN3std7process7Command3new17hf46d1e4bdd182000E(ptr sret(%"std::process::Command") align 8 %_0, ptr align 8 %program) unnamed_addr #1 personality ptr @rust_eh_personality {
start:
  %0 = alloca { ptr, i32, [1 x i32] }, align 8
  %_2 = alloca %"std::sys::pal::unix::process::process_common::Command", align 8
; invoke <std::ffi::os_str::OsString as core::convert::AsRef<std::ffi::os_str::OsStr>>::as_ref
  %1 = invoke { ptr, i64 } @"_ZN98_$LT$std..ffi..os_str..OsString$u20$as$u20$core..convert..AsRef$LT$std..ffi..os_str..OsStr$GT$$GT$6as_ref17hf81487ae9c7c1420E"(ptr align 8 %program)
          to label %bb1 unwind label %cleanup

bb4:                                              ; preds = %cleanup
; invoke core::ptr::drop_in_place<std::ffi::os_str::OsString>
  invoke void @"_ZN4core3ptr47drop_in_place$LT$std..ffi..os_str..OsString$GT$17h76100a6887cdd746E"(ptr align 8 %program) #23
          to label %bb5 unwind label %terminate

cleanup:                                          ; preds = %bb1, %start
  %2 = landingpad { ptr, i32 }
          cleanup
  %3 = extractvalue { ptr, i32 } %2, 0
  %4 = extractvalue { ptr, i32 } %2, 1
  store ptr %3, ptr %0, align 8
  %5 = getelementptr inbounds i8, ptr %0, i64 8
  store i32 %4, ptr %5, align 8
  br label %bb4

bb1:                                              ; preds = %start
  %_3.0 = extractvalue { ptr, i64 } %1, 0
  %_3.1 = extractvalue { ptr, i64 } %1, 1
; invoke std::sys::pal::unix::process::process_common::Command::new
  invoke void @_ZN3std3sys3pal4unix7process14process_common7Command3new17h2720cbe0a0e2318cE(ptr sret(%"std::sys::pal::unix::process::process_common::Command") align 8 %_2, ptr align 1 %_3.0, i64 %_3.1)
          to label %bb2 unwind label %cleanup

bb2:                                              ; preds = %bb1
  call void @llvm.memcpy.p0.p0.i64(ptr align 8 %_0, ptr align 8 %_2, i64 208, i1 false)
; call core::ptr::drop_in_place<std::ffi::os_str::OsString>
  call void @"_ZN4core3ptr47drop_in_place$LT$std..ffi..os_str..OsString$GT$17h76100a6887cdd746E"(ptr align 8 %program)
  ret void

terminate:                                        ; preds = %bb4
  %6 = landingpad { ptr, i32 }
          filter [0 x ptr] zeroinitializer
  %7 = extractvalue { ptr, i32 } %6, 0
  %8 = extractvalue { ptr, i32 } %6, 1
; call core::panicking::panic_in_cleanup
  call void @_ZN4core9panicking16panic_in_cleanup17h803841cec7522372E() #8
  unreachable

bb5:                                              ; preds = %bb4
  %9 = load ptr, ptr %0, align 8, !noundef !4
  %10 = getelementptr inbounds i8, ptr %0, i64 8
  %11 = load i32, ptr %10, align 8, !noundef !4
  %12 = insertvalue { ptr, i32 } poison, ptr %9, 0
  %13 = insertvalue { ptr, i32 } %12, i32 %11, 1
  resume { ptr, i32 } %13
}

; std::panicking::begin_panic
; Function Attrs: cold noinline noreturn nonlazybind uwtable
define internal void @_ZN3std9panicking11begin_panic17h90b6446a685d3c72E(ptr align 1 %msg.0, i64 %msg.1, ptr align 8 %0) unnamed_addr #4 {
start:
  %1 = alloca ptr, align 8
  %_3 = alloca %"{closure@std::panicking::begin_panic<&str>::{closure#0}}", align 8
  store ptr %0, ptr %1, align 8
  %loc = load ptr, ptr %1, align 8, !nonnull !4, !align !5, !noundef !4
  store ptr %msg.0, ptr %_3, align 8
  %2 = getelementptr inbounds i8, ptr %_3, i64 8
  store i64 %msg.1, ptr %2, align 8
  %3 = getelementptr inbounds %"{closure@std::panicking::begin_panic<&str>::{closure#0}}", ptr %_3, i32 0, i32 1
  store ptr %loc, ptr %3, align 8
; call std::sys_common::backtrace::__rust_end_short_backtrace
  call void @_ZN3std10sys_common9backtrace26__rust_end_short_backtrace17he2a0fb139c7fad80E(ptr align 8 %_3) #22
  unreachable
}

; std::panicking::begin_panic::{{closure}}
; Function Attrs: inlinehint noreturn nonlazybind uwtable
define internal void @"_ZN3std9panicking11begin_panic28_$u7b$$u7b$closure$u7d$$u7d$17h2ec4f5e66ba55c69E"(ptr align 8 %_1) unnamed_addr #5 personality ptr @rust_eh_personality {
start:
  %0 = alloca { ptr, i32, [1 x i32] }, align 8
  %_7 = alloca %"core::option::Option<&str>", align 8
  %_4 = alloca %"std::panicking::begin_panic::Payload<&str>", align 8
  %inner.0 = load ptr, ptr %_1, align 8, !nonnull !4, !align !6, !noundef !4
  %1 = getelementptr inbounds i8, ptr %_1, i64 8
  %inner.1 = load i64, ptr %1, align 8, !noundef !4
  store ptr %inner.0, ptr %_7, align 8
  %2 = getelementptr inbounds i8, ptr %_7, i64 8
  store i64 %inner.1, ptr %2, align 8
  %3 = load ptr, ptr %_7, align 8, !align !6, !noundef !4
  %4 = getelementptr inbounds i8, ptr %_7, i64 8
  %5 = load i64, ptr %4, align 8
  store ptr %3, ptr %_4, align 8
  %6 = getelementptr inbounds i8, ptr %_4, i64 8
  store i64 %5, ptr %6, align 8
  %7 = getelementptr inbounds %"{closure@std::panicking::begin_panic<&str>::{closure#0}}", ptr %_1, i32 0, i32 1
  %_6 = load ptr, ptr %7, align 8, !nonnull !4, !align !5, !noundef !4
; invoke std::panicking::rust_panic_with_hook
  invoke void @_ZN3std9panicking20rust_panic_with_hook17h49021cdbc4b22349E(ptr align 1 %_4, ptr align 8 @vtable.1, ptr align 8 null, ptr align 8 %_6, i1 zeroext true, i1 zeroext false) #22
          to label %unreachable unwind label %cleanup

bb1:                                              ; preds = %cleanup
  %8 = load ptr, ptr %0, align 8, !noundef !4
  %9 = getelementptr inbounds i8, ptr %0, i64 8
  %10 = load i32, ptr %9, align 8, !noundef !4
  %11 = insertvalue { ptr, i32 } poison, ptr %8, 0
  %12 = insertvalue { ptr, i32 } %11, i32 %10, 1
  resume { ptr, i32 } %12

cleanup:                                          ; preds = %start
  %13 = landingpad { ptr, i32 }
          cleanup
  %14 = extractvalue { ptr, i32 } %13, 0
  %15 = extractvalue { ptr, i32 } %13, 1
  store ptr %14, ptr %0, align 8
  %16 = getelementptr inbounds i8, ptr %0, i64 8
  store i32 %15, ptr %16, align 8
  br label %bb1

unreachable:                                      ; preds = %start
  unreachable
}

; <&T as core::fmt::Display>::fmt
; Function Attrs: nonlazybind uwtable
define internal zeroext i1 @"_ZN44_$LT$$RF$T$u20$as$u20$core..fmt..Display$GT$3fmt17h55e488db35bb75afE"(ptr align 8 %self, ptr align 8 %f) unnamed_addr #1 {
start:
  %_3.0 = load ptr, ptr %self, align 8, !nonnull !4, !align !6, !noundef !4
  %0 = getelementptr inbounds i8, ptr %self, i64 8
  %_3.1 = load i64, ptr %0, align 8, !noundef !4
; call <str as core::fmt::Display>::fmt
  %_0 = call zeroext i1 @"_ZN42_$LT$str$u20$as$u20$core..fmt..Display$GT$3fmt17h86309c7b5dd516e7E"(ptr align 1 %_3.0, i64 %_3.1, ptr align 8 %f)
  ret i1 %_0
}

; <&T as core::fmt::Display>::fmt
; Function Attrs: nonlazybind uwtable
define internal zeroext i1 @"_ZN44_$LT$$RF$T$u20$as$u20$core..fmt..Display$GT$3fmt17hf7c551f3911500e7E"(ptr align 8 %self, ptr align 8 %f) unnamed_addr #1 {
start:
  %_3 = load ptr, ptr %self, align 8, !nonnull !4, !align !5, !noundef !4
; call <&T as core::fmt::Display>::fmt
  %_0 = call zeroext i1 @"_ZN44_$LT$$RF$T$u20$as$u20$core..fmt..Display$GT$3fmt17h55e488db35bb75afE"(ptr align 8 %_3, ptr align 8 %f)
  ret i1 %_0
}

; <F as core::str::pattern::Pattern>::into_searcher
; Function Attrs: inlinehint nonlazybind uwtable
define internal void @"_ZN49_$LT$F$u20$as$u20$core..str..pattern..Pattern$GT$13into_searcher17h009b6d4b80dcaa2dE"(ptr sret(%"core::str::pattern::CharPredicateSearcher<'_, {closure@core::str::<impl str>::trim::{closure#0}}>") align 8 %_0, ptr align 1 %haystack.0, i64 %haystack.1) unnamed_addr #0 {
start:
  %_13 = alloca ptr, align 8
  %_7 = alloca %"core::slice::iter::Iter<'_, u8>", align 8
  %_6 = alloca %"core::str::iter::Chars<'_>", align 8
  %_5 = alloca %"core::str::iter::CharIndices<'_>", align 8
  %_3 = alloca %"core::str::pattern::MultiCharEqSearcher<'_, {closure@core::str::<impl str>::trim::{closure#0}}>", align 8
  %end_or_len = getelementptr inbounds i8, ptr %haystack.0, i64 %haystack.1
  store ptr %haystack.0, ptr %_13, align 8
  %0 = load ptr, ptr %_13, align 8, !nonnull !4, !noundef !4
  store ptr %0, ptr %_7, align 8
  %1 = getelementptr inbounds i8, ptr %_7, i64 8
  store ptr %end_or_len, ptr %1, align 8
  %2 = load ptr, ptr %_7, align 8, !nonnull !4, !noundef !4
  %3 = getelementptr inbounds i8, ptr %_7, i64 8
  %4 = load ptr, ptr %3, align 8, !noundef !4
  store ptr %2, ptr %_6, align 8
  %5 = getelementptr inbounds i8, ptr %_6, i64 8
  store ptr %4, ptr %5, align 8
  %6 = getelementptr inbounds %"core::str::iter::CharIndices<'_>", ptr %_5, i32 0, i32 1
  store i64 0, ptr %6, align 8
  %7 = load ptr, ptr %_6, align 8, !nonnull !4, !noundef !4
  %8 = getelementptr inbounds i8, ptr %_6, i64 8
  %9 = load ptr, ptr %8, align 8, !noundef !4
  store ptr %7, ptr %_5, align 8
  %10 = getelementptr inbounds i8, ptr %_5, i64 8
  store ptr %9, ptr %10, align 8
  store ptr %haystack.0, ptr %_3, align 8
  %11 = getelementptr inbounds i8, ptr %_3, i64 8
  store i64 %haystack.1, ptr %11, align 8
  %12 = getelementptr inbounds %"core::str::pattern::MultiCharEqSearcher<'_, {closure@core::str::<impl str>::trim::{closure#0}}>", ptr %_3, i32 0, i32 1
  call void @llvm.memcpy.p0.p0.i64(ptr align 8 %12, ptr align 8 %_5, i64 24, i1 false)
  call void @llvm.memcpy.p0.p0.i64(ptr align 8 %_0, ptr align 8 %_3, i64 40, i1 false)
  ret void
}

; <F as core::str::pattern::Pattern>::into_searcher
; Function Attrs: inlinehint nonlazybind uwtable
define internal void @"_ZN49_$LT$F$u20$as$u20$core..str..pattern..Pattern$GT$13into_searcher17h0f84f5333baa4dfeE"(ptr sret(%"core::str::pattern::CharPredicateSearcher<'_, {closure@/users/zyuxuan/.cargo/registry/src/index.crates.io-6f17d22bba15001f/libc-0.2.153/build.rs:283:43: 283:46}>") align 8 %_0, ptr align 1 %haystack.0, i64 %haystack.1) unnamed_addr #0 {
start:
  %_13 = alloca ptr, align 8
  %_7 = alloca %"core::slice::iter::Iter<'_, u8>", align 8
  %_6 = alloca %"core::str::iter::Chars<'_>", align 8
  %_5 = alloca %"core::str::iter::CharIndices<'_>", align 8
  %_3 = alloca %"core::str::pattern::MultiCharEqSearcher<'_, {closure@/users/zyuxuan/.cargo/registry/src/index.crates.io-6f17d22bba15001f/libc-0.2.153/build.rs:283:43: 283:46}>", align 8
  %end_or_len = getelementptr inbounds i8, ptr %haystack.0, i64 %haystack.1
  store ptr %haystack.0, ptr %_13, align 8
  %0 = load ptr, ptr %_13, align 8, !nonnull !4, !noundef !4
  store ptr %0, ptr %_7, align 8
  %1 = getelementptr inbounds i8, ptr %_7, i64 8
  store ptr %end_or_len, ptr %1, align 8
  %2 = load ptr, ptr %_7, align 8, !nonnull !4, !noundef !4
  %3 = getelementptr inbounds i8, ptr %_7, i64 8
  %4 = load ptr, ptr %3, align 8, !noundef !4
  store ptr %2, ptr %_6, align 8
  %5 = getelementptr inbounds i8, ptr %_6, i64 8
  store ptr %4, ptr %5, align 8
  %6 = getelementptr inbounds %"core::str::iter::CharIndices<'_>", ptr %_5, i32 0, i32 1
  store i64 0, ptr %6, align 8
  %7 = load ptr, ptr %_6, align 8, !nonnull !4, !noundef !4
  %8 = getelementptr inbounds i8, ptr %_6, i64 8
  %9 = load ptr, ptr %8, align 8, !noundef !4
  store ptr %7, ptr %_5, align 8
  %10 = getelementptr inbounds i8, ptr %_5, i64 8
  store ptr %9, ptr %10, align 8
  store ptr %haystack.0, ptr %_3, align 8
  %11 = getelementptr inbounds i8, ptr %_3, i64 8
  store i64 %haystack.1, ptr %11, align 8
  %12 = getelementptr inbounds %"core::str::pattern::MultiCharEqSearcher<'_, {closure@/users/zyuxuan/.cargo/registry/src/index.crates.io-6f17d22bba15001f/libc-0.2.153/build.rs:283:43: 283:46}>", ptr %_3, i32 0, i32 1
  call void @llvm.memcpy.p0.p0.i64(ptr align 8 %12, ptr align 8 %_5, i64 24, i1 false)
  call void @llvm.memcpy.p0.p0.i64(ptr align 8 %_0, ptr align 8 %_3, i64 40, i1 false)
  ret void
}

; <usize as core::iter::range::Step>::forward_unchecked
; Function Attrs: inlinehint nonlazybind uwtable
define internal i64 @"_ZN49_$LT$usize$u20$as$u20$core..iter..range..Step$GT$17forward_unchecked17h2a28dc0f2c58a5ffE"(i64 %start1, i64 %n) unnamed_addr #0 {
start:
  %_0 = add nuw i64 %start1, %n
  ret i64 %_0
}

; core::cmp::impls::<impl core::cmp::Ord for usize>::cmp
; Function Attrs: inlinehint nonlazybind uwtable
define internal i8 @"_ZN4core3cmp5impls50_$LT$impl$u20$core..cmp..Ord$u20$for$u20$usize$GT$3cmp17h6d81c72ed3352698E"(ptr align 8 %self, ptr align 8 %other) unnamed_addr #0 {
start:
  %_0 = alloca i8, align 1
  %_4 = load i64, ptr %self, align 8, !noundef !4
  %_5 = load i64, ptr %other, align 8, !noundef !4
  %_3 = icmp ult i64 %_4, %_5
  br i1 %_3, label %bb1, label %bb2

bb2:                                              ; preds = %start
  %_6 = icmp eq i64 %_4, %_5
  br i1 %_6, label %bb3, label %bb4

bb1:                                              ; preds = %start
  store i8 -1, ptr %_0, align 1
  br label %bb6

bb4:                                              ; preds = %bb2
  store i8 1, ptr %_0, align 1
  br label %bb5

bb3:                                              ; preds = %bb2
  store i8 0, ptr %_0, align 1
  br label %bb5

bb5:                                              ; preds = %bb3, %bb4
  br label %bb6

bb6:                                              ; preds = %bb1, %bb5
  %0 = load i8, ptr %_0, align 1, !range !15, !noundef !4
  ret i8 %0
}

; core::cmp::impls::<impl core::cmp::PartialEq<&B> for &A>::eq
; Function Attrs: inlinehint nonlazybind uwtable
define internal zeroext i1 @"_ZN4core3cmp5impls69_$LT$impl$u20$core..cmp..PartialEq$LT$$RF$B$GT$$u20$for$u20$$RF$A$GT$2eq17hf363d66da4680525E"(ptr align 8 %self, ptr align 8 %other) unnamed_addr #0 {
start:
  %_3.0 = load ptr, ptr %self, align 8, !nonnull !4, !align !6, !noundef !4
  %0 = getelementptr inbounds i8, ptr %self, i64 8
  %_3.1 = load i64, ptr %0, align 8, !noundef !4
  %_4.0 = load ptr, ptr %other, align 8, !nonnull !4, !align !6, !noundef !4
  %1 = getelementptr inbounds i8, ptr %other, i64 8
  %_4.1 = load i64, ptr %1, align 8, !noundef !4
; call core::str::traits::<impl core::cmp::PartialEq for str>::eq
  %_0 = call zeroext i1 @"_ZN4core3str6traits54_$LT$impl$u20$core..cmp..PartialEq$u20$for$u20$str$GT$2eq17h2996e421936ed4dfE"(ptr align 1 %_3.0, i64 %_3.1, ptr align 1 %_4.0, i64 %_4.1)
  ret i1 %_0
}

; core::cmp::max_by
; Function Attrs: inlinehint nonlazybind uwtable
define internal i64 @_ZN4core3cmp6max_by17he4f3701c57fac3bcE(i64 %0, i64 %1) unnamed_addr #0 personality ptr @rust_eh_personality {
start:
  %2 = alloca { ptr, i32, [1 x i32] }, align 8
  %_10 = alloca i8, align 1
  %_9 = alloca i8, align 1
  %_5 = alloca { ptr, ptr }, align 8
  %_4 = alloca i8, align 1
  %_0 = alloca i64, align 8
  %v2 = alloca i64, align 8
  %v1 = alloca i64, align 8
  store i64 %0, ptr %v1, align 8
  store i64 %1, ptr %v2, align 8
  store i8 1, ptr %_10, align 1
  store i8 1, ptr %_9, align 1
  store ptr %v1, ptr %_5, align 8
  %3 = getelementptr inbounds i8, ptr %_5, i64 8
  store ptr %v2, ptr %3, align 8
  %4 = load ptr, ptr %_5, align 8, !nonnull !4, !align !5, !noundef !4
  %5 = getelementptr inbounds i8, ptr %_5, i64 8
  %6 = load ptr, ptr %5, align 8, !nonnull !4, !align !5, !noundef !4
; invoke core::ops::function::FnOnce::call_once
  %7 = invoke i8 @_ZN4core3ops8function6FnOnce9call_once17hdde6d32ea060dfdaE(ptr align 8 %4, ptr align 8 %6)
          to label %bb1 unwind label %cleanup, !range !15

bb7:                                              ; preds = %cleanup
  br label %bb12

cleanup:                                          ; preds = %start
  %8 = landingpad { ptr, i32 }
          cleanup
  %9 = extractvalue { ptr, i32 } %8, 0
  %10 = extractvalue { ptr, i32 } %8, 1
  store ptr %9, ptr %2, align 8
  %11 = getelementptr inbounds i8, ptr %2, i64 8
  store i32 %10, ptr %11, align 8
  br label %bb7

bb1:                                              ; preds = %start
  store i8 %7, ptr %_4, align 1
  %_8 = load i8, ptr %_4, align 1, !range !15, !noundef !4
  switch i8 %_8, label %bb13 [
    i8 -1, label %bb3
    i8 0, label %bb3
    i8 1, label %bb2
  ]

bb13:                                             ; preds = %bb1
  unreachable

bb3:                                              ; preds = %bb1, %bb1
  store i8 0, ptr %_9, align 1
  %12 = load i64, ptr %v2, align 8, !noundef !4
  store i64 %12, ptr %_0, align 8
  br label %bb4

bb2:                                              ; preds = %bb1
  store i8 0, ptr %_10, align 1
  %13 = load i64, ptr %v1, align 8, !noundef !4
  store i64 %13, ptr %_0, align 8
  br label %bb4

bb4:                                              ; preds = %bb2, %bb3
  %14 = load i8, ptr %_9, align 1, !range !10, !noundef !4
  %15 = trunc i8 %14 to i1
  br i1 %15, label %bb9, label %bb5

bb5:                                              ; preds = %bb9, %bb4
  %16 = load i8, ptr %_10, align 1, !range !10, !noundef !4
  %17 = trunc i8 %16 to i1
  br i1 %17, label %bb10, label %bb6

bb9:                                              ; preds = %bb4
  br label %bb5

bb6:                                              ; preds = %bb10, %bb5
  %18 = load i64, ptr %_0, align 8, !noundef !4
  ret i64 %18

bb10:                                             ; preds = %bb5
  br label %bb6

bb12:                                             ; preds = %bb7
  %19 = load i8, ptr %_10, align 1, !range !10, !noundef !4
  %20 = trunc i8 %19 to i1
  br i1 %20, label %bb11, label %bb8

bb8:                                              ; preds = %bb11, %bb12
  %21 = load ptr, ptr %2, align 8, !noundef !4
  %22 = getelementptr inbounds i8, ptr %2, i64 8
  %23 = load i32, ptr %22, align 8, !noundef !4
  %24 = insertvalue { ptr, i32 } poison, ptr %21, 0
  %25 = insertvalue { ptr, i32 } %24, i32 %23, 1
  resume { ptr, i32 } %25

bb11:                                             ; preds = %bb12
  br label %bb8
}

; core::cmp::PartialEq::ne
; Function Attrs: inlinehint nonlazybind uwtable
define internal zeroext i1 @_ZN4core3cmp9PartialEq2ne17he72fc8ba13aa18c0E(ptr align 8 %self, ptr align 8 %other) unnamed_addr #0 {
start:
; call <core::option::Option<T> as core::cmp::PartialEq>::eq
  %_3 = call zeroext i1 @"_ZN70_$LT$core..option..Option$LT$T$GT$$u20$as$u20$core..cmp..PartialEq$GT$2eq17h41618cf4b5ba8abdE"(ptr align 8 %self, ptr align 8 %other)
  %_0 = xor i1 %_3, true
  ret i1 %_0
}

; core::fmt::Arguments::new_v1
; Function Attrs: inlinehint nonlazybind uwtable
define internal void @_ZN4core3fmt9Arguments6new_v117h90170bb60675d7d4E(ptr sret(%"core::fmt::Arguments<'_>") align 8 %_0, ptr align 8 %pieces.0, i64 %pieces.1, ptr align 8 %args.0, i64 %args.1) unnamed_addr #0 {
start:
  %_14 = alloca %"core::fmt::Arguments<'_>", align 8
  %_9 = alloca %"core::fmt::Arguments<'_>", align 8
  %_3 = icmp ult i64 %pieces.1, %args.1
  br i1 %_3, label %bb2, label %bb1

bb1:                                              ; preds = %start
  %_7 = add i64 %args.1, 1
  %_6 = icmp ugt i64 %pieces.1, %_7
  br i1 %_6, label %bb2, label %bb3

bb2:                                              ; preds = %bb1, %start
  br i1 false, label %bb4, label %bb6

bb3:                                              ; preds = %bb1
  store ptr %pieces.0, ptr %_0, align 8
  %0 = getelementptr inbounds i8, ptr %_0, i64 8
  store i64 %pieces.1, ptr %0, align 8
  %1 = load ptr, ptr @1, align 8, !align !5, !noundef !4
  %2 = load i64, ptr getelementptr inbounds (i8, ptr @1, i64 8), align 8
  %3 = getelementptr inbounds %"core::fmt::Arguments<'_>", ptr %_0, i32 0, i32 2
  store ptr %1, ptr %3, align 8
  %4 = getelementptr inbounds i8, ptr %3, i64 8
  store i64 %2, ptr %4, align 8
  %5 = getelementptr inbounds %"core::fmt::Arguments<'_>", ptr %_0, i32 0, i32 1
  store ptr %args.0, ptr %5, align 8
  %6 = getelementptr inbounds i8, ptr %5, i64 8
  store i64 %args.1, ptr %6, align 8
  ret void

bb6:                                              ; preds = %bb2
  store ptr @alloc_af99043bc04c419363a7f04d23183506, ptr %_9, align 8
  %7 = getelementptr inbounds i8, ptr %_9, i64 8
  store i64 1, ptr %7, align 8
  %8 = load ptr, ptr @1, align 8, !align !5, !noundef !4
  %9 = load i64, ptr getelementptr inbounds (i8, ptr @1, i64 8), align 8
  %10 = getelementptr inbounds %"core::fmt::Arguments<'_>", ptr %_9, i32 0, i32 2
  store ptr %8, ptr %10, align 8
  %11 = getelementptr inbounds i8, ptr %10, i64 8
  store i64 %9, ptr %11, align 8
  %12 = getelementptr inbounds %"core::fmt::Arguments<'_>", ptr %_9, i32 0, i32 1
  store ptr @alloc_513570631223a12912d85da2bec3b15a, ptr %12, align 8
  %13 = getelementptr inbounds i8, ptr %12, i64 8
  store i64 0, ptr %13, align 8
; call core::panicking::panic_fmt
  call void @_ZN4core9panicking9panic_fmt17h0d3f1893e38be419E(ptr align 8 %_9, ptr align 8 @alloc_b96933a8148f906cfb135db9ebeba42b) #22
  unreachable

bb4:                                              ; preds = %bb2
; call core::fmt::Arguments::new_const
  call void @_ZN4core3fmt9Arguments9new_const17hf07db5f70956897eE(ptr sret(%"core::fmt::Arguments<'_>") align 8 %_14, ptr align 8 @alloc_af99043bc04c419363a7f04d23183506, i64 1)
; call core::panicking::panic_fmt
  call void @_ZN4core9panicking9panic_fmt17h0d3f1893e38be419E(ptr align 8 %_14, ptr align 8 @alloc_b1c9b46fd6543b9e0f93a51d745efa2a) #22
  unreachable
}

; core::fmt::Arguments::new_const
; Function Attrs: inlinehint nonlazybind uwtable
define internal void @_ZN4core3fmt9Arguments9new_const17hf07db5f70956897eE(ptr sret(%"core::fmt::Arguments<'_>") align 8 %_0, ptr align 8 %pieces.0, i64 %pieces.1) unnamed_addr #0 {
start:
  %_5 = alloca %"core::fmt::Arguments<'_>", align 8
  %_2 = icmp ugt i64 %pieces.1, 1
  br i1 %_2, label %bb1, label %bb3

bb3:                                              ; preds = %start
  store ptr %pieces.0, ptr %_0, align 8
  %0 = getelementptr inbounds i8, ptr %_0, i64 8
  store i64 %pieces.1, ptr %0, align 8
  %1 = load ptr, ptr @1, align 8, !align !5, !noundef !4
  %2 = load i64, ptr getelementptr inbounds (i8, ptr @1, i64 8), align 8
  %3 = getelementptr inbounds %"core::fmt::Arguments<'_>", ptr %_0, i32 0, i32 2
  store ptr %1, ptr %3, align 8
  %4 = getelementptr inbounds i8, ptr %3, i64 8
  store i64 %2, ptr %4, align 8
  %5 = getelementptr inbounds %"core::fmt::Arguments<'_>", ptr %_0, i32 0, i32 1
  store ptr @alloc_513570631223a12912d85da2bec3b15a, ptr %5, align 8
  %6 = getelementptr inbounds i8, ptr %5, i64 8
  store i64 0, ptr %6, align 8
  ret void

bb1:                                              ; preds = %start
; call core::fmt::Arguments::new_const
  call void @_ZN4core3fmt9Arguments9new_const17hf07db5f70956897eE(ptr sret(%"core::fmt::Arguments<'_>") align 8 %_5, ptr align 8 @alloc_af99043bc04c419363a7f04d23183506, i64 1)
; call core::panicking::panic_fmt
  call void @_ZN4core9panicking9panic_fmt17h0d3f1893e38be419E(ptr align 8 %_5, ptr align 8 @alloc_b1c9b46fd6543b9e0f93a51d745efa2a) #22
  unreachable
}

; core::num::<impl usize>::checked_add
; Function Attrs: inlinehint nonlazybind uwtable
define internal { i64, i64 } @"_ZN4core3num23_$LT$impl$u20$usize$GT$11checked_add17h2771794b47254612E"(i64 %self, i64 %rhs) unnamed_addr #0 {
start:
  %0 = alloca i8, align 1
  %_0 = alloca %"core::option::Option<usize>", align 8
  %1 = call { i64, i1 } @llvm.uadd.with.overflow.i64(i64 %self, i64 %rhs)
  %_6.0 = extractvalue { i64, i1 } %1, 0
  %_6.1 = extractvalue { i64, i1 } %1, 1
  %2 = call i1 @llvm.expect.i1(i1 %_6.1, i1 false)
  %3 = zext i1 %2 to i8
  store i8 %3, ptr %0, align 1
  %4 = load i8, ptr %0, align 1, !range !10, !noundef !4
  %_3 = trunc i8 %4 to i1
  br i1 %_3, label %bb2, label %bb3

bb3:                                              ; preds = %start
  %5 = getelementptr inbounds i8, ptr %_0, i64 8
  store i64 %_6.0, ptr %5, align 8
  store i64 1, ptr %_0, align 8
  br label %bb4

bb2:                                              ; preds = %start
  %6 = load i64, ptr @1, align 8, !range !16, !noundef !4
  %7 = load i64, ptr getelementptr inbounds (i8, ptr @1, i64 8), align 8
  store i64 %6, ptr %_0, align 8
  %8 = getelementptr inbounds i8, ptr %_0, i64 8
  store i64 %7, ptr %8, align 8
  br label %bb4

bb4:                                              ; preds = %bb2, %bb3
  %9 = load i64, ptr %_0, align 8, !range !16, !noundef !4
  %10 = getelementptr inbounds i8, ptr %_0, i64 8
  %11 = load i64, ptr %10, align 8
  %12 = insertvalue { i64, i64 } poison, i64 %9, 0
  %13 = insertvalue { i64, i64 } %12, i64 %11, 1
  ret { i64, i64 } %13
}

; core::ops::function::FnMut::call_mut
; Function Attrs: inlinehint nonlazybind uwtable
define internal { i64, i64 } @_ZN4core3ops8function5FnMut8call_mut17h7fbc0530e39a1ad1E(ptr align 1 %_1, i64 %0, i64 %1) unnamed_addr #0 {
start:
  %_2 = alloca { i64, i64 }, align 8
  store i64 %0, ptr %_2, align 8
  %2 = getelementptr inbounds i8, ptr %_2, i64 8
  store i64 %1, ptr %2, align 8
  %3 = load i64, ptr %_2, align 8, !noundef !4
  %4 = getelementptr inbounds i8, ptr %_2, i64 8
  %5 = load i64, ptr %4, align 8, !noundef !4
; call core::num::<impl usize>::checked_add
  %6 = call { i64, i64 } @"_ZN4core3num23_$LT$impl$u20$usize$GT$11checked_add17h2771794b47254612E"(i64 %3, i64 %5)
  %_0.0 = extractvalue { i64, i64 } %6, 0
  %_0.1 = extractvalue { i64, i64 } %6, 1
  %7 = insertvalue { i64, i64 } poison, i64 %_0.0, 0
  %8 = insertvalue { i64, i64 } %7, i64 %_0.1, 1
  ret { i64, i64 } %8
}

; core::ops::function::impls::<impl core::ops::function::FnOnce<A> for &mut F>::call_once
; Function Attrs: nonlazybind uwtable
define internal { ptr, i64 } @"_ZN4core3ops8function5impls80_$LT$impl$u20$core..ops..function..FnOnce$LT$A$GT$$u20$for$u20$$RF$mut$u20$F$GT$9call_once17h1b994c775c61d47fE"(ptr align 1 %self, ptr align 8 %0) unnamed_addr #1 {
start:
  %args = alloca ptr, align 8
  store ptr %0, ptr %args, align 8
  %1 = load ptr, ptr %args, align 8, !nonnull !4, !align !5, !noundef !4
; call alloc::str::join_generic_copy::{{closure}}
  %2 = call { ptr, i64 } @"_ZN5alloc3str17join_generic_copy28_$u7b$$u7b$closure$u7d$$u7d$17h0a74442969c18bc0E"(ptr align 1 %self, ptr align 8 %1)
  %_0.0 = extractvalue { ptr, i64 } %2, 0
  %_0.1 = extractvalue { ptr, i64 } %2, 1
  %3 = insertvalue { ptr, i64 } poison, ptr %_0.0, 0
  %4 = insertvalue { ptr, i64 } %3, i64 %_0.1, 1
  ret { ptr, i64 } %4
}

; core::ops::function::FnOnce::call_once{{vtable.shim}}
; Function Attrs: inlinehint nonlazybind uwtable
define internal i32 @"_ZN4core3ops8function6FnOnce40call_once$u7b$$u7b$vtable.shim$u7d$$u7d$17hdc9a2db86fb3ab5dE"(ptr %_1) unnamed_addr #0 {
start:
  %_2 = alloca {}, align 1
  %0 = load ptr, ptr %_1, align 8, !nonnull !4, !noundef !4
; call core::ops::function::FnOnce::call_once
  %_0 = call i32 @_ZN4core3ops8function6FnOnce9call_once17h5094cc3e3e58cd52E(ptr %0)
  ret i32 %_0
}

; core::ops::function::FnOnce::call_once
; Function Attrs: inlinehint nonlazybind uwtable
define internal i32 @_ZN4core3ops8function6FnOnce9call_once17h5094cc3e3e58cd52E(ptr %0) unnamed_addr #0 personality ptr @rust_eh_personality {
start:
  %1 = alloca { ptr, i32, [1 x i32] }, align 8
  %_2 = alloca {}, align 1
  %_1 = alloca ptr, align 8
  store ptr %0, ptr %_1, align 8
; invoke std::rt::lang_start::{{closure}}
  %_0 = invoke i32 @"_ZN3std2rt10lang_start28_$u7b$$u7b$closure$u7d$$u7d$17h0ebffd6a21155742E"(ptr align 8 %_1)
          to label %bb1 unwind label %cleanup

bb3:                                              ; preds = %cleanup
  %2 = load ptr, ptr %1, align 8, !noundef !4
  %3 = getelementptr inbounds i8, ptr %1, i64 8
  %4 = load i32, ptr %3, align 8, !noundef !4
  %5 = insertvalue { ptr, i32 } poison, ptr %2, 0
  %6 = insertvalue { ptr, i32 } %5, i32 %4, 1
  resume { ptr, i32 } %6

cleanup:                                          ; preds = %start
  %7 = landingpad { ptr, i32 }
          cleanup
  %8 = extractvalue { ptr, i32 } %7, 0
  %9 = extractvalue { ptr, i32 } %7, 1
  store ptr %8, ptr %1, align 8
  %10 = getelementptr inbounds i8, ptr %1, i64 8
  store i32 %9, ptr %10, align 8
  br label %bb3

bb1:                                              ; preds = %start
  ret i32 %_0
}

; core::ops::function::FnOnce::call_once
; Function Attrs: inlinehint nonlazybind uwtable
define internal void @_ZN4core3ops8function6FnOnce9call_once17h8d766620b5e2180cE(ptr %_1) unnamed_addr #0 {
start:
  %_2 = alloca {}, align 1
  call void %_1()
  ret void
}

; core::ops::function::FnOnce::call_once
; Function Attrs: inlinehint nonlazybind uwtable
define internal i8 @_ZN4core3ops8function6FnOnce9call_once17hdde6d32ea060dfdaE(ptr align 8 %0, ptr align 8 %1) unnamed_addr #0 {
start:
  %_2 = alloca { ptr, ptr }, align 8
  store ptr %0, ptr %_2, align 8
  %2 = getelementptr inbounds i8, ptr %_2, i64 8
  store ptr %1, ptr %2, align 8
  %3 = load ptr, ptr %_2, align 8, !nonnull !4, !align !5, !noundef !4
  %4 = getelementptr inbounds i8, ptr %_2, i64 8
  %5 = load ptr, ptr %4, align 8, !nonnull !4, !align !5, !noundef !4
; call core::cmp::impls::<impl core::cmp::Ord for usize>::cmp
  %_0 = call i8 @"_ZN4core3cmp5impls50_$LT$impl$u20$core..cmp..Ord$u20$for$u20$usize$GT$3cmp17h6d81c72ed3352698E"(ptr align 8 %3, ptr align 8 %5), !range !15
  ret i8 %_0
}

; core::ptr::drop_in_place<core::option::Option<std::sys::pal::unix::process::process_common::Stdio>>
; Function Attrs: nonlazybind uwtable
define internal void @"_ZN4core3ptr100drop_in_place$LT$core..option..Option$LT$std..sys..pal..unix..process..process_common..Stdio$GT$$GT$17h965032b934483176E"(ptr align 4 %_1) unnamed_addr #1 {
start:
  %0 = load i32, ptr %_1, align 4, !range !17, !noundef !4
  %1 = icmp eq i32 %0, 5
  %_2 = select i1 %1, i64 0, i64 1
  %2 = icmp eq i64 %_2, 0
  br i1 %2, label %bb1, label %bb2

bb1:                                              ; preds = %bb2, %start
  ret void

bb2:                                              ; preds = %start
; call core::ptr::drop_in_place<std::sys::pal::unix::process::process_common::Stdio>
  call void @"_ZN4core3ptr72drop_in_place$LT$std..sys..pal..unix..process..process_common..Stdio$GT$17h880c950d04610757E"(ptr align 4 %_1)
  br label %bb1
}

; core::ptr::drop_in_place<core::result::Result<alloc::string::String,alloc::string::FromUtf8Error>>
; Function Attrs: nonlazybind uwtable
define internal void @"_ZN4core3ptr101drop_in_place$LT$core..result..Result$LT$alloc..string..String$C$alloc..string..FromUtf8Error$GT$$GT$17hf296f0e6220ae828E"(ptr align 8 %_1) unnamed_addr #1 {
start:
  %0 = load i64, ptr %_1, align 8, !range !18, !noundef !4
  %1 = icmp eq i64 %0, -9223372036854775808
  %_2 = select i1 %1, i64 0, i64 1
  %2 = icmp eq i64 %_2, 0
  br i1 %2, label %bb2, label %bb3

bb2:                                              ; preds = %start
  %3 = getelementptr inbounds %"core::result::Result<alloc::string::String, alloc::string::FromUtf8Error>::Ok", ptr %_1, i32 0, i32 1
; call core::ptr::drop_in_place<alloc::string::String>
  call void @"_ZN4core3ptr42drop_in_place$LT$alloc..string..String$GT$17h1765999f31f08926E"(ptr align 8 %3)
  br label %bb1

bb3:                                              ; preds = %start
; call core::ptr::drop_in_place<alloc::string::FromUtf8Error>
  call void @"_ZN4core3ptr49drop_in_place$LT$alloc..string..FromUtf8Error$GT$17h71dbdba6c8674fe1E"(ptr align 8 %_1)
  br label %bb1

bb1:                                              ; preds = %bb3, %bb2
  ret void
}

; core::ptr::drop_in_place<std::io::error::ErrorData<alloc::boxed::Box<std::io::error::Custom>>>
; Function Attrs: nonlazybind uwtable
define internal void @"_ZN4core3ptr101drop_in_place$LT$std..io..error..ErrorData$LT$alloc..boxed..Box$LT$std..io..error..Custom$GT$$GT$$GT$17h7558231e9039c7adE"(ptr align 8 %_1) unnamed_addr #1 {
start:
  %0 = load i8, ptr %_1, align 8, !range !19, !noundef !4
  %_2 = zext i8 %0 to i64
  switch i64 %_2, label %bb2 [
    i64 0, label %bb1
    i64 1, label %bb1
    i64 2, label %bb1
  ]

bb2:                                              ; preds = %start
  %1 = getelementptr inbounds %"std::io::error::ErrorData<alloc::boxed::Box<std::io::error::Custom>>::Custom", ptr %_1, i32 0, i32 1
; call core::ptr::drop_in_place<alloc::boxed::Box<std::io::error::Custom>>
  call void @"_ZN4core3ptr68drop_in_place$LT$alloc..boxed..Box$LT$std..io..error..Custom$GT$$GT$17h82b7847961f29c7aE"(ptr align 8 %1)
  br label %bb1

bb1:                                              ; preds = %bb2, %start, %start, %start
  ret void
}

; core::ptr::drop_in_place<alloc::boxed::Box<dyn core::error::Error+core::marker::Send+core::marker::Sync>>
; Function Attrs: nonlazybind uwtable
define internal void @"_ZN4core3ptr118drop_in_place$LT$alloc..boxed..Box$LT$dyn$u20$core..error..Error$u2b$core..marker..Send$u2b$core..marker..Sync$GT$$GT$17hb69bc73cedda9505E"(ptr align 8 %_1) unnamed_addr #1 personality ptr @rust_eh_personality {
start:
  %0 = alloca { ptr, i32, [1 x i32] }, align 8
  %_6.0 = load ptr, ptr %_1, align 8, !noundef !4
  %1 = getelementptr inbounds i8, ptr %_1, i64 8
  %_6.1 = load ptr, ptr %1, align 8, !nonnull !4, !align !5, !noundef !4
  %2 = getelementptr inbounds ptr, ptr %_6.1, i64 0
  %3 = load ptr, ptr %2, align 8, !invariant.load !4, !nonnull !4
  invoke void %3(ptr align 1 %_6.0)
          to label %bb3 unwind label %cleanup

bb4:                                              ; preds = %cleanup
; invoke <alloc::boxed::Box<T,A> as core::ops::drop::Drop>::drop
  invoke void @"_ZN72_$LT$alloc..boxed..Box$LT$T$C$A$GT$$u20$as$u20$core..ops..drop..Drop$GT$4drop17h0560aeaa28684113E"(ptr align 8 %_1) #23
          to label %bb1 unwind label %terminate

cleanup:                                          ; preds = %start
  %4 = landingpad { ptr, i32 }
          cleanup
  %5 = extractvalue { ptr, i32 } %4, 0
  %6 = extractvalue { ptr, i32 } %4, 1
  store ptr %5, ptr %0, align 8
  %7 = getelementptr inbounds i8, ptr %0, i64 8
  store i32 %6, ptr %7, align 8
  br label %bb4

bb3:                                              ; preds = %start
; call <alloc::boxed::Box<T,A> as core::ops::drop::Drop>::drop
  call void @"_ZN72_$LT$alloc..boxed..Box$LT$T$C$A$GT$$u20$as$u20$core..ops..drop..Drop$GT$4drop17h0560aeaa28684113E"(ptr align 8 %_1)
  ret void

terminate:                                        ; preds = %bb4
  %8 = landingpad { ptr, i32 }
          filter [0 x ptr] zeroinitializer
  %9 = extractvalue { ptr, i32 } %8, 0
  %10 = extractvalue { ptr, i32 } %8, 1
; call core::panicking::panic_in_cleanup
  call void @_ZN4core9panicking16panic_in_cleanup17h803841cec7522372E() #8
  unreachable

bb1:                                              ; preds = %bb4
  %11 = load ptr, ptr %0, align 8, !noundef !4
  %12 = getelementptr inbounds i8, ptr %0, i64 8
  %13 = load i32, ptr %12, align 8, !noundef !4
  %14 = insertvalue { ptr, i32 } poison, ptr %11, 0
  %15 = insertvalue { ptr, i32 } %14, i32 %13, 1
  resume { ptr, i32 } %15
}

; core::ptr::drop_in_place<alloc::collections::btree::map::BTreeMap<std::ffi::os_str::OsString,core::option::Option<std::ffi::os_str::OsString>>>
; Function Attrs: nonlazybind uwtable
define internal void @"_ZN4core3ptr152drop_in_place$LT$alloc..collections..btree..map..BTreeMap$LT$std..ffi..os_str..OsString$C$core..option..Option$LT$std..ffi..os_str..OsString$GT$$GT$$GT$17h386f0a14ecaf91d3E"(ptr align 8 %_1) unnamed_addr #1 {
start:
; call <alloc::collections::btree::map::BTreeMap<K,V,A> as core::ops::drop::Drop>::drop
  call void @"_ZN99_$LT$alloc..collections..btree..map..BTreeMap$LT$K$C$V$C$A$GT$$u20$as$u20$core..ops..drop..Drop$GT$4drop17h6e1d79a76cd76be9E"(ptr align 8 %_1)
  ret void
}

; core::ptr::drop_in_place<alloc::collections::btree::map::IntoIter<std::ffi::os_str::OsString,core::option::Option<std::ffi::os_str::OsString>>>
; Function Attrs: nonlazybind uwtable
define internal void @"_ZN4core3ptr152drop_in_place$LT$alloc..collections..btree..map..IntoIter$LT$std..ffi..os_str..OsString$C$core..option..Option$LT$std..ffi..os_str..OsString$GT$$GT$$GT$17h3a34e4dc2821b378E"(ptr align 8 %_1) unnamed_addr #1 {
start:
; call <alloc::collections::btree::map::IntoIter<K,V,A> as core::ops::drop::Drop>::drop
  call void @"_ZN99_$LT$alloc..collections..btree..map..IntoIter$LT$K$C$V$C$A$GT$$u20$as$u20$core..ops..drop..Drop$GT$4drop17hb514921606b840c7E"(ptr align 8 %_1)
  ret void
}

; core::ptr::drop_in_place<dyn core::ops::function::FnMut<()>+Output = core::result::Result<(),std::io::error::Error>+core::marker::Send+core::marker::Sync>
; Function Attrs: nonlazybind uwtable
define internal void @"_ZN4core3ptr203drop_in_place$LT$dyn$u20$core..ops..function..FnMut$LT$$LP$$RP$$GT$$u2b$Output$u20$$u3d$$u20$core..result..Result$LT$$LP$$RP$$C$std..io..error..Error$GT$$u2b$core..marker..Send$u2b$core..marker..Sync$GT$17h23111be97e60fb3dE"(ptr align 1 %_1.0, ptr align 8 %_1.1) unnamed_addr #1 {
start:
  %0 = getelementptr inbounds ptr, ptr %_1.1, i64 0
  %1 = load ptr, ptr %0, align 8, !invariant.load !4, !nonnull !4
  call void %1(ptr align 1 %_1.0)
  ret void
}

; core::ptr::drop_in_place<alloc::boxed::Box<dyn core::ops::function::FnMut<()>+Output = core::result::Result<(),std::io::error::Error>+core::marker::Send+core::marker::Sync>>
; Function Attrs: nonlazybind uwtable
define internal void @"_ZN4core3ptr228drop_in_place$LT$alloc..boxed..Box$LT$dyn$u20$core..ops..function..FnMut$LT$$LP$$RP$$GT$$u2b$Output$u20$$u3d$$u20$core..result..Result$LT$$LP$$RP$$C$std..io..error..Error$GT$$u2b$core..marker..Send$u2b$core..marker..Sync$GT$$GT$17ha9f8335972888fe7E"(ptr align 8 %_1) unnamed_addr #1 personality ptr @rust_eh_personality {
start:
  %0 = alloca { ptr, i32, [1 x i32] }, align 8
  %_6.0 = load ptr, ptr %_1, align 8, !noundef !4
  %1 = getelementptr inbounds i8, ptr %_1, i64 8
  %_6.1 = load ptr, ptr %1, align 8, !nonnull !4, !align !5, !noundef !4
  %2 = getelementptr inbounds ptr, ptr %_6.1, i64 0
  %3 = load ptr, ptr %2, align 8, !invariant.load !4, !nonnull !4
  invoke void %3(ptr align 1 %_6.0)
          to label %bb3 unwind label %cleanup

bb4:                                              ; preds = %cleanup
; invoke <alloc::boxed::Box<T,A> as core::ops::drop::Drop>::drop
  invoke void @"_ZN72_$LT$alloc..boxed..Box$LT$T$C$A$GT$$u20$as$u20$core..ops..drop..Drop$GT$4drop17hf55e6fb56999402aE"(ptr align 8 %_1) #23
          to label %bb1 unwind label %terminate

cleanup:                                          ; preds = %start
  %4 = landingpad { ptr, i32 }
          cleanup
  %5 = extractvalue { ptr, i32 } %4, 0
  %6 = extractvalue { ptr, i32 } %4, 1
  store ptr %5, ptr %0, align 8
  %7 = getelementptr inbounds i8, ptr %0, i64 8
  store i32 %6, ptr %7, align 8
  br label %bb4

bb3:                                              ; preds = %start
; call <alloc::boxed::Box<T,A> as core::ops::drop::Drop>::drop
  call void @"_ZN72_$LT$alloc..boxed..Box$LT$T$C$A$GT$$u20$as$u20$core..ops..drop..Drop$GT$4drop17hf55e6fb56999402aE"(ptr align 8 %_1)
  ret void

terminate:                                        ; preds = %bb4
  %8 = landingpad { ptr, i32 }
          filter [0 x ptr] zeroinitializer
  %9 = extractvalue { ptr, i32 } %8, 0
  %10 = extractvalue { ptr, i32 } %8, 1
; call core::panicking::panic_in_cleanup
  call void @_ZN4core9panicking16panic_in_cleanup17h803841cec7522372E() #8
  unreachable

bb1:                                              ; preds = %bb4
  %11 = load ptr, ptr %0, align 8, !noundef !4
  %12 = getelementptr inbounds i8, ptr %0, i64 8
  %13 = load i32, ptr %12, align 8, !noundef !4
  %14 = insertvalue { ptr, i32 } poison, ptr %11, 0
  %15 = insertvalue { ptr, i32 } %14, i32 %13, 1
  resume { ptr, i32 } %15
}

; core::ptr::drop_in_place<[alloc::boxed::Box<dyn core::ops::function::FnMut<()>+Output = core::result::Result<(),std::io::error::Error>+core::marker::Send+core::marker::Sync>]>
; Function Attrs: nonlazybind uwtable
define internal void @"_ZN4core3ptr238drop_in_place$LT$$u5b$alloc..boxed..Box$LT$dyn$u20$core..ops..function..FnMut$LT$$LP$$RP$$GT$$u2b$Output$u20$$u3d$$u20$core..result..Result$LT$$LP$$RP$$C$std..io..error..Error$GT$$u2b$core..marker..Send$u2b$core..marker..Sync$GT$$u5d$$GT$17hfbb2ecc51ef886e8E"(ptr align 8 %_1.0, i64 %_1.1) unnamed_addr #1 personality ptr @rust_eh_personality {
start:
  %0 = alloca { ptr, i32, [1 x i32] }, align 8
  %_3 = alloca i64, align 8
  store i64 0, ptr %_3, align 8
  br label %bb6

bb6:                                              ; preds = %bb5, %start
  %1 = load i64, ptr %_3, align 8, !noundef !4
  %_7 = icmp eq i64 %1, %_1.1
  br i1 %_7, label %bb1, label %bb5

bb5:                                              ; preds = %bb6
  %2 = load i64, ptr %_3, align 8, !noundef !4
  %_6 = getelementptr inbounds [0 x %"alloc::boxed::Box<dyn core::ops::function::FnMut() -> core::result::Result<(), std::io::error::Error> + core::marker::Send + core::marker::Sync>"], ptr %_1.0, i64 0, i64 %2
  %3 = load i64, ptr %_3, align 8, !noundef !4
  %4 = add i64 %3, 1
  store i64 %4, ptr %_3, align 8
; invoke core::ptr::drop_in_place<alloc::boxed::Box<dyn core::ops::function::FnMut<()>+Output = core::result::Result<(),std::io::error::Error>+core::marker::Send+core::marker::Sync>>
  invoke void @"_ZN4core3ptr228drop_in_place$LT$alloc..boxed..Box$LT$dyn$u20$core..ops..function..FnMut$LT$$LP$$RP$$GT$$u2b$Output$u20$$u3d$$u20$core..result..Result$LT$$LP$$RP$$C$std..io..error..Error$GT$$u2b$core..marker..Send$u2b$core..marker..Sync$GT$$GT$17ha9f8335972888fe7E"(ptr align 8 %_6)
          to label %bb6 unwind label %cleanup

bb1:                                              ; preds = %bb6
  ret void

bb4:                                              ; preds = %bb3, %cleanup
  %5 = load i64, ptr %_3, align 8, !noundef !4
  %_5 = icmp eq i64 %5, %_1.1
  br i1 %_5, label %bb2, label %bb3

cleanup:                                          ; preds = %bb5
  %6 = landingpad { ptr, i32 }
          cleanup
  %7 = extractvalue { ptr, i32 } %6, 0
  %8 = extractvalue { ptr, i32 } %6, 1
  store ptr %7, ptr %0, align 8
  %9 = getelementptr inbounds i8, ptr %0, i64 8
  store i32 %8, ptr %9, align 8
  br label %bb4

bb3:                                              ; preds = %bb4
  %10 = load i64, ptr %_3, align 8, !noundef !4
  %_4 = getelementptr inbounds [0 x %"alloc::boxed::Box<dyn core::ops::function::FnMut() -> core::result::Result<(), std::io::error::Error> + core::marker::Send + core::marker::Sync>"], ptr %_1.0, i64 0, i64 %10
  %11 = load i64, ptr %_3, align 8, !noundef !4
  %12 = add i64 %11, 1
  store i64 %12, ptr %_3, align 8
; invoke core::ptr::drop_in_place<alloc::boxed::Box<dyn core::ops::function::FnMut<()>+Output = core::result::Result<(),std::io::error::Error>+core::marker::Send+core::marker::Sync>>
  invoke void @"_ZN4core3ptr228drop_in_place$LT$alloc..boxed..Box$LT$dyn$u20$core..ops..function..FnMut$LT$$LP$$RP$$GT$$u2b$Output$u20$$u3d$$u20$core..result..Result$LT$$LP$$RP$$C$std..io..error..Error$GT$$u2b$core..marker..Send$u2b$core..marker..Sync$GT$$GT$17ha9f8335972888fe7E"(ptr align 8 %_4) #23
          to label %bb4 unwind label %terminate

bb2:                                              ; preds = %bb4
  %13 = load ptr, ptr %0, align 8, !noundef !4
  %14 = getelementptr inbounds i8, ptr %0, i64 8
  %15 = load i32, ptr %14, align 8, !noundef !4
  %16 = insertvalue { ptr, i32 } poison, ptr %13, 0
  %17 = insertvalue { ptr, i32 } %16, i32 %15, 1
  resume { ptr, i32 } %17

terminate:                                        ; preds = %bb3
  %18 = landingpad { ptr, i32 }
          filter [0 x ptr] zeroinitializer
  %19 = extractvalue { ptr, i32 } %18, 0
  %20 = extractvalue { ptr, i32 } %18, 1
; call core::panicking::panic_in_cleanup
  call void @_ZN4core9panicking16panic_in_cleanup17h803841cec7522372E() #8
  unreachable
}

; core::ptr::drop_in_place<<alloc::collections::btree::map::IntoIter<K,V,A> as core::ops::drop::Drop>::drop::DropGuard<std::ffi::os_str::OsString,core::option::Option<std::ffi::os_str::OsString>,alloc::alloc::Global>>
; Function Attrs: nonlazybind uwtable
define internal void @"_ZN4core3ptr250drop_in_place$LT$$LT$alloc..collections..btree..map..IntoIter$LT$K$C$V$C$A$GT$$u20$as$u20$core..ops..drop..Drop$GT$..drop..DropGuard$LT$std..ffi..os_str..OsString$C$core..option..Option$LT$std..ffi..os_str..OsString$GT$$C$alloc..alloc..Global$GT$$GT$17h9c8030bab1179ba0E"(ptr align 8 %_1) unnamed_addr #1 {
start:
; call <<alloc::collections::btree::map::IntoIter<K,V,A> as core::ops::drop::Drop>::drop::DropGuard<K,V,A> as core::ops::drop::Drop>::drop
  call void @"_ZN174_$LT$$LT$alloc..collections..btree..map..IntoIter$LT$K$C$V$C$A$GT$$u20$as$u20$core..ops..drop..Drop$GT$..drop..DropGuard$LT$K$C$V$C$A$GT$$u20$as$u20$core..ops..drop..Drop$GT$4drop17h0edfb6fe12bb0a24E"(ptr align 8 %_1)
  ret void
}

; core::ptr::drop_in_place<alloc::vec::Vec<alloc::boxed::Box<dyn core::ops::function::FnMut<()>+Output = core::result::Result<(),std::io::error::Error>+core::marker::Send+core::marker::Sync>>>
; Function Attrs: nonlazybind uwtable
define internal void @"_ZN4core3ptr251drop_in_place$LT$alloc..vec..Vec$LT$alloc..boxed..Box$LT$dyn$u20$core..ops..function..FnMut$LT$$LP$$RP$$GT$$u2b$Output$u20$$u3d$$u20$core..result..Result$LT$$LP$$RP$$C$std..io..error..Error$GT$$u2b$core..marker..Send$u2b$core..marker..Sync$GT$$GT$$GT$17h6f6ea1330bab3abdE"(ptr align 8 %_1) unnamed_addr #1 personality ptr @rust_eh_personality {
start:
  %0 = alloca { ptr, i32, [1 x i32] }, align 8
; invoke <alloc::vec::Vec<T,A> as core::ops::drop::Drop>::drop
  invoke void @"_ZN70_$LT$alloc..vec..Vec$LT$T$C$A$GT$$u20$as$u20$core..ops..drop..Drop$GT$4drop17he2a0ba7466e6da32E"(ptr align 8 %_1)
          to label %bb4 unwind label %cleanup

bb3:                                              ; preds = %cleanup
; invoke core::ptr::drop_in_place<alloc::raw_vec::RawVec<alloc::boxed::Box<dyn core::ops::function::FnMut<()>+Output = core::result::Result<(),std::io::error::Error>+core::marker::Send+core::marker::Sync>>>
  invoke void @"_ZN4core3ptr258drop_in_place$LT$alloc..raw_vec..RawVec$LT$alloc..boxed..Box$LT$dyn$u20$core..ops..function..FnMut$LT$$LP$$RP$$GT$$u2b$Output$u20$$u3d$$u20$core..result..Result$LT$$LP$$RP$$C$std..io..error..Error$GT$$u2b$core..marker..Send$u2b$core..marker..Sync$GT$$GT$$GT$17h5e2dcab2a535e887E"(ptr align 8 %_1) #23
          to label %bb1 unwind label %terminate

cleanup:                                          ; preds = %start
  %1 = landingpad { ptr, i32 }
          cleanup
  %2 = extractvalue { ptr, i32 } %1, 0
  %3 = extractvalue { ptr, i32 } %1, 1
  store ptr %2, ptr %0, align 8
  %4 = getelementptr inbounds i8, ptr %0, i64 8
  store i32 %3, ptr %4, align 8
  br label %bb3

bb4:                                              ; preds = %start
; call core::ptr::drop_in_place<alloc::raw_vec::RawVec<alloc::boxed::Box<dyn core::ops::function::FnMut<()>+Output = core::result::Result<(),std::io::error::Error>+core::marker::Send+core::marker::Sync>>>
  call void @"_ZN4core3ptr258drop_in_place$LT$alloc..raw_vec..RawVec$LT$alloc..boxed..Box$LT$dyn$u20$core..ops..function..FnMut$LT$$LP$$RP$$GT$$u2b$Output$u20$$u3d$$u20$core..result..Result$LT$$LP$$RP$$C$std..io..error..Error$GT$$u2b$core..marker..Send$u2b$core..marker..Sync$GT$$GT$$GT$17h5e2dcab2a535e887E"(ptr align 8 %_1)
  ret void

terminate:                                        ; preds = %bb3
  %5 = landingpad { ptr, i32 }
          filter [0 x ptr] zeroinitializer
  %6 = extractvalue { ptr, i32 } %5, 0
  %7 = extractvalue { ptr, i32 } %5, 1
; call core::panicking::panic_in_cleanup
  call void @_ZN4core9panicking16panic_in_cleanup17h803841cec7522372E() #8
  unreachable

bb1:                                              ; preds = %bb3
  %8 = load ptr, ptr %0, align 8, !noundef !4
  %9 = getelementptr inbounds i8, ptr %0, i64 8
  %10 = load i32, ptr %9, align 8, !noundef !4
  %11 = insertvalue { ptr, i32 } poison, ptr %8, 0
  %12 = insertvalue { ptr, i32 } %11, i32 %10, 1
  resume { ptr, i32 } %12
}

; core::ptr::drop_in_place<alloc::raw_vec::RawVec<alloc::boxed::Box<dyn core::ops::function::FnMut<()>+Output = core::result::Result<(),std::io::error::Error>+core::marker::Send+core::marker::Sync>>>
; Function Attrs: nonlazybind uwtable
define internal void @"_ZN4core3ptr258drop_in_place$LT$alloc..raw_vec..RawVec$LT$alloc..boxed..Box$LT$dyn$u20$core..ops..function..FnMut$LT$$LP$$RP$$GT$$u2b$Output$u20$$u3d$$u20$core..result..Result$LT$$LP$$RP$$C$std..io..error..Error$GT$$u2b$core..marker..Send$u2b$core..marker..Sync$GT$$GT$$GT$17h5e2dcab2a535e887E"(ptr align 8 %_1) unnamed_addr #1 {
start:
; call <alloc::raw_vec::RawVec<T,A> as core::ops::drop::Drop>::drop
  call void @"_ZN77_$LT$alloc..raw_vec..RawVec$LT$T$C$A$GT$$u20$as$u20$core..ops..drop..Drop$GT$4drop17h97955a3cc279cd2eE"(ptr align 8 %_1)
  ret void
}

; core::ptr::drop_in_place<&str>
; Function Attrs: inlinehint nonlazybind uwtable
define internal void @"_ZN4core3ptr28drop_in_place$LT$$RF$str$GT$17h746a495aa8946e85E"(ptr align 8 %_1) unnamed_addr #0 {
start:
  ret void
}

; core::ptr::drop_in_place<std::env::VarError>
; Function Attrs: nonlazybind uwtable
define internal void @"_ZN4core3ptr39drop_in_place$LT$std..env..VarError$GT$17h1f7d90049174fb76E"(ptr align 8 %_1) unnamed_addr #1 {
start:
  %0 = load i64, ptr %_1, align 8, !range !18, !noundef !4
  %1 = icmp eq i64 %0, -9223372036854775808
  %_2 = select i1 %1, i64 0, i64 1
  %2 = icmp eq i64 %_2, 0
  br i1 %2, label %bb1, label %bb2

bb1:                                              ; preds = %bb2, %start
  ret void

bb2:                                              ; preds = %start
; call core::ptr::drop_in_place<std::ffi::os_str::OsString>
  call void @"_ZN4core3ptr47drop_in_place$LT$std..ffi..os_str..OsString$GT$17h76100a6887cdd746E"(ptr align 8 %_1)
  br label %bb1
}

; core::ptr::drop_in_place<std::process::Output>
; Function Attrs: nonlazybind uwtable
define internal void @"_ZN4core3ptr41drop_in_place$LT$std..process..Output$GT$17h15afa3638960aa3bE"(ptr align 8 %_1) unnamed_addr #1 personality ptr @rust_eh_personality {
start:
  %0 = alloca { ptr, i32, [1 x i32] }, align 8
; invoke core::ptr::drop_in_place<alloc::vec::Vec<u8>>
  invoke void @"_ZN4core3ptr46drop_in_place$LT$alloc..vec..Vec$LT$u8$GT$$GT$17h759fa1127e2db027E"(ptr align 8 %_1)
          to label %bb4 unwind label %cleanup

bb3:                                              ; preds = %cleanup
  %1 = getelementptr inbounds %"std::process::Output", ptr %_1, i32 0, i32 1
; invoke core::ptr::drop_in_place<alloc::vec::Vec<u8>>
  invoke void @"_ZN4core3ptr46drop_in_place$LT$alloc..vec..Vec$LT$u8$GT$$GT$17h759fa1127e2db027E"(ptr align 8 %1) #23
          to label %bb1 unwind label %terminate

cleanup:                                          ; preds = %start
  %2 = landingpad { ptr, i32 }
          cleanup
  %3 = extractvalue { ptr, i32 } %2, 0
  %4 = extractvalue { ptr, i32 } %2, 1
  store ptr %3, ptr %0, align 8
  %5 = getelementptr inbounds i8, ptr %0, i64 8
  store i32 %4, ptr %5, align 8
  br label %bb3

bb4:                                              ; preds = %start
  %6 = getelementptr inbounds %"std::process::Output", ptr %_1, i32 0, i32 1
; call core::ptr::drop_in_place<alloc::vec::Vec<u8>>
  call void @"_ZN4core3ptr46drop_in_place$LT$alloc..vec..Vec$LT$u8$GT$$GT$17h759fa1127e2db027E"(ptr align 8 %6)
  ret void

terminate:                                        ; preds = %bb3
  %7 = landingpad { ptr, i32 }
          filter [0 x ptr] zeroinitializer
  %8 = extractvalue { ptr, i32 } %7, 0
  %9 = extractvalue { ptr, i32 } %7, 1
; call core::panicking::panic_in_cleanup
  call void @_ZN4core9panicking16panic_in_cleanup17h803841cec7522372E() #8
  unreachable

bb1:                                              ; preds = %bb3
  %10 = load ptr, ptr %0, align 8, !noundef !4
  %11 = getelementptr inbounds i8, ptr %0, i64 8
  %12 = load i32, ptr %11, align 8, !noundef !4
  %13 = insertvalue { ptr, i32 } poison, ptr %10, 0
  %14 = insertvalue { ptr, i32 } %13, i32 %12, 1
  resume { ptr, i32 } %14
}

; core::ptr::drop_in_place<alloc::string::String>
; Function Attrs: nonlazybind uwtable
define internal void @"_ZN4core3ptr42drop_in_place$LT$alloc..string..String$GT$17h1765999f31f08926E"(ptr align 8 %_1) unnamed_addr #1 {
start:
; call core::ptr::drop_in_place<alloc::vec::Vec<u8>>
  call void @"_ZN4core3ptr46drop_in_place$LT$alloc..vec..Vec$LT$u8$GT$$GT$17h759fa1127e2db027E"(ptr align 8 %_1)
  ret void
}

; core::ptr::drop_in_place<std::io::error::Error>
; Function Attrs: nonlazybind uwtable
define internal void @"_ZN4core3ptr42drop_in_place$LT$std..io..error..Error$GT$17h3aee9e107bfad82cE"(ptr align 8 %_1) unnamed_addr #1 {
start:
; call core::ptr::drop_in_place<std::io::error::repr_bitpacked::Repr>
  call void @"_ZN4core3ptr57drop_in_place$LT$std..io..error..repr_bitpacked..Repr$GT$17h37732cf677b2c6ffE"(ptr align 8 %_1)
  ret void
}

; core::ptr::drop_in_place<std::process::Command>
; Function Attrs: nonlazybind uwtable
define internal void @"_ZN4core3ptr42drop_in_place$LT$std..process..Command$GT$17h81b8b5b8201acf37E"(ptr align 8 %_1) unnamed_addr #1 {
start:
; call core::ptr::drop_in_place<std::sys::pal::unix::process::process_common::Command>
  call void @"_ZN4core3ptr74drop_in_place$LT$std..sys..pal..unix..process..process_common..Command$GT$17h961143e2befa1987E"(ptr align 8 %_1)
  ret void
}

; core::ptr::drop_in_place<std::io::error::Custom>
; Function Attrs: nonlazybind uwtable
define internal void @"_ZN4core3ptr43drop_in_place$LT$std..io..error..Custom$GT$17h3844c77a334c248aE"(ptr align 8 %_1) unnamed_addr #1 {
start:
; call core::ptr::drop_in_place<alloc::boxed::Box<dyn core::error::Error+core::marker::Send+core::marker::Sync>>
  call void @"_ZN4core3ptr118drop_in_place$LT$alloc..boxed..Box$LT$dyn$u20$core..error..Error$u2b$core..marker..Send$u2b$core..marker..Sync$GT$$GT$17hb69bc73cedda9505E"(ptr align 8 %_1)
  ret void
}

; core::ptr::drop_in_place<alloc::vec::Vec<u8>>
; Function Attrs: nonlazybind uwtable
define internal void @"_ZN4core3ptr46drop_in_place$LT$alloc..vec..Vec$LT$u8$GT$$GT$17h759fa1127e2db027E"(ptr align 8 %_1) unnamed_addr #1 personality ptr @rust_eh_personality {
start:
  %0 = alloca { ptr, i32, [1 x i32] }, align 8
; invoke <alloc::vec::Vec<T,A> as core::ops::drop::Drop>::drop
  invoke void @"_ZN70_$LT$alloc..vec..Vec$LT$T$C$A$GT$$u20$as$u20$core..ops..drop..Drop$GT$4drop17h00db49e17c2abf53E"(ptr align 8 %_1)
          to label %bb4 unwind label %cleanup

bb3:                                              ; preds = %cleanup
; invoke core::ptr::drop_in_place<alloc::raw_vec::RawVec<u8>>
  invoke void @"_ZN4core3ptr53drop_in_place$LT$alloc..raw_vec..RawVec$LT$u8$GT$$GT$17hd4ae95bcc14ee4bcE"(ptr align 8 %_1) #23
          to label %bb1 unwind label %terminate

cleanup:                                          ; preds = %start
  %1 = landingpad { ptr, i32 }
          cleanup
  %2 = extractvalue { ptr, i32 } %1, 0
  %3 = extractvalue { ptr, i32 } %1, 1
  store ptr %2, ptr %0, align 8
  %4 = getelementptr inbounds i8, ptr %0, i64 8
  store i32 %3, ptr %4, align 8
  br label %bb3

bb4:                                              ; preds = %start
; call core::ptr::drop_in_place<alloc::raw_vec::RawVec<u8>>
  call void @"_ZN4core3ptr53drop_in_place$LT$alloc..raw_vec..RawVec$LT$u8$GT$$GT$17hd4ae95bcc14ee4bcE"(ptr align 8 %_1)
  ret void

terminate:                                        ; preds = %bb3
  %5 = landingpad { ptr, i32 }
          filter [0 x ptr] zeroinitializer
  %6 = extractvalue { ptr, i32 } %5, 0
  %7 = extractvalue { ptr, i32 } %5, 1
; call core::panicking::panic_in_cleanup
  call void @_ZN4core9panicking16panic_in_cleanup17h803841cec7522372E() #8
  unreachable

bb1:                                              ; preds = %bb3
  %8 = load ptr, ptr %0, align 8, !noundef !4
  %9 = getelementptr inbounds i8, ptr %0, i64 8
  %10 = load i32, ptr %9, align 8, !noundef !4
  %11 = insertvalue { ptr, i32 } poison, ptr %8, 0
  %12 = insertvalue { ptr, i32 } %11, i32 %10, 1
  resume { ptr, i32 } %12
}

; core::ptr::drop_in_place<alloc::ffi::c_str::CString>
; Function Attrs: nonlazybind uwtable
define internal void @"_ZN4core3ptr47drop_in_place$LT$alloc..ffi..c_str..CString$GT$17hac06193e393bac3fE"(ptr align 8 %_1) unnamed_addr #1 personality ptr @rust_eh_personality {
start:
  %0 = alloca { ptr, i32, [1 x i32] }, align 8
; invoke <alloc::ffi::c_str::CString as core::ops::drop::Drop>::drop
  invoke void @"_ZN68_$LT$alloc..ffi..c_str..CString$u20$as$u20$core..ops..drop..Drop$GT$4drop17h5c276b2030991267E"(ptr align 8 %_1)
          to label %bb4 unwind label %cleanup

bb3:                                              ; preds = %cleanup
; invoke core::ptr::drop_in_place<alloc::boxed::Box<[u8]>>
  invoke void @"_ZN4core3ptr58drop_in_place$LT$alloc..boxed..Box$LT$$u5b$u8$u5d$$GT$$GT$17h97f518505b3d6269E"(ptr align 8 %_1) #23
          to label %bb1 unwind label %terminate

cleanup:                                          ; preds = %start
  %1 = landingpad { ptr, i32 }
          cleanup
  %2 = extractvalue { ptr, i32 } %1, 0
  %3 = extractvalue { ptr, i32 } %1, 1
  store ptr %2, ptr %0, align 8
  %4 = getelementptr inbounds i8, ptr %0, i64 8
  store i32 %3, ptr %4, align 8
  br label %bb3

bb4:                                              ; preds = %start
; call core::ptr::drop_in_place<alloc::boxed::Box<[u8]>>
  call void @"_ZN4core3ptr58drop_in_place$LT$alloc..boxed..Box$LT$$u5b$u8$u5d$$GT$$GT$17h97f518505b3d6269E"(ptr align 8 %_1)
  ret void

terminate:                                        ; preds = %bb3
  %5 = landingpad { ptr, i32 }
          filter [0 x ptr] zeroinitializer
  %6 = extractvalue { ptr, i32 } %5, 0
  %7 = extractvalue { ptr, i32 } %5, 1
; call core::panicking::panic_in_cleanup
  call void @_ZN4core9panicking16panic_in_cleanup17h803841cec7522372E() #8
  unreachable

bb1:                                              ; preds = %bb3
  %8 = load ptr, ptr %0, align 8, !noundef !4
  %9 = getelementptr inbounds i8, ptr %0, i64 8
  %10 = load i32, ptr %9, align 8, !noundef !4
  %11 = insertvalue { ptr, i32 } poison, ptr %8, 0
  %12 = insertvalue { ptr, i32 } %11, i32 %10, 1
  resume { ptr, i32 } %12
}

; core::ptr::drop_in_place<std::ffi::os_str::OsString>
; Function Attrs: nonlazybind uwtable
define internal void @"_ZN4core3ptr47drop_in_place$LT$std..ffi..os_str..OsString$GT$17h76100a6887cdd746E"(ptr align 8 %_1) unnamed_addr #1 {
start:
; call core::ptr::drop_in_place<std::sys::os_str::bytes::Buf>
  call void @"_ZN4core3ptr49drop_in_place$LT$std..sys..os_str..bytes..Buf$GT$17hdc499275b1d84d0eE"(ptr align 8 %_1)
  ret void
}

; core::ptr::drop_in_place<std::os::fd::owned::OwnedFd>
; Function Attrs: nonlazybind uwtable
define internal void @"_ZN4core3ptr48drop_in_place$LT$std..os..fd..owned..OwnedFd$GT$17h50e9c15084485573E"(ptr align 4 %_1) unnamed_addr #1 {
start:
; call <std::os::fd::owned::OwnedFd as core::ops::drop::Drop>::drop
  call void @"_ZN69_$LT$std..os..fd..owned..OwnedFd$u20$as$u20$core..ops..drop..Drop$GT$4drop17h5cb3a2ceb0eaa3d7E"(ptr align 4 %_1)
  ret void
}

; core::ptr::drop_in_place<alloc::string::FromUtf8Error>
; Function Attrs: nonlazybind uwtable
define internal void @"_ZN4core3ptr49drop_in_place$LT$alloc..string..FromUtf8Error$GT$17h71dbdba6c8674fe1E"(ptr align 8 %_1) unnamed_addr #1 {
start:
; call core::ptr::drop_in_place<alloc::vec::Vec<u8>>
  call void @"_ZN4core3ptr46drop_in_place$LT$alloc..vec..Vec$LT$u8$GT$$GT$17h759fa1127e2db027E"(ptr align 8 %_1)
  ret void
}

; core::ptr::drop_in_place<std::sys::os_str::bytes::Buf>
; Function Attrs: nonlazybind uwtable
define internal void @"_ZN4core3ptr49drop_in_place$LT$std..sys..os_str..bytes..Buf$GT$17hdc499275b1d84d0eE"(ptr align 8 %_1) unnamed_addr #1 {
start:
; call core::ptr::drop_in_place<alloc::vec::Vec<u8>>
  call void @"_ZN4core3ptr46drop_in_place$LT$alloc..vec..Vec$LT$u8$GT$$GT$17h759fa1127e2db027E"(ptr align 8 %_1)
  ret void
}

; core::ptr::drop_in_place<alloc::borrow::Cow<str>>
; Function Attrs: nonlazybind uwtable
define internal void @"_ZN4core3ptr50drop_in_place$LT$alloc..borrow..Cow$LT$str$GT$$GT$17h317f6192343b8e71E"(ptr align 8 %_1) unnamed_addr #1 {
start:
  %0 = load i64, ptr %_1, align 8, !range !18, !noundef !4
  %1 = icmp eq i64 %0, -9223372036854775808
  %_2 = select i1 %1, i64 0, i64 1
  %2 = icmp eq i64 %_2, 0
  br i1 %2, label %bb1, label %bb2

bb1:                                              ; preds = %bb2, %start
  ret void

bb2:                                              ; preds = %start
; call core::ptr::drop_in_place<alloc::string::String>
  call void @"_ZN4core3ptr42drop_in_place$LT$alloc..string..String$GT$17h1765999f31f08926E"(ptr align 8 %_1)
  br label %bb1
}

; core::ptr::drop_in_place<alloc::raw_vec::RawVec<u8>>
; Function Attrs: nonlazybind uwtable
define internal void @"_ZN4core3ptr53drop_in_place$LT$alloc..raw_vec..RawVec$LT$u8$GT$$GT$17hd4ae95bcc14ee4bcE"(ptr align 8 %_1) unnamed_addr #1 {
start:
; call <alloc::raw_vec::RawVec<T,A> as core::ops::drop::Drop>::drop
  call void @"_ZN77_$LT$alloc..raw_vec..RawVec$LT$T$C$A$GT$$u20$as$u20$core..ops..drop..Drop$GT$4drop17h0e5356182ec6c080E"(ptr align 8 %_1)
  ret void
}

; core::ptr::drop_in_place<std::sys::pal::unix::fd::FileDesc>
; Function Attrs: nonlazybind uwtable
define internal void @"_ZN4core3ptr54drop_in_place$LT$std..sys..pal..unix..fd..FileDesc$GT$17h632a35a3d422aa3bE"(ptr align 4 %_1) unnamed_addr #1 {
start:
; call core::ptr::drop_in_place<std::os::fd::owned::OwnedFd>
  call void @"_ZN4core3ptr48drop_in_place$LT$std..os..fd..owned..OwnedFd$GT$17h50e9c15084485573E"(ptr align 4 %_1)
  ret void
}

; core::ptr::drop_in_place<[alloc::ffi::c_str::CString]>
; Function Attrs: nonlazybind uwtable
define internal void @"_ZN4core3ptr57drop_in_place$LT$$u5b$alloc..ffi..c_str..CString$u5d$$GT$17h169410c97658ea3eE"(ptr align 8 %_1.0, i64 %_1.1) unnamed_addr #1 personality ptr @rust_eh_personality {
start:
  %0 = alloca { ptr, i32, [1 x i32] }, align 8
  %_3 = alloca i64, align 8
  store i64 0, ptr %_3, align 8
  br label %bb6

bb6:                                              ; preds = %bb5, %start
  %1 = load i64, ptr %_3, align 8, !noundef !4
  %_7 = icmp eq i64 %1, %_1.1
  br i1 %_7, label %bb1, label %bb5

bb5:                                              ; preds = %bb6
  %2 = load i64, ptr %_3, align 8, !noundef !4
  %_6 = getelementptr inbounds [0 x %"alloc::ffi::c_str::CString"], ptr %_1.0, i64 0, i64 %2
  %3 = load i64, ptr %_3, align 8, !noundef !4
  %4 = add i64 %3, 1
  store i64 %4, ptr %_3, align 8
; invoke core::ptr::drop_in_place<alloc::ffi::c_str::CString>
  invoke void @"_ZN4core3ptr47drop_in_place$LT$alloc..ffi..c_str..CString$GT$17hac06193e393bac3fE"(ptr align 8 %_6)
          to label %bb6 unwind label %cleanup

bb1:                                              ; preds = %bb6
  ret void

bb4:                                              ; preds = %bb3, %cleanup
  %5 = load i64, ptr %_3, align 8, !noundef !4
  %_5 = icmp eq i64 %5, %_1.1
  br i1 %_5, label %bb2, label %bb3

cleanup:                                          ; preds = %bb5
  %6 = landingpad { ptr, i32 }
          cleanup
  %7 = extractvalue { ptr, i32 } %6, 0
  %8 = extractvalue { ptr, i32 } %6, 1
  store ptr %7, ptr %0, align 8
  %9 = getelementptr inbounds i8, ptr %0, i64 8
  store i32 %8, ptr %9, align 8
  br label %bb4

bb3:                                              ; preds = %bb4
  %10 = load i64, ptr %_3, align 8, !noundef !4
  %_4 = getelementptr inbounds [0 x %"alloc::ffi::c_str::CString"], ptr %_1.0, i64 0, i64 %10
  %11 = load i64, ptr %_3, align 8, !noundef !4
  %12 = add i64 %11, 1
  store i64 %12, ptr %_3, align 8
; invoke core::ptr::drop_in_place<alloc::ffi::c_str::CString>
  invoke void @"_ZN4core3ptr47drop_in_place$LT$alloc..ffi..c_str..CString$GT$17hac06193e393bac3fE"(ptr align 8 %_4) #23
          to label %bb4 unwind label %terminate

bb2:                                              ; preds = %bb4
  %13 = load ptr, ptr %0, align 8, !noundef !4
  %14 = getelementptr inbounds i8, ptr %0, i64 8
  %15 = load i32, ptr %14, align 8, !noundef !4
  %16 = insertvalue { ptr, i32 } poison, ptr %13, 0
  %17 = insertvalue { ptr, i32 } %16, i32 %15, 1
  resume { ptr, i32 } %17

terminate:                                        ; preds = %bb3
  %18 = landingpad { ptr, i32 }
          filter [0 x ptr] zeroinitializer
  %19 = extractvalue { ptr, i32 } %18, 0
  %20 = extractvalue { ptr, i32 } %18, 1
; call core::panicking::panic_in_cleanup
  call void @_ZN4core9panicking16panic_in_cleanup17h803841cec7522372E() #8
  unreachable
}

; core::ptr::drop_in_place<std::io::error::repr_bitpacked::Repr>
; Function Attrs: nonlazybind uwtable
define internal void @"_ZN4core3ptr57drop_in_place$LT$std..io..error..repr_bitpacked..Repr$GT$17h37732cf677b2c6ffE"(ptr align 8 %_1) unnamed_addr #1 {
start:
; call <std::io::error::repr_bitpacked::Repr as core::ops::drop::Drop>::drop
  call void @"_ZN78_$LT$std..io..error..repr_bitpacked..Repr$u20$as$u20$core..ops..drop..Drop$GT$4drop17h6ce78b6ae9ce0449E"(ptr align 8 %_1)
  ret void
}

; core::ptr::drop_in_place<std::sys_common::process::CommandEnv>
; Function Attrs: nonlazybind uwtable
define internal void @"_ZN4core3ptr57drop_in_place$LT$std..sys_common..process..CommandEnv$GT$17h4e84fff03abac5cfE"(ptr align 8 %_1) unnamed_addr #1 {
start:
; call core::ptr::drop_in_place<alloc::collections::btree::map::BTreeMap<std::ffi::os_str::OsString,core::option::Option<std::ffi::os_str::OsString>>>
  call void @"_ZN4core3ptr152drop_in_place$LT$alloc..collections..btree..map..BTreeMap$LT$std..ffi..os_str..OsString$C$core..option..Option$LT$std..ffi..os_str..OsString$GT$$GT$$GT$17h386f0a14ecaf91d3E"(ptr align 8 %_1)
  ret void
}

; core::ptr::drop_in_place<alloc::boxed::Box<[u8]>>
; Function Attrs: nonlazybind uwtable
define internal void @"_ZN4core3ptr58drop_in_place$LT$alloc..boxed..Box$LT$$u5b$u8$u5d$$GT$$GT$17h97f518505b3d6269E"(ptr align 8 %_1) unnamed_addr #1 personality ptr @rust_eh_personality {
start:
  %0 = alloca { ptr, i32, [1 x i32] }, align 8
  %_6.0 = load ptr, ptr %_1, align 8, !noundef !4
  %1 = getelementptr inbounds i8, ptr %_1, i64 8
  %_6.1 = load i64, ptr %1, align 8, !noundef !4
  br label %bb3

bb3:                                              ; preds = %start
; call <alloc::boxed::Box<T,A> as core::ops::drop::Drop>::drop
  call void @"_ZN72_$LT$alloc..boxed..Box$LT$T$C$A$GT$$u20$as$u20$core..ops..drop..Drop$GT$4drop17h502705abb76ed38dE"(ptr align 8 %_1)
  ret void

bb4:                                              ; No predecessors!
; invoke <alloc::boxed::Box<T,A> as core::ops::drop::Drop>::drop
  invoke void @"_ZN72_$LT$alloc..boxed..Box$LT$T$C$A$GT$$u20$as$u20$core..ops..drop..Drop$GT$4drop17h502705abb76ed38dE"(ptr align 8 %_1) #23
          to label %bb1 unwind label %terminate

terminate:                                        ; preds = %bb4
  %2 = landingpad { ptr, i32 }
          filter [0 x ptr] zeroinitializer
  %3 = extractvalue { ptr, i32 } %2, 0
  %4 = extractvalue { ptr, i32 } %2, 1
; call core::panicking::panic_in_cleanup
  call void @_ZN4core9panicking16panic_in_cleanup17h803841cec7522372E() #8
  unreachable

bb1:                                              ; preds = %bb4
  %5 = load ptr, ptr %0, align 8, !noundef !4
  %6 = getelementptr inbounds i8, ptr %0, i64 8
  %7 = load i32, ptr %6, align 8, !noundef !4
  %8 = insertvalue { ptr, i32 } poison, ptr %5, 0
  %9 = insertvalue { ptr, i32 } %8, i32 %7, 1
  resume { ptr, i32 } %9
}

; core::ptr::drop_in_place<alloc::boxed::Box<[u32]>>
; Function Attrs: nonlazybind uwtable
define internal void @"_ZN4core3ptr59drop_in_place$LT$alloc..boxed..Box$LT$$u5b$u32$u5d$$GT$$GT$17ha59cddda304e40a6E"(ptr align 8 %_1) unnamed_addr #1 personality ptr @rust_eh_personality {
start:
  %0 = alloca { ptr, i32, [1 x i32] }, align 8
  %_6.0 = load ptr, ptr %_1, align 8, !noundef !4
  %1 = getelementptr inbounds i8, ptr %_1, i64 8
  %_6.1 = load i64, ptr %1, align 8, !noundef !4
  br label %bb3

bb3:                                              ; preds = %start
; call <alloc::boxed::Box<T,A> as core::ops::drop::Drop>::drop
  call void @"_ZN72_$LT$alloc..boxed..Box$LT$T$C$A$GT$$u20$as$u20$core..ops..drop..Drop$GT$4drop17h897f23685a283490E"(ptr align 8 %_1)
  ret void

bb4:                                              ; No predecessors!
; invoke <alloc::boxed::Box<T,A> as core::ops::drop::Drop>::drop
  invoke void @"_ZN72_$LT$alloc..boxed..Box$LT$T$C$A$GT$$u20$as$u20$core..ops..drop..Drop$GT$4drop17h897f23685a283490E"(ptr align 8 %_1) #23
          to label %bb1 unwind label %terminate

terminate:                                        ; preds = %bb4
  %2 = landingpad { ptr, i32 }
          filter [0 x ptr] zeroinitializer
  %3 = extractvalue { ptr, i32 } %2, 0
  %4 = extractvalue { ptr, i32 } %2, 1
; call core::panicking::panic_in_cleanup
  call void @_ZN4core9panicking16panic_in_cleanup17h803841cec7522372E() #8
  unreachable

bb1:                                              ; preds = %bb4
  %5 = load ptr, ptr %0, align 8, !noundef !4
  %6 = getelementptr inbounds i8, ptr %0, i64 8
  %7 = load i32, ptr %6, align 8, !noundef !4
  %8 = insertvalue { ptr, i32 } poison, ptr %5, 0
  %9 = insertvalue { ptr, i32 } %8, i32 %7, 1
  resume { ptr, i32 } %9
}

; core::ptr::drop_in_place<alloc::vec::Vec<*const i8>>
; Function Attrs: nonlazybind uwtable
define internal void @"_ZN4core3ptr60drop_in_place$LT$alloc..vec..Vec$LT$$BP$const$u20$i8$GT$$GT$17h00a4e34cea7d7443E"(ptr align 8 %_1) unnamed_addr #1 personality ptr @rust_eh_personality {
start:
  %0 = alloca { ptr, i32, [1 x i32] }, align 8
; invoke <alloc::vec::Vec<T,A> as core::ops::drop::Drop>::drop
  invoke void @"_ZN70_$LT$alloc..vec..Vec$LT$T$C$A$GT$$u20$as$u20$core..ops..drop..Drop$GT$4drop17h5d32d77a77773a53E"(ptr align 8 %_1)
          to label %bb4 unwind label %cleanup

bb3:                                              ; preds = %cleanup
; invoke core::ptr::drop_in_place<alloc::raw_vec::RawVec<*const i8>>
  invoke void @"_ZN4core3ptr67drop_in_place$LT$alloc..raw_vec..RawVec$LT$$BP$const$u20$i8$GT$$GT$17h2a72bf3a5bf284bbE"(ptr align 8 %_1) #23
          to label %bb1 unwind label %terminate

cleanup:                                          ; preds = %start
  %1 = landingpad { ptr, i32 }
          cleanup
  %2 = extractvalue { ptr, i32 } %1, 0
  %3 = extractvalue { ptr, i32 } %1, 1
  store ptr %2, ptr %0, align 8
  %4 = getelementptr inbounds i8, ptr %0, i64 8
  store i32 %3, ptr %4, align 8
  br label %bb3

bb4:                                              ; preds = %start
; call core::ptr::drop_in_place<alloc::raw_vec::RawVec<*const i8>>
  call void @"_ZN4core3ptr67drop_in_place$LT$alloc..raw_vec..RawVec$LT$$BP$const$u20$i8$GT$$GT$17h2a72bf3a5bf284bbE"(ptr align 8 %_1)
  ret void

terminate:                                        ; preds = %bb3
  %5 = landingpad { ptr, i32 }
          filter [0 x ptr] zeroinitializer
  %6 = extractvalue { ptr, i32 } %5, 0
  %7 = extractvalue { ptr, i32 } %5, 1
; call core::panicking::panic_in_cleanup
  call void @_ZN4core9panicking16panic_in_cleanup17h803841cec7522372E() #8
  unreachable

bb1:                                              ; preds = %bb3
  %8 = load ptr, ptr %0, align 8, !noundef !4
  %9 = getelementptr inbounds i8, ptr %0, i64 8
  %10 = load i32, ptr %9, align 8, !noundef !4
  %11 = insertvalue { ptr, i32 } poison, ptr %8, 0
  %12 = insertvalue { ptr, i32 } %11, i32 %10, 1
  resume { ptr, i32 } %12
}

; core::ptr::drop_in_place<alloc::raw_vec::RawVec<*const i8>>
; Function Attrs: nonlazybind uwtable
define internal void @"_ZN4core3ptr67drop_in_place$LT$alloc..raw_vec..RawVec$LT$$BP$const$u20$i8$GT$$GT$17h2a72bf3a5bf284bbE"(ptr align 8 %_1) unnamed_addr #1 {
start:
; call <alloc::raw_vec::RawVec<T,A> as core::ops::drop::Drop>::drop
  call void @"_ZN77_$LT$alloc..raw_vec..RawVec$LT$T$C$A$GT$$u20$as$u20$core..ops..drop..Drop$GT$4drop17hb2350623bca6c94aE"(ptr align 8 %_1)
  ret void
}

; core::ptr::drop_in_place<alloc::boxed::Box<std::io::error::Custom>>
; Function Attrs: nonlazybind uwtable
define internal void @"_ZN4core3ptr68drop_in_place$LT$alloc..boxed..Box$LT$std..io..error..Custom$GT$$GT$17h82b7847961f29c7aE"(ptr align 8 %_1) unnamed_addr #1 personality ptr @rust_eh_personality {
start:
  %0 = alloca { ptr, i32, [1 x i32] }, align 8
  %_6 = load ptr, ptr %_1, align 8, !noundef !4
; invoke core::ptr::drop_in_place<std::io::error::Custom>
  invoke void @"_ZN4core3ptr43drop_in_place$LT$std..io..error..Custom$GT$17h3844c77a334c248aE"(ptr align 8 %_6)
          to label %bb3 unwind label %cleanup

bb4:                                              ; preds = %cleanup
; invoke <alloc::boxed::Box<T,A> as core::ops::drop::Drop>::drop
  invoke void @"_ZN72_$LT$alloc..boxed..Box$LT$T$C$A$GT$$u20$as$u20$core..ops..drop..Drop$GT$4drop17hd2ad335d6b3c5e66E"(ptr align 8 %_1) #23
          to label %bb1 unwind label %terminate

cleanup:                                          ; preds = %start
  %1 = landingpad { ptr, i32 }
          cleanup
  %2 = extractvalue { ptr, i32 } %1, 0
  %3 = extractvalue { ptr, i32 } %1, 1
  store ptr %2, ptr %0, align 8
  %4 = getelementptr inbounds i8, ptr %0, i64 8
  store i32 %3, ptr %4, align 8
  br label %bb4

bb3:                                              ; preds = %start
; call <alloc::boxed::Box<T,A> as core::ops::drop::Drop>::drop
  call void @"_ZN72_$LT$alloc..boxed..Box$LT$T$C$A$GT$$u20$as$u20$core..ops..drop..Drop$GT$4drop17hd2ad335d6b3c5e66E"(ptr align 8 %_1)
  ret void

terminate:                                        ; preds = %bb4
  %5 = landingpad { ptr, i32 }
          filter [0 x ptr] zeroinitializer
  %6 = extractvalue { ptr, i32 } %5, 0
  %7 = extractvalue { ptr, i32 } %5, 1
; call core::panicking::panic_in_cleanup
  call void @_ZN4core9panicking16panic_in_cleanup17h803841cec7522372E() #8
  unreachable

bb1:                                              ; preds = %bb4
  %8 = load ptr, ptr %0, align 8, !noundef !4
  %9 = getelementptr inbounds i8, ptr %0, i64 8
  %10 = load i32, ptr %9, align 8, !noundef !4
  %11 = insertvalue { ptr, i32 } poison, ptr %8, 0
  %12 = insertvalue { ptr, i32 } %11, i32 %10, 1
  resume { ptr, i32 } %12
}

; core::ptr::drop_in_place<core::option::Option<std::process::Output>>
; Function Attrs: nonlazybind uwtable
define internal void @"_ZN4core3ptr69drop_in_place$LT$core..option..Option$LT$std..process..Output$GT$$GT$17h101224a8bc6f9fc8E"(ptr align 8 %_1) unnamed_addr #1 {
start:
  %0 = load i64, ptr %_1, align 8, !range !18, !noundef !4
  %1 = icmp eq i64 %0, -9223372036854775808
  %_2 = select i1 %1, i64 0, i64 1
  %2 = icmp eq i64 %_2, 0
  br i1 %2, label %bb1, label %bb2

bb1:                                              ; preds = %bb2, %start
  ret void

bb2:                                              ; preds = %start
; call core::ptr::drop_in_place<std::process::Output>
  call void @"_ZN4core3ptr41drop_in_place$LT$std..process..Output$GT$17h15afa3638960aa3bE"(ptr align 8 %_1)
  br label %bb1
}

; core::ptr::drop_in_place<alloc::vec::Vec<alloc::ffi::c_str::CString>>
; Function Attrs: nonlazybind uwtable
define internal void @"_ZN4core3ptr70drop_in_place$LT$alloc..vec..Vec$LT$alloc..ffi..c_str..CString$GT$$GT$17h29140a6242b4ebbbE"(ptr align 8 %_1) unnamed_addr #1 personality ptr @rust_eh_personality {
start:
  %0 = alloca { ptr, i32, [1 x i32] }, align 8
; invoke <alloc::vec::Vec<T,A> as core::ops::drop::Drop>::drop
  invoke void @"_ZN70_$LT$alloc..vec..Vec$LT$T$C$A$GT$$u20$as$u20$core..ops..drop..Drop$GT$4drop17h57cbbd8dee3c6cb0E"(ptr align 8 %_1)
          to label %bb4 unwind label %cleanup

bb3:                                              ; preds = %cleanup
; invoke core::ptr::drop_in_place<alloc::raw_vec::RawVec<alloc::ffi::c_str::CString>>
  invoke void @"_ZN4core3ptr77drop_in_place$LT$alloc..raw_vec..RawVec$LT$alloc..ffi..c_str..CString$GT$$GT$17hbceba60dd1d38244E"(ptr align 8 %_1) #23
          to label %bb1 unwind label %terminate

cleanup:                                          ; preds = %start
  %1 = landingpad { ptr, i32 }
          cleanup
  %2 = extractvalue { ptr, i32 } %1, 0
  %3 = extractvalue { ptr, i32 } %1, 1
  store ptr %2, ptr %0, align 8
  %4 = getelementptr inbounds i8, ptr %0, i64 8
  store i32 %3, ptr %4, align 8
  br label %bb3

bb4:                                              ; preds = %start
; call core::ptr::drop_in_place<alloc::raw_vec::RawVec<alloc::ffi::c_str::CString>>
  call void @"_ZN4core3ptr77drop_in_place$LT$alloc..raw_vec..RawVec$LT$alloc..ffi..c_str..CString$GT$$GT$17hbceba60dd1d38244E"(ptr align 8 %_1)
  ret void

terminate:                                        ; preds = %bb3
  %5 = landingpad { ptr, i32 }
          filter [0 x ptr] zeroinitializer
  %6 = extractvalue { ptr, i32 } %5, 0
  %7 = extractvalue { ptr, i32 } %5, 1
; call core::panicking::panic_in_cleanup
  call void @_ZN4core9panicking16panic_in_cleanup17h803841cec7522372E() #8
  unreachable

bb1:                                              ; preds = %bb3
  %8 = load ptr, ptr %0, align 8, !noundef !4
  %9 = getelementptr inbounds i8, ptr %0, i64 8
  %10 = load i32, ptr %9, align 8, !noundef !4
  %11 = insertvalue { ptr, i32 } poison, ptr %8, 0
  %12 = insertvalue { ptr, i32 } %11, i32 %10, 1
  resume { ptr, i32 } %12
}

; core::ptr::drop_in_place<core::option::Option<alloc::string::String>>
; Function Attrs: nonlazybind uwtable
define internal void @"_ZN4core3ptr70drop_in_place$LT$core..option..Option$LT$alloc..string..String$GT$$GT$17h9f6f372ae38aa07dE"(ptr align 8 %_1) unnamed_addr #1 {
start:
  %0 = load i64, ptr %_1, align 8, !range !18, !noundef !4
  %1 = icmp eq i64 %0, -9223372036854775808
  %_2 = select i1 %1, i64 0, i64 1
  %2 = icmp eq i64 %_2, 0
  br i1 %2, label %bb1, label %bb2

bb1:                                              ; preds = %bb2, %start
  ret void

bb2:                                              ; preds = %start
; call core::ptr::drop_in_place<alloc::string::String>
  call void @"_ZN4core3ptr42drop_in_place$LT$alloc..string..String$GT$17h1765999f31f08926E"(ptr align 8 %_1)
  br label %bb1
}

; core::ptr::drop_in_place<std::sys::pal::unix::process::process_common::Argv>
; Function Attrs: nonlazybind uwtable
define internal void @"_ZN4core3ptr71drop_in_place$LT$std..sys..pal..unix..process..process_common..Argv$GT$17h3a17c63450aae9d6E"(ptr align 8 %_1) unnamed_addr #1 {
start:
; call core::ptr::drop_in_place<alloc::vec::Vec<*const i8>>
  call void @"_ZN4core3ptr60drop_in_place$LT$alloc..vec..Vec$LT$$BP$const$u20$i8$GT$$GT$17h00a4e34cea7d7443E"(ptr align 8 %_1)
  ret void
}

; core::ptr::drop_in_place<alloc::collections::btree::mem::replace::PanicGuard>
; Function Attrs: nonlazybind uwtable
define internal void @"_ZN4core3ptr72drop_in_place$LT$alloc..collections..btree..mem..replace..PanicGuard$GT$17h1812faf049611c74E"(ptr align 1 %_1) unnamed_addr #1 {
start:
; call <alloc::collections::btree::mem::replace::PanicGuard as core::ops::drop::Drop>::drop
  call void @"_ZN93_$LT$alloc..collections..btree..mem..replace..PanicGuard$u20$as$u20$core..ops..drop..Drop$GT$4drop17h556ad0e0ca16dd4dE"(ptr align 1 %_1)
  ret void
}

; core::ptr::drop_in_place<std::panicking::begin_panic::Payload<&str>>
; Function Attrs: inlinehint nonlazybind uwtable
define internal void @"_ZN4core3ptr72drop_in_place$LT$std..panicking..begin_panic..Payload$LT$$RF$str$GT$$GT$17h7ea04f708ef0e1c5E"(ptr align 8 %_1) unnamed_addr #0 {
start:
  ret void
}

; core::ptr::drop_in_place<std::sys::pal::unix::process::process_common::Stdio>
; Function Attrs: nonlazybind uwtable
define internal void @"_ZN4core3ptr72drop_in_place$LT$std..sys..pal..unix..process..process_common..Stdio$GT$17h880c950d04610757E"(ptr align 4 %_1) unnamed_addr #1 {
start:
  %0 = load i32, ptr %_1, align 4, !range !20, !noundef !4
  %_2 = zext i32 %0 to i64
  switch i64 %_2, label %bb1 [
    i64 0, label %bb1
    i64 1, label %bb1
    i64 2, label %bb1
    i64 3, label %bb2
  ]

bb1:                                              ; preds = %bb2, %start, %start, %start, %start
  ret void

bb2:                                              ; preds = %start
  %1 = getelementptr inbounds i8, ptr %_1, i64 4
; call core::ptr::drop_in_place<std::sys::pal::unix::fd::FileDesc>
  call void @"_ZN4core3ptr54drop_in_place$LT$std..sys..pal..unix..fd..FileDesc$GT$17h632a35a3d422aa3bE"(ptr align 4 %1)
  br label %bb1
}

; core::ptr::drop_in_place<std::sys::pal::unix::process::process_common::Command>
; Function Attrs: nonlazybind uwtable
define internal void @"_ZN4core3ptr74drop_in_place$LT$std..sys..pal..unix..process..process_common..Command$GT$17h961143e2befa1987E"(ptr align 8 %_1) unnamed_addr #1 personality ptr @rust_eh_personality {
start:
  %0 = alloca { ptr, i32, [1 x i32] }, align 8
  %1 = getelementptr inbounds %"std::sys::pal::unix::process::process_common::Command", ptr %_1, i32 0, i32 10
; invoke core::ptr::drop_in_place<alloc::ffi::c_str::CString>
  invoke void @"_ZN4core3ptr47drop_in_place$LT$alloc..ffi..c_str..CString$GT$17hac06193e393bac3fE"(ptr align 8 %1)
          to label %bb20 unwind label %cleanup

bb11:                                             ; preds = %cleanup
; invoke core::ptr::drop_in_place<alloc::vec::Vec<alloc::ffi::c_str::CString>>
  invoke void @"_ZN4core3ptr70drop_in_place$LT$alloc..vec..Vec$LT$alloc..ffi..c_str..CString$GT$$GT$17h29140a6242b4ebbbE"(ptr align 8 %_1) #23
          to label %bb10 unwind label %terminate

cleanup:                                          ; preds = %start
  %2 = landingpad { ptr, i32 }
          cleanup
  %3 = extractvalue { ptr, i32 } %2, 0
  %4 = extractvalue { ptr, i32 } %2, 1
  store ptr %3, ptr %0, align 8
  %5 = getelementptr inbounds i8, ptr %0, i64 8
  store i32 %4, ptr %5, align 8
  br label %bb11

bb20:                                             ; preds = %start
; invoke core::ptr::drop_in_place<alloc::vec::Vec<alloc::ffi::c_str::CString>>
  invoke void @"_ZN4core3ptr70drop_in_place$LT$alloc..vec..Vec$LT$alloc..ffi..c_str..CString$GT$$GT$17h29140a6242b4ebbbE"(ptr align 8 %_1)
          to label %bb19 unwind label %cleanup1

bb10:                                             ; preds = %bb11, %cleanup1
  %6 = getelementptr inbounds %"std::sys::pal::unix::process::process_common::Command", ptr %_1, i32 0, i32 1
; invoke core::ptr::drop_in_place<std::sys::pal::unix::process::process_common::Argv>
  invoke void @"_ZN4core3ptr71drop_in_place$LT$std..sys..pal..unix..process..process_common..Argv$GT$17h3a17c63450aae9d6E"(ptr align 8 %6) #23
          to label %bb9 unwind label %terminate

cleanup1:                                         ; preds = %bb20
  %7 = landingpad { ptr, i32 }
          cleanup
  %8 = extractvalue { ptr, i32 } %7, 0
  %9 = extractvalue { ptr, i32 } %7, 1
  store ptr %8, ptr %0, align 8
  %10 = getelementptr inbounds i8, ptr %0, i64 8
  store i32 %9, ptr %10, align 8
  br label %bb10

bb19:                                             ; preds = %bb20
  %11 = getelementptr inbounds %"std::sys::pal::unix::process::process_common::Command", ptr %_1, i32 0, i32 1
; invoke core::ptr::drop_in_place<std::sys::pal::unix::process::process_common::Argv>
  invoke void @"_ZN4core3ptr71drop_in_place$LT$std..sys..pal..unix..process..process_common..Argv$GT$17h3a17c63450aae9d6E"(ptr align 8 %11)
          to label %bb18 unwind label %cleanup2

bb9:                                              ; preds = %bb10, %cleanup2
  %12 = getelementptr inbounds %"std::sys::pal::unix::process::process_common::Command", ptr %_1, i32 0, i32 9
; invoke core::ptr::drop_in_place<std::sys_common::process::CommandEnv>
  invoke void @"_ZN4core3ptr57drop_in_place$LT$std..sys_common..process..CommandEnv$GT$17h4e84fff03abac5cfE"(ptr align 8 %12) #23
          to label %bb8 unwind label %terminate

cleanup2:                                         ; preds = %bb19
  %13 = landingpad { ptr, i32 }
          cleanup
  %14 = extractvalue { ptr, i32 } %13, 0
  %15 = extractvalue { ptr, i32 } %13, 1
  store ptr %14, ptr %0, align 8
  %16 = getelementptr inbounds i8, ptr %0, i64 8
  store i32 %15, ptr %16, align 8
  br label %bb9

bb18:                                             ; preds = %bb19
  %17 = getelementptr inbounds %"std::sys::pal::unix::process::process_common::Command", ptr %_1, i32 0, i32 9
; invoke core::ptr::drop_in_place<std::sys_common::process::CommandEnv>
  invoke void @"_ZN4core3ptr57drop_in_place$LT$std..sys_common..process..CommandEnv$GT$17h4e84fff03abac5cfE"(ptr align 8 %17)
          to label %bb17 unwind label %cleanup3

bb8:                                              ; preds = %bb9, %cleanup3
  %18 = getelementptr inbounds %"std::sys::pal::unix::process::process_common::Command", ptr %_1, i32 0, i32 11
; invoke core::ptr::drop_in_place<core::option::Option<alloc::ffi::c_str::CString>>
  invoke void @"_ZN4core3ptr75drop_in_place$LT$core..option..Option$LT$alloc..ffi..c_str..CString$GT$$GT$17hd0eb5e9e66de17bdE"(ptr align 8 %18) #23
          to label %bb7 unwind label %terminate

cleanup3:                                         ; preds = %bb18
  %19 = landingpad { ptr, i32 }
          cleanup
  %20 = extractvalue { ptr, i32 } %19, 0
  %21 = extractvalue { ptr, i32 } %19, 1
  store ptr %20, ptr %0, align 8
  %22 = getelementptr inbounds i8, ptr %0, i64 8
  store i32 %21, ptr %22, align 8
  br label %bb8

bb17:                                             ; preds = %bb18
  %23 = getelementptr inbounds %"std::sys::pal::unix::process::process_common::Command", ptr %_1, i32 0, i32 11
; invoke core::ptr::drop_in_place<core::option::Option<alloc::ffi::c_str::CString>>
  invoke void @"_ZN4core3ptr75drop_in_place$LT$core..option..Option$LT$alloc..ffi..c_str..CString$GT$$GT$17hd0eb5e9e66de17bdE"(ptr align 8 %23)
          to label %bb16 unwind label %cleanup4

bb7:                                              ; preds = %bb8, %cleanup4
  %24 = getelementptr inbounds %"std::sys::pal::unix::process::process_common::Command", ptr %_1, i32 0, i32 2
; invoke core::ptr::drop_in_place<alloc::vec::Vec<alloc::boxed::Box<dyn core::ops::function::FnMut<()>+Output = core::result::Result<(),std::io::error::Error>+core::marker::Send+core::marker::Sync>>>
  invoke void @"_ZN4core3ptr251drop_in_place$LT$alloc..vec..Vec$LT$alloc..boxed..Box$LT$dyn$u20$core..ops..function..FnMut$LT$$LP$$RP$$GT$$u2b$Output$u20$$u3d$$u20$core..result..Result$LT$$LP$$RP$$C$std..io..error..Error$GT$$u2b$core..marker..Send$u2b$core..marker..Sync$GT$$GT$$GT$17h6f6ea1330bab3abdE"(ptr align 8 %24) #23
          to label %bb6 unwind label %terminate

cleanup4:                                         ; preds = %bb17
  %25 = landingpad { ptr, i32 }
          cleanup
  %26 = extractvalue { ptr, i32 } %25, 0
  %27 = extractvalue { ptr, i32 } %25, 1
  store ptr %26, ptr %0, align 8
  %28 = getelementptr inbounds i8, ptr %0, i64 8
  store i32 %27, ptr %28, align 8
  br label %bb7

bb16:                                             ; preds = %bb17
  %29 = getelementptr inbounds %"std::sys::pal::unix::process::process_common::Command", ptr %_1, i32 0, i32 2
; invoke core::ptr::drop_in_place<alloc::vec::Vec<alloc::boxed::Box<dyn core::ops::function::FnMut<()>+Output = core::result::Result<(),std::io::error::Error>+core::marker::Send+core::marker::Sync>>>
  invoke void @"_ZN4core3ptr251drop_in_place$LT$alloc..vec..Vec$LT$alloc..boxed..Box$LT$dyn$u20$core..ops..function..FnMut$LT$$LP$$RP$$GT$$u2b$Output$u20$$u3d$$u20$core..result..Result$LT$$LP$$RP$$C$std..io..error..Error$GT$$u2b$core..marker..Send$u2b$core..marker..Sync$GT$$GT$$GT$17h6f6ea1330bab3abdE"(ptr align 8 %29)
          to label %bb15 unwind label %cleanup5

bb6:                                              ; preds = %bb7, %cleanup5
  %30 = getelementptr inbounds %"std::sys::pal::unix::process::process_common::Command", ptr %_1, i32 0, i32 12
; invoke core::ptr::drop_in_place<core::option::Option<alloc::boxed::Box<[u32]>>>
  invoke void @"_ZN4core3ptr87drop_in_place$LT$core..option..Option$LT$alloc..boxed..Box$LT$$u5b$u32$u5d$$GT$$GT$$GT$17h95e6db2c0aa720dbE"(ptr align 8 %30) #23
          to label %bb5 unwind label %terminate

cleanup5:                                         ; preds = %bb16
  %31 = landingpad { ptr, i32 }
          cleanup
  %32 = extractvalue { ptr, i32 } %31, 0
  %33 = extractvalue { ptr, i32 } %31, 1
  store ptr %32, ptr %0, align 8
  %34 = getelementptr inbounds i8, ptr %0, i64 8
  store i32 %33, ptr %34, align 8
  br label %bb6

bb15:                                             ; preds = %bb16
  %35 = getelementptr inbounds %"std::sys::pal::unix::process::process_common::Command", ptr %_1, i32 0, i32 12
; invoke core::ptr::drop_in_place<core::option::Option<alloc::boxed::Box<[u32]>>>
  invoke void @"_ZN4core3ptr87drop_in_place$LT$core..option..Option$LT$alloc..boxed..Box$LT$$u5b$u32$u5d$$GT$$GT$$GT$17h95e6db2c0aa720dbE"(ptr align 8 %35)
          to label %bb14 unwind label %cleanup6

bb5:                                              ; preds = %bb6, %cleanup6
  %36 = getelementptr inbounds %"std::sys::pal::unix::process::process_common::Command", ptr %_1, i32 0, i32 6
; invoke core::ptr::drop_in_place<core::option::Option<std::sys::pal::unix::process::process_common::Stdio>>
  invoke void @"_ZN4core3ptr100drop_in_place$LT$core..option..Option$LT$std..sys..pal..unix..process..process_common..Stdio$GT$$GT$17h965032b934483176E"(ptr align 4 %36) #23
          to label %bb4 unwind label %terminate

cleanup6:                                         ; preds = %bb15
  %37 = landingpad { ptr, i32 }
          cleanup
  %38 = extractvalue { ptr, i32 } %37, 0
  %39 = extractvalue { ptr, i32 } %37, 1
  store ptr %38, ptr %0, align 8
  %40 = getelementptr inbounds i8, ptr %0, i64 8
  store i32 %39, ptr %40, align 8
  br label %bb5

bb14:                                             ; preds = %bb15
  %41 = getelementptr inbounds %"std::sys::pal::unix::process::process_common::Command", ptr %_1, i32 0, i32 6
; invoke core::ptr::drop_in_place<core::option::Option<std::sys::pal::unix::process::process_common::Stdio>>
  invoke void @"_ZN4core3ptr100drop_in_place$LT$core..option..Option$LT$std..sys..pal..unix..process..process_common..Stdio$GT$$GT$17h965032b934483176E"(ptr align 4 %41)
          to label %bb13 unwind label %cleanup7

bb4:                                              ; preds = %bb5, %cleanup7
  %42 = getelementptr inbounds %"std::sys::pal::unix::process::process_common::Command", ptr %_1, i32 0, i32 7
; invoke core::ptr::drop_in_place<core::option::Option<std::sys::pal::unix::process::process_common::Stdio>>
  invoke void @"_ZN4core3ptr100drop_in_place$LT$core..option..Option$LT$std..sys..pal..unix..process..process_common..Stdio$GT$$GT$17h965032b934483176E"(ptr align 4 %42) #23
          to label %bb3 unwind label %terminate

cleanup7:                                         ; preds = %bb14
  %43 = landingpad { ptr, i32 }
          cleanup
  %44 = extractvalue { ptr, i32 } %43, 0
  %45 = extractvalue { ptr, i32 } %43, 1
  store ptr %44, ptr %0, align 8
  %46 = getelementptr inbounds i8, ptr %0, i64 8
  store i32 %45, ptr %46, align 8
  br label %bb4

bb13:                                             ; preds = %bb14
  %47 = getelementptr inbounds %"std::sys::pal::unix::process::process_common::Command", ptr %_1, i32 0, i32 7
; invoke core::ptr::drop_in_place<core::option::Option<std::sys::pal::unix::process::process_common::Stdio>>
  invoke void @"_ZN4core3ptr100drop_in_place$LT$core..option..Option$LT$std..sys..pal..unix..process..process_common..Stdio$GT$$GT$17h965032b934483176E"(ptr align 4 %47)
          to label %bb12 unwind label %cleanup8

bb3:                                              ; preds = %bb4, %cleanup8
  %48 = getelementptr inbounds %"std::sys::pal::unix::process::process_common::Command", ptr %_1, i32 0, i32 8
; invoke core::ptr::drop_in_place<core::option::Option<std::sys::pal::unix::process::process_common::Stdio>>
  invoke void @"_ZN4core3ptr100drop_in_place$LT$core..option..Option$LT$std..sys..pal..unix..process..process_common..Stdio$GT$$GT$17h965032b934483176E"(ptr align 4 %48) #23
          to label %bb1 unwind label %terminate

cleanup8:                                         ; preds = %bb13
  %49 = landingpad { ptr, i32 }
          cleanup
  %50 = extractvalue { ptr, i32 } %49, 0
  %51 = extractvalue { ptr, i32 } %49, 1
  store ptr %50, ptr %0, align 8
  %52 = getelementptr inbounds i8, ptr %0, i64 8
  store i32 %51, ptr %52, align 8
  br label %bb3

bb12:                                             ; preds = %bb13
  %53 = getelementptr inbounds %"std::sys::pal::unix::process::process_common::Command", ptr %_1, i32 0, i32 8
; call core::ptr::drop_in_place<core::option::Option<std::sys::pal::unix::process::process_common::Stdio>>
  call void @"_ZN4core3ptr100drop_in_place$LT$core..option..Option$LT$std..sys..pal..unix..process..process_common..Stdio$GT$$GT$17h965032b934483176E"(ptr align 4 %53)
  ret void

terminate:                                        ; preds = %bb3, %bb4, %bb5, %bb6, %bb7, %bb8, %bb9, %bb10, %bb11
  %54 = landingpad { ptr, i32 }
          filter [0 x ptr] zeroinitializer
  %55 = extractvalue { ptr, i32 } %54, 0
  %56 = extractvalue { ptr, i32 } %54, 1
; call core::panicking::panic_in_cleanup
  call void @_ZN4core9panicking16panic_in_cleanup17h803841cec7522372E() #8
  unreachable

bb1:                                              ; preds = %bb3
  %57 = load ptr, ptr %0, align 8, !noundef !4
  %58 = getelementptr inbounds i8, ptr %0, i64 8
  %59 = load i32, ptr %58, align 8, !noundef !4
  %60 = insertvalue { ptr, i32 } poison, ptr %57, 0
  %61 = insertvalue { ptr, i32 } %60, i32 %59, 1
  resume { ptr, i32 } %61
}

; core::ptr::drop_in_place<core::option::Option<alloc::ffi::c_str::CString>>
; Function Attrs: nonlazybind uwtable
define internal void @"_ZN4core3ptr75drop_in_place$LT$core..option..Option$LT$alloc..ffi..c_str..CString$GT$$GT$17hd0eb5e9e66de17bdE"(ptr align 8 %_1) unnamed_addr #1 {
start:
  %0 = load ptr, ptr %_1, align 8, !noundef !4
  %1 = ptrtoint ptr %0 to i64
  %2 = icmp eq i64 %1, 0
  %_2 = select i1 %2, i64 0, i64 1
  %3 = icmp eq i64 %_2, 0
  br i1 %3, label %bb1, label %bb2

bb1:                                              ; preds = %bb2, %start
  ret void

bb2:                                              ; preds = %start
; call core::ptr::drop_in_place<alloc::ffi::c_str::CString>
  call void @"_ZN4core3ptr47drop_in_place$LT$alloc..ffi..c_str..CString$GT$17hac06193e393bac3fE"(ptr align 8 %_1)
  br label %bb1
}

; core::ptr::drop_in_place<core::option::Option<std::ffi::os_str::OsString>>
; Function Attrs: nonlazybind uwtable
define internal void @"_ZN4core3ptr75drop_in_place$LT$core..option..Option$LT$std..ffi..os_str..OsString$GT$$GT$17h8b97f781d2df489dE"(ptr align 8 %_1) unnamed_addr #1 {
start:
  %0 = load i64, ptr %_1, align 8, !range !18, !noundef !4
  %1 = icmp eq i64 %0, -9223372036854775808
  %_2 = select i1 %1, i64 0, i64 1
  %2 = icmp eq i64 %_2, 0
  br i1 %2, label %bb1, label %bb2

bb1:                                              ; preds = %bb2, %start
  ret void

bb2:                                              ; preds = %start
; call core::ptr::drop_in_place<std::ffi::os_str::OsString>
  call void @"_ZN4core3ptr47drop_in_place$LT$std..ffi..os_str..OsString$GT$17h76100a6887cdd746E"(ptr align 8 %_1)
  br label %bb1
}

; core::ptr::drop_in_place<alloc::raw_vec::RawVec<alloc::ffi::c_str::CString>>
; Function Attrs: nonlazybind uwtable
define internal void @"_ZN4core3ptr77drop_in_place$LT$alloc..raw_vec..RawVec$LT$alloc..ffi..c_str..CString$GT$$GT$17hbceba60dd1d38244E"(ptr align 8 %_1) unnamed_addr #1 {
start:
; call <alloc::raw_vec::RawVec<T,A> as core::ops::drop::Drop>::drop
  call void @"_ZN77_$LT$alloc..raw_vec..RawVec$LT$T$C$A$GT$$u20$as$u20$core..ops..drop..Drop$GT$4drop17h1d0da88496c0e9cdE"(ptr align 8 %_1)
  ret void
}

; core::ptr::drop_in_place<std::rt::lang_start<()>::{{closure}}>
; Function Attrs: inlinehint nonlazybind uwtable
define internal void @"_ZN4core3ptr85drop_in_place$LT$std..rt..lang_start$LT$$LP$$RP$$GT$..$u7b$$u7b$closure$u7d$$u7d$$GT$17h623181823e2aaa5eE"(ptr align 8 %_1) unnamed_addr #0 {
start:
  ret void
}

; core::ptr::drop_in_place<core::option::Option<alloc::boxed::Box<[u32]>>>
; Function Attrs: nonlazybind uwtable
define internal void @"_ZN4core3ptr87drop_in_place$LT$core..option..Option$LT$alloc..boxed..Box$LT$$u5b$u32$u5d$$GT$$GT$$GT$17h95e6db2c0aa720dbE"(ptr align 8 %_1) unnamed_addr #1 {
start:
  %0 = load ptr, ptr %_1, align 8, !noundef !4
  %1 = ptrtoint ptr %0 to i64
  %2 = icmp eq i64 %1, 0
  %_2 = select i1 %2, i64 0, i64 1
  %3 = icmp eq i64 %_2, 0
  br i1 %3, label %bb1, label %bb2

bb1:                                              ; preds = %bb2, %start
  ret void

bb2:                                              ; preds = %start
; call core::ptr::drop_in_place<alloc::boxed::Box<[u32]>>
  call void @"_ZN4core3ptr59drop_in_place$LT$alloc..boxed..Box$LT$$u5b$u32$u5d$$GT$$GT$17ha59cddda304e40a6E"(ptr align 8 %_1)
  br label %bb1
}

; core::ptr::drop_in_place<core::result::Result<alloc::string::String,std::env::VarError>>
; Function Attrs: nonlazybind uwtable
define internal void @"_ZN4core3ptr91drop_in_place$LT$core..result..Result$LT$alloc..string..String$C$std..env..VarError$GT$$GT$17hc9da86feac71198fE"(ptr align 8 %_1) unnamed_addr #1 {
start:
  %_2 = load i64, ptr %_1, align 8, !range !16, !noundef !4
  %0 = icmp eq i64 %_2, 0
  br i1 %0, label %bb2, label %bb3

bb2:                                              ; preds = %start
  %1 = getelementptr inbounds %"core::result::Result<alloc::string::String, std::env::VarError>::Ok", ptr %_1, i32 0, i32 1
; call core::ptr::drop_in_place<alloc::string::String>
  call void @"_ZN4core3ptr42drop_in_place$LT$alloc..string..String$GT$17h1765999f31f08926E"(ptr align 8 %1)
  br label %bb1

bb3:                                              ; preds = %start
  %2 = getelementptr inbounds %"core::result::Result<alloc::string::String, std::env::VarError>::Err", ptr %_1, i32 0, i32 1
; call core::ptr::drop_in_place<std::env::VarError>
  call void @"_ZN4core3ptr39drop_in_place$LT$std..env..VarError$GT$17h1f7d90049174fb76E"(ptr align 8 %2)
  br label %bb1

bb1:                                              ; preds = %bb3, %bb2
  ret void
}

; core::ptr::drop_in_place<core::result::Result<std::process::Output,std::io::error::Error>>
; Function Attrs: nonlazybind uwtable
define internal void @"_ZN4core3ptr93drop_in_place$LT$core..result..Result$LT$std..process..Output$C$std..io..error..Error$GT$$GT$17h3cb7008008426135E"(ptr align 8 %_1) unnamed_addr #1 {
start:
  %0 = load i64, ptr %_1, align 8, !range !18, !noundef !4
  %1 = icmp eq i64 %0, -9223372036854775808
  %_2 = select i1 %1, i64 1, i64 0
  %2 = icmp eq i64 %_2, 0
  br i1 %2, label %bb2, label %bb3

bb2:                                              ; preds = %start
; call core::ptr::drop_in_place<std::process::Output>
  call void @"_ZN4core3ptr41drop_in_place$LT$std..process..Output$GT$17h15afa3638960aa3bE"(ptr align 8 %_1)
  br label %bb1

bb3:                                              ; preds = %start
  %3 = getelementptr inbounds %"core::result::Result<std::process::Output, std::io::error::Error>::Err", ptr %_1, i32 0, i32 1
; call core::ptr::drop_in_place<std::io::error::Error>
  call void @"_ZN4core3ptr42drop_in_place$LT$std..io..error..Error$GT$17h3aee9e107bfad82cE"(ptr align 8 %3)
  br label %bb1

bb1:                                              ; preds = %bb3, %bb2
  ret void
}

; core::ptr::drop_in_place<dyn core::error::Error+core::marker::Send+core::marker::Sync>
; Function Attrs: nonlazybind uwtable
define internal void @"_ZN4core3ptr93drop_in_place$LT$dyn$u20$core..error..Error$u2b$core..marker..Send$u2b$core..marker..Sync$GT$17h4e69f9518c658572E"(ptr align 1 %_1.0, ptr align 8 %_1.1) unnamed_addr #1 {
start:
  %0 = getelementptr inbounds ptr, ptr %_1.1, i64 0
  %1 = load ptr, ptr %0, align 8, !invariant.load !4, !nonnull !4
  call void %1(ptr align 1 %_1.0)
  ret void
}

; core::str::validations::next_code_point
; Function Attrs: inlinehint nonlazybind uwtable
define internal { i32, i32 } @_ZN4core3str11validations15next_code_point17he55fc7c4cdba0a5cE(ptr align 8 %bytes) unnamed_addr #0 {
start:
  %self3 = alloca ptr, align 8
  %self2 = alloca ptr, align 8
  %ch = alloca i32, align 4
  %self1 = alloca ptr, align 8
  %self = alloca ptr, align 8
  %_3 = alloca ptr, align 8
  %_0 = alloca %"core::option::Option<u32>", align 4
; call <core::slice::iter::Iter<T> as core::iter::traits::iterator::Iterator>::next
  %0 = call align 1 ptr @"_ZN91_$LT$core..slice..iter..Iter$LT$T$GT$$u20$as$u20$core..iter..traits..iterator..Iterator$GT$4next17h1736ced9ca19f127E"(ptr align 8 %bytes)
  store ptr %0, ptr %self, align 8
  %1 = load ptr, ptr %self, align 8, !noundef !4
  %2 = ptrtoint ptr %1 to i64
  %3 = icmp eq i64 %2, 0
  %_28 = select i1 %3, i64 0, i64 1
  %4 = icmp eq i64 %_28, 0
  br i1 %4, label %bb15, label %bb16

bb15:                                             ; preds = %start
  store ptr null, ptr %_3, align 8
  br label %bb14

bb16:                                             ; preds = %start
  %v = load ptr, ptr %self, align 8, !nonnull !4, !align !6, !noundef !4
  store ptr %v, ptr %_3, align 8
  br label %bb14

bb14:                                             ; preds = %bb16, %bb15
  %5 = load ptr, ptr %_3, align 8, !noundef !4
  %6 = ptrtoint ptr %5 to i64
  %7 = icmp eq i64 %6, 0
  %_5 = select i1 %7, i64 1, i64 0
  %8 = icmp eq i64 %_5, 0
  br i1 %8, label %bb2, label %bb3

bb2:                                              ; preds = %bb14
  %val = load ptr, ptr %_3, align 8, !nonnull !4, !align !6, !noundef !4
  %x = load i8, ptr %val, align 1, !noundef !4
  %_7 = icmp ult i8 %x, -128
  br i1 %_7, label %bb4, label %bb5

bb3:                                              ; preds = %bb14
  %9 = load i32, ptr @2, align 4, !range !7, !noundef !4
  %10 = load i32, ptr getelementptr inbounds (i8, ptr @2, i64 4), align 4
  store i32 %9, ptr %_0, align 4
  %11 = getelementptr inbounds i8, ptr %_0, i64 4
  store i32 %10, ptr %11, align 4
  br label %bb13

bb5:                                              ; preds = %bb2
  %_30 = and i8 %x, 31
  %init = zext i8 %_30 to i32
; call <core::slice::iter::Iter<T> as core::iter::traits::iterator::Iterator>::next
  %12 = call align 1 ptr @"_ZN91_$LT$core..slice..iter..Iter$LT$T$GT$$u20$as$u20$core..iter..traits..iterator..Iterator$GT$4next17h1736ced9ca19f127E"(ptr align 8 %bytes)
  store ptr %12, ptr %self1, align 8
  %13 = load ptr, ptr %self1, align 8, !noundef !4
  %14 = ptrtoint ptr %13 to i64
  %15 = icmp eq i64 %14, 0
  %_32 = select i1 %15, i64 0, i64 1
  %_33 = icmp eq i64 %_32, 1
  call void @llvm.assume(i1 %_33)
  %val4 = load ptr, ptr %self1, align 8, !nonnull !4, !align !6, !noundef !4
  %y = load i8, ptr %val4, align 1, !noundef !4
  %_34 = shl i32 %init, 6
  %_36 = and i8 %y, 63
  %ch5 = zext i8 %_36 to i32
  %16 = or i32 %_34, %ch5
  store i32 %16, ptr %ch, align 4
  %_14 = icmp uge i8 %x, -32
  br i1 %_14, label %bb7, label %bb12

bb4:                                              ; preds = %bb2
  %_8 = zext i8 %x to i32
  %17 = getelementptr inbounds i8, ptr %_0, i64 4
  store i32 %_8, ptr %17, align 4
  store i32 1, ptr %_0, align 4
  br label %bb13

bb12:                                             ; preds = %bb11, %bb5
  %_27 = load i32, ptr %ch, align 4, !noundef !4
  %18 = getelementptr inbounds i8, ptr %_0, i64 4
  store i32 %_27, ptr %18, align 4
  store i32 1, ptr %_0, align 4
  br label %bb13

bb7:                                              ; preds = %bb5
; call <core::slice::iter::Iter<T> as core::iter::traits::iterator::Iterator>::next
  %19 = call align 1 ptr @"_ZN91_$LT$core..slice..iter..Iter$LT$T$GT$$u20$as$u20$core..iter..traits..iterator..Iterator$GT$4next17h1736ced9ca19f127E"(ptr align 8 %bytes)
  store ptr %19, ptr %self2, align 8
  %20 = load ptr, ptr %self2, align 8, !noundef !4
  %21 = ptrtoint ptr %20 to i64
  %22 = icmp eq i64 %21, 0
  %_38 = select i1 %22, i64 0, i64 1
  %_39 = icmp eq i64 %_38, 1
  call void @llvm.assume(i1 %_39)
  %val6 = load ptr, ptr %self2, align 8, !nonnull !4, !align !6, !noundef !4
  %z = load i8, ptr %val6, align 1, !noundef !4
  %_40 = shl i32 %ch5, 6
  %_42 = and i8 %z, 63
  %_41 = zext i8 %_42 to i32
  %y_z = or i32 %_40, %_41
  %_19 = shl i32 %init, 12
  %23 = or i32 %_19, %y_z
  store i32 %23, ptr %ch, align 4
  %_20 = icmp uge i8 %x, -16
  br i1 %_20, label %bb9, label %bb11

bb11:                                             ; preds = %bb9, %bb7
  br label %bb12

bb9:                                              ; preds = %bb7
; call <core::slice::iter::Iter<T> as core::iter::traits::iterator::Iterator>::next
  %24 = call align 1 ptr @"_ZN91_$LT$core..slice..iter..Iter$LT$T$GT$$u20$as$u20$core..iter..traits..iterator..Iterator$GT$4next17h1736ced9ca19f127E"(ptr align 8 %bytes)
  store ptr %24, ptr %self3, align 8
  %25 = load ptr, ptr %self3, align 8, !noundef !4
  %26 = ptrtoint ptr %25 to i64
  %27 = icmp eq i64 %26, 0
  %_44 = select i1 %27, i64 0, i64 1
  %_45 = icmp eq i64 %_44, 1
  call void @llvm.assume(i1 %_45)
  %val7 = load ptr, ptr %self3, align 8, !nonnull !4, !align !6, !noundef !4
  %w = load i8, ptr %val7, align 1, !noundef !4
  %_25 = and i32 %init, 7
  %_24 = shl i32 %_25, 18
  %_46 = shl i32 %y_z, 6
  %_48 = and i8 %w, 63
  %_47 = zext i8 %_48 to i32
  %_26 = or i32 %_46, %_47
  %28 = or i32 %_24, %_26
  store i32 %28, ptr %ch, align 4
  br label %bb11

bb13:                                             ; preds = %bb3, %bb4, %bb12
  %29 = load i32, ptr %_0, align 4, !range !7, !noundef !4
  %30 = getelementptr inbounds i8, ptr %_0, i64 4
  %31 = load i32, ptr %30, align 4
  %32 = insertvalue { i32, i32 } poison, i32 %29, 0
  %33 = insertvalue { i32, i32 } %32, i32 %31, 1
  ret { i32, i32 } %33

bb17:                                             ; No predecessors!
  unreachable
}

; core::str::validations::next_code_point_reverse
; Function Attrs: inlinehint nonlazybind uwtable
define internal { i32, i32 } @_ZN4core3str11validations23next_code_point_reverse17hf95390bda4e0d5e9E(ptr align 8 %bytes) unnamed_addr #0 {
start:
  %self3 = alloca ptr, align 8
  %self2 = alloca ptr, align 8
  %self1 = alloca ptr, align 8
  %ch = alloca i32, align 4
  %self = alloca ptr, align 8
  %_2 = alloca ptr, align 8
  %_0 = alloca %"core::option::Option<u32>", align 4
; call <core::slice::iter::Iter<T> as core::iter::traits::double_ended::DoubleEndedIterator>::next_back
  %0 = call align 1 ptr @"_ZN106_$LT$core..slice..iter..Iter$LT$T$GT$$u20$as$u20$core..iter..traits..double_ended..DoubleEndedIterator$GT$9next_back17h5afb966917d91340E"(ptr align 8 %bytes)
  store ptr %0, ptr %self, align 8
  %1 = load ptr, ptr %self, align 8, !noundef !4
  %2 = ptrtoint ptr %1 to i64
  %3 = icmp eq i64 %2, 0
  %_31 = select i1 %3, i64 0, i64 1
  %4 = icmp eq i64 %_31, 0
  br i1 %4, label %bb18, label %bb19

bb18:                                             ; preds = %start
  store ptr null, ptr %_2, align 8
  br label %bb17

bb19:                                             ; preds = %start
  %v = load ptr, ptr %self, align 8, !nonnull !4, !align !6, !noundef !4
  store ptr %v, ptr %_2, align 8
  br label %bb17

bb17:                                             ; preds = %bb19, %bb18
  %5 = load ptr, ptr %_2, align 8, !noundef !4
  %6 = ptrtoint ptr %5 to i64
  %7 = icmp eq i64 %6, 0
  %_4 = select i1 %7, i64 1, i64 0
  %8 = icmp eq i64 %_4, 0
  br i1 %8, label %bb2, label %bb3

bb2:                                              ; preds = %bb17
  %val = load ptr, ptr %_2, align 8, !nonnull !4, !align !6, !noundef !4
  %w = load i8, ptr %val, align 1, !noundef !4
  %_6 = icmp ult i8 %w, -128
  br i1 %_6, label %bb4, label %bb5

bb3:                                              ; preds = %bb17
  %9 = load i32, ptr @2, align 4, !range !7, !noundef !4
  %10 = load i32, ptr getelementptr inbounds (i8, ptr @2, i64 4), align 4
  store i32 %9, ptr %_0, align 4
  %11 = getelementptr inbounds i8, ptr %_0, i64 4
  store i32 %10, ptr %11, align 4
  br label %bb15

bb5:                                              ; preds = %bb2
; call <core::slice::iter::Iter<T> as core::iter::traits::double_ended::DoubleEndedIterator>::next_back
  %12 = call align 1 ptr @"_ZN106_$LT$core..slice..iter..Iter$LT$T$GT$$u20$as$u20$core..iter..traits..double_ended..DoubleEndedIterator$GT$9next_back17h5afb966917d91340E"(ptr align 8 %bytes)
  store ptr %12, ptr %self1, align 8
  %13 = load ptr, ptr %self1, align 8, !noundef !4
  %14 = ptrtoint ptr %13 to i64
  %15 = icmp eq i64 %14, 0
  %_34 = select i1 %15, i64 0, i64 1
  %_35 = icmp eq i64 %_34, 1
  call void @llvm.assume(i1 %_35)
  %val4 = load ptr, ptr %self1, align 8, !nonnull !4, !align !6, !noundef !4
  %z = load i8, ptr %val4, align 1, !noundef !4
  %_36 = and i8 %z, 31
  %_13 = zext i8 %_36 to i32
  store i32 %_13, ptr %ch, align 4
  %_14 = icmp slt i8 %z, -64
  br i1 %_14, label %bb7, label %bb13

bb4:                                              ; preds = %bb2
  %_8 = zext i8 %w to i32
  %16 = getelementptr inbounds i8, ptr %_0, i64 4
  store i32 %_8, ptr %16, align 4
  store i32 1, ptr %_0, align 4
  br label %bb15

bb13:                                             ; preds = %bb5
  br label %bb14

bb7:                                              ; preds = %bb5
; call <core::slice::iter::Iter<T> as core::iter::traits::double_ended::DoubleEndedIterator>::next_back
  %17 = call align 1 ptr @"_ZN106_$LT$core..slice..iter..Iter$LT$T$GT$$u20$as$u20$core..iter..traits..double_ended..DoubleEndedIterator$GT$9next_back17h5afb966917d91340E"(ptr align 8 %bytes)
  store ptr %17, ptr %self2, align 8
  %18 = load ptr, ptr %self2, align 8, !noundef !4
  %19 = ptrtoint ptr %18 to i64
  %20 = icmp eq i64 %19, 0
  %_39 = select i1 %20, i64 0, i64 1
  %_40 = icmp eq i64 %_39, 1
  call void @llvm.assume(i1 %_40)
  %val5 = load ptr, ptr %self2, align 8, !nonnull !4, !align !6, !noundef !4
  %y = load i8, ptr %val5, align 1, !noundef !4
  %_41 = and i8 %y, 15
  %_18 = zext i8 %_41 to i32
  store i32 %_18, ptr %ch, align 4
  %_19 = icmp slt i8 %y, -64
  br i1 %_19, label %bb9, label %bb11

bb14:                                             ; preds = %bb12, %bb13
  %ch9 = load i32, ptr %ch, align 4, !noundef !4
  %_53 = shl i32 %ch9, 6
  %_55 = and i8 %w, 63
  %_54 = zext i8 %_55 to i32
  %_28 = or i32 %_53, %_54
  store i32 %_28, ptr %ch, align 4
  %_30 = load i32, ptr %ch, align 4, !noundef !4
  %21 = getelementptr inbounds i8, ptr %_0, i64 4
  store i32 %_30, ptr %21, align 4
  store i32 1, ptr %_0, align 4
  br label %bb16

bb11:                                             ; preds = %bb7
  br label %bb12

bb9:                                              ; preds = %bb7
; call <core::slice::iter::Iter<T> as core::iter::traits::double_ended::DoubleEndedIterator>::next_back
  %22 = call align 1 ptr @"_ZN106_$LT$core..slice..iter..Iter$LT$T$GT$$u20$as$u20$core..iter..traits..double_ended..DoubleEndedIterator$GT$9next_back17h5afb966917d91340E"(ptr align 8 %bytes)
  store ptr %22, ptr %self3, align 8
  %23 = load ptr, ptr %self3, align 8, !noundef !4
  %24 = ptrtoint ptr %23 to i64
  %25 = icmp eq i64 %24, 0
  %_44 = select i1 %25, i64 0, i64 1
  %_45 = icmp eq i64 %_44, 1
  call void @llvm.assume(i1 %_45)
  %val6 = load ptr, ptr %self3, align 8, !nonnull !4, !align !6, !noundef !4
  %x = load i8, ptr %val6, align 1, !noundef !4
  %_46 = and i8 %x, 7
  %_23 = zext i8 %_46 to i32
  store i32 %_23, ptr %ch, align 4
  %ch7 = load i32, ptr %ch, align 4, !noundef !4
  %_47 = shl i32 %ch7, 6
  %_49 = and i8 %y, 63
  %_48 = zext i8 %_49 to i32
  %_24 = or i32 %_47, %_48
  store i32 %_24, ptr %ch, align 4
  br label %bb12

bb12:                                             ; preds = %bb9, %bb11
  %ch8 = load i32, ptr %ch, align 4, !noundef !4
  %_50 = shl i32 %ch8, 6
  %_52 = and i8 %z, 63
  %_51 = zext i8 %_52 to i32
  %_26 = or i32 %_50, %_51
  store i32 %_26, ptr %ch, align 4
  br label %bb14

bb16:                                             ; preds = %bb15, %bb14
  %26 = load i32, ptr %_0, align 4, !range !7, !noundef !4
  %27 = getelementptr inbounds i8, ptr %_0, i64 4
  %28 = load i32, ptr %27, align 4
  %29 = insertvalue { i32, i32 } poison, i32 %26, 0
  %30 = insertvalue { i32, i32 } %29, i32 %28, 1
  ret { i32, i32 } %30

bb15:                                             ; preds = %bb3, %bb4
  br label %bb16

bb20:                                             ; No predecessors!
  unreachable
}

; core::str::<impl str>::starts_with
; Function Attrs: nonlazybind uwtable
define internal zeroext i1 @"_ZN4core3str21_$LT$impl$u20$str$GT$11starts_with17hb4966e1a8eff8fcfE"(ptr align 1 %self.0, i64 %self.1, ptr align 1 %pat.0, i64 %pat.1) unnamed_addr #1 {
start:
; call <&str as core::str::pattern::Pattern>::is_prefix_of
